###############################################################################
#
# IAR C/C++ Compiler V8.10.1.1784/W64 for Microchip AVR   02/May/2023  12:40:43
# Copyright 1996-2023 IAR Systems AB.
# Mobile license - IAR Embedded Workbench for Microchip AVR 8.10
#
#    Source file           =  D:\S2Prog\IO\ANZB_ATmega1281\Src\UsartInt.c
#    Command line          =
#        -f D:\S2Prog\IO\ANZB_ATmega1281\Release\Obj\Main\UsartInt.r90.rsp
#        (D:\S2Prog\IO\ANZB_ATmega1281\Src\UsartInt.c --cpu=m1281 -ms -o
#        D:\S2Prog\IO\ANZB_ATmega1281\Release\Obj\Main -D OS_LIBMODE_S -D
#        OS_UART=-1 -D USE_16552_DRIVER_TASK=1 -lCN
#        D:\S2Prog\IO\ANZB_ATmega1281\Release\List\Main -y
#        --initializers_in_flash --no_tbaa --enable_external_bus
#        -DENABLE_BIT_DEFINITIONS -e -I D:\S2Prog\IO\ANZB_ATmega1281\INC\ -I
#        D:\S2Prog\IO\ANZB_ATmega1281\..\..\SHARED\INC\ --eeprom_size 4096
#        --clib -Oh) --dependencies=n
#        D:\S2Prog\IO\ANZB_ATmega1281\Release\Obj\Main\UsartInt.r90.iar_deps
#    Locale                =  C
#    List file             =
#        D:\S2Prog\IO\ANZB_ATmega1281\Release\List\Main\UsartInt.lst
#    Object file           =
#        D:\S2Prog\IO\ANZB_ATmega1281\Release\Obj\Main\UsartInt.r90
#    Runtime model:           
#      __64bit_doubles     =  disabled
#      __SystemLibrary     =  CLib
#      __architecture      =  *
#      __cpu               =  3
#      __cpu_name          =  ATmega1281
#      __dlib_version      =  clib
#      __enhanced_core     =  enabled
#      __enhanced_core_mul =  enabled
#      __has_elpm          =  true
#      __memory_model      =  2
#      __mex               =  disabled
#      __no_rampd          =  enabled
#      __rt_version        =  3
#      __vtable_memory     =  __nearflash
#
###############################################################################

D:\S2Prog\IO\ANZB_ATmega1281\Src\UsartInt.c
      1          /****************************************************************************************
      2          / USART1 functions and interrupt
      3          /   This routines sync and check the ANPRO10
      4          /   Uart1Pro.c handle the package
      5          /
      6          ***************************************************************************************/
      7          
      8          #if USE_MODBUS_PROTOCOL == 0
      9          
     10          #include "iom1281.h"

   \                                 In  segment ABSOLUTE, at 0xce
   \   __no_init union <unnamed>#40 volatile __io _A_UDR1
   \                     _A_UDR1:
   \   00000000                      DS8 1

   \                                 In  segment ABSOLUTE, at 0xc9
   \   __no_init union <unnamed>#53 volatile __io _A_UCSR1B
   \                     _A_UCSR1B:
   \   00000000                      DS8 1

   \                                 In  segment ABSOLUTE, at 0xc8
   \   __no_init union <unnamed>#56 volatile __io _A_UCSR1A
   \                     _A_UCSR1A:
   \   00000000                      DS8 1

   \                                 In  segment ABSOLUTE, at 0xc6
   \   __no_init union <unnamed>#59 volatile __io _A_UDR0
   \                     _A_UDR0:
   \   00000000                      DS8 1

   \                                 In  segment ABSOLUTE, at 0xc1
   \   __no_init union <unnamed>#72 volatile __io _A_UCSR0B
   \                     _A_UCSR0B:
   \   00000000                      DS8 1

   \                                 In  segment ABSOLUTE, at 0xc0
   \   __no_init union <unnamed>#75 volatile __io _A_UCSR0A
   \                     _A_UCSR0A:
   \   00000000                      DS8 1

   \                                 In  segment ABSOLUTE, at 0x2e
   \   __no_init union <unnamed>#436 volatile __io _A_PORTE
   \                     _A_PORTE:
   \   00000000                      DS8 1
     11          #include "stdio.h"
     12          #include "math.h"
     13          #include "externals.h"
     14          #include "version.h"
     15          
     16          #if (OS_UART != 0)
     17          
     18          // USART0

   \                                 In  segment CODE, align 2, keep-with-next
     19          void Int_Handler_RX_USART0( void ){   
   \                     Int_Handler_RX_USART0:
   \   00000000   928A               ST      -Y, R8
   \   00000002   925A               ST      -Y, R5
   \   00000004   93BA               ST      -Y, R27
   \   00000006   93AA               ST      -Y, R26
   \   00000008   938A               ST      -Y, R24
   \   0000000A                      REQUIRE ?Register_R5_is_cg_reg
   \   0000000A                      REQUIRE ?Register_R8_is_cg_reg
   \   0000000A                      REQUIRE __RSTACK_in_external_ram_new_way
     20          
     21              if ( UCSR0A & __BIT_MASK( DOR0 ) ) {                // Overrun error? 
   \   0000000A   910000C0           LDS     R16, 192
     22              }
     23          
     24              if ( UCSR0A & __BIT_MASK( FE0 ) ) {                 // Framing error? 
   \   0000000E   910000C0           LDS     R16, 192
   \   00000012   2455               CLR     R5
   \   00000014   EF8A               LDI     R24, 250
   \   00000016   2488               CLR     R8
   \   00000018   9483               INC     R8
   \   0000001A   ....               LDI     R26, LOW(UART)
   \   0000001C   ....               LDI     R27, (UART) >> 8
   \   0000001E   C003               RJMP    ??Int_Handler_RX_USART0_0
     25              }
     26          
     27              while ( UCSR0A & __BIT_MASK( RXC0)  ) {                // New byte avaiable?
     28                  UART[0].pRxBuffer[ UART[0].RxFirst ] = UDR0;    // Read the character 
     29          
     30                  if (UART[0].RxState != HANDLE) {                // ok to receive? 
     31                      switch (UART[0].RxState) {                   // Yes, check state
     32                      case SYNC :
     33                          if ( UART[0].pRxBuffer[ UART[0].RxFirst ] == ANPRO10_SYN) {
     34                              UART[0].SyncCnt ++ ;                 // count sync
     35                              UART[0].RxFirst = 0;                 // start at start of buff
     36                          } else if ((UART[0].SyncCnt >= 2) && 
     37                                     (UART[0].pRxBuffer[ UART[0].RxFirst ] == ANPRO10_SOH)) {       // minimum two sync bytes
     38                              UART[0].SyncCnt = 0 ;                // reset counter
     39                              UART[0].RxState = HEADER ;
     40                              UART[0].RxLast = 0 ;
     41                              UART[0].RxTimeout = RX_TO_TIME ;    // reset timeout
     42                          } else {
     43                              UART[0].SyncCnt = 0 ;                // start over once more
     44                          }
     45                          break;
     46                      default :
     47                          if ((++UART[0].RxFirst) > RXSIZE_UART) { // Point to next location
     48                              GoToSyncUART(0) ;                       // go to sync mode
   \                     ??Int_Handler_RX_USART0_1:
   \   00000020   E000               LDI     R16, 0
   \   00000022   ........           CALL    GoToSyncUART
     49                          } else {
   \                     ??Int_Handler_RX_USART0_0:
   \   00000026   910000C0           LDS     R16, 192
   \   0000002A   FF07               SBRS    R16, 7
   \   0000002C   C03D               RJMP    ??Int_Handler_RX_USART0_2
   \   0000002E   912000C6           LDS     R18, 198
   \   00000032   01FD               MOVW    R31:R30, R27:R26
   \   00000034   8502               LDD     R16, Z+10
   \   00000036   8513               LDD     R17, Z+11
   \   00000038   8544               LDD     R20, Z+12
   \   0000003A   8555               LDD     R21, Z+13
   \   0000003C   01F8               MOVW    R31:R30, R17:R16
   \   0000003E   0FE4               ADD     R30, R20
   \   00000040   1FF5               ADC     R31, R21
   \   00000042   8320               ST      Z, R18
   \   00000044   01FD               MOVW    R31:R30, R27:R26
   \   00000046   8902               LDD     R16, Z+18
   \   00000048   300A               CPI     R16, 10
   \   0000004A   F369               BREQ    ??Int_Handler_RX_USART0_0
   \   0000004C   2300               TST     R16
   \   0000004E   F4F9               BRNE    ??Int_Handler_RX_USART0_3
   \   00000050   8502               LDD     R16, Z+10
   \   00000052   8513               LDD     R17, Z+11
   \   00000054   8524               LDD     R18, Z+12
   \   00000056   8535               LDD     R19, Z+13
   \   00000058   01F8               MOVW    R31:R30, R17:R16
   \   0000005A   0FE2               ADD     R30, R18
   \   0000005C   1FF3               ADC     R31, R19
   \   0000005E   8100               LD      R16, Z
   \   00000060   3106               CPI     R16, 22
   \   00000062   01FD               MOVW    R31:R30, R27:R26
   \   00000064   F431               BRNE    ??Int_Handler_RX_USART0_4
   \   00000066   8903               LDD     R16, Z+19
   \   00000068   9503               INC     R16
   \   0000006A   8B03               STD     Z+19, R16
   \   0000006C   8654               STD     Z+12, R5
   \   0000006E   8655               STD     Z+13, R5
   \   00000070   CFDA               RJMP    ??Int_Handler_RX_USART0_0
   \                     ??Int_Handler_RX_USART0_4:
   \   00000072   8913               LDD     R17, Z+19
   \   00000074   3012               CPI     R17, 2
   \   00000076   F048               BRCS    ??Int_Handler_RX_USART0_5
   \   00000078   3001               CPI     R16, 1
   \   0000007A   F439               BRNE    ??Int_Handler_RX_USART0_5
   \   0000007C   8A53               STD     Z+19, R5
   \   0000007E   8A82               STD     Z+18, R8
   \   00000080   8656               STD     Z+14, R5
   \   00000082   8657               STD     Z+15, R5
   \   00000084   8B84               STD     Z+20, R24
   \   00000086   8A55               STD     Z+21, R5
   \   00000088   CFCE               RJMP    ??Int_Handler_RX_USART0_0
   \                     ??Int_Handler_RX_USART0_5:
   \   0000008A   8A53               STD     Z+19, R5
   \   0000008C   CFCC               RJMP    ??Int_Handler_RX_USART0_0
   \                     ??Int_Handler_RX_USART0_3:
   \   0000008E   8504               LDD     R16, Z+12
   \   00000090   8515               LDD     R17, Z+13
   \   00000092   5F0F               SUBI    R16, 255
   \   00000094   4F1F               SBCI    R17, 255
   \   00000096   8704               STD     Z+12, R16
   \   00000098   8715               STD     Z+13, R17
   \   0000009A   3907               CPI     R16, 151
   \   0000009C   4010               SBCI    R17, 0
   \   0000009E   F600               BRCC    ??Int_Handler_RX_USART0_1
     50                              ReceivePacketUart(0) ;              // Check package
   \   000000A0   E000               LDI     R16, 0
   \   000000A2   ........           CALL    ReceivePacketUart
   \   000000A6   CFBF               RJMP    ??Int_Handler_RX_USART0_0
     51                          }
     52                          break ;   
     53                      }
     54                  }
     55              }
     56          } 
   \                     ??Int_Handler_RX_USART0_2:
   \   000000A8                      REQUIRE ?Subroutine0
   \   000000A8                      REQUIRE _A_UCSR0A
   \   000000A8                      REQUIRE _A_UDR0
   \   000000A8                      ;               // Fall through to label ?Subroutine0

   \                                 In  segment CODE, align 2, keep-with-next
   \                     ?Subroutine0:
   \   00000000   9189               LD      R24, Y+
   \   00000002   91A9               LD      R26, Y+
   \   00000004   91B9               LD      R27, Y+
   \   00000006   9059               LD      R5, Y+
   \   00000008   9089               LD      R8, Y+
   \   0000000A   9508               RET
     57          
     58          
     59          #pragma vector=USART0_RX_vect

   \                                 In  segment CODE, align 2, keep-with-next
     60          __interrupt void IntHandler_RX_USART0( void ){   
   \                     IntHandler_RX_USART0:
   \   00000000   939A               ST      -Y, R25
   \   00000002   938A               ST      -Y, R24
   \   00000004   93FA               ST      -Y, R31
   \   00000006   93EA               ST      -Y, R30
   \   00000008   923A               ST      -Y, R3
   \   0000000A   922A               ST      -Y, R2
   \   0000000C   921A               ST      -Y, R1
   \   0000000E   920A               ST      -Y, R0
   \   00000010   937A               ST      -Y, R23
   \   00000012   936A               ST      -Y, R22
   \   00000014   935A               ST      -Y, R21
   \   00000016   934A               ST      -Y, R20
   \   00000018   933A               ST      -Y, R19
   \   0000001A   932A               ST      -Y, R18
   \   0000001C   931A               ST      -Y, R17
   \   0000001E   930A               ST      -Y, R16
   \   00000020   B78F               IN      R24, 0x3F
   \   00000022   B79B               IN      R25, 0x3B
   \   00000024                      REQUIRE __RSTACK_in_external_ram_new_way
     61              OS_CallISR(Int_Handler_RX_USART0);
   \   00000024   ....               LDI     R16, LOW(Int_Handler_RX_USART0/2)
   \   00000026   ....               LDI     R17, (Int_Handler_RX_USART0/2) >> 8
   \   00000028   ....               RJMP    ?Subroutine1
     62          }

   \                                 In  segment CODE, align 2, keep-with-next
   \                     ?Subroutine1:
   \   00000000   ........           CALL    OS_CallISR
   \   00000004   BF9B               OUT     0x3B, R25
   \   00000006   BF8F               OUT     0x3F, R24
   \   00000008   9109               LD      R16, Y+
   \   0000000A   9119               LD      R17, Y+
   \   0000000C   9129               LD      R18, Y+
   \   0000000E   9139               LD      R19, Y+
   \   00000010   9149               LD      R20, Y+
   \   00000012   9159               LD      R21, Y+
   \   00000014   9169               LD      R22, Y+
   \   00000016   9179               LD      R23, Y+
   \   00000018   9009               LD      R0, Y+
   \   0000001A   9019               LD      R1, Y+
   \   0000001C   9029               LD      R2, Y+
   \   0000001E   9039               LD      R3, Y+
   \   00000020   91E9               LD      R30, Y+
   \   00000022   91F9               LD      R31, Y+
   \   00000024   9189               LD      R24, Y+
   \   00000026   9199               LD      R25, Y+
   \   00000028   9518               RETI
     63          

   \                                 In  segment CODE, align 2, keep-with-next
     64          void Int_Handler_TX_USART0( void ){   
   \                     Int_Handler_TX_USART0:
   \   00000000                      REQUIRE __RSTACK_in_external_ram_new_way
     65          
     66              UCSR0B &= ~(__BIT_MASK( TXCIE0)) ;            // transmission end, disable int.
   \   00000000   910000C1           LDS     R16, 193
   \   00000004   7B0F               ANDI    R16, 0xBF
   \   00000006   930000C1           STS     193, R16
     67              PORTE &= ~0x04 ;                              // TXE0 off
   \   0000000A   9872               CBI     0x0E, 0x02
     68              OS_StopTimer(&TimerUSART0);                    // and stop timer
   \   0000000C   ....               LDI     R16, LOW(TimerUSART0)
   \   0000000E   ....               LDI     R17, (TimerUSART0) >> 8
   \   00000010   ........           CALL    OS_StopTimer
     69              GoToSyncUART(0) ;                                    // go to sync modus for recive
   \   00000014   E000               LDI     R16, 0
   \   00000016   ........           JMP     GoToSyncUART
   \   0000001A                      REQUIRE _A_UCSR0B
   \   0000001A                      REQUIRE _A_PORTE
     70              
     71          }
     72          
     73          #pragma vector=USART0_TX_vect

   \                                 In  segment CODE, align 2, keep-with-next
     74          __interrupt void IntHandler_TX_USART0( void ){   
   \                     IntHandler_TX_USART0:
   \   00000000   939A               ST      -Y, R25
   \   00000002   938A               ST      -Y, R24
   \   00000004   93FA               ST      -Y, R31
   \   00000006   93EA               ST      -Y, R30
   \   00000008   923A               ST      -Y, R3
   \   0000000A   922A               ST      -Y, R2
   \   0000000C   921A               ST      -Y, R1
   \   0000000E   920A               ST      -Y, R0
   \   00000010   937A               ST      -Y, R23
   \   00000012   936A               ST      -Y, R22
   \   00000014   935A               ST      -Y, R21
   \   00000016   934A               ST      -Y, R20
   \   00000018   933A               ST      -Y, R19
   \   0000001A   932A               ST      -Y, R18
   \   0000001C   931A               ST      -Y, R17
   \   0000001E   930A               ST      -Y, R16
   \   00000020   B78F               IN      R24, 0x3F
   \   00000022   B79B               IN      R25, 0x3B
   \   00000024                      REQUIRE __RSTACK_in_external_ram_new_way
     75              OS_CallISR(Int_Handler_TX_USART0);
   \   00000024   ....               LDI     R16, LOW(Int_Handler_TX_USART0/2)
   \   00000026   ....               LDI     R17, (Int_Handler_TX_USART0/2) >> 8
   \   00000028   ....               RJMP    ?Subroutine1
     76          }
     77          

   \                                 In  segment CODE, align 2, keep-with-next
     78          void Int_Handler_UDRE_USART0( void ){   
   \                     Int_Handler_UDRE_USART0:
   \   00000000   019D               MOVW    R19:R18, R27:R26
   \   00000002                      REQUIRE __RSTACK_in_external_ram_new_way
     79              if ( UART[0].TxCount-- > 0 ) {
   \   00000002   ....               LDI     R30, LOW(UART)
   \   00000004   ....               LDI     R31, (UART) >> 8
   \   00000006   8106               LDD     R16, Z+6
   \   00000008   8117               LDD     R17, Z+7
   \   0000000A   2B01               OR      R16, R17
   \   0000000C   F0A9               BREQ    ??Int_Handler_UDRE_USART0_0
   \   0000000E   8106               LDD     R16, Z+6
   \   00000010   5001               SUBI    R16, 1
   \   00000012   4010               SBCI    R17, 0
   \   00000014   8306               STD     Z+6, R16
   \   00000016   8317               STD     Z+7, R17
     80                  UDR0 = UART[0].pTxBuffer[ UART[0].TxLast ];     // Send a character
   \   00000018   81A0               LD      R26, Z
   \   0000001A   81B1               LDD     R27, Z+1
   \   0000001C   8104               LDD     R16, Z+4
   \   0000001E   8115               LDD     R17, Z+5
   \   00000020   0FA0               ADD     R26, R16
   \   00000022   1FB1               ADC     R27, R17
   \   00000024   910C               LD      R16, X
   \   00000026   930000C6           STS     198, R16
     81                  UART[0].TxLast++;
   \   0000002A   8104               LDD     R16, Z+4
   \   0000002C   8115               LDD     R17, Z+5
   \   0000002E   5F0F               SUBI    R16, 255
   \   00000030   4F1F               SBCI    R17, 255
   \   00000032   8304               STD     Z+4, R16
   \   00000034   8315               STD     Z+5, R17
   \   00000036   C012               RJMP    ??Int_Handler_UDRE_USART0_1
     82              } else{                                             // Last byte sent?
   \                     ??Int_Handler_UDRE_USART0_0:
   \   00000038   EF0F               LDI     R16, 255
   \   0000003A   8306               STD     Z+6, R16
   \   0000003C   8307               STD     Z+7, R16
     83                    UCSR0B &= ~(__BIT_MASK( UDRIE0)) ;            // transmission end, disable int.
   \   0000003E   910000C1           LDS     R16, 193
   \   00000042   7D0F               ANDI    R16, 0xDF
   \   00000044   930000C1           STS     193, R16
     84                    UCSR0A |= (__BIT_MASK( TXC0)) ;               // Clear int bit in TXC.
   \   00000048   910000C0           LDS     R16, 192
   \   0000004C   6400               ORI     R16, 0x40
   \   0000004E   930000C0           STS     192, R16
     85                    UCSR0B |= __BIT_MASK( TXCIE0) ;               // Enable TXC int.
   \   00000052   910000C1           LDS     R16, 193
   \   00000056   6400               ORI     R16, 0x40
   \   00000058   930000C1           STS     193, R16
     86              }           
     87          } 
   \                     ??Int_Handler_UDRE_USART0_1:
   \   0000005C   01D9               MOVW    R27:R26, R19:R18
   \   0000005E   9508               RET
   \   00000060                      REQUIRE _A_UDR0
   \   00000060                      REQUIRE _A_UCSR0B
   \   00000060                      REQUIRE _A_UCSR0A
     88          #endif
     89          
     90          #pragma vector=USART0_UDRE_vect

   \                                 In  segment CODE, align 2, keep-with-next
     91          __interrupt void IntHandler_UDRE_USART0( void ){   
   \                     IntHandler_UDRE_USART0:
   \   00000000   939A               ST      -Y, R25
   \   00000002   938A               ST      -Y, R24
   \   00000004   93FA               ST      -Y, R31
   \   00000006   93EA               ST      -Y, R30
   \   00000008   923A               ST      -Y, R3
   \   0000000A   922A               ST      -Y, R2
   \   0000000C   921A               ST      -Y, R1
   \   0000000E   920A               ST      -Y, R0
   \   00000010   937A               ST      -Y, R23
   \   00000012   936A               ST      -Y, R22
   \   00000014   935A               ST      -Y, R21
   \   00000016   934A               ST      -Y, R20
   \   00000018   933A               ST      -Y, R19
   \   0000001A   932A               ST      -Y, R18
   \   0000001C   931A               ST      -Y, R17
   \   0000001E   930A               ST      -Y, R16
   \   00000020   B78F               IN      R24, 0x3F
   \   00000022   B79B               IN      R25, 0x3B
   \   00000024                      REQUIRE __RSTACK_in_external_ram_new_way
     92              OS_CallISR(Int_Handler_UDRE_USART0);
   \   00000024   ....               LDI     R16, LOW(Int_Handler_UDRE_USART0/2)
   \   00000026   ....               LDI     R17, (Int_Handler_UDRE_USART0/2) >> 8
   \   00000028   ....               RJMP    ?Subroutine1
     93          }
     94          // USART1

   \                                 In  segment CODE, align 2, keep-with-next
     95           void Int_Handler_RX_USART1( void ){   
   \                     Int_Handler_RX_USART1:
   \   00000000   928A               ST      -Y, R8
   \   00000002   925A               ST      -Y, R5
   \   00000004   93BA               ST      -Y, R27
   \   00000006   93AA               ST      -Y, R26
   \   00000008   938A               ST      -Y, R24
   \   0000000A                      REQUIRE ?Register_R5_is_cg_reg
   \   0000000A                      REQUIRE ?Register_R8_is_cg_reg
   \   0000000A                      REQUIRE __RSTACK_in_external_ram_new_way
     96              if ( UCSR1A & __BIT_MASK( DOR1 ) ) {                // Overrun error? 
   \   0000000A   910000C8           LDS     R16, 200
     97              }
     98          
     99              if ( UCSR1A & __BIT_MASK( FE1 ) ) {                 // Framing error? 
   \   0000000E   910000C8           LDS     R16, 200
   \   00000012   2455               CLR     R5
   \   00000014   EF8A               LDI     R24, 250
   \   00000016   2488               CLR     R8
   \   00000018   9483               INC     R8
   \   0000001A   ....               LDI     R26, LOW(UART)
   \   0000001C   ....               LDI     R27, (UART) >> 8
   \   0000001E   C003               RJMP    ??Int_Handler_RX_USART1_0
    100              }
    101          
    102              while ( UCSR1A & __BIT_MASK( RXC1)  ) {                // New byte avaiable?
    103                  UART[1].pRxBuffer[ UART[1].RxFirst ] = UDR1;    // Read the character 
    104          
    105                  if (UART[1].RxState != HANDLE) {                // ok to receive? 
    106                      switch (UART[1].RxState) {                   // Yes, check state
    107                      case SYNC :
    108                          if ( UART[1].pRxBuffer[ UART[1].RxFirst ] == ANPRO10_SYN) {
    109                              UART[1].SyncCnt ++ ;                 // count sync
    110                              UART[1].RxFirst = 0;                 // start at start of buff
    111                          } else if ((UART[1].SyncCnt >= 2) && 
    112                                     (UART[1].pRxBuffer[ UART[1].RxFirst ] == ANPRO10_SOH)) {       // minimum two sync bytes
    113                              UART[1].SyncCnt = 0 ;                // reset counter
    114                              UART[1].RxState = HEADER ;
    115                              UART[1].RxLast = 0 ;
    116                              UART[1].RxTimeout = RX_TO_TIME ;      // reset timeout
    117                          } else {
    118                              UART[1].SyncCnt = 0 ;                // start over once more
    119                          }
    120                          break;
    121                      default :
    122                          if ((++UART[1].RxFirst) > RXSIZE_UART) { // Point to next location
    123                              GoToSyncUART(1) ;                    // go to sync mode
   \                     ??Int_Handler_RX_USART1_1:
   \   00000020   E001               LDI     R16, 1
   \   00000022   ........           CALL    GoToSyncUART
    124                          } else {
   \                     ??Int_Handler_RX_USART1_0:
   \   00000026   910000C8           LDS     R16, 200
   \   0000002A   FF07               SBRS    R16, 7
   \   0000002C   C03D               RJMP    ??Int_Handler_RX_USART1_2
   \   0000002E   912000CE           LDS     R18, 206
   \   00000032   01FD               MOVW    R31:R30, R27:R26
   \   00000034   A104               LDD     R16, Z+36
   \   00000036   A115               LDD     R17, Z+37
   \   00000038   A146               LDD     R20, Z+38
   \   0000003A   A157               LDD     R21, Z+39
   \   0000003C   01F8               MOVW    R31:R30, R17:R16
   \   0000003E   0FE4               ADD     R30, R20
   \   00000040   1FF5               ADC     R31, R21
   \   00000042   8320               ST      Z, R18
   \   00000044   01FD               MOVW    R31:R30, R27:R26
   \   00000046   A504               LDD     R16, Z+44
   \   00000048   300A               CPI     R16, 10
   \   0000004A   F369               BREQ    ??Int_Handler_RX_USART1_0
   \   0000004C   2300               TST     R16
   \   0000004E   F4F9               BRNE    ??Int_Handler_RX_USART1_3
   \   00000050   A104               LDD     R16, Z+36
   \   00000052   A115               LDD     R17, Z+37
   \   00000054   A126               LDD     R18, Z+38
   \   00000056   A137               LDD     R19, Z+39
   \   00000058   01F8               MOVW    R31:R30, R17:R16
   \   0000005A   0FE2               ADD     R30, R18
   \   0000005C   1FF3               ADC     R31, R19
   \   0000005E   8100               LD      R16, Z
   \   00000060   3106               CPI     R16, 22
   \   00000062   01FD               MOVW    R31:R30, R27:R26
   \   00000064   F431               BRNE    ??Int_Handler_RX_USART1_4
   \   00000066   A505               LDD     R16, Z+45
   \   00000068   9503               INC     R16
   \   0000006A   A705               STD     Z+45, R16
   \   0000006C   A256               STD     Z+38, R5
   \   0000006E   A257               STD     Z+39, R5
   \   00000070   CFDA               RJMP    ??Int_Handler_RX_USART1_0
   \                     ??Int_Handler_RX_USART1_4:
   \   00000072   A515               LDD     R17, Z+45
   \   00000074   3012               CPI     R17, 2
   \   00000076   F048               BRCS    ??Int_Handler_RX_USART1_5
   \   00000078   3001               CPI     R16, 1
   \   0000007A   F439               BRNE    ??Int_Handler_RX_USART1_5
   \   0000007C   A655               STD     Z+45, R5
   \   0000007E   A684               STD     Z+44, R8
   \   00000080   A650               STD     Z+40, R5
   \   00000082   A651               STD     Z+41, R5
   \   00000084   A786               STD     Z+46, R24
   \   00000086   A657               STD     Z+47, R5
   \   00000088   CFCE               RJMP    ??Int_Handler_RX_USART1_0
   \                     ??Int_Handler_RX_USART1_5:
   \   0000008A   A655               STD     Z+45, R5
   \   0000008C   CFCC               RJMP    ??Int_Handler_RX_USART1_0
   \                     ??Int_Handler_RX_USART1_3:
   \   0000008E   A106               LDD     R16, Z+38
   \   00000090   A117               LDD     R17, Z+39
   \   00000092   5F0F               SUBI    R16, 255
   \   00000094   4F1F               SBCI    R17, 255
   \   00000096   A306               STD     Z+38, R16
   \   00000098   A317               STD     Z+39, R17
   \   0000009A   3907               CPI     R16, 151
   \   0000009C   4010               SBCI    R17, 0
   \   0000009E   F600               BRCC    ??Int_Handler_RX_USART1_1
    125                              ReceivePacketUart(1) ;              // Check package
   \   000000A0   E001               LDI     R16, 1
   \   000000A2   ........           CALL    ReceivePacketUart
   \   000000A6   CFBF               RJMP    ??Int_Handler_RX_USART1_0
    126                          }
    127                          break ;   
    128                      }
    129                  }
    130              }
    131          } 
   \                     ??Int_Handler_RX_USART1_2:
   \   000000A8   ....               RJMP    ?Subroutine0
   \   000000AA                      REQUIRE _A_UCSR1A
   \   000000AA                      REQUIRE _A_UDR1
    132          
    133          #pragma vector=USART1_RX_vect

   \                                 In  segment CODE, align 2, keep-with-next
    134          __interrupt void IntHandler_RX_USART1( void ){   
   \                     IntHandler_RX_USART1:
   \   00000000   939A               ST      -Y, R25
   \   00000002   938A               ST      -Y, R24
   \   00000004   93FA               ST      -Y, R31
   \   00000006   93EA               ST      -Y, R30
   \   00000008   923A               ST      -Y, R3
   \   0000000A   922A               ST      -Y, R2
   \   0000000C   921A               ST      -Y, R1
   \   0000000E   920A               ST      -Y, R0
   \   00000010   937A               ST      -Y, R23
   \   00000012   936A               ST      -Y, R22
   \   00000014   935A               ST      -Y, R21
   \   00000016   934A               ST      -Y, R20
   \   00000018   933A               ST      -Y, R19
   \   0000001A   932A               ST      -Y, R18
   \   0000001C   931A               ST      -Y, R17
   \   0000001E   930A               ST      -Y, R16
   \   00000020   B78F               IN      R24, 0x3F
   \   00000022   B79B               IN      R25, 0x3B
   \   00000024                      REQUIRE __RSTACK_in_external_ram_new_way
    135              OS_CallISR(Int_Handler_RX_USART1);
   \   00000024   ....               LDI     R16, LOW(Int_Handler_RX_USART1/2)
   \   00000026   ....               LDI     R17, (Int_Handler_RX_USART1/2) >> 8
   \   00000028                      REQUIRE ?Subroutine1
   \   00000028                      ;               // Fall through to label ?Subroutine1
    136          }
    137          

   \                                 In  segment CODE, align 2, keep-with-next
    138          void Int_Handler_TX_USART1( void ){   
   \                     Int_Handler_TX_USART1:
   \   00000000                      REQUIRE __RSTACK_in_external_ram_new_way
    139          
    140              UCSR1B &= ~(__BIT_MASK( TXCIE1)) ;            // transmission end, disable int.
   \   00000000   910000C9           LDS     R16, 201
   \   00000004   7B0F               ANDI    R16, 0xBF
   \   00000006   930000C9           STS     201, R16
    141              PORTE &= ~0x08 ;                              // TXE1 off
   \   0000000A   9873               CBI     0x0E, 0x03
    142              OS_StopTimer(&TimerUSART1);                    // and stop timer
   \   0000000C   ....               LDI     R16, LOW(TimerUSART1)
   \   0000000E   ....               LDI     R17, (TimerUSART1) >> 8
   \   00000010   ........           CALL    OS_StopTimer
    143              GoToSyncUART(1) ;                                    // go to sync modus for recive
   \   00000014   E001               LDI     R16, 1
   \   00000016   ........           JMP     GoToSyncUART
   \   0000001A                      REQUIRE _A_UCSR1B
   \   0000001A                      REQUIRE _A_PORTE
    144          }
    145          
    146          #pragma vector=USART1_TX_vect

   \                                 In  segment CODE, align 2, keep-with-next
    147          __interrupt void IntHandler_TX_USART1( void ){   
   \                     IntHandler_TX_USART1:
   \   00000000   939A               ST      -Y, R25
   \   00000002   938A               ST      -Y, R24
   \   00000004   93FA               ST      -Y, R31
   \   00000006   93EA               ST      -Y, R30
   \   00000008   923A               ST      -Y, R3
   \   0000000A   922A               ST      -Y, R2
   \   0000000C   921A               ST      -Y, R1
   \   0000000E   920A               ST      -Y, R0
   \   00000010   937A               ST      -Y, R23
   \   00000012   936A               ST      -Y, R22
   \   00000014   935A               ST      -Y, R21
   \   00000016   934A               ST      -Y, R20
   \   00000018   933A               ST      -Y, R19
   \   0000001A   932A               ST      -Y, R18
   \   0000001C   931A               ST      -Y, R17
   \   0000001E   930A               ST      -Y, R16
   \   00000020   B78F               IN      R24, 0x3F
   \   00000022   B79B               IN      R25, 0x3B
   \   00000024                      REQUIRE __RSTACK_in_external_ram_new_way
    148              OS_CallISR(Int_Handler_TX_USART1);
   \   00000024   ....               LDI     R16, LOW(Int_Handler_TX_USART1/2)
   \   00000026   ....               LDI     R17, (Int_Handler_TX_USART1/2) >> 8
   \   00000028   ....               RJMP    ?Subroutine1
    149          }
    150          

   \                                 In  segment CODE, align 2, keep-with-next
    151          void Int_Handler_UDRE_USART1( void ){   
   \                     Int_Handler_UDRE_USART1:
   \   00000000   019D               MOVW    R19:R18, R27:R26
   \   00000002                      REQUIRE __RSTACK_in_external_ram_new_way
    152          
    153               if ( UART[1].TxCount-- > 0 ) {
   \   00000002   ....               LDI     R30, LOW(UART)
   \   00000004   ....               LDI     R31, (UART) >> 8
   \   00000006   A100               LDD     R16, Z+32
   \   00000008   A111               LDD     R17, Z+33
   \   0000000A   2B01               OR      R16, R17
   \   0000000C   F0A9               BREQ    ??Int_Handler_UDRE_USART1_0
   \   0000000E   A100               LDD     R16, Z+32
   \   00000010   5001               SUBI    R16, 1
   \   00000012   4010               SBCI    R17, 0
   \   00000014   A300               STD     Z+32, R16
   \   00000016   A311               STD     Z+33, R17
    154                  UDR1 = UART[1].pTxBuffer[ UART[1].TxLast ];  // Send a character
   \   00000018   8DA2               LDD     R26, Z+26
   \   0000001A   8DB3               LDD     R27, Z+27
   \   0000001C   8D06               LDD     R16, Z+30
   \   0000001E   8D17               LDD     R17, Z+31
   \   00000020   0FA0               ADD     R26, R16
   \   00000022   1FB1               ADC     R27, R17
   \   00000024   910C               LD      R16, X
   \   00000026   930000CE           STS     206, R16
    155                  UART[1].TxLast++;
   \   0000002A   8D06               LDD     R16, Z+30
   \   0000002C   8D17               LDD     R17, Z+31
   \   0000002E   5F0F               SUBI    R16, 255
   \   00000030   4F1F               SBCI    R17, 255
   \   00000032   8F06               STD     Z+30, R16
   \   00000034   8F17               STD     Z+31, R17
   \   00000036   C012               RJMP    ??Int_Handler_UDRE_USART1_1
    156               } else {
   \                     ??Int_Handler_UDRE_USART1_0:
   \   00000038   EF0F               LDI     R16, 255
   \   0000003A   A300               STD     Z+32, R16
   \   0000003C   A301               STD     Z+33, R16
    157                  UCSR1B &= ~(__BIT_MASK( UDRIE1)) ;            // transmission end, disable int.
   \   0000003E   910000C9           LDS     R16, 201
   \   00000042   7D0F               ANDI    R16, 0xDF
   \   00000044   930000C9           STS     201, R16
    158                  UCSR1A |= (__BIT_MASK( TXC1)) ;               // Clear int bit in TXC.
   \   00000048   910000C8           LDS     R16, 200
   \   0000004C   6400               ORI     R16, 0x40
   \   0000004E   930000C8           STS     200, R16
    159                  UCSR1B |= __BIT_MASK( TXCIE1) ;               // Enable TXC int.
   \   00000052   910000C9           LDS     R16, 201
   \   00000056   6400               ORI     R16, 0x40
   \   00000058   930000C9           STS     201, R16
    160               }
    161          } 
   \                     ??Int_Handler_UDRE_USART1_1:
   \   0000005C   01D9               MOVW    R27:R26, R19:R18
   \   0000005E   9508               RET
   \   00000060                      REQUIRE _A_UDR1
   \   00000060                      REQUIRE _A_UCSR1B
   \   00000060                      REQUIRE _A_UCSR1A
    162          
    163          #pragma vector=USART1_UDRE_vect

   \                                 In  segment CODE, align 2, keep-with-next
    164          __interrupt void IntHandler_UDRE_USART1( void ){   
   \                     IntHandler_UDRE_USART1:
   \   00000000   939A               ST      -Y, R25
   \   00000002   938A               ST      -Y, R24
   \   00000004   93FA               ST      -Y, R31
   \   00000006   93EA               ST      -Y, R30
   \   00000008   923A               ST      -Y, R3
   \   0000000A   922A               ST      -Y, R2
   \   0000000C   921A               ST      -Y, R1
   \   0000000E   920A               ST      -Y, R0
   \   00000010   937A               ST      -Y, R23
   \   00000012   936A               ST      -Y, R22
   \   00000014   935A               ST      -Y, R21
   \   00000016   934A               ST      -Y, R20
   \   00000018   933A               ST      -Y, R19
   \   0000001A   932A               ST      -Y, R18
   \   0000001C   931A               ST      -Y, R17
   \   0000001E   930A               ST      -Y, R16
   \   00000020   B78F               IN      R24, 0x3F
   \   00000022   B79B               IN      R25, 0x3B
   \   00000024                      REQUIRE __RSTACK_in_external_ram_new_way
    165              OS_CallISR(Int_Handler_UDRE_USART1);
   \   00000024   ....               LDI     R16, LOW(Int_Handler_UDRE_USART1/2)
   \   00000026   ....               LDI     R17, (Int_Handler_UDRE_USART1/2) >> 8
   \   00000028   ....               RJMP    ?Subroutine1
    166          }

   \                                 In  segment INTVEC, offset 0x64, root
   \                     `??IntHandler_RX_USART0::??INTVEC 100`:
   \   00000064   ........           JMP     IntHandler_RX_USART0

   \                                 In  segment INTVEC, offset 0x68, root
   \                     `??IntHandler_UDRE_USART0::??INTVEC 104`:
   \   00000068   ........           JMP     IntHandler_UDRE_USART0

   \                                 In  segment INTVEC, offset 0x6c, root
   \                     `??IntHandler_TX_USART0::??INTVEC 108`:
   \   0000006C   ........           JMP     IntHandler_TX_USART0

   \                                 In  segment INTVEC, offset 0x90, root
   \                     `??IntHandler_RX_USART1::??INTVEC 144`:
   \   00000090   ........           JMP     IntHandler_RX_USART1

   \                                 In  segment INTVEC, offset 0x94, root
   \                     `??IntHandler_UDRE_USART1::??INTVEC 148`:
   \   00000094   ........           JMP     IntHandler_UDRE_USART1

   \                                 In  segment INTVEC, offset 0x98, root
   \                     `??IntHandler_TX_USART1::??INTVEC 152`:
   \   00000098   ........           JMP     IntHandler_TX_USART1
    167          #endif /* USE_MODBUS_PROTOCOL == 0 */

   Maximum stack usage in bytes:

   CSTACK RSTACK Function
   ------ ------ --------
     16      2   IntHandler_RX_USART0
       16      2   -> OS_CallISR
     16      2   IntHandler_RX_USART1
       16      2   -> OS_CallISR
     16      2   IntHandler_TX_USART0
       16      2   -> OS_CallISR
     16      2   IntHandler_TX_USART1
       16      2   -> OS_CallISR
     16      2   IntHandler_UDRE_USART0
       16      2   -> OS_CallISR
     16      2   IntHandler_UDRE_USART1
       16      2   -> OS_CallISR
      5      2   Int_Handler_RX_USART0
        5      2   -> GoToSyncUART
        5      2   -> ReceivePacketUart
      5      2   Int_Handler_RX_USART1
        5      2   -> GoToSyncUART
        5      2   -> ReceivePacketUart
      0      2   Int_Handler_TX_USART0
        0      2   -> GoToSyncUART
        0      2   -> OS_StopTimer
      0      2   Int_Handler_TX_USART1
        0      2   -> GoToSyncUART
        0      2   -> OS_StopTimer
      0      2   Int_Handler_UDRE_USART0
      0      2   Int_Handler_UDRE_USART1


   Segment part sizes:

   Bytes  Function/Label
   -----  --------------
      12  ?Subroutine0
      42  ?Subroutine1
      42  IntHandler_RX_USART0
       4  IntHandler_RX_USART0::??INTVEC 100
      40  IntHandler_RX_USART1
       4  IntHandler_RX_USART1::??INTVEC 144
      42  IntHandler_TX_USART0
       4  IntHandler_TX_USART0::??INTVEC 108
      42  IntHandler_TX_USART1
       4  IntHandler_TX_USART1::??INTVEC 152
      42  IntHandler_UDRE_USART0
       4  IntHandler_UDRE_USART0::??INTVEC 104
      42  IntHandler_UDRE_USART1
       4  IntHandler_UDRE_USART1::??INTVEC 148
     168  Int_Handler_RX_USART0
     170  Int_Handler_RX_USART1
      26  Int_Handler_TX_USART0
      26  Int_Handler_TX_USART1
      96  Int_Handler_UDRE_USART0
      96  Int_Handler_UDRE_USART1
       1  _A_PORTE
       1  _A_UCSR0A
       1  _A_UCSR0B
       1  _A_UCSR1A
       1  _A_UCSR1B
       1  _A_UDR0
       1  _A_UDR1

 
   7 bytes in segment ABSOLUTE
 886 bytes in segment CODE
  24 bytes in segment INTVEC
 
 886 bytes of CODE memory (+ 24 bytes shared)
   0 bytes of DATA memory (+  7 bytes shared)

Errors: none
Warnings: none
