###############################################################################
#
# IAR C/C++ Compiler V7.10.1.1197 for Atmel AVR           28/Sep/2017  10:44:04
# Copyright 1996-2017 IAR Systems AB.
# Startup license - IAR Embedded Workbench for Atmel AVR 7.10
#
#    Source file  =  D:\S2Prog\IO\ANZB\Src\ExtInt.c
#    Command line =  
#        -f C:\Users\esy\AppData\Local\Temp\EWDE7.tmp
#        (D:\S2Prog\IO\ANZB\Src\ExtInt.c --cpu=m128 -ms -o
#        D:\S2Prog\IO\ANZB\Debug\Obj -D OS_LIBMODE_D -D OS_UART=-1 -lCN
#        D:\S2Prog\IO\ANZB\Debug\List -y --initializers_in_flash --no_tbaa
#        --debug -DENABLE_BIT_DEFINITIONS -e -I D:\S2Prog\IO\ANZB\INC\ -I
#        D:\S2Prog\IO\ANZB\..\..\SHARED\INC\ --eeprom_size 4096 --clib -Ohz)
#    Locale       =  Norwegian Bokmål_NOR.1252
#    List file    =  D:\S2Prog\IO\ANZB\Debug\List\ExtInt.lst
#    Object file  =  D:\S2Prog\IO\ANZB\Debug\Obj\ExtInt.r90
#
###############################################################################

D:\S2Prog\IO\ANZB\Src\ExtInt.c
      1          /****************************************************************************************
      2          / AD converter handling , AD7715
      3          /
      4          ***************************************************************************************/
      5          
      6          #include "iom128.h"
      7          #include "stdio.h"
      8          #include "math.h"
      9          #include "externals.h"
     10          
     11          /*************************************************************************
     12          *
     13          *  External int 0 (UART PC16554 on AN-ZB485 or ADready on AN-ZBANA)
     14          *
     15          *************************************************************************/
     16          #pragma vector=INT0_vect

   \                                 In  segment CODE, align 2, keep-with-next
     17          __interrupt void IntHandler_INT0( void ){               //Int handler for ext int 0
   \                     IntHandler_INT0:
   \   00000000   ....               RCALL   ?Subroutine0
     18          
     19              // OBS!!!
     20              // Uses UART16552[].TxStatus as intreason and
     21              // UART16552[].TxSeqCnt as counter because these needs to be globale 
     22              // by using OS_EnterIntStack()
     23          
     24              
     25              OS_EnterInterrupt();
     26              OS_EnterIntStack();
     27          
     28              switch (UnitID) {
   \                     ??CrossCallReturnLabel_0:
   \   00000002   F021               BREQ    ??IntHandler_INT0_0
   \   00000004   950A               DEC     R16
   \   00000006   F409               BRNE    $+2+2
   \   00000008   C089               RJMP    ??IntHandler_INT0_1
   \   0000000A   C08D               RJMP    ??IntHandler_INT0_2
     29              case 0x00:                  // AN-ZB485  
     30                    UART16552[0].TxStatus = (U0_IIR & 0x0f);          // reason for interrupt
   \                     ??IntHandler_INT0_0:
   \   0000000C   ....               LDI     R26, LOW(UART16552)
   \   0000000E   ....               LDI     R27, (UART16552) >> 8
   \   00000010   ....               RCALL   ?Subroutine2
     31                  do {
     32                      switch (UART16552[0].TxStatus) {
   \                     ??CrossCallReturnLabel_2:
   \   00000012   9100....           LDS     R16, (UART16552 + 8)
   \   00000016   2300               TST     R16
   \   00000018   F409               BRNE    $+2+2
   \   0000001A   C07A               RJMP    ??IntHandler_INT0_3
   \   0000001C   5002               SUBI    R16, 2
   \   0000001E   F041               BREQ    ??IntHandler_INT0_4
   \   00000020   5002               SUBI    R16, 2
   \   00000022   F1C9               BREQ    ??IntHandler_INT0_5
   \   00000024   5002               SUBI    R16, 2
   \   00000026   F409               BRNE    $+2+2
   \   00000028   C070               RJMP    ??IntHandler_INT0_6
   \   0000002A   5006               SUBI    R16, 6
   \   0000002C   F1A1               BREQ    ??IntHandler_INT0_5
   \   0000002E   C072               RJMP    ??IntHandler_INT0_7
     33                      case 0x02 :             // transmit holding reg emty
     34                          if (UART16552[0].TxCount == 0) {
   \                     ??IntHandler_INT0_4:
   \   00000030   01FD               MOVW    R31:R30, R27:R26
   \   00000032   8106               LDD     R16, Z+6
   \   00000034   8117               LDD     R17, Z+7
   \   00000036   2B01               OR      R16, R17
   \   00000038   F439               BRNE    ??IntHandler_INT0_8
     35                              U0_MCR &= ~RTS;        // set RTS off
   \   0000003A   E0EC               LDI     R30, LOW(4364)
   \   0000003C   ....               RCALL   ?Subroutine4
     36                              OS_StopTimer(&TimerUART0);                    // and stop timer
   \                     ??CrossCallReturnLabel_4:
   \   0000003E   ....               LDI     R16, LOW(TimerUART0)
   \   00000040   ....               LDI     R17, (TimerUART0) >> 8
   \   00000042   ........           CALL    OS_StopTimer
   \   00000046   C066               RJMP    ??IntHandler_INT0_7
     37                          } else {
     38                              for (UART16552[0].TxSeqCnt = 0;( UART16552[0].TxSeqCnt < FIFO_TX_BUFSIZE ) && (UART16552[0].TxCount > 0 ); UART16552[0].TxSeqCnt++, --UART16552[0].TxCount) {
   \                     ??IntHandler_INT0_8:
   \   00000048   E000               LDI     R16, 0
   \   0000004A   8701               STD     Z+9, R16
   \                     ??IntHandler_INT0_9:
   \   0000004C   8106               LDD     R16, Z+6
   \   0000004E   8117               LDD     R17, Z+7
   \   00000050   2B01               OR      R16, R17
   \   00000052   F409               BRNE    $+2+2
   \   00000054   C05F               RJMP    ??IntHandler_INT0_7
     39                                  U0_THR = UART16552[0].pTxBuffer[UART16552[0].TxLast++];
   \   00000056   ....               RCALL   ?Subroutine3
     40                              }
   \                     ??CrossCallReturnLabel_30:
   \   00000058   9715               SBIW    R27:R26, 5
   \   0000005A   ....               RCALL   ?Subroutine11
   \                     ??CrossCallReturnLabel_16:
   \   0000005C   93001108           STS     4360, R16
   \   00000060   01FD               MOVW    R31:R30, R27:R26
   \   00000062   8104               LDD     R16, Z+4
   \   00000064   8115               LDD     R17, Z+5
   \   00000066   ....               RCALL   ?Subroutine12
   \                     ??CrossCallReturnLabel_19:
   \   00000068   8304               STD     Z+4, R16
   \   0000006A   8315               STD     Z+5, R17
   \   0000006C   8501               LDD     R16, Z+9
   \   0000006E   9503               INC     R16
   \   00000070   8701               STD     Z+9, R16
   \   00000072   8106               LDD     R16, Z+6
   \   00000074   8117               LDD     R17, Z+7
   \   00000076   5001               SUBI    R16, 1
   \   00000078   4010               SBCI    R17, 0
   \   0000007A   8306               STD     Z+6, R16
   \   0000007C   8317               STD     Z+7, R17
   \   0000007E   8501               LDD     R16, Z+9
   \   00000080   3100               CPI     R16, 16
   \   00000082   F008               BRCS    $+2+2
   \   00000084   C047               RJMP    ??IntHandler_INT0_7
   \   00000086   CFE2               RJMP    ??IntHandler_INT0_9
     41                          }
     42                          break;
     43                      case 0x04 :             // Receive data available    
     44                      case 0x0C :             // or caracter timeout (FIFO)
     45                          while (U0_LSR & DATA_READY) {
     46          
     47                              UART16552[0].pRxBuffer[ UART16552[0].RxFirst ] = U0_RBR;             // Read the character 
     48          
     49                              if (UART16552[0].RxState != HANDLE) {                 // ok to receive? 
     50                                  switch (UART16552[0].RxState) {                   // Yes, check state
     51                                  case SYNC :
     52                                      if ( UART16552[0].pRxBuffer[ UART16552[0].RxFirst ] == ANPRO1_SYN) {
     53                                          UART16552[0].SyncCnt ++ ;                 // count sync
   \                     ??IntHandler_INT0_10:
   \   00000088   01FD               MOVW    R31:R30, R27:R26
   \   0000008A   8903               LDD     R16, Z+19
   \   0000008C   9503               INC     R16
   \   0000008E   8B03               STD     Z+19, R16
     54                                          UART16552[0].RxFirst = 0;                 // start at start of buff
   \   00000090   E000               LDI     R16, 0
   \   00000092   8704               STD     Z+12, R16
   \   00000094   8705               STD     Z+13, R16
     55                                      } else if (UART16552[0].SyncCnt >= 2) {       // minimum two sync bytes
   \                     ??IntHandler_INT0_5:
   \   00000096   9100110D           LDS     R16, 4365
   \   0000009A   FF00               SBRS    R16, 0
   \   0000009C   C03B               RJMP    ??IntHandler_INT0_7
   \   0000009E   91001108           LDS     R16, 4360
   \   000000A2   961A               ADIW    R27:R26, 10
   \   000000A4   ....               RCALL   ?Subroutine5
   \                     ??CrossCallReturnLabel_6:
   \   000000A6   971D               SBIW    R27:R26, 13
   \   000000A8   0FE2               ADD     R30, R18
   \   000000AA   1FF3               ADC     R31, R19
   \   000000AC   8300               ST      Z, R16
   \   000000AE   9100....           LDS     R16, (UART16552 + 18)
   \   000000B2   300A               CPI     R16, 10
   \   000000B4   F381               BREQ    ??IntHandler_INT0_5
   \   000000B6   2300               TST     R16
   \   000000B8   F4E9               BRNE    ??IntHandler_INT0_11
   \   000000BA   961A               ADIW    R27:R26, 10
   \   000000BC   ....               RCALL   ?Subroutine6
   \                     ??CrossCallReturnLabel_32:
   \   000000BE   971D               SBIW    R27:R26, 13
   \   000000C0   ....               RCALL   ?Subroutine7
   \                     ??CrossCallReturnLabel_8:
   \   000000C2   F311               BREQ    ??IntHandler_INT0_10
   \   000000C4   9100....           LDS     R16, (UART16552 + 19)
   \   000000C8   3002               CPI     R16, 2
   \   000000CA   E000               LDI     R16, 0
   \   000000CC   9300....           STS     (UART16552 + 19), R16
   \   000000D0   F310               BRCS    ??IntHandler_INT0_5
     56                                          UART16552[0].SyncCnt = 0 ;                // reset counter
     57                                          UART16552[0].RxState = HEADER ;
   \   000000D2   E001               LDI     R16, 1
   \   000000D4   9300....           STS     (UART16552 + 18), R16
     58                                          UART16552[0].RxLast = 0 ;
   \   000000D8   01FD               MOVW    R31:R30, R27:R26
   \   000000DA   E000               LDI     R16, 0
   \   000000DC   8706               STD     Z+14, R16
   \   000000DE   8707               STD     Z+15, R16
     59                                          UART16552[0].RxTimeout = RX_TO_TIME ;   // reset timeout
   \   000000E0   EF0A               LDI     R16, 250
   \   000000E2   8B04               STD     Z+20, R16
   \   000000E4   E000               LDI     R16, 0
   \   000000E6   8B05               STD     Z+21, R16
     60                                          UART16552[0].RxFirst++ ;                 //  1. char OK, start on next
   \   000000E8   8504               LDD     R16, Z+12
   \   000000EA   ....               RCALL   ?Subroutine8
     61                                          ReceivePacketUart16552(0) ;              // Check package
   \                     ??CrossCallReturnLabel_10:
   \   000000EC   E000               LDI     R16, 0
   \                     ??IntHandler_INT0_12:
   \   000000EE   ........           CALL    ReceivePacketUart16552
   \   000000F2   CFD1               RJMP    ??IntHandler_INT0_5
     62                                      } else {
     63                                          UART16552[0].SyncCnt = 0 ;                // start over once more
     64                                      }
     65                                      break;
     66                                  default :
     67                                      if ((++UART16552[0].RxFirst) > RXSIZE_UART_16552) { // Point to next location
   \                     ??IntHandler_INT0_11:
   \   000000F4   01FD               MOVW    R31:R30, R27:R26
   \   000000F6   8504               LDD     R16, Z+12
   \   000000F8   8515               LDD     R17, Z+13
   \   000000FA   ....               RCALL   ?Subroutine8
   \                     ??CrossCallReturnLabel_11:
   \   000000FC   3709               CPI     R16, 121
   \   000000FE   4010               SBCI    R17, 0
   \   00000100   E000               LDI     R16, 0
   \   00000102   F3A8               BRCS    ??IntHandler_INT0_12
     68                                          GoToSyncUART16552(0) ;                       // go to sync mode
   \   00000104   ........           CALL    GoToSyncUART16552
   \   00000108   CFC6               RJMP    ??IntHandler_INT0_5
     69                                      } else {
     70                                          ReceivePacketUart16552(0) ;              // Check package
     71                                      }
     72                                      break ;   
     73                                  }
     74                              }
     75                          } 
     76                          break;
     77                      case 0x06 :                 // Receiver line status, OR, PE, FR, Break int.
     78                          U0_LSR;      // Dummy read to empty register        
   \                     ??IntHandler_INT0_6:
   \   0000010A   9100110D           LDS     R16, 4365
     79                          break;
   \   0000010E   C002               RJMP    ??IntHandler_INT0_7
     80                      case 0x00 :                 // Modem status.
     81                          U0_MSR;      // Dummy read to empty register           
   \                     ??IntHandler_INT0_3:
   \   00000110   9100110E           LDS     R16, 4366
     82                          break;
     83                      }
     84                      UART16552[0].TxStatus = (U0_IIR & 0x0f) ;      // reason for interrupt, 
   \                     ??IntHandler_INT0_7:
   \   00000114   ....               RCALL   ?Subroutine2
     85                                                                                // check again before exit to avoid lost int. and hang
     86                  } while ((UART16552[0].TxStatus & 0x01) != 0x01) ;  
   \                     ??CrossCallReturnLabel_3:
   \   00000116   FD00               SBRC    R16, 0
   \   00000118   C006               RJMP    ??IntHandler_INT0_2
   \   0000011A   CF7B               RJMP    ??CrossCallReturnLabel_2
     87                  break;
     88              case 0x01:                  // AN-ZBANA ADready
     89                  OS_SignalEvent(1, &TCB_AD7715);
   \                     ??IntHandler_INT0_1:
   \   0000011C   ....               LDI     R18, LOW(TCB_AD7715)
   \   0000011E   ....               LDI     R19, (TCB_AD7715) >> 8
   \   00000120   E001               LDI     R16, 1
   \   00000122   ........           CALL    OS_SignalEvent
     90                  break;
     91              }
     92              OS_LeaveIntStack();
   \                     ??IntHandler_INT0_2:
   \   00000126                      REQUIRE ?Subroutine15
   \   00000126                      ;               // Fall through to label ?Subroutine15
     93              OS_LeaveInterruptNoSwitch();
     94          
     95          }

   \                                 In  segment CODE, align 2, keep-with-next
   \                     ?Subroutine15:
   \   00000000   ....               RCALL   ?Subroutine1
   \                     ??CrossCallReturnLabel_23:
   \   00000002   9518               RETI

   \                                 In  segment CODE, align 2, keep-with-next
   \                     ?Subroutine8:
   \   00000000   ....               RCALL   ?Subroutine12
   \                     ??CrossCallReturnLabel_21:
   \   00000002   8704               STD     Z+12, R16
   \   00000004   8715               STD     Z+13, R17
   \   00000006   9508               RET

   \                                 In  segment CODE, align 2, keep-with-next
   \                     ?Subroutine2:
   \   00000000   9100110A           LDS     R16, 4362
   \   00000004   700F               ANDI    R16, 0x0F
   \   00000006   9300....           STS     (UART16552 + 8), R16
   \   0000000A   9508               RET

   \                                 In  segment CODE, align 2, keep-with-next
   \                     ?Subroutine12:
   \   00000000   5F0F               SUBI    R16, 255
   \   00000002   4F1F               SBCI    R17, 255
   \   00000004   9508               RET

   \                                 In  segment CODE, align 2, keep-with-next
   \                     ?Subroutine11:
   \   00000000   0FE0               ADD     R30, R16
   \   00000002   1FF1               ADC     R31, R17
   \   00000004   8100               LD      R16, Z
   \   00000006   9508               RET

   \                                 In  segment CODE, align 2, keep-with-next
   \                     ?Subroutine7:
   \   00000000   ....               RCALL   ?Subroutine11
   \                     ??CrossCallReturnLabel_18:
   \   00000002   3002               CPI     R16, 2
   \   00000004   9508               RET

   \                                 In  segment CODE, align 2, keep-with-next
   \                     ?Subroutine6:
   \   00000000   91ED               LD      R30, X+
   \   00000002   91FD               LD      R31, X+
   \   00000004                      REQUIRE ?Subroutine16
   \   00000004                      ;               // Fall through to label ?Subroutine16

   \                                 In  segment CODE, align 2, keep-with-next
   \                     ?Subroutine16:
   \   00000000   910D               LD      R16, X+
   \   00000002   911C               LD      R17, X
   \   00000004   9508               RET

   \                                 In  segment CODE, align 2, keep-with-next
   \                     ?Subroutine5:
   \   00000000   91ED               LD      R30, X+
   \   00000002   91FD               LD      R31, X+
   \   00000004   912D               LD      R18, X+
   \   00000006   913C               LD      R19, X
   \   00000008   9508               RET

   \                                 In  segment CODE, align 2, keep-with-next
   \                     ?Subroutine4:
   \   00000000   E1F1               LDI     R31, (4364) >> 8
   \   00000002   8100               LD      R16, Z
   \   00000004   7F0D               ANDI    R16, 0xFD
   \   00000006   8300               ST      Z, R16
   \   00000008   9508               RET

   \                                 In  segment CODE, align 2, keep-with-next
   \                     ?Subroutine3:
   \   00000000   91ED               LD      R30, X+
   \   00000002   91FC               LD      R31, X
   \   00000004   9613               ADIW    R27:R26, 3
   \   00000006   ....               RJMP    ?Subroutine16

   \                                 In  segment CODE, align 2, keep-with-next
   \                     ?Subroutine1:
   \   00000000   94F8               CLI
   \   00000002   ........           CALL    OS__LeaveIntStack
   \   00000006   9100....           LDS     R16, OS_InInt
   \   0000000A   2F10               MOV     R17, R16
   \   0000000C   951A               DEC     R17
   \   0000000E   9310....           STS     OS_InInt, R17
   \   00000012   2300               TST     R16
   \   00000014   F411               BRNE    ??CrossCallReturnLabel_25
   \   00000016   E908               LDI     R16, 152
   \   00000018   ....               RCALL   ?Subroutine13
   \                     ??CrossCallReturnLabel_25:
   \   0000001A   ....               RCALL   ?Subroutine14
   \                     ??CrossCallReturnLabel_29:
   \   0000001C   950A               DEC     R16
   \   0000001E   9300....           STS     (OS_Counters + 1), R16
   \   00000022   9100....           LDS     R16, OS_Counters
   \   00000026   950A               DEC     R16
   \   00000028   9300....           STS     OS_Counters, R16
   \   0000002C   BF9B               OUT     0x3B, R25
   \   0000002E   BF8F               OUT     0x3F, R24
   \   00000030   9109               LD      R16, Y+
   \   00000032   9119               LD      R17, Y+
   \   00000034   9129               LD      R18, Y+
   \   00000036   9139               LD      R19, Y+
   \   00000038   9149               LD      R20, Y+
   \   0000003A   9159               LD      R21, Y+
   \   0000003C   9169               LD      R22, Y+
   \   0000003E   9179               LD      R23, Y+
   \   00000040   9009               LD      R0, Y+
   \   00000042   9019               LD      R1, Y+
   \   00000044   9029               LD      R2, Y+
   \   00000046   9039               LD      R3, Y+
   \   00000048   91E9               LD      R30, Y+
   \   0000004A   91F9               LD      R31, Y+
   \   0000004C   9189               LD      R24, Y+
   \   0000004E   9199               LD      R25, Y+
   \   00000050   91A9               LD      R26, Y+
   \   00000052   91B9               LD      R27, Y+
   \   00000054   9508               RET

   \                                 In  segment CODE, align 2, keep-with-next
   \                     ?Subroutine0:
   \   00000000   93BA               ST      -Y, R27
   \   00000002   93AA               ST      -Y, R26
   \   00000004   939A               ST      -Y, R25
   \   00000006   938A               ST      -Y, R24
   \   00000008   93FA               ST      -Y, R31
   \   0000000A   93EA               ST      -Y, R30
   \   0000000C   923A               ST      -Y, R3
   \   0000000E   922A               ST      -Y, R2
   \   00000010   921A               ST      -Y, R1
   \   00000012   920A               ST      -Y, R0
   \   00000014   937A               ST      -Y, R23
   \   00000016   936A               ST      -Y, R22
   \   00000018   935A               ST      -Y, R21
   \   0000001A   934A               ST      -Y, R20
   \   0000001C   933A               ST      -Y, R19
   \   0000001E   932A               ST      -Y, R18
   \   00000020   931A               ST      -Y, R17
   \   00000022   930A               ST      -Y, R16
   \   00000024   B78F               IN      R24, 0x3F
   \   00000026   B79B               IN      R25, 0x3B
   \   00000028   9100....           LDS     R16, OS_InInt
   \   0000002C   9503               INC     R16
   \   0000002E   9300....           STS     OS_InInt, R16
   \   00000032   9100....           LDS     R16, OS_Counters
   \   00000036   9503               INC     R16
   \   00000038   9300....           STS     OS_Counters, R16
   \   0000003C   ....               RCALL   ?Subroutine14
   \                     ??CrossCallReturnLabel_26:
   \   0000003E   9503               INC     R16
   \   00000040   9300....           STS     (OS_Counters + 1), R16
   \   00000044   94F8               CLI
   \   00000046   ........           CALL    OS__EnterIntStack
   \   0000004A   ....               RCALL   ?Subroutine14
   \                     ??CrossCallReturnLabel_27:
   \   0000004C   7F00               ANDI    R16, 0xF0
   \   0000004E   F011               BREQ    ??CrossCallReturnLabel_24
   \   00000050   E909               LDI     R16, 153
   \   00000052   ....               RCALL   ?Subroutine13
   \                     ??CrossCallReturnLabel_24:
   \   00000054   ....               RCALL   ?Subroutine14
   \                     ??CrossCallReturnLabel_28:
   \   00000056   2300               TST     R16
   \   00000058   F409               BRNE    ??Subroutine0_0
   \   0000005A   9478               SEI
   \                     ??Subroutine0_0:
   \   0000005C   9100....           LDS     R16, UnitID
   \   00000060   2300               TST     R16
   \   00000062   9508               RET

   \                                 In  segment CODE, align 2, keep-with-next
   \                     ?Subroutine14:
   \   00000000   9100....           LDS     R16, (OS_Counters + 1)
   \   00000004   9508               RET

   \                                 In  segment CODE, align 2, keep-with-next
   \                     ?Subroutine13:
   \   00000000   E010               LDI     R17, 0
   \   00000002   ........           JMP     OS_Error
     96          
     97          
     98          /*************************************************************************
     99          *
    100          *  External int 1 (UART PC16554 on AN-ZB485)
    101          *
    102          *************************************************************************/
    103          #pragma vector=INT1_vect

   \                                 In  segment CODE, align 2, keep-with-next
    104          __interrupt void IntHandler_INT1( void ){               //Int handler for Ext int 1
   \                     IntHandler_INT1:
   \   00000000   ....               RCALL   ?Subroutine0
    105          
    106              // OBS!!!
    107              // Uses UART16552[].TxStatus as intreason and
    108              // UART16552[].TxSeqCnt as counter because these needs to be globale 
    109              // by using OS_EnterIntStack()
    110              
    111            
    112              OS_EnterInterrupt();
    113              OS_EnterIntStack();
    114          
    115              switch (UnitID) {
   \                     ??CrossCallReturnLabel_1:
   \   00000002   F009               BREQ    $+2+2
   \   00000004   C088               RJMP    ??IntHandler_INT1_0
    116              case 0x00:               // AN-ZB485 
    117                  UART16552[1].TxStatus = (U1_IIR & 0x0f) ;      // reason for interrupt
   \   00000006   ....               LDI     R26, LOW(UART16552)
   \   00000008   ....               LDI     R27, (UART16552) >> 8
   \   0000000A   ....               RCALL   ?Subroutine10
    118                  do {
    119                      switch (UART16552[1].TxStatus) {
   \                     ??CrossCallReturnLabel_14:
   \   0000000C   9100....           LDS     R16, (UART16552 + 34)
   \   00000010   2300               TST     R16
   \   00000012   F409               BRNE    $+2+2
   \   00000014   C07B               RJMP    ??IntHandler_INT1_1
   \   00000016   5002               SUBI    R16, 2
   \   00000018   F041               BREQ    ??IntHandler_INT1_2
   \   0000001A   5002               SUBI    R16, 2
   \   0000001C   F1D1               BREQ    ??IntHandler_INT1_3
   \   0000001E   5002               SUBI    R16, 2
   \   00000020   F409               BRNE    $+2+2
   \   00000022   C071               RJMP    ??IntHandler_INT1_4
   \   00000024   5006               SUBI    R16, 6
   \   00000026   F1A9               BREQ    ??IntHandler_INT1_3
   \   00000028   C073               RJMP    ??IntHandler_INT1_5
    120                      case 0x02 :             // transmit holding reg emty
    121                          if (UART16552[1].TxCount == 0) {
   \                     ??IntHandler_INT1_2:
   \   0000002A   01FD               MOVW    R31:R30, R27:R26
   \   0000002C   A100               LDD     R16, Z+32
   \   0000002E   A111               LDD     R17, Z+33
   \   00000030   2B01               OR      R16, R17
   \   00000032   F439               BRNE    ??IntHandler_INT1_6
    122                              U1_MCR &= ~RTS;        // set RTS off
   \   00000034   E0E4               LDI     R30, LOW(4356)
   \   00000036   ....               RCALL   ?Subroutine4
    123                              OS_StopTimer(&TimerUART1);                    // and stop timer
   \                     ??CrossCallReturnLabel_5:
   \   00000038   ....               LDI     R16, LOW(TimerUART1)
   \   0000003A   ....               LDI     R17, (TimerUART1) >> 8
   \   0000003C   ........           CALL    OS_StopTimer
   \   00000040   C067               RJMP    ??IntHandler_INT1_5
    124                          } else {
    125                              for (UART16552[1].TxSeqCnt = 0;( UART16552[1].TxSeqCnt < FIFO_TX_BUFSIZE ) && (UART16552[1].TxCount > 0 ); UART16552[1].TxSeqCnt++, UART16552[1].TxCount--) {
   \                     ??IntHandler_INT1_6:
   \   00000042   E000               LDI     R16, 0
   \   00000044   A303               STD     Z+35, R16
   \                     ??IntHandler_INT1_7:
   \   00000046   A100               LDD     R16, Z+32
   \   00000048   A111               LDD     R17, Z+33
   \   0000004A   2B01               OR      R16, R17
   \   0000004C   F409               BRNE    $+2+2
   \   0000004E   C060               RJMP    ??IntHandler_INT1_5
    126                                 U1_THR = UART16552[1].pTxBuffer[UART16552[1].TxLast++] ;
   \   00000050   965A               ADIW    R27:R26, 26
   \   00000052   ....               RCALL   ?Subroutine3
    127                              }
   \                     ??CrossCallReturnLabel_31:
   \   00000054   975F               SBIW    R27:R26, 31
   \   00000056   ....               RCALL   ?Subroutine11
   \                     ??CrossCallReturnLabel_17:
   \   00000058   93001100           STS     4352, R16
   \   0000005C   01FD               MOVW    R31:R30, R27:R26
   \   0000005E   8D06               LDD     R16, Z+30
   \   00000060   8D17               LDD     R17, Z+31
   \   00000062   ....               RCALL   ?Subroutine12
   \                     ??CrossCallReturnLabel_20:
   \   00000064   8F06               STD     Z+30, R16
   \   00000066   8F17               STD     Z+31, R17
   \   00000068   A103               LDD     R16, Z+35
   \   0000006A   9503               INC     R16
   \   0000006C   A303               STD     Z+35, R16
   \   0000006E   A100               LDD     R16, Z+32
   \   00000070   A111               LDD     R17, Z+33
   \   00000072   5001               SUBI    R16, 1
   \   00000074   4010               SBCI    R17, 0
   \   00000076   A300               STD     Z+32, R16
   \   00000078   A311               STD     Z+33, R17
   \   0000007A   A103               LDD     R16, Z+35
   \   0000007C   3100               CPI     R16, 16
   \   0000007E   F008               BRCS    $+2+2
   \   00000080   C047               RJMP    ??IntHandler_INT1_5
   \   00000082   CFE1               RJMP    ??IntHandler_INT1_7
    128                          }
    129                          break;
    130                      case 0x04 :             // Receive data available    
    131                      case 0x0C :             // or caracter timeout (FIFO)
    132                          while (U1_LSR & DATA_READY) {
    133          
    134                              UART16552[1].pRxBuffer[ UART16552[1].RxFirst ] = U1_RBR;          // Read the character 
    135          
    136                              if (UART16552[1].RxState != HANDLE) {        // ok to receive? 
    137                                  switch (UART16552[1].RxState) {                   // Yes, check state
    138                                  case SYNC :
    139                                      if ( UART16552[1].pRxBuffer[ UART16552[1].RxFirst ] == ANPRO1_SYN) {
    140                                          UART16552[1].SyncCnt ++ ;                 // count sync
   \                     ??IntHandler_INT1_8:
   \   00000084   01FD               MOVW    R31:R30, R27:R26
   \   00000086   A505               LDD     R16, Z+45
   \   00000088   9503               INC     R16
   \   0000008A   A705               STD     Z+45, R16
    141                                          UART16552[1].RxFirst = 0;                 // start at start of buff
   \   0000008C   E000               LDI     R16, 0
   \   0000008E   A306               STD     Z+38, R16
   \   00000090   A307               STD     Z+39, R16
    142                                      } else if (UART16552[1].SyncCnt >= 2) {       // minimum two sync bytes
   \                     ??IntHandler_INT1_3:
   \   00000092   91001105           LDS     R16, 4357
   \   00000096   FF00               SBRS    R16, 0
   \   00000098   C03B               RJMP    ??IntHandler_INT1_5
   \   0000009A   91001100           LDS     R16, 4352
   \   0000009E   9694               ADIW    R27:R26, 36
   \   000000A0   ....               RCALL   ?Subroutine5
   \                     ??CrossCallReturnLabel_7:
   \   000000A2   9797               SBIW    R27:R26, 39
   \   000000A4   0FE2               ADD     R30, R18
   \   000000A6   1FF3               ADC     R31, R19
   \   000000A8   8300               ST      Z, R16
   \   000000AA   9100....           LDS     R16, (UART16552 + 44)
   \   000000AE   300A               CPI     R16, 10
   \   000000B0   F381               BREQ    ??IntHandler_INT1_3
   \   000000B2   2300               TST     R16
   \   000000B4   F4E9               BRNE    ??IntHandler_INT1_9
   \   000000B6   9694               ADIW    R27:R26, 36
   \   000000B8   ....               RCALL   ?Subroutine6
   \                     ??CrossCallReturnLabel_33:
   \   000000BA   9797               SBIW    R27:R26, 39
   \   000000BC   ....               RCALL   ?Subroutine7
   \                     ??CrossCallReturnLabel_9:
   \   000000BE   F311               BREQ    ??IntHandler_INT1_8
   \   000000C0   9100....           LDS     R16, (UART16552 + 45)
   \   000000C4   3002               CPI     R16, 2
   \   000000C6   E000               LDI     R16, 0
   \   000000C8   9300....           STS     (UART16552 + 45), R16
   \   000000CC   F310               BRCS    ??IntHandler_INT1_3
    143                                          UART16552[1].SyncCnt = 0 ;                // reset counter
    144                                          UART16552[1].RxState = HEADER ;
   \   000000CE   E001               LDI     R16, 1
   \   000000D0   9300....           STS     (UART16552 + 44), R16
    145                                          UART16552[1].RxLast = 0 ;
   \   000000D4   01FD               MOVW    R31:R30, R27:R26
   \   000000D6   E000               LDI     R16, 0
   \   000000D8   A700               STD     Z+40, R16
   \   000000DA   A701               STD     Z+41, R16
    146                                          UART16552[1].RxTimeout = RX_TO_TIME ;     // reset timeout
   \   000000DC   EF0A               LDI     R16, 250
   \   000000DE   A706               STD     Z+46, R16
   \   000000E0   E000               LDI     R16, 0
   \   000000E2   A707               STD     Z+47, R16
    147                                          UART16552[1].RxFirst++ ;                  //  1. char OK, start on next
   \   000000E4   A106               LDD     R16, Z+38
   \   000000E6   ....               RCALL   ?Subroutine9
    148                                          ReceivePacketUart16552(1) ;               // Check package
   \                     ??CrossCallReturnLabel_12:
   \   000000E8   E001               LDI     R16, 1
   \                     ??IntHandler_INT1_10:
   \   000000EA   ........           CALL    ReceivePacketUart16552
   \   000000EE   CFD1               RJMP    ??IntHandler_INT1_3
    149                                      } else {
    150                                          UART16552[1].SyncCnt = 0 ;                // start over once more
    151                                      }
    152                                      break;
    153                                  default :
    154                                      if ((++UART16552[1].RxFirst) > RXSIZE_UART_16552) { // Point to next location
   \                     ??IntHandler_INT1_9:
   \   000000F0   01FD               MOVW    R31:R30, R27:R26
   \   000000F2   A106               LDD     R16, Z+38
   \   000000F4   A117               LDD     R17, Z+39
   \   000000F6   ....               RCALL   ?Subroutine9
   \                     ??CrossCallReturnLabel_13:
   \   000000F8   3709               CPI     R16, 121
   \   000000FA   4010               SBCI    R17, 0
   \   000000FC   E001               LDI     R16, 1
   \   000000FE   F3A8               BRCS    ??IntHandler_INT1_10
    155                                          GoToSyncUART16552(1) ;                       // go to sync mode
   \   00000100   ........           CALL    GoToSyncUART16552
   \   00000104   CFC6               RJMP    ??IntHandler_INT1_3
    156                                      } else {
    157                                          ReceivePacketUart16552(1) ;              // Check package
    158                                      }
    159                                      break ;   
    160                                  }
    161                              }
    162                          }
    163                          break;
    164                      case 0x06 :                 // Receiver line status, OR, PE, FR, Break int.
    165                          U1_LSR;      // Dummy read to empty register        
   \                     ??IntHandler_INT1_4:
   \   00000106   91001105           LDS     R16, 4357
    166                          break;
   \   0000010A   C002               RJMP    ??IntHandler_INT1_5
    167                      case 0x00 :                 // Modem status.
    168                          U1_MSR;      // Dummy read to empty register           
   \                     ??IntHandler_INT1_1:
   \   0000010C   91001106           LDS     R16, 4358
    169                          break;
    170                      }
    171                      UART16552[1].TxStatus = (U1_IIR & 0x0f) ;      // reason for interrupt, 
   \                     ??IntHandler_INT1_5:
   \   00000110   ....               RCALL   ?Subroutine10
    172                                                                                // check again before exit to avoid lost int. and hang
    173                 } while ((UART16552[1].TxStatus & 0x01) != 0x01);  
   \                     ??CrossCallReturnLabel_15:
   \   00000112   FF00               SBRS    R16, 0
   \   00000114   CF7B               RJMP    ??CrossCallReturnLabel_14
    174                  break;
    175              case 0x01:                  // AN-ZBANA Not connected!
    176                  break;
    177              }
    178              OS_LeaveIntStack();
   \                     ??IntHandler_INT1_0:
   \   00000116   ....               RJMP    ?Subroutine15
    179              OS_LeaveInterruptNoSwitch();
    180          }

   \                                 In  segment CODE, align 2, keep-with-next
   \                     ?Subroutine10:
   \   00000000   91001102           LDS     R16, 4354
   \   00000004   700F               ANDI    R16, 0x0F
   \   00000006   9300....           STS     (UART16552 + 34), R16
   \   0000000A   9508               RET

   \                                 In  segment CODE, align 2, keep-with-next
   \                     ?Subroutine9:
   \   00000000   ....               RCALL   ?Subroutine12
   \                     ??CrossCallReturnLabel_22:
   \   00000002   A306               STD     Z+38, R16
   \   00000004   A317               STD     Z+39, R17
   \   00000006   9508               RET

   \                                 In  segment INTVEC, offset 0x4, root
   \                     `??IntHandler_INT0::??INTVEC 4`:
   \   00000004   ........           JMP     IntHandler_INT0

   \                                 In  segment INTVEC, offset 0x8, root
   \                     `??IntHandler_INT1::??INTVEC 8`:
   \   00000008   ........           JMP     IntHandler_INT1

   Maximum stack usage in bytes:

   CSTACK RSTACK Function
   ------ ------ --------
     18      2   IntHandler_INT0
       18      2   -> GoToSyncUART16552
       18      4   -> OS_Error
       18      2   -> OS_SignalEvent
       18      2   -> OS_StopTimer
       18      4   -> OS__EnterIntStack
       18      4   -> OS__LeaveIntStack
       18      2   -> ReceivePacketUart16552
     18      2   IntHandler_INT1
       18      2   -> GoToSyncUART16552
       18      4   -> OS_Error
       18      2   -> OS_StopTimer
       18      4   -> OS__EnterIntStack
       18      4   -> OS__LeaveIntStack
       18      2   -> ReceivePacketUart16552


   Segment part sizes:

   Bytes  Function/Label
   -----  --------------
     100  ?Subroutine0
      86  ?Subroutine1
      12  ?Subroutine10
       8  ?Subroutine11
       6  ?Subroutine12
       6  ?Subroutine13
       6  ?Subroutine14
       4  ?Subroutine15
       6  ?Subroutine16
      12  ?Subroutine2
       8  ?Subroutine3
      10  ?Subroutine4
      10  ?Subroutine5
       4  ?Subroutine6
       6  ?Subroutine7
       8  ?Subroutine8
       8  ?Subroutine9
     294  IntHandler_INT0
       4  IntHandler_INT0::??INTVEC 4
     280  IntHandler_INT1
       4  IntHandler_INT1::??INTVEC 8

 
 874 bytes in segment CODE
   8 bytes in segment INTVEC
 
 874 bytes of CODE memory (+ 8 bytes shared)

Errors: none
Warnings: none
