###############################################################################
#
# IAR C/C++ Compiler V6.70.1.929 for Atmel AVR            23/Jan/2017  13:07:10
# Copyright 1996-2015 IAR Systems AB.
# Standalone license - IAR Embedded Workbench for Atmel AVR 6.80
#
#    Source file  =  D:\S2Prog\IO\TPC\Src\UsartInt.c
#    Command line =  
#        D:\S2Prog\IO\TPC\Src\UsartInt.c --cpu=m128 -ms -o
#        D:\S2Prog\IO\TPC\Release\Obj -D OS_LIBMODE_S -D OS_UART=-1 -lCN
#        D:\S2Prog\IO\TPC\Release\List -y --initializers_in_flash --no_tbaa
#        -DENABLE_BIT_DEFINITIONS -e -I D:\S2Prog\IO\TPC\INC\ -I
#        D:\S2Prog\IO\TPC\..\..\SHARED\INC\ --eeprom_size 4096 --clib -Ohs
#    List file    =  D:\S2Prog\IO\TPC\Release\List\UsartInt.lst
#    Object file  =  D:\S2Prog\IO\TPC\Release\Obj\UsartInt.r90
#
###############################################################################

D:\S2Prog\IO\TPC\Src\UsartInt.c
      1          /****************************************************************************************
      2          / USART1 functions and interrupt
      3          /   This routines sync and check the ANPRO1
      4          /   Uart1Pro.c handle the package
      5          /
      6          ***************************************************************************************/
      7          
      8          
      9          #include "iom128.h"

   \                                 In  segment ABSOLUTE, at 0x23
   \   union <unnamed> volatile __io _A_PORTE
   \                     _A_PORTE:
   \   00000000                      DS8 1

   \                                 In  segment ABSOLUTE, at 0x2a
   \   union <unnamed> volatile __io _A_UCSR0B
   \                     _A_UCSR0B:
   \   00000000                      DS8 1

   \                                 In  segment ABSOLUTE, at 0x2b
   \   union <unnamed> volatile __io _A_UCSR0A
   \                     _A_UCSR0A:
   \   00000000                      DS8 1

   \                                 In  segment ABSOLUTE, at 0x2c
   \   union <unnamed> volatile __io _A_UDR0
   \                     _A_UDR0:
   \   00000000                      DS8 1
     10          #include "stdio.h"
     11          #include "math.h"
     12          #include "externals.h"
     13          #include "version.h"
     14          
     15          #if (OS_UART != 0)
     16          
     17          // USART0
     18          #pragma vector=USART0_RXC_vect

   \                                 In  segment CODE, align 2, keep-with-next
     19          __interrupt void IntHandler_RX_USART0( void ){   
   \                     IntHandler_RX_USART0:
   \   00000000   93BA               ST      -Y, R27
   \   00000002   93AA               ST      -Y, R26
   \   00000004   939A               ST      -Y, R25
   \   00000006   938A               ST      -Y, R24
   \   00000008   93FA               ST      -Y, R31
   \   0000000A   93EA               ST      -Y, R30
   \   0000000C   923A               ST      -Y, R3
   \   0000000E   922A               ST      -Y, R2
   \   00000010   921A               ST      -Y, R1
   \   00000012   920A               ST      -Y, R0
   \   00000014   937A               ST      -Y, R23
   \   00000016   936A               ST      -Y, R22
   \   00000018   935A               ST      -Y, R21
   \   0000001A   934A               ST      -Y, R20
   \   0000001C   933A               ST      -Y, R19
   \   0000001E   932A               ST      -Y, R18
   \   00000020   931A               ST      -Y, R17
   \   00000022   930A               ST      -Y, R16
   \   00000024   B78F               IN      R24, 0x3F
   \   00000026   B79B               IN      R25, 0x3B
     20          
     21              OS_EnterInterrupt();
   \   00000028   9100....           LDS     R16, OS_Counters
   \   0000002C   9503               INC     R16
   \   0000002E   9300....           STS     OS_Counters, R16
   \   00000032   9100....           LDS     R16, (OS_Counters + 1)
   \   00000036   9503               INC     R16
   \   00000038   9300....           STS     (OS_Counters + 1), R16
     22              OS_EnterIntStack();
   \   0000003C   94F8               CLI
   \   0000003E   ........           CALL    OS__EnterIntStack
   \   00000042   9100....           LDS     R16, (OS_Counters + 1)
   \   00000046   2300               TST     R16
   \   00000048   F409               BRNE    ??IntHandler_RX_USART0_0
   \   0000004A   9478               SEI
     23              if ( UCSR0A & __BIT_MASK( DOR0 ) ) {                // Overrun error? 
   \                     ??IntHandler_RX_USART0_0:
   \   0000004C   B10B               IN      R16, 0x0B
     24              }
     25          
     26              if ( UCSR0A & __BIT_MASK( FE0 ) ) {                 // Framing error? 
   \   0000004E   B10B               IN      R16, 0x0B
     27              }
     28          
     29              if ( UCSR0A & __BIT_MASK( RXC0)  ) {                // Reception data full interrupt?
   \   00000050   9B5F               SBIS    0x0B, 0x07
   \   00000052   C042               RJMP    ??IntHandler_RX_USART0_1
     30                  UART[0].pRxBuffer[ UART[0].RxFirst ] = UDR0;                               // Read the character 
   \   00000054   ....               LDI     R30, LOW(UART)
   \   00000056   ....               LDI     R31, (UART) >> 8
   \   00000058   B10C               IN      R16, 0x0C
   \   0000005A   85A4               LDD     R26, Z+12
   \   0000005C   85B5               LDD     R27, Z+13
   \   0000005E   8526               LDD     R18, Z+14
   \   00000060   8537               LDD     R19, Z+15
   \   00000062   0FA2               ADD     R26, R18
   \   00000064   1FB3               ADC     R27, R19
   \   00000066   930C               ST      X, R16
     31          
     32                  if (UART[0].RxState != HANDLE) {        // ok to receive? 
   \   00000068   8904               LDD     R16, Z+20
   \   0000006A   300A               CPI     R16, 10
   \   0000006C   F1A9               BREQ    ??IntHandler_RX_USART0_1
     33                      switch (UART[0].RxState) {                   // Yes, check state
   \   0000006E   2300               TST     R16
   \   00000070   F529               BRNE    ??IntHandler_RX_USART0_2
     34                      case SYNC :
     35                          if (UART[0].pRxBuffer[ UART[0].RxFirst ] == ANPRO1_SYN) {
   \   00000072   85A4               LDD     R26, Z+12
   \   00000074   85B5               LDD     R27, Z+13
   \   00000076   8506               LDD     R16, Z+14
   \   00000078   8517               LDD     R17, Z+15
   \   0000007A   0FA0               ADD     R26, R16
   \   0000007C   1FB1               ADC     R27, R17
   \   0000007E   910C               LD      R16, X
   \   00000080   3002               CPI     R16, 2
   \   00000082   8905               LDD     R16, Z+21
   \   00000084   F431               BRNE    ??IntHandler_RX_USART0_3
     36                              UART[0].SyncCnt ++ ;                 // count sync
   \   00000086   9503               INC     R16
   \   00000088   8B05               STD     Z+21, R16
     37                              UART[0].RxFirst = 0;                 // start at start of buff
   \   0000008A   E000               LDI     R16, 0
   \   0000008C   8706               STD     Z+14, R16
   \   0000008E   8707               STD     Z+15, R16
   \   00000090   C023               RJMP    ??IntHandler_RX_USART0_1
     38                          } else if (UART[0].SyncCnt >= 2) {       // minimum two sync bytes
   \                     ??IntHandler_RX_USART0_3:
   \   00000092   3002               CPI     R16, 2
   \   00000094   E000               LDI     R16, 0
   \   00000096   8B05               STD     Z+21, R16
   \   00000098   F0F8               BRCS    ??IntHandler_RX_USART0_1
     39                              UART[0].SyncCnt = 0 ;                // reset counter
     40                              UART[0].RxState = HEADER ;
   \   0000009A   E001               LDI     R16, 1
   \   0000009C   8B04               STD     Z+20, R16
     41                              UART[0].RxLast = 0 ;
   \   0000009E   E000               LDI     R16, 0
   \   000000A0   E010               LDI     R17, 0
   \   000000A2   8B00               STD     Z+16, R16
   \   000000A4   8B01               STD     Z+17, R16
     42                              UART[0].RxTimeout = RX_TO_TIME ;   // reset timeout
   \   000000A6   EF0A               LDI     R16, 250
   \   000000A8   8B06               STD     Z+22, R16
   \   000000AA   8B17               STD     Z+23, R17
     43                              ++UART[0].RxFirst;
   \   000000AC   8506               LDD     R16, Z+14
   \   000000AE   8517               LDD     R17, Z+15
   \   000000B0   5F0F               SUBI    R16, 255
   \   000000B2   4F1F               SBCI    R17, 255
   \   000000B4   8706               STD     Z+14, R16
   \   000000B6   8717               STD     Z+15, R17
     44                              ReceivePacketUart(0) ;              // Check package
   \   000000B8   E000               LDI     R16, 0
   \   000000BA   C00C               RJMP    ??IntHandler_RX_USART0_4
     45                          } else {
     46                              UART[0].SyncCnt = 0 ;                // start over once more
     47                          }
     48                          break;
     49                      default :
     50                          if ((++UART[0].RxFirst) > RXSIZE_UART) { // Point to next location
   \                     ??IntHandler_RX_USART0_2:
   \   000000BC   8506               LDD     R16, Z+14
   \   000000BE   8517               LDD     R17, Z+15
   \   000000C0   5F0F               SUBI    R16, 255
   \   000000C2   4F1F               SBCI    R17, 255
   \   000000C4   8706               STD     Z+14, R16
   \   000000C6   8717               STD     Z+15, R17
   \   000000C8   3011               CPI     R17, 1
   \   000000CA   E000               LDI     R16, 0
   \   000000CC   F018               BRCS    ??IntHandler_RX_USART0_4
     51                              GoToSyncUART(0) ;                       // go to sync mode
   \   000000CE   ........           CALL    GoToSyncUART
   \   000000D2   C002               RJMP    ??IntHandler_RX_USART0_1
     52                          } else {
     53                              ReceivePacketUart(0) ;              // Check package
   \                     ??IntHandler_RX_USART0_4:
   \   000000D4   ........           CALL    ReceivePacketUart
     54                          }
     55                          break ;   
     56                      }
     57                  }
     58              }
     59              OS_LeaveIntStack();
   \                     ??IntHandler_RX_USART0_1:
   \   000000D8                      REQUIRE ?Subroutine0
   \   000000D8                      REQUIRE _A_UCSR0A
   \   000000D8                      REQUIRE _A_UDR0
   \   000000D8                      ;               // Fall through to label ?Subroutine0
     60              OS_LeaveInterrupt();
     61          } 

   \                                 In  segment CODE, align 2, keep-with-next
   \                     ?Subroutine0:
   \   00000000   94F8               CLI
   \   00000002   ........           CALL    OS__LeaveIntStack
   \   00000006   9100....           LDS     R16, (OS_Counters + 1)
   \   0000000A   950A               DEC     R16
   \   0000000C   9300....           STS     (OS_Counters + 1), R16
   \   00000010   9100....           LDS     R16, OS_Counters
   \   00000014   3001               CPI     R16, 1
   \   00000016   F431               BRNE    ??Subroutine0_0
   \   00000018   9100....           LDS     R16, OS_Pending
   \   0000001C   2300               TST     R16
   \   0000001E   F011               BREQ    ??Subroutine0_0
   \   00000020   ........           CALL    OS_SwitchFromInt
   \                     ??Subroutine0_0:
   \   00000024   9100....           LDS     R16, OS_Counters
   \   00000028   950A               DEC     R16
   \   0000002A   9300....           STS     OS_Counters, R16
   \   0000002E   BF9B               OUT     0x3B, R25
   \   00000030   BF8F               OUT     0x3F, R24
   \   00000032   9109               LD      R16, Y+
   \   00000034   9119               LD      R17, Y+
   \   00000036   9129               LD      R18, Y+
   \   00000038   9139               LD      R19, Y+
   \   0000003A   9149               LD      R20, Y+
   \   0000003C   9159               LD      R21, Y+
   \   0000003E   9169               LD      R22, Y+
   \   00000040   9179               LD      R23, Y+
   \   00000042   9009               LD      R0, Y+
   \   00000044   9019               LD      R1, Y+
   \   00000046   9029               LD      R2, Y+
   \   00000048   9039               LD      R3, Y+
   \   0000004A   91E9               LD      R30, Y+
   \   0000004C   91F9               LD      R31, Y+
   \   0000004E   9189               LD      R24, Y+
   \   00000050   9199               LD      R25, Y+
   \   00000052   91A9               LD      R26, Y+
   \   00000054   91B9               LD      R27, Y+
   \   00000056   9518               RETI
     62          
     63          
     64          #pragma vector=USART0_TXC_vect

   \                                 In  segment CODE, align 2, keep-with-next
     65          __interrupt void IntHandler_TX_USART0( void ){   
   \                     IntHandler_TX_USART0:
   \   00000000   939A               ST      -Y, R25
   \   00000002   938A               ST      -Y, R24
   \   00000004   93FA               ST      -Y, R31
   \   00000006   93EA               ST      -Y, R30
   \   00000008   923A               ST      -Y, R3
   \   0000000A   922A               ST      -Y, R2
   \   0000000C   921A               ST      -Y, R1
   \   0000000E   920A               ST      -Y, R0
   \   00000010   937A               ST      -Y, R23
   \   00000012   936A               ST      -Y, R22
   \   00000014   935A               ST      -Y, R21
   \   00000016   934A               ST      -Y, R20
   \   00000018   933A               ST      -Y, R19
   \   0000001A   932A               ST      -Y, R18
   \   0000001C   931A               ST      -Y, R17
   \   0000001E   930A               ST      -Y, R16
   \   00000020   B78F               IN      R24, 0x3F
   \   00000022   B79B               IN      R25, 0x3B
     66          
     67              OS_EnterInterrupt();
   \   00000024   9100....           LDS     R16, OS_Counters
   \   00000028   9503               INC     R16
   \   0000002A   9300....           STS     OS_Counters, R16
   \   0000002E   9100....           LDS     R16, (OS_Counters + 1)
   \   00000032   9503               INC     R16
   \   00000034   9300....           STS     (OS_Counters + 1), R16
     68              OS_EnterIntStack();
   \   00000038   94F8               CLI
   \   0000003A   ........           CALL    OS__EnterIntStack
   \   0000003E   9100....           LDS     R16, (OS_Counters + 1)
   \   00000042   2300               TST     R16
   \   00000044   F409               BRNE    ??IntHandler_TX_USART0_0
   \   00000046   9478               SEI
     69              OS_LeaveIntStack();
   \                     ??IntHandler_TX_USART0_0:
   \   00000048   94F8               CLI
   \   0000004A   ........           CALL    OS__LeaveIntStack
     70              OS_LeaveInterrupt();
   \   0000004E   9100....           LDS     R16, (OS_Counters + 1)
   \   00000052   950A               DEC     R16
   \   00000054   9300....           STS     (OS_Counters + 1), R16
   \   00000058   9100....           LDS     R16, OS_Counters
   \   0000005C   3001               CPI     R16, 1
   \   0000005E   F431               BRNE    ??IntHandler_TX_USART0_1
   \   00000060   9100....           LDS     R16, OS_Pending
   \   00000064   2300               TST     R16
   \   00000066   F011               BREQ    ??IntHandler_TX_USART0_1
   \   00000068   ........           CALL    OS_SwitchFromInt
   \                     ??IntHandler_TX_USART0_1:
   \   0000006C   9100....           LDS     R16, OS_Counters
   \   00000070   950A               DEC     R16
   \   00000072   9300....           STS     OS_Counters, R16
     71          }
   \   00000076   BF9B               OUT     0x3B, R25
   \   00000078   BF8F               OUT     0x3F, R24
   \   0000007A   9109               LD      R16, Y+
   \   0000007C   9119               LD      R17, Y+
   \   0000007E   9129               LD      R18, Y+
   \   00000080   9139               LD      R19, Y+
   \   00000082   9149               LD      R20, Y+
   \   00000084   9159               LD      R21, Y+
   \   00000086   9169               LD      R22, Y+
   \   00000088   9179               LD      R23, Y+
   \   0000008A   9009               LD      R0, Y+
   \   0000008C   9019               LD      R1, Y+
   \   0000008E   9029               LD      R2, Y+
   \   00000090   9039               LD      R3, Y+
   \   00000092   91E9               LD      R30, Y+
   \   00000094   91F9               LD      R31, Y+
   \   00000096   9189               LD      R24, Y+
   \   00000098   9199               LD      R25, Y+
   \   0000009A   9518               RETI
     72          
     73          
     74          #pragma vector = USART0_UDRE_vect

   \                                 In  segment CODE, align 2, keep-with-next
     75          __interrupt void IntHandler_UDRE_USART0( void ){   
   \                     IntHandler_UDRE_USART0:
   \   00000000   93BA               ST      -Y, R27
   \   00000002   93AA               ST      -Y, R26
   \   00000004   939A               ST      -Y, R25
   \   00000006   938A               ST      -Y, R24
   \   00000008   93FA               ST      -Y, R31
   \   0000000A   93EA               ST      -Y, R30
   \   0000000C   923A               ST      -Y, R3
   \   0000000E   922A               ST      -Y, R2
   \   00000010   921A               ST      -Y, R1
   \   00000012   920A               ST      -Y, R0
   \   00000014   937A               ST      -Y, R23
   \   00000016   936A               ST      -Y, R22
   \   00000018   935A               ST      -Y, R21
   \   0000001A   934A               ST      -Y, R20
   \   0000001C   933A               ST      -Y, R19
   \   0000001E   932A               ST      -Y, R18
   \   00000020   931A               ST      -Y, R17
   \   00000022   930A               ST      -Y, R16
   \   00000024   B78F               IN      R24, 0x3F
   \   00000026   B79B               IN      R25, 0x3B
     76          
     77              OS_EnterInterrupt();
   \   00000028   9100....           LDS     R16, OS_Counters
   \   0000002C   9503               INC     R16
   \   0000002E   9300....           STS     OS_Counters, R16
   \   00000032   9100....           LDS     R16, (OS_Counters + 1)
   \   00000036   9503               INC     R16
   \   00000038   9300....           STS     (OS_Counters + 1), R16
     78              OS_EnterIntStack();
   \   0000003C   94F8               CLI
   \   0000003E   ........           CALL    OS__EnterIntStack
   \   00000042   9100....           LDS     R16, (OS_Counters + 1)
   \   00000046   2300               TST     R16
   \   00000048   F409               BRNE    ??IntHandler_UDRE_USART0_0
   \   0000004A   9478               SEI
     79              if ( UCSR0A & __BIT_MASK( UDRE0) ) {                  // Any characters to send?
   \                     ??IntHandler_UDRE_USART0_0:
   \   0000004C   9B5D               SBIS    0x0B, 0x05
   \   0000004E   C023               RJMP    ??IntHandler_UDRE_USART0_1
     80                  if ( UART[0].TxCount > 0 ) {
   \   00000050   ....               LDI     R30, LOW(UART)
   \   00000052   ....               LDI     R31, (UART) >> 8
   \   00000054   8106               LDD     R16, Z+6
   \   00000056   8117               LDD     R17, Z+7
   \   00000058   2B01               OR      R16, R17
   \   0000005A   F0D9               BREQ    ??IntHandler_UDRE_USART0_2
     81                      UDR0 = UART[0].pTxBuffer[ UART[0].TxLast ];  // Send a character
   \   0000005C   81A0               LD      R26, Z
   \   0000005E   81B1               LDD     R27, Z+1
   \   00000060   8104               LDD     R16, Z+4
   \   00000062   8115               LDD     R17, Z+5
   \   00000064   0FA0               ADD     R26, R16
   \   00000066   1FB1               ADC     R27, R17
   \   00000068   910C               LD      R16, X
   \   0000006A   B90C               OUT     0x0C, R16
     82          
     83                      if ((++UART[0].TxLast)> TXSIZE_UART ) {     // End of buffer?
   \   0000006C   8104               LDD     R16, Z+4
   \   0000006E   8115               LDD     R17, Z+5
   \   00000070   5F0F               SUBI    R16, 255
   \   00000072   4F1F               SBCI    R17, 255
   \   00000074   8304               STD     Z+4, R16
   \   00000076   8315               STD     Z+5, R17
   \   00000078   3907               CPI     R16, 151
   \   0000007A   E020               LDI     R18, 0
   \   0000007C   4010               SBCI    R17, 0
   \   0000007E   F010               BRCS    ??IntHandler_UDRE_USART0_3
     84                          UART[0].TxLast = 0 ;                     // yes, reset pointer
   \   00000080   8324               STD     Z+4, R18
   \   00000082   8325               STD     Z+5, R18
     85                      }
     86                      UART[0].TxCount--; 
   \                     ??IntHandler_UDRE_USART0_3:
   \   00000084   8106               LDD     R16, Z+6
   \   00000086   8117               LDD     R17, Z+7
   \   00000088   5001               SUBI    R16, 1
   \   0000008A   4010               SBCI    R17, 0
   \   0000008C   8306               STD     Z+6, R16
   \   0000008E   8317               STD     Z+7, R17
   \   00000090   C002               RJMP    ??IntHandler_UDRE_USART0_1
     87                  } else {
     88                      UCSR0B &= ~(__BIT_MASK( UDRIE0)) ;            // transmission end, disable int.
   \                     ??IntHandler_UDRE_USART0_2:
   \   00000092   9855               CBI     0x0A, 0x05
     89                      PORTE &= ~0x04 ;                              // TXE0 off
   \   00000094   981A               CBI     0x03, 0x02
     90                  }
     91              }
     92              OS_LeaveIntStack();
   \                     ??IntHandler_UDRE_USART0_1:
   \   00000096   ....               RJMP    ?Subroutine0
   \   00000098                      REQUIRE _A_UCSR0A
   \   00000098                      REQUIRE _A_UDR0
   \   00000098                      REQUIRE _A_UCSR0B
   \   00000098                      REQUIRE _A_PORTE
     93              OS_LeaveInterrupt();
     94          } 

   \                                 In  segment INTVEC, offset 0x48, root
   \                     `??IntHandler_RX_USART0::??INTVEC 72`:
   \   00000048   ........           JMP     IntHandler_RX_USART0

   \                                 In  segment INTVEC, offset 0x4c, root
   \                     `??IntHandler_UDRE_USART0::??INTVEC 76`:
   \   0000004C   ........           JMP     IntHandler_UDRE_USART0

   \                                 In  segment INTVEC, offset 0x50, root
   \                     `??IntHandler_TX_USART0::??INTVEC 80`:
   \   00000050   ........           JMP     IntHandler_TX_USART0
     95          #endif
     96          

   Maximum stack usage in bytes:

   CSTACK RSTACK Function
   ------ ------ --------
     18      2   IntHandler_RX_USART0
       18      2   -> GoToSyncUART
       18      2   -> OS_SwitchFromInt
       18      2   -> OS__EnterIntStack
       18      2   -> OS__LeaveIntStack
       18      2   -> ReceivePacketUart
     16      2   IntHandler_TX_USART0
       16      2   -> OS_SwitchFromInt
       16      2   -> OS__EnterIntStack
       16      2   -> OS__LeaveIntStack
     18      2   IntHandler_UDRE_USART0
       18      2   -> OS_SwitchFromInt
       18      2   -> OS__EnterIntStack
       18      2   -> OS__LeaveIntStack


   Segment part sizes:

   Bytes  Function/Label
   -----  --------------
      88  ?Subroutine0
     216  IntHandler_RX_USART0
       4  IntHandler_RX_USART0::??INTVEC 72
     156  IntHandler_TX_USART0
       4  IntHandler_TX_USART0::??INTVEC 80
     152  IntHandler_UDRE_USART0
       4  IntHandler_UDRE_USART0::??INTVEC 76
       1  _A_PORTE
       1  _A_UCSR0A
       1  _A_UCSR0B
       1  _A_UDR0

 
   4 bytes in segment ABSOLUTE
 612 bytes in segment CODE
  12 bytes in segment INTVEC
 
 612 bytes of CODE memory (+ 12 bytes shared)
   0 bytes of DATA memory (+  4 bytes shared)

Errors: none
Warnings: none
