###############################################################################
#
# IAR C/C++ Compiler V7.30.4.1668 for Microchip AVR       12/Jul/2021  09:53:17
# Copyright 1996-2021 IAR Systems AB.
# Mobile license - IAR Embedded Workbench for Microchip AVR 7.30
#
#    Source file  =  D:\S2Prog\IO\AN_SGCNV\SW\AN-ZBXXX\ANZB\Src\eeprom.c
#    Command line =  
#        -f C:\Users\ESY\AppData\Local\Temp\EW54F2.tmp
#        (D:\S2Prog\IO\AN_SGCNV\SW\AN-ZBXXX\ANZB\Src\eeprom.c --cpu=m128a -ms
#        -o D:\S2Prog\IO\AN_SGCNV\SW\AN-ZBXXX\ANZB\Debug\Obj -D OS_LIBMODE_R -D
#        OS_UART=-1 -lCN D:\S2Prog\IO\AN_SGCNV\SW\AN-ZBXXX\ANZB\Debug\List -y
#        --initializers_in_flash --no_cse --no_inline --no_code_motion
#        --no_cross_call --no_clustering --no_tbaa --debug
#        -DENABLE_BIT_DEFINITIONS -e -I
#        D:\S2Prog\IO\AN_SGCNV\SW\AN-ZBXXX\ANZB\INC\\ -I
#        D:\S2Prog\IO\AN_SGCNV\SW\AN-ZBXXX\ANZB\..\..\SHARED\INC\\
#        --eeprom_size 4096 --clib -On)
#    Locale       =  Norwegian Bokmål_NOR.1252
#    List file    =  
#        D:\S2Prog\IO\AN_SGCNV\SW\AN-ZBXXX\ANZB\Debug\List\eeprom.lst
#    Object file  =  
#        D:\S2Prog\IO\AN_SGCNV\SW\AN-ZBXXX\ANZB\Debug\Obj\eeprom.r90
#
###############################################################################

D:\S2Prog\IO\AN_SGCNV\SW\AN-ZBXXX\ANZB\Src\eeprom.c
      1          /****************************************************************************************
      2          / Read and write the eeprom
      3          /
      4          ***************************************************************************************/
      5          #include "iom128a.h"

   \                                 In  segment ABSOLUTE, at 0x41
   \   union <unnamed> volatile __io _A_WDTCR
   \                     _A_WDTCR:
   \   00000000                      DS8 1

   \                                 In  segment ABSOLUTE, at 0x3e
   \   union <unnamed> volatile __io _A_EEAR
   \                     _A_EEAR:
   \   00000000                      DS8 2

   \                                 In  segment ABSOLUTE, at 0x3d
   \   union <unnamed> volatile __io _A_EEDR
   \                     _A_EEDR:
   \   00000000                      DS8 1

   \                                 In  segment ABSOLUTE, at 0x3c
   \   union <unnamed> volatile __io _A_EECR
   \                     _A_EECR:
   \   00000000                      DS8 1
      6          #include "stdio.h"
      7          #include "math.h"
      8          #include "externals.h"
      9          #include "version.h"
     10          #include "inavr.h"
     11          
     12          
     13          /*---------------------------------------------------------------------------
     14          **
     15          **  See how many date i remining
     16          **
     17          **--------------------------------------------------------------------------*/

   \                                 In  segment CODE, align 2, keep-with-next
     18          char TestEEPROM( void ) {
   \                     TestEEPROM:
     19          
     20              return WriteCount;
   \   00000000   9100....           LDS     R16, WriteCount
   \   00000004   9508               RET
     21          }
     22          
     23          /*---------------------------------------------------------------------------
     24          **
     25          **  Reads an address in the eeprom
     26          **
     27          **--------------------------------------------------------------------------*/

   \                                 In  segment CODE, align 2, keep-with-next
     28          char ReadEEPROMByte( unsigned int Address ) {
   \                     ReadEEPROMByte:
   \   00000000   0198               MOVW    R19:R18, R17:R16
     29          
     30              unsigned char Data;
     31          
     32              while (EECR & (1<<EEWE))     // Wait until ready
   \                     ??ReadEEPROMByte_0:
   \   00000002   99E1               SBIC    0x1C, 0x01
   \   00000004   CFFE               RJMP    ??ReadEEPROMByte_0
     33                  ;
     34              EEAR = Address;
   \   00000006   BB3F               OUT     0x1F, R19
   \   00000008   BB2E               OUT     0x1E, R18
     35              OS_IncDI();
   \   0000000A   94F8               CLI
   \   0000000C   9110....           LDS     R17, (OS_Counters + 1)
   \   00000010   9513               INC     R17
   \   00000012   9310....           STS     (OS_Counters + 1), R17
     36              EECR |= (1 << EERE) ;       // Don't use SetBitsOr macrod due to timing
   \   00000016   9AE0               SBI     0x1C, 0x00
     37              OS_DecRI();
   \   00000018   9110....           LDS     R17, (OS_Counters + 1)
   \   0000001C   951A               DEC     R17
   \   0000001E   9310....           STS     (OS_Counters + 1), R17
   \   00000022   9110....           LDS     R17, (OS_Counters + 1)
   \   00000026   2311               TST     R17
   \   00000028   F409               BRNE    ??ReadEEPROMByte_1
   \   0000002A   9478               SEI
     38          
     39              Data = EEDR;
   \                     ??ReadEEPROMByte_1:
   \   0000002C   B31D               IN      R17, 0x1D
   \   0000002E   2F01               MOV     R16, R17
     40              return Data;
   \   00000030   9508               RET
   \   00000032                      REQUIRE _A_EECR
   \   00000032                      REQUIRE _A_EEAR
   \   00000032                      REQUIRE _A_EEDR
     41          
     42          }
     43          
     44          /*---------------------------------------------------------------------------
     45          **
     46          **  Write a caracther to the eeprom
     47          **
     48          **--------------------------------------------------------------------------*/

   \                                 In  segment CODE, align 2, keep-with-next
     49          void WriteEEPROMByte( unsigned int Address, char Data ) {   
   \                     WriteEEPROMByte:
     50          
     51              while (EECR & (1<<EEWE))     // Wait until ready
   \                     ??WriteEEPROMByte_0:
   \   00000000   99E1               SBIC    0x1C, 0x01
   \   00000002   CFFE               RJMP    ??WriteEEPROMByte_0
     52                  ;
     53              OS_IncDI();
   \   00000004   94F8               CLI
   \   00000006   9130....           LDS     R19, (OS_Counters + 1)
   \   0000000A   9533               INC     R19
   \   0000000C   9330....           STS     (OS_Counters + 1), R19
     54              EEAR = Address;
   \   00000010   BB1F               OUT     0x1F, R17
   \   00000012   BB0E               OUT     0x1E, R16
     55              EEDR = Data;
   \   00000014   BB2D               OUT     0x1D, R18
     56              EECR |= (1 << EEMWE) ;       // Don't use SetBitsOr macrod due to timing
   \   00000016   9AE2               SBI     0x1C, 0x02
     57              EECR |= (1 << EEWE) ;        // Don't use SetBitsOr macrod due to timing
   \   00000018   9AE1               SBI     0x1C, 0x01
     58              OS_DecRI();
   \   0000001A   9130....           LDS     R19, (OS_Counters + 1)
   \   0000001E   953A               DEC     R19
   \   00000020   9330....           STS     (OS_Counters + 1), R19
   \   00000024   9130....           LDS     R19, (OS_Counters + 1)
   \   00000028   2333               TST     R19
   \   0000002A   F409               BRNE    ??WriteEEPROMByte_1
   \   0000002C   9478               SEI
     59          }
   \                     ??WriteEEPROMByte_1:
   \   0000002E   9508               RET
   \   00000030                      REQUIRE _A_EECR
   \   00000030                      REQUIRE _A_EEAR
   \   00000030                      REQUIRE _A_EEDR
     60          
     61          /*---------------------------------------------------------------------------
     62          **
     63          **  Read a tring from the eeprom
     64          **
     65          **--------------------------------------------------------------------------*/

   \                                 In  segment CODE, align 2, keep-with-next
     66          void ReadEEPROMBuffer( unsigned int Address, char Size, char *pData ) {   
   \                     ReadEEPROMBuffer:
   \   00000000   2F79               MOV     R23, R25
   \   00000002   2E28               MOV     R2, R24
   \   00000004   0108               MOVW    R1:R0, R17:R16
   \   00000006   2F62               MOV     R22, R18
     67              unsigned int Index;
     68          
     69              for ( Index = 0; Index < Size; Index++ ) {
   \   00000008   E080               LDI     R24, 0
   \   0000000A   E090               LDI     R25, 0
   \                     ??ReadEEPROMBuffer_0:
   \   0000000C   2F06               MOV     R16, R22
   \   0000000E   E010               LDI     R17, 0
   \   00000010   1780               CP      R24, R16
   \   00000012   0791               CPC     R25, R17
   \   00000014   F450               BRCC    ??ReadEEPROMBuffer_1
     70                  *pData++ = ReadEEPROMByte( Address + Index );
   \   00000016   0180               MOVW    R17:R16, R1:R0
   \   00000018   0F08               ADD     R16, R24
   \   0000001A   1F19               ADC     R17, R25
   \   0000001C   ....               RCALL   ReadEEPROMByte
   \   0000001E   01FA               MOVW    R31:R30, R21:R20
   \   00000020   8300               ST      Z, R16
   \   00000022   5F4F               SUBI    R20, 255
   \   00000024   4F5F               SBCI    R21, 255
     71              }
   \   00000026   9601               ADIW    R25:R24, 1
   \   00000028   CFF1               RJMP    ??ReadEEPROMBuffer_0
     72          }
   \                     ??ReadEEPROMBuffer_1:
   \   0000002A   2D82               MOV     R24, R2
   \   0000002C   2F97               MOV     R25, R23
   \   0000002E   9508               RET
     73          
     74          /*---------------------------------------------------------------------------
     75          **
     76          **  Writ buffer to eeprom
     77          **
     78          **--------------------------------------------------------------------------*/

   \                                 In  segment CODE, align 2, keep-with-next
     79          void WriteEEPROMBuffer( unsigned int Address, char Size, char *pData ) {   
   \                     WriteEEPROMBuffer:
     80          
     81              while (EECR & (1<<EEWE))     // Wait until ready
   \                     ??WriteEEPROMBuffer_0:
   \   00000000   99E1               SBIC    0x1C, 0x01
   \   00000002   CFFE               RJMP    ??WriteEEPROMBuffer_0
     82                  ;
     83              OS_IncDI();
   \   00000004   94F8               CLI
   \   00000006   9130....           LDS     R19, (OS_Counters + 1)
   \   0000000A   9533               INC     R19
   \   0000000C   9330....           STS     (OS_Counters + 1), R19
     84              pWriteBuffer = pData;
   \   00000010   ....               LDI     R30, LOW(pWriteBuffer)
   \   00000012   ....               LDI     R31, (pWriteBuffer) >> 8
   \   00000014   8340               ST      Z, R20
   \   00000016   8351               STD     Z+1, R21
     85              WriteCount = Size;
   \   00000018   9320....           STS     WriteCount, R18
     86              EEAR = Address ;
   \   0000001C   BB1F               OUT     0x1F, R17
   \   0000001E   BB0E               OUT     0x1E, R16
     87              EEDR = *pData ;
   \   00000020   01FA               MOVW    R31:R30, R21:R20
   \   00000022   8130               LD      R19, Z
   \   00000024   BB3D               OUT     0x1D, R19
     88              pWriteBuffer++;
   \   00000026   ....               LDI     R30, LOW(pWriteBuffer)
   \   00000028   ....               LDI     R31, (pWriteBuffer) >> 8
   \   0000002A   8160               LD      R22, Z
   \   0000002C   8171               LDD     R23, Z+1
   \   0000002E   5F6F               SUBI    R22, 255
   \   00000030   4F7F               SBCI    R23, 255
   \   00000032   8360               ST      Z, R22
   \   00000034   8371               STD     Z+1, R23
     89              EEPWriteOK = false;
   \   00000036   E030               LDI     R19, 0
   \   00000038   9330....           STS     EEPWriteOK, R19
     90              EECR |= (1 << EEMWE) ;       // Don't use SetBitsOr macrod due to timing
   \   0000003C   9AE2               SBI     0x1C, 0x02
     91              EECR |= (1 << EEWE) ;        // Don't use SetBitsOr macrod due to timing
   \   0000003E   9AE1               SBI     0x1C, 0x01
     92              EECR |= (1 << EERIE) ;       // Don't use SetBitsOr macrod due to timing
   \   00000040   9AE3               SBI     0x1C, 0x03
     93              OS_DecRI();
   \   00000042   9130....           LDS     R19, (OS_Counters + 1)
   \   00000046   953A               DEC     R19
   \   00000048   9330....           STS     (OS_Counters + 1), R19
   \   0000004C   9130....           LDS     R19, (OS_Counters + 1)
   \   00000050   2333               TST     R19
   \   00000052   F409               BRNE    ??WriteEEPROMBuffer_1
   \   00000054   9478               SEI
     94          }
   \                     ??WriteEEPROMBuffer_1:
   \   00000056   9508               RET
   \   00000058                      REQUIRE _A_EECR
   \   00000058                      REQUIRE _A_EEAR
   \   00000058                      REQUIRE _A_EEDR
     95          
     96          /*---------------------------------------------------------------------------
     97          **
     98          **  Interrupt on EEPROM write
     99          **
    100          **--------------------------------------------------------------------------*/
    101          #pragma vector=EE_READY_vect

   \                                 In  segment CODE, align 2, keep-with-next
    102          __interrupt void IntHandler_EEPROM( void ){
   \                     IntHandler_EEPROM:
   \   00000000   93FA               ST      -Y, R31
   \   00000002   93EA               ST      -Y, R30
   \   00000004   933A               ST      -Y, R19
   \   00000006   932A               ST      -Y, R18
   \   00000008   931A               ST      -Y, R17
   \   0000000A   930A               ST      -Y, R16
   \   0000000C   B72F               IN      R18, 0x3F
   \   0000000E   B73B               IN      R19, 0x3B
    103          
    104              if ( --WriteCount ) {                        // More to write? 
   \   00000010   9100....           LDS     R16, WriteCount
   \   00000014   950A               DEC     R16
   \   00000016   9300....           STS     WriteCount, R16
   \   0000001A   9100....           LDS     R16, WriteCount
   \   0000001E   2300               TST     R16
   \   00000020   F0B9               BREQ    ??IntHandler_EEPROM_0
    105                  EEAR++;                                  // Define address and data 
   \   00000022   B30E               IN      R16, 0x1E
   \   00000024   B31F               IN      R17, 0x1F
   \   00000026   5F0F               SUBI    R16, 255
   \   00000028   4F1F               SBCI    R17, 255
   \   0000002A   BB1F               OUT     0x1F, R17
   \   0000002C   BB0E               OUT     0x1E, R16
    106                  EEDR = *pWriteBuffer++;
   \   0000002E   91E0....           LDS     R30, pWriteBuffer
   \   00000032   91F0....           LDS     R31, (pWriteBuffer + 1)
   \   00000036   8100               LD      R16, Z
   \   00000038   BB0D               OUT     0x1D, R16
   \   0000003A   ....               LDI     R30, LOW(pWriteBuffer)
   \   0000003C   ....               LDI     R31, (pWriteBuffer) >> 8
   \   0000003E   8100               LD      R16, Z
   \   00000040   8111               LDD     R17, Z+1
   \   00000042   5F0F               SUBI    R16, 255
   \   00000044   4F1F               SBCI    R17, 255
   \   00000046   8300               ST      Z, R16
   \   00000048   8311               STD     Z+1, R17
    107                  EECR |= (1 << EEMWE) ;       // Don't use SetBitsOr macrod due to timing
   \   0000004A   9AE2               SBI     0x1C, 0x02
    108                  EECR |= (1 << EEWE) ;        // Don't use SetBitsOr macrod due to timing
   \   0000004C   9AE1               SBI     0x1C, 0x01
   \   0000004E   C004               RJMP    ??IntHandler_EEPROM_1
    109              } else {
    110                  EECR &= ~(1 << EERIE) ;       // Don't use ClrBit macrod due to timing
   \                     ??IntHandler_EEPROM_0:
   \   00000050   98E3               CBI     0x1C, 0x03
    111                  EEPWriteOK = true;
   \   00000052   E001               LDI     R16, 1
   \   00000054   9300....           STS     EEPWriteOK, R16
    112              }
    113          }
   \                     ??IntHandler_EEPROM_1:
   \   00000058   BF3B               OUT     0x3B, R19
   \   0000005A   BF2F               OUT     0x3F, R18
   \   0000005C   9109               LD      R16, Y+
   \   0000005E   9119               LD      R17, Y+
   \   00000060   9129               LD      R18, Y+
   \   00000062   9139               LD      R19, Y+
   \   00000064   91E9               LD      R30, Y+
   \   00000066   91F9               LD      R31, Y+
   \   00000068   9518               RETI
   \   0000006A                      REQUIRE _A_EEAR
   \   0000006A                      REQUIRE _A_EEDR
   \   0000006A                      REQUIRE _A_EECR
    114          
    115          
    116          /**===========================================================================
    117          ** Get the stored version in EEPROM
    118          **==========================================================================*/ 

   \                                 In  segment CODE, align 2, keep-with-next
    119          char EEPROMVersion(void) {
   \                     EEPROMVersion:
   \   00000000   2E38               MOV     R3, R24
   \   00000002   9721               SBIW    R29:R28, 1
    120              char val ;
    121              char retval = false;
   \   00000004   E080               LDI     R24, 0
    122          
    123              ReadEEPROMBuffer(EEPROM_ID_START, 1, (char*)&val) ;
   \   00000006   01AE               MOVW    R21:R20, R29:R28
   \   00000008   E021               LDI     R18, 1
   \   0000000A   E000               LDI     R16, 0
   \   0000000C   E010               LDI     R17, 0
   \   0000000E   ....               RCALL   ReadEEPROMBuffer
    124              if (val == EEPROM_ID) {                                     //correct EEPROM ID
   \   00000010   8108               LD      R16, Y
   \   00000012   3B0D               CPI     R16, 189
   \   00000014   F489               BRNE    ??EEPROMVersion_0
    125                  ReadEEPROMBuffer(EEPROM_ID_START+1, 1, (char*)&val) ;
   \   00000016   01AE               MOVW    R21:R20, R29:R28
   \   00000018   E021               LDI     R18, 1
   \   0000001A   E001               LDI     R16, 1
   \   0000001C   E010               LDI     R17, 0
   \   0000001E   ....               RCALL   ReadEEPROMBuffer
    126                  if (val == STORE_VERSION) {                             // and version
   \   00000020   8108               LD      R16, Y
   \   00000022   3002               CPI     R16, 2
   \   00000024   F449               BRNE    ??EEPROMVersion_0
    127                      ReadEEPROMBuffer(0xffe, 1, (char*)&val) ;
   \   00000026   01AE               MOVW    R21:R20, R29:R28
   \   00000028   E021               LDI     R18, 1
   \   0000002A   EF0E               LDI     R16, 254
   \   0000002C   E01F               LDI     R17, 15
   \   0000002E   ....               RCALL   ReadEEPROMBuffer
    128                      if (val == EEPROM_OK) {                             // and no reset from user
   \   00000030   8108               LD      R16, Y
   \   00000032   3F0F               CPI     R16, 255
   \   00000034   F409               BRNE    ??EEPROMVersion_0
    129                          retval = true ;                                 // then everything is OK
   \   00000036   E081               LDI     R24, 1
    130                      }
    131                  }
    132              }
    133              return retval;
   \                     ??EEPROMVersion_0:
   \   00000038   2F08               MOV     R16, R24
   \   0000003A   9621               ADIW    R29:R28, 1
   \   0000003C   2D83               MOV     R24, R3
   \   0000003E   9508               RET
    134          }
    135          
    136          /**===========================================================================
    137          ** Reset the EEPROM
    138          **==========================================================================*/ 

   \                                 In  segment CODE, align 2, keep-with-next
    139          void EEPROMReset(void) {
   \                     EEPROMReset:
    140              EEARL = (0x0ffe & 0xff);
   \   00000000   EF0E               LDI     R16, 254
   \   00000002   BB0E               OUT     0x1E, R16
    141              EEARH = (0x0ffe >> 8);
   \   00000004   E00F               LDI     R16, 15
   \   00000006   BB0F               OUT     0x1F, R16
    142              EEDR = EEPROM_RESET;
   \   00000008   ED0B               LDI     R16, 219
   \   0000000A   BB0D               OUT     0x1D, R16
    143              EECR |= (1<<EEMWE);
   \   0000000C   9AE2               SBI     0x1C, 0x02
    144              EECR |= (1<<EEWE);
   \   0000000E   9AE1               SBI     0x1C, 0x01
    145              while (EECR & (1<<EEWE))
   \                     ??EEPROMReset_0:
   \   00000010   99E1               SBIC    0x1C, 0x01
   \   00000012   CFFE               RJMP    ??EEPROMReset_0
    146                  ;
    147              WDTCR = 0x18;               //Start watchdog to genetate restart
   \   00000014   E108               LDI     R16, 24
   \   00000016   BD01               OUT     0x21, R16
    148              WDTCR = 0x18;
   \   00000018   E108               LDI     R16, 24
   \   0000001A   BD01               OUT     0x21, R16
    149          }
   \   0000001C   9508               RET
   \   0000001E                      REQUIRE _A_EEAR
   \   0000001E                      REQUIRE _A_EEDR
   \   0000001E                      REQUIRE _A_EECR
   \   0000001E                      REQUIRE _A_WDTCR

   \                                 In  segment INTVEC, offset 0x58, root
   \                     `??IntHandler_EEPROM::??INTVEC 88`:
   \   00000058   ........           JMP     IntHandler_EEPROM

   Maximum stack usage in bytes:

   CSTACK RSTACK Function
   ------ ------ --------
      0      2   EEPROMReset
      1      2   EEPROMVersion
        1      2   -> ReadEEPROMBuffer
      6      2   IntHandler_EEPROM
      0      2   ReadEEPROMBuffer
        0      2   -> ReadEEPROMByte
      0      2   ReadEEPROMByte
      0      2   TestEEPROM
      0      2   WriteEEPROMBuffer
      0      2   WriteEEPROMByte


   Segment part sizes:

   Bytes  Function/Label
   -----  --------------
      30  EEPROMReset
      64  EEPROMVersion
     106  IntHandler_EEPROM
       4  IntHandler_EEPROM::??INTVEC 88
      48  ReadEEPROMBuffer
      50  ReadEEPROMByte
       6  TestEEPROM
      88  WriteEEPROMBuffer
      48  WriteEEPROMByte
       2  _A_EEAR
       1  _A_EECR
       1  _A_EEDR
       1  _A_WDTCR

 
   5 bytes in segment ABSOLUTE
 440 bytes in segment CODE
   4 bytes in segment INTVEC
 
 440 bytes of CODE memory (+ 4 bytes shared)
   0 bytes of DATA memory (+ 5 bytes shared)

Errors: none
Warnings: none
