################################################################################
#                                                                              #
#      Micro Series Universal Linker V4.38/DXT         31/Oct/96  19:17:49     #
#                                                                              #
#           Target CPU    =  h8300                                             #
#           List file     =  tbsg.map                                          #
#           Output file 1 =  tbsg.hex                                          #
#           Output format =  intel-standard                                    #
#           Command line  =  tbsg tbsgcom tbsgeep tbsgboks -FINTEL-STANDARD    #
#                            -f sgl.xcl (-cH8300 -Z(CODE)INTVEC=0              #
#                            -Z(CODE)RCODE,CODE,CDATA,ZVECT,CONST,CSTR,        #
#                            CCSTR=100                                         #
#                            -Z(DATA)DATA,IDATA,UDATA,ECSTR,WCSTR,TEMP=FB80    #
#                            -Z(DATA)CSTACK+C0=FEC0                            #
#                            -e_medium_write=_formatted_write                  #
#                            -e_medium_read=_formatted_read c:\h8\clh83l) -x   #
#                            -l tbsg.map -o tbsg.hex                           #
#                                                                              #
#                                               (c) Copyright IAR Systems 1991 #
#                                             (c) Copyright Hitachi Ltd. 1991 #
################################################################################





                ****************************************
                *                                      *
                *           CROSS REFERENCE            *
                *                                      *
                ****************************************

       Program entry at : 0100  Relocatable, from module : CSTARTUP



                ****************************************
                *                                      *
                *             MODULE MAP               *
                *                                      *
                ****************************************

  FILE NAME : tbsg.r20
  PROGRAM MODULE, NAME : tbsg

  SEGMENTS IN THE MODULE
  ======================
CODE
  Relative segment, address : 05F0 - 2CD5
           ENTRIES                ADDRESS          REF BY MODULE
           ADConvert               0AB0            Not referred to
           CalcOther               1AF6            Not referred to
           CalcPercent             165E            Not referred to
           CalcPress               116A            Not referred to
           CalcRxChecksum          2770            Not referred to
           CalcSensData            2524            Not referred to
           CalcTemp                1936            Not referred to
           CheckConvert            0926            Not referred to
           Err0Int                 2BEC            Not referred to
           Err1Int                 2C62            Not referred to
           FindTemp                261C            Not referred to
           FrtcInt                 2A5A            Not referred to
           FrtoInt                 2A68            Not referred to
           GetMyAddress            07A2            Not referred to
           HandleRxPacket          27C8            Not referred to
           InitRegs                05F0            Not referred to
           InitStartup             0764            Not referred to
           InitVar                 063C            Not referred to
           Irq0Int                 2A12            Not referred to
           Irq1Int                 2A14            Not referred to
           Irq2Int                 2A4E            Not referred to
           KickDog                 07AC            tbsgeep
           Led                     07B6            tbsgeep
                                                   tbsgboks
           OneMsecDelay            0826            tbsgeep
                                                   tbsgboks
           ReadAdByte              26DE            Not referred to
           ReceiveRxPacket         2840            Not referred to
           ResetRxPointer          273E            Not referred to
           Rx0Int                  2BFE            Not referred to
           Rx1Int                  2C74            Not referred to
           SetCalResistance        0902            tbsgeep
           SetEepromChannel        0846            tbsgeep
           SetMuxChannel           08C0            tbsgeep
           SetSupplyChannel        0870            tbsgeep
           SetSupplyCurrent        08F2            tbsgeep
           TimInt                  2A6E            Not referred to
           Tx0Int                  2BAA            Not referred to
           Tx1Int                  2C48            Not referred to
           TxDriver                0808            tbsgcom
           UnpackSensData          1C3E            Not referred to
           WriteAdByte             270A            Not referred to
           main                    2C8C            CSTARTUP
    -------------------------------------------------------------------------
CONST
  Relative segment, address : 5180 - 537F
           ENTRIES                ADDRESS          REF BY MODULE
           crc                     5180            tbsgcom
                                                   tbsgeep
                                                   tbsgboks
    -------------------------------------------------------------------------
INTVEC
  Common segment, address : 0000 - 002F
    -------------------------------------------------------------------------
UDATA
  Relative segment, address : FB80 - FEBC
           ENTRIES                ADDRESS          REF BY MODULE
           ad_gain                 FE9A            Not referred to
           ad_mode                 FE93            tbsgcom
           ad_settling             FE98            Not referred to
           ad_state                FE92            tbsgcom
           ad_timeout_cnt          FDC0            Not referred to
           cal_data                FDC6            tbsgcom
           cal_gain                FE8A            Not referred to
           ch_stat                 FE9B            tbsgcom
                                                   tbsgeep
           curr_ad_ch              FE91            tbsgcom
           curr_sens_data          FDC4            Not referred to
           display                 FEB8            tbsgcom
           eep_status              FDBA            tbsgcom
                                                   tbsgeep
           eep_type                FEA9            tbsgcom
                                                   tbsgeep
           gain                    FE36            tbsgcom
           mes_data                FDFE            tbsgcom
           ms_delay_cnt            FE94            Not referred to
           my_address              FEB4            tbsgcom
           not_cal_data            FE90            tbsgcom
           not_mes_data            FE8E            tbsgcom
           not_raw_data            FE8F            tbsgcom
           o_filter                FEB3            tbsgcom
           offset                  FE6E            tbsgcom
           p_filter                FEB1            tbsgcom
           packed_data             FC7A            tbsgcom
                                                   tbsgeep
                                                   tbsgboks
           raw_data                FDE2            tbsgcom
           rx_buff                 FBF8            tbsgcom
           rx_counter              FC6D            Not referred to
           rx_hndx                 FC6B            Not referred to
           rx_indx                 FC6A            Not referred to
           rx_packlen              FC6E            Not referred to
           rx_start                FC6C            tbsgcom
           rx_state                FEB5            Not referred to
           rx_timeout              FC6F            Not referred to
           sec_cnt                 FDC2            Not referred to
           sendtail                FEB7            tbsgcom
           sens_data               FC70            Not referred to
           sens_nl1                FC78            Not referred to
           sens_nl2                FC79            Not referred to
           t_filter                FEB2            tbsgcom
           test_eep                FEBC            Not referred to
           time_b_cnt              FDBC            tbsgcom
           time_b_temp             FDBB            tbsgcom
           time_c_cnt              FDBE            Not referred to
           time_e_cnt              FDBD            Not referred to
           tx_buff                 FB80            tbsgcom
                                                   tbsgeep
           tx_bytes                FC67            tbsgcom
           tx_complete             FEB6            tbsgcom
           tx_indx                 FC66            tbsgcom
                                                   tbsgeep
           tx_tail                 FC68            Not referred to
           wait_for_pc             FC69            tbsgcom

    *************************************************************************

  FILE NAME : tbsgcom.r20
  PROGRAM MODULE, NAME : tbsgcom

  SEGMENTS IN THE MODULE
  ======================
CODE
  Relative segment, address : 2CD6 - 404D
           ENTRIES                ADDRESS          REF BY MODULE
           BuildCSData             3CA6            Not referred to
           BuildCalData            3ABE            tbsg
           BuildConfData           3B76            Not referred to
           BuildDisplay            3D30            Not referred to
           BuildEepData            3C1E            Not referred to
           BuildHeader             34EA            tbsg
           BuildMOData             3776            tbsg
           BuildMPData             3572            tbsg
           BuildMTData             3674            tbsg
           BuildROData             39FC            tbsg
           BuildRPData             3878            tbsg
           BuildRTData             393A            tbsg
           BuildTail               3DC2            tbsg
           CalcTxChecksum          4020            Not referred to
           CheckAction             2CD6            tbsg
           RecDispData             4014            Not referred to
           RecEepData              3E56            Not referred to
           RecOGData               3F08            Not referred to
           RecSetupData            3FC8            Not referred to

    *************************************************************************

  FILE NAME : tbsgeep.r20
  PROGRAM MODULE, NAME : tbsgeep

  SEGMENTS IN THE MODULE
  ======================
CODE
  Relative segment, address : 404E - 4607
           ENTRIES                ADDRESS          REF BY MODULE
           CheckADData             458E            tbsgcom
                                                   tbsgboks
           CheckEepChannel         4448            tbsg
           CheckEepData            45CA            tbsgcom
                                                   tbsgboks
           Eeprom                  404E            tbsgcom
                                                   tbsgboks
           ReadEepromByte          4304            Not referred to
           ReadEepromData          42AE            Not referred to
           ResetEeprom             43CE            Not referred to
           SendEepromCommand       4264            Not referred to
           WriteEepromByte         4362            Not referred to
           WriteEepromData         42D8            Not referred to

    *************************************************************************

  FILE NAME : tbsgboks.r20
  PROGRAM MODULE, NAME : tbsgboks

  SEGMENTS IN THE MODULE
  ======================
CODE
  Relative segment, address : 4608 - 48D7
           ENTRIES                ADDRESS          REF BY MODULE
           TestEep                 4608            tbsg
    -------------------------------------------------------------------------
CONST
  Relative segment, address : 5380 - 53A9

    *************************************************************************

  FILE NAME : c:\h8\clh83l.r20
  PROGRAM MODULE, NAME : CSTARTUP

  SEGMENTS IN THE MODULE
  ======================
CSTACK
  Relative segment, address : Not applicable
    -------------------------------------------------------------------------
INTVEC
  Common segment, address : 0000 - 0001
    -------------------------------------------------------------------------
RCODE
  Relative segment, address : 0100 - 016D
    -------------------------------------------------------------------------
UDATA
  Relative segment, address : Not applicable
    -------------------------------------------------------------------------
IDATA
  Relative segment, address : Not applicable
    -------------------------------------------------------------------------
ECSTR
  Relative segment, address : Not applicable
    -------------------------------------------------------------------------
TEMP
  Relative segment, address : Not applicable
    -------------------------------------------------------------------------
DATA
  Relative segment, address : Not applicable
    -------------------------------------------------------------------------
WCSTR
  Relative segment, address : Not applicable
    -------------------------------------------------------------------------
CDATA
  Relative segment, address : Not applicable
    -------------------------------------------------------------------------
ZVECT
  Relative segment, address : Not applicable
    -------------------------------------------------------------------------
CCSTR
  Relative segment, address : Not applicable
    -------------------------------------------------------------------------
CONST
  Relative segment, address : Not applicable
    -------------------------------------------------------------------------
CSTR
  Relative segment, address : Not applicable

    -------------------------------------------------------------------------
  LIBRARY MODULE, NAME : exit

  SEGMENTS IN THE MODULE
  ======================
CODE
  Relative segment, address : 48D8 - 48D9
           ENTRIES                ADDRESS          REF BY MODULE
           exit                    48D8            Not referred to
           ?C_EXIT                 48D8            CSTARTUP

    -------------------------------------------------------------------------
  LIBRARY MODULE, NAME : exp

  SEGMENTS IN THE MODULE
  ======================
CODE
  Relative segment, address : 48DA - 4A61
           ENTRIES                ADDRESS          REF BY MODULE
           exp                     48DA            pow

    -------------------------------------------------------------------------
  LIBRARY MODULE, NAME : log

  SEGMENTS IN THE MODULE
  ======================
CODE
  Relative segment, address : 4A62 - 4C33
           ENTRIES                ADDRESS          REF BY MODULE
           log                     4A62            pow

    -------------------------------------------------------------------------
  LIBRARY MODULE, NAME : sqrt

  SEGMENTS IN THE MODULE
  ======================
CODE
  Relative segment, address : 4C34 - 4E49
           ENTRIES                ADDRESS          REF BY MODULE
           sqrt                    4C34            tbsg

    -------------------------------------------------------------------------
  LIBRARY MODULE, NAME : frexp

  SEGMENTS IN THE MODULE
  ======================
CODE
  Relative segment, address : 4E4A - 4F33
           ENTRIES                ADDRESS          REF BY MODULE
           frexp                   4E4A            log
                                                   sqrt

    -------------------------------------------------------------------------
  LIBRARY MODULE, NAME : modf

  SEGMENTS IN THE MODULE
  ======================
CODE
  Relative segment, address : 4F34 - 4FDB
           ENTRIES                ADDRESS          REF BY MODULE
           modf                    4F34            floor

    -------------------------------------------------------------------------
  LIBRARY MODULE, NAME : ?LIB_VERSION_L00

  SEGMENTS IN THE MODULE
  ======================
RCODE
  Relative segment, address : Not applicable
           ENTRIES                ADDRESS          REF BY MODULE
           ?CLH83L_2_20_L00        016E            tbsg
                                                   tbsgcom
                                                   tbsgeep
                                                   tbsgboks
                                                   exp
                                                   log
                                                   sqrt
                                                   frexp
                                                   modf
                                                   floor
                                                   ldexp
                                                   pow

    -------------------------------------------------------------------------
  LIBRARY MODULE, NAME : ?SS_MUL_L02

  SEGMENTS IN THE MODULE
  ======================
RCODE
  Relative segment, address : 016E - 0181
           ENTRIES                ADDRESS          REF BY MODULE
           ?SS_MUL_L02             016E            tbsg
                                                   tbsgcom
                                                   tbsgeep
           ?US_MUL_L02             016E            Not referred to

    -------------------------------------------------------------------------
  LIBRARY MODULE, NAME : ?US_DIV_L02

  SEGMENTS IN THE MODULE
  ======================
RCODE
  Relative segment, address : 0182 - 023B
           ENTRIES                ADDRESS          REF BY MODULE
           ?US_MOD_L02             0188            Not referred to
           ?US_MOD_SWAP_L02        0182            Not referred to
           ?US_DIV_L02             01FC            Not referred to
           ?US_DIV_SWAP_L02        01F6            Not referred to
           ?SS_MOD_L02             01C6            Not referred to
           ?SS_MOD_SWAP_L02        01C0            Not referred to
           ?SS_DIV_L02             0194            sqrt
           ?SS_DIV_SWAP_L02        018E            Not referred to

    -------------------------------------------------------------------------
  LIBRARY MODULE, NAME : ?F_MUL_L04

  SEGMENTS IN THE MODULE
  ======================
RCODE
  Relative segment, address : 023C - 05EF
           ENTRIES                ADDRESS          REF BY MODULE
           ?F_MUL_L04              023C            tbsg
                                                   exp
                                                   log
                                                   sqrt
                                                   frexp
                                                   pow
           ?F_DIV_L04              0338            tbsg
                                                   tbsgcom
                                                   sqrt
                                                   frexp
                                                   ldexp
           ?F_DIV_SWAP_L04         032C            tbsg
                                                   exp
                                                   log
           ?F_SUB_L04              044C            tbsg
                                                   exp
                                                   log
                                                   sqrt
                                                   frexp
                                                   modf
                                                   floor
                                                   pow
           ?F_SUB_SWAP_L04         0440            tbsg
                                                   exp
           ?F_ADD_L04              044E            tbsg
                                                   tbsgcom
                                                   exp
                                                   log
                                                   sqrt
                                                   modf
                                                   floor
                                                   ldexp
           ?FLT_TO_SL_L04          0536            tbsg
                                                   tbsgcom
                                                   exp
                                                   modf
                                                   pow
           ?FLT_TO_SL_SWAP_L04     052A            Not referred to
           ?FLT_TO_UL_L04          0536            Not referred to
           ?FLT_TO_UL_SWAP_L04     052A            Not referred to
           ?SL_TO_FLT_L04          0592            tbsg
                                                   tbsgcom
                                                   exp
                                                   log
                                                   sqrt
                                                   modf
           ?UL_TO_FLT_L04          05AE            tbsg

    -------------------------------------------------------------------------
  LIBRARY MODULE, NAME : floor

  SEGMENTS IN THE MODULE
  ======================
CODE
  Relative segment, address : 4FDC - 507B
           ENTRIES                ADDRESS          REF BY MODULE
           floor                   4FDC            exp

    -------------------------------------------------------------------------
  LIBRARY MODULE, NAME : ldexp

  SEGMENTS IN THE MODULE
  ======================
CODE
  Relative segment, address : 507C - 50D9
           ENTRIES                ADDRESS          REF BY MODULE
           ldexp                   507C            exp

    -------------------------------------------------------------------------
  LIBRARY MODULE, NAME : pow

  SEGMENTS IN THE MODULE
  ======================
CODE
  Relative segment, address : 50DA - 517F
           ENTRIES                ADDRESS          REF BY MODULE
           pow                     50DA            tbsg

    -------------------------------------------------------------------------
                ****************************************
                *                                      *
                *        SEGMENTS IN DUMP ORDER        *
                *                                      *
                ****************************************

 SEGMENT               START ADDRESS    END ADDRESS  TYPE  ORG  P/N  ALIGN
 =======               =============    ===========  ====  ===  ===  =====
INTVEC                      0000     -     002F       com  stc  pos   1     
RCODE                       0100     -     05EF       rel  stc  pos   1     
CODE                        05F0     -     517F       rel  flt  pos   1     
CDATA                           Not applicable        rel  flt  pos   1     
ZVECT                           Not applicable        rel  flt  pos   1     
CONST                       5180     -     53A9       rel  flt  pos   1     
CSTR                            Not applicable        rel  flt  pos   1     
CCSTR                           Not applicable        rel  flt  pos   1     
DATA                            Not applicable        rel  stc  pos   1     
IDATA                           Not applicable        rel  flt  pos   1     
UDATA                       FB80     -     FEBD       rel  flt  pos   1     
ECSTR                           Not applicable        rel  flt  pos   1     
WCSTR                           Not applicable        rel  flt  pos   1     
TEMP                            Not applicable        rel  flt  pos   1     
CSTACK                      FEC0     -     FF7F       rel  stc  pos   1     

                ****************************************
                *                                      *
                *        END OF CROSS REFERENCE        *
                *                                      *
                ****************************************

Errors: none
Warnings: none

