
AVRASM ver. 2.1.30  C:\Users\tpe\Dropbox\CVAVR\scanjet\CNV_HW2_V03\Release\List\CNV_HW2_02.asm Thu Jan 12 16:06:45 2023

                 
                 
                 ;CodeVisionAVR C Compiler V3.50 Advanced
                 ;(C) Copyright 1998-2023 Pavel Haiduc, HP InfoTech S.R.L.
                 ;http://www.hpinfotech.ro
                 
                 ;Build configuration    : Release
                 ;Chip type              : AVR64DB64
                 ;Program type           : Application
                 ;Clock frequency        : 4,000960 MHz
                 ;Memory model           : Small
                 ;Optimize for           : Speed
                 ;(s)printf features     : float, width, precision
                 ;(s)scanf features      : No
                 ;External RAM size      : 0
                 ;Data Stack size        : 2048 byte(s)
                 ;Heap size              : 0 byte(s)
                 ;Promote 'char' to 'int': Yes
                 ;'char' is unsigned     : Yes
                 ;8 bit enums            : Yes
                 ;Global 'const' stored in FLASH: Yes
                 ;Enhanced function parameter passing: Mode 2
                 ;Enhanced core instructions: On
                 ;Automatic register allocation for global variables: On
                 ;Smart register allocation: On
                 
                 	#define _MODEL_SMALL_
                 
                 	#pragma AVRPART ADMIN PART_NAME AVR64DB64
                 	#pragma AVRPART MEMORY PROG_FLASH 65536
                 	#pragma AVRPART MEMORY EEPROM 512
                 	#pragma AVRPART MEMORY INT_SRAM SIZE 8192
                 	#pragma AVRPART MEMORY INT_SRAM START_ADDR 0x6000
                 
                 	#define CALL_SUPPORTED 1
                 
                 	.LISTMAC
                 	.EQU CCP=0x34
                 	.EQU RAMPZ=0x3B
                 	.EQU WDT_CTRLA=0x100
                 	.EQU WDT_STATUS=0x101
                 	.EQU CPUINT_CTRLA=0x110
                 	.EQU NVMCTRL_CTRLA=0x1000
                 	.EQU NVMCTRL_CTRLB=0x1001
                 	.EQU NVMCTRL_STATUS=0x1002
                 	.EQU NVMCTRL_INTCTRL=0x1003
                 	.EQU NVMCTRL_INTFLAGS=0x1004
                 	.EQU NVMCTRL_DATAL=0x1006
                 	.EQU NVMCTRL_DATAH=0x1007
                 	.EQU NVMCTRL_ADDRL=0x1008
                 	.EQU NVMCTRL_ADDRH=0x1009
                 	.EQU SPL=0x3D
                 	.EQU SPH=0x3E
                 	.EQU SREG=0x3F
                 	.EQU GPR_GPR0=0x1C
                 	.EQU GPR_GPR1=0x1D
                 	.EQU GPR_GPR2=0x1E
                 	.EQU GPR_GPR3=0x1F
                 
                 	.DEF R0X0=R0
                 	.DEF R0X1=R1
                 	.DEF R0X2=R2
                 	.DEF R0X3=R3
                 	.DEF R0X4=R4
                 	.DEF R0X5=R5
                 	.DEF R0X6=R6
                 	.DEF R0X7=R7
                 	.DEF R0X8=R8
                 	.DEF R0X9=R9
                 	.DEF R0XA=R10
                 	.DEF R0XB=R11
                 	.DEF R0XC=R12
                 	.DEF R0XD=R13
                 	.DEF R0XE=R14
                 	.DEF R0XF=R15
                 	.DEF R0X10=R16
                 	.DEF R0X11=R17
                 	.DEF R0X12=R18
                 	.DEF R0X13=R19
                 	.DEF R0X14=R20
                 	.DEF R0X15=R21
                 	.DEF R0X16=R22
                 	.DEF R0X17=R23
                 	.DEF R0X18=R24
                 	.DEF R0X19=R25
                 	.DEF R0X1A=R26
                 	.DEF R0X1B=R27
                 	.DEF R0X1C=R28
                 	.DEF R0X1D=R29
                 	.DEF R0X1E=R30
                 	.DEF R0X1F=R31
                 
                 	.EQU __SRAM_START=0x6000
                 	.EQU __SRAM_END=0x7FFF
                 	.EQU __DSTACK_SIZE=0x0800
                 	.EQU __HEAP_SIZE=0x0000
                 	.EQU __CLEAR_SRAM_SIZE=__SRAM_END-__SRAM_START+1
                 
                 	.EQU __FLASH_PAGE_SIZE=0x100
                 
                 	.MACRO __CPD1N
                 	CPI  R30,LOW(@0)
                 	LDI  R26,HIGH(@0)
                 	CPC  R31,R26
                 	LDI  R26,BYTE3(@0)
                 	CPC  R22,R26
                 	LDI  R26,BYTE4(@0)
                 	CPC  R23,R26
                 	.ENDM
                 
                 	.MACRO __CPD2N
                 	CPI  R26,LOW(@0)
                 	LDI  R30,HIGH(@0)
                 	CPC  R27,R30
                 	LDI  R30,BYTE3(@0)
                 	CPC  R24,R30
                 	LDI  R30,BYTE4(@0)
                 	CPC  R25,R30
                 	.ENDM
                 
                 	.MACRO __CPWRR
                 	CP   R@0,R@2
                 	CPC  R@1,R@3
                 	.ENDM
                 
                 	.MACRO __CPWRN
                 	CPI  R@0,LOW(@2)
                 	LDI  R30,HIGH(@2)
                 	CPC  R@1,R30
                 	.ENDM
                 
                 	.MACRO __ADDB1MN
                 	SUBI R30,LOW(-@0-(@1))
                 	.ENDM
                 
                 	.MACRO __ADDB2MN
                 	SUBI R26,LOW(-@0-(@1))
                 	.ENDM
                 
                 	.MACRO __ADDW1MN
                 	SUBI R30,LOW(-@0-(@1))
                 	SBCI R31,HIGH(-@0-(@1))
                 	.ENDM
                 
                 	.MACRO __ADDW2MN
                 	SUBI R26,LOW(-@0-(@1))
                 	SBCI R27,HIGH(-@0-(@1))
                 	.ENDM
                 
                 	.MACRO __ADDW1FN
                 	SUBI R30,LOW(-2*@0-(@1))
                 	SBCI R31,HIGH(-2*@0-(@1))
                 	.ENDM
                 
                 	.MACRO __ADDD1FN
                 	SUBI R30,LOW(-2*@0-(@1))
                 	SBCI R31,HIGH(-2*@0-(@1))
                 	SBCI R22,BYTE3(-2*@0-(@1))
                 	.ENDM
                 
                 	.MACRO __ADDD1N
                 	SUBI R30,LOW(-@0)
                 	SBCI R31,HIGH(-@0)
                 	SBCI R22,BYTE3(-@0)
                 	SBCI R23,BYTE4(-@0)
                 	.ENDM
                 
                 	.MACRO __ADDD2N
                 	SUBI R26,LOW(-@0)
                 	SBCI R27,HIGH(-@0)
                 	SBCI R24,BYTE3(-@0)
                 	SBCI R25,BYTE4(-@0)
                 	.ENDM
                 
                 	.MACRO __SUBD1N
                 	SUBI R30,LOW(@0)
                 	SBCI R31,HIGH(@0)
                 	SBCI R22,BYTE3(@0)
                 	SBCI R23,BYTE4(@0)
                 	.ENDM
                 
                 	.MACRO __SUBD2N
                 	SUBI R26,LOW(@0)
                 	SBCI R27,HIGH(@0)
                 	SBCI R24,BYTE3(@0)
                 	SBCI R25,BYTE4(@0)
                 	.ENDM
                 
                 	.MACRO __ANDBMNN
                 	LDS  R30,@0+(@1)
                 	ANDI R30,LOW(@2)
                 	STS  @0+(@1),R30
                 	.ENDM
                 
                 	.MACRO __ANDWMNN
                 	LDS  R30,@0+(@1)
                 	ANDI R30,LOW(@2)
                 	STS  @0+(@1),R30
                 	LDS  R30,@0+(@1)+1
                 	ANDI R30,HIGH(@2)
                 	STS  @0+(@1)+1,R30
                 	.ENDM
                 
                 	.MACRO __ANDD1N
                 	ANDI R30,LOW(@0)
                 	ANDI R31,HIGH(@0)
                 	ANDI R22,BYTE3(@0)
                 	ANDI R23,BYTE4(@0)
                 	.ENDM
                 
                 	.MACRO __ANDD2N
                 	ANDI R26,LOW(@0)
                 	ANDI R27,HIGH(@0)
                 	ANDI R24,BYTE3(@0)
                 	ANDI R25,BYTE4(@0)
                 	.ENDM
                 
                 	.MACRO __ORBMNN
                 	LDS  R30,@0+(@1)
                 	ORI  R30,LOW(@2)
                 	STS  @0+(@1),R30
                 	.ENDM
                 
                 	.MACRO __ORWMNN
                 	LDS  R30,@0+(@1)
                 	ORI  R30,LOW(@2)
                 	STS  @0+(@1),R30
                 	LDS  R30,@0+(@1)+1
                 	ORI  R30,HIGH(@2)
                 	STS  @0+(@1)+1,R30
                 	.ENDM
                 
                 	.MACRO __ORD1N
                 	ORI  R30,LOW(@0)
                 	ORI  R31,HIGH(@0)
                 	ORI  R22,BYTE3(@0)
                 	ORI  R23,BYTE4(@0)
                 	.ENDM
                 
                 	.MACRO __ORD2N
                 	ORI  R26,LOW(@0)
                 	ORI  R27,HIGH(@0)
                 	ORI  R24,BYTE3(@0)
                 	ORI  R25,BYTE4(@0)
                 	.ENDM
                 
                 	.MACRO __DELAY_USB
                 	LDI  R24,LOW(@0)
                 __DELAY_USB_LOOP:
                 	DEC  R24
                 	BRNE __DELAY_USB_LOOP
                 	.ENDM
                 
                 	.MACRO __DELAY_USW
                 	LDI  R24,LOW(@0)
                 	LDI  R25,HIGH(@0)
                 __DELAY_USW_LOOP:
                 	SBIW R24,1
                 	BRNE __DELAY_USW_LOOP
                 	.ENDM
                 
                 	.MACRO __GETW1P
                 	LD   R30,X+
                 	LD   R31,X
                 	SBIW R26,1
                 	.ENDM
                 
                 	.MACRO __GETD1S
                 	LDD  R30,Y+@0
                 	LDD  R31,Y+@0+1
                 	LDD  R22,Y+@0+2
                 	LDD  R23,Y+@0+3
                 	.ENDM
                 
                 	.MACRO __GETD2S
                 	LDD  R26,Y+@0
                 	LDD  R27,Y+@0+1
                 	LDD  R24,Y+@0+2
                 	LDD  R25,Y+@0+3
                 	.ENDM
                 
                 	.MACRO __GETD1P_INC
                 	LD   R30,X+
                 	LD   R31,X+
                 	LD   R22,X+
                 	LD   R23,X+
                 	.ENDM
                 
                 	.MACRO __GETD1P_DEC
                 	LD   R23,-X
                 	LD   R22,-X
                 	LD   R31,-X
                 	LD   R30,-X
                 	.ENDM
                 
                 	.MACRO __PUTDP1
                 	ST   X+,R30
                 	ST   X+,R31
                 	ST   X+,R22
                 	ST   X,R23
                 	.ENDM
                 
                 	.MACRO __PUTDP1_DEC
                 	ST   -X,R23
                 	ST   -X,R22
                 	ST   -X,R31
                 	ST   -X,R30
                 	.ENDM
                 
                 	.MACRO __PUTD1S
                 	STD  Y+@0,R30
                 	STD  Y+@0+1,R31
                 	STD  Y+@0+2,R22
                 	STD  Y+@0+3,R23
                 	.ENDM
                 
                 	.MACRO __PUTD2S
                 	STD  Y+@0,R26
                 	STD  Y+@0+1,R27
                 	STD  Y+@0+2,R24
                 	STD  Y+@0+3,R25
                 	.ENDM
                 
                 	.MACRO __PUTDZ2
                 	STD  Z+@0,R26
                 	STD  Z+@0+1,R27
                 	STD  Z+@0+2,R24
                 	STD  Z+@0+3,R25
                 	.ENDM
                 
                 	.MACRO __CLRD1S
                 	STD  Y+@0,R30
                 	STD  Y+@0+1,R30
                 	STD  Y+@0+2,R30
                 	STD  Y+@0+3,R30
                 	.ENDM
                 
                 	.MACRO __CPD10
                 	SBIW R30,0
                 	SBCI R22,0
                 	SBCI R23,0
                 	.ENDM
                 
                 	.MACRO __CPD20
                 	SBIW R26,0
                 	SBCI R24,0
                 	SBCI R25,0
                 	.ENDM
                 
                 	.MACRO __ADDD12
                 	ADD  R30,R26
                 	ADC  R31,R27
                 	ADC  R22,R24
                 	ADC  R23,R25
                 	.ENDM
                 
                 	.MACRO __ADDD21
                 	ADD  R26,R30
                 	ADC  R27,R31
                 	ADC  R24,R22
                 	ADC  R25,R23
                 	.ENDM
                 
                 	.MACRO __SUBD12
                 	SUB  R30,R26
                 	SBC  R31,R27
                 	SBC  R22,R24
                 	SBC  R23,R25
                 	.ENDM
                 
                 	.MACRO __SUBD21
                 	SUB  R26,R30
                 	SBC  R27,R31
                 	SBC  R24,R22
                 	SBC  R25,R23
                 	.ENDM
                 
                 	.MACRO __ANDD12
                 	AND  R30,R26
                 	AND  R31,R27
                 	AND  R22,R24
                 	AND  R23,R25
                 	.ENDM
                 
                 	.MACRO __ORD12
                 	OR   R30,R26
                 	OR   R31,R27
                 	OR   R22,R24
                 	OR   R23,R25
                 	.ENDM
                 
                 	.MACRO __XORD12
                 	EOR  R30,R26
                 	EOR  R31,R27
                 	EOR  R22,R24
                 	EOR  R23,R25
                 	.ENDM
                 
                 	.MACRO __XORD21
                 	EOR  R26,R30
                 	EOR  R27,R31
                 	EOR  R24,R22
                 	EOR  R25,R23
                 	.ENDM
                 
                 	.MACRO __COMD1
                 	COM  R30
                 	COM  R31
                 	COM  R22
                 	COM  R23
                 	.ENDM
                 
                 	.MACRO __MULD2_2
                 	LSL  R26
                 	ROL  R27
                 	ROL  R24
                 	ROL  R25
                 	.ENDM
                 
                 	.MACRO __LSRD1
                 	LSR  R23
                 	ROR  R22
                 	ROR  R31
                 	ROR  R30
                 	.ENDM
                 
                 	.MACRO __LSLD1
                 	LSL  R30
                 	ROL  R31
                 	ROL  R22
                 	ROL  R23
                 	.ENDM
                 
                 	.MACRO __ASRB4
                 	ASR  R30
                 	ASR  R30
                 	ASR  R30
                 	ASR  R30
                 	.ENDM
                 
                 	.MACRO __ASRW8
                 	MOV  R30,R31
                 	CLR  R31
                 	SBRC R30,7
                 	SER  R31
                 	.ENDM
                 
                 	.MACRO __LSRD16
                 	MOV  R30,R22
                 	MOV  R31,R23
                 	LDI  R22,0
                 	LDI  R23,0
                 	.ENDM
                 
                 	.MACRO __LSLD16
                 	MOV  R22,R30
                 	MOV  R23,R31
                 	LDI  R30,0
                 	LDI  R31,0
                 	.ENDM
                 
                 	.MACRO __CWD1
                 	MOV  R22,R31
                 	ADD  R22,R22
                 	SBC  R22,R22
                 	MOV  R23,R22
                 	.ENDM
                 
                 	.MACRO __CWD2
                 	MOV  R24,R27
                 	ADD  R24,R24
                 	SBC  R24,R24
                 	MOV  R25,R24
                 	.ENDM
                 
                 	.MACRO __SETMSD1
                 	SER  R31
                 	SER  R22
                 	SER  R23
                 	.ENDM
                 
                 	.MACRO __ADDW1R15
                 	CLR  R0
                 	ADD  R30,R15
                 	ADC  R31,R0
                 	.ENDM
                 
                 	.MACRO __ADDW2R15
                 	CLR  R0
                 	ADD  R26,R15
                 	ADC  R27,R0
                 	.ENDM
                 
                 	.MACRO __EQB12
                 	CP   R30,R26
                 	LDI  R30,1
                 	BREQ PC+2
                 	CLR  R30
                 	.ENDM
                 
                 	.MACRO __NEB12
                 	CP   R30,R26
                 	LDI  R30,1
                 	BRNE PC+2
                 	CLR  R30
                 	.ENDM
                 
                 	.MACRO __LEB12
                 	CP   R30,R26
                 	LDI  R30,1
                 	BRGE PC+2
                 	CLR  R30
                 	.ENDM
                 
                 	.MACRO __GEB12
                 	CP   R26,R30
                 	LDI  R30,1
                 	BRGE PC+2
                 	CLR  R30
                 	.ENDM
                 
                 	.MACRO __LTB12
                 	CP   R26,R30
                 	LDI  R30,1
                 	BRLT PC+2
                 	CLR  R30
                 	.ENDM
                 
                 	.MACRO __GTB12
                 	CP   R30,R26
                 	LDI  R30,1
                 	BRLT PC+2
                 	CLR  R30
                 	.ENDM
                 
                 	.MACRO __LEB12U
                 	CP   R30,R26
                 	LDI  R30,1
                 	BRSH PC+2
                 	CLR  R30
                 	.ENDM
                 
                 	.MACRO __GEB12U
                 	CP   R26,R30
                 	LDI  R30,1
                 	BRSH PC+2
                 	CLR  R30
                 	.ENDM
                 
                 	.MACRO __LTB12U
                 	CP   R26,R30
                 	LDI  R30,1
                 	BRLO PC+2
                 	CLR  R30
                 	.ENDM
                 
                 	.MACRO __GTB12U
                 	CP   R30,R26
                 	LDI  R30,1
                 	BRLO PC+2
                 	CLR  R30
                 	.ENDM
                 
                 	.MACRO __CPW01
                 	CLR  R0
                 	CP   R0,R30
                 	CPC  R0,R31
                 	.ENDM
                 
                 	.MACRO __CPW02
                 	CLR  R0
                 	CP   R0,R26
                 	CPC  R0,R27
                 	.ENDM
                 
                 	.MACRO __CPD12
                 	CP   R30,R26
                 	CPC  R31,R27
                 	CPC  R22,R24
                 	CPC  R23,R25
                 	.ENDM
                 
                 	.MACRO __CPD21
                 	CP   R26,R30
                 	CPC  R27,R31
                 	CPC  R24,R22
                 	CPC  R25,R23
                 	.ENDM
                 
                 	.MACRO __BSTB1
                 	CLT
                 	TST  R30
                 	BREQ PC+2
                 	SET
                 	.ENDM
                 
                 	.MACRO __LNEGB1
                 	TST  R30
                 	LDI  R30,1
                 	BREQ PC+2
                 	CLR  R30
                 	.ENDM
                 
                 	.MACRO __LNEGW1
                 	OR   R30,R31
                 	LDI  R30,1
                 	BREQ PC+2
                 	LDI  R30,0
                 	.ENDM
                 
                 	.MACRO __POINTB1MN
                 	LDI  R30,LOW(@0+(@1))
                 	.ENDM
                 
                 	.MACRO __POINTW1MN
                 	LDI  R30,LOW(@0+(@1))
                 	LDI  R31,HIGH(@0+(@1))
                 	.ENDM
                 
                 	.MACRO __POINTD1M
                 	LDI  R30,LOW(@0)
                 	LDI  R31,HIGH(@0)
                 	LDI  R22,BYTE3(@0)
                 	LDI  R23,BYTE4(@0)
                 	.ENDM
                 
                 	.MACRO __POINTW1FN
                 	LDI  R30,LOW(2*@0+(@1))
                 	LDI  R31,HIGH(2*@0+(@1))
                 	.ENDM
                 
                 	.MACRO __POINTD1FN
                 	LDI  R30,LOW(2*@0+(@1))
                 	LDI  R31,HIGH(2*@0+(@1))
                 	LDI  R22,BYTE3(2*@0+(@1))
                 	LDI  R23,BYTE4(2*@0+(@1))
                 	.ENDM
                 
                 	.MACRO __POINTB2MN
                 	LDI  R26,LOW(@0+(@1))
                 	.ENDM
                 
                 	.MACRO __POINTW2MN
                 	LDI  R26,LOW(@0+(@1))
                 	LDI  R27,HIGH(@0+(@1))
                 	.ENDM
                 
                 	.MACRO __POINTD2M
                 	LDI  R26,LOW(@0)
                 	LDI  R27,HIGH(@0)
                 	LDI  R24,BYTE3(@0)
                 	LDI  R25,BYTE4(@0)
                 	.ENDM
                 
                 	.MACRO __POINTW2FN
                 	LDI  R26,LOW(2*@0+(@1))
                 	LDI  R27,HIGH(2*@0+(@1))
                 	.ENDM
                 
                 	.MACRO __POINTD2FN
                 	LDI  R26,LOW(2*@0+(@1))
                 	LDI  R27,HIGH(2*@0+(@1))
                 	LDI  R24,BYTE3(2*@0+(@1))
                 	LDI  R25,BYTE4(2*@0+(@1))
                 	.ENDM
                 
                 	.MACRO __POINTBRM
                 	LDI  R@0,LOW(@1)
                 	.ENDM
                 
                 	.MACRO __POINTWRM
                 	LDI  R@0,LOW(@2)
                 	LDI  R@1,HIGH(@2)
                 	.ENDM
                 
                 	.MACRO __POINTBRMN
                 	LDI  R@0,LOW(@1+(@2))
                 	.ENDM
                 
                 	.MACRO __POINTWRMN
                 	LDI  R@0,LOW(@2+(@3))
                 	LDI  R@1,HIGH(@2+(@3))
                 	.ENDM
                 
                 	.MACRO __POINTWRFN
                 	LDI  R@0,LOW(@2*2+(@3))
                 	LDI  R@1,HIGH(@2*2+(@3))
                 	.ENDM
                 
                 	.MACRO __GETD1N
                 	LDI  R30,LOW(@0)
                 	LDI  R31,HIGH(@0)
                 	LDI  R22,BYTE3(@0)
                 	LDI  R23,BYTE4(@0)
                 	.ENDM
                 
                 	.MACRO __GETD2N
                 	LDI  R26,LOW(@0)
                 	LDI  R27,HIGH(@0)
                 	LDI  R24,BYTE3(@0)
                 	LDI  R25,BYTE4(@0)
                 	.ENDM
                 
                 	.MACRO __GETB1MN
                 	LDS  R30,@0+(@1)
                 	.ENDM
                 
                 	.MACRO __GETB1HMN
                 	LDS  R31,@0+(@1)
                 	.ENDM
                 
                 	.MACRO __GETW1MN
                 	LDS  R30,@0+(@1)
                 	LDS  R31,@0+(@1)+1
                 	.ENDM
                 
                 	.MACRO __GETD1MN
                 	LDS  R30,@0+(@1)
                 	LDS  R31,@0+(@1)+1
                 	LDS  R22,@0+(@1)+2
                 	LDS  R23,@0+(@1)+3
                 	.ENDM
                 
                 	.MACRO __GETBRMN
                 	LDS  R@0,@1+(@2)
                 	.ENDM
                 
                 	.MACRO __GETWRMN
                 	LDS  R@0,@2+(@3)
                 	LDS  R@1,@2+(@3)+1
                 	.ENDM
                 
                 	.MACRO __GETWRZ
                 	LDD  R@0,Z+@2
                 	LDD  R@1,Z+@2+1
                 	.ENDM
                 
                 	.MACRO __GETD2Z
                 	LDD  R26,Z+@0
                 	LDD  R27,Z+@0+1
                 	LDD  R24,Z+@0+2
                 	LDD  R25,Z+@0+3
                 	.ENDM
                 
                 	.MACRO __GETB2MN
                 	LDS  R26,@0+(@1)
                 	.ENDM
                 
                 	.MACRO __GETW2MN
                 	LDS  R26,@0+(@1)
                 	LDS  R27,@0+(@1)+1
                 	.ENDM
                 
                 	.MACRO __GETD2MN
                 	LDS  R26,@0+(@1)
                 	LDS  R27,@0+(@1)+1
                 	LDS  R24,@0+(@1)+2
                 	LDS  R25,@0+(@1)+3
                 	.ENDM
                 
                 	.MACRO __PUTB1MN
                 	STS  @0+(@1),R30
                 	.ENDM
                 
                 	.MACRO __PUTW1MN
                 	STS  @0+(@1),R30
                 	STS  @0+(@1)+1,R31
                 	.ENDM
                 
                 	.MACRO __PUTD1MN
                 	STS  @0+(@1),R30
                 	STS  @0+(@1)+1,R31
                 	STS  @0+(@1)+2,R22
                 	STS  @0+(@1)+3,R23
                 	.ENDM
                 
                 	.MACRO __PUTB1EN
                 	LDI  R26,LOW(@0+(@1))
                 	LDI  R27,HIGH(@0+(@1))
                 	CALL __EEPROMWRB
                 	.ENDM
                 
                 	.MACRO __PUTW1EN
                 	LDI  R26,LOW(@0+(@1))
                 	LDI  R27,HIGH(@0+(@1))
                 	CALL __EEPROMWRW
                 	.ENDM
                 
                 	.MACRO __PUTD1EN
                 	LDI  R26,LOW(@0+(@1))
                 	LDI  R27,HIGH(@0+(@1))
                 	CALL __EEPROMWRD
                 	.ENDM
                 
                 	.MACRO __PUTBR0MN
                 	STS  @0+(@1),R0
                 	.ENDM
                 
                 	.MACRO __PUTBMRN
                 	STS  @0+(@1),R@2
                 	.ENDM
                 
                 	.MACRO __PUTWMRN
                 	STS  @0+(@1),R@2
                 	STS  @0+(@1)+1,R@3
                 	.ENDM
                 
                 	.MACRO __PUTBZR
                 	STD  Z+@1,R@0
                 	.ENDM
                 
                 	.MACRO __PUTWZR
                 	STD  Z+@2,R@0
                 	STD  Z+@2+1,R@1
                 	.ENDM
                 
                 	.MACRO __GETW1R
                 	MOV  R30,R@0
                 	MOV  R31,R@1
                 	.ENDM
                 
                 	.MACRO __GETW2R
                 	MOV  R26,R@0
                 	MOV  R27,R@1
                 	.ENDM
                 
                 	.MACRO __GETWRN
                 	LDI  R@0,LOW(@2)
                 	LDI  R@1,HIGH(@2)
                 	.ENDM
                 
                 	.MACRO __PUTW1R
                 	MOV  R@0,R30
                 	MOV  R@1,R31
                 	.ENDM
                 
                 	.MACRO __PUTW2R
                 	MOV  R@0,R26
                 	MOV  R@1,R27
                 	.ENDM
                 
                 	.MACRO __ADDWRN
                 	SUBI R@0,LOW(-@2)
                 	SBCI R@1,HIGH(-@2)
                 	.ENDM
                 
                 	.MACRO __ADDWRR
                 	ADD  R@0,R@2
                 	ADC  R@1,R@3
                 	.ENDM
                 
                 	.MACRO __SUBWRN
                 	SUBI R@0,LOW(@2)
                 	SBCI R@1,HIGH(@2)
                 	.ENDM
                 
                 	.MACRO __SUBWRR
                 	SUB  R@0,R@2
                 	SBC  R@1,R@3
                 	.ENDM
                 
                 	.MACRO __ANDWRN
                 	ANDI R@0,LOW(@2)
                 	ANDI R@1,HIGH(@2)
                 	.ENDM
                 
                 	.MACRO __ANDWRR
                 	AND  R@0,R@2
                 	AND  R@1,R@3
                 	.ENDM
                 
                 	.MACRO __ORWRN
                 	ORI  R@0,LOW(@2)
                 	ORI  R@1,HIGH(@2)
                 	.ENDM
                 
                 	.MACRO __ORWRR
                 	OR   R@0,R@2
                 	OR   R@1,R@3
                 	.ENDM
                 
                 	.MACRO __EORWRR
                 	EOR  R@0,R@2
                 	EOR  R@1,R@3
                 	.ENDM
                 
                 	.MACRO __GETWRS
                 	LDD  R@0,Y+@2
                 	LDD  R@1,Y+@2+1
                 	.ENDM
                 
                 	.MACRO __PUTBSR
                 	STD  Y+@1,R@0
                 	.ENDM
                 
                 	.MACRO __PUTWSR
                 	STD  Y+@2,R@0
                 	STD  Y+@2+1,R@1
                 	.ENDM
                 
                 	.MACRO __MOVEWRR
                 	MOV  R@0,R@2
                 	MOV  R@1,R@3
                 	.ENDM
                 
                 	.MACRO __INWR
                 	IN   R@0,@2
                 	IN   R@1,@2+1
                 	.ENDM
                 
                 	.MACRO __OUTWR
                 	OUT  @2+1,R@1
                 	OUT  @2,R@0
                 	.ENDM
                 
                 	.MACRO __CALL1MN
                 	LDS  R30,@0+(@1)
                 	LDS  R31,@0+(@1)+1
                 	ICALL
                 	.ENDM
                 
                 	.MACRO __CALL1FN
                 	LDI  R30,LOW(2*@0+(@1))
                 	LDI  R31,HIGH(2*@0+(@1))
                 	CALL __GETW1PF
                 	ICALL
                 	.ENDM
                 
                 	.MACRO __CALL2EN
                 	PUSH R26
                 	PUSH R27
                 	LDI  R26,LOW(@0+(@1))
                 	LDI  R27,HIGH(@0+(@1))
                 	CALL __EEPROMRDW
                 	POP  R27
                 	POP  R26
                 	ICALL
                 	.ENDM
                 
                 	.MACRO __CALL2EX
                 	SUBI R26,LOW(-@0)
                 	SBCI R27,HIGH(-@0)
                 	CALL __EEPROMRDD
                 	ICALL
                 	.ENDM
                 
                 	.MACRO __GETW1STACK
                 	IN   R30,SPL
                 	IN   R31,SPH
                 	ADIW R30,@0+1
                 	LD   R0,Z+
                 	LD   R31,Z
                 	MOV  R30,R0
                 	.ENDM
                 
                 	.MACRO __GETD1STACK
                 	IN   R30,SPL
                 	IN   R31,SPH
                 	ADIW R30,@0+1
                 	LD   R0,Z+
                 	LD   R1,Z+
                 	LD   R22,Z
                 	MOVW R30,R0
                 	.ENDM
                 
                 	.MACRO __NBST
                 	BST  R@0,@1
                 	IN   R30,SREG
                 	LDI  R31,0x40
                 	EOR  R30,R31
                 	OUT  SREG,R30
                 	.ENDM
                 
                 
                 	.MACRO __PUTB1SN
                 	LDD  R26,Y+@0
                 	LDD  R27,Y+@0+1
                 	SUBI R26,LOW(-@1)
                 	SBCI R27,HIGH(-@1)
                 	ST   X,R30
                 	.ENDM
                 
                 	.MACRO __PUTW1SN
                 	LDD  R26,Y+@0
                 	LDD  R27,Y+@0+1
                 	SUBI R26,LOW(-@1)
                 	SBCI R27,HIGH(-@1)
                 	ST   X+,R30
                 	ST   X,R31
                 	.ENDM
                 
                 	.MACRO __PUTD1SN
                 	LDD  R26,Y+@0
                 	LDD  R27,Y+@0+1
                 	SUBI R26,LOW(-@1)
                 	SBCI R27,HIGH(-@1)
                 	ST   X+,R30
                 	ST   X+,R31
                 	ST   X+,R22
                 	ST   X,R23
                 	.ENDM
                 
                 	.MACRO __PUTB1SNS
                 	LDD  R26,Y+@0
                 	LDD  R27,Y+@0+1
                 	ADIW R26,@1
                 	ST   X,R30
                 	.ENDM
                 
                 	.MACRO __PUTW1SNS
                 	LDD  R26,Y+@0
                 	LDD  R27,Y+@0+1
                 	ADIW R26,@1
                 	ST   X+,R30
                 	ST   X,R31
                 	.ENDM
                 
                 	.MACRO __PUTD1SNS
                 	LDD  R26,Y+@0
                 	LDD  R27,Y+@0+1
                 	ADIW R26,@1
                 	ST   X+,R30
                 	ST   X+,R31
                 	ST   X+,R22
                 	ST   X,R23
                 	.ENDM
                 
                 	.MACRO __PUTB1PMN
                 	LDS  R26,@0
                 	LDS  R27,@0+1
                 	SUBI R26,LOW(-@1)
                 	SBCI R27,HIGH(-@1)
                 	ST   X,R30
                 	.ENDM
                 
                 	.MACRO __PUTW1PMN
                 	LDS  R26,@0
                 	LDS  R27,@0+1
                 	SUBI R26,LOW(-@1)
                 	SBCI R27,HIGH(-@1)
                 	ST   X+,R30
                 	ST   X,R31
                 	.ENDM
                 
                 	.MACRO __PUTD1PMN
                 	LDS  R26,@0
                 	LDS  R27,@0+1
                 	SUBI R26,LOW(-@1)
                 	SBCI R27,HIGH(-@1)
                 	ST   X+,R30
                 	ST   X+,R31
                 	ST   X+,R22
                 	ST   X,R23
                 	.ENDM
                 
                 	.MACRO __PUTB1PMNS
                 	LDS  R26,@0
                 	LDS  R27,@0+1
                 	ADIW R26,@1
                 	ST   X,R30
                 	.ENDM
                 
                 	.MACRO __PUTW1PMNS
                 	LDS  R26,@0
                 	LDS  R27,@0+1
                 	ADIW R26,@1
                 	ST   X+,R30
                 	ST   X,R31
                 	.ENDM
                 
                 	.MACRO __PUTD1PMNS
                 	LDS  R26,@0
                 	LDS  R27,@0+1
                 	ADIW R26,@1
                 	ST   X+,R30
                 	ST   X+,R31
                 	ST   X+,R22
                 	ST   X,R23
                 	.ENDM
                 
                 	.MACRO __PUTB1RN
                 	MOVW R26,R@0
                 	SUBI R26,LOW(-@1)
                 	SBCI R27,HIGH(-@1)
                 	ST   X,R30
                 	.ENDM
                 
                 	.MACRO __PUTW1RN
                 	MOVW R26,R@0
                 	SUBI R26,LOW(-@1)
                 	SBCI R27,HIGH(-@1)
                 	ST   X+,R30
                 	ST   X,R31
                 	.ENDM
                 
                 	.MACRO __PUTD1RN
                 	MOVW R26,R@0
                 	SUBI R26,LOW(-@1)
                 	SBCI R27,HIGH(-@1)
                 	ST   X+,R30
                 	ST   X+,R31
                 	ST   X+,R22
                 	ST   X,R23
                 	.ENDM
                 
                 	.MACRO __PUTB1RNS
                 	MOVW R26,R@0
                 	ADIW R26,@1
                 	ST   X,R30
                 	.ENDM
                 
                 	.MACRO __PUTW1RNS
                 	MOVW R26,R@0
                 	ADIW R26,@1
                 	ST   X+,R30
                 	ST   X,R31
                 	.ENDM
                 
                 	.MACRO __PUTD1RNS
                 	MOVW R26,R@0
                 	ADIW R26,@1
                 	ST   X+,R30
                 	ST   X+,R31
                 	ST   X+,R22
                 	ST   X,R23
                 	.ENDM
                 
                 	.MACRO __PUTB1RON
                 	MOV  R26,R@0
                 	MOV  R27,R@1
                 	SUBI R26,LOW(-@2)
                 	SBCI R27,HIGH(-@2)
                 	ST   X,R30
                 	.ENDM
                 
                 	.MACRO __PUTW1RON
                 	MOV  R26,R@0
                 	MOV  R27,R@1
                 	SUBI R26,LOW(-@2)
                 	SBCI R27,HIGH(-@2)
                 	ST   X+,R30
                 	ST   X,R31
                 	.ENDM
                 
                 	.MACRO __PUTD1RON
                 	MOV  R26,R@0
                 	MOV  R27,R@1
                 	SUBI R26,LOW(-@2)
                 	SBCI R27,HIGH(-@2)
                 	ST   X+,R30
                 	ST   X+,R31
                 	ST   X+,R22
                 	ST   X,R23
                 	.ENDM
                 
                 	.MACRO __PUTB1RONS
                 	MOV  R26,R@0
                 	MOV  R27,R@1
                 	ADIW R26,@2
                 	ST   X,R30
                 	.ENDM
                 
                 	.MACRO __PUTW1RONS
                 	MOV  R26,R@0
                 	MOV  R27,R@1
                 	ADIW R26,@2
                 	ST   X+,R30
                 	ST   X,R31
                 	.ENDM
                 
                 	.MACRO __PUTD1RONS
                 	MOV  R26,R@0
                 	MOV  R27,R@1
                 	ADIW R26,@2
                 	ST   X+,R30
                 	ST   X+,R31
                 	ST   X+,R22
                 	ST   X,R23
                 	.ENDM
                 
                 
                 	.MACRO __GETB1SX
                 	MOVW R30,R28
                 	SUBI R30,LOW(-@0)
                 	SBCI R31,HIGH(-@0)
                 	LD   R30,Z
                 	.ENDM
                 
                 	.MACRO __GETB1HSX
                 	MOVW R30,R28
                 	SUBI R30,LOW(-@0)
                 	SBCI R31,HIGH(-@0)
                 	LD   R31,Z
                 	.ENDM
                 
                 	.MACRO __GETW1SX
                 	MOVW R30,R28
                 	SUBI R30,LOW(-@0)
                 	SBCI R31,HIGH(-@0)
                 	CALL __GETW1Z
                 	.ENDM
                 
                 	.MACRO __GETD1SX
                 	MOVW R30,R28
                 	SUBI R30,LOW(-@0)
                 	SBCI R31,HIGH(-@0)
                 	CALL __GETD1Z
                 	.ENDM
                 
                 	.MACRO __GETB2SX
                 	MOVW R26,R28
                 	SUBI R26,LOW(-@0)
                 	SBCI R27,HIGH(-@0)
                 	LD   R26,X
                 	.ENDM
                 
                 	.MACRO __GETW2SX
                 	MOVW R26,R28
                 	SUBI R26,LOW(-@0)
                 	SBCI R27,HIGH(-@0)
                 	CALL __GETW2X
                 	.ENDM
                 
                 	.MACRO __GETD2SX
                 	MOVW R26,R28
                 	SUBI R26,LOW(-@0)
                 	SBCI R27,HIGH(-@0)
                 	CALL __GETD2X
                 	.ENDM
                 
                 	.MACRO __GETBRSX
                 	MOVW R30,R28
                 	SUBI R30,LOW(-@1)
                 	SBCI R31,HIGH(-@1)
                 	LD   R@0,Z
                 	.ENDM
                 
                 	.MACRO __GETWRSX
                 	MOVW R30,R28
                 	SUBI R30,LOW(-@2)
                 	SBCI R31,HIGH(-@2)
                 	LD   R@0,Z+
                 	LD   R@1,Z
                 	.ENDM
                 
                 	.MACRO __GETBRSX2
                 	MOVW R26,R28
                 	SUBI R26,LOW(-@1)
                 	SBCI R27,HIGH(-@1)
                 	LD   R@0,X
                 	.ENDM
                 
                 	.MACRO __GETWRSX2
                 	MOVW R26,R28
                 	SUBI R26,LOW(-@2)
                 	SBCI R27,HIGH(-@2)
                 	LD   R@0,X+
                 	LD   R@1,X
                 	.ENDM
                 
                 	.MACRO __LSLW8SX
                 	MOVW R30,R28
                 	SUBI R30,LOW(-@0)
                 	SBCI R31,HIGH(-@0)
                 	LD   R31,Z
                 	CLR  R30
                 	.ENDM
                 
                 	.MACRO __PUTB1SX
                 	MOVW R26,R28
                 	SUBI R26,LOW(-@0)
                 	SBCI R27,HIGH(-@0)
                 	ST   X,R30
                 	.ENDM
                 
                 	.MACRO __PUTW1SX
                 	MOVW R26,R28
                 	SUBI R26,LOW(-@0)
                 	SBCI R27,HIGH(-@0)
                 	ST   X+,R30
                 	ST   X,R31
                 	.ENDM
                 
                 	.MACRO __PUTD1SX
                 	MOVW R26,R28
                 	SUBI R26,LOW(-@0)
                 	SBCI R27,HIGH(-@0)
                 	ST   X+,R30
                 	ST   X+,R31
                 	ST   X+,R22
                 	ST   X,R23
                 	.ENDM
                 
                 	.MACRO __CLRW1SX
                 	MOVW R26,R28
                 	SUBI R26,LOW(-@0)
                 	SBCI R27,HIGH(-@0)
                 	ST   X+,R30
                 	ST   X,R30
                 	.ENDM
                 
                 	.MACRO __CLRD1SX
                 	MOVW R26,R28
                 	SUBI R26,LOW(-@0)
                 	SBCI R27,HIGH(-@0)
                 	ST   X+,R30
                 	ST   X+,R30
                 	ST   X+,R30
                 	ST   X,R30
                 	.ENDM
                 
                 	.MACRO __PUTB2SX
                 	MOVW R30,R28
                 	SUBI R30,LOW(-@0)
                 	SBCI R31,HIGH(-@0)
                 	ST   Z,R26
                 	.ENDM
                 
                 	.MACRO __PUTW2SX
                 	MOVW R30,R28
                 	SUBI R30,LOW(-@0)
                 	SBCI R31,HIGH(-@0)
                 	ST   Z+,R26
                 	ST   Z,R27
                 	.ENDM
                 
                 	.MACRO __PUTD2SX
                 	MOVW R30,R28
                 	SUBI R30,LOW(-@0)
                 	SBCI R31,HIGH(-@0)
                 	ST   Z+,R26
                 	ST   Z+,R27
                 	ST   Z+,R24
                 	ST   Z,R25
                 	.ENDM
                 
                 	.MACRO __PUTBSRX
                 	MOVW R30,R28
                 	SUBI R30,LOW(-@1)
                 	SBCI R31,HIGH(-@1)
                 	ST   Z,R@0
                 	.ENDM
                 
                 	.MACRO __PUTWSRX
                 	MOVW R30,R28
                 	SUBI R30,LOW(-@2)
                 	SBCI R31,HIGH(-@2)
                 	ST   Z+,R@0
                 	ST   Z,R@1
                 	.ENDM
                 
                 	.MACRO __PUTB1SNX
                 	MOVW R26,R28
                 	SUBI R26,LOW(-@0)
                 	SBCI R27,HIGH(-@0)
                 	LD   R0,X+
                 	LD   R27,X
                 	MOV  R26,R0
                 	SUBI R26,LOW(-@1)
                 	SBCI R27,HIGH(-@1)
                 	ST   X,R30
                 	.ENDM
                 
                 	.MACRO __PUTW1SNX
                 	MOVW R26,R28
                 	SUBI R26,LOW(-@0)
                 	SBCI R27,HIGH(-@0)
                 	LD   R0,X+
                 	LD   R27,X
                 	MOV  R26,R0
                 	SUBI R26,LOW(-@1)
                 	SBCI R27,HIGH(-@1)
                 	ST   X+,R30
                 	ST   X,R31
                 	.ENDM
                 
                 	.MACRO __PUTD1SNX
                 	MOVW R26,R28
                 	SUBI R26,LOW(-@0)
                 	SBCI R27,HIGH(-@0)
                 	LD   R0,X+
                 	LD   R27,X
                 	MOV  R26,R0
                 	SUBI R26,LOW(-@1)
                 	SBCI R27,HIGH(-@1)
                 	ST   X+,R30
                 	ST   X+,R31
                 	ST   X+,R22
                 	ST   X,R23
                 	.ENDM
                 
                 	.MACRO __MULBRR
                 	MULS R@0,R@1
                 	MOVW R30,R0
                 	.ENDM
                 
                 	.MACRO __MULBRRU
                 	MUL  R@0,R@1
                 	MOVW R30,R0
                 	.ENDM
                 
                 	.MACRO __MULBRR0
                 	MULS R@0,R@1
                 	.ENDM
                 
                 	.MACRO __MULBRRU0
                 	MUL  R@0,R@1
                 	.ENDM
                 
                 	.MACRO __MULBNWRU
                 	LDI  R26,@2
                 	MUL  R26,R@0
                 	MOVW R30,R0
                 	MUL  R26,R@1
                 	ADD  R31,R0
                 	.ENDM
                 
                 ;GPR_GPR0-GPR_GPR3 INITIALIZATION VALUES
                 	.EQU __GPR_GPR0_INIT=0x00
                 	.EQU __GPR_GPR1_INIT=0x00
                 	.EQU __GPR_GPR2_INIT=0x00
                 	.EQU __GPR_GPR3_INIT=0x00
                 
                 ;GLOBAL REGISTER VARIABLES INITIALIZATION VALUES
                 	.EQU __R2_INIT=0x00
                 	.EQU __R3_INIT=0x00
                 	.EQU __R4_INIT=0x00
                 	.EQU __R5_INIT=0x00
                 	.EQU __R6_INIT=0x00
                 	.EQU __R7_INIT=0x00
                 	.EQU __R8_INIT=0x00
                 	.EQU __R9_INIT=0x00
                 	.EQU __R10_INIT=0x00
                 	.EQU __R11_INIT=0x00
                 	.EQU __R12_INIT=0x00
                 	.EQU __R13_INIT=0x00
                 	.EQU __R14_INIT=0x00
                 
                 	.CSEG
                 	.ORG 0x00
                 
                 ;START OF CODE MARKER
                 __START_OF_CODE:
                 
                 ;INTERRUPT VECTORS
000000 940c 011f 	JMP  __RESET
000002 940c 0000 	JMP  0x00
000004 940c 0000 	JMP  0x00
000006 940c 0000 	JMP  0x00
000008 940c 0000 	JMP  0x00
00000a 940c 0000 	JMP  0x00
00000c 940c 0000 	JMP  0x00
00000e 940c 0000 	JMP  0x00
000010 940c 0000 	JMP  0x00
000012 940c 0000 	JMP  0x00
000014 940c 0000 	JMP  0x00
000016 940c 0000 	JMP  0x00
000018 940c 0000 	JMP  0x00
00001a 940c 0000 	JMP  0x00
00001c 940c 0000 	JMP  0x00
00001e 940c 0000 	JMP  0x00
000020 940c 0000 	JMP  0x00
000022 940c 0000 	JMP  0x00
000024 940c 0000 	JMP  0x00
000026 940c 0000 	JMP  0x00
000028 940c 0000 	JMP  0x00
00002a 940c 1d41 	JMP  _usart0_rx_isr
00002c 940c 1d00 	JMP  _usart0_tx_isr
00002e 940c 0000 	JMP  0x00
000030 940c 0285 	JMP  _portd_int_isr
000032 940c 0000 	JMP  0x00
000034 940c 0000 	JMP  0x00
000036 940c 0000 	JMP  0x00
000038 940c 0000 	JMP  0x00
00003a 940c 0000 	JMP  0x00
00003c 940c 0260 	JMP  _portc_int_isr
00003e 940c 0000 	JMP  0x00
000040 940c 0000 	JMP  0x00
000042 940c 0000 	JMP  0x00
000044 940c 0000 	JMP  0x00
000046 940c 0000 	JMP  0x00
000048 940c 0000 	JMP  0x00
00004a 940c 0000 	JMP  0x00
00004c 940c 0000 	JMP  0x00
00004e 940c 0000 	JMP  0x00
000050 940c 0000 	JMP  0x00
000052 940c 0000 	JMP  0x00
000054 940c 0000 	JMP  0x00
000056 940c 0000 	JMP  0x00
000058 940c 0000 	JMP  0x00
00005a 940c 0000 	JMP  0x00
00005c 940c 0391 	JMP  _porte_int_isr
00005e 940c 0487 	JMP  _tca1_ovf_isr
000060 940c 0000 	JMP  0x00
000062 940c 0000 	JMP  0x00
000064 940c 0000 	JMP  0x00
000066 940c 0000 	JMP  0x00
000068 940c 0000 	JMP  0x00
00006a 940c 0000 	JMP  0x00
00006c 940c 0000 	JMP  0x00
00006e 940c 0000 	JMP  0x00
000070 940c 0000 	JMP  0x00
000072 940c 0000 	JMP  0x00
000074 940c 0000 	JMP  0x00
000076 940c 0000 	JMP  0x00
000078 940c 0000 	JMP  0x00
00007a 940c 0000 	JMP  0x00
00007c 940c 0000 	JMP  0x00
00007e 940c 0000 	JMP  0x00
000080 940c 0000 	JMP  0x00
                 
                 _crc:
000082 5e00
000083 e2bc
000084 3f61
000085 83dd      	.DB  0x0,0x5E,0xBC,0xE2,0x61,0x3F,0xDD,0x83
000086 9cc2
000087 207e
000088 fda3
000089 411f      	.DB  0xC2,0x9C,0x7E,0x20,0xA3,0xFD,0x1F,0x41
00008a c39d
00008b 7f21
00008c a2fc
00008d 1e40      	.DB  0x9D,0xC3,0x21,0x7F,0xFC,0xA2,0x40,0x1E
00008e 015f
00008f bde3
000090 603e
000091 dc82      	.DB  0x5F,0x1,0xE3,0xBD,0x3E,0x60,0x82,0xDC
000092 7d23
000093 c19f
000094 1c42
000095 a0fe      	.DB  0x23,0x7D,0x9F,0xC1,0x42,0x1C,0xFE,0xA0
000096 bfe1
000097 035d
000098 de80
000099 623c      	.DB  0xE1,0xBF,0x5D,0x3,0x80,0xDE,0x3C,0x62
00009a e0be
00009b 5c02
00009c 81df
00009d 3d63      	.DB  0xBE,0xE0,0x2,0x5C,0xDF,0x81,0x63,0x3D
00009e 227c
00009f 9ec0
0000a0 431d
0000a1 ffa1      	.DB  0x7C,0x22,0xC0,0x9E,0x1D,0x43,0xA1,0xFF
0000a2 1846
0000a3 a4fa
0000a4 7927
0000a5 c59b      	.DB  0x46,0x18,0xFA,0xA4,0x27,0x79,0x9B,0xC5
0000a6 da84
0000a7 6638
0000a8 bbe5
0000a9 0759      	.DB  0x84,0xDA,0x38,0x66,0xE5,0xBB,0x59,0x7
0000aa 85db
0000ab 3967
0000ac e4ba
0000ad 5806      	.DB  0xDB,0x85,0x67,0x39,0xBA,0xE4,0x6,0x58
0000ae 4719
0000af fba5
0000b0 2678
0000b1 9ac4      	.DB  0x19,0x47,0xA5,0xFB,0x78,0x26,0xC4,0x9A
0000b2 3b65
0000b3 87d9
0000b4 5a04
0000b5 e6b8      	.DB  0x65,0x3B,0xD9,0x87,0x4,0x5A,0xB8,0xE6
0000b6 f9a7
0000b7 451b
0000b8 98c6
0000b9 247a      	.DB  0xA7,0xF9,0x1B,0x45,0xC6,0x98,0x7A,0x24
0000ba a6f8
0000bb 1a44
0000bc c799
0000bd 7b25      	.DB  0xF8,0xA6,0x44,0x1A,0x99,0xC7,0x25,0x7B
0000be 643a
0000bf d886
0000c0 055b
0000c1 b9e7      	.DB  0x3A,0x64,0x86,0xD8,0x5B,0x5,0xE7,0xB9
0000c2 d28c
0000c3 6e30
0000c4 b3ed
0000c5 0f51      	.DB  0x8C,0xD2,0x30,0x6E,0xED,0xB3,0x51,0xF
0000c6 104e
0000c7 acf2
0000c8 712f
0000c9 cd93      	.DB  0x4E,0x10,0xF2,0xAC,0x2F,0x71,0x93,0xCD
0000ca 4f11
0000cb f3ad
0000cc 2e70
0000cd 92cc      	.DB  0x11,0x4F,0xAD,0xF3,0x70,0x2E,0xCC,0x92
0000ce 8dd3
0000cf 316f
0000d0 ecb2
0000d1 500e      	.DB  0xD3,0x8D,0x6F,0x31,0xB2,0xEC,0xE,0x50
0000d2 f1af
0000d3 4d13
0000d4 90ce
0000d5 2c72      	.DB  0xAF,0xF1,0x13,0x4D,0xCE,0x90,0x72,0x2C
0000d6 336d
0000d7 8fd1
0000d8 520c
0000d9 eeb0      	.DB  0x6D,0x33,0xD1,0x8F,0xC,0x52,0xB0,0xEE
0000da 6c32
0000db d08e
0000dc 0d53
0000dd b1ef      	.DB  0x32,0x6C,0x8E,0xD0,0x53,0xD,0xEF,0xB1
0000de aef0
0000df 124c
0000e0 cf91
0000e1 732d      	.DB  0xF0,0xAE,0x4C,0x12,0x91,0xCF,0x2D,0x73
0000e2 94ca
0000e3 2876
0000e4 f5ab
0000e5 4917      	.DB  0xCA,0x94,0x76,0x28,0xAB,0xF5,0x17,0x49
0000e6 5608
0000e7 eab4
0000e8 3769
0000e9 8bd5      	.DB  0x8,0x56,0xB4,0xEA,0x69,0x37,0xD5,0x8B
0000ea 0957
0000eb b5eb
0000ec 6836
0000ed d48a      	.DB  0x57,0x9,0xEB,0xB5,0x36,0x68,0x8A,0xD4
0000ee cb95
0000ef 7729
0000f0 aaf4
0000f1 1648      	.DB  0x95,0xCB,0x29,0x77,0xF4,0xAA,0x48,0x16
0000f2 b7e9
0000f3 0b55
0000f4 d688
0000f5 6a34      	.DB  0xE9,0xB7,0x55,0xB,0x88,0xD6,0x34,0x6A
0000f6 752b
0000f7 c997
0000f8 144a
0000f9 a8f6      	.DB  0x2B,0x75,0x97,0xC9,0x4A,0x14,0xF6,0xA8
0000fa 2a74
0000fb 96c8
0000fc 4b15
0000fd f7a9      	.DB  0x74,0x2A,0xC8,0x96,0x15,0x4B,0xA9,0xF7
0000fe e8b6
0000ff 540a
000100 89d7
000101 356b      	.DB  0xB6,0xE8,0xA,0x54,0xD7,0x89,0x6B,0x35
                 
                 _0xC00F6:
000102 8cae
000103 b5b6
000104 49f3
000105 3add      	.DB  0xAE,0x8C,0xB6,0xB5,0xF3,0x49,0xDD,0x3A
000106 41cc
000107 bcd0
000108 e52d
000109 b60a      	.DB  0xCC,0x41,0xD0,0xBC,0x2D,0xE5,0xA,0xB6
00010a 746e
00010b 3b84
00010c 4320
00010d bd87      	.DB  0x6E,0x74,0x84,0x3B,0x20,0x43,0x87,0xBD
00010e e00d
00010f 4021
000110 30a4
000111 c375      	.DB  0xD,0xE0,0x21,0x40,0xA4,0x30,0x75,0xC3
                 _0x2000000:
000112 4e2d
000113 4e41
C:\Users\tpe\Dropbox\CVAVR\scanjet\CNV_HW2_V03\Release\List\CNV_HW2_02.asm(1551): warning: .cseg .db misalignment - padding zero byte
000114 0000      	.DB  0x2D,0x4E,0x41,0x4E,0x0
                 _0x2080060:
C:\Users\tpe\Dropbox\CVAVR\scanjet\CNV_HW2_V03\Release\List\CNV_HW2_02.asm(1553): warning: .cseg .db misalignment - padding zero byte
000115 0001      	.DB  0x1
                 _0x2080000:
000116 4e2d
000117 4e41
000118 4900
000119 464e      	.DB  0x2D,0x4E,0x41,0x4E,0x0,0x49,0x4E,0x46
C:\Users\tpe\Dropbox\CVAVR\scanjet\CNV_HW2_V03\Release\List\CNV_HW2_02.asm(1556): warning: .cseg .db misalignment - padding zero byte
00011a 0000      	.DB  0x0
                 
                 __GLOBAL_INI_TBL:
00011b 0001      	.DW  0x01
00011c 6c03      	.DW  __seed_G104
00011d 022a      	.DW  _0x2080060*2
                 
                 _0xFFFFFFFF:
00011e 0000      	.DW  0
                 
                 #define __GLOBAL_INI_TBL_PRESENT 1
                 
                 __RESET:
00011f 94f8      	CLI
000120 27ee      	CLR  R30
                 
                 ;INTERRUPT VECTORS ARE PLACED AT THE START
                 ;OF THE BOOT SECTION OF THE FLASH
000121 edf8      	LDI  R31,0xD8
000122 e4a0      	LDI  R26,0x40
000123 bff4      	OUT  CCP,R31
000124 93a0 0110 	STS  CPUINT_CTRLA,R26
                 
                 ;CLEAR SRAM
000126 e080      	LDI  R24,LOW(__CLEAR_SRAM_SIZE)
000127 e290      	LDI  R25,HIGH(__CLEAR_SRAM_SIZE)
000128 e0a0      	LDI  R26,LOW(__SRAM_START)
000129 e6b0      	LDI  R27,HIGH(__SRAM_START)
                 __CLEAR_SRAM:
00012a 93ed      	ST   X+,R30
00012b 9701      	SBIW R24,1
00012c f7e9      	BRNE __CLEAR_SRAM
                 
                 ;GLOBAL VARIABLES INITIALIZATION
00012d e3e6      	LDI  R30,LOW(__GLOBAL_INI_TBL*2)
00012e e0f2      	LDI  R31,HIGH(__GLOBAL_INI_TBL*2)
                 __GLOBAL_INI_NEXT:
00012f 9185      	LPM  R24,Z+
000130 9195      	LPM  R25,Z+
000131 9700      	SBIW R24,0
000132 f061      	BREQ __GLOBAL_INI_END
000133 91a5      	LPM  R26,Z+
000134 91b5      	LPM  R27,Z+
000135 9005      	LPM  R0,Z+
000136 9015      	LPM  R1,Z+
000137 01bf      	MOVW R22,R30
000138 01f0      	MOVW R30,R0
                 __GLOBAL_INI_LOOP:
000139 9005      	LPM  R0,Z+
00013a 920d      	ST   X+,R0
00013b 9701      	SBIW R24,1
00013c f7e1      	BRNE __GLOBAL_INI_LOOP
00013d 01fb      	MOVW R30,R22
00013e cff0      	RJMP __GLOBAL_INI_NEXT
                 __GLOBAL_INI_END:
                 
                 ;GPR_GPR0-GPR_GPR3 INITIALIZATION
00013f e0e0      	LDI  R30,__GPR_GPR0_INIT
000140 bbec      	OUT  GPR_GPR0,R30
                 	;__GPR_GPR1_INIT = __GPR_GPR0_INIT
000141 bbed      	OUT  GPR_GPR1,R30
                 	;__GPR_GPR2_INIT = __GPR_GPR0_INIT
000142 bbee      	OUT  GPR_GPR2,R30
                 	;__GPR_GPR3_INIT = __GPR_GPR0_INIT
000143 bbef      	OUT  GPR_GPR3,R30
                 
                 ;HARDWARE STACK POINTER INITIALIZATION
000144 efef      	LDI  R30,LOW(__SRAM_END-__HEAP_SIZE)
000145 bfed      	OUT  SPL,R30
000146 e7ef      	LDI  R30,HIGH(__SRAM_END-__HEAP_SIZE)
000147 bfee      	OUT  SPH,R30
                 
                 ;DATA STACK POINTER INITIALIZATION
000148 e0c0      	LDI  R28,LOW(__SRAM_START+__DSTACK_SIZE)
000149 e6d8      	LDI  R29,HIGH(__SRAM_START+__DSTACK_SIZE)
                 
00014a 940c 014c 	JMP  _main
                 
                 	.ESEG
                 	.ORG 0x00
                 
                 	.DSEG
                 	.ORG 0x6800
                 
                 	.CSEG
                 ;void main(void)
                 ; 0000 004F {
                 
                 	.CSEG
                 _main:
                 ; .FSTART _main
                 ; 0000 0050 // Declare your local variables here
                 ; 0000 0051 unsigned char n;
                 ; 0000 0052 
                 ; 0000 0053 //unsigned char  Buf[] = { 0x02,0x02 ,0xFE ,0x0A ,0x00 ,0x14 ,0x2F ,0x0A ,0x0D ,0x0A ,0x68 ,0x76 ,0x00 ,0x00 ,0xBF ,0x0E ,0x80 ,0x3F ,0x05 ,0x00 };
                 ; 0000 0054 
                 ; 0000 0055 //int Size = sizeof(Buf);
                 ; 0000 0056 //
                 ; 0000 0057 //unsigned char CheckSum = 0;
                 ; 0000 0058 //unsigned char Cnt;
                 ; 0000 0059 //unsigned char tmpBuf;
                 ; 0000 005A //unsigned char Index;
                 ; 0000 005B //unsigned char TmPIndex;
                 ; 0000 005C //unsigned char CRC_or;
                 ; 0000 005D //
                 ; 0000 005E //unsigned char CRCTest;
                 ; 0000 005F //unsigned char RunSYS=0;
                 ; 0000 0060 // Interrupt system initialization
                 ; 0000 0061 // Optimize for speed
                 ; 0000 0062 #pragma optsize-
                 ; 0000 0063 // Make sure the interrupts are disabled
                 ; 0000 0064 #asm("cli")
                 ;	n -> R17
00014c 94f8      	CLI
                 ; 0000 0065 // Round-robin scheduling for level 0 interrupt: Off
                 ; 0000 0066 // The interrupt vectors will be placed at the start of the Application FLASH section
                 ; 0000 0067 n=0;
00014d e010      	LDI  R17,LOW(0)
                 ; 0000 0068 CPU_CCP=CCP_IOREG_gc;
00014e ede8      	LDI  R30,LOW(216)
00014f bfe4      	OUT  0x34,R30
                 ; 0000 0069 CPUINT.CTRLA=n;
000150 9310 0110 	STS  272,R17
                 ; 0000 006A // Restore optimization for size if needed
                 ; 0000 006B #pragma optsize_default
                 ; 0000 006C 
                 ; 0000 006D // The vectors with lower addresses will have
                 ; 0000 006E // higher interrupt level 0 priority (default)
                 ; 0000 006F CPUINT.LVL0PRI=0;
000152 e0e0      	LDI  R30,LOW(0)
000153 93e0 0112 	STS  274,R30
                 ; 0000 0070 
                 ; 0000 0071 // The higher interrupt priority level 1 is not used
                 ; 0000 0072 CPUINT.LVL1VEC=0;
000155 93e0 0113 	STS  275,R30
                 ; 0000 0073 
                 ; 0000 0074 // System clocks initialization
                 ; 0000 0075 system_clocks_init();
000157 940e 0194 	CALL _system_clocks_init
                 ; 0000 0076 
                 ; 0000 0077 // Brown-Out Detector and Voltage Level Monitor initialization
                 ; 0000 0078 // The settings below are applied to the BODCFG fuse
                 ; 0000 0079 // that will be programmed if the
                 ; 0000 007A // Project|Configure|After Build|Action: Program the Chip|Program Fuses
                 ; 0000 007B // menu option is enabled in the IDE
                 ; 0000 007C // BOD operation in Active or Idle modes: Enabled
                 ; 0000 007D // BOD operation in Standby or Power-Down sleep modes: Disabled
                 ; 0000 007E // BOD level: 1,90V
                 ; 0000 007F // BODCFG=0x04
                 ; 0000 0080 
                 ; 0000 0081 // The Multi-Voltage I/O is disabled by programming the
                 ; 0000 0082 // MVSYSCFG bits of the SYSCFG1 fuse to Single-Supply configuration
                 ; 0000 0083 // SYSCFG1=0x10
                 ; 0000 0084 // This setting will be applied if the
                 ; 0000 0085 // Project|Configure|After Build|Action: Program the Chip|Program Fuses
                 ; 0000 0086 // menu option is enabled in the IDE
                 ; 0000 0087 
                 ; 0000 0088 // I/O Ports initialization
                 ; 0000 0089 ports_init();
000159 940e 01b9 	CALL _ports_init
                 ; 0000 008A 
                 ; 0000 008B // Timer/Counter TCA0 initialization
                 ; 0000 008C tca0_init();
00015b 940e 0437 	CALL _tca0_init
                 ; 0000 008D 
                 ; 0000 008E // Timer/Counter TCA1 initialization
                 ; 0000 008F tca1_init();
00015d 940e 0466 	CALL _tca1_init
                 ; 0000 0090 
                 ; 0000 0091 // USART0 initialization
                 ; 0000 0092 usart0_init();
00015f 940e 054e 	CALL _usart0_init
                 ; 0000 0093 
                 ; 0000 0094 // SPI1 initialization
                 ; 0000 0095 spi1_init();
000161 940e 0567 	CALL _spi1_init
                 ; 0000 0096 
                 ; 0000 0097 
                 ; 0000 0098 /*
                 ; 0000 0099 InitRegs();  done with Codevision Wizard
                 ; 0000 009A */
                 ; 0000 009B // see Routine.c
                 ; 0000 009C InitVar();
000163 940e 0585 	CALL _InitVar
                 ; 0000 009D InitStartup();
000165 940e 063f 	CALL _InitStartup
                 ; 0000 009E InitEEprom();   // init EEprom clear if first time
000167 940e 30c3 	CALL _InitEEprom
                 ; 0000 009F Led (4,ON);
000169 e0e4      	LDI  R30,LOW(4)
00016a 93ea      	ST   -Y,R30
00016b e0a1      	LDI  R26,LOW(1)
00016c 940e 066e 	CALL _Led
                 ; 0000 00A0 ResetADCBySW();
00016e 940e 1cdf 	CALL _ResetADCBySW
                 ; 0000 00A1 ADC_CS_LOW;
000170 e0e8      	LDI  R30,LOW(8)
000171 93e0 0446 	STS  1094,R30
                 ; 0000 00A2 //#asm("sei")
                 ; 0000 00A3 set_interrupt_mask(0);	/* Enable interrupt */
000173 e0a0      	LDI  R26,LOW(0)
000174 940e 302f 	CALL _set_interrupt_mask
                 ; 0000 00A4 //    SCI0_SCR = 0x7c;            /* enable rx0/tx0 + rx0 interrupt */
                 ; 0000 00A5 
                 ; 0000 00A6 Led (4,OFF);
000176 e0e4      	LDI  R30,LOW(4)
000177 93ea      	ST   -Y,R30
000178 e0a0      	LDI  R26,LOW(0)
000179 940e 066e 	CALL _Led
                 ; 0000 00A7 CheckEepChannel()   ;
00017b 940e 2eab 	CALL _CheckEepChannel
                 ; 0000 00A8 
                 ; 0000 00A9 while ( TRUE )
                 _0x3:
                 ; 0000 00AA {
                 ; 0000 00AB #asm("wdr"); //KickDog();
00017d 95a8      	WDR
                 ; 0000 00AC /* communication starts here */
                 ; 0000 00AD if ( rx_indx > rx_hndx )
00017e 91e0 6995 	LDS  R30,_rx_hndx
000180 91a0 6994 	LDS  R26,_rx_indx
000182 17ea      	CP   R30,R26
000183 f010      	BRLO PC+3
000184 940c 0190 	JMP _0x6
                 ; 0000 00AE {   /* new char in buffer ? */
                 ; 0000 00AF if ( ReceiveRxPacket() )
000186 940e 1c13 	CALL _ReceiveRxPacket
000188 9730      	SBIW R30,0
000189 f411      	BRNE PC+3
00018a 940c 0190 	JMP _0x7
                 ; 0000 00B0 {
                 ; 0000 00B1 HandleRxPacket() ;          /* Handle here */
00018c 940e 1bd0 	CALL _HandleRxPacket
                 ; 0000 00B2 ResetRxPointer() ;          /* reset pointer */
00018e 940e 1b6f 	CALL _ResetRxPointer
                 ; 0000 00B3 }
                 ; 0000 00B4 }
                 _0x7:
                 ; 0000 00B5 /* AD convert starts here */
                 ; 0000 00B6 CheckConvert();
                 _0x6:
000190 940e 0b3d 	CALL _CheckConvert
                 ; 0000 00B7 }
000192 cfea      	RJMP _0x3
                 _0x5:
                 ; 0000 00B8 }
                 _0x8:
000193 cfff      	RJMP _0x8
                 ; .FEND
                 ;void system_clocks_init(void)
                 ; 0001 0011 {
                 
                 	.CSEG
                 _system_clocks_init:
                 ; .FSTART _system_clocks_init
                 ; 0001 0012 unsigned char n,s;
                 ; 0001 0013 
                 ; 0001 0014 // Optimize for speed
                 ; 0001 0015 #pragma optsize-
                 ; 0001 0016 // Save interrupts enabled/disabled state
                 ; 0001 0017 s=CPU_SREG;
000194 931a      	ST   -Y,R17
000195 930a      	ST   -Y,R16
                 ;	n -> R17
                 ;	s -> R16
000196 b70f      	IN   R16,63
                 ; 0001 0018 // Disable interrupts
                 ; 0001 0019 #asm("cli")
000197 94f8      	CLI
                 ; 0001 001A 
                 ; 0001 001B // Ensure that the external high-frequency clock source
                 ; 0001 001C // is first disabled before modifying its settings
                 ; 0001 001D n=0<<CLKCTRL_ENABLE_bp;
000198 e010      	LDI  R17,LOW(0)
                 ; 0001 001E CPU_CCP=CCP_IOREG_gc;
000199 ede8      	LDI  R30,LOW(216)
00019a bfe4      	OUT  0x34,R30
                 ; 0001 001F CLKCTRL.XOSCHFCTRLA=n;
00019b 9310 0080 	STS  128,R17
                 ; 0001 0020 
                 ; 0001 0021 // Configure the external high-frequency clock source
                 ; 0001 0022 // External source type: External Clock on XTALHF1 Pin
                 ; 0001 0023 n=CLKCTRL_SELHF_EXTCLOCK_gc;
00019d e012      	LDI  R17,LOW(2)
                 ; 0001 0024 CPU_CCP=CCP_IOREG_gc;
00019e bfe4      	OUT  0x34,R30
                 ; 0001 0025 CLKCTRL.XOSCHFCTRLA=n;
00019f 9310 0080 	STS  128,R17
                 ; 0001 0026 
                 ; 0001 0027 // Enable the external high-frequency clock source
                 ; 0001 0028 n|=1<<CLKCTRL_ENABLE_bp;
0001a1 6011      	ORI  R17,LOW(1)
                 ; 0001 0029 CPU_CCP=CCP_IOREG_gc;
0001a2 bfe4      	OUT  0x34,R30
                 ; 0001 002A CLKCTRL.XOSCHFCTRLA=n;
0001a3 9310 0080 	STS  128,R17
                 ; 0001 002B 
                 ; 0001 002C // Main clock source: External Clock
                 ; 0001 002D // Peripheral clock output on CLKOUT (PORTA, Pin 7): Off
                 ; 0001 002E n=CLKCTRL_CLKSEL_EXTCLK_gc | (0<<CLKCTRL_CLKOUT_bp);
0001a5 e013      	LDI  R17,LOW(3)
                 ; 0001 002F CPU_CCP=CCP_IOREG_gc;
0001a6 bfe4      	OUT  0x34,R30
                 ; 0001 0030 CLKCTRL.MCLKCTRLA=n;
0001a7 9310 0060 	STS  96,R17
                 ; 0001 0031 
                 ; 0001 0032 // Main clock prescaler division ratio: 1
                 ; 0001 0033 // CPU and Peripheral clock: 4000,960 kHz
                 ; 0001 0034 n=0;
0001a9 e010      	LDI  R17,LOW(0)
                 ; 0001 0035 CPU_CCP=CCP_IOREG_gc;
0001aa bfe4      	OUT  0x34,R30
                 ; 0001 0036 CLKCTRL.MCLKCTRLB=n;
0001ab 9310 0061 	STS  97,R17
                 ; 0001 0037 
                 ; 0001 0038 // Configure the Clock Failure Detection
                 ; 0001 0039 // CFD interrupt: Disabled
                 ; 0001 003A n=0<<CLKCTRL_CFD_bp;
0001ad e010      	LDI  R17,LOW(0)
                 ; 0001 003B CPU_CCP=CCP_IOREG_gc;
0001ae bfe4      	OUT  0x34,R30
                 ; 0001 003C CLKCTRL.MCLKINTCTRL=n;
0001af 9310 0063 	STS  99,R17
                 ; 0001 003D 
                 ; 0001 003E // Clock source to be monitored for a failure condition: Main Clock
                 ; 0001 003F // CFD enabled
                 ; 0001 0040 n=CLKCTRL_CFDSRC_CLKMAIN_gc | (1<<CLKCTRL_CFDEN_bp);
0001b1 e011      	LDI  R17,LOW(1)
                 ; 0001 0041 CPU_CCP=CCP_IOREG_gc;
0001b2 bfe4      	OUT  0x34,R30
                 ; 0001 0042 CLKCTRL.MCLKCTRLC=n;
0001b3 9310 0062 	STS  98,R17
                 ; 0001 0043 
                 ; 0001 0044 // Restore interrupts enabled/disabled state
                 ; 0001 0045 CPU_SREG=s;
0001b5 bf0f      	OUT  0x3F,R16
                 ; 0001 0046 // Restore optimization for size if needed
                 ; 0001 0047 #pragma optsize_default
                 ; 0001 0048 }
0001b6 9109      	LD   R16,Y+
0001b7 9119      	LD   R17,Y+
0001b8 9508      	RET
                 ; .FEND
                 ;void ports_init(void)
                 ; 0002 0013 {
                 
                 	.CSEG
                 _ports_init:
                 ; .FSTART _ports_init
                 ; 0002 0014 // PORTA initialization
                 ; 0002 0015 // OUT register
                 ; 0002 0016 PORTA.OUT=0x10;
0001b9 e1e0      	LDI  R30,LOW(16)
0001ba 93e0 0404 	STS  1028,R30
                 ; 0002 0017 // Pin0: Input
                 ; 0002 0018 // Pin1: Input
                 ; 0002 0019 // Pin2: Output
                 ; 0002 001A // Pin3: Input
                 ; 0002 001B // Pin4: Output
                 ; 0002 001C // Pin5: Input
                 ; 0002 001D // Pin6: Input
                 ; 0002 001E // Pin7: Output
                 ; 0002 001F PORTA.DIR=0x94;
0001bc e9e4      	LDI  R30,LOW(148)
0001bd 93e0 0400 	STS  1024,R30
                 ; 0002 0020 // Pin0 Inverted: Off
                 ; 0002 0021 // Pin0 Pullup on input: Off
                 ; 0002 0022 // Pin0 Input/Sense configuration: Int. disabled, Inp. buffer enabled
                 ; 0002 0023 // Pin0 Input level: Schmitt Tg.
                 ; 0002 0024 PORTA.PIN0CTRL=(0<<PORT_INVEN_bp) | (0<<PORT_PULLUPEN_bp) | PORT_ISC_INTDISABLE_gc | (0<<PORT_INLVL_bp);
0001bf e0e0      	LDI  R30,LOW(0)
0001c0 93e0 0410 	STS  1040,R30
                 ; 0002 0025 // Pin1 Inverted: Off
                 ; 0002 0026 // Pin1 Pullup on input: Off
                 ; 0002 0027 // Pin1 Input/Sense configuration: Int. disabled, Inp. buffer enabled
                 ; 0002 0028 // Pin1 Input level: Schmitt Tg.
                 ; 0002 0029 PORTA.PIN1CTRL=(0<<PORT_INVEN_bp) | (0<<PORT_PULLUPEN_bp) | PORT_ISC_INTDISABLE_gc | (0<<PORT_INLVL_bp);
0001c2 93e0 0411 	STS  1041,R30
                 ; 0002 002A // Pin2 Inverted: Off
                 ; 0002 002B // Pin2 Pullup on input: Off
                 ; 0002 002C // Pin2 Input/Sense configuration: Int. disabled, Inp. buffer enabled
                 ; 0002 002D // Pin2 Input level: Schmitt Tg.
                 ; 0002 002E PORTA.PIN2CTRL=(0<<PORT_INVEN_bp) | (0<<PORT_PULLUPEN_bp) | PORT_ISC_INTDISABLE_gc | (0<<PORT_INLVL_bp);
0001c4 93e0 0412 	STS  1042,R30
                 ; 0002 002F // Pin3 Inverted: Off
                 ; 0002 0030 // Pin3 Pullup on input: On
                 ; 0002 0031 // Pin3 Input/Sense configuration: Int. disabled, Inp. buffer enabled
                 ; 0002 0032 // Pin3 Input level: Schmitt Tg.
                 ; 0002 0033 PORTA.PIN3CTRL=(0<<PORT_INVEN_bp) | (1<<PORT_PULLUPEN_bp) | PORT_ISC_INTDISABLE_gc | (0<<PORT_INLVL_bp);
0001c6 e0e8      	LDI  R30,LOW(8)
0001c7 93e0 0413 	STS  1043,R30
                 ; 0002 0034 // Pin4 Inverted: Off
                 ; 0002 0035 // Pin4 Pullup on input: Off
                 ; 0002 0036 // Pin4 Input/Sense configuration: Int. disabled, Inp. buffer enabled
                 ; 0002 0037 // Pin4 Input level: Schmitt Tg.
                 ; 0002 0038 PORTA.PIN4CTRL=(0<<PORT_INVEN_bp) | (0<<PORT_PULLUPEN_bp) | PORT_ISC_INTDISABLE_gc | (0<<PORT_INLVL_bp);
0001c9 e0e0      	LDI  R30,LOW(0)
0001ca 93e0 0414 	STS  1044,R30
                 ; 0002 0039 // Pin5 Inverted: Off
                 ; 0002 003A // Pin5 Pullup on input: On
                 ; 0002 003B // Pin5 Input/Sense configuration: Int. disabled, Inp. buffer enabled
                 ; 0002 003C // Pin5 Input level: Schmitt Tg.
                 ; 0002 003D PORTA.PIN5CTRL=(0<<PORT_INVEN_bp) | (1<<PORT_PULLUPEN_bp) | PORT_ISC_INTDISABLE_gc | (0<<PORT_INLVL_bp);
0001cc e0e8      	LDI  R30,LOW(8)
0001cd 93e0 0415 	STS  1045,R30
                 ; 0002 003E // Pin6 Inverted: Off
                 ; 0002 003F // Pin6 Pullup on input: On
                 ; 0002 0040 // Pin6 Input/Sense configuration: Int. disabled, Inp. buffer enabled
                 ; 0002 0041 // Pin6 Input level: Schmitt Tg.
                 ; 0002 0042 PORTA.PIN6CTRL=(0<<PORT_INVEN_bp) | (1<<PORT_PULLUPEN_bp) | PORT_ISC_INTDISABLE_gc | (0<<PORT_INLVL_bp);
0001cf 93e0 0416 	STS  1046,R30
                 ; 0002 0043 // Pin7 Inverted: Off
                 ; 0002 0044 // Pin7 Pullup on input: Off
                 ; 0002 0045 // Pin7 Input/Sense configuration: Int. disabled, Inp. buffer enabled
                 ; 0002 0046 // Pin7 Input level: Schmitt Tg.
                 ; 0002 0047 PORTA.PIN7CTRL=(0<<PORT_INVEN_bp) | (0<<PORT_PULLUPEN_bp) | PORT_ISC_INTDISABLE_gc | (0<<PORT_INLVL_bp);
0001d1 e0e0      	LDI  R30,LOW(0)
0001d2 93e0 0417 	STS  1047,R30
                 ; 0002 0048 
                 ; 0002 0049 // PORTB initialization
                 ; 0002 004A // OUT register
                 ; 0002 004B PORTB.OUT=0x00;
0001d4 93e0 0424 	STS  1060,R30
                 ; 0002 004C // Pin0: Output
                 ; 0002 004D // Pin1: Output
                 ; 0002 004E // Pin2: Output
                 ; 0002 004F // Pin3: Output
                 ; 0002 0050 // Pin4: Output
                 ; 0002 0051 // Pin5: Output
                 ; 0002 0052 // Pin6: Output
                 ; 0002 0053 // Pin7: Output
                 ; 0002 0054 PORTB.DIR=0xFF;
0001d6 efef      	LDI  R30,LOW(255)
0001d7 93e0 0420 	STS  1056,R30
                 ; 0002 0055 // Pin0 Inverted: Off
                 ; 0002 0056 // Pin0 Pullup on input: Off
                 ; 0002 0057 // Pin0 Input/Sense configuration: Int. disabled, Inp. buffer enabled
                 ; 0002 0058 // Pin0 Input level: Schmitt Tg.
                 ; 0002 0059 PORTB.PIN0CTRL=(0<<PORT_INVEN_bp) | (0<<PORT_PULLUPEN_bp) | PORT_ISC_INTDISABLE_gc | (0<<PORT_INLVL_bp);
0001d9 e0e0      	LDI  R30,LOW(0)
0001da 93e0 0430 	STS  1072,R30
                 ; 0002 005A // Pin1 Inverted: Off
                 ; 0002 005B // Pin1 Pullup on input: Off
                 ; 0002 005C // Pin1 Input/Sense configuration: Int. disabled, Inp. buffer enabled
                 ; 0002 005D // Pin1 Input level: Schmitt Tg.
                 ; 0002 005E PORTB.PIN1CTRL=(0<<PORT_INVEN_bp) | (0<<PORT_PULLUPEN_bp) | PORT_ISC_INTDISABLE_gc | (0<<PORT_INLVL_bp);
0001dc 93e0 0431 	STS  1073,R30
                 ; 0002 005F // Pin2 Inverted: Off
                 ; 0002 0060 // Pin2 Pullup on input: Off
                 ; 0002 0061 // Pin2 Input/Sense configuration: Int. disabled, Inp. buffer enabled
                 ; 0002 0062 // Pin2 Input level: Schmitt Tg.
                 ; 0002 0063 PORTB.PIN2CTRL=(0<<PORT_INVEN_bp) | (0<<PORT_PULLUPEN_bp) | PORT_ISC_INTDISABLE_gc | (0<<PORT_INLVL_bp);
0001de 93e0 0432 	STS  1074,R30
                 ; 0002 0064 // Pin3 Inverted: Off
                 ; 0002 0065 // Pin3 Pullup on input: Off
                 ; 0002 0066 // Pin3 Input/Sense configuration: Int. disabled, Inp. buffer enabled
                 ; 0002 0067 // Pin3 Input level: Schmitt Tg.
                 ; 0002 0068 PORTB.PIN3CTRL=(0<<PORT_INVEN_bp) | (0<<PORT_PULLUPEN_bp) | PORT_ISC_INTDISABLE_gc | (0<<PORT_INLVL_bp);
0001e0 93e0 0433 	STS  1075,R30
                 ; 0002 0069 // Pin4 Inverted: Off
                 ; 0002 006A // Pin4 Pullup on input: Off
                 ; 0002 006B // Pin4 Input/Sense configuration: Int. disabled, Inp. buffer enabled
                 ; 0002 006C // Pin4 Input level: Schmitt Tg.
                 ; 0002 006D PORTB.PIN4CTRL=(0<<PORT_INVEN_bp) | (0<<PORT_PULLUPEN_bp) | PORT_ISC_INTDISABLE_gc | (0<<PORT_INLVL_bp);
0001e2 93e0 0434 	STS  1076,R30
                 ; 0002 006E // Pin5 Inverted: Off
                 ; 0002 006F // Pin5 Pullup on input: Off
                 ; 0002 0070 // Pin5 Input/Sense configuration: Int. disabled, Inp. buffer enabled
                 ; 0002 0071 // Pin5 Input level: Schmitt Tg.
                 ; 0002 0072 PORTB.PIN5CTRL=(0<<PORT_INVEN_bp) | (0<<PORT_PULLUPEN_bp) | PORT_ISC_INTDISABLE_gc | (0<<PORT_INLVL_bp);
0001e4 93e0 0435 	STS  1077,R30
                 ; 0002 0073 // Pin6 Inverted: Off
                 ; 0002 0074 // Pin6 Pullup on input: On
                 ; 0002 0075 // Pin6 Input/Sense configuration: Int. disabled, Inp. buffer enabled
                 ; 0002 0076 // Pin6 Input level: Schmitt Tg.
                 ; 0002 0077 PORTB.PIN6CTRL=(0<<PORT_INVEN_bp) | (1<<PORT_PULLUPEN_bp) | PORT_ISC_INTDISABLE_gc | (0<<PORT_INLVL_bp);
0001e6 e0e8      	LDI  R30,LOW(8)
0001e7 93e0 0436 	STS  1078,R30
                 ; 0002 0078 // Pin7 Inverted: Off
                 ; 0002 0079 // Pin7 Pullup on input: On
                 ; 0002 007A // Pin7 Input/Sense configuration: Int. disabled, Inp. buffer enabled
                 ; 0002 007B // Pin7 Input level: Schmitt Tg.
                 ; 0002 007C PORTB.PIN7CTRL=(0<<PORT_INVEN_bp) | (1<<PORT_PULLUPEN_bp) | PORT_ISC_INTDISABLE_gc | (0<<PORT_INLVL_bp);
0001e9 93e0 0437 	STS  1079,R30
                 ; 0002 007D 
                 ; 0002 007E // PORTC initialization
                 ; 0002 007F // OUT register
                 ; 0002 0080 PORTC.OUT=0x08;
0001eb 93e0 0444 	STS  1092,R30
                 ; 0002 0081 // Pin0: Output
                 ; 0002 0082 // Pin1: Input
                 ; 0002 0083 // Pin2: Output
                 ; 0002 0084 // Pin3: Output
                 ; 0002 0085 // Pin4: Input
                 ; 0002 0086 // Pin5: Output
                 ; 0002 0087 // Pin6: Output
                 ; 0002 0088 // Pin7: Output
                 ; 0002 0089 PORTC.DIR=0xED;
0001ed eeed      	LDI  R30,LOW(237)
0001ee 93e0 0440 	STS  1088,R30
                 ; 0002 008A // Pin0 Inverted: Off
                 ; 0002 008B // Pin0 Pullup on input: Off
                 ; 0002 008C // Pin0 Input/Sense configuration: Int. disabled, Inp. buffer enabled
                 ; 0002 008D // Pin0 Input level: Schmitt Tg.
                 ; 0002 008E PORTC.PIN0CTRL=(0<<PORT_INVEN_bp) | (0<<PORT_PULLUPEN_bp) | PORT_ISC_INTDISABLE_gc | (0<<PORT_INLVL_bp);
0001f0 e0e0      	LDI  R30,LOW(0)
0001f1 93e0 0450 	STS  1104,R30
                 ; 0002 008F // Pin1 Inverted: Off
                 ; 0002 0090 // Pin1 Pullup on input: On
                 ; 0002 0091 // Pin1 Input/Sense configuration: Int. disabled, Inp. buffer enabled
                 ; 0002 0092 // Pin1 Input level: Schmitt Tg.
                 ; 0002 0093 PORTC.PIN1CTRL=(0<<PORT_INVEN_bp) | (1<<PORT_PULLUPEN_bp) | PORT_ISC_INTDISABLE_gc | (0<<PORT_INLVL_bp);
0001f3 e0e8      	LDI  R30,LOW(8)
0001f4 93e0 0451 	STS  1105,R30
                 ; 0002 0094 // Pin2 Inverted: Off
                 ; 0002 0095 // Pin2 Pullup on input: Off
                 ; 0002 0096 // Pin2 Input/Sense configuration: Int. disabled, Inp. buffer enabled
                 ; 0002 0097 // Pin2 Input level: Schmitt Tg.
                 ; 0002 0098 PORTC.PIN2CTRL=(0<<PORT_INVEN_bp) | (0<<PORT_PULLUPEN_bp) | PORT_ISC_INTDISABLE_gc | (0<<PORT_INLVL_bp);
0001f6 e0e0      	LDI  R30,LOW(0)
0001f7 93e0 0452 	STS  1106,R30
                 ; 0002 0099 // Pin3 Inverted: Off
                 ; 0002 009A // Pin3 Pullup on input: Off
                 ; 0002 009B // Pin3 Input/Sense configuration: Int. disabled, Inp. buffer enabled
                 ; 0002 009C // Pin3 Input level: Schmitt Tg.
                 ; 0002 009D PORTC.PIN3CTRL=(0<<PORT_INVEN_bp) | (0<<PORT_PULLUPEN_bp) | PORT_ISC_INTDISABLE_gc | (0<<PORT_INLVL_bp);
0001f9 93e0 0453 	STS  1107,R30
                 ; 0002 009E // Pin4 Inverted: Off
                 ; 0002 009F // Pin4 Pullup on input: On
                 ; 0002 00A0 // Pin4 Input/Sense configuration: Int. enabled, Sense falling edge
                 ; 0002 00A1 // Pin4 Input level: Schmitt Tg.
                 ; 0002 00A2 PORTC.PIN4CTRL=(0<<PORT_INVEN_bp) | (1<<PORT_PULLUPEN_bp) | PORT_ISC_FALLING_gc | (0<<PORT_INLVL_bp);
0001fb e0eb      	LDI  R30,LOW(11)
0001fc 93e0 0454 	STS  1108,R30
                 ; 0002 00A3 // Pin5 Inverted: Off
                 ; 0002 00A4 // Pin5 Pullup on input: Off
                 ; 0002 00A5 // Pin5 Input/Sense configuration: Int. disabled, Inp. buffer enabled
                 ; 0002 00A6 // Pin5 Input level: Schmitt Tg.
                 ; 0002 00A7 PORTC.PIN5CTRL=(0<<PORT_INVEN_bp) | (0<<PORT_PULLUPEN_bp) | PORT_ISC_INTDISABLE_gc | (0<<PORT_INLVL_bp);
0001fe e0e0      	LDI  R30,LOW(0)
0001ff 93e0 0455 	STS  1109,R30
                 ; 0002 00A8 // Pin6 Inverted: Off
                 ; 0002 00A9 // Pin6 Pullup on input: Off
                 ; 0002 00AA // Pin6 Input/Sense configuration: Int. disabled, Inp. buffer enabled
                 ; 0002 00AB // Pin6 Input level: Schmitt Tg.
                 ; 0002 00AC PORTC.PIN6CTRL=(0<<PORT_INVEN_bp) | (0<<PORT_PULLUPEN_bp) | PORT_ISC_INTDISABLE_gc | (0<<PORT_INLVL_bp);
000201 93e0 0456 	STS  1110,R30
                 ; 0002 00AD // Pin7 Inverted: Off
                 ; 0002 00AE // Pin7 Pullup on input: Off
                 ; 0002 00AF // Pin7 Input/Sense configuration: Int. disabled, Inp. buffer enabled
                 ; 0002 00B0 // Pin7 Input level: Schmitt Tg.
                 ; 0002 00B1 PORTC.PIN7CTRL=(0<<PORT_INVEN_bp) | (0<<PORT_PULLUPEN_bp) | PORT_ISC_INTDISABLE_gc | (0<<PORT_INLVL_bp);
000203 93e0 0457 	STS  1111,R30
                 ; 0002 00B2 
                 ; 0002 00B3 // PORTD initialization
                 ; 0002 00B4 // OUT register
                 ; 0002 00B5 PORTD.OUT=0x00;
000205 93e0 0464 	STS  1124,R30
                 ; 0002 00B6 // Pin0: Input
                 ; 0002 00B7 // Pin1: Input
                 ; 0002 00B8 // Pin2: Input
                 ; 0002 00B9 // Pin3: Input
                 ; 0002 00BA // Pin4: Input
                 ; 0002 00BB // Pin5: Input
                 ; 0002 00BC // Pin6: Input
                 ; 0002 00BD // Pin7: Input
                 ; 0002 00BE PORTD.DIR=0x00;
000207 93e0 0460 	STS  1120,R30
                 ; 0002 00BF // Pin0 Inverted: Off
                 ; 0002 00C0 // Pin0 Pullup on input: On
                 ; 0002 00C1 // Pin0 Input/Sense configuration: Int. disabled, Inp. buffer enabled
                 ; 0002 00C2 // Pin0 Input level: Schmitt Tg.
                 ; 0002 00C3 PORTD.PIN0CTRL=(0<<PORT_INVEN_bp) | (1<<PORT_PULLUPEN_bp) | PORT_ISC_INTDISABLE_gc | (0<<PORT_INLVL_bp);
000209 e0e8      	LDI  R30,LOW(8)
00020a 93e0 0470 	STS  1136,R30
                 ; 0002 00C4 // Pin1 Inverted: Off
                 ; 0002 00C5 // Pin1 Pullup on input: On
                 ; 0002 00C6 // Pin1 Input/Sense configuration: Int. disabled, Inp. buffer enabled
                 ; 0002 00C7 // Pin1 Input level: Schmitt Tg.
                 ; 0002 00C8 PORTD.PIN1CTRL=(0<<PORT_INVEN_bp) | (1<<PORT_PULLUPEN_bp) | PORT_ISC_INTDISABLE_gc | (0<<PORT_INLVL_bp);
00020c 93e0 0471 	STS  1137,R30
                 ; 0002 00C9 // Pin2 Inverted: Off
                 ; 0002 00CA // Pin2 Pullup on input: On
                 ; 0002 00CB // Pin2 Input/Sense configuration: Int. enabled, Sense falling edge
                 ; 0002 00CC // Pin2 Input level: Schmitt Tg.
                 ; 0002 00CD PORTD.PIN2CTRL=(0<<PORT_INVEN_bp) | (1<<PORT_PULLUPEN_bp) | PORT_ISC_FALLING_gc | (0<<PORT_INLVL_bp);
00020e e0eb      	LDI  R30,LOW(11)
00020f 93e0 0472 	STS  1138,R30
                 ; 0002 00CE // Pin3 Inverted: Off
                 ; 0002 00CF // Pin3 Pullup on input: On
                 ; 0002 00D0 // Pin3 Input/Sense configuration: Int. enabled, Sense falling edge
                 ; 0002 00D1 // Pin3 Input level: Schmitt Tg.
                 ; 0002 00D2 PORTD.PIN3CTRL=(0<<PORT_INVEN_bp) | (1<<PORT_PULLUPEN_bp) | PORT_ISC_FALLING_gc | (0<<PORT_INLVL_bp);
000211 93e0 0473 	STS  1139,R30
                 ; 0002 00D3 // Pin4 Inverted: Off
                 ; 0002 00D4 // Pin4 Pullup on input: On
                 ; 0002 00D5 // Pin4 Input/Sense configuration: Int. enabled, Sense falling edge
                 ; 0002 00D6 // Pin4 Input level: Schmitt Tg.
                 ; 0002 00D7 PORTD.PIN4CTRL=(0<<PORT_INVEN_bp) | (1<<PORT_PULLUPEN_bp) | PORT_ISC_FALLING_gc | (0<<PORT_INLVL_bp);
000213 93e0 0474 	STS  1140,R30
                 ; 0002 00D8 // Pin5 Inverted: Off
                 ; 0002 00D9 // Pin5 Pullup on input: On
                 ; 0002 00DA // Pin5 Input/Sense configuration: Int. enabled, Sense falling edge
                 ; 0002 00DB // Pin5 Input level: Schmitt Tg.
                 ; 0002 00DC PORTD.PIN5CTRL=(0<<PORT_INVEN_bp) | (1<<PORT_PULLUPEN_bp) | PORT_ISC_FALLING_gc | (0<<PORT_INLVL_bp);
000215 93e0 0475 	STS  1141,R30
                 ; 0002 00DD // Pin6 Inverted: Off
                 ; 0002 00DE // Pin6 Pullup on input: On
                 ; 0002 00DF // Pin6 Input/Sense configuration: Int. enabled, Sense falling edge
                 ; 0002 00E0 // Pin6 Input level: Schmitt Tg.
                 ; 0002 00E1 PORTD.PIN6CTRL=(0<<PORT_INVEN_bp) | (1<<PORT_PULLUPEN_bp) | PORT_ISC_FALLING_gc | (0<<PORT_INLVL_bp);
000217 93e0 0476 	STS  1142,R30
                 ; 0002 00E2 // Pin7 Inverted: Off
                 ; 0002 00E3 // Pin7 Pullup on input: On
                 ; 0002 00E4 // Pin7 Input/Sense configuration: Int. enabled, Sense falling edge
                 ; 0002 00E5 // Pin7 Input level: Schmitt Tg.
                 ; 0002 00E6 PORTD.PIN7CTRL=(0<<PORT_INVEN_bp) | (1<<PORT_PULLUPEN_bp) | PORT_ISC_FALLING_gc | (0<<PORT_INLVL_bp);
000219 93e0 0477 	STS  1143,R30
                 ; 0002 00E7 
                 ; 0002 00E8 // PORTE initialization
                 ; 0002 00E9 // OUT register
                 ; 0002 00EA PORTE.OUT=0x00;
00021b e0e0      	LDI  R30,LOW(0)
00021c 93e0 0484 	STS  1156,R30
                 ; 0002 00EB // Pin0: Input
                 ; 0002 00EC // Pin1: Input
                 ; 0002 00ED // Pin2: Input
                 ; 0002 00EE // Pin3: Input
                 ; 0002 00EF // Pin4: Input
                 ; 0002 00F0 // Pin5: Input
                 ; 0002 00F1 // Pin6: Input
                 ; 0002 00F2 // Pin7: Input
                 ; 0002 00F3 PORTE.DIR=0x00;
00021e 93e0 0480 	STS  1152,R30
                 ; 0002 00F4 // Pin0 Inverted: Off
                 ; 0002 00F5 // Pin0 Pullup on input: On
                 ; 0002 00F6 // Pin0 Input/Sense configuration: Int. enabled, Sense falling edge
                 ; 0002 00F7 // Pin0 Input level: Schmitt Tg.
                 ; 0002 00F8 PORTE.PIN0CTRL=(0<<PORT_INVEN_bp) | (1<<PORT_PULLUPEN_bp) | PORT_ISC_FALLING_gc | (0<<PORT_INLVL_bp);
000220 e0eb      	LDI  R30,LOW(11)
000221 93e0 0490 	STS  1168,R30
                 ; 0002 00F9 // Pin1 Inverted: Off
                 ; 0002 00FA // Pin1 Pullup on input: On
                 ; 0002 00FB // Pin1 Input/Sense configuration: Int. enabled, Sense falling edge
                 ; 0002 00FC // Pin1 Input level: Schmitt Tg.
                 ; 0002 00FD PORTE.PIN1CTRL=(0<<PORT_INVEN_bp) | (1<<PORT_PULLUPEN_bp) | PORT_ISC_FALLING_gc | (0<<PORT_INLVL_bp);
000223 93e0 0491 	STS  1169,R30
                 ; 0002 00FE // Pin2 Inverted: Off
                 ; 0002 00FF // Pin2 Pullup on input: On
                 ; 0002 0100 // Pin2 Input/Sense configuration: Int. enabled, Sense falling edge
                 ; 0002 0101 // Pin2 Input level: Schmitt Tg.
                 ; 0002 0102 PORTE.PIN2CTRL=(0<<PORT_INVEN_bp) | (1<<PORT_PULLUPEN_bp) | PORT_ISC_FALLING_gc | (0<<PORT_INLVL_bp);
000225 93e0 0492 	STS  1170,R30
                 ; 0002 0103 // Pin3 Inverted: Off
                 ; 0002 0104 // Pin3 Pullup on input: On
                 ; 0002 0105 // Pin3 Input/Sense configuration: Int. disabled, Inp. buffer enabled
                 ; 0002 0106 // Pin3 Input level: Schmitt Tg.
                 ; 0002 0107 PORTE.PIN3CTRL=(0<<PORT_INVEN_bp) | (1<<PORT_PULLUPEN_bp) | PORT_ISC_INTDISABLE_gc | (0<<PORT_INLVL_bp);
000227 e0e8      	LDI  R30,LOW(8)
000228 93e0 0493 	STS  1171,R30
                 ; 0002 0108 // Pin4 Inverted: Off
                 ; 0002 0109 // Pin4 Pullup on input: On
                 ; 0002 010A // Pin4 Input/Sense configuration: Int. enabled, Sense falling edge
                 ; 0002 010B // Pin4 Input level: Schmitt Tg.
                 ; 0002 010C PORTE.PIN4CTRL=(0<<PORT_INVEN_bp) | (1<<PORT_PULLUPEN_bp) | PORT_ISC_FALLING_gc | (0<<PORT_INLVL_bp);
00022a e0eb      	LDI  R30,LOW(11)
00022b 93e0 0494 	STS  1172,R30
                 ; 0002 010D // Pin5 Inverted: Off
                 ; 0002 010E // Pin5 Pullup on input: On
                 ; 0002 010F // Pin5 Input/Sense configuration: Int. enabled, Sense falling edge
                 ; 0002 0110 // Pin5 Input level: Schmitt Tg.
                 ; 0002 0111 PORTE.PIN5CTRL=(0<<PORT_INVEN_bp) | (1<<PORT_PULLUPEN_bp) | PORT_ISC_FALLING_gc | (0<<PORT_INLVL_bp);
00022d 93e0 0495 	STS  1173,R30
                 ; 0002 0112 // Pin6 Inverted: Off
                 ; 0002 0113 // Pin6 Pullup on input: On
                 ; 0002 0114 // Pin6 Input/Sense configuration: Int. enabled, Sense falling edge
                 ; 0002 0115 // Pin6 Input level: Schmitt Tg.
                 ; 0002 0116 PORTE.PIN6CTRL=(0<<PORT_INVEN_bp) | (1<<PORT_PULLUPEN_bp) | PORT_ISC_FALLING_gc | (0<<PORT_INLVL_bp);
00022f 93e0 0496 	STS  1174,R30
                 ; 0002 0117 // Pin7 Inverted: Off
                 ; 0002 0118 // Pin7 Pullup on input: On
                 ; 0002 0119 // Pin7 Input/Sense configuration: Int. enabled, Sense falling edge
                 ; 0002 011A // Pin7 Input level: Schmitt Tg.
                 ; 0002 011B PORTE.PIN7CTRL=(0<<PORT_INVEN_bp) | (1<<PORT_PULLUPEN_bp) | PORT_ISC_FALLING_gc | (0<<PORT_INLVL_bp);
000231 93e0 0497 	STS  1175,R30
                 ; 0002 011C 
                 ; 0002 011D // PORTF initialization
                 ; 0002 011E // OUT register
                 ; 0002 011F PORTF.OUT=0x00;
000233 e0e0      	LDI  R30,LOW(0)
000234 93e0 04a4 	STS  1188,R30
                 ; 0002 0120 // Pin0: Input
                 ; 0002 0121 // Pin1: Output
                 ; 0002 0122 // Pin2: Output
                 ; 0002 0123 // Pin3: Output
                 ; 0002 0124 // Pin4: Output
                 ; 0002 0125 // Pin5: Output
                 ; 0002 0126 // Pin6: Input
                 ; 0002 0127 PORTF.DIR=0x3E;
000236 e3ee      	LDI  R30,LOW(62)
000237 93e0 04a0 	STS  1184,R30
                 ; 0002 0128 // Pin0 Inverted: Off
                 ; 0002 0129 // Pin0 Pullup on input: On
                 ; 0002 012A // Pin0 Input/Sense configuration: Int. disabled, Inp. buffer enabled
                 ; 0002 012B // Pin0 Input level: Schmitt Tg.
                 ; 0002 012C PORTF.PIN0CTRL=(0<<PORT_INVEN_bp) | (1<<PORT_PULLUPEN_bp) | PORT_ISC_INTDISABLE_gc | (0<<PORT_INLVL_bp);
000239 e0e8      	LDI  R30,LOW(8)
00023a 93e0 04b0 	STS  1200,R30
                 ; 0002 012D // Pin1 Inverted: Off
                 ; 0002 012E // Pin1 Pullup on input: Off
                 ; 0002 012F // Pin1 Input/Sense configuration: Int. disabled, Inp. buffer enabled
                 ; 0002 0130 // Pin1 Input level: Schmitt Tg.
                 ; 0002 0131 PORTF.PIN1CTRL=(0<<PORT_INVEN_bp) | (0<<PORT_PULLUPEN_bp) | PORT_ISC_INTDISABLE_gc | (0<<PORT_INLVL_bp);
00023c e0e0      	LDI  R30,LOW(0)
00023d 93e0 04b1 	STS  1201,R30
                 ; 0002 0132 // Pin2 Inverted: Off
                 ; 0002 0133 // Pin2 Pullup on input: Off
                 ; 0002 0134 // Pin2 Input/Sense configuration: Int. disabled, Inp. buffer enabled
                 ; 0002 0135 // Pin2 Input level: Schmitt Tg.
                 ; 0002 0136 PORTF.PIN2CTRL=(0<<PORT_INVEN_bp) | (0<<PORT_PULLUPEN_bp) | PORT_ISC_INTDISABLE_gc | (0<<PORT_INLVL_bp);
00023f 93e0 04b2 	STS  1202,R30
                 ; 0002 0137 // Pin3 Inverted: Off
                 ; 0002 0138 // Pin3 Pullup on input: Off
                 ; 0002 0139 // Pin3 Input/Sense configuration: Int. disabled, Inp. buffer enabled
                 ; 0002 013A // Pin3 Input level: Schmitt Tg.
                 ; 0002 013B PORTF.PIN3CTRL=(0<<PORT_INVEN_bp) | (0<<PORT_PULLUPEN_bp) | PORT_ISC_INTDISABLE_gc | (0<<PORT_INLVL_bp);
000241 93e0 04b3 	STS  1203,R30
                 ; 0002 013C // Pin4 Inverted: Off
                 ; 0002 013D // Pin4 Pullup on input: Off
                 ; 0002 013E // Pin4 Input/Sense configuration: Int. disabled, Inp. buffer enabled
                 ; 0002 013F // Pin4 Input level: Schmitt Tg.
                 ; 0002 0140 PORTF.PIN4CTRL=(0<<PORT_INVEN_bp) | (0<<PORT_PULLUPEN_bp) | PORT_ISC_INTDISABLE_gc | (0<<PORT_INLVL_bp);
000243 93e0 04b4 	STS  1204,R30
                 ; 0002 0141 // Pin5 Inverted: Off
                 ; 0002 0142 // Pin5 Pullup on input: Off
                 ; 0002 0143 // Pin5 Input/Sense configuration: Int. disabled, Inp. buffer enabled
                 ; 0002 0144 // Pin5 Input level: Schmitt Tg.
                 ; 0002 0145 PORTF.PIN5CTRL=(0<<PORT_INVEN_bp) | (0<<PORT_PULLUPEN_bp) | PORT_ISC_INTDISABLE_gc | (0<<PORT_INLVL_bp);
000245 93e0 04b5 	STS  1205,R30
                 ; 0002 0146 // Pin6 Inverted: Off
                 ; 0002 0147 // Pin6 Pullup on input: Off
                 ; 0002 0148 // Pin6 Input/Sense configuration: Int. disabled, Inp. buffer enabled
                 ; 0002 0149 // Pin6 Input level: Schmitt Tg.
                 ; 0002 014A PORTF.PIN6CTRL=(0<<PORT_INVEN_bp) | (0<<PORT_PULLUPEN_bp) | PORT_ISC_INTDISABLE_gc | (0<<PORT_INLVL_bp);
000247 93e0 04b6 	STS  1206,R30
                 ; 0002 014B 
                 ; 0002 014C // PORTG initialization
                 ; 0002 014D // OUT register
                 ; 0002 014E PORTG.OUT=0x00;
000249 93e0 04c4 	STS  1220,R30
                 ; 0002 014F // Pin0: Output
                 ; 0002 0150 // Pin1: Output
                 ; 0002 0151 // Pin2: Output
                 ; 0002 0152 // Pin3: Output
                 ; 0002 0153 // Pin4: Output
                 ; 0002 0154 // Pin5: Output
                 ; 0002 0155 // Pin6: Output
                 ; 0002 0156 // Pin7: Output
                 ; 0002 0157 PORTG.DIR=0xFF;
00024b efef      	LDI  R30,LOW(255)
00024c 93e0 04c0 	STS  1216,R30
                 ; 0002 0158 // Pin0 Inverted: Off
                 ; 0002 0159 // Pin0 Pullup on input: Off
                 ; 0002 015A // Pin0 Input/Sense configuration: Int. disabled, Inp. buffer enabled
                 ; 0002 015B // Pin0 Input level: Schmitt Tg.
                 ; 0002 015C PORTG.PIN0CTRL=(0<<PORT_INVEN_bp) | (0<<PORT_PULLUPEN_bp) | PORT_ISC_INTDISABLE_gc | (0<<PORT_INLVL_bp);
00024e e0e0      	LDI  R30,LOW(0)
00024f 93e0 04d0 	STS  1232,R30
                 ; 0002 015D // Pin1 Inverted: Off
                 ; 0002 015E // Pin1 Pullup on input: Off
                 ; 0002 015F // Pin1 Input/Sense configuration: Int. disabled, Inp. buffer enabled
                 ; 0002 0160 // Pin1 Input level: Schmitt Tg.
                 ; 0002 0161 PORTG.PIN1CTRL=(0<<PORT_INVEN_bp) | (0<<PORT_PULLUPEN_bp) | PORT_ISC_INTDISABLE_gc | (0<<PORT_INLVL_bp);
000251 93e0 04d1 	STS  1233,R30
                 ; 0002 0162 // Pin2 Inverted: Off
                 ; 0002 0163 // Pin2 Pullup on input: Off
                 ; 0002 0164 // Pin2 Input/Sense configuration: Int. disabled, Inp. buffer enabled
                 ; 0002 0165 // Pin2 Input level: Schmitt Tg.
                 ; 0002 0166 PORTG.PIN2CTRL=(0<<PORT_INVEN_bp) | (0<<PORT_PULLUPEN_bp) | PORT_ISC_INTDISABLE_gc | (0<<PORT_INLVL_bp);
000253 93e0 04d2 	STS  1234,R30
                 ; 0002 0167 // Pin3 Inverted: Off
                 ; 0002 0168 // Pin3 Pullup on input: Off
                 ; 0002 0169 // Pin3 Input/Sense configuration: Int. disabled, Inp. buffer enabled
                 ; 0002 016A // Pin3 Input level: Schmitt Tg.
                 ; 0002 016B PORTG.PIN3CTRL=(0<<PORT_INVEN_bp) | (0<<PORT_PULLUPEN_bp) | PORT_ISC_INTDISABLE_gc | (0<<PORT_INLVL_bp);
000255 93e0 04d3 	STS  1235,R30
                 ; 0002 016C // Pin4 Inverted: Off
                 ; 0002 016D // Pin4 Pullup on input: Off
                 ; 0002 016E // Pin4 Input/Sense configuration: Int. disabled, Inp. buffer enabled
                 ; 0002 016F // Pin4 Input level: Schmitt Tg.
                 ; 0002 0170 PORTG.PIN4CTRL=(0<<PORT_INVEN_bp) | (0<<PORT_PULLUPEN_bp) | PORT_ISC_INTDISABLE_gc | (0<<PORT_INLVL_bp);
000257 93e0 04d4 	STS  1236,R30
                 ; 0002 0171 // Pin5 Inverted: Off
                 ; 0002 0172 // Pin5 Pullup on input: Off
                 ; 0002 0173 // Pin5 Input/Sense configuration: Int. disabled, Inp. buffer enabled
                 ; 0002 0174 // Pin5 Input level: Schmitt Tg.
                 ; 0002 0175 PORTG.PIN5CTRL=(0<<PORT_INVEN_bp) | (0<<PORT_PULLUPEN_bp) | PORT_ISC_INTDISABLE_gc | (0<<PORT_INLVL_bp);
000259 93e0 04d5 	STS  1237,R30
                 ; 0002 0176 // Pin6 Inverted: Off
                 ; 0002 0177 // Pin6 Pullup on input: Off
                 ; 0002 0178 // Pin6 Input/Sense configuration: Int. disabled, Inp. buffer enabled
                 ; 0002 0179 // Pin6 Input level: Schmitt Tg.
                 ; 0002 017A PORTG.PIN6CTRL=(0<<PORT_INVEN_bp) | (0<<PORT_PULLUPEN_bp) | PORT_ISC_INTDISABLE_gc | (0<<PORT_INLVL_bp);
00025b 93e0 04d6 	STS  1238,R30
                 ; 0002 017B // Pin7 Inverted: Off
                 ; 0002 017C // Pin7 Pullup on input: Off
                 ; 0002 017D // Pin7 Input/Sense configuration: Int. disabled, Inp. buffer enabled
                 ; 0002 017E // Pin7 Input level: Schmitt Tg.
                 ; 0002 017F PORTG.PIN7CTRL=(0<<PORT_INVEN_bp) | (0<<PORT_PULLUPEN_bp) | PORT_ISC_INTDISABLE_gc | (0<<PORT_INLVL_bp);
00025d 93e0 04d7 	STS  1239,R30
                 ; 0002 0180 }
00025f 9508      	RET
                 ; .FEND
                 ;interrupt [(31)  ] void portc_int_isr(void)
                 ; 0002 0186 {
                 _portc_int_isr:
                 ; .FSTART _portc_int_isr
000260 93ea      	ST   -Y,R30
000261 b7ef      	IN   R30,SREG
000262 93ea      	ST   -Y,R30
                 ; 0002 0187 // Clear the PORTC interrupt flags
                 ; 0002 0188 // test if Pin4 port C trigger interrupt
                 ; 0002 0189 // DRDY_INTERRUPT_FLAG = 0b00010000 PINC.4
                 ; 0002 018A unsigned char tmp;
                 ; 0002 018B tmp=PORTC.INTFLAGS;
000263 931a      	ST   -Y,R17
                 ;	tmp -> R17
000264 9110 0449 	LDS  R17,1097
                 ; 0002 018C PORTC.INTFLAGS=PORTC.INTFLAGS;
000266 91e0 0449 	LDS  R30,1097
000268 93e0 0449 	STS  1097,R30
                 ; 0002 018D if ( (tmp&DRDY_INTERRUPT_FLAG)==DRDY_INTERRUPT_FLAG)    //
00026a 2fe1      	MOV  R30,R17
00026b 71e0      	ANDI R30,LOW(0x10)
00026c 31e0      	CPI  R30,LOW(0x10)
00026d f011      	BREQ PC+3
00026e 940c 0280 	JMP _0x40003
                 ; 0002 018E {
                 ; 0002 018F // Write your code here
                 ; 0002 0190 if ( ad_mode & 0x20 )
000270 91e0 6bcb 	LDS  R30,_ad_mode
000272 72e0      	ANDI R30,LOW(0x20)
000273 f411      	BRNE PC+3
000274 940c 0280 	JMP _0x40004
                 ; 0002 0191 {                                               /* ok for int */
                 ; 0002 0192 ad_state++ ;                                /* Go to next state */
000276 91e0 6bca 	LDS  R30,_ad_state
000278 5fef      	SUBI R30,-LOW(1)
000279 93e0 6bca 	STS  _ad_state,R30
                 ; 0002 0193 ad_mode &= ~0x20;                           /* int ok, reset flag */
00027b 91e0 6bcb 	LDS  R30,_ad_mode
00027d 7def      	ANDI R30,0xDF
00027e 93e0 6bcb 	STS  _ad_mode,R30
                 ; 0002 0194 }
                 ; 0002 0195 }
                 _0x40004:
                 ; 0002 0196 }
                 _0x40003:
000280 9119      	LD   R17,Y+
000281 91e9      	LD   R30,Y+
000282 bfef      	OUT  SREG,R30
000283 91e9      	LD   R30,Y+
000284 9518      	RETI
                 ; .FEND
                 ;interrupt [(25)  ] void portd_int_isr(void)
                 ; 0002 019A {
                 _portd_int_isr:
                 ; .FSTART _portd_int_isr
000285 938a      	ST   -Y,R24
000286 93aa      	ST   -Y,R26
000287 93ea      	ST   -Y,R30
000288 93fa      	ST   -Y,R31
000289 b7ef      	IN   R30,SREG
00028a 93ea      	ST   -Y,R30
                 ; 0002 019B // Clear the PORTD interrupt flags
                 ; 0002 019C PORTD.INTFLAGS=PORTD.INTFLAGS;
00028b 91e0 0469 	LDS  R30,1129
00028d 93e0 0469 	STS  1129,R30
                 ; 0002 019D 
                 ; 0002 019E // Write your code here
                 ; 0002 019F if (WASHTRAC1 ==1 ^ (washtrac_prev & 0x01))
00028f 91e0 0468 	LDS  R30,1128
000291 78e0      	ANDI R30,LOW(0x80)
000292 e0a0      	LDI  R26,LOW(0)
                +
000293 17ea     +CP R30 , R26
000294 e0e1     +LDI R30 , 1
000295 f409     +BRNE PC + 2
000296 27ee     +CLR R30
                 	__NEB12
000297 e0a1      	LDI  R26,LOW(1)
                +
000298 17ea     +CP R30 , R26
000299 e0e1     +LDI R30 , 1
00029a f009     +BREQ PC + 2
00029b 27ee     +CLR R30
                 	__EQB12
00029c 2fae      	MOV  R26,R30
00029d 91e0 6b6a 	LDS  R30,_washtrac_prev
00029f 70e1      	ANDI R30,LOW(0x1)
0002a0 27ea      	EOR  R30,R26
0002a1 f411      	BRNE PC+3
0002a2 940c 02bc 	JMP _0x40005
                 ; 0002 01A0 {   delay_us (WASHTRAC_DELAY);
                +
0002a4 e087     +LDI R24 , LOW ( 7 )
                +__DELAY_USB_LOOP :
0002a5 958a     +DEC R24
0002a6 f7f1     +BRNE __DELAY_USB_LOOP
                 	__DELAY_USB 7
                 ; 0002 01A1 if ( WASHTRAC1==1)
0002a7 91e0 0468 	LDS  R30,1128
0002a9 78e0      	ANDI R30,LOW(0x80)
0002aa e0a0      	LDI  R26,LOW(0)
                +
0002ab 17ea     +CP R30 , R26
0002ac e0e1     +LDI R30 , 1
0002ad f409     +BRNE PC + 2
0002ae 27ee     +CLR R30
                 	__NEB12
0002af 30e1      	CPI  R30,LOW(0x1)
0002b0 f011      	BREQ PC+3
0002b1 940c 02bc 	JMP _0x40006
                 ; 0002 01A2 washtrac[0] ++;
0002b3 91e0 6b62 	LDS  R30,_washtrac
0002b5 91f0 6b63 	LDS  R31,_washtrac+1
0002b7 9631      	ADIW R30,1
0002b8 93e0 6b62 	STS  _washtrac,R30
0002ba 93f0 6b63 	STS  _washtrac+1,R31
                 ; 0002 01A3 }
                 _0x40006:
                 ; 0002 01A4 if (WASHTRAC2 ==1 ^ (washtrac_prev & 0x02))
                 _0x40005:
0002bc 91e0 0468 	LDS  R30,1128
0002be 74e0      	ANDI R30,LOW(0x40)
0002bf e0a0      	LDI  R26,LOW(0)
                +
0002c0 17ea     +CP R30 , R26
0002c1 e0e1     +LDI R30 , 1
0002c2 f409     +BRNE PC + 2
0002c3 27ee     +CLR R30
                 	__NEB12
0002c4 e0a1      	LDI  R26,LOW(1)
                +
0002c5 17ea     +CP R30 , R26
0002c6 e0e1     +LDI R30 , 1
0002c7 f009     +BREQ PC + 2
0002c8 27ee     +CLR R30
                 	__EQB12
0002c9 2fae      	MOV  R26,R30
0002ca 91e0 6b6a 	LDS  R30,_washtrac_prev
0002cc 70e2      	ANDI R30,LOW(0x2)
0002cd 27ea      	EOR  R30,R26
0002ce f411      	BRNE PC+3
0002cf 940c 02e9 	JMP _0x40007
                 ; 0002 01A5 {   delay_us (WASHTRAC_DELAY);
                +
0002d1 e087     +LDI R24 , LOW ( 7 )
                +__DELAY_USB_LOOP :
0002d2 958a     +DEC R24
0002d3 f7f1     +BRNE __DELAY_USB_LOOP
                 	__DELAY_USB 7
                 ; 0002 01A6 if ( WASHTRAC2==1)
0002d4 91e0 0468 	LDS  R30,1128
0002d6 74e0      	ANDI R30,LOW(0x40)
0002d7 e0a0      	LDI  R26,LOW(0)
                +
0002d8 17ea     +CP R30 , R26
0002d9 e0e1     +LDI R30 , 1
0002da f409     +BRNE PC + 2
0002db 27ee     +CLR R30
                 	__NEB12
0002dc 30e1      	CPI  R30,LOW(0x1)
0002dd f011      	BREQ PC+3
0002de 940c 02e9 	JMP _0x40008
                 ; 0002 01A7 washtrac[1] ++;
                +
0002e0 91e0 6b64+LDS R30 , _washtrac + ( 2 )
0002e2 91f0 6b65+LDS R31 , _washtrac + ( 2 ) + 1
                 	__GETW1MN _washtrac,2
0002e4 9631      	ADIW R30,1
                +
0002e5 93e0 6b64+STS _washtrac + ( 2 ) , R30
0002e7 93f0 6b65+STS _washtrac + ( 2 ) + 1 , R31
                 	__PUTW1MN _washtrac,2
                 ; 0002 01A8 }
                 _0x40008:
                 ; 0002 01A9 if (WASHTRAC3 ==1 ^ (washtrac_prev & 0x04))
                 _0x40007:
0002e9 91e0 0468 	LDS  R30,1128
0002eb 72e0      	ANDI R30,LOW(0x20)
0002ec e0a0      	LDI  R26,LOW(0)
                +
0002ed 17ea     +CP R30 , R26
0002ee e0e1     +LDI R30 , 1
0002ef f409     +BRNE PC + 2
0002f0 27ee     +CLR R30
                 	__NEB12
0002f1 e0a1      	LDI  R26,LOW(1)
                +
0002f2 17ea     +CP R30 , R26
0002f3 e0e1     +LDI R30 , 1
0002f4 f009     +BREQ PC + 2
0002f5 27ee     +CLR R30
                 	__EQB12
0002f6 2fae      	MOV  R26,R30
0002f7 91e0 6b6a 	LDS  R30,_washtrac_prev
0002f9 70e4      	ANDI R30,LOW(0x4)
0002fa 27ea      	EOR  R30,R26
0002fb f411      	BRNE PC+3
0002fc 940c 0316 	JMP _0x40009
                 ; 0002 01AA {   delay_us (WASHTRAC_DELAY);
                +
0002fe e087     +LDI R24 , LOW ( 7 )
                +__DELAY_USB_LOOP :
0002ff 958a     +DEC R24
000300 f7f1     +BRNE __DELAY_USB_LOOP
                 	__DELAY_USB 7
                 ; 0002 01AB if ( WASHTRAC3==1)
000301 91e0 0468 	LDS  R30,1128
000303 72e0      	ANDI R30,LOW(0x20)
000304 e0a0      	LDI  R26,LOW(0)
                +
000305 17ea     +CP R30 , R26
000306 e0e1     +LDI R30 , 1
000307 f409     +BRNE PC + 2
000308 27ee     +CLR R30
                 	__NEB12
000309 30e1      	CPI  R30,LOW(0x1)
00030a f011      	BREQ PC+3
00030b 940c 0316 	JMP _0x4000A
                 ; 0002 01AC washtrac[2] ++;
                +
00030d 91e0 6b66+LDS R30 , _washtrac + ( 4 )
00030f 91f0 6b67+LDS R31 , _washtrac + ( 4 ) + 1
                 	__GETW1MN _washtrac,4
000311 9631      	ADIW R30,1
                +
000312 93e0 6b66+STS _washtrac + ( 4 ) , R30
000314 93f0 6b67+STS _washtrac + ( 4 ) + 1 , R31
                 	__PUTW1MN _washtrac,4
                 ; 0002 01AD }
                 _0x4000A:
                 ; 0002 01AE if (WASHTRAC4 ==1 ^ (washtrac_prev & 0x08))
                 _0x40009:
000316 91e0 0468 	LDS  R30,1128
000318 71e0      	ANDI R30,LOW(0x10)
000319 e0a0      	LDI  R26,LOW(0)
                +
00031a 17ea     +CP R30 , R26
00031b e0e1     +LDI R30 , 1
00031c f409     +BRNE PC + 2
00031d 27ee     +CLR R30
                 	__NEB12
00031e e0a1      	LDI  R26,LOW(1)
                +
00031f 17ea     +CP R30 , R26
000320 e0e1     +LDI R30 , 1
000321 f009     +BREQ PC + 2
000322 27ee     +CLR R30
                 	__EQB12
000323 2fae      	MOV  R26,R30
000324 91e0 6b6a 	LDS  R30,_washtrac_prev
000326 70e8      	ANDI R30,LOW(0x8)
000327 27ea      	EOR  R30,R26
000328 f411      	BRNE PC+3
000329 940c 0343 	JMP _0x4000B
                 ; 0002 01AF {   delay_us (WASHTRAC_DELAY);
                +
00032b e087     +LDI R24 , LOW ( 7 )
                +__DELAY_USB_LOOP :
00032c 958a     +DEC R24
00032d f7f1     +BRNE __DELAY_USB_LOOP
                 	__DELAY_USB 7
                 ; 0002 01B0 if ( WASHTRAC4==1)
00032e 91e0 0468 	LDS  R30,1128
000330 71e0      	ANDI R30,LOW(0x10)
000331 e0a0      	LDI  R26,LOW(0)
                +
000332 17ea     +CP R30 , R26
000333 e0e1     +LDI R30 , 1
000334 f409     +BRNE PC + 2
000335 27ee     +CLR R30
                 	__NEB12
000336 30e1      	CPI  R30,LOW(0x1)
000337 f011      	BREQ PC+3
000338 940c 0343 	JMP _0x4000C
                 ; 0002 01B1 washtrac[3] ++;
                +
00033a 91e0 6b68+LDS R30 , _washtrac + ( 6 )
00033c 91f0 6b69+LDS R31 , _washtrac + ( 6 ) + 1
                 	__GETW1MN _washtrac,6
00033e 9631      	ADIW R30,1
                +
00033f 93e0 6b68+STS _washtrac + ( 6 ) , R30
000341 93f0 6b69+STS _washtrac + ( 6 ) + 1 , R31
                 	__PUTW1MN _washtrac,6
                 ; 0002 01B2 }
                 _0x4000C:
                 ; 0002 01B3 washtrac_prev=0;
                 _0x4000B:
000343 e0e0      	LDI  R30,LOW(0)
000344 93e0 6b6a 	STS  _washtrac_prev,R30
                 ; 0002 01B4 if (WASHTRAC1 ==1)
000346 91e0 0468 	LDS  R30,1128
000348 78e0      	ANDI R30,LOW(0x80)
000349 e0a0      	LDI  R26,LOW(0)
                +
00034a 17ea     +CP R30 , R26
00034b e0e1     +LDI R30 , 1
00034c f409     +BRNE PC + 2
00034d 27ee     +CLR R30
                 	__NEB12
00034e 30e1      	CPI  R30,LOW(0x1)
00034f f011      	BREQ PC+3
000350 940c 0357 	JMP _0x4000D
                 ; 0002 01B5 washtrac_prev|=0x01;
000352 91e0 6b6a 	LDS  R30,_washtrac_prev
000354 60e1      	ORI  R30,1
000355 93e0 6b6a 	STS  _washtrac_prev,R30
                 ; 0002 01B6 if (WASHTRAC2 ==1)
                 _0x4000D:
000357 91e0 0468 	LDS  R30,1128
000359 74e0      	ANDI R30,LOW(0x40)
00035a e0a0      	LDI  R26,LOW(0)
                +
00035b 17ea     +CP R30 , R26
00035c e0e1     +LDI R30 , 1
00035d f409     +BRNE PC + 2
00035e 27ee     +CLR R30
                 	__NEB12
00035f 30e1      	CPI  R30,LOW(0x1)
000360 f011      	BREQ PC+3
000361 940c 0368 	JMP _0x4000E
                 ; 0002 01B7 washtrac_prev|=0x02;
000363 91e0 6b6a 	LDS  R30,_washtrac_prev
000365 60e2      	ORI  R30,2
000366 93e0 6b6a 	STS  _washtrac_prev,R30
                 ; 0002 01B8 if (WASHTRAC3 ==1)
                 _0x4000E:
000368 91e0 0468 	LDS  R30,1128
00036a 72e0      	ANDI R30,LOW(0x20)
00036b e0a0      	LDI  R26,LOW(0)
                +
00036c 17ea     +CP R30 , R26
00036d e0e1     +LDI R30 , 1
00036e f409     +BRNE PC + 2
00036f 27ee     +CLR R30
                 	__NEB12
000370 30e1      	CPI  R30,LOW(0x1)
000371 f011      	BREQ PC+3
000372 940c 0379 	JMP _0x4000F
                 ; 0002 01B9 washtrac_prev|=0x04;
000374 91e0 6b6a 	LDS  R30,_washtrac_prev
000376 60e4      	ORI  R30,4
000377 93e0 6b6a 	STS  _washtrac_prev,R30
                 ; 0002 01BA if (WASHTRAC4 ==1)
                 _0x4000F:
000379 91e0 0468 	LDS  R30,1128
00037b 71e0      	ANDI R30,LOW(0x10)
00037c e0a0      	LDI  R26,LOW(0)
                +
00037d 17ea     +CP R30 , R26
00037e e0e1     +LDI R30 , 1
00037f f409     +BRNE PC + 2
000380 27ee     +CLR R30
                 	__NEB12
000381 30e1      	CPI  R30,LOW(0x1)
000382 f011      	BREQ PC+3
000383 940c 038a 	JMP _0x40010
                 ; 0002 01BB washtrac_prev|=0x08;
000385 91e0 6b6a 	LDS  R30,_washtrac_prev
000387 60e8      	ORI  R30,8
000388 93e0 6b6a 	STS  _washtrac_prev,R30
                 ; 0002 01BC }
                 _0x40010:
00038a 91e9      	LD   R30,Y+
00038b bfef      	OUT  SREG,R30
00038c 91f9      	LD   R31,Y+
00038d 91e9      	LD   R30,Y+
00038e 91a9      	LD   R26,Y+
00038f 9189      	LD   R24,Y+
000390 9518      	RETI
                 ; .FEND
                 ;interrupt [(47)  ] void porte_int_isr(void)
                 ; 0002 01C0 {
                 _porte_int_isr:
                 ; .FSTART _porte_int_isr
000391 93aa      	ST   -Y,R26
000392 93ea      	ST   -Y,R30
000393 b7ef      	IN   R30,SREG
000394 93ea      	ST   -Y,R30
                 ; 0002 01C1 // Clear the PORTE interrupt flags
                 ; 0002 01C2 PORTE.INTFLAGS=PORTE.INTFLAGS;
000395 91e0 0489 	LDS  R30,1161
000397 93e0 0489 	STS  1161,R30
                 ; 0002 01C3 
                 ; 0002 01C4 // Write your code here
                 ; 0002 01C5 highlevel=0;
000399 e0e0      	LDI  R30,LOW(0)
00039a 93e0 6b61 	STS  _highlevel,R30
                 ; 0002 01C6 if ( HIGHLEVEL1 == 1)
00039c 91e0 0488 	LDS  R30,1160
00039e 78e0      	ANDI R30,LOW(0x80)
00039f e0a0      	LDI  R26,LOW(0)
                +
0003a0 17ea     +CP R30 , R26
0003a1 e0e1     +LDI R30 , 1
0003a2 f409     +BRNE PC + 2
0003a3 27ee     +CLR R30
                 	__NEB12
0003a4 30e1      	CPI  R30,LOW(0x1)
0003a5 f011      	BREQ PC+3
0003a6 940c 03ad 	JMP _0x40011
                 ; 0002 01C7 highlevel|=0x01;
0003a8 91e0 6b61 	LDS  R30,_highlevel
0003aa 60e1      	ORI  R30,1
0003ab 93e0 6b61 	STS  _highlevel,R30
                 ; 0002 01C8 if ( HIGHLEVEL2 == 1)
                 _0x40011:
0003ad 91e0 0488 	LDS  R30,1160
0003af 74e0      	ANDI R30,LOW(0x40)
0003b0 e0a0      	LDI  R26,LOW(0)
                +
0003b1 17ea     +CP R30 , R26
0003b2 e0e1     +LDI R30 , 1
0003b3 f409     +BRNE PC + 2
0003b4 27ee     +CLR R30
                 	__NEB12
0003b5 30e1      	CPI  R30,LOW(0x1)
0003b6 f011      	BREQ PC+3
0003b7 940c 03be 	JMP _0x40012
                 ; 0002 01C9 highlevel|=0x02;
0003b9 91e0 6b61 	LDS  R30,_highlevel
0003bb 60e2      	ORI  R30,2
0003bc 93e0 6b61 	STS  _highlevel,R30
                 ; 0002 01CA if ( HIGHLEVEL3 == 1)
                 _0x40012:
0003be 91e0 0488 	LDS  R30,1160
0003c0 72e0      	ANDI R30,LOW(0x20)
0003c1 e0a0      	LDI  R26,LOW(0)
                +
0003c2 17ea     +CP R30 , R26
0003c3 e0e1     +LDI R30 , 1
0003c4 f409     +BRNE PC + 2
0003c5 27ee     +CLR R30
                 	__NEB12
0003c6 30e1      	CPI  R30,LOW(0x1)
0003c7 f011      	BREQ PC+3
0003c8 940c 03cf 	JMP _0x40013
                 ; 0002 01CB highlevel|=0x04;
0003ca 91e0 6b61 	LDS  R30,_highlevel
0003cc 60e4      	ORI  R30,4
0003cd 93e0 6b61 	STS  _highlevel,R30
                 ; 0002 01CC if ( HIGHLEVEL4 == 1)
                 _0x40013:
0003cf 91e0 0488 	LDS  R30,1160
0003d1 71e0      	ANDI R30,LOW(0x10)
0003d2 e0a0      	LDI  R26,LOW(0)
                +
0003d3 17ea     +CP R30 , R26
0003d4 e0e1     +LDI R30 , 1
0003d5 f409     +BRNE PC + 2
0003d6 27ee     +CLR R30
                 	__NEB12
0003d7 30e1      	CPI  R30,LOW(0x1)
0003d8 f011      	BREQ PC+3
0003d9 940c 03e0 	JMP _0x40014
                 ; 0002 01CD highlevel|=0x08;
0003db 91e0 6b61 	LDS  R30,_highlevel
0003dd 60e8      	ORI  R30,8
0003de 93e0 6b61 	STS  _highlevel,R30
                 ; 0002 01CE if ( HIGHLEVEL5 == 1)
                 _0x40014:
0003e0 91e0 0488 	LDS  R30,1160
0003e2 70e8      	ANDI R30,LOW(0x8)
0003e3 e0a0      	LDI  R26,LOW(0)
                +
0003e4 17ea     +CP R30 , R26
0003e5 e0e1     +LDI R30 , 1
0003e6 f409     +BRNE PC + 2
0003e7 27ee     +CLR R30
                 	__NEB12
0003e8 30e1      	CPI  R30,LOW(0x1)
0003e9 f011      	BREQ PC+3
0003ea 940c 03f1 	JMP _0x40015
                 ; 0002 01CF highlevel|=0x10;
0003ec 91e0 6b61 	LDS  R30,_highlevel
0003ee 61e0      	ORI  R30,0x10
0003ef 93e0 6b61 	STS  _highlevel,R30
                 ; 0002 01D0 if ( HIGHLEVEL6 == 1)
                 _0x40015:
0003f1 91e0 0488 	LDS  R30,1160
0003f3 70e4      	ANDI R30,LOW(0x4)
0003f4 e0a0      	LDI  R26,LOW(0)
                +
0003f5 17ea     +CP R30 , R26
0003f6 e0e1     +LDI R30 , 1
0003f7 f409     +BRNE PC + 2
0003f8 27ee     +CLR R30
                 	__NEB12
0003f9 30e1      	CPI  R30,LOW(0x1)
0003fa f011      	BREQ PC+3
0003fb 940c 0402 	JMP _0x40016
                 ; 0002 01D1 highlevel|=0x20;
0003fd 91e0 6b61 	LDS  R30,_highlevel
0003ff 62e0      	ORI  R30,0x20
000400 93e0 6b61 	STS  _highlevel,R30
                 ; 0002 01D2 if ( HIGHLEVEL7 == 1)
                 _0x40016:
000402 91e0 0488 	LDS  R30,1160
000404 70e2      	ANDI R30,LOW(0x2)
000405 e0a0      	LDI  R26,LOW(0)
                +
000406 17ea     +CP R30 , R26
000407 e0e1     +LDI R30 , 1
000408 f409     +BRNE PC + 2
000409 27ee     +CLR R30
                 	__NEB12
00040a 30e1      	CPI  R30,LOW(0x1)
00040b f011      	BREQ PC+3
00040c 940c 0413 	JMP _0x40017
                 ; 0002 01D3 highlevel|=0x40;
00040e 91e0 6b61 	LDS  R30,_highlevel
000410 64e0      	ORI  R30,0x40
000411 93e0 6b61 	STS  _highlevel,R30
                 ; 0002 01D4 if ( HIGHLEVEL8 == 1)
                 _0x40017:
000413 91e0 0488 	LDS  R30,1160
000415 70e1      	ANDI R30,LOW(0x1)
000416 e0a0      	LDI  R26,LOW(0)
                +
000417 17ea     +CP R30 , R26
000418 e0e1     +LDI R30 , 1
000419 f409     +BRNE PC + 2
00041a 27ee     +CLR R30
                 	__NEB12
00041b 30e1      	CPI  R30,LOW(0x1)
00041c f011      	BREQ PC+3
00041d 940c 0424 	JMP _0x40018
                 ; 0002 01D5 highlevel|=0x80;
00041f 91e0 6b61 	LDS  R30,_highlevel
000421 68e0      	ORI  R30,0x80
000422 93e0 6b61 	STS  _highlevel,R30
                 ; 0002 01D6 
                 ; 0002 01D7 }
                 _0x40018:
000424 91e9      	LD   R30,Y+
000425 bfef      	OUT  SREG,R30
000426 91e9      	LD   R30,Y+
000427 91a9      	LD   R26,Y+
000428 9518      	RETI
                 ; .FEND
                 ;void tca_disable(TCA_t *ptca)
                 ; 0003 0010 {
                 
                 	.CSEG
                 _tca_disable:
                 ; .FSTART _tca_disable
                 ; 0003 0011 // Timer/Counter TCA is disabled
                 ; 0003 0012 ptca->SINGLE.CTRLA=0<<TCA_SINGLE_ENABLE_bp;
000429 931a      	ST   -Y,R17
00042a 930a      	ST   -Y,R16
00042b 018d      	MOVW R16,R26
                 ;	*ptca -> R16,R17
00042c e0e0      	LDI  R30,LOW(0)
00042d 93ec      	ST   X,R30
                 ; 0003 0013 // Operate in 16-bit mode
                 ; 0003 0014 ptca->SINGLE.CTRLD=0<<TCA_SINGLE_SPLITM_bp;
00042e 9613      	ADIW R26,3
00042f 93ec      	ST   X,R30
                 ; 0003 0015 // Issue a reset command
                 ; 0003 0016 ptca->SINGLE.CTRLECLR=TCA_SINGLE_CMD_RESET_gc;
000430 01d8      	MOVW R26,R16
000431 9614      	ADIW R26,4
000432 e0ec      	LDI  R30,LOW(12)
000433 93ec      	ST   X,R30
                 ; 0003 0017 }
000434 9109      	LD   R16,Y+
000435 9119      	LD   R17,Y+
000436 9508      	RET
                 ; .FEND
                 ;void tca0_init(void)
                 ; 0003 001B {
                 _tca0_init:
                 ; .FSTART _tca0_init
                 ; 0003 001C // First disable and reset the Timer/Counter TCA0
                 ; 0003 001D // Use 16-bit mode
                 ; 0003 001E tca_disable(&TCA0);
000437 e0a0      	LDI  R26,LOW(2560)
000438 e0ba      	LDI  R27,HIGH(2560)
000439 940e 0429 	CALL _tca_disable
                 ; 0003 001F 
                 ; 0003 0020 // Clock divider: 1
                 ; 0003 0021 // Clock frequency: 4000,960 kHz
                 ; 0003 0022 // TCA0 runs in standby: Off
                 ; 0003 0023 TCA0.SINGLE.CTRLA=TCA_SINGLE_CLKSEL_DIV1_gc+(0<<TCA_SINGLE_RUNSTDBY_bp);
00043b e0e0      	LDI  R30,LOW(0)
00043c 93e0 0a00 	STS  2560,R30
                 ; 0003 0024 
                 ; 0003 0025 // Operating mode: Frequency Generation 16-bit OVF=TOP (CMP0)
                 ; 0003 0026 // Set the waveform outputs configuration:
                 ; 0003 0027 // WO0: Off
                 ; 0003 0028 // WO1: Off
                 ; 0003 0029 // WO2: PORTA, Pin 2
                 ; 0003 002A TCA0.SINGLE.CTRLB=TCA_SINGLE_WGMODE_FRQ_gc+
                 ; 0003 002B (0<<TCA_SINGLE_CMP0EN_bp)+
                 ; 0003 002C (0<<TCA_SINGLE_CMP1EN_bp)+
                 ; 0003 002D (1<<TCA_SINGLE_CMP2EN_bp);
00043e e4e1      	LDI  R30,LOW(65)
00043f 93e0 0a01 	STS  2561,R30
                 ; 0003 002E 
                 ; 0003 002F // Set the waveform outputs mapping
                 ; 0003 0030 PORTMUX.TCAROUTEA=(PORTMUX.TCAROUTEA & (~PORTMUX_TCA0_gm)) | PORTMUX_TCA0_PORTA_gc;
000441 91e0 05e6 	LDS  R30,1510
000443 7fe8      	ANDI R30,LOW(0xF8)
000444 93e0 05e6 	STS  1510,R30
                 ; 0003 0031 // Note: The configuration for the waveform output signals
                 ; 0003 0032 // is set in the ports_init function from ports_init.c
                 ; 0003 0033 
                 ; 0003 0034 // Set the Timer Counter register
                 ; 0003 0035 TCA0.SINGLE.CNT=0x00;
000446 e0e0      	LDI  R30,LOW(0)
000447 e0f0      	LDI  R31,HIGH(0)
000448 93e0 0a20 	STS  2592,R30
00044a 93f0 0a21 	STS  2592+1,R31
                 ; 0003 0036 
                 ; 0003 0037 // In Frequency Generation mode the Timer Compare 0 register sets the
                 ; 0003 0038 // specified frequency for the WO0, WO1, WO2 outputs: 1000 kHz
                 ; 0003 0039 // Obtained frequency: 1000,24 kHz, -0,02 % error
                 ; 0003 003A TCA0.SINGLE.CMP0=0x01;
00044c e0e1      	LDI  R30,LOW(1)
00044d e0f0      	LDI  R31,HIGH(1)
00044e 93e0 0a28 	STS  2600,R30
000450 93f0 0a29 	STS  2600+1,R31
                 ; 0003 003B 
                 ; 0003 003C // The Timer Compare 1 register sets the specified
                 ; 0003 003D // phase for the WO1 output relative to WO0: 0,00
                 ; 0003 003E TCA0.SINGLE.CMP1=0x00;
000452 e0e0      	LDI  R30,LOW(0)
000453 e0f0      	LDI  R31,HIGH(0)
000454 93e0 0a2a 	STS  2602,R30
000456 93f0 0a2b 	STS  2602+1,R31
                 ; 0003 003F 
                 ; 0003 0040 // The Timer Compare 2 register sets the specified
                 ; 0003 0041 // phase for the WO2 output relative to WO0: 50,00
                 ; 0003 0042 TCA0.SINGLE.CMP2=0x00;
000458 93e0 0a2c 	STS  2604,R30
00045a 93f0 0a2d 	STS  2604+1,R31
                 ; 0003 0043 
                 ; 0003 0044 // Set the Event Control register
                 ; 0003 0045 // Event input A: No action
                 ; 0003 0046 // Event input B: No action
                 ; 0003 0047 TCA0.SINGLE.EVCTRL=(0<<TCA_SINGLE_CNTAEI_bp)+(0<<TCA_SINGLE_CNTBEI_bp);
00045c 93e0 0a09 	STS  2569,R30
                 ; 0003 0048 
                 ; 0003 0049 // Set TCA0 interrupts:
                 ; 0003 004A // Overflow interrupt: Off
                 ; 0003 004B // Compare Channel 0 interrupt: Off
                 ; 0003 004C // Compare Channel 1 interrupt: Off
                 ; 0003 004D // Compare Channel 2 interrupt: Off
                 ; 0003 004E TCA0.SINGLE.INTCTRL=
                 ; 0003 004F (0<<TCA_SINGLE_OVF_bp)+
                 ; 0003 0050 (0<<TCA_SINGLE_CMP0_bp)+
                 ; 0003 0051 (0<<TCA_SINGLE_CMP1_bp)+
                 ; 0003 0052 (0<<TCA_SINGLE_CMP2_bp);
00045e 93e0 0a0a 	STS  2570,R30
                 ; 0003 0053 
                 ; 0003 0054 // Initialization finished, enable TCA0
                 ; 0003 0055 TCA0.SINGLE.CTRLA|=TCA_SINGLE_ENABLE_bm;
000460 91e0 0a00 	LDS  R30,2560
000462 60e1      	ORI  R30,1
000463 93e0 0a00 	STS  2560,R30
                 ; 0003 0056 }
000465 9508      	RET
                 ; .FEND
                 ;void tca1_init(void)
                 ; 0003 005A {
                 _tca1_init:
                 ; .FSTART _tca1_init
                 ; 0003 005B // First disable and reset the Timer/Counter TCA1
                 ; 0003 005C // Use 16-bit mode
                 ; 0003 005D tca_disable(&TCA1);
000466 e4a0      	LDI  R26,LOW(2624)
000467 e0ba      	LDI  R27,HIGH(2624)
000468 940e 0429 	CALL _tca_disable
                 ; 0003 005E 
                 ; 0003 005F // Clock divider: 1
                 ; 0003 0060 // Clock frequency: 4000,960 kHz
                 ; 0003 0061 // TCA1 runs in standby: Off
                 ; 0003 0062 TCA1.SINGLE.CTRLA=TCA_SINGLE_CLKSEL_DIV1_gc+(0<<TCA_SINGLE_RUNSTDBY_bp);
00046a e0e0      	LDI  R30,LOW(0)
00046b 93e0 0a40 	STS  2624,R30
                 ; 0003 0063 
                 ; 0003 0064 // Operating mode: Normal 16-bit OVF=TOP
                 ; 0003 0065 TCA1.SINGLE.CTRLB=TCA_SINGLE_WGMODE_NORMAL_gc;
00046d 93e0 0a41 	STS  2625,R30
                 ; 0003 0066 
                 ; 0003 0067 // Set the Timer Counter register
                 ; 0003 0068 TCA1.SINGLE.CNT=0x00;
00046f e0e0      	LDI  R30,LOW(0)
000470 e0f0      	LDI  R31,HIGH(0)
000471 93e0 0a60 	STS  2656,R30
000473 93f0 0a61 	STS  2656+1,R31
                 ; 0003 0069 
                 ; 0003 006A // Set the Timer Period register
                 ; 0003 006B // Specified period: 1 ms
                 ; 0003 006C // Obtained: 1,00001 ms, 0,00 % error
                 ; 0003 006D TCA1.SINGLE.PER=0xFA0;
000475 eae0      	LDI  R30,LOW(4000)
000476 e0ff      	LDI  R31,HIGH(4000)
000477 93e0 0a66 	STS  2662,R30
000479 93f0 0a67 	STS  2662+1,R31
                 ; 0003 006E 
                 ; 0003 006F // Set the Event Control register
                 ; 0003 0070 // Event input A: No action
                 ; 0003 0071 // Event input B: No action
                 ; 0003 0072 TCA1.SINGLE.EVCTRL=(0<<TCA_SINGLE_CNTAEI_bp)+(0<<TCA_SINGLE_CNTBEI_bp);
00047b e0e0      	LDI  R30,LOW(0)
00047c 93e0 0a49 	STS  2633,R30
                 ; 0003 0073 
                 ; 0003 0074 // Set TCA1 interrupts:
                 ; 0003 0075 // Overflow interrupt: On
                 ; 0003 0076 // Compare Channel 0 interrupt: Off
                 ; 0003 0077 // Compare Channel 1 interrupt: Off
                 ; 0003 0078 // Compare Channel 2 interrupt: Off
                 ; 0003 0079 TCA1.SINGLE.INTCTRL=
                 ; 0003 007A (1<<TCA_SINGLE_OVF_bp)+
                 ; 0003 007B (0<<TCA_SINGLE_CMP0_bp)+
                 ; 0003 007C (0<<TCA_SINGLE_CMP1_bp)+
                 ; 0003 007D (0<<TCA_SINGLE_CMP2_bp);
00047e e0e1      	LDI  R30,LOW(1)
00047f 93e0 0a4a 	STS  2634,R30
                 ; 0003 007E 
                 ; 0003 007F // Initialization finished, enable TCA1
                 ; 0003 0080 TCA1.SINGLE.CTRLA|=TCA_SINGLE_ENABLE_bm;
000481 91e0 0a40 	LDS  R30,2624
000483 60e1      	ORI  R30,1
000484 93e0 0a40 	STS  2624,R30
                 ; 0003 0081 }
000486 9508      	RET
                 ; .FEND
                 ;interrupt [(48)  ] void tca1_ovf_isr(void)
                 ; 0003 0086 {
                 _tca1_ovf_isr:
                 ; .FSTART _tca1_ovf_isr
000487 920a      	ST   -Y,R0
000488 921a      	ST   -Y,R1
000489 92fa      	ST   -Y,R15
00048a 936a      	ST   -Y,R22
00048b 937a      	ST   -Y,R23
00048c 938a      	ST   -Y,R24
00048d 939a      	ST   -Y,R25
00048e 93aa      	ST   -Y,R26
00048f 93ba      	ST   -Y,R27
000490 93ea      	ST   -Y,R30
000491 93fa      	ST   -Y,R31
000492 b7ef      	IN   R30,SREG
000493 93ea      	ST   -Y,R30
                 ; 0003 0087 // Ensure that the Overflow/Underflow interrupt flag is cleared
                 ; 0003 0088 TCA1.SINGLE.INTFLAGS=TCA_SINGLE_OVF_bm;
000494 e0e1      	LDI  R30,LOW(1)
000495 93e0 0a4b 	STS  2635,R30
                 ; 0003 0089 
                 ; 0003 008A // Write your code here
                 ; 0003 008B ms_cnt++;
000497 91e0 6aed 	LDS  R30,_ms_cnt
000499 91f0 6aee 	LDS  R31,_ms_cnt+1
00049b 9631      	ADIW R30,1
00049c 93e0 6aed 	STS  _ms_cnt,R30
00049e 93f0 6aee 	STS  _ms_cnt+1,R31
                 ; 0003 008C 
                 ; 0003 008D if ( ms_delay_cnt ) {                         /* count down 1 ms delay */
0004a0 91e0 6bcc 	LDS  R30,_ms_delay_cnt
0004a2 91f0 6bcd 	LDS  R31,_ms_delay_cnt+1
0004a4 9730      	SBIW R30,0
0004a5 f411      	BRNE PC+3
0004a6 940c 04ad 	JMP _0x60003
                 ; 0003 008E ms_delay_cnt-- ;
0004a8 9731      	SBIW R30,1
0004a9 93e0 6bcc 	STS  _ms_delay_cnt,R30
0004ab 93f0 6bcd 	STS  _ms_delay_cnt+1,R31
                 ; 0003 008F }
                 ; 0003 0090 
                 ; 0003 0091 if ( !--sec_cnt )
                 _0x60003:
0004ad 91e0 6aeb 	LDS  R30,_sec_cnt
0004af 91f0 6aec 	LDS  R31,_sec_cnt+1
0004b1 9731      	SBIW R30,1
0004b2 93e0 6aeb 	STS  _sec_cnt,R30
0004b4 93f0 6aec 	STS  _sec_cnt+1,R31
0004b6 9730      	SBIW R30,0
0004b7 f011      	BREQ PC+3
0004b8 940c 04d2 	JMP _0x60004
                 ; 0003 0092 {               /* counter for 1 sec. */
                 ; 0003 0093 sec_cnt = SEC_CNT_INIT;
0004ba eee8      	LDI  R30,LOW(1000)
0004bb e0f3      	LDI  R31,HIGH(1000)
0004bc 93e0 6aeb 	STS  _sec_cnt,R30
0004be 93f0 6aec 	STS  _sec_cnt+1,R31
                 ; 0003 0094 if ( time_b_cnt ) {           /* timer for temperature readings */
0004c0 91e0 6ae7 	LDS  R30,_time_b_cnt
0004c2 30e0      	CPI  R30,0
0004c3 f411      	BRNE PC+3
0004c4 940c 04c9 	JMP _0x60005
                 ; 0003 0095 time_b_cnt-- ;
0004c6 50e1      	SUBI R30,LOW(1)
0004c7 93e0 6ae7 	STS  _time_b_cnt,R30
                 ; 0003 0096 }
                 ; 0003 0097 if ( time_e_cnt ) {           /* timer for eed check*/
                 _0x60005:
0004c9 91e0 6ae8 	LDS  R30,_time_e_cnt
0004cb 30e0      	CPI  R30,0
0004cc f411      	BRNE PC+3
0004cd 940c 04d2 	JMP _0x60006
                 ; 0003 0098 time_e_cnt-- ;
0004cf 50e1      	SUBI R30,LOW(1)
0004d0 93e0 6ae8 	STS  _time_e_cnt,R30
                 ; 0003 0099 }
                 ; 0003 009A }
                 _0x60006:
                 ; 0003 009B 
                 ; 0003 009C if ( ad_settling ) {                          /* count down ad setling time */
                 _0x60004:
0004d2 91e0 6bce 	LDS  R30,_ad_settling
0004d4 91f0 6bcf 	LDS  R31,_ad_settling+1
0004d6 9730      	SBIW R30,0
0004d7 f411      	BRNE PC+3
0004d8 940c 04e8 	JMP _0x60007
                 ; 0003 009D if ( !--ad_settling ) {
0004da 9731      	SBIW R30,1
0004db 93e0 6bce 	STS  _ad_settling,R30
0004dd 93f0 6bcf 	STS  _ad_settling+1,R31
0004df 9730      	SBIW R30,0
0004e0 f011      	BREQ PC+3
0004e1 940c 04e8 	JMP _0x60008
                 ; 0003 009E ad_mode |= 0x20;                        /* Ok for int 1 */
0004e3 91e0 6bcb 	LDS  R30,_ad_mode
0004e5 62e0      	ORI  R30,0x20
0004e6 93e0 6bcb 	STS  _ad_mode,R30
                 ; 0003 009F }
                 ; 0003 00A0 }
                 _0x60008:
                 ; 0003 00A1 /* timeout ad converter */
                 ; 0003 00A2 if ( ad_timeout_cnt )
                 _0x60007:
0004e8 91e0 6ae9 	LDS  R30,_ad_timeout_cnt
0004ea 91f0 6aea 	LDS  R31,_ad_timeout_cnt+1
0004ec 9730      	SBIW R30,0
0004ed f411      	BRNE PC+3
0004ee 940c 04fe 	JMP _0x60009
                 ; 0003 00A3 {
                 ; 0003 00A4 if ( !--ad_timeout_cnt )
0004f0 9731      	SBIW R30,1
0004f1 93e0 6ae9 	STS  _ad_timeout_cnt,R30
0004f3 93f0 6aea 	STS  _ad_timeout_cnt+1,R31
0004f5 9730      	SBIW R30,0
0004f6 f011      	BREQ PC+3
0004f7 940c 04fe 	JMP _0x6000A
                 ; 0003 00A5 {
                 ; 0003 00A6 ad_state = IDLE ;
0004f9 e0e7      	LDI  R30,LOW(7)
0004fa 93e0 6bca 	STS  _ad_state,R30
                 ; 0003 00A7 ResetADCBySW() ;
0004fc 940e 1cdf 	CALL _ResetADCBySW
                 ; 0003 00A8 }
                 ; 0003 00A9 }
                 _0x6000A:
                 ; 0003 00AA 
                 ; 0003 00AB if ( rx_timeout ) {                               /* check timeout on tx0  */
                 _0x60009:
0004fe 91e0 6999 	LDS  R30,_rx_timeout
000500 30e0      	CPI  R30,0
000501 f411      	BRNE PC+3
000502 940c 050d 	JMP _0x6000B
                 ; 0003 00AC if ( !--rx_timeout )
000504 50e1      	SUBI R30,LOW(1)
000505 93e0 6999 	STS  _rx_timeout,R30
000507 30e0      	CPI  R30,0
000508 f011      	BREQ PC+3
000509 940c 050d 	JMP _0x6000C
                 ; 0003 00AD {
                 ; 0003 00AE ResetRxPointer();
00050b 940e 1b6f 	CALL _ResetRxPointer
                 ; 0003 00AF }
                 ; 0003 00B0 }
                 _0x6000C:
                 ; 0003 00B1 
                 ; 0003 00B2 
                 ; 0003 00B3 if ( tx_tail ) {                                  /* check tx0 driver */
                 _0x6000B:
00050d 91e0 6992 	LDS  R30,_tx_tail
00050f 30e0      	CPI  R30,0
000510 f411      	BRNE PC+3
000511 940c 0527 	JMP _0x6000D
                 ; 0003 00B4 if ( !--tx_tail ) {
000513 50e1      	SUBI R30,LOW(1)
000514 93e0 6992 	STS  _tx_tail,R30
000516 30e0      	CPI  R30,0
000517 f011      	BREQ PC+3
000518 940c 0527 	JMP _0x6000E
                 ; 0003 00B5 TxDriver(OFF);
00051a e0a0      	LDI  R26,LOW(0)
00051b 940e 06ec 	CALL _TxDriver
                 ; 0003 00B6 tx_complete = TRUE;
00051d e0e1      	LDI  R30,LOW(1)
00051e 93e0 6bec 	STS  _tx_complete,R30
                 ; 0003 00B7 ResetRxPointer() ;          /* reset pointer */
000520 940e 1b6f 	CALL _ResetRxPointer
                 ; 0003 00B8 Led(1, OFF) ;
000522 e0e1      	LDI  R30,LOW(1)
000523 93ea      	ST   -Y,R30
000524 e0a0      	LDI  R26,LOW(0)
000525 940e 066e 	CALL _Led
                 ; 0003 00B9 }
                 ; 0003 00BA }
                 _0x6000E:
                 ; 0003 00BB 
                 ; 0003 00BC if ( wait_for_pc ) {                          /* delay before sending ch0 */
                 _0x6000D:
000527 91e0 6993 	LDS  R30,_wait_for_pc
000529 30e0      	CPI  R30,0
00052a f411      	BRNE PC+3
00052b 940c 0540 	JMP _0x6000F
                 ; 0003 00BD ad_mode |= 0x01 ;                /* mark that byte as sent */
00052d 91e0 6bcb 	LDS  R30,_ad_mode
00052f 60e1      	ORI  R30,1
000530 93e0 6bcb 	STS  _ad_mode,R30
                 ; 0003 00BE if ( !--wait_for_pc )
000532 91e0 6993 	LDS  R30,_wait_for_pc
000534 50e1      	SUBI R30,LOW(1)
000535 93e0 6993 	STS  _wait_for_pc,R30
000537 30e0      	CPI  R30,0
000538 f011      	BREQ PC+3
000539 940c 0540 	JMP _0x60010
                 ; 0003 00BF {
                 ; 0003 00C0 //            SCI0_TDR = tx_buff[tx_indx++];
                 ; 0003 00C1 //            SCI0_SSR &= ~SSR_TDRE;              /* clear TDRE-flag */
                 ; 0003 00C2 //            SCI0_SCR |= SCR_TIE;                    /*  enable  tx int */
                 ; 0003 00C3 Led(1, ON) ;
00053b e0e1      	LDI  R30,LOW(1)
00053c 93ea      	ST   -Y,R30
00053d e0a1      	LDI  R26,LOW(1)
00053e 940e 066e 	CALL _Led
                 ; 0003 00C4 }
                 ; 0003 00C5 }
                 _0x60010:
                 ; 0003 00C6 }
                 _0x6000F:
000540 91e9      	LD   R30,Y+
000541 bfef      	OUT  SREG,R30
000542 91f9      	LD   R31,Y+
000543 91e9      	LD   R30,Y+
000544 91b9      	LD   R27,Y+
000545 91a9      	LD   R26,Y+
000546 9199      	LD   R25,Y+
000547 9189      	LD   R24,Y+
000548 9179      	LD   R23,Y+
000549 9169      	LD   R22,Y+
00054a 90f9      	LD   R15,Y+
00054b 9019      	LD   R1,Y+
00054c 9009      	LD   R0,Y+
00054d 9518      	RETI
                 ; .FEND
                 ;void usart0_init(void)
                 ; 0004 0013 {
                 
                 	.CSEG
                 _usart0_init:
                 ; .FSTART _usart0_init
                 ; 0004 0014 // Note: The correct PORTA direction for the USART signals
                 ; 0004 0015 // is configured in the ports_init function.
                 ; 0004 0016 
                 ; 0004 0017 // The USART0 signals are remapped:
                 ; 0004 0018 // RxD: PORTA.5, TxD: PORTA.4
                 ; 0004 0019 PORTMUX.USARTROUTEA=(PORTMUX.USARTROUTEA & ~PORTMUX_USART0_gm) | (1<<PORTMUX_USART0_gp);
00054e 91e0 05e2 	LDS  R30,1506
000550 7fec      	ANDI R30,LOW(0xFC)
000551 60e1      	ORI  R30,1
000552 93e0 05e2 	STS  1506,R30
                 ; 0004 001A 
                 ; 0004 001B // Transmitter is enabled
                 ; 0004 001C // Set TxD=1
                 ; 0004 001D PORTA.OUTSET=0x10;
000554 e1e0      	LDI  R30,LOW(16)
000555 93e0 0405 	STS  1029,R30
                 ; 0004 001E 
                 ; 0004 001F // Communication mode: Asynchronous USART
                 ; 0004 0020 // USART0 Mode: Asynchronous USART
                 ; 0004 0021 // Data bits: 8
                 ; 0004 0022 // Stop bits: 1
                 ; 0004 0023 // Parity: Disabled
                 ; 0004 0024 USART0.CTRLC=USART_CMODE_ASYNCHRONOUS_gc | USART_PMODE_DISABLED_gc | USART_SBMODE_1BIT_gc | USART_CHSIZE_8BIT_gc;
000557 e0e3      	LDI  R30,LOW(3)
000558 93e0 0807 	STS  2055,R30
                 ; 0004 0025 
                 ; 0004 0026 // Receive complete interrupt: On
                 ; 0004 0027 // Note: The transmitter Data Register Empty interrupt will be enabled later
                 ; 0004 0028 // RS485 Mode: TxD buffer direction is controlled externally
                 ; 0004 0029 USART0.CTRLA=(1<<USART_RXCIE_bp) | USART_RS485_EXT_gc;
00055a e8e1      	LDI  R30,LOW(129)
00055b 93e0 0805 	STS  2053,R30
                 ; 0004 002A 
                 ; 0004 002B // Required Baud rate: 9600
                 ; 0004 002C // Real Baud Rate: 9600,4 (x1 Mode), Error: 0,0 %
                 ; 0004 002D USART0.BAUD=0x0683;
00055d e8e3      	LDI  R30,LOW(1667)
00055e e0f6      	LDI  R31,HIGH(1667)
00055f 93e0 0808 	STS  2056,R30
000561 93f0 0809 	STS  2056+1,R31
                 ; 0004 002E 
                 ; 0004 002F // Receiver: On
                 ; 0004 0030 // Transmitter: On
                 ; 0004 0031 // TxD open drain: Off
                 ; 0004 0032 // Double transmission speed mode: Off
                 ; 0004 0033 // Multi-processor communication mode: Off
                 ; 0004 0034 USART0.CTRLB=(1<<USART_RXEN_bp) | (1<<USART_TXEN_bp) | (0<<USART_ODME_bp) | USART_RXMODE_NORMAL_gc | (0<<USART_MPCM_bp);
000563 ece0      	LDI  R30,LOW(192)
000564 93e0 0806 	STS  2054,R30
                 ; 0004 0035 }
000566 9508      	RET
                 ; .FEND
                 ;char getchar(void)
                 ; 0004 006B {
                 ; 0004 006C char data;
                 ; 0004 006D 
                 ; 0004 006E while (rx_counter_usart0==0);
                 ;	data -> R17
                 ; 0004 006F data=rx_buffer_usart0[rx_rd_index_usart0++];
                 ; 0004 0070 #if RX_BUFFER_SIZE_USART0 != 256
                 ; 0004 0071 if (rx_rd_index_usart0 == RX_BUFFER_SIZE_USART0) rx_rd_index_usart0=0;
                 ; 0004 0072 #endif
                 ; 0004 0073 #asm("cli")
                 ; 0004 0074 --rx_counter_usart0;
                 ; 0004 0075 #asm("sei")
                 ; 0004 0076 return data;
                 ; 0004 0077 }
                 ;void putchar(char c)
                 ; 0004 0096 {
                 ; 0004 0097 while (tx_counter_usart0 == TX_BUFFER_SIZE_USART0);
                 ;	c -> R17
                 ; 0004 0098 #asm("cli")
                 ; 0004 0099 if (tx_counter_usart0 || ((USART0.STATUS & USART_DREIF_bm)==0))
                 ; 0004 009A {
                 ; 0004 009B tx_buffer_usart0[tx_wr_index_usart0++]=c;
                 ; 0004 009C #if TX_BUFFER_SIZE_USART0 != 256
                 ; 0004 009D if (tx_wr_index_usart0 == TX_BUFFER_SIZE_USART0) tx_wr_index_usart0=0;
                 ; 0004 009E #endif
                 ; 0004 009F ++tx_counter_usart0;
                 ; 0004 00A0 }
                 ; 0004 00A1 else
                 ; 0004 00A2 {
                 ; 0004 00A3 USART0.CTRLA|=USART_DREIE_bm;
                 ; 0004 00A4 USART0.TXDATAL=c;
                 ; 0004 00A5 }
                 ; 0004 00A6 #asm("sei")
                 ; 0004 00A7 }
                 ;void spi1_init(void)
                 ; 0005 000F {
                 
                 	.CSEG
                 _spi1_init:
                 ; .FSTART _spi1_init
                 ; 0005 0010 // The SPI1 signals are not remapped:
                 ; 0005 0011 // MOSI: PORTC.0, MISO: PORTC.1, SCK: PORTC.2, /SS: PORTC.3
                 ; 0005 0012 PORTMUX.SPIROUTEA&= ~PORTMUX_SPI1_gm;
000567 91e0 05e4 	LDS  R30,1508
000569 7fe3      	ANDI R30,LOW(0xF3)
00056a 93e0 05e4 	STS  1508,R30
                 ; 0005 0013 // Note: The MOSI (PORTC, Pin 0), SCK (PORTC, Pin 2) and /SS (PORTC, Pin 3)
                 ; 0005 0014 // signals are configured as outputs in the ports_init function.
                 ; 0005 0015 
                 ; 0005 0016 // SPI1 is enabled
                 ; 0005 0017 // SPI mode: 3
                 ; 0005 0018 // Operating as: Master
                 ; 0005 0019 // Data order: MSB First
                 ; 0005 001A // SCK clock prescaler: 128
                 ; 0005 001B // SCK clock doubled: Off
                 ; 0005 001C // SCK clock frequency: 31,257 kHz
                 ; 0005 001D SPI1.CTRLA=SPI_ENABLE_bm | (1<<SPI_MASTER_bp) | (0<<SPI_DORD_bp) |
                 ; 0005 001E SPI_PRESC_DIV128_gc | (0<<SPI_CLK2X_bp);
00056c e2e7      	LDI  R30,LOW(39)
00056d 93e0 0960 	STS  2400,R30
                 ; 0005 001F 
                 ; 0005 0020 // SPI mode: 3
                 ; 0005 0021 // /SS signal used as chip select: On
                 ; 0005 0022 SPI1.CTRLB=SPI_MODE_3_gc | (0<<SPI_SSD_bp);
00056f e0e3      	LDI  R30,LOW(3)
000570 93e0 0961 	STS  2401,R30
                 ; 0005 0023 
                 ; 0005 0024 // SPI1 interrupt: Off
                 ; 0005 0025 SPI1.INTCTRL=(0<<SPI_IE_bp);
000572 e0e0      	LDI  R30,LOW(0)
000573 93e0 0962 	STS  2402,R30
                 ; 0005 0026 }
000575 9508      	RET
                 ; .FEND
                 ;unsigned char spi1_master_tx_rx(unsigned char c)
                 ; 0005 002D {
                 _spi1_master_tx_rx:
                 ; .FSTART _spi1_master_tx_rx
                 ; 0005 002E // Transmit data in Master mode
                 ; 0005 002F SPI1.DATA=c;
000576 931a      	ST   -Y,R17
000577 2f1a      	MOV  R17,R26
                 ;	c -> R17
000578 9310 0964 	STS  2404,R17
                 ; 0005 0030 // Wait for the data to be transmitted/received
                 ; 0005 0031 while ((SPI1.INTFLAGS & SPI_IF_bm)==0);
                 _0xA0003:
00057a 91e0 0963 	LDS  R30,2403
00057c 78e0      	ANDI R30,LOW(0x80)
00057d f011      	BREQ PC+3
00057e 940c 0581 	JMP _0xA0005
000580 cff9      	RJMP _0xA0003
                 _0xA0005:
                 ; 0005 0032 // Return the received data
                 ; 0005 0033 return SPI1.DATA;
000581 91e0 0964 	LDS  R30,2404
000583 9119      	LD   R17,Y+
000584 9508      	RET
                 ; 0005 0034 }
                 ; .FEND
                 ;void    InitVar(void)
                 ; 0006 00AD {
                 
                 	.CSEG
                 _InitVar:
                 ; .FSTART _InitVar
                 ; 0006 00AE /*************************************************************************
                 ; 0006 00AF *
                 ; 0006 00B0 *	Initialize variables
                 ; 0006 00B1 *
                 ; 0006 00B2 *************************************************************************/
                 ; 0006 00B3 
                 ; 0006 00B4 short i;
                 ; 0006 00B5 /*
                 ; 0006 00B6 **	Init the the com cannal variables
                 ; 0006 00B7 */
                 ; 0006 00B8 tx_indx = 0 ;
000585 931a      	ST   -Y,R17
000586 930a      	ST   -Y,R16
                 ;	i -> R16,R17
000587 e0e0      	LDI  R30,LOW(0)
000588 93e0 6990 	STS  _tx_indx,R30
                 ; 0006 00B9 tx_complete = TRUE ;
00058a e0e1      	LDI  R30,LOW(1)
00058b 93e0 6bec 	STS  _tx_complete,R30
                 ; 0006 00BA tx_bytes = 0 ;
00058d e0e0      	LDI  R30,LOW(0)
00058e 93e0 6991 	STS  _tx_bytes,R30
                 ; 0006 00BB tx_tail = 0 ;
000590 93e0 6992 	STS  _tx_tail,R30
                 ; 0006 00BC wait_for_pc = 0 ;
000592 93e0 6993 	STS  _wait_for_pc,R30
                 ; 0006 00BD rx_indx = 1 ;
000594 e0e1      	LDI  R30,LOW(1)
000595 93e0 6994 	STS  _rx_indx,R30
                 ; 0006 00BE rx_hndx = 1 ;
000597 93e0 6995 	STS  _rx_hndx,R30
                 ; 0006 00BF rx_start = 0 ;
000599 e0e0      	LDI  R30,LOW(0)
00059a 93e0 6996 	STS  _rx_start,R30
                 ; 0006 00C0 rx_buff[0] = 0 ;
00059c 93e0 68c8 	STS  _rx_buff,R30
                 ; 0006 00C1 rx_counter = 0 ;
00059e 93e0 6997 	STS  _rx_counter,R30
                 ; 0006 00C2 rx_state = SYNC ;
0005a0 93e0 6beb 	STS  _rx_state,R30
                 ; 0006 00C3 rx_timeout = 0 ;
0005a2 93e0 6999 	STS  _rx_timeout,R30
                 ; 0006 00C4 
                 ; 0006 00C5 /*
                 ; 0006 00C6 **	Init channel variables
                 ; 0006 00C7 */
                 ; 0006 00C8 for ( i = 0; i< NOIOCH; i += 2 ) {
                +
0005a4 e000     +LDI R16 , LOW ( 0 )
0005a5 e010     +LDI R17 , HIGH ( 0 )
                 	__GETWRN 16,17,0
                 _0xC0004:
                +
0005a6 300e     +CPI R16 , LOW ( 14 )
0005a7 e0e0     +LDI R30 , HIGH ( 14 )
0005a8 071e     +CPC R17 , R30
                 	__CPWRN 16,17,14
0005a9 f010      	BRLO PC+3
0005aa 940c 05b5 	JMP _0xC0005
                 ; 0006 00C9 ch_stat[i] = 0x0c ;         /*channel setup, try pressure */
0005ac eda1      	LDI  R26,LOW(_ch_stat)
0005ad e6bb      	LDI  R27,HIGH(_ch_stat)
0005ae 0fa0      	ADD  R26,R16
0005af 1fb1      	ADC  R27,R17
0005b0 e0ec      	LDI  R30,LOW(12)
0005b1 93ec      	ST   X,R30
                 ; 0006 00CA }
                 _0xC0003:
                +
0005b2 5f0e     +SUBI R16 , LOW ( - 2 )
0005b3 4f1f     +SBCI R17 , HIGH ( - 2 )
                 	__ADDWRN 16,17,2
0005b4 cff1      	RJMP _0xC0004
                 _0xC0005:
                 ; 0006 00CB for ( i = 1; i< NOIOCH; i += 2 ) {
                +
0005b5 e001     +LDI R16 , LOW ( 1 )
0005b6 e010     +LDI R17 , HIGH ( 1 )
                 	__GETWRN 16,17,1
                 _0xC0007:
                +
0005b7 300e     +CPI R16 , LOW ( 14 )
0005b8 e0e0     +LDI R30 , HIGH ( 14 )
0005b9 071e     +CPC R17 , R30
                 	__CPWRN 16,17,14
0005ba f010      	BRLO PC+3
0005bb 940c 05c6 	JMP _0xC0008
                 ; 0006 00CC ch_stat[i] = 0x04 ;         /*channel setup, try temp */
0005bd eda1      	LDI  R26,LOW(_ch_stat)
0005be e6bb      	LDI  R27,HIGH(_ch_stat)
0005bf 0fa0      	ADD  R26,R16
0005c0 1fb1      	ADC  R27,R17
0005c1 e0e4      	LDI  R30,LOW(4)
0005c2 93ec      	ST   X,R30
                 ; 0006 00CD }
                 _0xC0006:
                +
0005c3 5f0e     +SUBI R16 , LOW ( - 2 )
0005c4 4f1f     +SBCI R17 , HIGH ( - 2 )
                 	__ADDWRN 16,17,2
0005c5 cff1      	RJMP _0xC0007
                 _0xC0008:
                 ; 0006 00CE for ( i = 0; i< NOPSD; i++ ) {
                +
0005c6 e000     +LDI R16 , LOW ( 0 )
0005c7 e010     +LDI R17 , HIGH ( 0 )
                 	__GETWRN 16,17,0
                 _0xC000A:
                +
0005c8 3008     +CPI R16 , LOW ( 8 )
0005c9 e0e0     +LDI R30 , HIGH ( 8 )
0005ca 071e     +CPC R17 , R30
                 	__CPWRN 16,17,8
0005cb f010      	BRLO PC+3
0005cc 940c 05d7 	JMP _0xC000B
                 ; 0006 00CF eep_type[i] = 0 ;               /*eeprom status */
0005ce edaf      	LDI  R26,LOW(_eep_type)
0005cf e6bb      	LDI  R27,HIGH(_eep_type)
0005d0 0fa0      	ADD  R26,R16
0005d1 1fb1      	ADC  R27,R17
0005d2 e0e0      	LDI  R30,LOW(0)
0005d3 93ec      	ST   X,R30
                 ; 0006 00D0 }
                 _0xC0009:
                +
0005d4 5f0f     +SUBI R16 , LOW ( - 1 )
0005d5 4f1f     +SBCI R17 , HIGH ( - 1 )
                 	__ADDWRN 16,17,1
0005d6 cff1      	RJMP _0xC000A
                 _0xC000B:
                 ; 0006 00D1 for ( i = 0; i< NOIOCH; i++ ) {
                +
0005d7 e000     +LDI R16 , LOW ( 0 )
0005d8 e010     +LDI R17 , HIGH ( 0 )
                 	__GETWRN 16,17,0
                 _0xC000D:
                +
0005d9 300e     +CPI R16 , LOW ( 14 )
0005da e0e0     +LDI R30 , HIGH ( 14 )
0005db 071e     +CPC R17 , R30
                 	__CPWRN 16,17,14
0005dc f010      	BRLO PC+3
0005dd 940c 05fc 	JMP _0xC000E
                 ; 0006 00D2 offset[i] = 0 ;                         /*channel setup, offest */
0005df 01f8      	MOVW R30,R16
0005e0 eaa3      	LDI  R26,LOW(_offset)
0005e1 e6bb      	LDI  R27,HIGH(_offset)
0005e2 0fee      	LSL  R30
0005e3 1fff      	ROL  R31
0005e4 0fae      	ADD  R26,R30
0005e5 1fbf      	ADC  R27,R31
0005e6 e0e0      	LDI  R30,LOW(0)
0005e7 e0f0      	LDI  R31,HIGH(0)
0005e8 93ed      	ST   X+,R30
0005e9 93fc      	ST   X,R31
                 ; 0006 00D3 gain[i] = 1.0;
0005ea 01f8      	MOVW R30,R16
0005eb e6ab      	LDI  R26,LOW(_gain)
0005ec e6bb      	LDI  R27,HIGH(_gain)
0005ed 940e 3196 	CALL __LSLW2
0005ef 0fae      	ADD  R26,R30
0005f0 1fbf      	ADC  R27,R31
                +
0005f1 e0e0     +LDI R30 , LOW ( 0x3F800000 )
0005f2 e0f0     +LDI R31 , HIGH ( 0x3F800000 )
0005f3 e860     +LDI R22 , BYTE3 ( 0x3F800000 )
0005f4 e37f     +LDI R23 , BYTE4 ( 0x3F800000 )
                 	__GETD1N 0x3F800000
                +
0005f5 93ed     +ST X + , R30
0005f6 93fd     +ST X + , R31
0005f7 936d     +ST X + , R22
0005f8 937c     +ST X , R23
                 	__PUTDP1
                 ; 0006 00D4 }
                 _0xC000C:
                +
0005f9 5f0f     +SUBI R16 , LOW ( - 1 )
0005fa 4f1f     +SBCI R17 , HIGH ( - 1 )
                 	__ADDWRN 16,17,1
0005fb cfdd      	RJMP _0xC000D
                 _0xC000E:
                 ; 0006 00D5 
                 ; 0006 00D6 /*
                 ; 0006 00D7 **	Init other variables
                 ; 0006 00D8 */
                 ; 0006 00D9 
                 ; 0006 00DA cal_gain = 1.0 ;
                +
0005fc e0e0     +LDI R30 , LOW ( 0x3F800000 )
0005fd e0f0     +LDI R31 , HIGH ( 0x3F800000 )
0005fe e860     +LDI R22 , BYTE3 ( 0x3F800000 )
0005ff e37f     +LDI R23 , BYTE4 ( 0x3F800000 )
                 	__GETD1N 0x3F800000
000600 93e0 6bbf 	STS  _cal_gain,R30
000602 93f0 6bc0 	STS  _cal_gain+1,R31
000604 9360 6bc1 	STS  _cal_gain+2,R22
000606 9370 6bc2 	STS  _cal_gain+3,R23
                 ; 0006 00DB cal_zero = 0 ;
000608 93e0 6bc3 	STS  _cal_zero,R30
00060a 93e0 6bc4 	STS  _cal_zero+1,R30
                 ; 0006 00DC p_filter = 5 ;
00060c e0e5      	LDI  R30,LOW(5)
00060d 93e0 6be7 	STS  _p_filter,R30
                 ; 0006 00DD t_filter = 2 ;
00060f e0e2      	LDI  R30,LOW(2)
000610 93e0 6be8 	STS  _t_filter,R30
                 ; 0006 00DE o_filter = 2 ;
000612 93e0 6be9 	STS  _o_filter,R30
                 ; 0006 00DF sec_cnt = SEC_CNT_INIT;                 /* initvalue for 1 sec counter */
000614 eee8      	LDI  R30,LOW(1000)
000615 e0f3      	LDI  R31,HIGH(1000)
000616 93e0 6aeb 	STS  _sec_cnt,R30
000618 93f0 6aec 	STS  _sec_cnt+1,R31
                 ; 0006 00E0 ms_cnt   = 0;
00061a e0e0      	LDI  R30,LOW(0)
00061b 93e0 6aed 	STS  _ms_cnt,R30
00061d 93e0 6aee 	STS  _ms_cnt+1,R30
                 ; 0006 00E1 ad_state = IDLE ;                           /* no convertion */
00061f e0e7      	LDI  R30,LOW(7)
000620 93e0 6bca 	STS  _ad_state,R30
                 ; 0006 00E2 curr_ad_ch = NOIOCH  ;
000622 e0ee      	LDI  R30,LOW(14)
000623 93e0 6bc8 	STS  _curr_ad_ch,R30
                 ; 0006 00E3 ad_mode = 0x88 ;                            /* test mode on and start with press.*/
000625 e8e8      	LDI  R30,LOW(136)
000626 93e0 6bcb 	STS  _ad_mode,R30
                 ; 0006 00E4 ad_mode |= 0x10 ;                           /* mark restart of card */
000628 61e0      	ORI  R30,0x10
000629 93e0 6bcb 	STS  _ad_mode,R30
                 ; 0006 00E5 ad_gain = 0 ;                               /* gain 1 */
00062b e0e0      	LDI  R30,LOW(0)
00062c 93e0 6bd0 	STS  _ad_gain,R30
                 ; 0006 00E6 time_b_temp = 15 ;                      /* temp readings in sec */
00062e e0ef      	LDI  R30,LOW(15)
00062f 93e0 6ae6 	STS  _time_b_temp,R30
                 ; 0006 00E7 time_b_cnt = time_b_temp ;
000631 93e0 6ae7 	STS  _time_b_cnt,R30
                 ; 0006 00E8 time_e_cnt = TIME_BETWEEN_EEP ;
000633 93e0 6ae8 	STS  _time_e_cnt,R30
                 ; 0006 00E9 not_mes_data = 0 ;
000635 e0e0      	LDI  R30,LOW(0)
000636 93e0 6bc5 	STS  _not_mes_data,R30
                 ; 0006 00EA not_raw_data = 0 ;
000638 93e0 6bc6 	STS  _not_raw_data,R30
                 ; 0006 00EB not_cal_data = 0 ;
00063a 93e0 6bc7 	STS  _not_cal_data,R30
                 ; 0006 00EC 
                 ; 0006 00ED 
                 ; 0006 00EE }
00063c 9109      	LD   R16,Y+
00063d 9119      	LD   R17,Y+
00063e 9508      	RET
                 ; .FEND
                 ;void    InitStartup(void)
                 ; 0006 00F1 {
                 _InitStartup:
                 ; .FSTART _InitStartup
                 ; 0006 00F2 
                 ; 0006 00F3 ResetADCByHW();             // CS is low
00063f 940e 1cec 	CALL _ResetADCByHW
                 ; 0006 00F4 //P5DR |= ADCLK ;                             /*	set AD clock line high */
                 ; 0006 00F5 ADC_CLOCK_HIGH;                             /*	set AD clock line high */
000641 e0e4      	LDI  R30,LOW(4)
000642 93e0 0445 	STS  1093,R30
                 ; 0006 00F6 Led(1, OFF) ;                               /* switch leds off */
000644 e0e1      	LDI  R30,LOW(1)
000645 93ea      	ST   -Y,R30
000646 e0a0      	LDI  R26,LOW(0)
000647 940e 066e 	CALL _Led
                 ; 0006 00F7 Led(2, OFF) ;
000649 e0e2      	LDI  R30,LOW(2)
00064a 93ea      	ST   -Y,R30
00064b e0a0      	LDI  R26,LOW(0)
00064c 940e 066e 	CALL _Led
                 ; 0006 00F8 Led(3, OFF) ;
00064e e0e3      	LDI  R30,LOW(3)
00064f 93ea      	ST   -Y,R30
000650 e0a0      	LDI  R26,LOW(0)
000651 940e 066e 	CALL _Led
                 ; 0006 00F9 Led(4, OFF) ;
000653 e0e4      	LDI  R30,LOW(4)
000654 93ea      	ST   -Y,R30
000655 e0a0      	LDI  R26,LOW(0)
000656 940e 066e 	CALL _Led
                 ; 0006 00FA 
                 ; 0006 00FB TxDriver(OFF) ;                             /* tx enable off */
000658 e0a0      	LDI  R26,LOW(0)
000659 940e 06ec 	CALL _TxDriver
                 ; 0006 00FC SetEepromChannel(EEPCHOFF) ;            /* set eeprom channel off */
00065b e0a9      	LDI  R26,LOW(9)
00065c 940e 0709 	CALL _SetEepromChannel
                 ; 0006 00FD SetMuxChannel(MUXCHOFF) ;               /* set mux channel off */
00065e e1a0      	LDI  R26,LOW(16)
00065f 940e 09c2 	CALL _SetMuxChannel
                 ; 0006 00FE SetSupplyChannel(SUPPCHOFF) ;            /* set supply channel off */
000661 e1a0      	LDI  R26,LOW(16)
000662 940e 07a7 	CALL _SetSupplyChannel
                 ; 0006 00FF SetGNDChannel (GNDCHOFF);
000664 e0a9      	LDI  R26,LOW(9)
000665 940e 0926 	CALL _SetGNDChannel
                 ; 0006 0100 SetSupplyCurrent(1);                        /* set 1 mA supply */
000667 e0a1      	LDI  R26,LOW(1)
000668 940e 0b08 	CALL _SetSupplyCurrent
                 ; 0006 0101 
                 ; 0006 0102 //GetMyAddress() ;                            /* get my address */
                 ; 0006 0103 my_address=MYADRESS_LOCAL;
00066a e0e9      	LDI  R30,LOW(9)
00066b 93e0 6bea 	STS  _my_address,R30
                 ; 0006 0104 }
00066d 9508      	RET
                 ; .FEND
                 ;void Led(unsigned char no, unsigned char state)
                 ; 0006 0107 {
                 _Led:
                 ; .FSTART _Led
                 ; 0006 0108 switch ( no )
00066e 931a      	ST   -Y,R17
00066f 930a      	ST   -Y,R16
000670 2f1a      	MOV  R17,R26
000671 810a      	LDD  R16,Y+2
                 ;	no -> R16
                 ;	state -> R17
000672 2fe0      	MOV  R30,R16
000673 e0f0      	LDI  R31,0
                 ; 0006 0109 {
                 ; 0006 010A case    1:                                      /* LED 1 */
000674 30e1      	CPI  R30,LOW(0x1)
000675 e0a0      	LDI  R26,HIGH(0x1)
000676 07fa      	CPC  R31,R26
000677 f011      	BREQ PC+3
000678 940c 068e 	JMP _0xC0012
                 ; 0006 010B switch ( state ) {
00067a 2fe1      	MOV  R30,R17
00067b e0f0      	LDI  R31,0
                 ; 0006 010C case ON :
00067c 30e1      	CPI  R30,LOW(0x1)
00067d e0a0      	LDI  R26,HIGH(0x1)
00067e 07fa      	CPC  R31,R26
00067f f011      	BREQ PC+3
000680 940c 0686 	JMP _0xC0016
                 ; 0006 010D LED1_ON;
000682 e1e0      	LDI  R30,LOW(16)
000683 93e0 0426 	STS  1062,R30
                 ; 0006 010E break ;
000685 c007      	RJMP _0xC0015
                 ; 0006 010F case OFF :
                 _0xC0016:
000686 9730      	SBIW R30,0
000687 f011      	BREQ PC+3
000688 940c 068a 	JMP _0xC0018
                 ; 0006 0110 default :
                 _0xC0018:
                 ; 0006 0111 LED1_OFF;
00068a e1e0      	LDI  R30,LOW(16)
00068b 93e0 0425 	STS  1061,R30
                 ; 0006 0112 break ;
                 ; 0006 0113 }
                 _0xC0015:
                 ; 0006 0114 break ;
00068d c05a      	RJMP _0xC0011
                 ; 0006 0115 
                 ; 0006 0116 case    2:                                      /* LED 2 */
                 _0xC0012:
00068e 30e2      	CPI  R30,LOW(0x2)
00068f e0a0      	LDI  R26,HIGH(0x2)
000690 07fa      	CPC  R31,R26
000691 f011      	BREQ PC+3
000692 940c 06a8 	JMP _0xC0019
                 ; 0006 0117 switch ( state ) {
000694 2fe1      	MOV  R30,R17
000695 e0f0      	LDI  R31,0
                 ; 0006 0118 case ON :
000696 30e1      	CPI  R30,LOW(0x1)
000697 e0a0      	LDI  R26,HIGH(0x1)
000698 07fa      	CPC  R31,R26
000699 f011      	BREQ PC+3
00069a 940c 06a0 	JMP _0xC001D
                 ; 0006 0119 LED2_ON;
00069c e2e0      	LDI  R30,LOW(32)
00069d 93e0 0426 	STS  1062,R30
                 ; 0006 011A break ;
00069f c007      	RJMP _0xC001C
                 ; 0006 011B case OFF :
                 _0xC001D:
0006a0 9730      	SBIW R30,0
0006a1 f011      	BREQ PC+3
0006a2 940c 06a4 	JMP _0xC001F
                 ; 0006 011C default :
                 _0xC001F:
                 ; 0006 011D LED2_OFF;
0006a4 e2e0      	LDI  R30,LOW(32)
0006a5 93e0 0425 	STS  1061,R30
                 ; 0006 011E break ;
                 ; 0006 011F }
                 _0xC001C:
                 ; 0006 0120 break ;
0006a7 c040      	RJMP _0xC0011
                 ; 0006 0121 
                 ; 0006 0122 case 3:
                 _0xC0019:
0006a8 30e3      	CPI  R30,LOW(0x3)
0006a9 e0a0      	LDI  R26,HIGH(0x3)
0006aa 07fa      	CPC  R31,R26
0006ab f011      	BREQ PC+3
0006ac 940c 06c2 	JMP _0xC0020
                 ; 0006 0123 switch ( state ) {
0006ae 2fe1      	MOV  R30,R17
0006af e0f0      	LDI  R31,0
                 ; 0006 0124 case ON :
0006b0 30e1      	CPI  R30,LOW(0x1)
0006b1 e0a0      	LDI  R26,HIGH(0x1)
0006b2 07fa      	CPC  R31,R26
0006b3 f011      	BREQ PC+3
0006b4 940c 06ba 	JMP _0xC0024
                 ; 0006 0125 LED3_ON;
0006b6 e4e0      	LDI  R30,LOW(64)
0006b7 93e0 0426 	STS  1062,R30
                 ; 0006 0126 break ;
0006b9 c007      	RJMP _0xC0023
                 ; 0006 0127 case OFF :
                 _0xC0024:
0006ba 9730      	SBIW R30,0
0006bb f011      	BREQ PC+3
0006bc 940c 06be 	JMP _0xC0026
                 ; 0006 0128 default :
                 _0xC0026:
                 ; 0006 0129 LED3_OFF;
0006be e4e0      	LDI  R30,LOW(64)
0006bf 93e0 0425 	STS  1061,R30
                 ; 0006 012A break ;
                 ; 0006 012B }
                 _0xC0023:
                 ; 0006 012C break ;
0006c1 c026      	RJMP _0xC0011
                 ; 0006 012D 
                 ; 0006 012E 
                 ; 0006 012F case 4:
                 _0xC0020:
0006c2 30e4      	CPI  R30,LOW(0x4)
0006c3 e0a0      	LDI  R26,HIGH(0x4)
0006c4 07fa      	CPC  R31,R26
0006c5 f011      	BREQ PC+3
0006c6 940c 06dc 	JMP _0xC002E
                 ; 0006 0130 
                 ; 0006 0131 switch ( state ) {
0006c8 2fe1      	MOV  R30,R17
0006c9 e0f0      	LDI  R31,0
                 ; 0006 0132 case ON :
0006ca 30e1      	CPI  R30,LOW(0x1)
0006cb e0a0      	LDI  R26,HIGH(0x1)
0006cc 07fa      	CPC  R31,R26
0006cd f011      	BREQ PC+3
0006ce 940c 06d4 	JMP _0xC002B
                 ; 0006 0133 LED4_ON;
0006d0 e8e0      	LDI  R30,LOW(128)
0006d1 93e0 0426 	STS  1062,R30
                 ; 0006 0134 break ;
0006d3 c007      	RJMP _0xC002A
                 ; 0006 0135 case OFF :
                 _0xC002B:
0006d4 9730      	SBIW R30,0
0006d5 f011      	BREQ PC+3
0006d6 940c 06d8 	JMP _0xC002D
                 ; 0006 0136 default :
                 _0xC002D:
                 ; 0006 0137 LED4_OFF;
0006d8 e8e0      	LDI  R30,LOW(128)
0006d9 93e0 0425 	STS  1061,R30
                 ; 0006 0138 break ;
                 ; 0006 0139 }
                 _0xC002A:
                 ; 0006 013A break;
0006db c00c      	RJMP _0xC0011
                 ; 0006 013B default :
                 _0xC002E:
                 ; 0006 013C LED1_OFF;
0006dc e1e0      	LDI  R30,LOW(16)
0006dd 93e0 0425 	STS  1061,R30
                 ; 0006 013D LED2_OFF;
0006df e2e0      	LDI  R30,LOW(32)
0006e0 93e0 0425 	STS  1061,R30
                 ; 0006 013E LED3_OFF;
0006e2 e4e0      	LDI  R30,LOW(64)
0006e3 93e0 0425 	STS  1061,R30
                 ; 0006 013F LED4_OFF;
0006e5 e8e0      	LDI  R30,LOW(128)
0006e6 93e0 0425 	STS  1061,R30
                 ; 0006 0140 break ;
                 ; 0006 0141 }
                 _0xC0011:
                 ; 0006 0142 }
0006e8 8119      	LDD  R17,Y+1
0006e9 8108      	LDD  R16,Y+0
0006ea 9623      	ADIW R28,3
0006eb 9508      	RET
                 ; .FEND
                 ;void TxDriver(unsigned char state)
                 ; 0006 0149 {
                 _TxDriver:
                 ; .FSTART _TxDriver
                 ; 0006 014A switch ( state ) {
0006ec 931a      	ST   -Y,R17
0006ed 2f1a      	MOV  R17,R26
                 ;	state -> R17
0006ee 2fe1      	MOV  R30,R17
0006ef e0f0      	LDI  R31,0
                 ; 0006 014B case ON :                           /* driver on */
0006f0 30e1      	CPI  R30,LOW(0x1)
0006f1 e0a0      	LDI  R26,HIGH(0x1)
0006f2 07fa      	CPC  R31,R26
0006f3 f011      	BREQ PC+3
0006f4 940c 06ff 	JMP _0xC0032
                 ; 0006 014C SETBIT( PORTA.OUT,7);
0006f6 e8e0      	LDI  R30,LOW(128)
0006f7 93e0 0405 	STS  1029,R30
                 ; 0006 014D //delay_ms(5);
                 ; 0006 014E USART0.CTRLA|=USART_DREIE_bm;      //enable sending
0006f9 91e0 0805 	LDS  R30,2053
0006fb 62e0      	ORI  R30,0x20
0006fc 93e0 0805 	STS  2053,R30
                 ; 0006 014F //USART0.TXDATAL=0;
                 ; 0006 0150 break;
0006fe c008      	RJMP _0xC0031
                 ; 0006 0151 case OFF :
                 _0xC0032:
0006ff 9730      	SBIW R30,0
000700 f011      	BREQ PC+3
000701 940c 0707 	JMP _0xC0034
                 ; 0006 0152 //delay_ms(5);                          /* driver off */
                 ; 0006 0153 CLRBIT( PORTA.OUT,7);
000703 e8e0      	LDI  R30,LOW(128)
000704 93e0 0406 	STS  1030,R30
                 ; 0006 0154 break;
000706 c000      	RJMP _0xC0031
                 ; 0006 0155 default :
                 _0xC0034:
                 ; 0006 0156 break;
                 ; 0006 0157 }
                 _0xC0031:
                 ; 0006 0158 }
000707 9119      	LD   R17,Y+
000708 9508      	RET
                 ; .FEND
                 ;void SetEepromChannel(unsigned char channel)
                 ; 0006 015F {
                 _SetEepromChannel:
                 ; .FSTART _SetEepromChannel
                 ; 0006 0160 SetGNDChannel ( channel);   // set GND on
000709 931a      	ST   -Y,R17
00070a 2f1a      	MOV  R17,R26
                 ;	channel -> R17
00070b 940e 0926 	CALL _SetGNDChannel
                 ; 0006 0161 
                 ; 0006 0162 if ( channel == EEPCHOFF )
00070d 3019      	CPI  R17,9
00070e f011      	BREQ PC+3
00070f 940c 071e 	JMP _0xC0035
                 ; 0006 0163 {
                 ; 0006 0164 /* switch off any channel */
                 ; 0006 0165 CLR_408A0;
000711 e0e1      	LDI  R30,LOW(1)
000712 93e0 04c6 	STS  1222,R30
                 ; 0006 0166 CLR_408A1;
000714 e0e2      	LDI  R30,LOW(2)
000715 93e0 04c6 	STS  1222,R30
                 ; 0006 0167 CLR_408A2;
000717 e0e4      	LDI  R30,LOW(4)
000718 93e0 04c6 	STS  1222,R30
                 ; 0006 0168 CLR_408E2;
00071a e0e8      	LDI  R30,LOW(8)
00071b 93e0 04c6 	STS  1222,R30
                 ; 0006 0169 }
                 ; 0006 016A else
00071d c087      	RJMP _0xC0036
                 _0xC0035:
                 ; 0006 016B {   CLR_408E2;
00071e e0e8      	LDI  R30,LOW(8)
00071f 93e0 04c6 	STS  1222,R30
                 ; 0006 016C switch (channel)
000721 2fe1      	MOV  R30,R17
000722 e0f0      	LDI  R31,0
                 ; 0006 016D {  default:
000723 c001      	RJMP _0xC003A
                 _0xC003B:
                 ; 0006 016E case 0:  //add 1
000724 c004      	RJMP _0xC003C
                 _0xC003A:
000725 9730      	SBIW R30,0
000726 f011      	BREQ PC+3
000727 940c 0733 	JMP _0xC003D
                 _0xC003C:
                 ; 0006 016F CLR_408A0;
000729 e0e1      	LDI  R30,LOW(1)
00072a 93e0 04c6 	STS  1222,R30
                 ; 0006 0170 CLR_408A1;
00072c e0e2      	LDI  R30,LOW(2)
00072d 93e0 04c6 	STS  1222,R30
                 ; 0006 0171 CLR_408A2;
00072f e0e4      	LDI  R30,LOW(4)
000730 93e0 04c6 	STS  1222,R30
                 ; 0006 0172 
                 ; 0006 0173 break;
000732 c06f      	RJMP _0xC0039
                 ; 0006 0174 
                 ; 0006 0175 case 1: //add 2
                 _0xC003D:
000733 30e1      	CPI  R30,LOW(0x1)
000734 e0a0      	LDI  R26,HIGH(0x1)
000735 07fa      	CPC  R31,R26
000736 f011      	BREQ PC+3
000737 940c 0743 	JMP _0xC003E
                 ; 0006 0176 SET_408A0;
000739 e0e1      	LDI  R30,LOW(1)
00073a 93e0 04c5 	STS  1221,R30
                 ; 0006 0177 CLR_408A1;
00073c e0e2      	LDI  R30,LOW(2)
00073d 93e0 04c6 	STS  1222,R30
                 ; 0006 0178 CLR_408A2;
00073f e0e4      	LDI  R30,LOW(4)
000740 93e0 04c6 	STS  1222,R30
                 ; 0006 0179 break;
000742 c05f      	RJMP _0xC0039
                 ; 0006 017A 
                 ; 0006 017B case 2:  //add 3
                 _0xC003E:
000743 30e2      	CPI  R30,LOW(0x2)
000744 e0a0      	LDI  R26,HIGH(0x2)
000745 07fa      	CPC  R31,R26
000746 f011      	BREQ PC+3
000747 940c 0753 	JMP _0xC003F
                 ; 0006 017C CLR_408A0;
000749 e0e1      	LDI  R30,LOW(1)
00074a 93e0 04c6 	STS  1222,R30
                 ; 0006 017D SET_408A1;
00074c e0e2      	LDI  R30,LOW(2)
00074d 93e0 04c5 	STS  1221,R30
                 ; 0006 017E CLR_408A2;
00074f e0e4      	LDI  R30,LOW(4)
000750 93e0 04c6 	STS  1222,R30
                 ; 0006 017F break;
000752 c04f      	RJMP _0xC0039
                 ; 0006 0180 
                 ; 0006 0181 case 3:  //add 4
                 _0xC003F:
000753 30e3      	CPI  R30,LOW(0x3)
000754 e0a0      	LDI  R26,HIGH(0x3)
000755 07fa      	CPC  R31,R26
000756 f011      	BREQ PC+3
000757 940c 0763 	JMP _0xC0040
                 ; 0006 0182 SET_408A0;
000759 e0e1      	LDI  R30,LOW(1)
00075a 93e0 04c5 	STS  1221,R30
                 ; 0006 0183 SET_408A1;
00075c e0e2      	LDI  R30,LOW(2)
00075d 93e0 04c5 	STS  1221,R30
                 ; 0006 0184 CLR_408A2;
00075f e0e4      	LDI  R30,LOW(4)
000760 93e0 04c6 	STS  1222,R30
                 ; 0006 0185 break;
000762 c03f      	RJMP _0xC0039
                 ; 0006 0186 
                 ; 0006 0187 case 4:  //add 5
                 _0xC0040:
000763 30e4      	CPI  R30,LOW(0x4)
000764 e0a0      	LDI  R26,HIGH(0x4)
000765 07fa      	CPC  R31,R26
000766 f011      	BREQ PC+3
000767 940c 0773 	JMP _0xC0041
                 ; 0006 0188 CLR_408A0;
000769 e0e1      	LDI  R30,LOW(1)
00076a 93e0 04c6 	STS  1222,R30
                 ; 0006 0189 CLR_408A1;
00076c e0e2      	LDI  R30,LOW(2)
00076d 93e0 04c6 	STS  1222,R30
                 ; 0006 018A SET_408A2;
00076f e0e4      	LDI  R30,LOW(4)
000770 93e0 04c5 	STS  1221,R30
                 ; 0006 018B break;
000772 c02f      	RJMP _0xC0039
                 ; 0006 018C 
                 ; 0006 018D case 5:  //add 6
                 _0xC0041:
000773 30e5      	CPI  R30,LOW(0x5)
000774 e0a0      	LDI  R26,HIGH(0x5)
000775 07fa      	CPC  R31,R26
000776 f011      	BREQ PC+3
000777 940c 0783 	JMP _0xC0042
                 ; 0006 018E SET_408A0;
000779 e0e1      	LDI  R30,LOW(1)
00077a 93e0 04c5 	STS  1221,R30
                 ; 0006 018F CLR_408A1;
00077c e0e2      	LDI  R30,LOW(2)
00077d 93e0 04c6 	STS  1222,R30
                 ; 0006 0190 SET_408A2;
00077f e0e4      	LDI  R30,LOW(4)
000780 93e0 04c5 	STS  1221,R30
                 ; 0006 0191 break;
000782 c01f      	RJMP _0xC0039
                 ; 0006 0192 
                 ; 0006 0193 case 6:  //add 7
                 _0xC0042:
000783 30e6      	CPI  R30,LOW(0x6)
000784 e0a0      	LDI  R26,HIGH(0x6)
000785 07fa      	CPC  R31,R26
000786 f011      	BREQ PC+3
000787 940c 0793 	JMP _0xC0043
                 ; 0006 0194 CLR_408A0;
000789 e0e1      	LDI  R30,LOW(1)
00078a 93e0 04c6 	STS  1222,R30
                 ; 0006 0195 SET_408A1;
00078c e0e2      	LDI  R30,LOW(2)
00078d 93e0 04c5 	STS  1221,R30
                 ; 0006 0196 SET_408A2;
00078f e0e4      	LDI  R30,LOW(4)
000790 93e0 04c5 	STS  1221,R30
                 ; 0006 0197 break;
000792 c00f      	RJMP _0xC0039
                 ; 0006 0198 
                 ; 0006 0199 case 7:  //add 8
                 _0xC0043:
000793 30e7      	CPI  R30,LOW(0x7)
000794 e0a0      	LDI  R26,HIGH(0x7)
000795 07fa      	CPC  R31,R26
000796 f011      	BREQ PC+3
000797 940c 0724 	JMP _0xC003B
                 ; 0006 019A SET_408A0;
000799 e0e1      	LDI  R30,LOW(1)
00079a 93e0 04c5 	STS  1221,R30
                 ; 0006 019B SET_408A1;
00079c e0e2      	LDI  R30,LOW(2)
00079d 93e0 04c5 	STS  1221,R30
                 ; 0006 019C SET_408A2;
00079f e0e4      	LDI  R30,LOW(4)
0007a0 93e0 04c5 	STS  1221,R30
                 ; 0006 019D break;
                 ; 0006 019E }
                 _0xC0039:
                 ; 0006 019F SET_408E2 ;  /* set channel and enable bit */
0007a2 e0e8      	LDI  R30,LOW(8)
0007a3 93e0 04c5 	STS  1221,R30
                 ; 0006 01A0 }
                 _0xC0036:
                 ; 0006 01A1 }
0007a5 9119      	LD   R17,Y+
0007a6 9508      	RET
                 ; .FEND
                 ;void SetSupplyChannel(unsigned char channel)
                 ; 0006 01A8 {
                 _SetSupplyChannel:
                 ; .FSTART _SetSupplyChannel
                 ; 0006 01A9 
                 ; 0006 01AA if ( channel == SUPPCHOFF )
0007a7 931a      	ST   -Y,R17
0007a8 2f1a      	MOV  R17,R26
                 ;	channel -> R17
0007a9 3110      	CPI  R17,16
0007aa f011      	BREQ PC+3
0007ab 940c 07bd 	JMP _0xC0045
                 ; 0006 01AB {
                 ; 0006 01AC CLR_406A0;                                 /* switch off any channel */
0007ad e0e8      	LDI  R30,LOW(8)
0007ae 93e0 0426 	STS  1062,R30
                 ; 0006 01AD CLR_406A1;
0007b0 e0e4      	LDI  R30,LOW(4)
0007b1 93e0 0426 	STS  1062,R30
                 ; 0006 01AE CLR_406A2;
0007b3 e0e2      	LDI  R30,LOW(2)
0007b4 93e0 0426 	STS  1062,R30
                 ; 0006 01AF CLR_406A3;
0007b6 e0e1      	LDI  R30,LOW(1)
0007b7 93e0 0426 	STS  1062,R30
                 ; 0006 01B0 CLR_406E1;
0007b9 e8e0      	LDI  R30,LOW(128)
0007ba 93e0 0446 	STS  1094,R30
                 ; 0006 01B1 }
                 ; 0006 01B2 else
0007bc c167      	RJMP _0xC0046
                 _0xC0045:
                 ; 0006 01B3 {   CLR_406E1;  // turn off mux power
0007bd e8e0      	LDI  R30,LOW(128)
0007be 93e0 0446 	STS  1094,R30
                 ; 0006 01B4 switch (channel)
0007c0 2fe1      	MOV  R30,R17
0007c1 e0f0      	LDI  R31,0
                 ; 0006 01B5 {      default:
0007c2 c001      	RJMP _0xC004A
                 _0xC004B:
                 ; 0006 01B6 case 0:
0007c3 c004      	RJMP _0xC004C
                 _0xC004A:
0007c4 9730      	SBIW R30,0
0007c5 f011      	BREQ PC+3
0007c6 940c 07d8 	JMP _0xC004D
                 _0xC004C:
                 ; 0006 01B7 CLR_406A0;
0007c8 e0e8      	LDI  R30,LOW(8)
0007c9 93e0 0426 	STS  1062,R30
                 ; 0006 01B8 CLR_406A1;
0007cb e0e4      	LDI  R30,LOW(4)
0007cc 93e0 0426 	STS  1062,R30
                 ; 0006 01B9 CLR_406A2;
0007ce e0e2      	LDI  R30,LOW(2)
0007cf 93e0 0426 	STS  1062,R30
                 ; 0006 01BA CLR_406A3;
0007d1 e0e1      	LDI  R30,LOW(1)
0007d2 93e0 0426 	STS  1062,R30
                 ; 0006 01BB SetGNDChannel (0);
0007d4 e0a0      	LDI  R26,LOW(0)
0007d5 940e 0926 	CALL _SetGNDChannel
                 ; 0006 01BC break;
0007d7 c149      	RJMP _0xC0049
                 ; 0006 01BD 
                 ; 0006 01BE case 1:
                 _0xC004D:
0007d8 30e1      	CPI  R30,LOW(0x1)
0007d9 e0a0      	LDI  R26,HIGH(0x1)
0007da 07fa      	CPC  R31,R26
0007db f011      	BREQ PC+3
0007dc 940c 07ee 	JMP _0xC004E
                 ; 0006 01BF SET_406A0;
0007de e0e8      	LDI  R30,LOW(8)
0007df 93e0 0425 	STS  1061,R30
                 ; 0006 01C0 CLR_406A1;
0007e1 e0e4      	LDI  R30,LOW(4)
0007e2 93e0 0426 	STS  1062,R30
                 ; 0006 01C1 CLR_406A2;
0007e4 e0e2      	LDI  R30,LOW(2)
0007e5 93e0 0426 	STS  1062,R30
                 ; 0006 01C2 CLR_406A3;
0007e7 e0e1      	LDI  R30,LOW(1)
0007e8 93e0 0426 	STS  1062,R30
                 ; 0006 01C3 SetGNDChannel (0);
0007ea e0a0      	LDI  R26,LOW(0)
0007eb 940e 0926 	CALL _SetGNDChannel
                 ; 0006 01C4 break;
0007ed c133      	RJMP _0xC0049
                 ; 0006 01C5 
                 ; 0006 01C6 case 2:
                 _0xC004E:
0007ee 30e2      	CPI  R30,LOW(0x2)
0007ef e0a0      	LDI  R26,HIGH(0x2)
0007f0 07fa      	CPC  R31,R26
0007f1 f011      	BREQ PC+3
0007f2 940c 0804 	JMP _0xC004F
                 ; 0006 01C7 CLR_406A0;
0007f4 e0e8      	LDI  R30,LOW(8)
0007f5 93e0 0426 	STS  1062,R30
                 ; 0006 01C8 SET_406A1;
0007f7 e0e4      	LDI  R30,LOW(4)
0007f8 93e0 0425 	STS  1061,R30
                 ; 0006 01C9 CLR_406A2;
0007fa e0e2      	LDI  R30,LOW(2)
0007fb 93e0 0426 	STS  1062,R30
                 ; 0006 01CA CLR_406A3;
0007fd e0e1      	LDI  R30,LOW(1)
0007fe 93e0 0426 	STS  1062,R30
                 ; 0006 01CB SetGNDChannel (1);
000800 e0a1      	LDI  R26,LOW(1)
000801 940e 0926 	CALL _SetGNDChannel
                 ; 0006 01CC break;
000803 c11d      	RJMP _0xC0049
                 ; 0006 01CD 
                 ; 0006 01CE case 3:
                 _0xC004F:
000804 30e3      	CPI  R30,LOW(0x3)
000805 e0a0      	LDI  R26,HIGH(0x3)
000806 07fa      	CPC  R31,R26
000807 f011      	BREQ PC+3
000808 940c 081a 	JMP _0xC0050
                 ; 0006 01CF SET_406A0;
00080a e0e8      	LDI  R30,LOW(8)
00080b 93e0 0425 	STS  1061,R30
                 ; 0006 01D0 SET_406A1;
00080d e0e4      	LDI  R30,LOW(4)
00080e 93e0 0425 	STS  1061,R30
                 ; 0006 01D1 CLR_406A2;
000810 e0e2      	LDI  R30,LOW(2)
000811 93e0 0426 	STS  1062,R30
                 ; 0006 01D2 CLR_406A3;
000813 e0e1      	LDI  R30,LOW(1)
000814 93e0 0426 	STS  1062,R30
                 ; 0006 01D3 SetGNDChannel (1);
000816 e0a1      	LDI  R26,LOW(1)
000817 940e 0926 	CALL _SetGNDChannel
                 ; 0006 01D4 break;
000819 c107      	RJMP _0xC0049
                 ; 0006 01D5 
                 ; 0006 01D6 case 4:
                 _0xC0050:
00081a 30e4      	CPI  R30,LOW(0x4)
00081b e0a0      	LDI  R26,HIGH(0x4)
00081c 07fa      	CPC  R31,R26
00081d f011      	BREQ PC+3
00081e 940c 0830 	JMP _0xC0051
                 ; 0006 01D7 CLR_406A0;
000820 e0e8      	LDI  R30,LOW(8)
000821 93e0 0426 	STS  1062,R30
                 ; 0006 01D8 CLR_406A1;
000823 e0e4      	LDI  R30,LOW(4)
000824 93e0 0426 	STS  1062,R30
                 ; 0006 01D9 SET_406A2;
000826 e0e2      	LDI  R30,LOW(2)
000827 93e0 0425 	STS  1061,R30
                 ; 0006 01DA CLR_406A3;
000829 e0e1      	LDI  R30,LOW(1)
00082a 93e0 0426 	STS  1062,R30
                 ; 0006 01DB SetGNDChannel (2);
00082c e0a2      	LDI  R26,LOW(2)
00082d 940e 0926 	CALL _SetGNDChannel
                 ; 0006 01DC break;
00082f c0f1      	RJMP _0xC0049
                 ; 0006 01DD 
                 ; 0006 01DE case 5:
                 _0xC0051:
000830 30e5      	CPI  R30,LOW(0x5)
000831 e0a0      	LDI  R26,HIGH(0x5)
000832 07fa      	CPC  R31,R26
000833 f011      	BREQ PC+3
000834 940c 0846 	JMP _0xC0052
                 ; 0006 01DF SET_406A0;
000836 e0e8      	LDI  R30,LOW(8)
000837 93e0 0425 	STS  1061,R30
                 ; 0006 01E0 CLR_406A1;
000839 e0e4      	LDI  R30,LOW(4)
00083a 93e0 0426 	STS  1062,R30
                 ; 0006 01E1 SET_406A2;
00083c e0e2      	LDI  R30,LOW(2)
00083d 93e0 0425 	STS  1061,R30
                 ; 0006 01E2 CLR_406A3;
00083f e0e1      	LDI  R30,LOW(1)
000840 93e0 0426 	STS  1062,R30
                 ; 0006 01E3 SetGNDChannel (2);
000842 e0a2      	LDI  R26,LOW(2)
000843 940e 0926 	CALL _SetGNDChannel
                 ; 0006 01E4 break;
000845 c0db      	RJMP _0xC0049
                 ; 0006 01E5 
                 ; 0006 01E6 case 6:
                 _0xC0052:
000846 30e6      	CPI  R30,LOW(0x6)
000847 e0a0      	LDI  R26,HIGH(0x6)
000848 07fa      	CPC  R31,R26
000849 f011      	BREQ PC+3
00084a 940c 085c 	JMP _0xC0053
                 ; 0006 01E7 CLR_406A0;
00084c e0e8      	LDI  R30,LOW(8)
00084d 93e0 0426 	STS  1062,R30
                 ; 0006 01E8 SET_406A1;
00084f e0e4      	LDI  R30,LOW(4)
000850 93e0 0425 	STS  1061,R30
                 ; 0006 01E9 SET_406A2;
000852 e0e2      	LDI  R30,LOW(2)
000853 93e0 0425 	STS  1061,R30
                 ; 0006 01EA CLR_406A3;
000855 e0e1      	LDI  R30,LOW(1)
000856 93e0 0426 	STS  1062,R30
                 ; 0006 01EB SetGNDChannel (3);
000858 e0a3      	LDI  R26,LOW(3)
000859 940e 0926 	CALL _SetGNDChannel
                 ; 0006 01EC break;
00085b c0c5      	RJMP _0xC0049
                 ; 0006 01ED 
                 ; 0006 01EE case 7:
                 _0xC0053:
00085c 30e7      	CPI  R30,LOW(0x7)
00085d e0a0      	LDI  R26,HIGH(0x7)
00085e 07fa      	CPC  R31,R26
00085f f011      	BREQ PC+3
000860 940c 0872 	JMP _0xC0054
                 ; 0006 01EF SET_406A0;
000862 e0e8      	LDI  R30,LOW(8)
000863 93e0 0425 	STS  1061,R30
                 ; 0006 01F0 SET_406A1;
000865 e0e4      	LDI  R30,LOW(4)
000866 93e0 0425 	STS  1061,R30
                 ; 0006 01F1 SET_406A2;
000868 e0e2      	LDI  R30,LOW(2)
000869 93e0 0425 	STS  1061,R30
                 ; 0006 01F2 CLR_406A3;
00086b e0e1      	LDI  R30,LOW(1)
00086c 93e0 0426 	STS  1062,R30
                 ; 0006 01F3 SetGNDChannel (3);
00086e e0a3      	LDI  R26,LOW(3)
00086f 940e 0926 	CALL _SetGNDChannel
                 ; 0006 01F4 break;
000871 c0af      	RJMP _0xC0049
                 ; 0006 01F5 
                 ; 0006 01F6 case 8:
                 _0xC0054:
000872 30e8      	CPI  R30,LOW(0x8)
000873 e0a0      	LDI  R26,HIGH(0x8)
000874 07fa      	CPC  R31,R26
000875 f011      	BREQ PC+3
000876 940c 0888 	JMP _0xC0055
                 ; 0006 01F7 CLR_406A0;
000878 e0e8      	LDI  R30,LOW(8)
000879 93e0 0426 	STS  1062,R30
                 ; 0006 01F8 CLR_406A1;
00087b e0e4      	LDI  R30,LOW(4)
00087c 93e0 0426 	STS  1062,R30
                 ; 0006 01F9 CLR_406A2;
00087e e0e2      	LDI  R30,LOW(2)
00087f 93e0 0426 	STS  1062,R30
                 ; 0006 01FA SET_406A3;
000881 e0e1      	LDI  R30,LOW(1)
000882 93e0 0425 	STS  1061,R30
                 ; 0006 01FB SetGNDChannel (4);
000884 e0a4      	LDI  R26,LOW(4)
000885 940e 0926 	CALL _SetGNDChannel
                 ; 0006 01FC break;
000887 c099      	RJMP _0xC0049
                 ; 0006 01FD 
                 ; 0006 01FE case 9:
                 _0xC0055:
000888 30e9      	CPI  R30,LOW(0x9)
000889 e0a0      	LDI  R26,HIGH(0x9)
00088a 07fa      	CPC  R31,R26
00088b f011      	BREQ PC+3
00088c 940c 089e 	JMP _0xC0056
                 ; 0006 01FF SET_406A0;
00088e e0e8      	LDI  R30,LOW(8)
00088f 93e0 0425 	STS  1061,R30
                 ; 0006 0200 CLR_406A1;
000891 e0e4      	LDI  R30,LOW(4)
000892 93e0 0426 	STS  1062,R30
                 ; 0006 0201 CLR_406A2;
000894 e0e2      	LDI  R30,LOW(2)
000895 93e0 0426 	STS  1062,R30
                 ; 0006 0202 SET_406A3;
000897 e0e1      	LDI  R30,LOW(1)
000898 93e0 0425 	STS  1061,R30
                 ; 0006 0203 SetGNDChannel (4);
00089a e0a4      	LDI  R26,LOW(4)
00089b 940e 0926 	CALL _SetGNDChannel
                 ; 0006 0204 break;
00089d c083      	RJMP _0xC0049
                 ; 0006 0205 
                 ; 0006 0206 case 10:
                 _0xC0056:
00089e 30ea      	CPI  R30,LOW(0xA)
00089f e0a0      	LDI  R26,HIGH(0xA)
0008a0 07fa      	CPC  R31,R26
0008a1 f011      	BREQ PC+3
0008a2 940c 08b4 	JMP _0xC0057
                 ; 0006 0207 CLR_406A0;
0008a4 e0e8      	LDI  R30,LOW(8)
0008a5 93e0 0426 	STS  1062,R30
                 ; 0006 0208 SET_406A1;
0008a7 e0e4      	LDI  R30,LOW(4)
0008a8 93e0 0425 	STS  1061,R30
                 ; 0006 0209 CLR_406A2;
0008aa e0e2      	LDI  R30,LOW(2)
0008ab 93e0 0426 	STS  1062,R30
                 ; 0006 020A SET_406A3;
0008ad e0e1      	LDI  R30,LOW(1)
0008ae 93e0 0425 	STS  1061,R30
                 ; 0006 020B SetGNDChannel (5);
0008b0 e0a5      	LDI  R26,LOW(5)
0008b1 940e 0926 	CALL _SetGNDChannel
                 ; 0006 020C break;
0008b3 c06d      	RJMP _0xC0049
                 ; 0006 020D 
                 ; 0006 020E case 11:
                 _0xC0057:
0008b4 30eb      	CPI  R30,LOW(0xB)
0008b5 e0a0      	LDI  R26,HIGH(0xB)
0008b6 07fa      	CPC  R31,R26
0008b7 f011      	BREQ PC+3
0008b8 940c 08ca 	JMP _0xC0058
                 ; 0006 020F SET_406A0;
0008ba e0e8      	LDI  R30,LOW(8)
0008bb 93e0 0425 	STS  1061,R30
                 ; 0006 0210 SET_406A1;
0008bd e0e4      	LDI  R30,LOW(4)
0008be 93e0 0425 	STS  1061,R30
                 ; 0006 0211 CLR_406A2;
0008c0 e0e2      	LDI  R30,LOW(2)
0008c1 93e0 0426 	STS  1062,R30
                 ; 0006 0212 SET_406A3;
0008c3 e0e1      	LDI  R30,LOW(1)
0008c4 93e0 0425 	STS  1061,R30
                 ; 0006 0213 SetGNDChannel (5);
0008c6 e0a5      	LDI  R26,LOW(5)
0008c7 940e 0926 	CALL _SetGNDChannel
                 ; 0006 0214 break;
0008c9 c057      	RJMP _0xC0049
                 ; 0006 0215 
                 ; 0006 0216 case 12:
                 _0xC0058:
0008ca 30ec      	CPI  R30,LOW(0xC)
0008cb e0a0      	LDI  R26,HIGH(0xC)
0008cc 07fa      	CPC  R31,R26
0008cd f011      	BREQ PC+3
0008ce 940c 08e0 	JMP _0xC0059
                 ; 0006 0217 CLR_406A0;
0008d0 e0e8      	LDI  R30,LOW(8)
0008d1 93e0 0426 	STS  1062,R30
                 ; 0006 0218 CLR_406A1;
0008d3 e0e4      	LDI  R30,LOW(4)
0008d4 93e0 0426 	STS  1062,R30
                 ; 0006 0219 SET_406A2;
0008d6 e0e2      	LDI  R30,LOW(2)
0008d7 93e0 0425 	STS  1061,R30
                 ; 0006 021A SET_406A3;
0008d9 e0e1      	LDI  R30,LOW(1)
0008da 93e0 0425 	STS  1061,R30
                 ; 0006 021B SetGNDChannel (6);
0008dc e0a6      	LDI  R26,LOW(6)
0008dd 940e 0926 	CALL _SetGNDChannel
                 ; 0006 021C break;
0008df c041      	RJMP _0xC0049
                 ; 0006 021D 
                 ; 0006 021E case 13:
                 _0xC0059:
0008e0 30ed      	CPI  R30,LOW(0xD)
0008e1 e0a0      	LDI  R26,HIGH(0xD)
0008e2 07fa      	CPC  R31,R26
0008e3 f011      	BREQ PC+3
0008e4 940c 08f6 	JMP _0xC005A
                 ; 0006 021F SET_406A0;
0008e6 e0e8      	LDI  R30,LOW(8)
0008e7 93e0 0425 	STS  1061,R30
                 ; 0006 0220 CLR_406A1;
0008e9 e0e4      	LDI  R30,LOW(4)
0008ea 93e0 0426 	STS  1062,R30
                 ; 0006 0221 SET_406A2;
0008ec e0e2      	LDI  R30,LOW(2)
0008ed 93e0 0425 	STS  1061,R30
                 ; 0006 0222 SET_406A3;
0008ef e0e1      	LDI  R30,LOW(1)
0008f0 93e0 0425 	STS  1061,R30
                 ; 0006 0223 SetGNDChannel (6);
0008f2 e0a6      	LDI  R26,LOW(6)
0008f3 940e 0926 	CALL _SetGNDChannel
                 ; 0006 0224 break;
0008f5 c02b      	RJMP _0xC0049
                 ; 0006 0225 
                 ; 0006 0226 case 14:
                 _0xC005A:
0008f6 30ee      	CPI  R30,LOW(0xE)
0008f7 e0a0      	LDI  R26,HIGH(0xE)
0008f8 07fa      	CPC  R31,R26
0008f9 f011      	BREQ PC+3
0008fa 940c 090c 	JMP _0xC005B
                 ; 0006 0227 CLR_406A0;
0008fc e0e8      	LDI  R30,LOW(8)
0008fd 93e0 0426 	STS  1062,R30
                 ; 0006 0228 SET_406A1;
0008ff e0e4      	LDI  R30,LOW(4)
000900 93e0 0425 	STS  1061,R30
                 ; 0006 0229 SET_406A2;
000902 e0e2      	LDI  R30,LOW(2)
000903 93e0 0425 	STS  1061,R30
                 ; 0006 022A SET_406A3;
000905 e0e1      	LDI  R30,LOW(1)
000906 93e0 0425 	STS  1061,R30
                 ; 0006 022B SetGNDChannel (7);
000908 e0a7      	LDI  R26,LOW(7)
000909 940e 0926 	CALL _SetGNDChannel
                 ; 0006 022C break;
00090b c015      	RJMP _0xC0049
                 ; 0006 022D 
                 ; 0006 022E case 15:
                 _0xC005B:
00090c 30ef      	CPI  R30,LOW(0xF)
00090d e0a0      	LDI  R26,HIGH(0xF)
00090e 07fa      	CPC  R31,R26
00090f f011      	BREQ PC+3
000910 940c 07c3 	JMP _0xC004B
                 ; 0006 022F SET_406A0;
000912 e0e8      	LDI  R30,LOW(8)
000913 93e0 0425 	STS  1061,R30
                 ; 0006 0230 SET_406A1;
000915 e0e4      	LDI  R30,LOW(4)
000916 93e0 0425 	STS  1061,R30
                 ; 0006 0231 SET_406A2;
000918 e0e2      	LDI  R30,LOW(2)
000919 93e0 0425 	STS  1061,R30
                 ; 0006 0232 SET_406A3;
00091b e0e1      	LDI  R30,LOW(1)
00091c 93e0 0425 	STS  1061,R30
                 ; 0006 0233 SetGNDChannel (7);
00091e e0a7      	LDI  R26,LOW(7)
00091f 940e 0926 	CALL _SetGNDChannel
                 ; 0006 0234 break;
                 ; 0006 0235 }
                 _0xC0049:
                 ; 0006 0236 SET_406E1;  // Enable Mux power
000921 e8e0      	LDI  R30,LOW(128)
000922 93e0 0445 	STS  1093,R30
                 ; 0006 0237 }
                 _0xC0046:
                 ; 0006 0238 }
000924 9119      	LD   R17,Y+
000925 9508      	RET
                 ; .FEND
                 ;void SetGNDChannel(unsigned char channel)
                 ; 0006 0240 {
                 _SetGNDChannel:
                 ; .FSTART _SetGNDChannel
                 ; 0006 0241 if ( channel == EEPCHOFF )
000926 931a      	ST   -Y,R17
000927 2f1a      	MOV  R17,R26
                 ;	channel -> R17
000928 3019      	CPI  R17,9
000929 f011      	BREQ PC+3
00092a 940c 0939 	JMP _0xC005D
                 ; 0006 0242 {
                 ; 0006 0243 /* switch off any channel */
                 ; 0006 0244 CLR_408A0;
00092c e0e1      	LDI  R30,LOW(1)
00092d 93e0 04c6 	STS  1222,R30
                 ; 0006 0245 CLR_408A1;
00092f e0e2      	LDI  R30,LOW(2)
000930 93e0 04c6 	STS  1222,R30
                 ; 0006 0246 CLR_408A2;
000932 e0e4      	LDI  R30,LOW(4)
000933 93e0 04c6 	STS  1222,R30
                 ; 0006 0247 CLR_408E1;
000935 e1e0      	LDI  R30,LOW(16)
000936 93e0 04c6 	STS  1222,R30
                 ; 0006 0248 }
                 ; 0006 0249 else
000938 c087      	RJMP _0xC005E
                 _0xC005D:
                 ; 0006 024A {   CLR_408E1;
000939 e1e0      	LDI  R30,LOW(16)
00093a 93e0 04c6 	STS  1222,R30
                 ; 0006 024B switch (channel)
00093c 2fe1      	MOV  R30,R17
00093d e0f0      	LDI  R31,0
                 ; 0006 024C {  default:
00093e c001      	RJMP _0xC0062
                 _0xC0063:
                 ; 0006 024D case 0:  //add 1
00093f c004      	RJMP _0xC0064
                 _0xC0062:
000940 9730      	SBIW R30,0
000941 f011      	BREQ PC+3
000942 940c 094e 	JMP _0xC0065
                 _0xC0064:
                 ; 0006 024E CLR_408A0;
000944 e0e1      	LDI  R30,LOW(1)
000945 93e0 04c6 	STS  1222,R30
                 ; 0006 024F CLR_408A1;
000947 e0e2      	LDI  R30,LOW(2)
000948 93e0 04c6 	STS  1222,R30
                 ; 0006 0250 CLR_408A2;
00094a e0e4      	LDI  R30,LOW(4)
00094b 93e0 04c6 	STS  1222,R30
                 ; 0006 0251 
                 ; 0006 0252 break;
00094d c06f      	RJMP _0xC0061
                 ; 0006 0253 
                 ; 0006 0254 case 1: //add 2
                 _0xC0065:
00094e 30e1      	CPI  R30,LOW(0x1)
00094f e0a0      	LDI  R26,HIGH(0x1)
000950 07fa      	CPC  R31,R26
000951 f011      	BREQ PC+3
000952 940c 095e 	JMP _0xC0066
                 ; 0006 0255 SET_408A0;
000954 e0e1      	LDI  R30,LOW(1)
000955 93e0 04c5 	STS  1221,R30
                 ; 0006 0256 CLR_408A1;
000957 e0e2      	LDI  R30,LOW(2)
000958 93e0 04c6 	STS  1222,R30
                 ; 0006 0257 CLR_408A2;
00095a e0e4      	LDI  R30,LOW(4)
00095b 93e0 04c6 	STS  1222,R30
                 ; 0006 0258 break;
00095d c05f      	RJMP _0xC0061
                 ; 0006 0259 
                 ; 0006 025A case 2:  //add 3
                 _0xC0066:
00095e 30e2      	CPI  R30,LOW(0x2)
00095f e0a0      	LDI  R26,HIGH(0x2)
000960 07fa      	CPC  R31,R26
000961 f011      	BREQ PC+3
000962 940c 096e 	JMP _0xC0067
                 ; 0006 025B CLR_408A0;
000964 e0e1      	LDI  R30,LOW(1)
000965 93e0 04c6 	STS  1222,R30
                 ; 0006 025C SET_408A1;
000967 e0e2      	LDI  R30,LOW(2)
000968 93e0 04c5 	STS  1221,R30
                 ; 0006 025D CLR_408A2;
00096a e0e4      	LDI  R30,LOW(4)
00096b 93e0 04c6 	STS  1222,R30
                 ; 0006 025E break;
00096d c04f      	RJMP _0xC0061
                 ; 0006 025F 
                 ; 0006 0260 case 3:  //add 4
                 _0xC0067:
00096e 30e3      	CPI  R30,LOW(0x3)
00096f e0a0      	LDI  R26,HIGH(0x3)
000970 07fa      	CPC  R31,R26
000971 f011      	BREQ PC+3
000972 940c 097e 	JMP _0xC0068
                 ; 0006 0261 SET_408A0;
000974 e0e1      	LDI  R30,LOW(1)
000975 93e0 04c5 	STS  1221,R30
                 ; 0006 0262 SET_408A1;
000977 e0e2      	LDI  R30,LOW(2)
000978 93e0 04c5 	STS  1221,R30
                 ; 0006 0263 CLR_408A2;
00097a e0e4      	LDI  R30,LOW(4)
00097b 93e0 04c6 	STS  1222,R30
                 ; 0006 0264 break;
00097d c03f      	RJMP _0xC0061
                 ; 0006 0265 
                 ; 0006 0266 case 4:  //add 5
                 _0xC0068:
00097e 30e4      	CPI  R30,LOW(0x4)
00097f e0a0      	LDI  R26,HIGH(0x4)
000980 07fa      	CPC  R31,R26
000981 f011      	BREQ PC+3
000982 940c 098e 	JMP _0xC0069
                 ; 0006 0267 CLR_408A0;
000984 e0e1      	LDI  R30,LOW(1)
000985 93e0 04c6 	STS  1222,R30
                 ; 0006 0268 CLR_408A1;
000987 e0e2      	LDI  R30,LOW(2)
000988 93e0 04c6 	STS  1222,R30
                 ; 0006 0269 SET_408A2;
00098a e0e4      	LDI  R30,LOW(4)
00098b 93e0 04c5 	STS  1221,R30
                 ; 0006 026A break;
00098d c02f      	RJMP _0xC0061
                 ; 0006 026B 
                 ; 0006 026C case 5:  //add 6
                 _0xC0069:
00098e 30e5      	CPI  R30,LOW(0x5)
00098f e0a0      	LDI  R26,HIGH(0x5)
000990 07fa      	CPC  R31,R26
000991 f011      	BREQ PC+3
000992 940c 099e 	JMP _0xC006A
                 ; 0006 026D SET_408A0;
000994 e0e1      	LDI  R30,LOW(1)
000995 93e0 04c5 	STS  1221,R30
                 ; 0006 026E CLR_408A1;
000997 e0e2      	LDI  R30,LOW(2)
000998 93e0 04c6 	STS  1222,R30
                 ; 0006 026F SET_408A2;
00099a e0e4      	LDI  R30,LOW(4)
00099b 93e0 04c5 	STS  1221,R30
                 ; 0006 0270 break;
00099d c01f      	RJMP _0xC0061
                 ; 0006 0271 
                 ; 0006 0272 case 6:  //add 7
                 _0xC006A:
00099e 30e6      	CPI  R30,LOW(0x6)
00099f e0a0      	LDI  R26,HIGH(0x6)
0009a0 07fa      	CPC  R31,R26
0009a1 f011      	BREQ PC+3
0009a2 940c 09ae 	JMP _0xC006B
                 ; 0006 0273 CLR_408A0;
0009a4 e0e1      	LDI  R30,LOW(1)
0009a5 93e0 04c6 	STS  1222,R30
                 ; 0006 0274 SET_408A1;
0009a7 e0e2      	LDI  R30,LOW(2)
0009a8 93e0 04c5 	STS  1221,R30
                 ; 0006 0275 SET_408A2;
0009aa e0e4      	LDI  R30,LOW(4)
0009ab 93e0 04c5 	STS  1221,R30
                 ; 0006 0276 break;
0009ad c00f      	RJMP _0xC0061
                 ; 0006 0277 
                 ; 0006 0278 case 7:  //add 8
                 _0xC006B:
0009ae 30e7      	CPI  R30,LOW(0x7)
0009af e0a0      	LDI  R26,HIGH(0x7)
0009b0 07fa      	CPC  R31,R26
0009b1 f011      	BREQ PC+3
0009b2 940c 093f 	JMP _0xC0063
                 ; 0006 0279 SET_408A0;
0009b4 e0e1      	LDI  R30,LOW(1)
0009b5 93e0 04c5 	STS  1221,R30
                 ; 0006 027A SET_408A1;
0009b7 e0e2      	LDI  R30,LOW(2)
0009b8 93e0 04c5 	STS  1221,R30
                 ; 0006 027B SET_408A2;
0009ba e0e4      	LDI  R30,LOW(4)
0009bb 93e0 04c5 	STS  1221,R30
                 ; 0006 027C break;
                 ; 0006 027D 
                 ; 0006 027E }
                 _0xC0061:
                 ; 0006 027F SET_408E1 ;  /* set channel and enable bit */
0009bd e1e0      	LDI  R30,LOW(16)
0009be 93e0 04c5 	STS  1221,R30
                 ; 0006 0280 }
                 _0xC005E:
                 ; 0006 0281 }
0009c0 9119      	LD   R17,Y+
0009c1 9508      	RET
                 ; .FEND
                 ;void SetMuxChannel(unsigned char channel)
                 ; 0006 028B {
                 _SetMuxChannel:
                 ; .FSTART _SetMuxChannel
                 ; 0006 028C 
                 ; 0006 028D if ( channel == MUXCHOFF )
0009c2 931a      	ST   -Y,R17
0009c3 2f1a      	MOV  R17,R26
                 ;	channel -> R17
0009c4 3110      	CPI  R17,16
0009c5 f011      	BREQ PC+3
0009c6 940c 09cf 	JMP _0xC006D
                 ; 0006 028E {
                 ; 0006 028F CLR_407E1 ;                             /* switch off any channel */
0009c8 e2e0      	LDI  R30,LOW(32)
0009c9 93e0 0446 	STS  1094,R30
                 ; 0006 0290 CLR_407E2 ;                             /* switch off any channel */
0009cb e4e0      	LDI  R30,LOW(64)
0009cc 93e0 0446 	STS  1094,R30
                 ; 0006 0291 }
                 ; 0006 0292 else
0009ce c137      	RJMP _0xC006E
                 _0xC006D:
                 ; 0006 0293 {
                 ; 0006 0294 CLR_407E1 ;                             /* switch off any channel */
0009cf e2e0      	LDI  R30,LOW(32)
0009d0 93e0 0446 	STS  1094,R30
                 ; 0006 0295 CLR_407E2 ;
0009d2 e4e0      	LDI  R30,LOW(64)
0009d3 93e0 0446 	STS  1094,R30
                 ; 0006 0296 switch (channel)
0009d5 2fe1      	MOV  R30,R17
0009d6 e0f0      	LDI  R31,0
                 ; 0006 0297 {
                 ; 0006 0298 default:
0009d7 c001      	RJMP _0xC0072
                 _0xC0073:
                 ; 0006 0299 case 0:
0009d8 c004      	RJMP _0xC0074
                 _0xC0072:
0009d9 9730      	SBIW R30,0
0009da f011      	BREQ PC+3
0009db 940c 09ea 	JMP _0xC0075
                 _0xC0074:
                 ; 0006 029A CLR_407A0;
0009dd e2e0      	LDI  R30,LOW(32)
0009de 93e0 04c6 	STS  1222,R30
                 ; 0006 029B CLR_407A1;
0009e0 e4e0      	LDI  R30,LOW(64)
0009e1 93e0 04c6 	STS  1222,R30
                 ; 0006 029C CLR_407A2;
0009e3 e8e0      	LDI  R30,LOW(128)
0009e4 93e0 04c6 	STS  1222,R30
                 ; 0006 029D SET_407E1;
0009e6 e2e0      	LDI  R30,LOW(32)
0009e7 93e0 0445 	STS  1093,R30
                 ; 0006 029E break;
0009e9 c11c      	RJMP _0xC0071
                 ; 0006 029F 
                 ; 0006 02A0 case 1:
                 _0xC0075:
0009ea 30e1      	CPI  R30,LOW(0x1)
0009eb e0a0      	LDI  R26,HIGH(0x1)
0009ec 07fa      	CPC  R31,R26
0009ed f011      	BREQ PC+3
0009ee 940c 09fd 	JMP _0xC0076
                 ; 0006 02A1 SET_407A0;
0009f0 e2e0      	LDI  R30,LOW(32)
0009f1 93e0 04c5 	STS  1221,R30
                 ; 0006 02A2 CLR_407A1;
0009f3 e4e0      	LDI  R30,LOW(64)
0009f4 93e0 04c6 	STS  1222,R30
                 ; 0006 02A3 CLR_407A2;
0009f6 e8e0      	LDI  R30,LOW(128)
0009f7 93e0 04c6 	STS  1222,R30
                 ; 0006 02A4 SET_407E1;
0009f9 e2e0      	LDI  R30,LOW(32)
0009fa 93e0 0445 	STS  1093,R30
                 ; 0006 02A5 break;
0009fc c109      	RJMP _0xC0071
                 ; 0006 02A6 
                 ; 0006 02A7 case 2:
                 _0xC0076:
0009fd 30e2      	CPI  R30,LOW(0x2)
0009fe e0a0      	LDI  R26,HIGH(0x2)
0009ff 07fa      	CPC  R31,R26
000a00 f011      	BREQ PC+3
000a01 940c 0a10 	JMP _0xC0077
                 ; 0006 02A8 CLR_407A0;
000a03 e2e0      	LDI  R30,LOW(32)
000a04 93e0 04c6 	STS  1222,R30
                 ; 0006 02A9 SET_407A1;
000a06 e4e0      	LDI  R30,LOW(64)
000a07 93e0 04c5 	STS  1221,R30
                 ; 0006 02AA CLR_407A2;
000a09 e8e0      	LDI  R30,LOW(128)
000a0a 93e0 04c6 	STS  1222,R30
                 ; 0006 02AB SET_407E1;
000a0c e2e0      	LDI  R30,LOW(32)
000a0d 93e0 0445 	STS  1093,R30
                 ; 0006 02AC break;
000a0f c0f6      	RJMP _0xC0071
                 ; 0006 02AD 
                 ; 0006 02AE case 3:
                 _0xC0077:
000a10 30e3      	CPI  R30,LOW(0x3)
000a11 e0a0      	LDI  R26,HIGH(0x3)
000a12 07fa      	CPC  R31,R26
000a13 f011      	BREQ PC+3
000a14 940c 0a23 	JMP _0xC0078
                 ; 0006 02AF SET_407A0;
000a16 e2e0      	LDI  R30,LOW(32)
000a17 93e0 04c5 	STS  1221,R30
                 ; 0006 02B0 SET_407A1;
000a19 e4e0      	LDI  R30,LOW(64)
000a1a 93e0 04c5 	STS  1221,R30
                 ; 0006 02B1 CLR_407A2;
000a1c e8e0      	LDI  R30,LOW(128)
000a1d 93e0 04c6 	STS  1222,R30
                 ; 0006 02B2 SET_407E1;
000a1f e2e0      	LDI  R30,LOW(32)
000a20 93e0 0445 	STS  1093,R30
                 ; 0006 02B3 break;
000a22 c0e3      	RJMP _0xC0071
                 ; 0006 02B4 
                 ; 0006 02B5 case 4:
                 _0xC0078:
000a23 30e4      	CPI  R30,LOW(0x4)
000a24 e0a0      	LDI  R26,HIGH(0x4)
000a25 07fa      	CPC  R31,R26
000a26 f011      	BREQ PC+3
000a27 940c 0a36 	JMP _0xC0079
                 ; 0006 02B6 CLR_407A0;
000a29 e2e0      	LDI  R30,LOW(32)
000a2a 93e0 04c6 	STS  1222,R30
                 ; 0006 02B7 CLR_407A1;
000a2c e4e0      	LDI  R30,LOW(64)
000a2d 93e0 04c6 	STS  1222,R30
                 ; 0006 02B8 SET_407A2;
000a2f e8e0      	LDI  R30,LOW(128)
000a30 93e0 04c5 	STS  1221,R30
                 ; 0006 02B9 SET_407E1;
000a32 e2e0      	LDI  R30,LOW(32)
000a33 93e0 0445 	STS  1093,R30
                 ; 0006 02BA break;
000a35 c0d0      	RJMP _0xC0071
                 ; 0006 02BB 
                 ; 0006 02BC case 5:
                 _0xC0079:
000a36 30e5      	CPI  R30,LOW(0x5)
000a37 e0a0      	LDI  R26,HIGH(0x5)
000a38 07fa      	CPC  R31,R26
000a39 f011      	BREQ PC+3
000a3a 940c 0a49 	JMP _0xC007A
                 ; 0006 02BD SET_407A0;
000a3c e2e0      	LDI  R30,LOW(32)
000a3d 93e0 04c5 	STS  1221,R30
                 ; 0006 02BE CLR_407A1;
000a3f e4e0      	LDI  R30,LOW(64)
000a40 93e0 04c6 	STS  1222,R30
                 ; 0006 02BF SET_407A2;
000a42 e8e0      	LDI  R30,LOW(128)
000a43 93e0 04c5 	STS  1221,R30
                 ; 0006 02C0 SET_407E1;
000a45 e2e0      	LDI  R30,LOW(32)
000a46 93e0 0445 	STS  1093,R30
                 ; 0006 02C1 break;
000a48 c0bd      	RJMP _0xC0071
                 ; 0006 02C2 
                 ; 0006 02C3 case 6:
                 _0xC007A:
000a49 30e6      	CPI  R30,LOW(0x6)
000a4a e0a0      	LDI  R26,HIGH(0x6)
000a4b 07fa      	CPC  R31,R26
000a4c f011      	BREQ PC+3
000a4d 940c 0a5c 	JMP _0xC007B
                 ; 0006 02C4 CLR_407A0;
000a4f e2e0      	LDI  R30,LOW(32)
000a50 93e0 04c6 	STS  1222,R30
                 ; 0006 02C5 SET_407A1;
000a52 e4e0      	LDI  R30,LOW(64)
000a53 93e0 04c5 	STS  1221,R30
                 ; 0006 02C6 SET_407A2;
000a55 e8e0      	LDI  R30,LOW(128)
000a56 93e0 04c5 	STS  1221,R30
                 ; 0006 02C7 SET_407E1;
000a58 e2e0      	LDI  R30,LOW(32)
000a59 93e0 0445 	STS  1093,R30
                 ; 0006 02C8 break;
000a5b c0aa      	RJMP _0xC0071
                 ; 0006 02C9 
                 ; 0006 02CA case 7:
                 _0xC007B:
000a5c 30e7      	CPI  R30,LOW(0x7)
000a5d e0a0      	LDI  R26,HIGH(0x7)
000a5e 07fa      	CPC  R31,R26
000a5f f011      	BREQ PC+3
000a60 940c 0a6f 	JMP _0xC007C
                 ; 0006 02CB SET_407A0;
000a62 e2e0      	LDI  R30,LOW(32)
000a63 93e0 04c5 	STS  1221,R30
                 ; 0006 02CC SET_407A1;
000a65 e4e0      	LDI  R30,LOW(64)
000a66 93e0 04c5 	STS  1221,R30
                 ; 0006 02CD SET_407A2;
000a68 e8e0      	LDI  R30,LOW(128)
000a69 93e0 04c5 	STS  1221,R30
                 ; 0006 02CE SET_407E1;
000a6b e2e0      	LDI  R30,LOW(32)
000a6c 93e0 0445 	STS  1093,R30
                 ; 0006 02CF break;
000a6e c097      	RJMP _0xC0071
                 ; 0006 02D0 
                 ; 0006 02D1 case 8:
                 _0xC007C:
000a6f 30e8      	CPI  R30,LOW(0x8)
000a70 e0a0      	LDI  R26,HIGH(0x8)
000a71 07fa      	CPC  R31,R26
000a72 f011      	BREQ PC+3
000a73 940c 0a82 	JMP _0xC007D
                 ; 0006 02D2 CLR_407A0;
000a75 e2e0      	LDI  R30,LOW(32)
000a76 93e0 04c6 	STS  1222,R30
                 ; 0006 02D3 CLR_407A1;
000a78 e4e0      	LDI  R30,LOW(64)
000a79 93e0 04c6 	STS  1222,R30
                 ; 0006 02D4 CLR_407A2;
000a7b e8e0      	LDI  R30,LOW(128)
000a7c 93e0 04c6 	STS  1222,R30
                 ; 0006 02D5 SET_407E2;
000a7e e4e0      	LDI  R30,LOW(64)
000a7f 93e0 0445 	STS  1093,R30
                 ; 0006 02D6 break;
000a81 c084      	RJMP _0xC0071
                 ; 0006 02D7 
                 ; 0006 02D8 case 9:
                 _0xC007D:
000a82 30e9      	CPI  R30,LOW(0x9)
000a83 e0a0      	LDI  R26,HIGH(0x9)
000a84 07fa      	CPC  R31,R26
000a85 f011      	BREQ PC+3
000a86 940c 0a95 	JMP _0xC007E
                 ; 0006 02D9 SET_407A0;
000a88 e2e0      	LDI  R30,LOW(32)
000a89 93e0 04c5 	STS  1221,R30
                 ; 0006 02DA CLR_407A1;
000a8b e4e0      	LDI  R30,LOW(64)
000a8c 93e0 04c6 	STS  1222,R30
                 ; 0006 02DB CLR_407A2;
000a8e e8e0      	LDI  R30,LOW(128)
000a8f 93e0 04c6 	STS  1222,R30
                 ; 0006 02DC SET_407E2;
000a91 e4e0      	LDI  R30,LOW(64)
000a92 93e0 0445 	STS  1093,R30
                 ; 0006 02DD break;
000a94 c071      	RJMP _0xC0071
                 ; 0006 02DE 
                 ; 0006 02DF case 10:
                 _0xC007E:
000a95 30ea      	CPI  R30,LOW(0xA)
000a96 e0a0      	LDI  R26,HIGH(0xA)
000a97 07fa      	CPC  R31,R26
000a98 f011      	BREQ PC+3
000a99 940c 0aa8 	JMP _0xC007F
                 ; 0006 02E0 CLR_407A0;
000a9b e2e0      	LDI  R30,LOW(32)
000a9c 93e0 04c6 	STS  1222,R30
                 ; 0006 02E1 SET_407A1;
000a9e e4e0      	LDI  R30,LOW(64)
000a9f 93e0 04c5 	STS  1221,R30
                 ; 0006 02E2 CLR_407A2;
000aa1 e8e0      	LDI  R30,LOW(128)
000aa2 93e0 04c6 	STS  1222,R30
                 ; 0006 02E3 SET_407E2;
000aa4 e4e0      	LDI  R30,LOW(64)
000aa5 93e0 0445 	STS  1093,R30
                 ; 0006 02E4 break;
000aa7 c05e      	RJMP _0xC0071
                 ; 0006 02E5 
                 ; 0006 02E6 case 11:
                 _0xC007F:
000aa8 30eb      	CPI  R30,LOW(0xB)
000aa9 e0a0      	LDI  R26,HIGH(0xB)
000aaa 07fa      	CPC  R31,R26
000aab f011      	BREQ PC+3
000aac 940c 0abb 	JMP _0xC0080
                 ; 0006 02E7 SET_407A0;
000aae e2e0      	LDI  R30,LOW(32)
000aaf 93e0 04c5 	STS  1221,R30
                 ; 0006 02E8 SET_407A1;
000ab1 e4e0      	LDI  R30,LOW(64)
000ab2 93e0 04c5 	STS  1221,R30
                 ; 0006 02E9 CLR_407A2;
000ab4 e8e0      	LDI  R30,LOW(128)
000ab5 93e0 04c6 	STS  1222,R30
                 ; 0006 02EA SET_407E2;
000ab7 e4e0      	LDI  R30,LOW(64)
000ab8 93e0 0445 	STS  1093,R30
                 ; 0006 02EB break;
000aba c04b      	RJMP _0xC0071
                 ; 0006 02EC 
                 ; 0006 02ED case 12:
                 _0xC0080:
000abb 30ec      	CPI  R30,LOW(0xC)
000abc e0a0      	LDI  R26,HIGH(0xC)
000abd 07fa      	CPC  R31,R26
000abe f011      	BREQ PC+3
000abf 940c 0ace 	JMP _0xC0081
                 ; 0006 02EE CLR_407A0;
000ac1 e2e0      	LDI  R30,LOW(32)
000ac2 93e0 04c6 	STS  1222,R30
                 ; 0006 02EF CLR_407A1;
000ac4 e4e0      	LDI  R30,LOW(64)
000ac5 93e0 04c6 	STS  1222,R30
                 ; 0006 02F0 SET_407A2;
000ac7 e8e0      	LDI  R30,LOW(128)
000ac8 93e0 04c5 	STS  1221,R30
                 ; 0006 02F1 SET_407E2;
000aca e4e0      	LDI  R30,LOW(64)
000acb 93e0 0445 	STS  1093,R30
                 ; 0006 02F2 break;
000acd c038      	RJMP _0xC0071
                 ; 0006 02F3 
                 ; 0006 02F4 case 13:
                 _0xC0081:
000ace 30ed      	CPI  R30,LOW(0xD)
000acf e0a0      	LDI  R26,HIGH(0xD)
000ad0 07fa      	CPC  R31,R26
000ad1 f011      	BREQ PC+3
000ad2 940c 0ae1 	JMP _0xC0082
                 ; 0006 02F5 SET_407A0;
000ad4 e2e0      	LDI  R30,LOW(32)
000ad5 93e0 04c5 	STS  1221,R30
                 ; 0006 02F6 CLR_407A1;
000ad7 e4e0      	LDI  R30,LOW(64)
000ad8 93e0 04c6 	STS  1222,R30
                 ; 0006 02F7 SET_407A2;
000ada e8e0      	LDI  R30,LOW(128)
000adb 93e0 04c5 	STS  1221,R30
                 ; 0006 02F8 SET_407E2;
000add e4e0      	LDI  R30,LOW(64)
000ade 93e0 0445 	STS  1093,R30
                 ; 0006 02F9 break;
000ae0 c025      	RJMP _0xC0071
                 ; 0006 02FA 
                 ; 0006 02FB case 14:         // Set cal 1K
                 _0xC0082:
000ae1 30ee      	CPI  R30,LOW(0xE)
000ae2 e0a0      	LDI  R26,HIGH(0xE)
000ae3 07fa      	CPC  R31,R26
000ae4 f011      	BREQ PC+3
000ae5 940c 0af4 	JMP _0xC0083
                 ; 0006 02FC CLR_407A0;
000ae7 e2e0      	LDI  R30,LOW(32)
000ae8 93e0 04c6 	STS  1222,R30
                 ; 0006 02FD SET_407A1;
000aea e4e0      	LDI  R30,LOW(64)
000aeb 93e0 04c5 	STS  1221,R30
                 ; 0006 02FE SET_407A2;
000aed e8e0      	LDI  R30,LOW(128)
000aee 93e0 04c5 	STS  1221,R30
                 ; 0006 02FF SET_407E2;
000af0 e4e0      	LDI  R30,LOW(64)
000af1 93e0 0445 	STS  1093,R30
                 ; 0006 0300 break;
000af3 c012      	RJMP _0xC0071
                 ; 0006 0301 
                 ; 0006 0302 case 15:         // not used
                 _0xC0083:
000af4 30ef      	CPI  R30,LOW(0xF)
000af5 e0a0      	LDI  R26,HIGH(0xF)
000af6 07fa      	CPC  R31,R26
000af7 f011      	BREQ PC+3
000af8 940c 09d8 	JMP _0xC0073
                 ; 0006 0303 SET_407A0;
000afa e2e0      	LDI  R30,LOW(32)
000afb 93e0 04c5 	STS  1221,R30
                 ; 0006 0304 SET_407A1;
000afd e4e0      	LDI  R30,LOW(64)
000afe 93e0 04c5 	STS  1221,R30
                 ; 0006 0305 SET_407A2;
000b00 e8e0      	LDI  R30,LOW(128)
000b01 93e0 04c5 	STS  1221,R30
                 ; 0006 0306 SET_407E2;
000b03 e4e0      	LDI  R30,LOW(64)
000b04 93e0 0445 	STS  1093,R30
                 ; 0006 0307 break;
                 ; 0006 0308 }
                 _0xC0071:
                 ; 0006 0309 }
                 _0xC006E:
                 ; 0006 030A }
000b06 9119      	LD   R17,Y+
000b07 9508      	RET
                 ; .FEND
                 ;void SetSupplyCurrent(unsigned char current)
                 ; 0006 0312 {
                 _SetSupplyCurrent:
                 ; .FSTART _SetSupplyCurrent
                 ; 0006 0313 if ( current == 10 )
000b08 931a      	ST   -Y,R17
000b09 2f1a      	MOV  R17,R26
                 ;	current -> R17
000b0a 301a      	CPI  R17,10
000b0b f011      	BREQ PC+3
000b0c 940c 0b12 	JMP _0xC0085
                 ; 0006 0314 {
                 ; 0006 0315 CUR_10MA;                    /* set 10 mA */
000b0e e0e4      	LDI  R30,LOW(4)
000b0f 93e0 04a6 	STS  1190,R30
                 ; 0006 0316 }
                 ; 0006 0317 else
000b11 c003      	RJMP _0xC0086
                 _0xC0085:
                 ; 0006 0318 {
                 ; 0006 0319 CUR_1MA ;                    /* set 1 mA */
000b12 e0e4      	LDI  R30,LOW(4)
000b13 93e0 04a5 	STS  1189,R30
                 ; 0006 031A }
                 _0xC0086:
                 ; 0006 031B }
000b15 9119      	LD   R17,Y+
000b16 9508      	RET
                 ; .FEND
                 ;void SetCalResistance(unsigned char value)
                 ; 0006 0324 {
                 _SetCalResistance:
                 ; .FSTART _SetCalResistance
                 ; 0006 0325 switch ( value )
000b17 931a      	ST   -Y,R17
000b18 2f1a      	MOV  R17,R26
                 ;	value -> R17
000b19 2fe1      	MOV  R30,R17
000b1a e0f0      	LDI  R31,0
                 ; 0006 0326 {
                 ; 0006 0327 case OHM_1R :   // 1 ohm resistor
000b1b 34e0      	CPI  R30,LOW(0x40)
000b1c e0a0      	LDI  R26,HIGH(0x40)
000b1d 07fa      	CPC  R31,R26
000b1e f011      	BREQ PC+3
000b1f 940c 0b28 	JMP _0xC008A
                 ; 0006 0328 SET_RES1R ;
000b21 e1e0      	LDI  R30,LOW(16)
000b22 93e0 04a5 	STS  1189,R30
                 ; 0006 0329 CLR_RES1K ;
000b24 e0e8      	LDI  R30,LOW(8)
000b25 93e0 04a6 	STS  1190,R30
                 ; 0006 032A break ;
000b27 c013      	RJMP _0xC0089
                 ; 0006 032B case OHM_1K :  // 1000 ohm resistor
                 _0xC008A:
000b28 38e0      	CPI  R30,LOW(0x80)
000b29 e0a0      	LDI  R26,HIGH(0x80)
000b2a 07fa      	CPC  R31,R26
000b2b f011      	BREQ PC+3
000b2c 940c 0b35 	JMP _0xC008C
                 ; 0006 032C SET_RES1K ;
000b2e e0e8      	LDI  R30,LOW(8)
000b2f 93e0 04a5 	STS  1189,R30
                 ; 0006 032D CLR_RES1R ;
000b31 e1e0      	LDI  R30,LOW(16)
000b32 93e0 04a6 	STS  1190,R30
                 ; 0006 032E break ;
000b34 c006      	RJMP _0xC0089
                 ; 0006 032F default :     // both off
                 _0xC008C:
                 ; 0006 0330 CLR_RES1R ;
000b35 e1e0      	LDI  R30,LOW(16)
000b36 93e0 04a6 	STS  1190,R30
                 ; 0006 0331 CLR_RES1K;
000b38 e0e8      	LDI  R30,LOW(8)
000b39 93e0 04a6 	STS  1190,R30
                 ; 0006 0332 break ;
                 ; 0006 0333 }
                 _0xC0089:
                 ; 0006 0334 }
000b3b 9119      	LD   R17,Y+
000b3c 9508      	RET
                 ; .FEND
                 ;void CheckConvert(void)
                 ; 0006 033B {
                 _CheckConvert:
                 ; .FSTART _CheckConvert
                 ; 0006 033C 
                 ; 0006 033D if ( ad_state == IDLE ) {            /* New channel? */
000b3d 91a0 6bca 	LDS  R26,_ad_state
000b3f 30a7      	CPI  R26,LOW(0x7)
000b40 f011      	BREQ PC+3
000b41 940c 0c15 	JMP _0xC008D
                 ; 0006 033E ad_state = START_NEW_POINT ;
000b43 e0e1      	LDI  R30,LOW(1)
000b44 93e0 6bca 	STS  _ad_state,R30
                 ; 0006 033F if ( curr_ad_ch < (NOIOCH-1) )
000b46 91a0 6bc8 	LDS  R26,_curr_ad_ch
000b48 30ad      	CPI  R26,LOW(0xD)
000b49 f014      	BRLT PC+3
000b4a 940c 0b56 	JMP _0xC008E
                 ; 0006 0340 {   old_curr_ad_ch= curr_ad_ch; // debugg
000b4c 91e0 6bc8 	LDS  R30,_curr_ad_ch
000b4e 93e0 6bc9 	STS  _old_curr_ad_ch,R30
                 ; 0006 0341 curr_ad_ch++ ;
000b50 91e0 6bc8 	LDS  R30,_curr_ad_ch
000b52 5fef      	SUBI R30,-LOW(1)
000b53 93e0 6bc8 	STS  _curr_ad_ch,R30
                 ; 0006 0342 }
                 ; 0006 0343 else
000b55 c0bf      	RJMP _0xC008F
                 _0xC008E:
                 ; 0006 0344 {
                 ; 0006 0345 curr_ad_ch = 0 ;
000b56 e0e0      	LDI  R30,LOW(0)
000b57 93e0 6bc8 	STS  _curr_ad_ch,R30
                 ; 0006 0346 if ( !time_e_cnt ) {
000b59 91e0 6ae8 	LDS  R30,_time_e_cnt
000b5b 30e0      	CPI  R30,0
000b5c f011      	BREQ PC+3
000b5d 940c 0b6f 	JMP _0xC0090
                 ; 0006 0347 if ( ad_mode & 0x80 ) {               /* test */
000b5f 91e0 6bcb 	LDS  R30,_ad_mode
000b61 78e0      	ANDI R30,LOW(0x80)
000b62 f411      	BRNE PC+3
000b63 940c 0b6a 	JMP _0xC0091
                 ; 0006 0348 ad_mode &= ~0x80 ;              /* test mode off */
000b65 91e0 6bcb 	LDS  R30,_ad_mode
000b67 77ef      	ANDI R30,0x7F
000b68 93e0 6bcb 	STS  _ad_mode,R30
                 ; 0006 0349 }
                 ; 0006 034A CheckEepChannel()   ;                   /* Check the sensordata */
                 _0xC0091:
000b6a 940e 2eab 	CALL _CheckEepChannel
                 ; 0006 034B time_e_cnt = TIME_BETWEEN_EEP ;
000b6c e0ef      	LDI  R30,LOW(15)
000b6d 93e0 6ae8 	STS  _time_e_cnt,R30
                 ; 0006 034C }
                 ; 0006 034D if ( not_mes_data && (ad_mode & 0x02) )
                 _0xC0090:
000b6f 91e0 6bc5 	LDS  R30,_not_mes_data
000b71 30e0      	CPI  R30,0
000b72 f411      	BRNE PC+3
000b73 940c 0b7c 	JMP _0xC0093
000b75 91e0 6bcb 	LDS  R30,_ad_mode
000b77 70e2      	ANDI R30,LOW(0x2)
000b78 f411      	BRNE PC+3
000b79 940c 0b7c 	JMP _0xC0093
000b7b c001      	RJMP _0xC0094
                 _0xC0093:
000b7c c013      	RJMP _0xC0092
                 _0xC0094:
                 ; 0006 034E {     /* autosend? */
                 ; 0006 034F BuildHeader() ;                     /* Build send packet header */
000b7d 940e 23ab 	CALL _BuildHeader
                 ; 0006 0350 BuildMPData();                      /* Build data p. for pressure */
000b7f 940e 23f3 	CALL _BuildMPData
                 ; 0006 0351 BuildMTData();                      /* Build data p. for temp */
000b81 940e 2485 	CALL _BuildMTData
                 ; 0006 0352 BuildMOData();                      /* Build data p. for other */
000b83 940e 2517 	CALL _BuildMOData
                 ; 0006 0353 BuildTail(NO_MORE_DATA, 0) ;    /* Build tail */
000b85 e0e0      	LDI  R30,LOW(0)
000b86 93ea      	ST   -Y,R30
000b87 e0a0      	LDI  R26,LOW(0)
000b88 940e 29b8 	CALL _BuildTail
                 ; 0006 0354 not_mes_data-- ;
000b8a 91e0 6bc5 	LDS  R30,_not_mes_data
000b8c 50e1      	SUBI R30,LOW(1)
000b8d 93e0 6bc5 	STS  _not_mes_data,R30
                 ; 0006 0355 }
                 ; 0006 0356 else if ( not_raw_data && (ad_mode & 0x02) )
000b8f c03d      	RJMP _0xC0095
                 _0xC0092:
000b90 91e0 6bc6 	LDS  R30,_not_raw_data
000b92 30e0      	CPI  R30,0
000b93 f411      	BRNE PC+3
000b94 940c 0b9d 	JMP _0xC0097
000b96 91e0 6bcb 	LDS  R30,_ad_mode
000b98 70e2      	ANDI R30,LOW(0x2)
000b99 f411      	BRNE PC+3
000b9a 940c 0b9d 	JMP _0xC0097
000b9c c001      	RJMP _0xC0098
                 _0xC0097:
000b9d c013      	RJMP _0xC0096
                 _0xC0098:
                 ; 0006 0357 {  /* autosend? */
                 ; 0006 0358 BuildHeader() ;                     /* Build send packet header */
000b9e 940e 23ab 	CALL _BuildHeader
                 ; 0006 0359 BuildRPData();                      /* Build data p. for pressure */
000ba0 940e 264d 	CALL _BuildRPData
                 ; 0006 035A BuildRTData();                      /* Build data p. for temp */
000ba2 940e 26ce 	CALL _BuildRTData
                 ; 0006 035B BuildROData();                      /* Build data p. for other */
000ba4 940e 274f 	CALL _BuildROData
                 ; 0006 035C BuildTail(NO_MORE_DATA, 0) ;    /* Build tail */
000ba6 e0e0      	LDI  R30,LOW(0)
000ba7 93ea      	ST   -Y,R30
000ba8 e0a0      	LDI  R26,LOW(0)
000ba9 940e 29b8 	CALL _BuildTail
                 ; 0006 035D not_raw_data-- ;
000bab 91e0 6bc6 	LDS  R30,_not_raw_data
000bad 50e1      	SUBI R30,LOW(1)
000bae 93e0 6bc6 	STS  _not_raw_data,R30
                 ; 0006 035E }
                 ; 0006 035F else if ( not_cal_data && (ad_mode & 0x02) ) {  /* autosend? */
000bb0 c01c      	RJMP _0xC0099
                 _0xC0096:
000bb1 91e0 6bc7 	LDS  R30,_not_cal_data
000bb3 30e0      	CPI  R30,0
000bb4 f411      	BRNE PC+3
000bb5 940c 0bbe 	JMP _0xC009B
000bb7 91e0 6bcb 	LDS  R30,_ad_mode
000bb9 70e2      	ANDI R30,LOW(0x2)
000bba f411      	BRNE PC+3
000bbb 940c 0bbe 	JMP _0xC009B
000bbd c001      	RJMP _0xC009C
                 _0xC009B:
000bbe c00e      	RJMP _0xC009A
                 _0xC009C:
                 ; 0006 0360 BuildHeader() ;                     /* Build send packet header */
000bbf 940e 23ab 	CALL _BuildHeader
                 ; 0006 0361 BuildCalData();                     /* Build data p. for calib */
000bc1 940e 27d0 	CALL _BuildCalData
                 ; 0006 0362 BuildTail(NO_MORE_DATA, 0) ;    /* Build tail */
000bc3 e0e0      	LDI  R30,LOW(0)
000bc4 93ea      	ST   -Y,R30
000bc5 e0a0      	LDI  R26,LOW(0)
000bc6 940e 29b8 	CALL _BuildTail
                 ; 0006 0363 not_cal_data-- ;
000bc8 91e0 6bc7 	LDS  R30,_not_cal_data
000bca 50e1      	SUBI R30,LOW(1)
000bcb 93e0 6bc7 	STS  _not_cal_data,R30
                 ; 0006 0364 }
                 ; 0006 0365 if ( ad_mode & 0x08 )
                 _0xC009A:
                 _0xC0099:
                 _0xC0095:
000bcd 91e0 6bcb 	LDS  R30,_ad_mode
000bcf 70e8      	ANDI R30,LOW(0x8)
000bd0 f411      	BRNE PC+3
000bd1 940c 0bdf 	JMP _0xC009D
                 ; 0006 0366 {           /* temp readings */
                 ; 0006 0367 ad_mode &= ~0x0e ;
000bd3 91e0 6bcb 	LDS  R30,_ad_mode
000bd5 7fe1      	ANDI R30,LOW(0xF1)
000bd6 93e0 6bcb 	STS  _ad_mode,R30
                 ; 0006 0368 ad_mode |= 0x02 ;
000bd8 60e2      	ORI  R30,2
000bd9 93e0 6bcb 	STS  _ad_mode,R30
                 ; 0006 0369 ad_state = START_CALIBRATION ;
000bdb e0e4      	LDI  R30,LOW(4)
000bdc 93e0 6bca 	STS  _ad_state,R30
                 ; 0006 036A }
                 ; 0006 036B else if ( ad_mode & 0x04 )
000bde c036      	RJMP _0xC009E
                 _0xC009D:
000bdf 91e0 6bcb 	LDS  R30,_ad_mode
000be1 70e4      	ANDI R30,LOW(0x4)
000be2 f411      	BRNE PC+3
000be3 940c 0bf1 	JMP _0xC009F
                 ; 0006 036C {    /* "other" */
                 ; 0006 036D ad_mode &= ~0x0e ;
000be5 91e0 6bcb 	LDS  R30,_ad_mode
000be7 7fe1      	ANDI R30,LOW(0xF1)
000be8 93e0 6bcb 	STS  _ad_mode,R30
                 ; 0006 036E ad_mode |= 0x08 ;
000bea 60e8      	ORI  R30,8
000beb 93e0 6bcb 	STS  _ad_mode,R30
                 ; 0006 036F ad_state = START_CALIBRATION ;
000bed e0e4      	LDI  R30,LOW(4)
000bee 93e0 6bca 	STS  _ad_state,R30
                 ; 0006 0370 }
                 ; 0006 0371 else if ( ad_mode & 0x02 )
000bf0 c024      	RJMP _0xC00A0
                 _0xC009F:
000bf1 91e0 6bcb 	LDS  R30,_ad_mode
000bf3 70e2      	ANDI R30,LOW(0x2)
000bf4 f411      	BRNE PC+3
000bf5 940c 0c0d 	JMP _0xC00A1
                 ; 0006 0372 {            /* pressure */
                 ; 0006 0373 if ( !time_b_cnt )
000bf7 91e0 6ae7 	LDS  R30,_time_b_cnt
000bf9 30e0      	CPI  R30,0
000bfa f011      	BREQ PC+3
000bfb 940c 0c0c 	JMP _0xC00A2
                 ; 0006 0374 {
                 ; 0006 0375 ad_mode &= ~0x0e ;
000bfd 91e0 6bcb 	LDS  R30,_ad_mode
000bff 7fe1      	ANDI R30,LOW(0xF1)
000c00 93e0 6bcb 	STS  _ad_mode,R30
                 ; 0006 0376 ad_mode |= 0x04 ;                   /* convert temp */
000c02 60e4      	ORI  R30,4
000c03 93e0 6bcb 	STS  _ad_mode,R30
                 ; 0006 0377 ad_state = START_CALIBRATION ;
000c05 e0e4      	LDI  R30,LOW(4)
000c06 93e0 6bca 	STS  _ad_state,R30
                 ; 0006 0378 time_b_cnt = time_b_temp ;      /* reload counter */
000c08 91e0 6ae6 	LDS  R30,_time_b_temp
000c0a 93e0 6ae7 	STS  _time_b_cnt,R30
                 ; 0006 0379 }
                 ; 0006 037A }
                 _0xC00A2:
                 ; 0006 037B else
000c0c c008      	RJMP _0xC00A3
                 _0xC00A1:
                 ; 0006 037C {
                 ; 0006 037D ad_mode &= ~0x0e ;
000c0d 91e0 6bcb 	LDS  R30,_ad_mode
000c0f 7fe1      	ANDI R30,LOW(0xF1)
000c10 93e0 6bcb 	STS  _ad_mode,R30
                 ; 0006 037E ad_mode |= 0x04 ;                       /* next pressure */
000c12 60e4      	ORI  R30,4
000c13 93e0 6bcb 	STS  _ad_mode,R30
                 ; 0006 037F }
                 _0xC00A3:
                 _0xC00A0:
                 _0xC009E:
                 ; 0006 0380 }
                 _0xC008F:
                 ; 0006 0381 }
                 ; 0006 0382 if ( tx_complete ) {
                 _0xC008D:
000c15 91e0 6bec 	LDS  R30,_tx_complete
000c17 30e0      	CPI  R30,0
000c18 f411      	BRNE PC+3
000c19 940c 0c1d 	JMP _0xC00A4
                 ; 0006 0383 ADConvert() ;                                   /* convert data */
000c1b 940e 0c1e 	CALL _ADConvert
                 ; 0006 0384 }
                 ; 0006 0385 }
                 _0xC00A4:
000c1d 9508      	RET
                 ; .FEND
                 ;void ADConvert(void)
                 ; 0006 038E {
                 _ADConvert:
                 ; .FSTART _ADConvert
                 ; 0006 038F unsigned short ad_data ;
                 ; 0006 0390 unsigned char tmpSwitch;
                 ; 0006 0391 switch ( ad_state )
000c1e 940e 3153 	CALL __SAVELOCR4
                 ;	ad_data -> R16,R17
                 ;	tmpSwitch -> R19
000c20 91e0 6bca 	LDS  R30,_ad_state
000c22 e0f0      	LDI  R31,0
                 ; 0006 0392 {
                 ; 0006 0393 case    START_NEW_POINT :
000c23 30e1      	CPI  R30,LOW(0x1)
000c24 e0a0      	LDI  R26,HIGH(0x1)
000c25 07fa      	CPC  R31,R26
000c26 f011      	BREQ PC+3
000c27 940c 0cd9 	JMP _0xC00A8
                 ; 0006 0394 ad_mode &= ~0x01 ;                           /* reset tx check marker */
000c29 91e0 6bcb 	LDS  R30,_ad_mode
000c2b 7fee      	ANDI R30,0xFE
000c2c 93e0 6bcb 	STS  _ad_mode,R30
                 ; 0006 0395 ad_timeout_cnt = AD_TIMEOUT ;                   /* timeout ad cnv */
000c2e ede0      	LDI  R30,LOW(2000)
000c2f e0f7      	LDI  R31,HIGH(2000)
000c30 93e0 6ae9 	STS  _ad_timeout_cnt,R30
000c32 93f0 6aea 	STS  _ad_timeout_cnt+1,R31
                 ; 0006 0396 tmpSwitch = (ch_stat[curr_ad_ch]>> 2) & 0x03;
000c34 91e0 6bc8 	LDS  R30,_curr_ad_ch
000c36 e0f0      	LDI  R31,0
000c37 52ef      	SUBI R30,LOW(-_ch_stat)
000c38 49f4      	SBCI R31,HIGH(-_ch_stat)
000c39 81e0      	LD   R30,Z
000c3a 95e6      	LSR  R30
000c3b 95e6      	LSR  R30
000c3c 70e3      	ANDI R30,LOW(0x3)
000c3d 2f3e      	MOV  R19,R30
                 ; 0006 0397 //switch ( (ch_stat[curr_ad_ch]>> 2) & 0x03 ) { // OLDCODE
                 ; 0006 0398 switch (tmpSwitch )
000c3e e0f0      	LDI  R31,0
                 ; 0006 0399 {
                 ; 0006 039A case 0x03 :              /* pressure */
000c3f 30e3      	CPI  R30,LOW(0x3)
000c40 e0a0      	LDI  R26,HIGH(0x3)
000c41 07fa      	CPC  R31,R26
000c42 f011      	BREQ PC+3
000c43 940c 0c71 	JMP _0xC00AC
                 ; 0006 039B if ( ad_mode & 0x02 ) {                       /* pressure readings */
000c45 91e0 6bcb 	LDS  R30,_ad_mode
000c47 70e2      	ANDI R30,LOW(0x2)
000c48 f411      	BRNE PC+3
000c49 940c 0c6d 	JMP _0xC00AD
                 ; 0006 039C SetCalResistance(OHM_1R);
000c4b e4a0      	LDI  R26,LOW(64)
000c4c 940e 0b17 	CALL _SetCalResistance
                 ; 0006 039D SetSupplyChannel(curr_ad_ch) ;
000c4e 91a0 6bc8 	LDS  R26,_curr_ad_ch
000c50 940e 07a7 	CALL _SetSupplyChannel
                 ; 0006 039E SetSupplyCurrent(10) ;  // 10mA
000c52 e0aa      	LDI  R26,LOW(10)
000c53 940e 0b08 	CALL _SetSupplyCurrent
                 ; 0006 039F SetMuxChannel(curr_ad_ch) ;
000c55 91a0 6bc8 	LDS  R26,_curr_ad_ch
000c57 940e 09c2 	CALL _SetMuxChannel
                 ; 0006 03A0 ad_gain = 3 ;
000c59 e0e3      	LDI  R30,LOW(3)
000c5a 93e0 6bd0 	STS  _ad_gain,R30
                 ; 0006 03A1 spi1_master_tx_rx(ad_gain | 0x10) ; // Next write SetupRegister
000c5c 61e0      	ORI  R30,0x10
000c5d 2fae      	MOV  R26,R30
000c5e 940e 0576 	CALL _spi1_master_tx_rx
                 ; 0006 03A2 //spi1_master_tx_rx(0x2a) ;         // Ad setup data, bipolar
                 ; 0006 03A3 spi1_master_tx_rx(0b00011000) ;       // MD1&0:00, CLK=0 FS1&9 11 B/U:0 BUF=0 FSYNC 0
000c60 e1a8      	LDI  R26,LOW(24)
000c61 940e 0576 	CALL _spi1_master_tx_rx
                 ; 0006 03A4 ad_settling = AD_SET_TIME ;         /* wait 67 ms */
000c63 e4e3      	LDI  R30,LOW(67)
000c64 e0f0      	LDI  R31,HIGH(67)
000c65 93e0 6bce 	STS  _ad_settling,R30
000c67 93f0 6bcf 	STS  _ad_settling+1,R31
                 ; 0006 03A5 ad_state = WAIT_FOR_INTERRUPT ;         /* next state */
000c69 e0e2      	LDI  R30,LOW(2)
000c6a 93e0 6bca 	STS  _ad_state,R30
                 ; 0006 03A6 } else {
000c6c c003      	RJMP _0xC00AE
                 _0xC00AD:
                 ; 0006 03A7 ad_state = IDLE ;
000c6d e0e7      	LDI  R30,LOW(7)
000c6e 93e0 6bca 	STS  _ad_state,R30
                 ; 0006 03A8 }
                 _0xC00AE:
                 ; 0006 03A9 break;
000c70 c067      	RJMP _0xC00AB
                 ; 0006 03AA case 0x02 :               /* "OTHER " */
                 _0xC00AC:
000c71 30e2      	CPI  R30,LOW(0x2)
000c72 e0a0      	LDI  R26,HIGH(0x2)
000c73 07fa      	CPC  R31,R26
000c74 f011      	BREQ PC+3
000c75 940c 0ca3 	JMP _0xC00AF
                 ; 0006 03AB if ( ad_mode & 0x04 ) {                       /* other readings */
000c77 91e0 6bcb 	LDS  R30,_ad_mode
000c79 70e4      	ANDI R30,LOW(0x4)
000c7a f411      	BRNE PC+3
000c7b 940c 0c9f 	JMP _0xC00B0
                 ; 0006 03AC SetCalResistance(OHM_1K);
000c7d e8a0      	LDI  R26,LOW(128)
000c7e 940e 0b17 	CALL _SetCalResistance
                 ; 0006 03AD SetSupplyChannel(curr_ad_ch) ;
000c80 91a0 6bc8 	LDS  R26,_curr_ad_ch
000c82 940e 07a7 	CALL _SetSupplyChannel
                 ; 0006 03AE SetSupplyCurrent(1) ;
000c84 e0a1      	LDI  R26,LOW(1)
000c85 940e 0b08 	CALL _SetSupplyCurrent
                 ; 0006 03AF SetMuxChannel(curr_ad_ch) ;
000c87 91a0 6bc8 	LDS  R26,_curr_ad_ch
000c89 940e 09c2 	CALL _SetMuxChannel
                 ; 0006 03B0 ad_gain = 0 ;
000c8b e0e0      	LDI  R30,LOW(0)
000c8c 93e0 6bd0 	STS  _ad_gain,R30
                 ; 0006 03B1 spi1_master_tx_rx(ad_gain | 0x10) ;            /* Next write data */
000c8e 61e0      	ORI  R30,0x10
000c8f 2fae      	MOV  R26,R30
000c90 940e 0576 	CALL _spi1_master_tx_rx
                 ; 0006 03B2 //spi1_master_tx_rx(0x2a) ;                      /* Ad setup data */
                 ; 0006 03B3 spi1_master_tx_rx(0b00011000) ;       // MD1&0:00, CLK=0 FS1&9 11 B/U:0 BUF=0 FSYNC 0
000c92 e1a8      	LDI  R26,LOW(24)
000c93 940e 0576 	CALL _spi1_master_tx_rx
                 ; 0006 03B4 ad_settling = AD_SET_TIME ;          /* wait 67 ms */
000c95 e4e3      	LDI  R30,LOW(67)
000c96 e0f0      	LDI  R31,HIGH(67)
000c97 93e0 6bce 	STS  _ad_settling,R30
000c99 93f0 6bcf 	STS  _ad_settling+1,R31
                 ; 0006 03B5 ad_state = WAIT_FOR_INTERRUPT ;          /* next state */
000c9b e0e2      	LDI  R30,LOW(2)
000c9c 93e0 6bca 	STS  _ad_state,R30
                 ; 0006 03B6 } else {
000c9e c003      	RJMP _0xC00B1
                 _0xC00B0:
                 ; 0006 03B7 ad_state = IDLE ;
000c9f e0e7      	LDI  R30,LOW(7)
000ca0 93e0 6bca 	STS  _ad_state,R30
                 ; 0006 03B8 }
                 _0xC00B1:
                 ; 0006 03B9 break;
000ca2 c035      	RJMP _0xC00AB
                 ; 0006 03BA case 0x01 :               /* temp */
                 _0xC00AF:
000ca3 30e1      	CPI  R30,LOW(0x1)
000ca4 e0a0      	LDI  R26,HIGH(0x1)
000ca5 07fa      	CPC  R31,R26
000ca6 f011      	BREQ PC+3
000ca7 940c 0cd5 	JMP _0xC00B5
                 ; 0006 03BB if ( ad_mode & 0x08 ) {                       /* convert temp? */
000ca9 91e0 6bcb 	LDS  R30,_ad_mode
000cab 70e8      	ANDI R30,LOW(0x8)
000cac f411      	BRNE PC+3
000cad 940c 0cd1 	JMP _0xC00B3
                 ; 0006 03BC SetCalResistance(OHM_1K);
000caf e8a0      	LDI  R26,LOW(128)
000cb0 940e 0b17 	CALL _SetCalResistance
                 ; 0006 03BD SetSupplyChannel(curr_ad_ch) ;
000cb2 91a0 6bc8 	LDS  R26,_curr_ad_ch
000cb4 940e 07a7 	CALL _SetSupplyChannel
                 ; 0006 03BE SetSupplyCurrent(1) ;
000cb6 e0a1      	LDI  R26,LOW(1)
000cb7 940e 0b08 	CALL _SetSupplyCurrent
                 ; 0006 03BF SetMuxChannel(curr_ad_ch) ;
000cb9 91a0 6bc8 	LDS  R26,_curr_ad_ch
000cbb 940e 09c2 	CALL _SetMuxChannel
                 ; 0006 03C0 ad_gain = 0 ;
000cbd e0e0      	LDI  R30,LOW(0)
000cbe 93e0 6bd0 	STS  _ad_gain,R30
                 ; 0006 03C1 spi1_master_tx_rx(ad_gain | 0x10) ;            /* Next write data */
000cc0 61e0      	ORI  R30,0x10
000cc1 2fae      	MOV  R26,R30
000cc2 940e 0576 	CALL _spi1_master_tx_rx
                 ; 0006 03C2 //spi1_master_tx_rx(0x2a) ;                     /* Ad setup data, bipolar*/
                 ; 0006 03C3 spi1_master_tx_rx(0b00011000) ;       // MD1&0:00, CLK=0 FS1&9 11 B/U:0 BUF=0 FSYNC 0
000cc4 e1a8      	LDI  R26,LOW(24)
000cc5 940e 0576 	CALL _spi1_master_tx_rx
                 ; 0006 03C4 ad_settling = AD_SET_TIME ;          /* wait 67 ms */
000cc7 e4e3      	LDI  R30,LOW(67)
000cc8 e0f0      	LDI  R31,HIGH(67)
000cc9 93e0 6bce 	STS  _ad_settling,R30
000ccb 93f0 6bcf 	STS  _ad_settling+1,R31
                 ; 0006 03C5 ad_state = WAIT_FOR_INTERRUPT ;          /* next state */
000ccd e0e2      	LDI  R30,LOW(2)
000cce 93e0 6bca 	STS  _ad_state,R30
                 ; 0006 03C6 } else {
000cd0 c003      	RJMP _0xC00B4
                 _0xC00B3:
                 ; 0006 03C7 ad_state = IDLE ;
000cd1 e0e7      	LDI  R30,LOW(7)
000cd2 93e0 6bca 	STS  _ad_state,R30
                 ; 0006 03C8 }
                 _0xC00B4:
                 ; 0006 03C9 break;
000cd4 c003      	RJMP _0xC00AB
                 ; 0006 03CA default :
                 _0xC00B5:
                 ; 0006 03CB ad_state = IDLE ;
000cd5 e0e7      	LDI  R30,LOW(7)
000cd6 93e0 6bca 	STS  _ad_state,R30
                 ; 0006 03CC break ;
                 ; 0006 03CD }
                 _0xC00AB:
                 ; 0006 03CE break ;
000cd8 c33d      	RJMP _0xC00A7
                 ; 0006 03CF case    WAIT_FOR_INTERRUPT :
                 _0xC00A8:
000cd9 30e2      	CPI  R30,LOW(0x2)
000cda e0a0      	LDI  R26,HIGH(0x2)
000cdb 07fa      	CPC  R31,R26
000cdc f011      	BREQ PC+3
000cdd 940c 0ce0 	JMP _0xC00B6
                 ; 0006 03D0 break ;
000cdf c336      	RJMP _0xC00A7
                 ; 0006 03D1 case    CONV_COMPLETE :
                 _0xC00B6:
000ce0 30e3      	CPI  R30,LOW(0x3)
000ce1 e0a0      	LDI  R26,HIGH(0x3)
000ce2 07fa      	CPC  R31,R26
000ce3 f011      	BREQ PC+3
000ce4 940c 0fb5 	JMP _0xC00B7
                 ; 0006 03D2 spi1_master_tx_rx(ad_gain | 0x38) ;                   /* Next read data */
000ce6 91e0 6bd0 	LDS  R30,_ad_gain
000ce8 63e8      	ORI  R30,LOW(0x38)
000ce9 2fae      	MOV  R26,R30
000cea 940e 0576 	CALL _spi1_master_tx_rx
                 ; 0006 03D3 ad_data = spi1_master_tx_rx(0xFF)* 256 ;              /* read data 16 bit data from ad */
000cec efaf      	LDI  R26,LOW(255)
000ced 940e 0576 	CALL _spi1_master_tx_rx
000cef 2ffe      	MOV  R31,R30
000cf0 e0e0      	LDI  R30,0
000cf1 018f      	MOVW R16,R30
                 ; 0006 03D4 ad_data += spi1_master_tx_rx(0xFF);
000cf2 efaf      	LDI  R26,LOW(255)
000cf3 940e 0576 	CALL _spi1_master_tx_rx
000cf5 e0f0      	LDI  R31,0
                +
000cf6 0f0e     +ADD R16 , R30
000cf7 1f1f     +ADC R17 , R31
                 	__ADDWRR 16,17,30,31
                 ; 0006 03D5 if ( ad_mode & 0x40 ) {                           /* cal point ? */
000cf8 91e0 6bcb 	LDS  R30,_ad_mode
000cfa 74e0      	ANDI R30,LOW(0x40)
000cfb f411      	BRNE PC+3
000cfc 940c 0f1a 	JMP _0xC00B8
                 ; 0006 03D6 ad_mode &= ~0x40 ;
000cfe 91e0 6bcb 	LDS  R30,_ad_mode
000d00 7bef      	ANDI R30,0xBF
000d01 93e0 6bcb 	STS  _ad_mode,R30
                 ; 0006 03D7 SetSupplyCurrent(1) ;
000d03 e0a1      	LDI  R26,LOW(1)
000d04 940e 0b08 	CALL _SetSupplyCurrent
                 ; 0006 03D8 SetMuxChannel(MUXCHOFF) ;
000d06 e1a0      	LDI  R26,LOW(16)
000d07 940e 09c2 	CALL _SetMuxChannel
                 ; 0006 03D9 SetSupplyChannel(SUPPCHOFF) ;
000d09 e1a0      	LDI  R26,LOW(16)
000d0a 940e 07a7 	CALL _SetSupplyChannel
                 ; 0006 03DA SetCalResistance(OFF);
000d0c e0a0      	LDI  R26,LOW(0)
000d0d 940e 0b17 	CALL _SetCalResistance
                 ; 0006 03DB ad_state = IDLE ;
000d0f e0e7      	LDI  R30,LOW(7)
000d10 93e0 6bca 	STS  _ad_state,R30
                 ; 0006 03DC ad_timeout_cnt = 0 ;                            /* timeout off */
000d12 e0e0      	LDI  R30,LOW(0)
000d13 93e0 6ae9 	STS  _ad_timeout_cnt,R30
000d15 93e0 6aea 	STS  _ad_timeout_cnt+1,R30
                 ; 0006 03DD if ( !(ad_mode & 0x01) ) {                    /* tx during conv? */
000d17 91e0 6bcb 	LDS  R30,_ad_mode
000d19 70e1      	ANDI R30,LOW(0x1)
000d1a f011      	BREQ PC+3
000d1b 940c 0f14 	JMP _0xC00B9
                 ; 0006 03DE short tmp_cal_data = ad_data - 32767 ;    /* no, use data  */
                 ; 0006 03DF float cal_val = tmp_cal_data* cal_gain;
                 ; 0006 03E0 cal_data[curr_ad_ch] = (short)tmp_cal_data ;     /* adjust for resistor errors */
000d1d 9726      	SBIW R28,6
                 ;	tmp_cal_data -> Y+4
                 ;	cal_val -> Y+0
000d1e 01f8      	MOVW R30,R16
000d1f 5fef      	SUBI R30,LOW(32767)
000d20 47ff      	SBCI R31,HIGH(32767)
000d21 83ec      	STD  Y+4,R30
000d22 83fd      	STD  Y+4+1,R31
000d23 91e0 6bbf 	LDS  R30,_cal_gain
000d25 91f0 6bc0 	LDS  R31,_cal_gain+1
000d27 9160 6bc1 	LDS  R22,_cal_gain+2
000d29 9170 6bc2 	LDS  R23,_cal_gain+3
000d2b 81ac      	LDD  R26,Y+4
000d2c 81bd      	LDD  R27,Y+4+1
000d2d 2788      	CLR  R24
000d2e 2799      	CLR  R25
000d2f 940e 31ea 	CALL __CDF2
000d31 940e 3318 	CALL __MULF12
                +
000d33 83e8     +STD Y + 0 , R30
000d34 83f9     +STD Y + 0 + 1 , R31
000d35 836a     +STD Y + 0 + 2 , R22
000d36 837b     +STD Y + 0 + 3 , R23
                 	__PUTD1S 0
000d37 91e0 6bc8 	LDS  R30,_curr_ad_ch
000d39 efa1      	LDI  R26,LOW(_cal_data)
000d3a e6ba      	LDI  R27,HIGH(_cal_data)
000d3b e0f0      	LDI  R31,0
000d3c 0fee      	LSL  R30
000d3d 1fff      	ROL  R31
000d3e 0fea      	ADD  R30,R26
000d3f 1ffb      	ADC  R31,R27
000d40 81ac      	LDD  R26,Y+4
000d41 81bd      	LDD  R27,Y+4+1
000d42 83a0      	STD  Z+0,R26
000d43 83b1      	STD  Z+1,R27
                 ; 0006 03E1 tmpSwitch = (ch_stat[curr_ad_ch]>> 2) & 0x03;
000d44 91e0 6bc8 	LDS  R30,_curr_ad_ch
000d46 e0f0      	LDI  R31,0
000d47 52ef      	SUBI R30,LOW(-_ch_stat)
000d48 49f4      	SBCI R31,HIGH(-_ch_stat)
000d49 81e0      	LD   R30,Z
000d4a 95e6      	LSR  R30
000d4b 95e6      	LSR  R30
000d4c 70e3      	ANDI R30,LOW(0x3)
000d4d 2f3e      	MOV  R19,R30
                 ; 0006 03E2 //switch ( (ch_stat[curr_ad_ch]>> 2) & 0x03 )  //old code just to debugg
                 ; 0006 03E3 switch ( tmpSwitch )
000d4e e0f0      	LDI  R31,0
                 ; 0006 03E4 {
                 ; 0006 03E5 
                 ; 0006 03E6 case 0x03 :                /* pressure */
000d4f 30e3      	CPI  R30,LOW(0x3)
000d50 e0a0      	LDI  R26,HIGH(0x3)
000d51 07fa      	CPC  R31,R26
000d52 f011      	BREQ PC+3
000d53 940c 0e34 	JMP _0xC00BD
                 ; 0006 03E7 if ( (cal_val > MAX_PRE_CAL) ||
                 ; 0006 03E8 (cal_val < MIN_PRE_CAL) ) {
                +
000d55 81a8     +LDD R26 , Y + 0
000d56 81b9     +LDD R27 , Y + 0 + 1
000d57 818a     +LDD R24 , Y + 0 + 2
000d58 819b     +LDD R25 , Y + 0 + 3
                 	__GETD2S 0
                +
000d59 e0e0     +LDI R30 , LOW ( 0x4708B800 )
000d5a ebf8     +LDI R31 , HIGH ( 0x4708B800 )
000d5b e068     +LDI R22 , BYTE3 ( 0x4708B800 )
000d5c e477     +LDI R23 , BYTE4 ( 0x4708B800 )
                 	__GETD1N 0x4708B800
000d5d 940e 33aa 	CALL __CMPF12
000d5f f019      	BREQ PC+4
000d60 f010      	BRCS PC+3
000d61 940c 0d6d 	JMP  _0xC00BF
                +
000d63 e0e0     +LDI R30 , LOW ( 0x46435000 )
000d64 e5f0     +LDI R31 , HIGH ( 0x46435000 )
000d65 e463     +LDI R22 , BYTE3 ( 0x46435000 )
000d66 e476     +LDI R23 , BYTE4 ( 0x46435000 )
                 	__GETD1N 0x46435000
000d67 940e 33aa 	CALL __CMPF12
000d69 f410      	BRSH PC+3
000d6a 940c 0d6d 	JMP _0xC00BF
000d6c c009      	RJMP _0xC00BE
                 _0xC00BF:
                 ; 0006 03E9 ch_stat[curr_ad_ch] |= 0x02 ;         /* Calibration fail */
000d6d 91a0 6bc8 	LDS  R26,_curr_ad_ch
000d6f e0b0      	LDI  R27,0
000d70 52af      	SUBI R26,LOW(-_ch_stat)
000d71 49b4      	SBCI R27,HIGH(-_ch_stat)
000d72 91ec      	LD   R30,X
000d73 60e2      	ORI  R30,2
000d74 93ec      	ST   X,R30
                 ; 0006 03EA }
                 ; 0006 03EB else
000d75 c008      	RJMP _0xC00C1
                 _0xC00BE:
                 ; 0006 03EC {
                 ; 0006 03ED ch_stat[curr_ad_ch] &= ~0x02 ;  /* Calibration OK */
000d76 91a0 6bc8 	LDS  R26,_curr_ad_ch
000d78 e0b0      	LDI  R27,0
000d79 52af      	SUBI R26,LOW(-_ch_stat)
000d7a 49b4      	SBCI R27,HIGH(-_ch_stat)
000d7b 91ec      	LD   R30,X
000d7c 7fed      	ANDI R30,0xFD
000d7d 93ec      	ST   X,R30
                 ; 0006 03EE }
                 _0xC00C1:
                 ; 0006 03EF 
                 ; 0006 03F0 if ( (cal_val > FMAX_PRE_CAL)||
                 ; 0006 03F1 (cal_val < FMIN_PRE_CAL) )
                +
000d7e 81a8     +LDD R26 , Y + 0
000d7f 81b9     +LDD R27 , Y + 0 + 1
000d80 818a     +LDD R24 , Y + 0 + 2
000d81 819b     +LDD R25 , Y + 0 + 3
                 	__GETD2S 0
                +
000d82 e0e0     +LDI R30 , LOW ( 0x46AFC800 )
000d83 ecf8     +LDI R31 , HIGH ( 0x46AFC800 )
000d84 ea6f     +LDI R22 , BYTE3 ( 0x46AFC800 )
000d85 e476     +LDI R23 , BYTE4 ( 0x46AFC800 )
                 	__GETD1N 0x46AFC800
000d86 940e 33aa 	CALL __CMPF12
000d88 f019      	BREQ PC+4
000d89 f010      	BRCS PC+3
000d8a 940c 0d96 	JMP  _0xC00C3
                +
000d8c e0e0     +LDI R30 , LOW ( 0x45EA6000 )
000d8d e6f0     +LDI R31 , HIGH ( 0x45EA6000 )
000d8e ee6a     +LDI R22 , BYTE3 ( 0x45EA6000 )
000d8f e475     +LDI R23 , BYTE4 ( 0x45EA6000 )
                 	__GETD1N 0x45EA6000
000d90 940e 33aa 	CALL __CMPF12
000d92 f410      	BRSH PC+3
000d93 940c 0d96 	JMP _0xC00C3
000d95 c042      	RJMP _0xC00C2
                 _0xC00C3:
                 ; 0006 03F2 {
                 ; 0006 03F3 ch_stat[curr_ad_ch] |= 0x01 ;       /* Reading fail */
000d96 91a0 6bc8 	LDS  R26,_curr_ad_ch
000d98 e0b0      	LDI  R27,0
000d99 52af      	SUBI R26,LOW(-_ch_stat)
000d9a 49b4      	SBCI R27,HIGH(-_ch_stat)
000d9b 91ec      	LD   R30,X
000d9c 60e1      	ORI  R30,1
000d9d 93ec      	ST   X,R30
                 ; 0006 03F4 eep_type[curr_ad_ch >> 1] = 0 ;     /* clear read status */
000d9e 91e0 6bc8 	LDS  R30,_curr_ad_ch
000da0 e0f0      	LDI  R31,0
000da1 fde7      	SBRC R30,7
000da2 efff      	SER  R31
000da3 95f5      	ASR  R31
000da4 95e7      	ROR  R30
000da5 52e1      	SUBI R30,LOW(-_eep_type)
000da6 49f4      	SBCI R31,HIGH(-_eep_type)
000da7 e0a0      	LDI  R26,LOW(0)
000da8 83a0      	STD  Z+0,R26
                 ; 0006 03F5 mes_data[curr_ad_ch] = 0.0 ;       /* ASt mark ?? */
000da9 91e0 6bc8 	LDS  R30,_curr_ad_ch
000dab e2a9      	LDI  R26,LOW(_mes_data)
000dac e6bb      	LDI  R27,HIGH(_mes_data)
000dad e0f0      	LDI  R31,0
000dae 940e 3196 	CALL __LSLW2
000db0 0fae      	ADD  R26,R30
000db1 1fbf      	ADC  R27,R31
                +
000db2 e0e0     +LDI R30 , LOW ( 0x0 )
000db3 e0f0     +LDI R31 , HIGH ( 0x0 )
000db4 e060     +LDI R22 , BYTE3 ( 0x0 )
000db5 e070     +LDI R23 , BYTE4 ( 0x0 )
                 	__GETD1N 0x0
                +
000db6 93ed     +ST X + , R30
000db7 93fd     +ST X + , R31
000db8 936d     +ST X + , R22
000db9 937c     +ST X , R23
                 	__PUTDP1
                 ; 0006 03F6 raw_data[curr_ad_ch] = curr_sens_data ; /* sen raw raw */
000dba 91e0 6bc8 	LDS  R30,_curr_ad_ch
000dbc e0ad      	LDI  R26,LOW(_raw_data)
000dbd e6bb      	LDI  R27,HIGH(_raw_data)
000dbe e0f0      	LDI  R31,0
000dbf 0fee      	LSL  R30
000dc0 1fff      	ROL  R31
000dc1 0fea      	ADD  R30,R26
000dc2 1ffb      	ADC  R31,R27
000dc3 91a0 6aef 	LDS  R26,_curr_sens_data
000dc5 91b0 6af0 	LDS  R27,_curr_sens_data+1
000dc7 83a0      	STD  Z+0,R26
000dc8 83b1      	STD  Z+1,R27
                 ; 0006 03F7 if ( ad_mode & 0x80 )
000dc9 91e0 6bcb 	LDS  R30,_ad_mode
000dcb 78e0      	ANDI R30,LOW(0x80)
000dcc f411      	BRNE PC+3
000dcd 940c 0dd7 	JMP _0xC00C5
                 ; 0006 03F8 {               /* test */
                 ; 0006 03F9 ch_stat[curr_ad_ch] &= ~0x60 ;  /* no sensor */
000dcf 91a0 6bc8 	LDS  R26,_curr_ad_ch
000dd1 e0b0      	LDI  R27,0
000dd2 52af      	SUBI R26,LOW(-_ch_stat)
000dd3 49b4      	SBCI R27,HIGH(-_ch_stat)
000dd4 91ec      	LD   R30,X
000dd5 79ef      	ANDI R30,LOW(0x9F)
000dd6 93ec      	ST   X,R30
                 ; 0006 03FA }
                 ; 0006 03FB }
                 _0xC00C5:
                 ; 0006 03FC else
000dd7 c05b      	RJMP _0xC00C6
                 _0xC00C2:
                 ; 0006 03FD {
                 ; 0006 03FE // debugg
                 ; 0006 03FF //  curr_sens_data-->INT
                 ; 0006 0400 //  cal_zero --> INT
                 ; 0006 0401 
                 ; 0006 0402 //                     float msrd_snsdata = curr_sens_data -cal_zero;
                 ; 0006 0403 //                     if (cal_val){
                 ; 0006 0404 //                        msrd_snsdata *= 20000.0/cal_val;
                 ; 0006 0405 //                     } else{
                 ; 0006 0406 //                        msrd_snsdata = 0.0;
                 ; 0006 0407 //                     }
                 ; 0006 0408 // use long not float
                 ; 0006 0409 long msrd_snsdata = curr_sens_data -cal_zero;
                 ; 0006 040A if (cal_val){
000dd8 9724      	SBIW R28,4
                 ;	tmp_cal_data -> Y+8
                 ;	cal_val -> Y+4
                 ;	msrd_snsdata -> Y+0
000dd9 91a0 6bc3 	LDS  R26,_cal_zero
000ddb 91b0 6bc4 	LDS  R27,_cal_zero+1
000ddd 91e0 6aef 	LDS  R30,_curr_sens_data
000ddf 91f0 6af0 	LDS  R31,_curr_sens_data+1
000de1 1bea      	SUB  R30,R26
000de2 0bfb      	SBC  R31,R27
000de3 2766      	CLR  R22
000de4 2777      	CLR  R23
                +
000de5 83e8     +STD Y + 0 , R30
000de6 83f9     +STD Y + 0 + 1 , R31
000de7 836a     +STD Y + 0 + 2 , R22
000de8 837b     +STD Y + 0 + 3 , R23
                 	__PUTD1S 0
                +
000de9 81ec     +LDD R30 , Y + 4
000dea 81fd     +LDD R31 , Y + 4 + 1
000deb 816e     +LDD R22 , Y + 4 + 2
000dec 817f     +LDD R23 , Y + 4 + 3
                 	__GETD1S 4
                +
000ded 9730     +SBIW R30 , 0
000dee 4060     +SBCI R22 , 0
000def 4070     +SBCI R23 , 0
                 	__CPD10
000df0 f411      	BRNE PC+3
000df1 940c 0e06 	JMP _0xC00C7
                 ; 0006 040B msrd_snsdata *= 20000/cal_val;
                +
000df3 e0a0     +LDI R26 , LOW ( 0x469C4000 )
000df4 e4b0     +LDI R27 , HIGH ( 0x469C4000 )
000df5 e98c     +LDI R24 , BYTE3 ( 0x469C4000 )
000df6 e496     +LDI R25 , BYTE4 ( 0x469C4000 )
                 	__GETD2N 0x469C4000
000df7 940e 3366 	CALL __DIVF21
                +
000df9 81a8     +LDD R26 , Y + 0
000dfa 81b9     +LDD R27 , Y + 0 + 1
000dfb 818a     +LDD R24 , Y + 0 + 2
000dfc 819b     +LDD R25 , Y + 0 + 3
                 	__GETD2S 0
000dfd 940e 31ea 	CALL __CDF2
000dff 940e 3318 	CALL __MULF12
                +
000e01 83e8     +STD Y + 0 , R30
000e02 83f9     +STD Y + 0 + 1 , R31
000e03 836a     +STD Y + 0 + 2 , R22
000e04 837b     +STD Y + 0 + 3 , R23
                 	__PUTD1S 0
                 ; 0006 040C } else{
000e05 c005      	RJMP _0xC00C8
                 _0xC00C7:
                 ; 0006 040D msrd_snsdata = 0;
000e06 e0e0      	LDI  R30,LOW(0)
                +
000e07 83e8     +STD Y + 0 , R30
000e08 83e9     +STD Y + 0 + 1 , R30
000e09 83ea     +STD Y + 0 + 2 , R30
000e0a 83eb     +STD Y + 0 + 3 , R30
                 	__CLRD1S 0
                 ; 0006 040E }
                 _0xC00C8:
                 ; 0006 040F if ( ad_mode & 0x80 )
000e0b 91e0 6bcb 	LDS  R30,_ad_mode
000e0d 78e0      	ANDI R30,LOW(0x80)
000e0e f411      	BRNE PC+3
000e0f 940c 0e19 	JMP _0xC00C9
                 ; 0006 0410 {               /* test */
                 ; 0006 0411 ch_stat[curr_ad_ch] |= 0x6c ;   /* pr. sensor  OK*/
000e11 91a0 6bc8 	LDS  R26,_curr_ad_ch
000e13 e0b0      	LDI  R27,0
000e14 52af      	SUBI R26,LOW(-_ch_stat)
000e15 49b4      	SBCI R27,HIGH(-_ch_stat)
000e16 91ec      	LD   R30,X
000e17 66ec      	ORI  R30,LOW(0x6C)
000e18 93ec      	ST   X,R30
                 ; 0006 0412 }
                 ; 0006 0413 ch_stat[curr_ad_ch] &= ~0x01 ;  /* Reading OK */
                 _0xC00C9:
000e19 91a0 6bc8 	LDS  R26,_curr_ad_ch
000e1b e0b0      	LDI  R27,0
000e1c 52af      	SUBI R26,LOW(-_ch_stat)
000e1d 49b4      	SBCI R27,HIGH(-_ch_stat)
000e1e 91ec      	LD   R30,X
000e1f 7fee      	ANDI R30,0xFE
000e20 93ec      	ST   X,R30
                 ; 0006 0414 //curr_sens_data -= cal_zero ;
                 ; 0006 0415 raw_data[curr_ad_ch] = ( short)msrd_snsdata ;
000e21 91e0 6bc8 	LDS  R30,_curr_ad_ch
000e23 e0ad      	LDI  R26,LOW(_raw_data)
000e24 e6bb      	LDI  R27,HIGH(_raw_data)
000e25 e0f0      	LDI  R31,0
000e26 0fee      	LSL  R30
000e27 1fff      	ROL  R31
000e28 0fea      	ADD  R30,R26
000e29 1ffb      	ADC  R31,R27
000e2a 81a8      	LD   R26,Y
000e2b 81b9      	LDD  R27,Y+1
000e2c 83a0      	STD  Z+0,R26
000e2d 83b1      	STD  Z+1,R27
                 ; 0006 0416 CalcPress(curr_ad_ch) ;             /* calculate pressure */
000e2e 91a0 6bc8 	LDS  R26,_curr_ad_ch
000e30 940e 101a 	CALL _CalcPress
                 ; 0006 0417 }
000e32 9624      	ADIW R28,4
                 _0xC00C6:
                 ; 0006 0418 
                 ; 0006 0419 break;
000e33 c0de      	RJMP _0xC00BC
                 ; 0006 041A 
                 ; 0006 041B case 0x02 :                                 /* "other" */
                 _0xC00BD:
000e34 30e2      	CPI  R30,LOW(0x2)
000e35 e0a0      	LDI  R26,HIGH(0x2)
000e36 07fa      	CPC  R31,R26
000e37 f011      	BREQ PC+3
000e38 940c 0e3b 	JMP _0xC00CA
                 ; 0006 041C break;
000e3a c0d7      	RJMP _0xC00BC
                 ; 0006 041D 
                 ; 0006 041E case 0x01 :                                 /* temp */
                 _0xC00CA:
000e3b 30e1      	CPI  R30,LOW(0x1)
000e3c e0a0      	LDI  R26,HIGH(0x1)
000e3d 07fa      	CPC  R31,R26
000e3e f011      	BREQ PC+3
000e3f 940c 0f12 	JMP _0xC00D6
                 ; 0006 041F if ( (cal_val > MAX_TMP_CAL ) ||
                 ; 0006 0420 (cal_val < MIN_TMP_CAL ) ) {
                +
000e41 81a8     +LDD R26 , Y + 0
000e42 81b9     +LDD R27 , Y + 0 + 1
000e43 818a     +LDD R24 , Y + 0 + 2
000e44 819b     +LDD R25 , Y + 0 + 3
                 	__GETD2S 0
                +
000e45 e0e0     +LDI R30 , LOW ( 0x46C73800 )
000e46 e3f8     +LDI R31 , HIGH ( 0x46C73800 )
000e47 ec67     +LDI R22 , BYTE3 ( 0x46C73800 )
000e48 e476     +LDI R23 , BYTE4 ( 0x46C73800 )
                 	__GETD1N 0x46C73800
000e49 940e 33aa 	CALL __CMPF12
000e4b f019      	BREQ PC+4
000e4c f010      	BRCS PC+3
000e4d 940c 0e59 	JMP  _0xC00CD
                +
000e4f e0e0     +LDI R30 , LOW ( 0x461C4000 )
000e50 e4f0     +LDI R31 , HIGH ( 0x461C4000 )
000e51 e16c     +LDI R22 , BYTE3 ( 0x461C4000 )
000e52 e476     +LDI R23 , BYTE4 ( 0x461C4000 )
                 	__GETD1N 0x461C4000
000e53 940e 33aa 	CALL __CMPF12
000e55 f410      	BRSH PC+3
000e56 940c 0e59 	JMP _0xC00CD
000e58 c009      	RJMP _0xC00CC
                 _0xC00CD:
                 ; 0006 0421 ch_stat[curr_ad_ch] |= 0x02 ;         /* Calibration fail */
000e59 91a0 6bc8 	LDS  R26,_curr_ad_ch
000e5b e0b0      	LDI  R27,0
000e5c 52af      	SUBI R26,LOW(-_ch_stat)
000e5d 49b4      	SBCI R27,HIGH(-_ch_stat)
000e5e 91ec      	LD   R30,X
000e5f 60e2      	ORI  R30,2
000e60 93ec      	ST   X,R30
                 ; 0006 0422 }
                 ; 0006 0423 else
000e61 c008      	RJMP _0xC00CF
                 _0xC00CC:
                 ; 0006 0424 {
                 ; 0006 0425 ch_stat[curr_ad_ch] &= ~0x02 ;        /* Calibration OK */
000e62 91a0 6bc8 	LDS  R26,_curr_ad_ch
000e64 e0b0      	LDI  R27,0
000e65 52af      	SUBI R26,LOW(-_ch_stat)
000e66 49b4      	SBCI R27,HIGH(-_ch_stat)
000e67 91ec      	LD   R30,X
000e68 7fed      	ANDI R30,0xFD
000e69 93ec      	ST   X,R30
                 ; 0006 0426 }
                 _0xC00CF:
                 ; 0006 0427 if ( (cal_val > FMAX_TMP_CAL) ||(cal_val < FMIN_TMP_CAL) )
                +
000e6a 81a8     +LDD R26 , Y + 0
000e6b 81b9     +LDD R27 , Y + 0 + 1
000e6c 818a     +LDD R24 , Y + 0 + 2
000e6d 819b     +LDD R25 , Y + 0 + 3
                 	__GETD2S 0
                +
000e6e e0e0     +LDI R30 , LOW ( 0x46D6D800 )
000e6f edf8     +LDI R31 , HIGH ( 0x46D6D800 )
000e70 ed66     +LDI R22 , BYTE3 ( 0x46D6D800 )
000e71 e476     +LDI R23 , BYTE4 ( 0x46D6D800 )
                 	__GETD1N 0x46D6D800
000e72 940e 33aa 	CALL __CMPF12
000e74 f019      	BREQ PC+4
000e75 f010      	BRCS PC+3
000e76 940c 0e82 	JMP  _0xC00D1
                +
000e78 e0e0     +LDI R30 , LOW ( 0x459C4000 )
000e79 e4f0     +LDI R31 , HIGH ( 0x459C4000 )
000e7a e96c     +LDI R22 , BYTE3 ( 0x459C4000 )
000e7b e475     +LDI R23 , BYTE4 ( 0x459C4000 )
                 	__GETD1N 0x459C4000
000e7c 940e 33aa 	CALL __CMPF12
000e7e f410      	BRSH PC+3
000e7f 940c 0e82 	JMP _0xC00D1
000e81 c037      	RJMP _0xC00D0
                 _0xC00D1:
                 ; 0006 0428 {
                 ; 0006 0429 ch_stat[curr_ad_ch] |= 0x01 ;       /* Reading fail */
000e82 91a0 6bc8 	LDS  R26,_curr_ad_ch
000e84 e0b0      	LDI  R27,0
000e85 52af      	SUBI R26,LOW(-_ch_stat)
000e86 49b4      	SBCI R27,HIGH(-_ch_stat)
000e87 91ec      	LD   R30,X
000e88 60e1      	ORI  R30,1
000e89 93ec      	ST   X,R30
                 ; 0006 042A mes_data[curr_ad_ch] = 0.0 ;         /* ASt mark ?? */
000e8a 91e0 6bc8 	LDS  R30,_curr_ad_ch
000e8c e2a9      	LDI  R26,LOW(_mes_data)
000e8d e6bb      	LDI  R27,HIGH(_mes_data)
000e8e e0f0      	LDI  R31,0
000e8f 940e 3196 	CALL __LSLW2
000e91 0fae      	ADD  R26,R30
000e92 1fbf      	ADC  R27,R31
                +
000e93 e0e0     +LDI R30 , LOW ( 0x0 )
000e94 e0f0     +LDI R31 , HIGH ( 0x0 )
000e95 e060     +LDI R22 , BYTE3 ( 0x0 )
000e96 e070     +LDI R23 , BYTE4 ( 0x0 )
                 	__GETD1N 0x0
                +
000e97 93ed     +ST X + , R30
000e98 93fd     +ST X + , R31
000e99 936d     +ST X + , R22
000e9a 937c     +ST X , R23
                 	__PUTDP1
                 ; 0006 042B raw_data[curr_ad_ch] = curr_sens_data ; /* sen raw raw */
000e9b 91e0 6bc8 	LDS  R30,_curr_ad_ch
000e9d e0ad      	LDI  R26,LOW(_raw_data)
000e9e e6bb      	LDI  R27,HIGH(_raw_data)
000e9f e0f0      	LDI  R31,0
000ea0 0fee      	LSL  R30
000ea1 1fff      	ROL  R31
000ea2 0fea      	ADD  R30,R26
000ea3 1ffb      	ADC  R31,R27
000ea4 91a0 6aef 	LDS  R26,_curr_sens_data
000ea6 91b0 6af0 	LDS  R27,_curr_sens_data+1
000ea8 83a0      	STD  Z+0,R26
000ea9 83b1      	STD  Z+1,R27
                 ; 0006 042C if ( ad_mode & 0x80 )
000eaa 91e0 6bcb 	LDS  R30,_ad_mode
000eac 78e0      	ANDI R30,LOW(0x80)
000ead f411      	BRNE PC+3
000eae 940c 0eb8 	JMP _0xC00D3
                 ; 0006 042D {               /* test */
                 ; 0006 042E ch_stat[curr_ad_ch] &= ~0x60 ;  /* no sensor */
000eb0 91a0 6bc8 	LDS  R26,_curr_ad_ch
000eb2 e0b0      	LDI  R27,0
000eb3 52af      	SUBI R26,LOW(-_ch_stat)
000eb4 49b4      	SBCI R27,HIGH(-_ch_stat)
000eb5 91ec      	LD   R30,X
000eb6 79ef      	ANDI R30,LOW(0x9F)
000eb7 93ec      	ST   X,R30
                 ; 0006 042F }
                 ; 0006 0430 }
                 _0xC00D3:
                 ; 0006 0431 else
000eb8 c058      	RJMP _0xC00D4
                 _0xC00D0:
                 ; 0006 0432 {
                 ; 0006 0433 if ( ad_mode & 0x80 ) {
000eb9 91e0 6bcb 	LDS  R30,_ad_mode
000ebb 78e0      	ANDI R30,LOW(0x80)
000ebc f411      	BRNE PC+3
000ebd 940c 0ec7 	JMP _0xC00D5
                 ; 0006 0434 ch_stat[curr_ad_ch] |= 0x24 ;   /* tmp sensor  OK*/
000ebf 91a0 6bc8 	LDS  R26,_curr_ad_ch
000ec1 e0b0      	LDI  R27,0
000ec2 52af      	SUBI R26,LOW(-_ch_stat)
000ec3 49b4      	SBCI R27,HIGH(-_ch_stat)
000ec4 91ec      	LD   R30,X
000ec5 62e4      	ORI  R30,LOW(0x24)
000ec6 93ec      	ST   X,R30
                 ; 0006 0435 }
                 ; 0006 0436 ch_stat[curr_ad_ch] &= ~0x01 ;  /* Reading OK */
                 _0xC00D5:
000ec7 91a0 6bc8 	LDS  R26,_curr_ad_ch
000ec9 e0b0      	LDI  R27,0
000eca 52af      	SUBI R26,LOW(-_ch_stat)
000ecb 49b4      	SBCI R27,HIGH(-_ch_stat)
000ecc 91ec      	LD   R30,X
000ecd 7fee      	ANDI R30,0xFE
000ece 93ec      	ST   X,R30
                 ; 0006 0437 raw_data[curr_ad_ch] = (short)(((float)curr_sens_data * 1000.0
                 ; 0006 0438 / (float)cal_data[curr_ad_ch] ) * 10.0);
000ecf 91e0 6bc8 	LDS  R30,_curr_ad_ch
000ed1 e0ad      	LDI  R26,LOW(_raw_data)
000ed2 e6bb      	LDI  R27,HIGH(_raw_data)
000ed3 e0f0      	LDI  R31,0
000ed4 0fee      	LSL  R30
000ed5 1fff      	ROL  R31
000ed6 0fea      	ADD  R30,R26
000ed7 1ffb      	ADC  R31,R27
000ed8 93ff      	PUSH R31
000ed9 93ef      	PUSH R30
000eda 91e0 6aef 	LDS  R30,_curr_sens_data
000edc 91f0 6af0 	LDS  R31,_curr_sens_data+1
000ede 2766      	CLR  R22
000edf 2777      	CLR  R23
000ee0 940e 328f 	CALL __CDF1
                +
000ee2 e0a0     +LDI R26 , LOW ( 0x447A0000 )
000ee3 e0b0     +LDI R27 , HIGH ( 0x447A0000 )
000ee4 e78a     +LDI R24 , BYTE3 ( 0x447A0000 )
000ee5 e494     +LDI R25 , BYTE4 ( 0x447A0000 )
                 	__GETD2N 0x447A0000
000ee6 940e 3318 	CALL __MULF12
000ee8 937f      	PUSH R23
000ee9 936f      	PUSH R22
000eea 93ff      	PUSH R31
000eeb 93ef      	PUSH R30
000eec 91e0 6bc8 	LDS  R30,_curr_ad_ch
000eee efa1      	LDI  R26,LOW(_cal_data)
000eef e6ba      	LDI  R27,HIGH(_cal_data)
000ef0 e0f0      	LDI  R31,0
000ef1 0fee      	LSL  R30
000ef2 1fff      	ROL  R31
000ef3 0fae      	ADD  R26,R30
000ef4 1fbf      	ADC  R27,R31
000ef5 91ed      	LD   R30,X+
000ef6 91fd      	LD   R31,X+
000ef7 2766      	CLR  R22
000ef8 2777      	CLR  R23
000ef9 940e 328f 	CALL __CDF1
000efb 91af      	POP  R26
000efc 91bf      	POP  R27
000efd 918f      	POP  R24
000efe 919f      	POP  R25
000eff 940e 3366 	CALL __DIVF21
                +
000f01 e0a0     +LDI R26 , LOW ( 0x41200000 )
000f02 e0b0     +LDI R27 , HIGH ( 0x41200000 )
000f03 e280     +LDI R24 , BYTE3 ( 0x41200000 )
000f04 e491     +LDI R25 , BYTE4 ( 0x41200000 )
                 	__GETD2N 0x41200000
000f05 940e 3318 	CALL __MULF12
000f07 940e 3256 	CALL __CFD1U
000f09 91af      	POP  R26
000f0a 91bf      	POP  R27
000f0b 93ed      	ST   X+,R30
000f0c 93fc      	ST   X,R31
                 ; 0006 0439 
                 ; 0006 043A CalcTemp(curr_ad_ch) ;              /* calculate temperature */
000f0d 91a0 6bc8 	LDS  R26,_curr_ad_ch
000f0f 940e 13ed 	CALL _CalcTemp
                 ; 0006 043B }
                 _0xC00D4:
                 ; 0006 043C break;
000f11 c000      	RJMP _0xC00BC
                 ; 0006 043D default :
                 _0xC00D6:
                 ; 0006 043E break ;
                 ; 0006 043F }
                 _0xC00BC:
                 ; 0006 0440 }
000f12 9626      	ADIW R28,6
                 ; 0006 0441 else
000f13 c005      	RJMP _0xC00D7
                 _0xC00B9:
                 ; 0006 0442 {
                 ; 0006 0443 curr_ad_ch-- ;                                 // remeasure the chanell if skipped due to UART TX
000f14 91e0 6bc8 	LDS  R30,_curr_ad_ch
000f16 50e1      	SUBI R30,LOW(1)
000f17 93e0 6bc8 	STS  _curr_ad_ch,R30
                 ; 0006 0444 }
                 _0xC00D7:
                 ; 0006 0445 }
                 ; 0006 0446 else
000f19 c09a      	RJMP _0xC00D8
                 _0xC00B8:
                 ; 0006 0447 {                                                /* normal conv enter point */
                 ; 0006 0448 curr_sens_data = (short)(ad_data - 32767) ;        /* use ad data */
000f1a 01f8      	MOVW R30,R16
000f1b 5fef      	SUBI R30,LOW(32767)
000f1c 47ff      	SBCI R31,HIGH(32767)
000f1d 93e0 6aef 	STS  _curr_sens_data,R30
000f1f 93f0 6af0 	STS  _curr_sens_data+1,R31
                 ; 0006 0449 tmpSwitch=(ch_stat[curr_ad_ch]>> 2) & 0x03;
000f21 91e0 6bc8 	LDS  R30,_curr_ad_ch
000f23 e0f0      	LDI  R31,0
000f24 52ef      	SUBI R30,LOW(-_ch_stat)
000f25 49f4      	SBCI R31,HIGH(-_ch_stat)
000f26 81e0      	LD   R30,Z
000f27 95e6      	LSR  R30
000f28 95e6      	LSR  R30
000f29 70e3      	ANDI R30,LOW(0x3)
000f2a 2f3e      	MOV  R19,R30
                 ; 0006 044A //            switch ( (ch_stat[curr_ad_ch]>> 2) & 0x03 ) {
                 ; 0006 044B switch (tmpSwitch)
000f2b e0f0      	LDI  R31,0
                 ; 0006 044C {
                 ; 0006 044D case 0x03 :               /* pressure */
000f2c 30e3      	CPI  R30,LOW(0x3)
000f2d e0a0      	LDI  R26,HIGH(0x3)
000f2e 07fa      	CPC  R31,R26
000f2f f011      	BREQ PC+3
000f30 940c 0f48 	JMP _0xC00DC
                 ; 0006 044E SetMuxChannel(PRE_CAL_CH) ;         /* cal channel */
000f32 e0af      	LDI  R26,LOW(15)
000f33 940e 09c2 	CALL _SetMuxChannel
                 ; 0006 044F ad_mode |= 0x40 ;                           /* next cal */
000f35 91e0 6bcb 	LDS  R30,_ad_mode
000f37 64e0      	ORI  R30,0x40
000f38 93e0 6bcb 	STS  _ad_mode,R30
                 ; 0006 0450 ad_settling = AD_SET_TIME ;         /* wait 67 ms */
000f3a e4e3      	LDI  R30,LOW(67)
000f3b e0f0      	LDI  R31,HIGH(67)
000f3c 93e0 6bce 	STS  _ad_settling,R30
000f3e 93f0 6bcf 	STS  _ad_settling+1,R31
                 ; 0006 0451 ad_state = WAIT_FOR_INTERRUPT ;         /* wait for cal int */
000f40 e0e2      	LDI  R30,LOW(2)
000f41 93e0 6bca 	STS  _ad_state,R30
                 ; 0006 0452 UnpackSensData(curr_ad_ch) ;            /* Unpack data */
000f43 91a0 6bc8 	LDS  R26,_curr_ad_ch
000f45 940e 155d 	CALL _UnpackSensData
                 ; 0006 0453 break;
000f47 c06c      	RJMP _0xC00DB
                 ; 0006 0454 case 0x02 :                /* other */
                 _0xC00DC:
000f48 30e2      	CPI  R30,LOW(0x2)
000f49 e0a0      	LDI  R26,HIGH(0x2)
000f4a 07fa      	CPC  R31,R26
000f4b f011      	BREQ PC+3
000f4c 940c 0f99 	JMP _0xC00DD
                 ; 0006 0455 SetSupplyCurrent(1) ;                   /* no cal on this */
000f4e e0a1      	LDI  R26,LOW(1)
000f4f 940e 0b08 	CALL _SetSupplyCurrent
                 ; 0006 0456 SetMuxChannel(MUXCHOFF) ;
000f51 e1a0      	LDI  R26,LOW(16)
000f52 940e 09c2 	CALL _SetMuxChannel
                 ; 0006 0457 SetSupplyChannel(SUPPCHOFF) ;
000f54 e1a0      	LDI  R26,LOW(16)
000f55 940e 07a7 	CALL _SetSupplyChannel
                 ; 0006 0458 SetCalResistance(OFF);
000f57 e0a0      	LDI  R26,LOW(0)
000f58 940e 0b17 	CALL _SetCalResistance
                 ; 0006 0459 ad_state = IDLE ;
000f5a e0e7      	LDI  R30,LOW(7)
000f5b 93e0 6bca 	STS  _ad_state,R30
                 ; 0006 045A raw_data[curr_ad_ch] = curr_sens_data ;
000f5d 91e0 6bc8 	LDS  R30,_curr_ad_ch
000f5f e0ad      	LDI  R26,LOW(_raw_data)
000f60 e6bb      	LDI  R27,HIGH(_raw_data)
000f61 e0f0      	LDI  R31,0
000f62 0fee      	LSL  R30
000f63 1fff      	ROL  R31
000f64 0fea      	ADD  R30,R26
000f65 1ffb      	ADC  R31,R27
000f66 91a0 6aef 	LDS  R26,_curr_sens_data
000f68 91b0 6af0 	LDS  R27,_curr_sens_data+1
000f6a 83a0      	STD  Z+0,R26
000f6b 83b1      	STD  Z+1,R27
                 ; 0006 045B cal_data[curr_ad_ch] = 0 ;         /* do no use caldata  */
000f6c 91e0 6bc8 	LDS  R30,_curr_ad_ch
000f6e efa1      	LDI  R26,LOW(_cal_data)
000f6f e6ba      	LDI  R27,HIGH(_cal_data)
000f70 e0f0      	LDI  R31,0
000f71 0fee      	LSL  R30
000f72 1fff      	ROL  R31
000f73 0fae      	ADD  R26,R30
000f74 1fbf      	ADC  R27,R31
000f75 e0e0      	LDI  R30,LOW(0)
000f76 e0f0      	LDI  R31,HIGH(0)
000f77 93ed      	ST   X+,R30
000f78 93fc      	ST   X,R31
                 ; 0006 045C ch_stat[curr_ad_ch] &= ~0x03 ;      /* Cal. and readings set to OK */
000f79 91a0 6bc8 	LDS  R26,_curr_ad_ch
000f7b e0b0      	LDI  R27,0
000f7c 52af      	SUBI R26,LOW(-_ch_stat)
000f7d 49b4      	SBCI R27,HIGH(-_ch_stat)
000f7e 91ec      	LD   R30,X
000f7f 7fec      	ANDI R30,LOW(0xFC)
000f80 93ec      	ST   X,R30
                 ; 0006 045D ad_timeout_cnt = 0 ;                        /* timeout off */
000f81 e0e0      	LDI  R30,LOW(0)
000f82 93e0 6ae9 	STS  _ad_timeout_cnt,R30
000f84 93e0 6aea 	STS  _ad_timeout_cnt+1,R30
                 ; 0006 045E if ( ad_mode & 0x80 ) {                   /* test */
000f86 91e0 6bcb 	LDS  R30,_ad_mode
000f88 78e0      	ANDI R30,LOW(0x80)
000f89 f411      	BRNE PC+3
000f8a 940c 0f94 	JMP _0xC00DE
                 ; 0006 045F ch_stat[curr_ad_ch] |= 0x48 ;       /* other sensor  OK*/
000f8c 91a0 6bc8 	LDS  R26,_curr_ad_ch
000f8e e0b0      	LDI  R27,0
000f8f 52af      	SUBI R26,LOW(-_ch_stat)
000f90 49b4      	SBCI R27,HIGH(-_ch_stat)
000f91 91ec      	LD   R30,X
000f92 64e8      	ORI  R30,LOW(0x48)
000f93 93ec      	ST   X,R30
                 ; 0006 0460 }
                 ; 0006 0461 CalcOther(curr_ad_ch) ;                 /* calculate "other" */
                 _0xC00DE:
000f94 91a0 6bc8 	LDS  R26,_curr_ad_ch
000f96 940e 14b5 	CALL _CalcOther
                 ; 0006 0462 break;
000f98 c01b      	RJMP _0xC00DB
                 ; 0006 0463 case 0x01 :               /* temp */
                 _0xC00DD:
000f99 30e1      	CPI  R30,LOW(0x1)
000f9a e0a0      	LDI  R26,HIGH(0x1)
000f9b 07fa      	CPC  R31,R26
000f9c f011      	BREQ PC+3
000f9d 940c 0fb1 	JMP _0xC00E0
                 ; 0006 0464 SetMuxChannel(TMP_CAL_CH) ;         /* cal channel */
000f9f e0ae      	LDI  R26,LOW(14)
000fa0 940e 09c2 	CALL _SetMuxChannel
                 ; 0006 0465 ad_mode |= 0x40 ;                           /* next cal */
000fa2 91e0 6bcb 	LDS  R30,_ad_mode
000fa4 64e0      	ORI  R30,0x40
000fa5 93e0 6bcb 	STS  _ad_mode,R30
                 ; 0006 0466 ad_settling = AD_SET_TIME ;         /* wait 67 ms */
000fa7 e4e3      	LDI  R30,LOW(67)
000fa8 e0f0      	LDI  R31,HIGH(67)
000fa9 93e0 6bce 	STS  _ad_settling,R30
000fab 93f0 6bcf 	STS  _ad_settling+1,R31
                 ; 0006 0467 ad_state = WAIT_FOR_INTERRUPT ;         /* wait for cal int */
000fad e0e2      	LDI  R30,LOW(2)
000fae 93e0 6bca 	STS  _ad_state,R30
                 ; 0006 0468 break;
000fb0 c003      	RJMP _0xC00DB
                 ; 0006 0469 default :
                 _0xC00E0:
                 ; 0006 046A ad_state = IDLE ;                           /* Start new point */
000fb1 e0e7      	LDI  R30,LOW(7)
000fb2 93e0 6bca 	STS  _ad_state,R30
                 ; 0006 046B break ;
                 ; 0006 046C }
                 _0xC00DB:
                 ; 0006 046D }
                 _0xC00D8:
                 ; 0006 046E break ;
000fb4 c061      	RJMP _0xC00A7
                 ; 0006 046F case    START_CALIBRATION :                         // calibrate the AD chip itself
                 _0xC00B7:
000fb5 30e4      	CPI  R30,LOW(0x4)
000fb6 e0a0      	LDI  R26,HIGH(0x4)
000fb7 07fa      	CPC  R31,R26
000fb8 f011      	BREQ PC+3
000fb9 940c 0fec 	JMP _0xC00E1
                 ; 0006 0470 Led(2, ON) ;                                        /* Led 2 on */
000fbb e0e2      	LDI  R30,LOW(2)
000fbc 93ea      	ST   -Y,R30
000fbd e0a1      	LDI  R26,LOW(1)
000fbe 940e 066e 	CALL _Led
                 ; 0006 0471 ad_timeout_cnt = AD_TIMEOUT ;                   /* timeout ad cnv */
000fc0 ede0      	LDI  R30,LOW(2000)
000fc1 e0f7      	LDI  R31,HIGH(2000)
000fc2 93e0 6ae9 	STS  _ad_timeout_cnt,R30
000fc4 93f0 6aea 	STS  _ad_timeout_cnt+1,R31
                 ; 0006 0472 ad_settling = 20 ;                              /* wait >mclock/128  */
000fc6 e1e4      	LDI  R30,LOW(20)
000fc7 e0f0      	LDI  R31,HIGH(20)
000fc8 93e0 6bce 	STS  _ad_settling,R30
000fca 93f0 6bcf 	STS  _ad_settling+1,R31
                 ; 0006 0473 if ( tx_complete == TRUE ) {
000fcc 91a0 6bec 	LDS  R26,_tx_complete
000fce 30a1      	CPI  R26,LOW(0x1)
000fcf f011      	BREQ PC+3
000fd0 940c 0feb 	JMP _0xC00E2
                 ; 0006 0474 if ( ad_mode & 0x02 ) {                       /* pressure readings */
000fd2 91e0 6bcb 	LDS  R30,_ad_mode
000fd4 70e2      	ANDI R30,LOW(0x2)
000fd5 f411      	BRNE PC+3
000fd6 940c 0fdc 	JMP _0xC00E3
                 ; 0006 0475 ad_gain = 3;
000fd8 e0e3      	LDI  R30,LOW(3)
000fd9 93e0 6bd0 	STS  _ad_gain,R30
                 ; 0006 0476 } else {
000fdb c003      	RJMP _0xC00E4
                 _0xC00E3:
                 ; 0006 0477 ad_gain = 0;
000fdc e0e0      	LDI  R30,LOW(0)
000fdd 93e0 6bd0 	STS  _ad_gain,R30
                 ; 0006 0478 }
                 _0xC00E4:
                 ; 0006 0479 ad_state = WAIT_FOR_CAL_INT ;               /* next state */
000fdf e0e5      	LDI  R30,LOW(5)
000fe0 93e0 6bca 	STS  _ad_state,R30
                 ; 0006 047A spi1_master_tx_rx(ad_gain | 0x10) ;               /* Next write setup reg */
000fe2 91e0 6bd0 	LDS  R30,_ad_gain
000fe4 61e0      	ORI  R30,0x10
000fe5 2fae      	MOV  R26,R30
000fe6 940e 0576 	CALL _spi1_master_tx_rx
                 ; 0006 047B //spi1_master_tx_rx(0x6a) ;                     /*  Ad setup data, bipolar */
                 ; 0006 047C spi1_master_tx_rx(0b01011000) ;   // MD1&0: 01 CLK:0,FSx:11, B/U:0 ;BUF:0 FSYNC:0
000fe8 e5a8      	LDI  R26,LOW(88)
000fe9 940e 0576 	CALL _spi1_master_tx_rx
                 ; 0006 047D 
                 ; 0006 047E }
                 ; 0006 047F break ;
                 _0xC00E2:
000feb c02a      	RJMP _0xC00A7
                 ; 0006 0480 case    WAIT_FOR_CAL_INT :
                 _0xC00E1:
000fec 30e5      	CPI  R30,LOW(0x5)
000fed e0a0      	LDI  R26,HIGH(0x5)
000fee 07fa      	CPC  R31,R26
000fef f011      	BREQ PC+3
000ff0 940c 0ff3 	JMP _0xC00E5
                 ; 0006 0481 break ;
000ff2 c023      	RJMP _0xC00A7
                 ; 0006 0482 case    CAL_COMPLETE :
                 _0xC00E5:
000ff3 30e6      	CPI  R30,LOW(0x6)
000ff4 e0a0      	LDI  R26,HIGH(0x6)
000ff5 07fa      	CPC  R31,R26
000ff6 f011      	BREQ PC+3
000ff7 940c 100c 	JMP _0xC00E6
                 ; 0006 0483 ad_timeout_cnt = 0 ;                                /* timeout off */
000ff9 e0e0      	LDI  R30,LOW(0)
000ffa 93e0 6ae9 	STS  _ad_timeout_cnt,R30
000ffc 93e0 6aea 	STS  _ad_timeout_cnt+1,R30
                 ; 0006 0484 curr_ad_ch -= 1 ;                                   /* To start with ch 0 !! */
000ffe 91e0 6bc8 	LDS  R30,_curr_ad_ch
001000 50e1      	SUBI R30,LOW(1)
001001 93e0 6bc8 	STS  _curr_ad_ch,R30
                 ; 0006 0485 ad_state = IDLE ;
001003 e0e7      	LDI  R30,LOW(7)
001004 93e0 6bca 	STS  _ad_state,R30
                 ; 0006 0486 Led(2, OFF) ;                                       /* Led 2 off */
001006 e0e2      	LDI  R30,LOW(2)
001007 93ea      	ST   -Y,R30
001008 e0a0      	LDI  R26,LOW(0)
001009 940e 066e 	CALL _Led
                 ; 0006 0487 break ;
00100b c00a      	RJMP _0xC00A7
                 ; 0006 0488 case    IDLE :
                 _0xC00E6:
00100c 30e7      	CPI  R30,LOW(0x7)
00100d e0a0      	LDI  R26,HIGH(0x7)
00100e 07fa      	CPC  R31,R26
00100f f011      	BREQ PC+3
001010 940c 1013 	JMP _0xC00E8
                 ; 0006 0489 break ;
001012 c003      	RJMP _0xC00A7
                 ; 0006 048A default :
                 _0xC00E8:
                 ; 0006 048B ad_state = IDLE ;
001013 e0e7      	LDI  R30,LOW(7)
001014 93e0 6bca 	STS  _ad_state,R30
                 ; 0006 048C break ;
                 ; 0006 048D }
                 _0xC00A7:
                 ; 0006 048E }
001016 940e 315a 	CALL __LOADLOCR4
001018 9624      	ADIW R28,4
001019 9508      	RET
                 ; .FEND
                 ;void CalcPress(signed char ch)
                 ; 0006 0496 {
                 _CalcPress:
                 ; .FSTART _CalcPress
                 ; 0006 0497 
                 ; 0006 0498 float temp_data ;
                 ; 0006 0499 
                 ; 0006 049A Led(2, ON)  ;                               /* Led 2 on */
00101a 9724      	SBIW R28,4
00101b 931a      	ST   -Y,R17
00101c 2f1a      	MOV  R17,R26
                 ;	ch -> R17
                 ;	temp_data -> Y+1
00101d e0e2      	LDI  R30,LOW(2)
00101e 93ea      	ST   -Y,R30
00101f e0a1      	LDI  R26,LOW(1)
001020 940e 066e 	CALL _Led
                 ; 0006 049B 
                 ; 0006 049C if ( (sens_data[0]>0) && (raw_data[ch] < sens_data[0]) ) {
001022 91a0 699b 	LDS  R26,_sens_data
001024 91b0 699c 	LDS  R27,_sens_data+1
                +
001026 2400     +CLR R0
001027 160a     +CP R0 , R26
001028 060b     +CPC R0 , R27
                 	__CPW02
001029 f010      	BRLO PC+3
00102a 940c 1041 	JMP _0xC00EA
00102c 2fe1      	MOV  R30,R17
00102d e0ad      	LDI  R26,LOW(_raw_data)
00102e e6bb      	LDI  R27,HIGH(_raw_data)
00102f e0f0      	LDI  R31,0
001030 0fee      	LSL  R30
001031 1fff      	ROL  R31
001032 0fae      	ADD  R26,R30
001033 1fbf      	ADC  R27,R31
001034 91ed      	LD   R30,X+
001035 91fd      	LD   R31,X+
001036 01df      	MOVW R26,R30
001037 91e0 699b 	LDS  R30,_sens_data
001039 91f0 699c 	LDS  R31,_sens_data+1
00103b 17ae      	CP   R26,R30
00103c 07bf      	CPC  R27,R31
00103d f010      	BRLO PC+3
00103e 940c 1041 	JMP _0xC00EA
001040 c001      	RJMP _0xC00EB
                 _0xC00EA:
001041 c033      	RJMP _0xC00E9
                 _0xC00EB:
                 ; 0006 049D temp_data = CalcPercent((sens_data[1]-sens_data[0]), sens_data[0],
                 ; 0006 049E raw_data[ch], 0.0) ;
                +
001042 91a0 699d+LDS R26 , _sens_data + ( 2 )
001044 91b0 699e+LDS R27 , _sens_data + ( 2 ) + 1
                 	__GETW2MN _sens_data,2
001046 91e0 699b 	LDS  R30,_sens_data
001048 91f0 699c 	LDS  R31,_sens_data+1
00104a 1bae      	SUB  R26,R30
00104b 0bbf      	SBC  R27,R31
00104c 93ba      	ST   -Y,R27
00104d 93aa      	ST   -Y,R26
00104e 93fa      	ST   -Y,R31
00104f 93ea      	ST   -Y,R30
001050 2fe1      	MOV  R30,R17
001051 e0ad      	LDI  R26,LOW(_raw_data)
001052 e6bb      	LDI  R27,HIGH(_raw_data)
001053 e0f0      	LDI  R31,0
001054 0fee      	LSL  R30
001055 1fff      	ROL  R31
001056 0fae      	ADD  R26,R30
001057 1fbf      	ADC  R27,R31
001058 91ed      	LD   R30,X+
001059 91fd      	LD   R31,X+
00105a 93fa      	ST   -Y,R31
00105b 93ea      	ST   -Y,R30
                +
00105c e0a0     +LDI R26 , LOW ( 0x0 )
00105d e0b0     +LDI R27 , HIGH ( 0x0 )
00105e e080     +LDI R24 , BYTE3 ( 0x0 )
00105f e090     +LDI R25 , BYTE4 ( 0x0 )
                 	__GETD2N 0x0
001060 940e 12ef 	CALL _CalcPercent
                +
001062 83e9     +STD Y + 1 , R30
001063 83fa     +STD Y + 1 + 1 , R31
001064 836b     +STD Y + 1 + 2 , R22
001065 837c     +STD Y + 1 + 3 , R23
                 	__PUTD1S 1
                 ; 0006 049F temp_data *= 40.0 ;             /* caluclate %, using 0-40% cal data*/
                +
001066 81a9     +LDD R26 , Y + 1
001067 81ba     +LDD R27 , Y + 1 + 1
001068 818b     +LDD R24 , Y + 1 + 2
001069 819c     +LDD R25 , Y + 1 + 3
                 	__GETD2S 1
                +
00106a e0e0     +LDI R30 , LOW ( 0x42200000 )
00106b e0f0     +LDI R31 , HIGH ( 0x42200000 )
00106c e260     +LDI R22 , BYTE3 ( 0x42200000 )
00106d e472     +LDI R23 , BYTE4 ( 0x42200000 )
                 	__GETD1N 0x42200000
00106e 940e 3318 	CALL __MULF12
                +
001070 83e9     +STD Y + 1 , R30
001071 83fa     +STD Y + 1 + 1 , R31
001072 836b     +STD Y + 1 + 2 , R22
001073 837c     +STD Y + 1 + 3 , R23
                 	__PUTD1S 1
                 ; 0006 04A0 
                 ; 0006 04A1 }
                 ; 0006 04A2 else if ( raw_data[ch] <  sens_data[1] ) {
001074 c12e      	RJMP _0xC00EC
                 _0xC00E9:
001075 2fe1      	MOV  R30,R17
001076 e0ad      	LDI  R26,LOW(_raw_data)
001077 e6bb      	LDI  R27,HIGH(_raw_data)
001078 e0f0      	LDI  R31,0
001079 0fee      	LSL  R30
00107a 1fff      	ROL  R31
00107b 0fae      	ADD  R26,R30
00107c 1fbf      	ADC  R27,R31
00107d 91ed      	LD   R30,X+
00107e 91fd      	LD   R31,X+
00107f 01df      	MOVW R26,R30
                +
001080 91e0 699d+LDS R30 , _sens_data + ( 2 )
001082 91f0 699e+LDS R31 , _sens_data + ( 2 ) + 1
                 	__GETW1MN _sens_data,2
001084 17ae      	CP   R26,R30
001085 07bf      	CPC  R27,R31
001086 f010      	BRLO PC+3
001087 940c 10c0 	JMP _0xC00ED
                 ; 0006 04A3 temp_data = CalcPercent((sens_data[1]-sens_data[0]), sens_data[0],
                 ; 0006 04A4 raw_data[ch], (float)sens_nl1) ;
                +
001089 91a0 699d+LDS R26 , _sens_data + ( 2 )
00108b 91b0 699e+LDS R27 , _sens_data + ( 2 ) + 1
                 	__GETW2MN _sens_data,2
00108d 91e0 699b 	LDS  R30,_sens_data
00108f 91f0 699c 	LDS  R31,_sens_data+1
001091 1bae      	SUB  R26,R30
001092 0bbf      	SBC  R27,R31
001093 93ba      	ST   -Y,R27
001094 93aa      	ST   -Y,R26
001095 93fa      	ST   -Y,R31
001096 93ea      	ST   -Y,R30
001097 2fe1      	MOV  R30,R17
001098 e0ad      	LDI  R26,LOW(_raw_data)
001099 e6bb      	LDI  R27,HIGH(_raw_data)
00109a e0f0      	LDI  R31,0
00109b 0fee      	LSL  R30
00109c 1fff      	ROL  R31
00109d 0fae      	ADD  R26,R30
00109e 1fbf      	ADC  R27,R31
00109f 91ed      	LD   R30,X+
0010a0 91fd      	LD   R31,X+
0010a1 93fa      	ST   -Y,R31
0010a2 93ea      	ST   -Y,R30
0010a3 91e0 69a3 	LDS  R30,_sens_nl1
0010a5 940e 31a4 	CALL __CBD1
0010a7 940e 328f 	CALL __CDF1
0010a9 01df      	MOVW R26,R30
0010aa 01cb      	MOVW R24,R22
0010ab 940e 12ef 	CALL _CalcPercent
                +
0010ad 83e9     +STD Y + 1 , R30
0010ae 83fa     +STD Y + 1 + 1 , R31
0010af 836b     +STD Y + 1 + 2 , R22
0010b0 837c     +STD Y + 1 + 3 , R23
                 	__PUTD1S 1
                 ; 0006 04A5 temp_data *= 40.0 ;             /* caluclate % */
                +
0010b1 81a9     +LDD R26 , Y + 1
0010b2 81ba     +LDD R27 , Y + 1 + 1
0010b3 818b     +LDD R24 , Y + 1 + 2
0010b4 819c     +LDD R25 , Y + 1 + 3
                 	__GETD2S 1
                +
0010b5 e0e0     +LDI R30 , LOW ( 0x42200000 )
0010b6 e0f0     +LDI R31 , HIGH ( 0x42200000 )
0010b7 e260     +LDI R22 , BYTE3 ( 0x42200000 )
0010b8 e472     +LDI R23 , BYTE4 ( 0x42200000 )
                 	__GETD1N 0x42200000
0010b9 940e 3318 	CALL __MULF12
                +
0010bb 83e9     +STD Y + 1 , R30
0010bc 83fa     +STD Y + 1 + 1 , R31
0010bd 836b     +STD Y + 1 + 2 , R22
0010be 837c     +STD Y + 1 + 3 , R23
                 	__PUTD1S 1
                 ; 0006 04A6 
                 ; 0006 04A7 }
                 ; 0006 04A8 else if ( raw_data[ch] < sens_data[2] ) {
0010bf c0e3      	RJMP _0xC00EE
                 _0xC00ED:
0010c0 2fe1      	MOV  R30,R17
0010c1 e0ad      	LDI  R26,LOW(_raw_data)
0010c2 e6bb      	LDI  R27,HIGH(_raw_data)
0010c3 e0f0      	LDI  R31,0
0010c4 0fee      	LSL  R30
0010c5 1fff      	ROL  R31
0010c6 0fae      	ADD  R26,R30
0010c7 1fbf      	ADC  R27,R31
0010c8 91ed      	LD   R30,X+
0010c9 91fd      	LD   R31,X+
0010ca 01df      	MOVW R26,R30
                +
0010cb 91e0 699f+LDS R30 , _sens_data + ( 4 )
0010cd 91f0 69a0+LDS R31 , _sens_data + ( 4 ) + 1
                 	__GETW1MN _sens_data,4
0010cf 17ae      	CP   R26,R30
0010d0 07bf      	CPC  R27,R31
0010d1 f010      	BRLO PC+3
0010d2 940c 111a 	JMP _0xC00EF
                 ; 0006 04A9 temp_data = CalcPercent((sens_data[2]-sens_data[1]), sens_data[1],
                 ; 0006 04AA raw_data[ch], (float)(sens_nl2 / 3)) ;
                +
0010d4 91a0 699f+LDS R26 , _sens_data + ( 4 )
0010d6 91b0 69a0+LDS R27 , _sens_data + ( 4 ) + 1
                 	__GETW2MN _sens_data,4
                +
0010d8 91e0 699d+LDS R30 , _sens_data + ( 2 )
0010da 91f0 699e+LDS R31 , _sens_data + ( 2 ) + 1
                 	__GETW1MN _sens_data,2
0010dc 1bae      	SUB  R26,R30
0010dd 0bbf      	SBC  R27,R31
0010de 93ba      	ST   -Y,R27
0010df 93aa      	ST   -Y,R26
0010e0 93fa      	ST   -Y,R31
0010e1 93ea      	ST   -Y,R30
0010e2 2fe1      	MOV  R30,R17
0010e3 e0ad      	LDI  R26,LOW(_raw_data)
0010e4 e6bb      	LDI  R27,HIGH(_raw_data)
0010e5 e0f0      	LDI  R31,0
0010e6 0fee      	LSL  R30
0010e7 1fff      	ROL  R31
0010e8 0fae      	ADD  R26,R30
0010e9 1fbf      	ADC  R27,R31
0010ea 91ed      	LD   R30,X+
0010eb 91fd      	LD   R31,X+
0010ec 93fa      	ST   -Y,R31
0010ed 93ea      	ST   -Y,R30
0010ee 91a0 69a4 	LDS  R26,_sens_nl2
0010f0 e0b0      	LDI  R27,0
0010f1 fda7      	SBRC R26,7
0010f2 efbf      	SER  R27
0010f3 e0e3      	LDI  R30,LOW(3)
0010f4 e0f0      	LDI  R31,HIGH(3)
0010f5 940e 31d0 	CALL __DIVW21
                +
0010f7 2f6f     +MOV R22 , R31
0010f8 0f66     +ADD R22 , R22
0010f9 0b66     +SBC R22 , R22
0010fa 2f76     +MOV R23 , R22
                 	__CWD1
0010fb 940e 328f 	CALL __CDF1
0010fd 01df      	MOVW R26,R30
0010fe 01cb      	MOVW R24,R22
0010ff 940e 12ef 	CALL _CalcPercent
                +
001101 83e9     +STD Y + 1 , R30
001102 83fa     +STD Y + 1 + 1 , R31
001103 836b     +STD Y + 1 + 2 , R22
001104 837c     +STD Y + 1 + 3 , R23
                 	__PUTD1S 1
                 ; 0006 04AB temp_data = temp_data*(60.0 - 40.0)+40.0 ;              /* caluclate % */
                +
001105 81a9     +LDD R26 , Y + 1
001106 81ba     +LDD R27 , Y + 1 + 1
001107 818b     +LDD R24 , Y + 1 + 2
001108 819c     +LDD R25 , Y + 1 + 3
                 	__GETD2S 1
                +
001109 e0e0     +LDI R30 , LOW ( 0x41A00000 )
00110a e0f0     +LDI R31 , HIGH ( 0x41A00000 )
00110b ea60     +LDI R22 , BYTE3 ( 0x41A00000 )
00110c e471     +LDI R23 , BYTE4 ( 0x41A00000 )
                 	__GETD1N 0x41A00000
00110d 940e 3318 	CALL __MULF12
                +
00110f e0a0     +LDI R26 , LOW ( 0x42200000 )
001110 e0b0     +LDI R27 , HIGH ( 0x42200000 )
001111 e280     +LDI R24 , BYTE3 ( 0x42200000 )
001112 e492     +LDI R25 , BYTE4 ( 0x42200000 )
                 	__GETD2N 0x42200000
001113 940e 32c9 	CALL __ADDF12
                +
001115 83e9     +STD Y + 1 , R30
001116 83fa     +STD Y + 1 + 1 , R31
001117 836b     +STD Y + 1 + 2 , R22
001118 837c     +STD Y + 1 + 3 , R23
                 	__PUTD1S 1
                 ; 0006 04AC 
                 ; 0006 04AD }
                 ; 0006 04AE else if ( raw_data[ch] < sens_data[3] ) {
001119 c089      	RJMP _0xC00F0
                 _0xC00EF:
00111a 2fe1      	MOV  R30,R17
00111b e0ad      	LDI  R26,LOW(_raw_data)
00111c e6bb      	LDI  R27,HIGH(_raw_data)
00111d e0f0      	LDI  R31,0
00111e 0fee      	LSL  R30
00111f 1fff      	ROL  R31
001120 0fae      	ADD  R26,R30
001121 1fbf      	ADC  R27,R31
001122 91ed      	LD   R30,X+
001123 91fd      	LD   R31,X+
001124 01df      	MOVW R26,R30
                +
001125 91e0 69a1+LDS R30 , _sens_data + ( 6 )
001127 91f0 69a2+LDS R31 , _sens_data + ( 6 ) + 1
                 	__GETW1MN _sens_data,6
001129 17ae      	CP   R26,R30
00112a 07bf      	CPC  R27,R31
00112b f010      	BRLO PC+3
00112c 940c 116b 	JMP _0xC00F1
                 ; 0006 04AF temp_data = CalcPercent((sens_data[3]-sens_data[2]), sens_data[2],
                 ; 0006 04B0 raw_data[ch], (float)sens_nl2 ) ;
                +
00112e 91a0 69a1+LDS R26 , _sens_data + ( 6 )
001130 91b0 69a2+LDS R27 , _sens_data + ( 6 ) + 1
                 	__GETW2MN _sens_data,6
                +
001132 91e0 699f+LDS R30 , _sens_data + ( 4 )
001134 91f0 69a0+LDS R31 , _sens_data + ( 4 ) + 1
                 	__GETW1MN _sens_data,4
001136 1bae      	SUB  R26,R30
001137 0bbf      	SBC  R27,R31
001138 93ba      	ST   -Y,R27
001139 93aa      	ST   -Y,R26
00113a 93fa      	ST   -Y,R31
00113b 93ea      	ST   -Y,R30
00113c 2fe1      	MOV  R30,R17
00113d e0ad      	LDI  R26,LOW(_raw_data)
00113e e6bb      	LDI  R27,HIGH(_raw_data)
00113f e0f0      	LDI  R31,0
001140 0fee      	LSL  R30
001141 1fff      	ROL  R31
001142 0fae      	ADD  R26,R30
001143 1fbf      	ADC  R27,R31
001144 91ed      	LD   R30,X+
001145 91fd      	LD   R31,X+
001146 93fa      	ST   -Y,R31
001147 93ea      	ST   -Y,R30
001148 91e0 69a4 	LDS  R30,_sens_nl2
00114a 940e 31a4 	CALL __CBD1
00114c 940e 328f 	CALL __CDF1
00114e 01df      	MOVW R26,R30
00114f 01cb      	MOVW R24,R22
001150 940e 12ef 	CALL _CalcPercent
                +
001152 83e9     +STD Y + 1 , R30
001153 83fa     +STD Y + 1 + 1 , R31
001154 836b     +STD Y + 1 + 2 , R22
001155 837c     +STD Y + 1 + 3 , R23
                 	__PUTD1S 1
                 ; 0006 04B1 temp_data = temp_data*(100.0 - 60.0)+60.0 ;             /* caluclate % */
                +
001156 81a9     +LDD R26 , Y + 1
001157 81ba     +LDD R27 , Y + 1 + 1
001158 818b     +LDD R24 , Y + 1 + 2
001159 819c     +LDD R25 , Y + 1 + 3
                 	__GETD2S 1
                +
00115a e0e0     +LDI R30 , LOW ( 0x42200000 )
00115b e0f0     +LDI R31 , HIGH ( 0x42200000 )
00115c e260     +LDI R22 , BYTE3 ( 0x42200000 )
00115d e472     +LDI R23 , BYTE4 ( 0x42200000 )
                 	__GETD1N 0x42200000
00115e 940e 3318 	CALL __MULF12
                +
001160 e0a0     +LDI R26 , LOW ( 0x42700000 )
001161 e0b0     +LDI R27 , HIGH ( 0x42700000 )
001162 e780     +LDI R24 , BYTE3 ( 0x42700000 )
001163 e492     +LDI R25 , BYTE4 ( 0x42700000 )
                 	__GETD2N 0x42700000
001164 940e 32c9 	CALL __ADDF12
                +
001166 83e9     +STD Y + 1 , R30
001167 83fa     +STD Y + 1 + 1 , R31
001168 836b     +STD Y + 1 + 2 , R22
001169 837c     +STD Y + 1 + 3 , R23
                 	__PUTD1S 1
                 ; 0006 04B2 
                 ; 0006 04B3 }
                 ; 0006 04B4 else {
00116a c038      	RJMP _0xC00F2
                 _0xC00F1:
                 ; 0006 04B5 temp_data = CalcPercent((sens_data[3]-sens_data[2]), sens_data[2],
                 ; 0006 04B6 raw_data[ch], 0.0) ;
                +
00116b 91a0 69a1+LDS R26 , _sens_data + ( 6 )
00116d 91b0 69a2+LDS R27 , _sens_data + ( 6 ) + 1
                 	__GETW2MN _sens_data,6
                +
00116f 91e0 699f+LDS R30 , _sens_data + ( 4 )
001171 91f0 69a0+LDS R31 , _sens_data + ( 4 ) + 1
                 	__GETW1MN _sens_data,4
001173 1bae      	SUB  R26,R30
001174 0bbf      	SBC  R27,R31
001175 93ba      	ST   -Y,R27
001176 93aa      	ST   -Y,R26
001177 93fa      	ST   -Y,R31
001178 93ea      	ST   -Y,R30
001179 2fe1      	MOV  R30,R17
00117a e0ad      	LDI  R26,LOW(_raw_data)
00117b e6bb      	LDI  R27,HIGH(_raw_data)
00117c e0f0      	LDI  R31,0
00117d 0fee      	LSL  R30
00117e 1fff      	ROL  R31
00117f 0fae      	ADD  R26,R30
001180 1fbf      	ADC  R27,R31
001181 91ed      	LD   R30,X+
001182 91fd      	LD   R31,X+
001183 93fa      	ST   -Y,R31
001184 93ea      	ST   -Y,R30
                +
001185 e0a0     +LDI R26 , LOW ( 0x0 )
001186 e0b0     +LDI R27 , HIGH ( 0x0 )
001187 e080     +LDI R24 , BYTE3 ( 0x0 )
001188 e090     +LDI R25 , BYTE4 ( 0x0 )
                 	__GETD2N 0x0
001189 940e 12ef 	CALL _CalcPercent
                +
00118b 83e9     +STD Y + 1 , R30
00118c 83fa     +STD Y + 1 + 1 , R31
00118d 836b     +STD Y + 1 + 2 , R22
00118e 837c     +STD Y + 1 + 3 , R23
                 	__PUTD1S 1
                 ; 0006 04B7 temp_data = temp_data*(100.0 - 60.0)+60.0 ;             /* caluclate % */
                +
00118f 81a9     +LDD R26 , Y + 1
001190 81ba     +LDD R27 , Y + 1 + 1
001191 818b     +LDD R24 , Y + 1 + 2
001192 819c     +LDD R25 , Y + 1 + 3
                 	__GETD2S 1
                +
001193 e0e0     +LDI R30 , LOW ( 0x42200000 )
001194 e0f0     +LDI R31 , HIGH ( 0x42200000 )
001195 e260     +LDI R22 , BYTE3 ( 0x42200000 )
001196 e472     +LDI R23 , BYTE4 ( 0x42200000 )
                 	__GETD1N 0x42200000
001197 940e 3318 	CALL __MULF12
                +
001199 e0a0     +LDI R26 , LOW ( 0x42700000 )
00119a e0b0     +LDI R27 , HIGH ( 0x42700000 )
00119b e780     +LDI R24 , BYTE3 ( 0x42700000 )
00119c e492     +LDI R25 , BYTE4 ( 0x42700000 )
                 	__GETD2N 0x42700000
00119d 940e 32c9 	CALL __ADDF12
                +
00119f 83e9     +STD Y + 1 , R30
0011a0 83fa     +STD Y + 1 + 1 , R31
0011a1 836b     +STD Y + 1 + 2 , R22
0011a2 837c     +STD Y + 1 + 3 , R23
                 	__PUTD1S 1
                 ; 0006 04B8 }
                 _0xC00F2:
                 _0xC00F0:
                 _0xC00EE:
                 _0xC00EC:
                 ; 0006 04B9 
                 ; 0006 04BA temp_data *= ((((float)packed_data[ch >> 1][6]/10.0) -
                 ; 0006 04BB (float) packed_data[ch >> 1][5] / 100.0) /100.0 ) * 10.197162;
0011a3 2fe1      	MOV  R30,R17
0011a4 e0f0      	LDI  R31,0
0011a5 fde7      	SBRC R30,7
0011a6 efff      	SER  R31
0011a7 95f5      	ASR  R31
0011a8 95e7      	ROR  R30
0011a9 e2a8      	LDI  R26,LOW(40)
0011aa e0b0      	LDI  R27,HIGH(40)
0011ab 940e 31aa 	CALL __MULW12U
                +
0011ad 55e5     +SUBI R30 , LOW ( - _packed_data - ( 6 ) )
0011ae 49f6     +SBCI R31 , HIGH ( - _packed_data - ( 6 ) )
                 	__ADDW1MN _packed_data,6
0011af 81e0      	LD   R30,Z
0011b0 27ff      	CLR  R31
0011b1 2766      	CLR  R22
0011b2 2777      	CLR  R23
0011b3 940e 328f 	CALL __CDF1
0011b5 01df      	MOVW R26,R30
0011b6 01cb      	MOVW R24,R22
                +
0011b7 e0e0     +LDI R30 , LOW ( 0x41200000 )
0011b8 e0f0     +LDI R31 , HIGH ( 0x41200000 )
0011b9 e260     +LDI R22 , BYTE3 ( 0x41200000 )
0011ba e471     +LDI R23 , BYTE4 ( 0x41200000 )
                 	__GETD1N 0x41200000
0011bb 940e 3366 	CALL __DIVF21
0011bd 937f      	PUSH R23
0011be 936f      	PUSH R22
0011bf 93ff      	PUSH R31
0011c0 93ef      	PUSH R30
0011c1 2fe1      	MOV  R30,R17
0011c2 e0f0      	LDI  R31,0
0011c3 fde7      	SBRC R30,7
0011c4 efff      	SER  R31
0011c5 95f5      	ASR  R31
0011c6 95e7      	ROR  R30
0011c7 e2a8      	LDI  R26,LOW(40)
0011c8 e0b0      	LDI  R27,HIGH(40)
0011c9 940e 31aa 	CALL __MULW12U
                +
0011cb 55e6     +SUBI R30 , LOW ( - _packed_data - ( 5 ) )
0011cc 49f6     +SBCI R31 , HIGH ( - _packed_data - ( 5 ) )
                 	__ADDW1MN _packed_data,5
0011cd 81e0      	LD   R30,Z
0011ce 27ff      	CLR  R31
0011cf 2766      	CLR  R22
0011d0 2777      	CLR  R23
0011d1 940e 328f 	CALL __CDF1
0011d3 01df      	MOVW R26,R30
0011d4 01cb      	MOVW R24,R22
                +
0011d5 e0e0     +LDI R30 , LOW ( 0x42C80000 )
0011d6 e0f0     +LDI R31 , HIGH ( 0x42C80000 )
0011d7 ec68     +LDI R22 , BYTE3 ( 0x42C80000 )
0011d8 e472     +LDI R23 , BYTE4 ( 0x42C80000 )
                 	__GETD1N 0x42C80000
0011d9 940e 3366 	CALL __DIVF21
0011db 91af      	POP  R26
0011dc 91bf      	POP  R27
0011dd 918f      	POP  R24
0011de 919f      	POP  R25
0011df 940e 31ed 	CALL __SWAPD12
0011e1 940e 32c2 	CALL __SUBF12
0011e3 01df      	MOVW R26,R30
0011e4 01cb      	MOVW R24,R22
                +
0011e5 e0e0     +LDI R30 , LOW ( 0x42C80000 )
0011e6 e0f0     +LDI R31 , HIGH ( 0x42C80000 )
0011e7 ec68     +LDI R22 , BYTE3 ( 0x42C80000 )
0011e8 e472     +LDI R23 , BYTE4 ( 0x42C80000 )
                 	__GETD1N 0x42C80000
0011e9 940e 3366 	CALL __DIVF21
                +
0011eb e9a3     +LDI R26 , LOW ( 0x41232793 )
0011ec e2b7     +LDI R27 , HIGH ( 0x41232793 )
0011ed e283     +LDI R24 , BYTE3 ( 0x41232793 )
0011ee e491     +LDI R25 , BYTE4 ( 0x41232793 )
                 	__GETD2N 0x41232793
0011ef 940e 3318 	CALL __MULF12
                +
0011f1 81a9     +LDD R26 , Y + 1
0011f2 81ba     +LDD R27 , Y + 1 + 1
0011f3 818b     +LDD R24 , Y + 1 + 2
0011f4 819c     +LDD R25 , Y + 1 + 3
                 	__GETD2S 1
0011f5 940e 3318 	CALL __MULF12
                +
0011f7 83e9     +STD Y + 1 , R30
0011f8 83fa     +STD Y + 1 + 1 , R31
0011f9 836b     +STD Y + 1 + 2 , R22
0011fa 837c     +STD Y + 1 + 3 , R23
                 	__PUTD1S 1
                 ; 0006 04BC temp_data -= ((float) offset[ch] / 1000.0) ;
0011fb 2fe1      	MOV  R30,R17
0011fc eaa3      	LDI  R26,LOW(_offset)
0011fd e6bb      	LDI  R27,HIGH(_offset)
0011fe e0f0      	LDI  R31,0
0011ff 0fee      	LSL  R30
001200 1fff      	ROL  R31
001201 0fae      	ADD  R26,R30
001202 1fbf      	ADC  R27,R31
001203 91ed      	LD   R30,X+
001204 91fd      	LD   R31,X+
001205 2766      	CLR  R22
001206 2777      	CLR  R23
001207 940e 328f 	CALL __CDF1
001209 01df      	MOVW R26,R30
00120a 01cb      	MOVW R24,R22
                +
00120b e0e0     +LDI R30 , LOW ( 0x447A0000 )
00120c e0f0     +LDI R31 , HIGH ( 0x447A0000 )
00120d e76a     +LDI R22 , BYTE3 ( 0x447A0000 )
00120e e474     +LDI R23 , BYTE4 ( 0x447A0000 )
                 	__GETD1N 0x447A0000
00120f 940e 3366 	CALL __DIVF21
                +
001211 81a9     +LDD R26 , Y + 1
001212 81ba     +LDD R27 , Y + 1 + 1
001213 818b     +LDD R24 , Y + 1 + 2
001214 819c     +LDD R25 , Y + 1 + 3
                 	__GETD2S 1
001215 940e 31ed 	CALL __SWAPD12
001217 940e 32c2 	CALL __SUBF12
                +
001219 83e9     +STD Y + 1 , R30
00121a 83fa     +STD Y + 1 + 1 , R31
00121b 836b     +STD Y + 1 + 2 , R22
00121c 837c     +STD Y + 1 + 3 , R23
                 	__PUTD1S 1
                 ; 0006 04BD temp_data *=  gain[ch] ;
00121d 2fe1      	MOV  R30,R17
00121e e6ab      	LDI  R26,LOW(_gain)
00121f e6bb      	LDI  R27,HIGH(_gain)
001220 e0f0      	LDI  R31,0
001221 940e 3196 	CALL __LSLW2
001223 0fae      	ADD  R26,R30
001224 1fbf      	ADC  R27,R31
                +
001225 91ed     +LD R30 , X +
001226 91fd     +LD R31 , X +
001227 916d     +LD R22 , X +
001228 917d     +LD R23 , X +
                 	__GETD1P_INC
                +
001229 81a9     +LDD R26 , Y + 1
00122a 81ba     +LDD R27 , Y + 1 + 1
00122b 818b     +LDD R24 , Y + 1 + 2
00122c 819c     +LDD R25 , Y + 1 + 3
                 	__GETD2S 1
00122d 940e 3318 	CALL __MULF12
                +
00122f 83e9     +STD Y + 1 , R30
001230 83fa     +STD Y + 1 + 1 , R31
001231 836b     +STD Y + 1 + 2 , R22
001232 837c     +STD Y + 1 + 3 , R23
                 	__PUTD1S 1
                 ; 0006 04BE temp_data += ((float) packed_data[ch >> 1][5] / 100.0)  * 10.197162 ;
001233 2fe1      	MOV  R30,R17
001234 e0f0      	LDI  R31,0
001235 fde7      	SBRC R30,7
001236 efff      	SER  R31
001237 95f5      	ASR  R31
001238 95e7      	ROR  R30
001239 e2a8      	LDI  R26,LOW(40)
00123a e0b0      	LDI  R27,HIGH(40)
00123b 940e 31aa 	CALL __MULW12U
                +
00123d 55e6     +SUBI R30 , LOW ( - _packed_data - ( 5 ) )
00123e 49f6     +SBCI R31 , HIGH ( - _packed_data - ( 5 ) )
                 	__ADDW1MN _packed_data,5
00123f 81e0      	LD   R30,Z
001240 27ff      	CLR  R31
001241 2766      	CLR  R22
001242 2777      	CLR  R23
001243 940e 328f 	CALL __CDF1
001245 01df      	MOVW R26,R30
001246 01cb      	MOVW R24,R22
                +
001247 e0e0     +LDI R30 , LOW ( 0x42C80000 )
001248 e0f0     +LDI R31 , HIGH ( 0x42C80000 )
001249 ec68     +LDI R22 , BYTE3 ( 0x42C80000 )
00124a e472     +LDI R23 , BYTE4 ( 0x42C80000 )
                 	__GETD1N 0x42C80000
00124b 940e 3366 	CALL __DIVF21
                +
00124d e9a3     +LDI R26 , LOW ( 0x41232793 )
00124e e2b7     +LDI R27 , HIGH ( 0x41232793 )
00124f e283     +LDI R24 , BYTE3 ( 0x41232793 )
001250 e491     +LDI R25 , BYTE4 ( 0x41232793 )
                 	__GETD2N 0x41232793
001251 940e 3318 	CALL __MULF12
                +
001253 81a9     +LDD R26 , Y + 1
001254 81ba     +LDD R27 , Y + 1 + 1
001255 818b     +LDD R24 , Y + 1 + 2
001256 819c     +LDD R25 , Y + 1 + 3
                 	__GETD2S 1
001257 940e 32c9 	CALL __ADDF12
                +
001259 83e9     +STD Y + 1 , R30
00125a 83fa     +STD Y + 1 + 1 , R31
00125b 836b     +STD Y + 1 + 2 , R22
00125c 837c     +STD Y + 1 + 3 , R23
                 	__PUTD1S 1
                 ; 0006 04BF mes_data[ch] += (temp_data - mes_data[ch])/ ((float)p_filter + 1.0) ;
00125d 2fe1      	MOV  R30,R17
00125e e2a9      	LDI  R26,LOW(_mes_data)
00125f e6bb      	LDI  R27,HIGH(_mes_data)
001260 e0f0      	LDI  R31,0
001261 940e 3196 	CALL __LSLW2
001263 0fea      	ADD  R30,R26
001264 1ffb      	ADC  R31,R27
001265 93ff      	PUSH R31
001266 93ef      	PUSH R30
001267 01df      	MOVW R26,R30
                +
001268 91ed     +LD R30 , X +
001269 91fd     +LD R31 , X +
00126a 916d     +LD R22 , X +
00126b 917d     +LD R23 , X +
                 	__GETD1P_INC
00126c 937f      	PUSH R23
00126d 936f      	PUSH R22
00126e 93ff      	PUSH R31
00126f 93ef      	PUSH R30
001270 2fe1      	MOV  R30,R17
001271 e2a9      	LDI  R26,LOW(_mes_data)
001272 e6bb      	LDI  R27,HIGH(_mes_data)
001273 e0f0      	LDI  R31,0
001274 940e 3196 	CALL __LSLW2
001276 0fae      	ADD  R26,R30
001277 1fbf      	ADC  R27,R31
                +
001278 91ed     +LD R30 , X +
001279 91fd     +LD R31 , X +
00127a 916d     +LD R22 , X +
00127b 917d     +LD R23 , X +
                 	__GETD1P_INC
                +
00127c 81a9     +LDD R26 , Y + 1
00127d 81ba     +LDD R27 , Y + 1 + 1
00127e 818b     +LDD R24 , Y + 1 + 2
00127f 819c     +LDD R25 , Y + 1 + 3
                 	__GETD2S 1
001280 940e 31ed 	CALL __SWAPD12
001282 940e 32c2 	CALL __SUBF12
001284 937f      	PUSH R23
001285 936f      	PUSH R22
001286 93ff      	PUSH R31
001287 93ef      	PUSH R30
001288 91e0 6be7 	LDS  R30,_p_filter
00128a 27ff      	CLR  R31
00128b 2766      	CLR  R22
00128c 2777      	CLR  R23
00128d 940e 328f 	CALL __CDF1
                +
00128f e0a0     +LDI R26 , LOW ( 0x3F800000 )
001290 e0b0     +LDI R27 , HIGH ( 0x3F800000 )
001291 e880     +LDI R24 , BYTE3 ( 0x3F800000 )
001292 e39f     +LDI R25 , BYTE4 ( 0x3F800000 )
                 	__GETD2N 0x3F800000
001293 940e 32c9 	CALL __ADDF12
001295 91af      	POP  R26
001296 91bf      	POP  R27
001297 918f      	POP  R24
001298 919f      	POP  R25
001299 940e 3366 	CALL __DIVF21
00129b 91af      	POP  R26
00129c 91bf      	POP  R27
00129d 918f      	POP  R24
00129e 919f      	POP  R25
00129f 940e 32c9 	CALL __ADDF12
0012a1 91af      	POP  R26
0012a2 91bf      	POP  R27
                +
0012a3 93ed     +ST X + , R30
0012a4 93fd     +ST X + , R31
0012a5 936d     +ST X + , R22
0012a6 937c     +ST X , R23
                 	__PUTDP1
                 ; 0006 04C0 if ( (mes_data[ch] > 500.0) || (mes_data[ch] < -50.0) ) {
0012a7 2fe1      	MOV  R30,R17
0012a8 e2a9      	LDI  R26,LOW(_mes_data)
0012a9 e6bb      	LDI  R27,HIGH(_mes_data)
0012aa e0f0      	LDI  R31,0
0012ab 940e 3196 	CALL __LSLW2
0012ad 0fae      	ADD  R26,R30
0012ae 1fbf      	ADC  R27,R31
                +
0012af 91ed     +LD R30 , X +
0012b0 91fd     +LD R31 , X +
0012b1 916d     +LD R22 , X +
0012b2 917d     +LD R23 , X +
                 	__GETD1P_INC
0012b3 01df      	MOVW R26,R30
0012b4 01cb      	MOVW R24,R22
                +
0012b5 e0e0     +LDI R30 , LOW ( 0x43FA0000 )
0012b6 e0f0     +LDI R31 , HIGH ( 0x43FA0000 )
0012b7 ef6a     +LDI R22 , BYTE3 ( 0x43FA0000 )
0012b8 e473     +LDI R23 , BYTE4 ( 0x43FA0000 )
                 	__GETD1N 0x43FA0000
0012b9 940e 33aa 	CALL __CMPF12
0012bb f019      	BREQ PC+4
0012bc f010      	BRCS PC+3
0012bd 940c 12d7 	JMP  _0xC00F4
0012bf 2fe1      	MOV  R30,R17
0012c0 e2a9      	LDI  R26,LOW(_mes_data)
0012c1 e6bb      	LDI  R27,HIGH(_mes_data)
0012c2 e0f0      	LDI  R31,0
0012c3 940e 3196 	CALL __LSLW2
0012c5 0fae      	ADD  R26,R30
0012c6 1fbf      	ADC  R27,R31
                +
0012c7 91ed     +LD R30 , X +
0012c8 91fd     +LD R31 , X +
0012c9 916d     +LD R22 , X +
0012ca 917d     +LD R23 , X +
                 	__GETD1P_INC
0012cb 01df      	MOVW R26,R30
0012cc 01cb      	MOVW R24,R22
                +
0012cd e0e0     +LDI R30 , LOW ( 0xC2480000 )
0012ce e0f0     +LDI R31 , HIGH ( 0xC2480000 )
0012cf e468     +LDI R22 , BYTE3 ( 0xC2480000 )
0012d0 ec72     +LDI R23 , BYTE4 ( 0xC2480000 )
                 	__GETD1N 0xC2480000
0012d1 940e 33aa 	CALL __CMPF12
0012d3 f410      	BRSH PC+3
0012d4 940c 12d7 	JMP _0xC00F4
0012d6 c010      	RJMP _0xC00F3
                 _0xC00F4:
                 ; 0006 04C1 mes_data[ch] = 0.0 ;
0012d7 2fe1      	MOV  R30,R17
0012d8 e2a9      	LDI  R26,LOW(_mes_data)
0012d9 e6bb      	LDI  R27,HIGH(_mes_data)
0012da e0f0      	LDI  R31,0
0012db 940e 3196 	CALL __LSLW2
0012dd 0fae      	ADD  R26,R30
0012de 1fbf      	ADC  R27,R31
                +
0012df e0e0     +LDI R30 , LOW ( 0x0 )
0012e0 e0f0     +LDI R31 , HIGH ( 0x0 )
0012e1 e060     +LDI R22 , BYTE3 ( 0x0 )
0012e2 e070     +LDI R23 , BYTE4 ( 0x0 )
                 	__GETD1N 0x0
                +
0012e3 93ed     +ST X + , R30
0012e4 93fd     +ST X + , R31
0012e5 936d     +ST X + , R22
0012e6 937c     +ST X , R23
                 	__PUTDP1
                 ; 0006 04C2 }
                 ; 0006 04C3 Led(2, OFF) ;                                   /* Led 2 off */
                 _0xC00F3:
0012e7 e0e2      	LDI  R30,LOW(2)
0012e8 93ea      	ST   -Y,R30
0012e9 e0a0      	LDI  R26,LOW(0)
0012ea 940e 066e 	CALL _Led
                 ; 0006 04C4 
                 ; 0006 04C5 }
0012ec 8118      	LDD  R17,Y+0
0012ed 9625      	ADIW R28,5
0012ee 9508      	RET
                 ; .FEND
                 ; 0006 04CD float nl)
                 ;float nl)
                 ; 0006 04CE {
                 _CalcPercent:
                 ; .FSTART _CalcPercent
                 ; 0006 04CF 
                 ; 0006 04D0 float x, yy, fspan, range ;
                 ; 0006 04D1 
                 ; 0006 04D2 range = (float)raw_data - (float)low_span ;
0012ef 940e 31e3 	CALL __PUTPARD2
0012f1 9760      	SBIW R28,16
0012f2 940e 3151 	CALL __SAVELOCR6
                +
0012f4 8d0a     +LDD R16 , Y + 26
0012f5 8d1b     +LDD R17 , Y + 26 + 1
                 	__GETWRS 16,17,26
                +
0012f6 8d2c     +LDD R18 , Y + 28
0012f7 8d3d     +LDD R19 , Y + 28 + 1
                 	__GETWRS 18,19,28
                +
0012f8 8d4e     +LDD R20 , Y + 30
0012f9 8d5f     +LDD R21 , Y + 30 + 1
                 	__GETWRS 20,21,30
                 ;	span -> R20,R21
                 ;	low_span -> R18,R19
                 ;	raw_data -> R16,R17
                 ;	nl -> Y+22
                 ;	x -> Y+18
                 ;	yy -> Y+14
                 ;	fspan -> Y+10
                 ;	range -> Y+6
0012fa 01f8      	MOVW R30,R16
0012fb 2766      	CLR  R22
0012fc 2777      	CLR  R23
0012fd 940e 328f 	CALL __CDF1
0012ff 01df      	MOVW R26,R30
001300 01cb      	MOVW R24,R22
001301 01f9      	MOVW R30,R18
001302 2766      	CLR  R22
001303 2777      	CLR  R23
001304 940e 328f 	CALL __CDF1
001306 940e 31ed 	CALL __SWAPD12
001308 940e 32c2 	CALL __SUBF12
                +
00130a 83ee     +STD Y + 6 , R30
00130b 83ff     +STD Y + 6 + 1 , R31
00130c 8768     +STD Y + 6 + 2 , R22
00130d 8779     +STD Y + 6 + 3 , R23
                 	__PUTD1S 6
                 ; 0006 04D3 fspan = (float)span ;
00130e 01fa      	MOVW R30,R20
00130f 2766      	CLR  R22
001310 2777      	CLR  R23
001311 940e 328f 	CALL __CDF1
                +
001313 87ea     +STD Y + 10 , R30
001314 87fb     +STD Y + 10 + 1 , R31
001315 876c     +STD Y + 10 + 2 , R22
001316 877d     +STD Y + 10 + 3 , R23
                 	__PUTD1S 10
                 ; 0006 04D4 
                 ; 0006 04D5 x = range/fspan ;
                +
001317 81ae     +LDD R26 , Y + 6
001318 81bf     +LDD R27 , Y + 6 + 1
001319 8588     +LDD R24 , Y + 6 + 2
00131a 8599     +LDD R25 , Y + 6 + 3
                 	__GETD2S 6
00131b 940e 3366 	CALL __DIVF21
                +
00131d 8bea     +STD Y + 18 , R30
00131e 8bfb     +STD Y + 18 + 1 , R31
00131f 8b6c     +STD Y + 18 + 2 , R22
001320 8b7d     +STD Y + 18 + 3 , R23
                 	__PUTD1S 18
                 ; 0006 04D6 yy = (fspan - fspan*x)*fspan*x*nl/(fspan * fspan / 4.0) ;
                +
001321 85aa     +LDD R26 , Y + 10
001322 85bb     +LDD R27 , Y + 10 + 1
001323 858c     +LDD R24 , Y + 10 + 2
001324 859d     +LDD R25 , Y + 10 + 3
                 	__GETD2S 10
001325 940e 3318 	CALL __MULF12
                +
001327 85aa     +LDD R26 , Y + 10
001328 85bb     +LDD R27 , Y + 10 + 1
001329 858c     +LDD R24 , Y + 10 + 2
00132a 859d     +LDD R25 , Y + 10 + 3
                 	__GETD2S 10
00132b 940e 31ed 	CALL __SWAPD12
00132d 940e 32c2 	CALL __SUBF12
                +
00132f 85aa     +LDD R26 , Y + 10
001330 85bb     +LDD R27 , Y + 10 + 1
001331 858c     +LDD R24 , Y + 10 + 2
001332 859d     +LDD R25 , Y + 10 + 3
                 	__GETD2S 10
001333 940e 3318 	CALL __MULF12
                +
001335 89aa     +LDD R26 , Y + 18
001336 89bb     +LDD R27 , Y + 18 + 1
001337 898c     +LDD R24 , Y + 18 + 2
001338 899d     +LDD R25 , Y + 18 + 3
                 	__GETD2S 18
001339 940e 3318 	CALL __MULF12
                +
00133b 89ae     +LDD R26 , Y + 22
00133c 89bf     +LDD R27 , Y + 22 + 1
00133d 8d88     +LDD R24 , Y + 22 + 2
00133e 8d99     +LDD R25 , Y + 22 + 3
                 	__GETD2S 22
00133f 940e 3318 	CALL __MULF12
001341 937f      	PUSH R23
001342 936f      	PUSH R22
001343 93ff      	PUSH R31
001344 93ef      	PUSH R30
                +
001345 85ea     +LDD R30 , Y + 10
001346 85fb     +LDD R31 , Y + 10 + 1
001347 856c     +LDD R22 , Y + 10 + 2
001348 857d     +LDD R23 , Y + 10 + 3
                 	__GETD1S 10
                +
001349 85aa     +LDD R26 , Y + 10
00134a 85bb     +LDD R27 , Y + 10 + 1
00134b 858c     +LDD R24 , Y + 10 + 2
00134c 859d     +LDD R25 , Y + 10 + 3
                 	__GETD2S 10
00134d 940e 3318 	CALL __MULF12
00134f 01df      	MOVW R26,R30
001350 01cb      	MOVW R24,R22
                +
001351 e0e0     +LDI R30 , LOW ( 0x40800000 )
001352 e0f0     +LDI R31 , HIGH ( 0x40800000 )
001353 e860     +LDI R22 , BYTE3 ( 0x40800000 )
001354 e470     +LDI R23 , BYTE4 ( 0x40800000 )
                 	__GETD1N 0x40800000
001355 940e 3366 	CALL __DIVF21
001357 91af      	POP  R26
001358 91bf      	POP  R27
001359 918f      	POP  R24
00135a 919f      	POP  R25
00135b 940e 3366 	CALL __DIVF21
                +
00135d 87ee     +STD Y + 14 , R30
00135e 87ff     +STD Y + 14 + 1 , R31
00135f 8b68     +STD Y + 14 + 2 , R22
001360 8b79     +STD Y + 14 + 3 , R23
                 	__PUTD1S 14
                 ; 0006 04D7 return(range - yy)/fspan ;
                +
001361 85ae     +LDD R26 , Y + 14
001362 85bf     +LDD R27 , Y + 14 + 1
001363 8988     +LDD R24 , Y + 14 + 2
001364 8999     +LDD R25 , Y + 14 + 3
                 	__GETD2S 14
                +
001365 81ee     +LDD R30 , Y + 6
001366 81ff     +LDD R31 , Y + 6 + 1
001367 8568     +LDD R22 , Y + 6 + 2
001368 8579     +LDD R23 , Y + 6 + 3
                 	__GETD1S 6
001369 940e 32c2 	CALL __SUBF12
00136b 01df      	MOVW R26,R30
00136c 01cb      	MOVW R24,R22
                +
00136d 85ea     +LDD R30 , Y + 10
00136e 85fb     +LDD R31 , Y + 10 + 1
00136f 856c     +LDD R22 , Y + 10 + 2
001370 857d     +LDD R23 , Y + 10 + 3
                 	__GETD1S 10
001371 940e 3366 	CALL __DIVF21
001373 940e 3158 	CALL __LOADLOCR6
001375 96a0      	ADIW R28,32
001376 9508      	RET
                 ; 0006 04D8 
                 ; 0006 04D9 }
                 ; .FEND
                 ;float GetTempFromR(float R)
                 ; 0006 04E1 {     float Tmp;
                 _GetTempFromR:
                 ; .FSTART _GetTempFromR
                 ; 0006 04E2 const float C0 = -245.19;
                 ; 0006 04E3 const float C1 = 2.5293;
                 ; 0006 04E4 const float C2 = -0.066046;
                 ; 0006 04E5 const float C3 = 4.0422e-3;
                 ; 0006 04E6 const float C4 = -2.0697e-6;
                 ; 0006 04E7 const float C5 = -0.025422;
                 ; 0006 04E8 const float C6 = 1.6883e-3;
                 ; 0006 04E9 const float C7 = -1.3601e-6;
                 ; 0006 04EA Tmp = C0 + R*(C1+R*(C2+R*(C3+C4*R)))/(1+R*(C5+R*(C6+C7*R)));
001377 940e 31e3 	CALL __PUTPARD2
001379 97a4      	SBIW R28,36
00137a e280      	LDI  R24,32
                +
00137b e060     +LDI R22 , LOW ( 0 )
00137c e070     +LDI R23 , HIGH ( 0 )
                 	__GETWRN 22,23,0
00137d e0e4      	LDI  R30,LOW(_0xC00F6*2)
00137e e0f2      	LDI  R31,HIGH(_0xC00F6*2)
00137f 940e 315f 	CALL __INITLOCB
                 ;	R -> Y+36
                 ;	Tmp -> Y+32
                 ;	C0 -> Y+28
                 ;	C1 -> Y+24
                 ;	C2 -> Y+20
                 ;	C3 -> Y+16
                 ;	C4 -> Y+12
                 ;	C5 -> Y+8
                 ;	C6 -> Y+4
                 ;	C7 -> Y+0
                +
001381 a1ec     +LDD R30 , Y + 36
001382 a1fd     +LDD R31 , Y + 36 + 1
001383 a16e     +LDD R22 , Y + 36 + 2
001384 a17f     +LDD R23 , Y + 36 + 3
                 	__GETD1S 36
                +
001385 e2ad     +LDI R26 , LOW ( 0xB60AE52D )
001386 eeb5     +LDI R27 , HIGH ( 0xB60AE52D )
001387 e08a     +LDI R24 , BYTE3 ( 0xB60AE52D )
001388 eb96     +LDI R25 , BYTE4 ( 0xB60AE52D )
                 	__GETD2N 0xB60AE52D
001389 940e 3318 	CALL __MULF12
                +
00138b e6ae     +LDI R26 , LOW ( 0x3B84746E )
00138c e7b4     +LDI R27 , HIGH ( 0x3B84746E )
00138d e884     +LDI R24 , BYTE3 ( 0x3B84746E )
00138e e39b     +LDI R25 , BYTE4 ( 0x3B84746E )
                 	__GETD2N 0x3B84746E
00138f 940e 32c9 	CALL __ADDF12
                +
001391 a1ac     +LDD R26 , Y + 36
001392 a1bd     +LDD R27 , Y + 36 + 1
001393 a18e     +LDD R24 , Y + 36 + 2
001394 a19f     +LDD R25 , Y + 36 + 3
                 	__GETD2S 36
001395 940e 3318 	CALL __MULF12
                +
001397 e2a0     +LDI R26 , LOW ( 0xBD874320 )
001398 e4b3     +LDI R27 , HIGH ( 0xBD874320 )
001399 e887     +LDI R24 , BYTE3 ( 0xBD874320 )
00139a eb9d     +LDI R25 , BYTE4 ( 0xBD874320 )
                 	__GETD2N 0xBD874320
00139b 940e 32c9 	CALL __ADDF12
                +
00139d a1ac     +LDD R26 , Y + 36
00139e a1bd     +LDD R27 , Y + 36 + 1
00139f a18e     +LDD R24 , Y + 36 + 2
0013a0 a19f     +LDD R25 , Y + 36 + 3
                 	__GETD2S 36
0013a1 940e 3318 	CALL __MULF12
                +
0013a3 e0ad     +LDI R26 , LOW ( 0x4021E00D )
0013a4 eeb0     +LDI R27 , HIGH ( 0x4021E00D )
0013a5 e281     +LDI R24 , BYTE3 ( 0x4021E00D )
0013a6 e490     +LDI R25 , BYTE4 ( 0x4021E00D )
                 	__GETD2N 0x4021E00D
0013a7 940e 32c9 	CALL __ADDF12
                +
0013a9 a1ac     +LDD R26 , Y + 36
0013aa a1bd     +LDD R27 , Y + 36 + 1
0013ab a18e     +LDD R24 , Y + 36 + 2
0013ac a19f     +LDD R25 , Y + 36 + 3
                 	__GETD2S 36
0013ad 940e 3318 	CALL __MULF12
0013af 937f      	PUSH R23
0013b0 936f      	PUSH R22
0013b1 93ff      	PUSH R31
0013b2 93ef      	PUSH R30
                +
0013b3 a1ec     +LDD R30 , Y + 36
0013b4 a1fd     +LDD R31 , Y + 36 + 1
0013b5 a16e     +LDD R22 , Y + 36 + 2
0013b6 a17f     +LDD R23 , Y + 36 + 3
                 	__GETD1S 36
                +
0013b7 eaae     +LDI R26 , LOW ( 0xB5B68CAE )
0013b8 e8bc     +LDI R27 , HIGH ( 0xB5B68CAE )
0013b9 eb86     +LDI R24 , BYTE3 ( 0xB5B68CAE )
0013ba eb95     +LDI R25 , BYTE4 ( 0xB5B68CAE )
                 	__GETD2N 0xB5B68CAE
0013bb 940e 3318 	CALL __MULF12
                +
0013bd efa3     +LDI R26 , LOW ( 0x3ADD49F3 )
0013be e4b9     +LDI R27 , HIGH ( 0x3ADD49F3 )
0013bf ed8d     +LDI R24 , BYTE3 ( 0x3ADD49F3 )
0013c0 e39a     +LDI R25 , BYTE4 ( 0x3ADD49F3 )
                 	__GETD2N 0x3ADD49F3
0013c1 940e 32c9 	CALL __ADDF12
                +
0013c3 a1ac     +LDD R26 , Y + 36
0013c4 a1bd     +LDD R27 , Y + 36 + 1
0013c5 a18e     +LDD R24 , Y + 36 + 2
0013c6 a19f     +LDD R25 , Y + 36 + 3
                 	__GETD2S 36
0013c7 940e 3318 	CALL __MULF12
                +
0013c9 ecac     +LDI R26 , LOW ( 0xBCD041CC )
0013ca e4b1     +LDI R27 , HIGH ( 0xBCD041CC )
0013cb ed80     +LDI R24 , BYTE3 ( 0xBCD041CC )
0013cc eb9c     +LDI R25 , BYTE4 ( 0xBCD041CC )
                 	__GETD2N 0xBCD041CC
0013cd 940e 32c9 	CALL __ADDF12
                +
0013cf a1ac     +LDD R26 , Y + 36
0013d0 a1bd     +LDD R27 , Y + 36 + 1
0013d1 a18e     +LDD R24 , Y + 36 + 2
0013d2 a19f     +LDD R25 , Y + 36 + 3
                 	__GETD2S 36
0013d3 940e 3318 	CALL __MULF12
                +
0013d5 e0a0     +LDI R26 , LOW ( 0x3F800000 )
0013d6 e0b0     +LDI R27 , HIGH ( 0x3F800000 )
0013d7 e880     +LDI R24 , BYTE3 ( 0x3F800000 )
0013d8 e39f     +LDI R25 , BYTE4 ( 0x3F800000 )
                 	__GETD2N 0x3F800000
0013d9 940e 32c9 	CALL __ADDF12
0013db 91af      	POP  R26
0013dc 91bf      	POP  R27
0013dd 918f      	POP  R24
0013de 919f      	POP  R25
0013df 940e 3366 	CALL __DIVF21
                +
0013e1 eaa4     +LDI R26 , LOW ( 0xC37530A4 )
0013e2 e3b0     +LDI R27 , HIGH ( 0xC37530A4 )
0013e3 e785     +LDI R24 , BYTE3 ( 0xC37530A4 )
0013e4 ec93     +LDI R25 , BYTE4 ( 0xC37530A4 )
                 	__GETD2N 0xC37530A4
0013e5 940e 32c9 	CALL __ADDF12
                +
0013e7 a3e8     +STD Y + 32 , R30
0013e8 a3f9     +STD Y + 32 + 1 , R31
0013e9 a36a     +STD Y + 32 + 2 , R22
0013ea a37b     +STD Y + 32 + 3 , R23
                 	__PUTD1S 32
                 ; 0006 04EB return Tmp;
0013eb 96a8      	ADIW R28,40
0013ec 9508      	RET
                 ; 0006 04EC }
                 ; .FEND
                 ;void CalcTemp(signed char ch)
                 ; 0006 04EF {   float temp_data;
                 _CalcTemp:
                 ; .FSTART _CalcTemp
                 ; 0006 04F0 
                 ; 0006 04F1 
                 ; 0006 04F2 float resist = (float)raw_data[ch] ;
                 ; 0006 04F3 resist /= 10.0 ;
0013ed 93aa      	ST   -Y,R26
0013ee 9728      	SBIW R28,8
                 ;	ch -> Y+8
                 ;	temp_data -> Y+4
                 ;	resist -> Y+0
0013ef 85e8      	LDD  R30,Y+8
0013f0 e0ad      	LDI  R26,LOW(_raw_data)
0013f1 e6bb      	LDI  R27,HIGH(_raw_data)
0013f2 e0f0      	LDI  R31,0
0013f3 0fee      	LSL  R30
0013f4 1fff      	ROL  R31
0013f5 0fae      	ADD  R26,R30
0013f6 1fbf      	ADC  R27,R31
0013f7 91ed      	LD   R30,X+
0013f8 91fd      	LD   R31,X+
0013f9 2766      	CLR  R22
0013fa 2777      	CLR  R23
0013fb 940e 328f 	CALL __CDF1
                +
0013fd 83e8     +STD Y + 0 , R30
0013fe 83f9     +STD Y + 0 + 1 , R31
0013ff 836a     +STD Y + 0 + 2 , R22
001400 837b     +STD Y + 0 + 3 , R23
                 	__PUTD1S 0
                +
001401 81a8     +LDD R26 , Y + 0
001402 81b9     +LDD R27 , Y + 0 + 1
001403 818a     +LDD R24 , Y + 0 + 2
001404 819b     +LDD R25 , Y + 0 + 3
                 	__GETD2S 0
                +
001405 e0e0     +LDI R30 , LOW ( 0x41200000 )
001406 e0f0     +LDI R31 , HIGH ( 0x41200000 )
001407 e260     +LDI R22 , BYTE3 ( 0x41200000 )
001408 e471     +LDI R23 , BYTE4 ( 0x41200000 )
                 	__GETD1N 0x41200000
001409 940e 3366 	CALL __DIVF21
                +
00140b 83e8     +STD Y + 0 , R30
00140c 83f9     +STD Y + 0 + 1 , R31
00140d 836a     +STD Y + 0 + 2 , R22
00140e 837b     +STD Y + 0 + 3 , R23
                 	__PUTD1S 0
                 ; 0006 04F4 if ( resist > 500.0 ) {                              /* Pt 1000 ?*/
                +
00140f 81a8     +LDD R26 , Y + 0
001410 81b9     +LDD R27 , Y + 0 + 1
001411 818a     +LDD R24 , Y + 0 + 2
001412 819b     +LDD R25 , Y + 0 + 3
                 	__GETD2S 0
                +
001413 e0e0     +LDI R30 , LOW ( 0x43FA0000 )
001414 e0f0     +LDI R31 , HIGH ( 0x43FA0000 )
001415 ef6a     +LDI R22 , BYTE3 ( 0x43FA0000 )
001416 e473     +LDI R23 , BYTE4 ( 0x43FA0000 )
                 	__GETD1N 0x43FA0000
001417 940e 33aa 	CALL __CMPF12
001419 f009      	BREQ PC+2
00141a f410      	BRCC PC+3
00141b 940c 1427 	JMP  _0xC00F7
                 ; 0006 04F5 resist /= 10.0 ;                                /* Yes */
                +
00141d e0e0     +LDI R30 , LOW ( 0x41200000 )
00141e e0f0     +LDI R31 , HIGH ( 0x41200000 )
00141f e260     +LDI R22 , BYTE3 ( 0x41200000 )
001420 e471     +LDI R23 , BYTE4 ( 0x41200000 )
                 	__GETD1N 0x41200000
001421 940e 3366 	CALL __DIVF21
                +
001423 83e8     +STD Y + 0 , R30
001424 83f9     +STD Y + 0 + 1 , R31
001425 836a     +STD Y + 0 + 2 , R22
001426 837b     +STD Y + 0 + 3 , R23
                 	__PUTD1S 0
                 ; 0006 04F6 }
                 ; 0006 04F7 temp_data = GetTempFromR(resist);
                 _0xC00F7:
                +
001427 81a8     +LDD R26 , Y + 0
001428 81b9     +LDD R27 , Y + 0 + 1
001429 818a     +LDD R24 , Y + 0 + 2
00142a 819b     +LDD R25 , Y + 0 + 3
                 	__GETD2S 0
00142b 940e 1377 	CALL _GetTempFromR
                +
00142d 83ec     +STD Y + 4 , R30
00142e 83fd     +STD Y + 4 + 1 , R31
00142f 836e     +STD Y + 4 + 2 , R22
001430 837f     +STD Y + 4 + 3 , R23
                 	__PUTD1S 4
                 ; 0006 04F8 /*
                 ; 0006 04F9 float temp_resist = resist - 100.0 ;
                 ; 0006 04FA temp_data = (temp_resist / 0.390802) +
                 ; 0006 04FB ((temp_resist * temp_resist)/1000.0) ;
                 ; 0006 04FC */
                 ; 0006 04FD temp_data -= (float) offset[ch] / 10.0 ;
001431 85e8      	LDD  R30,Y+8
001432 eaa3      	LDI  R26,LOW(_offset)
001433 e6bb      	LDI  R27,HIGH(_offset)
001434 e0f0      	LDI  R31,0
001435 0fee      	LSL  R30
001436 1fff      	ROL  R31
001437 0fae      	ADD  R26,R30
001438 1fbf      	ADC  R27,R31
001439 91ed      	LD   R30,X+
00143a 91fd      	LD   R31,X+
00143b 2766      	CLR  R22
00143c 2777      	CLR  R23
00143d 940e 328f 	CALL __CDF1
00143f 01df      	MOVW R26,R30
001440 01cb      	MOVW R24,R22
                +
001441 e0e0     +LDI R30 , LOW ( 0x41200000 )
001442 e0f0     +LDI R31 , HIGH ( 0x41200000 )
001443 e260     +LDI R22 , BYTE3 ( 0x41200000 )
001444 e471     +LDI R23 , BYTE4 ( 0x41200000 )
                 	__GETD1N 0x41200000
001445 940e 3366 	CALL __DIVF21
                +
001447 81ac     +LDD R26 , Y + 4
001448 81bd     +LDD R27 , Y + 4 + 1
001449 818e     +LDD R24 , Y + 4 + 2
00144a 819f     +LDD R25 , Y + 4 + 3
                 	__GETD2S 4
00144b 940e 31ed 	CALL __SWAPD12
00144d 940e 32c2 	CALL __SUBF12
                +
00144f 83ec     +STD Y + 4 , R30
001450 83fd     +STD Y + 4 + 1 , R31
001451 836e     +STD Y + 4 + 2 , R22
001452 837f     +STD Y + 4 + 3 , R23
                 	__PUTD1S 4
                 ; 0006 04FE temp_data *= gain[ch] ;
001453 85e8      	LDD  R30,Y+8
001454 e6ab      	LDI  R26,LOW(_gain)
001455 e6bb      	LDI  R27,HIGH(_gain)
001456 e0f0      	LDI  R31,0
001457 940e 3196 	CALL __LSLW2
001459 0fae      	ADD  R26,R30
00145a 1fbf      	ADC  R27,R31
                +
00145b 91ed     +LD R30 , X +
00145c 91fd     +LD R31 , X +
00145d 916d     +LD R22 , X +
00145e 917d     +LD R23 , X +
                 	__GETD1P_INC
                +
00145f 81ac     +LDD R26 , Y + 4
001460 81bd     +LDD R27 , Y + 4 + 1
001461 818e     +LDD R24 , Y + 4 + 2
001462 819f     +LDD R25 , Y + 4 + 3
                 	__GETD2S 4
001463 940e 3318 	CALL __MULF12
                +
001465 83ec     +STD Y + 4 , R30
001466 83fd     +STD Y + 4 + 1 , R31
001467 836e     +STD Y + 4 + 2 , R22
001468 837f     +STD Y + 4 + 3 , R23
                 	__PUTD1S 4
                 ; 0006 04FF mes_data[ch] += (temp_data - mes_data[ch])/ ((float)t_filter + 1.0) ;
001469 85e8      	LDD  R30,Y+8
00146a e2a9      	LDI  R26,LOW(_mes_data)
00146b e6bb      	LDI  R27,HIGH(_mes_data)
00146c e0f0      	LDI  R31,0
00146d 940e 3196 	CALL __LSLW2
00146f 0fea      	ADD  R30,R26
001470 1ffb      	ADC  R31,R27
001471 93ff      	PUSH R31
001472 93ef      	PUSH R30
001473 01df      	MOVW R26,R30
                +
001474 91ed     +LD R30 , X +
001475 91fd     +LD R31 , X +
001476 916d     +LD R22 , X +
001477 917d     +LD R23 , X +
                 	__GETD1P_INC
001478 937f      	PUSH R23
001479 936f      	PUSH R22
00147a 93ff      	PUSH R31
00147b 93ef      	PUSH R30
00147c 85e8      	LDD  R30,Y+8
00147d e2a9      	LDI  R26,LOW(_mes_data)
00147e e6bb      	LDI  R27,HIGH(_mes_data)
00147f e0f0      	LDI  R31,0
001480 940e 3196 	CALL __LSLW2
001482 0fae      	ADD  R26,R30
001483 1fbf      	ADC  R27,R31
                +
001484 91ed     +LD R30 , X +
001485 91fd     +LD R31 , X +
001486 916d     +LD R22 , X +
001487 917d     +LD R23 , X +
                 	__GETD1P_INC
                +
001488 81ac     +LDD R26 , Y + 4
001489 81bd     +LDD R27 , Y + 4 + 1
00148a 818e     +LDD R24 , Y + 4 + 2
00148b 819f     +LDD R25 , Y + 4 + 3
                 	__GETD2S 4
00148c 940e 31ed 	CALL __SWAPD12
00148e 940e 32c2 	CALL __SUBF12
001490 937f      	PUSH R23
001491 936f      	PUSH R22
001492 93ff      	PUSH R31
001493 93ef      	PUSH R30
001494 91e0 6be8 	LDS  R30,_t_filter
001496 27ff      	CLR  R31
001497 2766      	CLR  R22
001498 2777      	CLR  R23
001499 940e 328f 	CALL __CDF1
                +
00149b e0a0     +LDI R26 , LOW ( 0x3F800000 )
00149c e0b0     +LDI R27 , HIGH ( 0x3F800000 )
00149d e880     +LDI R24 , BYTE3 ( 0x3F800000 )
00149e e39f     +LDI R25 , BYTE4 ( 0x3F800000 )
                 	__GETD2N 0x3F800000
00149f 940e 32c9 	CALL __ADDF12
0014a1 91af      	POP  R26
0014a2 91bf      	POP  R27
0014a3 918f      	POP  R24
0014a4 919f      	POP  R25
0014a5 940e 3366 	CALL __DIVF21
0014a7 91af      	POP  R26
0014a8 91bf      	POP  R27
0014a9 918f      	POP  R24
0014aa 919f      	POP  R25
0014ab 940e 32c9 	CALL __ADDF12
0014ad 91af      	POP  R26
0014ae 91bf      	POP  R27
                +
0014af 93ed     +ST X + , R30
0014b0 93fd     +ST X + , R31
0014b1 936d     +ST X + , R22
0014b2 937c     +ST X , R23
                 	__PUTDP1
                 ; 0006 0500 }
0014b3 9629      	ADIW R28,9
0014b4 9508      	RET
                 ; .FEND
                 ;void CalcOther(signed char ch)
                 ; 0006 0508 {
                 _CalcOther:
                 ; .FSTART _CalcOther
                 ; 0006 0509 
                 ; 0006 050A float temp_data ;
                 ; 0006 050B 
                 ; 0006 050C temp_data = (float)(raw_data[ch]) * 2.5 / 32767.0 ;
0014b5 9724      	SBIW R28,4
0014b6 931a      	ST   -Y,R17
0014b7 2f1a      	MOV  R17,R26
                 ;	ch -> R17
                 ;	temp_data -> Y+1
0014b8 2fe1      	MOV  R30,R17
0014b9 e0ad      	LDI  R26,LOW(_raw_data)
0014ba e6bb      	LDI  R27,HIGH(_raw_data)
0014bb e0f0      	LDI  R31,0
0014bc 0fee      	LSL  R30
0014bd 1fff      	ROL  R31
0014be 0fae      	ADD  R26,R30
0014bf 1fbf      	ADC  R27,R31
0014c0 91ed      	LD   R30,X+
0014c1 91fd      	LD   R31,X+
0014c2 2766      	CLR  R22
0014c3 2777      	CLR  R23
0014c4 940e 328f 	CALL __CDF1
                +
0014c6 e0a0     +LDI R26 , LOW ( 0x40200000 )
0014c7 e0b0     +LDI R27 , HIGH ( 0x40200000 )
0014c8 e280     +LDI R24 , BYTE3 ( 0x40200000 )
0014c9 e490     +LDI R25 , BYTE4 ( 0x40200000 )
                 	__GETD2N 0x40200000
0014ca 940e 3318 	CALL __MULF12
0014cc 01df      	MOVW R26,R30
0014cd 01cb      	MOVW R24,R22
                +
0014ce e0e0     +LDI R30 , LOW ( 0x46FFFE00 )
0014cf effe     +LDI R31 , HIGH ( 0x46FFFE00 )
0014d0 ef6f     +LDI R22 , BYTE3 ( 0x46FFFE00 )
0014d1 e476     +LDI R23 , BYTE4 ( 0x46FFFE00 )
                 	__GETD1N 0x46FFFE00
0014d2 940e 3366 	CALL __DIVF21
                +
0014d4 83e9     +STD Y + 1 , R30
0014d5 83fa     +STD Y + 1 + 1 , R31
0014d6 836b     +STD Y + 1 + 2 , R22
0014d7 837c     +STD Y + 1 + 3 , R23
                 	__PUTD1S 1
                 ; 0006 050D /*input * 2.5 volt / +-15 bit*/
                 ; 0006 050E temp_data -= (float) offset[ch]/ 10000.0 ;
0014d8 2fe1      	MOV  R30,R17
0014d9 eaa3      	LDI  R26,LOW(_offset)
0014da e6bb      	LDI  R27,HIGH(_offset)
0014db e0f0      	LDI  R31,0
0014dc 0fee      	LSL  R30
0014dd 1fff      	ROL  R31
0014de 0fae      	ADD  R26,R30
0014df 1fbf      	ADC  R27,R31
0014e0 91ed      	LD   R30,X+
0014e1 91fd      	LD   R31,X+
0014e2 2766      	CLR  R22
0014e3 2777      	CLR  R23
0014e4 940e 328f 	CALL __CDF1
0014e6 01df      	MOVW R26,R30
0014e7 01cb      	MOVW R24,R22
                +
0014e8 e0e0     +LDI R30 , LOW ( 0x461C4000 )
0014e9 e4f0     +LDI R31 , HIGH ( 0x461C4000 )
0014ea e16c     +LDI R22 , BYTE3 ( 0x461C4000 )
0014eb e476     +LDI R23 , BYTE4 ( 0x461C4000 )
                 	__GETD1N 0x461C4000
0014ec 940e 3366 	CALL __DIVF21
                +
0014ee 81a9     +LDD R26 , Y + 1
0014ef 81ba     +LDD R27 , Y + 1 + 1
0014f0 818b     +LDD R24 , Y + 1 + 2
0014f1 819c     +LDD R25 , Y + 1 + 3
                 	__GETD2S 1
0014f2 940e 31ed 	CALL __SWAPD12
0014f4 940e 32c2 	CALL __SUBF12
                +
0014f6 83e9     +STD Y + 1 , R30
0014f7 83fa     +STD Y + 1 + 1 , R31
0014f8 836b     +STD Y + 1 + 2 , R22
0014f9 837c     +STD Y + 1 + 3 , R23
                 	__PUTD1S 1
                 ; 0006 050F temp_data *= gain[ch] ;
0014fa 2fe1      	MOV  R30,R17
0014fb e6ab      	LDI  R26,LOW(_gain)
0014fc e6bb      	LDI  R27,HIGH(_gain)
0014fd e0f0      	LDI  R31,0
0014fe 940e 3196 	CALL __LSLW2
001500 0fae      	ADD  R26,R30
001501 1fbf      	ADC  R27,R31
                +
001502 91ed     +LD R30 , X +
001503 91fd     +LD R31 , X +
001504 916d     +LD R22 , X +
001505 917d     +LD R23 , X +
                 	__GETD1P_INC
                +
001506 81a9     +LDD R26 , Y + 1
001507 81ba     +LDD R27 , Y + 1 + 1
001508 818b     +LDD R24 , Y + 1 + 2
001509 819c     +LDD R25 , Y + 1 + 3
                 	__GETD2S 1
00150a 940e 3318 	CALL __MULF12
                +
00150c 83e9     +STD Y + 1 , R30
00150d 83fa     +STD Y + 1 + 1 , R31
00150e 836b     +STD Y + 1 + 2 , R22
00150f 837c     +STD Y + 1 + 3 , R23
                 	__PUTD1S 1
                 ; 0006 0510 mes_data[ch] += (temp_data - mes_data[ch])/ ((float)o_filter + 1.0) ;
001510 2fe1      	MOV  R30,R17
001511 e2a9      	LDI  R26,LOW(_mes_data)
001512 e6bb      	LDI  R27,HIGH(_mes_data)
001513 e0f0      	LDI  R31,0
001514 940e 3196 	CALL __LSLW2
001516 0fea      	ADD  R30,R26
001517 1ffb      	ADC  R31,R27
001518 93ff      	PUSH R31
001519 93ef      	PUSH R30
00151a 01df      	MOVW R26,R30
                +
00151b 91ed     +LD R30 , X +
00151c 91fd     +LD R31 , X +
00151d 916d     +LD R22 , X +
00151e 917d     +LD R23 , X +
                 	__GETD1P_INC
00151f 937f      	PUSH R23
001520 936f      	PUSH R22
001521 93ff      	PUSH R31
001522 93ef      	PUSH R30
001523 2fe1      	MOV  R30,R17
001524 e2a9      	LDI  R26,LOW(_mes_data)
001525 e6bb      	LDI  R27,HIGH(_mes_data)
001526 e0f0      	LDI  R31,0
001527 940e 3196 	CALL __LSLW2
001529 0fae      	ADD  R26,R30
00152a 1fbf      	ADC  R27,R31
                +
00152b 91ed     +LD R30 , X +
00152c 91fd     +LD R31 , X +
00152d 916d     +LD R22 , X +
00152e 917d     +LD R23 , X +
                 	__GETD1P_INC
                +
00152f 81a9     +LDD R26 , Y + 1
001530 81ba     +LDD R27 , Y + 1 + 1
001531 818b     +LDD R24 , Y + 1 + 2
001532 819c     +LDD R25 , Y + 1 + 3
                 	__GETD2S 1
001533 940e 31ed 	CALL __SWAPD12
001535 940e 32c2 	CALL __SUBF12
001537 937f      	PUSH R23
001538 936f      	PUSH R22
001539 93ff      	PUSH R31
00153a 93ef      	PUSH R30
00153b 91e0 6be9 	LDS  R30,_o_filter
00153d 27ff      	CLR  R31
00153e 2766      	CLR  R22
00153f 2777      	CLR  R23
001540 940e 328f 	CALL __CDF1
                +
001542 e0a0     +LDI R26 , LOW ( 0x3F800000 )
001543 e0b0     +LDI R27 , HIGH ( 0x3F800000 )
001544 e880     +LDI R24 , BYTE3 ( 0x3F800000 )
001545 e39f     +LDI R25 , BYTE4 ( 0x3F800000 )
                 	__GETD2N 0x3F800000
001546 940e 32c9 	CALL __ADDF12
001548 91af      	POP  R26
001549 91bf      	POP  R27
00154a 918f      	POP  R24
00154b 919f      	POP  R25
00154c 940e 3366 	CALL __DIVF21
00154e 91af      	POP  R26
00154f 91bf      	POP  R27
001550 918f      	POP  R24
001551 919f      	POP  R25
001552 940e 32c9 	CALL __ADDF12
001554 91af      	POP  R26
001555 91bf      	POP  R27
                +
001556 93ed     +ST X + , R30
001557 93fd     +ST X + , R31
001558 936d     +ST X + , R22
001559 937c     +ST X , R23
                 	__PUTDP1
                 ; 0006 0511 
                 ; 0006 0512 }
00155a 8118      	LDD  R17,Y+0
00155b 9625      	ADIW R28,5
00155c 9508      	RET
                 ; .FEND
                 ;void UnpackSensData(signed char ch)
                 ; 0006 051A {
                 _UnpackSensData:
                 ; .FSTART _UnpackSensData
                 ; 0006 051B unsigned int data_low;
                 ; 0006 051C unsigned int data_high;
                 ; 0006 051D 
                 ; 0006 051E short knst, d_knst, g1, g2, g3 ;
                 ; 0006 051F float temp_data ;
                 ; 0006 0520 unsigned char  temp_byte ;
                 ; 0006 0521 signed char c_ch ;
                 ; 0006 0522 
                 ; 0006 0523 temp_byte = FindTemp(ch);
00155d 93aa      	ST   -Y,R26
00155e 972e      	SBIW R28,14
00155f 940e 3151 	CALL __SAVELOCR6
                 ;	ch -> Y+20
                 ;	data_low -> R16,R17
                 ;	data_high -> R18,R19
                 ;	knst -> R20,R21
                 ;	d_knst -> Y+18
                 ;	g1 -> Y+16
                 ;	g2 -> Y+14
                 ;	g3 -> Y+12
                 ;	temp_data -> Y+8
                 ;	temp_byte -> Y+7
                 ;	c_ch -> Y+6
001561 89ac      	LDD  R26,Y+20
001562 940e 1acc 	CALL _FindTemp
001564 83ef      	STD  Y+7,R30
                 ; 0006 0524 if ( temp_byte >= NOIOCH ) {                 /* no temp. found */
001565 81af      	LDD  R26,Y+7
001566 30ae      	CPI  R26,LOW(0xE)
001567 f410      	BRSH PC+3
001568 940c 1570 	JMP _0xC00F8
                 ; 0006 0525 temp_data = 0 ;                                 /* 25. 0 - 25.0  */
00156a e0e0      	LDI  R30,LOW(0)
                +
00156b 87e8     +STD Y + 8 , R30
00156c 87e9     +STD Y + 8 + 1 , R30
00156d 87ea     +STD Y + 8 + 2 , R30
00156e 87eb     +STD Y + 8 + 3 , R30
                 	__CLRD1S 8
                 ; 0006 0526 } else {
00156f c01a      	RJMP _0xC00F9
                 _0xC00F8:
                 ; 0006 0527 temp_data = mes_data[temp_byte] - 25.0 ;
001570 81ef      	LDD  R30,Y+7
001571 e2a9      	LDI  R26,LOW(_mes_data)
001572 e6bb      	LDI  R27,HIGH(_mes_data)
001573 e0f0      	LDI  R31,0
001574 940e 3196 	CALL __LSLW2
001576 0fae      	ADD  R26,R30
001577 1fbf      	ADC  R27,R31
                +
001578 91ed     +LD R30 , X +
001579 91fd     +LD R31 , X +
00157a 916d     +LD R22 , X +
00157b 917d     +LD R23 , X +
                 	__GETD1P_INC
00157c 01df      	MOVW R26,R30
00157d 01cb      	MOVW R24,R22
                +
00157e e0e0     +LDI R30 , LOW ( 0x41C80000 )
00157f e0f0     +LDI R31 , HIGH ( 0x41C80000 )
001580 ec68     +LDI R22 , BYTE3 ( 0x41C80000 )
001581 e471     +LDI R23 , BYTE4 ( 0x41C80000 )
                 	__GETD1N 0x41C80000
001582 940e 31ed 	CALL __SWAPD12
001584 940e 32c2 	CALL __SUBF12
                +
001586 87e8     +STD Y + 8 , R30
001587 87f9     +STD Y + 8 + 1 , R31
001588 876a     +STD Y + 8 + 2 , R22
001589 877b     +STD Y + 8 + 3 , R23
                 	__PUTD1S 8
                 ; 0006 0528 }
                 _0xC00F9:
                 ; 0006 0529 temp_data /= 100.0 ;              /* use 1/100 deg C in calc. */
                +
00158a 85a8     +LDD R26 , Y + 8
00158b 85b9     +LDD R27 , Y + 8 + 1
00158c 858a     +LDD R24 , Y + 8 + 2
00158d 859b     +LDD R25 , Y + 8 + 3
                 	__GETD2S 8
                +
00158e e0e0     +LDI R30 , LOW ( 0x42C80000 )
00158f e0f0     +LDI R31 , HIGH ( 0x42C80000 )
001590 ec68     +LDI R22 , BYTE3 ( 0x42C80000 )
001591 e472     +LDI R23 , BYTE4 ( 0x42C80000 )
                 	__GETD1N 0x42C80000
001592 940e 3366 	CALL __DIVF21
                +
001594 87e8     +STD Y + 8 , R30
001595 87f9     +STD Y + 8 + 1 , R31
001596 876a     +STD Y + 8 + 2 , R22
001597 877b     +STD Y + 8 + 3 , R23
                 	__PUTD1S 8
                 ; 0006 052A 
                 ; 0006 052B c_ch = ch >>1 ;                         /* start calculate data for 0 % FRO */
001598 89ec      	LDD  R30,Y+20
001599 95e5      	ASR  R30
00159a 83ee      	STD  Y+6,R30
                 ; 0006 052C if ( (eep_type[c_ch] & 0x01) || (eep_type[c_ch] & 0x10) ) { /* OK data */
00159b e0f0      	LDI  R31,0
00159c 52e1      	SUBI R30,LOW(-_eep_type)
00159d 49f4      	SBCI R31,HIGH(-_eep_type)
00159e 81e0      	LD   R30,Z
00159f 70e1      	ANDI R30,LOW(0x1)
0015a0 f011      	BREQ PC+3
0015a1 940c 15ad 	JMP _0xC00FB
0015a3 81ee      	LDD  R30,Y+6
0015a4 e0f0      	LDI  R31,0
0015a5 52e1      	SUBI R30,LOW(-_eep_type)
0015a6 49f4      	SBCI R31,HIGH(-_eep_type)
0015a7 81e0      	LD   R30,Z
0015a8 71e0      	ANDI R30,LOW(0x10)
0015a9 f011      	BREQ PC+3
0015aa 940c 15ad 	JMP _0xC00FB
0015ac c42c      	RJMP _0xC00FA
                 _0xC00FB:
                 ; 0006 052D knst =  ((short) packed_data[c_ch][8] +
                 ; 0006 052E packed_data[c_ch][9] * 256) & 0x1fff ;
0015ad 81ee      	LDD  R30,Y+6
0015ae e2a8      	LDI  R26,LOW(40)
0015af 9fea      	MUL  R30,R26
0015b0 01f0      	MOVW R30,R0
                +
0015b1 55e3     +SUBI R30 , LOW ( - _packed_data - ( 8 ) )
0015b2 49f6     +SBCI R31 , HIGH ( - _packed_data - ( 8 ) )
                 	__ADDW1MN _packed_data,8
0015b3 8160      	LD   R22,Z
0015b4 2777      	CLR  R23
0015b5 81ee      	LDD  R30,Y+6
0015b6 9fea      	MUL  R30,R26
0015b7 01f0      	MOVW R30,R0
                +
0015b8 55e2     +SUBI R30 , LOW ( - _packed_data - ( 9 ) )
0015b9 49f6     +SBCI R31 , HIGH ( - _packed_data - ( 9 ) )
                 	__ADDW1MN _packed_data,9
0015ba 81a0      	LD   R26,Z
0015bb e0b0      	LDI  R27,0
0015bc e0e0      	LDI  R30,LOW(256)
0015bd e0f1      	LDI  R31,HIGH(256)
0015be 940e 31b8 	CALL __MULW12
0015c0 01db      	MOVW R26,R22
0015c1 0fae      	ADD  R26,R30
0015c2 1fbf      	ADC  R27,R31
0015c3 efef      	LDI  R30,LOW(8191)
0015c4 e1ff      	LDI  R31,HIGH(8191)
0015c5 23ea      	AND  R30,R26
0015c6 23fb      	AND  R31,R27
0015c7 01af      	MOVW R20,R30
                 ; 0006 052F 
                 ; 0006 0530 if ( knst & 0x1000 ) {                /* negative */
0015c8 ff54      	SBRS R21,4
0015c9 c001      	RJMP _0xC00FD
                 ; 0006 0531 knst |= 0xe000 ;
0015ca 6e50      	ORI  R21,HIGH(57344)
                 ; 0006 0532 }
                 ; 0006 0533 g1 =  ((short) ((packed_data[c_ch][9] >> 5) & 0x07) +
                 _0xC00FD:
                 ; 0006 0534 (packed_data[c_ch][10] * 8) +
                 ; 0006 0535 ((packed_data[c_ch][11] & 0x03) * 2048)) & 0x1fff ;
0015cb 81ee      	LDD  R30,Y+6
0015cc e2a8      	LDI  R26,LOW(40)
0015cd 9fea      	MUL  R30,R26
0015ce 01f0      	MOVW R30,R0
                +
0015cf 55e2     +SUBI R30 , LOW ( - _packed_data - ( 9 ) )
0015d0 49f6     +SBCI R31 , HIGH ( - _packed_data - ( 9 ) )
                 	__ADDW1MN _packed_data,9
0015d1 81a0      	LD   R26,Z
0015d2 e0b0      	LDI  R27,0
0015d3 e0e5      	LDI  R30,LOW(5)
0015d4 940e 317f 	CALL __ASRW12
0015d6 70e7      	ANDI R30,LOW(0x7)
0015d7 70f0      	ANDI R31,HIGH(0x7)
0015d8 01bf      	MOVW R22,R30
0015d9 81ee      	LDD  R30,Y+6
0015da e2a8      	LDI  R26,LOW(40)
0015db 9fea      	MUL  R30,R26
0015dc 01f0      	MOVW R30,R0
                +
0015dd 55e1     +SUBI R30 , LOW ( - _packed_data - ( 10 ) )
0015de 49f6     +SBCI R31 , HIGH ( - _packed_data - ( 10 ) )
                 	__ADDW1MN _packed_data,10
0015df 81a0      	LD   R26,Z
0015e0 e0e8      	LDI  R30,LOW(8)
0015e1 9fea      	MUL  R30,R26
0015e2 01f0      	MOVW R30,R0
                +
0015e3 0f6e     +ADD R22 , R30
0015e4 1f7f     +ADC R23 , R31
                 	__ADDWRR 22,23,30,31
0015e5 81ee      	LDD  R30,Y+6
0015e6 e2a8      	LDI  R26,LOW(40)
0015e7 9fea      	MUL  R30,R26
0015e8 01f0      	MOVW R30,R0
                +
0015e9 55e0     +SUBI R30 , LOW ( - _packed_data - ( 11 ) )
0015ea 49f6     +SBCI R31 , HIGH ( - _packed_data - ( 11 ) )
                 	__ADDW1MN _packed_data,11
0015eb 81e0      	LD   R30,Z
0015ec e0f0      	LDI  R31,0
0015ed 70e3      	ANDI R30,LOW(0x3)
0015ee 70f0      	ANDI R31,HIGH(0x3)
0015ef 0fee      	LSL  R30
0015f0 0fee      	LSL  R30
0015f1 0fee      	LSL  R30
0015f2 2ffe      	MOV  R31,R30
0015f3 e0e0      	LDI  R30,0
0015f4 01db      	MOVW R26,R22
0015f5 0fae      	ADD  R26,R30
0015f6 1fbf      	ADC  R27,R31
0015f7 efef      	LDI  R30,LOW(8191)
0015f8 e1ff      	LDI  R31,HIGH(8191)
0015f9 23ea      	AND  R30,R26
0015fa 23fb      	AND  R31,R27
0015fb 8be8      	STD  Y+16,R30
0015fc 8bf9      	STD  Y+16+1,R31
                 ; 0006 0536 if ( g1 & 0x1000 ) {                /* negative */
0015fd 89e9      	LDD  R30,Y+17
0015fe 71e0      	ANDI R30,LOW(0x10)
0015ff f411      	BRNE PC+3
001600 940c 1605 	JMP _0xC00FE
                 ; 0006 0537 g1 |= 0xe000 ;
001602 89e9      	LDD  R30,Y+17
001603 6ee0      	ORI  R30,LOW(0xE0)
001604 8be9      	STD  Y+17,R30
                 ; 0006 0538 }
                 ; 0006 0539 g2 =  ((short) ((packed_data[c_ch][11] >> 2) & 0x3f) +
                 _0xC00FE:
                 ; 0006 053A ((packed_data[c_ch][12] & 0x7f)* 64 )) & 0x1fff ;
001605 81ee      	LDD  R30,Y+6
001606 e2a8      	LDI  R26,LOW(40)
001607 9fea      	MUL  R30,R26
001608 01f0      	MOVW R30,R0
                +
001609 55e0     +SUBI R30 , LOW ( - _packed_data - ( 11 ) )
00160a 49f6     +SBCI R31 , HIGH ( - _packed_data - ( 11 ) )
                 	__ADDW1MN _packed_data,11
00160b 81e0      	LD   R30,Z
00160c e0f0      	LDI  R31,0
00160d 940e 319f 	CALL __ASRW2
00160f 73ef      	ANDI R30,LOW(0x3F)
001610 70f0      	ANDI R31,HIGH(0x3F)
001611 01bf      	MOVW R22,R30
001612 81ee      	LDD  R30,Y+6
001613 9fea      	MUL  R30,R26
001614 01f0      	MOVW R30,R0
                +
001615 54ef     +SUBI R30 , LOW ( - _packed_data - ( 12 ) )
001616 49f6     +SBCI R31 , HIGH ( - _packed_data - ( 12 ) )
                 	__ADDW1MN _packed_data,12
001617 81e0      	LD   R30,Z
001618 e0f0      	LDI  R31,0
001619 77ef      	ANDI R30,LOW(0x7F)
00161a 70f0      	ANDI R31,HIGH(0x7F)
00161b 940e 3196 	CALL __LSLW2
00161d 940e 3192 	CALL __LSLW4
00161f 01db      	MOVW R26,R22
001620 0fae      	ADD  R26,R30
001621 1fbf      	ADC  R27,R31
001622 efef      	LDI  R30,LOW(8191)
001623 e1ff      	LDI  R31,HIGH(8191)
001624 23ea      	AND  R30,R26
001625 23fb      	AND  R31,R27
001626 87ee      	STD  Y+14,R30
001627 87ff      	STD  Y+14+1,R31
                 ; 0006 053B if ( g2 & 0x1000 ) {                /* negative */
001628 85ef      	LDD  R30,Y+15
001629 71e0      	ANDI R30,LOW(0x10)
00162a f411      	BRNE PC+3
00162b 940c 1630 	JMP _0xC00FF
                 ; 0006 053C g2 |= 0xe000 ;
00162d 85ef      	LDD  R30,Y+15
00162e 6ee0      	ORI  R30,LOW(0xE0)
00162f 87ef      	STD  Y+15,R30
                 ; 0006 053D }
                 ; 0006 053E g3 =  ((short) ((packed_data[c_ch][12] >> 7) & 0x01) +
                 _0xC00FF:
                 ; 0006 053F (packed_data[c_ch][13] * 2) +
                 ; 0006 0540 ((packed_data[c_ch][14] & 0x0f) * 512)) & 0x1fff ;
001630 81ee      	LDD  R30,Y+6
001631 e2a8      	LDI  R26,LOW(40)
001632 9fea      	MUL  R30,R26
001633 01f0      	MOVW R30,R0
                +
001634 54ef     +SUBI R30 , LOW ( - _packed_data - ( 12 ) )
001635 49f6     +SBCI R31 , HIGH ( - _packed_data - ( 12 ) )
                 	__ADDW1MN _packed_data,12
001636 81a0      	LD   R26,Z
001637 e0b0      	LDI  R27,0
001638 e0e7      	LDI  R30,LOW(7)
001639 940e 317f 	CALL __ASRW12
00163b 70e1      	ANDI R30,LOW(0x1)
00163c 70f0      	ANDI R31,HIGH(0x1)
00163d 01bf      	MOVW R22,R30
00163e 81ee      	LDD  R30,Y+6
00163f e2a8      	LDI  R26,LOW(40)
001640 9fea      	MUL  R30,R26
001641 01f0      	MOVW R30,R0
                +
001642 54ee     +SUBI R30 , LOW ( - _packed_data - ( 13 ) )
001643 49f6     +SBCI R31 , HIGH ( - _packed_data - ( 13 ) )
                 	__ADDW1MN _packed_data,13
001644 81a0      	LD   R26,Z
001645 e0e2      	LDI  R30,LOW(2)
001646 9fea      	MUL  R30,R26
001647 01f0      	MOVW R30,R0
                +
001648 0f6e     +ADD R22 , R30
001649 1f7f     +ADC R23 , R31
                 	__ADDWRR 22,23,30,31
00164a 81ee      	LDD  R30,Y+6
00164b e2a8      	LDI  R26,LOW(40)
00164c 9fea      	MUL  R30,R26
00164d 01f0      	MOVW R30,R0
                +
00164e 54ed     +SUBI R30 , LOW ( - _packed_data - ( 14 ) )
00164f 49f6     +SBCI R31 , HIGH ( - _packed_data - ( 14 ) )
                 	__ADDW1MN _packed_data,14
001650 81e0      	LD   R30,Z
001651 e0f0      	LDI  R31,0
001652 70ef      	ANDI R30,LOW(0xF)
001653 70f0      	ANDI R31,HIGH(0xF)
001654 0fee      	LSL  R30
001655 2ffe      	MOV  R31,R30
001656 e0e0      	LDI  R30,0
001657 01db      	MOVW R26,R22
001658 0fae      	ADD  R26,R30
001659 1fbf      	ADC  R27,R31
00165a efef      	LDI  R30,LOW(8191)
00165b e1ff      	LDI  R31,HIGH(8191)
00165c 23ea      	AND  R30,R26
00165d 23fb      	AND  R31,R27
00165e 87ec      	STD  Y+12,R30
00165f 87fd      	STD  Y+12+1,R31
                 ; 0006 0541 if ( g3 & 0x1000 ) {                /* negative */
001660 85ed      	LDD  R30,Y+13
001661 71e0      	ANDI R30,LOW(0x10)
001662 f411      	BRNE PC+3
001663 940c 1668 	JMP _0xC0100
                 ; 0006 0542 g3 |= 0xe000 ;
001665 85ed      	LDD  R30,Y+13
001666 6ee0      	ORI  R30,LOW(0xE0)
001667 87ed      	STD  Y+13,R30
                 ; 0006 0543 }
                 ; 0006 0544 sens_data[0] = CalcSensData(knst*2, g1*2, g2*2, g3*2, temp_data) ;
                 _0xC0100:
                +
001668 e0a2     +LDI R26 , 2
001669 9fa4     +MUL R26 , R20
00166a 01f0     +MOVW R30 , R0
00166b 9fa5     +MUL R26 , R21
00166c 0df0     +ADD R31 , R0
                 	__MULBNWRU 20,21,2
00166d 93fa      	ST   -Y,R31
00166e 93ea      	ST   -Y,R30
00166f 89aa      	LDD  R26,Y+18
001670 89bb      	LDD  R27,Y+18+1
001671 e0e2      	LDI  R30,LOW(2)
001672 940e 31b2 	CALL __MULB1W2U
001674 93fa      	ST   -Y,R31
001675 93ea      	ST   -Y,R30
001676 89aa      	LDD  R26,Y+18
001677 89bb      	LDD  R27,Y+18+1
001678 e0e2      	LDI  R30,LOW(2)
001679 940e 31b2 	CALL __MULB1W2U
00167b 93fa      	ST   -Y,R31
00167c 93ea      	ST   -Y,R30
00167d 89aa      	LDD  R26,Y+18
00167e 89bb      	LDD  R27,Y+18+1
00167f e0e2      	LDI  R30,LOW(2)
001680 940e 31b2 	CALL __MULB1W2U
001682 93fa      	ST   -Y,R31
001683 93ea      	ST   -Y,R30
                +
001684 89a8     +LDD R26 , Y + 16
001685 89b9     +LDD R27 , Y + 16 + 1
001686 898a     +LDD R24 , Y + 16 + 2
001687 899b     +LDD R25 , Y + 16 + 3
                 	__GETD2S 16
001688 940e 1a6d 	CALL _CalcSensData
00168a 93e0 699b 	STS  _sens_data,R30
00168c 93f0 699c 	STS  _sens_data+1,R31
                 ; 0006 0545 /* sens value 0%FRO @ temp */
                 ; 0006 0546 
                 ; 0006 0547 /* start calculate data for 40 % FRO */
                 ; 0006 0548 d_knst =  ((short) ((packed_data[c_ch][14] >> 4) & 0x0f) +
                 ; 0006 0549 (packed_data[c_ch][15] * 16) +
                 ; 0006 054A ((packed_data[c_ch][16] & 0x01) * 4096))& 0x1fff ;
00168e 81ee      	LDD  R30,Y+6
00168f e2a8      	LDI  R26,LOW(40)
001690 9fea      	MUL  R30,R26
001691 01f0      	MOVW R30,R0
                +
001692 54ed     +SUBI R30 , LOW ( - _packed_data - ( 14 ) )
001693 49f6     +SBCI R31 , HIGH ( - _packed_data - ( 14 ) )
                 	__ADDW1MN _packed_data,14
001694 81e0      	LD   R30,Z
001695 e0f0      	LDI  R31,0
001696 940e 319b 	CALL __ASRW4
001698 70ef      	ANDI R30,LOW(0xF)
001699 70f0      	ANDI R31,HIGH(0xF)
00169a 01bf      	MOVW R22,R30
00169b 81ee      	LDD  R30,Y+6
00169c 9fea      	MUL  R30,R26
00169d 01f0      	MOVW R30,R0
                +
00169e 54ec     +SUBI R30 , LOW ( - _packed_data - ( 15 ) )
00169f 49f6     +SBCI R31 , HIGH ( - _packed_data - ( 15 ) )
                 	__ADDW1MN _packed_data,15
0016a0 81a0      	LD   R26,Z
0016a1 e1e0      	LDI  R30,LOW(16)
0016a2 9fea      	MUL  R30,R26
0016a3 01f0      	MOVW R30,R0
                +
0016a4 0f6e     +ADD R22 , R30
0016a5 1f7f     +ADC R23 , R31
                 	__ADDWRR 22,23,30,31
0016a6 81ee      	LDD  R30,Y+6
0016a7 e2a8      	LDI  R26,LOW(40)
0016a8 9fea      	MUL  R30,R26
0016a9 01f0      	MOVW R30,R0
                +
0016aa 54eb     +SUBI R30 , LOW ( - _packed_data - ( 16 ) )
0016ab 49f6     +SBCI R31 , HIGH ( - _packed_data - ( 16 ) )
                 	__ADDW1MN _packed_data,16
0016ac 81e0      	LD   R30,Z
0016ad e0f0      	LDI  R31,0
0016ae 70e1      	ANDI R30,LOW(0x1)
0016af 70f0      	ANDI R31,HIGH(0x1)
0016b0 95e2      	SWAP R30
0016b1 7fe0      	ANDI R30,0xF0
0016b2 2ffe      	MOV  R31,R30
0016b3 e0e0      	LDI  R30,0
0016b4 01db      	MOVW R26,R22
0016b5 0fae      	ADD  R26,R30
0016b6 1fbf      	ADC  R27,R31
0016b7 efef      	LDI  R30,LOW(8191)
0016b8 e1ff      	LDI  R31,HIGH(8191)
0016b9 23ea      	AND  R30,R26
0016ba 23fb      	AND  R31,R27
0016bb 8bea      	STD  Y+18,R30
0016bc 8bfb      	STD  Y+18+1,R31
                 ; 0006 054B 
                 ; 0006 054C g1 =  ((short) ((packed_data[c_ch][16] >> 1) & 0x7f) +
                 ; 0006 054D ((packed_data[c_ch][17] & 0x3f) * 128)) & 0x1fff ;
0016bd 81ee      	LDD  R30,Y+6
0016be e2a8      	LDI  R26,LOW(40)
0016bf 9fea      	MUL  R30,R26
0016c0 01f0      	MOVW R30,R0
                +
0016c1 54eb     +SUBI R30 , LOW ( - _packed_data - ( 16 ) )
0016c2 49f6     +SBCI R31 , HIGH ( - _packed_data - ( 16 ) )
                 	__ADDW1MN _packed_data,16
0016c3 81e0      	LD   R30,Z
0016c4 e0f0      	LDI  R31,0
0016c5 95f5      	ASR  R31
0016c6 95e7      	ROR  R30
0016c7 77ef      	ANDI R30,LOW(0x7F)
0016c8 70f0      	ANDI R31,HIGH(0x7F)
0016c9 01bf      	MOVW R22,R30
0016ca 81ee      	LDD  R30,Y+6
0016cb 9fea      	MUL  R30,R26
0016cc 01f0      	MOVW R30,R0
                +
0016cd 54ea     +SUBI R30 , LOW ( - _packed_data - ( 17 ) )
0016ce 49f6     +SBCI R31 , HIGH ( - _packed_data - ( 17 ) )
                 	__ADDW1MN _packed_data,17
0016cf 81e0      	LD   R30,Z
0016d0 e0f0      	LDI  R31,0
0016d1 73ef      	ANDI R30,LOW(0x3F)
0016d2 70f0      	ANDI R31,HIGH(0x3F)
0016d3 940e 3194 	CALL __LSLW3
0016d5 940e 3192 	CALL __LSLW4
0016d7 01db      	MOVW R26,R22
0016d8 0fae      	ADD  R26,R30
0016d9 1fbf      	ADC  R27,R31
0016da efef      	LDI  R30,LOW(8191)
0016db e1ff      	LDI  R31,HIGH(8191)
0016dc 23ea      	AND  R30,R26
0016dd 23fb      	AND  R31,R27
0016de 8be8      	STD  Y+16,R30
0016df 8bf9      	STD  Y+16+1,R31
                 ; 0006 054E if ( g1 & 0x1000 ) {                /* negative */
0016e0 89e9      	LDD  R30,Y+17
0016e1 71e0      	ANDI R30,LOW(0x10)
0016e2 f411      	BRNE PC+3
0016e3 940c 16e8 	JMP _0xC0101
                 ; 0006 054F g1 |= 0xe000 ;
0016e5 89e9      	LDD  R30,Y+17
0016e6 6ee0      	ORI  R30,LOW(0xE0)
0016e7 8be9      	STD  Y+17,R30
                 ; 0006 0550 }
                 ; 0006 0551 g2 =  ((short) ((packed_data[c_ch][17] >> 6) & 0x03) +
                 _0xC0101:
                 ; 0006 0552 (packed_data[c_ch][18] * 4) +
                 ; 0006 0553 ((packed_data[c_ch][19]& 0x07) * 1024)) & 0x1fff ;
0016e8 81ee      	LDD  R30,Y+6
0016e9 e2a8      	LDI  R26,LOW(40)
0016ea 9fea      	MUL  R30,R26
0016eb 01f0      	MOVW R30,R0
                +
0016ec 54ea     +SUBI R30 , LOW ( - _packed_data - ( 17 ) )
0016ed 49f6     +SBCI R31 , HIGH ( - _packed_data - ( 17 ) )
                 	__ADDW1MN _packed_data,17
0016ee 81a0      	LD   R26,Z
0016ef e0b0      	LDI  R27,0
0016f0 e0e6      	LDI  R30,LOW(6)
0016f1 940e 317f 	CALL __ASRW12
0016f3 70e3      	ANDI R30,LOW(0x3)
0016f4 70f0      	ANDI R31,HIGH(0x3)
0016f5 01bf      	MOVW R22,R30
0016f6 81ee      	LDD  R30,Y+6
0016f7 e2a8      	LDI  R26,LOW(40)
0016f8 9fea      	MUL  R30,R26
0016f9 01f0      	MOVW R30,R0
                +
0016fa 54e9     +SUBI R30 , LOW ( - _packed_data - ( 18 ) )
0016fb 49f6     +SBCI R31 , HIGH ( - _packed_data - ( 18 ) )
                 	__ADDW1MN _packed_data,18
0016fc 81a0      	LD   R26,Z
0016fd e0e4      	LDI  R30,LOW(4)
0016fe 9fea      	MUL  R30,R26
0016ff 01f0      	MOVW R30,R0
                +
001700 0f6e     +ADD R22 , R30
001701 1f7f     +ADC R23 , R31
                 	__ADDWRR 22,23,30,31
001702 81ee      	LDD  R30,Y+6
001703 e2a8      	LDI  R26,LOW(40)
001704 9fea      	MUL  R30,R26
001705 01f0      	MOVW R30,R0
                +
001706 54e8     +SUBI R30 , LOW ( - _packed_data - ( 19 ) )
001707 49f6     +SBCI R31 , HIGH ( - _packed_data - ( 19 ) )
                 	__ADDW1MN _packed_data,19
001708 81e0      	LD   R30,Z
001709 e0f0      	LDI  R31,0
00170a 70e7      	ANDI R30,LOW(0x7)
00170b 70f0      	ANDI R31,HIGH(0x7)
00170c 0fee      	LSL  R30
00170d 0fee      	LSL  R30
00170e 2ffe      	MOV  R31,R30
00170f e0e0      	LDI  R30,0
001710 01db      	MOVW R26,R22
001711 0fae      	ADD  R26,R30
001712 1fbf      	ADC  R27,R31
001713 efef      	LDI  R30,LOW(8191)
001714 e1ff      	LDI  R31,HIGH(8191)
001715 23ea      	AND  R30,R26
001716 23fb      	AND  R31,R27
001717 87ee      	STD  Y+14,R30
001718 87ff      	STD  Y+14+1,R31
                 ; 0006 0554 if ( g2 & 0x1000 ) {                /* negative */
001719 85ef      	LDD  R30,Y+15
00171a 71e0      	ANDI R30,LOW(0x10)
00171b f411      	BRNE PC+3
00171c 940c 1721 	JMP _0xC0102
                 ; 0006 0555 g2 |= 0xe000 ;
00171e 85ef      	LDD  R30,Y+15
00171f 6ee0      	ORI  R30,LOW(0xE0)
001720 87ef      	STD  Y+15,R30
                 ; 0006 0556 }
                 ; 0006 0557 g3 =  ((short) ((packed_data[c_ch][19] >> 3) & 0x1f) +
                 _0xC0102:
                 ; 0006 0558 (packed_data[c_ch][20] * 32)) & 0x1fff ;
001721 81ee      	LDD  R30,Y+6
001722 e2a8      	LDI  R26,LOW(40)
001723 9fea      	MUL  R30,R26
001724 01f0      	MOVW R30,R0
                +
001725 54e8     +SUBI R30 , LOW ( - _packed_data - ( 19 ) )
001726 49f6     +SBCI R31 , HIGH ( - _packed_data - ( 19 ) )
                 	__ADDW1MN _packed_data,19
001727 81e0      	LD   R30,Z
001728 e0f0      	LDI  R31,0
001729 940e 319d 	CALL __ASRW3
00172b 71ef      	ANDI R30,LOW(0x1F)
00172c 70f0      	ANDI R31,HIGH(0x1F)
00172d 01bf      	MOVW R22,R30
00172e 81ee      	LDD  R30,Y+6
00172f 9fea      	MUL  R30,R26
001730 01f0      	MOVW R30,R0
                +
001731 54e7     +SUBI R30 , LOW ( - _packed_data - ( 20 ) )
001732 49f6     +SBCI R31 , HIGH ( - _packed_data - ( 20 ) )
                 	__ADDW1MN _packed_data,20
001733 81a0      	LD   R26,Z
001734 e2e0      	LDI  R30,LOW(32)
001735 9fea      	MUL  R30,R26
001736 01f0      	MOVW R30,R0
001737 01db      	MOVW R26,R22
001738 0fae      	ADD  R26,R30
001739 1fbf      	ADC  R27,R31
00173a efef      	LDI  R30,LOW(8191)
00173b e1ff      	LDI  R31,HIGH(8191)
00173c 23ea      	AND  R30,R26
00173d 23fb      	AND  R31,R27
00173e 87ec      	STD  Y+12,R30
00173f 87fd      	STD  Y+12+1,R31
                 ; 0006 0559 if ( g3 & 0x1000 ) {                /* negative */
001740 85ed      	LDD  R30,Y+13
001741 71e0      	ANDI R30,LOW(0x10)
001742 f411      	BRNE PC+3
001743 940c 1748 	JMP _0xC0103
                 ; 0006 055A g3 |= 0xe000 ;
001745 85ed      	LDD  R30,Y+13
001746 6ee0      	ORI  R30,LOW(0xE0)
001747 87ed      	STD  Y+13,R30
                 ; 0006 055B }
                 ; 0006 055C knst += d_knst;                                 /* remember new value */
                 _0xC0103:
001748 89ea      	LDD  R30,Y+18
001749 89fb      	LDD  R31,Y+18+1
                +
00174a 0f4e     +ADD R20 , R30
00174b 1f5f     +ADC R21 , R31
                 	__ADDWRR 20,21,30,31
                 ; 0006 055D sens_data[1] = CalcSensData(knst*2, g1*2, g2*2, g3*2, temp_data) ;
                +
00174c e0a2     +LDI R26 , 2
00174d 9fa4     +MUL R26 , R20
00174e 01f0     +MOVW R30 , R0
00174f 9fa5     +MUL R26 , R21
001750 0df0     +ADD R31 , R0
                 	__MULBNWRU 20,21,2
001751 93fa      	ST   -Y,R31
001752 93ea      	ST   -Y,R30
001753 89aa      	LDD  R26,Y+18
001754 89bb      	LDD  R27,Y+18+1
001755 e0e2      	LDI  R30,LOW(2)
001756 940e 31b2 	CALL __MULB1W2U
001758 93fa      	ST   -Y,R31
001759 93ea      	ST   -Y,R30
00175a 89aa      	LDD  R26,Y+18
00175b 89bb      	LDD  R27,Y+18+1
00175c e0e2      	LDI  R30,LOW(2)
00175d 940e 31b2 	CALL __MULB1W2U
00175f 93fa      	ST   -Y,R31
001760 93ea      	ST   -Y,R30
001761 89aa      	LDD  R26,Y+18
001762 89bb      	LDD  R27,Y+18+1
001763 e0e2      	LDI  R30,LOW(2)
001764 940e 31b2 	CALL __MULB1W2U
001766 93fa      	ST   -Y,R31
001767 93ea      	ST   -Y,R30
                +
001768 89a8     +LDD R26 , Y + 16
001769 89b9     +LDD R27 , Y + 16 + 1
00176a 898a     +LDD R24 , Y + 16 + 2
00176b 899b     +LDD R25 , Y + 16 + 3
                 	__GETD2S 16
00176c 940e 1a6d 	CALL _CalcSensData
                +
00176e 93e0 699d+STS _sens_data + ( 2 ) , R30
001770 93f0 699e+STS _sens_data + ( 2 ) + 1 , R31
                 	__PUTW1MN _sens_data,2
                 ; 0006 055E /* sens value 40%FRO @ temp */
                 ; 0006 055F 
                 ; 0006 0560 /* start calculate data for 60 % FRO */
                 ; 0006 0561 d_knst =  ((short) packed_data[c_ch][21] +
                 ; 0006 0562 packed_data[c_ch][22] * 256) & 0x1fff ;
001772 81ee      	LDD  R30,Y+6
001773 e2a8      	LDI  R26,LOW(40)
001774 9fea      	MUL  R30,R26
001775 01f0      	MOVW R30,R0
                +
001776 54e6     +SUBI R30 , LOW ( - _packed_data - ( 21 ) )
001777 49f6     +SBCI R31 , HIGH ( - _packed_data - ( 21 ) )
                 	__ADDW1MN _packed_data,21
001778 8160      	LD   R22,Z
001779 2777      	CLR  R23
00177a 81ee      	LDD  R30,Y+6
00177b 9fea      	MUL  R30,R26
00177c 01f0      	MOVW R30,R0
                +
00177d 54e5     +SUBI R30 , LOW ( - _packed_data - ( 22 ) )
00177e 49f6     +SBCI R31 , HIGH ( - _packed_data - ( 22 ) )
                 	__ADDW1MN _packed_data,22
00177f 81a0      	LD   R26,Z
001780 e0b0      	LDI  R27,0
001781 e0e0      	LDI  R30,LOW(256)
001782 e0f1      	LDI  R31,HIGH(256)
001783 940e 31b8 	CALL __MULW12
001785 01db      	MOVW R26,R22
001786 0fae      	ADD  R26,R30
001787 1fbf      	ADC  R27,R31
001788 efef      	LDI  R30,LOW(8191)
001789 e1ff      	LDI  R31,HIGH(8191)
00178a 23ea      	AND  R30,R26
00178b 23fb      	AND  R31,R27
00178c 8bea      	STD  Y+18,R30
00178d 8bfb      	STD  Y+18+1,R31
                 ; 0006 0563 
                 ; 0006 0564 g1 =  ((short) ((packed_data[c_ch][22] >> 5) & 0x07) +
                 ; 0006 0565 (packed_data[c_ch][23] * 8) +
                 ; 0006 0566 ((packed_data[c_ch][24] & 0x03) * 2048)) & 0x1fff ;
00178e 81ee      	LDD  R30,Y+6
00178f e2a8      	LDI  R26,LOW(40)
001790 9fea      	MUL  R30,R26
001791 01f0      	MOVW R30,R0
                +
001792 54e5     +SUBI R30 , LOW ( - _packed_data - ( 22 ) )
001793 49f6     +SBCI R31 , HIGH ( - _packed_data - ( 22 ) )
                 	__ADDW1MN _packed_data,22
001794 81a0      	LD   R26,Z
001795 e0b0      	LDI  R27,0
001796 e0e5      	LDI  R30,LOW(5)
001797 940e 317f 	CALL __ASRW12
001799 70e7      	ANDI R30,LOW(0x7)
00179a 70f0      	ANDI R31,HIGH(0x7)
00179b 01bf      	MOVW R22,R30
00179c 81ee      	LDD  R30,Y+6
00179d e2a8      	LDI  R26,LOW(40)
00179e 9fea      	MUL  R30,R26
00179f 01f0      	MOVW R30,R0
                +
0017a0 54e4     +SUBI R30 , LOW ( - _packed_data - ( 23 ) )
0017a1 49f6     +SBCI R31 , HIGH ( - _packed_data - ( 23 ) )
                 	__ADDW1MN _packed_data,23
0017a2 81a0      	LD   R26,Z
0017a3 e0e8      	LDI  R30,LOW(8)
0017a4 9fea      	MUL  R30,R26
0017a5 01f0      	MOVW R30,R0
                +
0017a6 0f6e     +ADD R22 , R30
0017a7 1f7f     +ADC R23 , R31
                 	__ADDWRR 22,23,30,31
0017a8 81ee      	LDD  R30,Y+6
0017a9 e2a8      	LDI  R26,LOW(40)
0017aa 9fea      	MUL  R30,R26
0017ab 01f0      	MOVW R30,R0
                +
0017ac 54e3     +SUBI R30 , LOW ( - _packed_data - ( 24 ) )
0017ad 49f6     +SBCI R31 , HIGH ( - _packed_data - ( 24 ) )
                 	__ADDW1MN _packed_data,24
0017ae 81e0      	LD   R30,Z
0017af e0f0      	LDI  R31,0
0017b0 70e3      	ANDI R30,LOW(0x3)
0017b1 70f0      	ANDI R31,HIGH(0x3)
0017b2 0fee      	LSL  R30
0017b3 0fee      	LSL  R30
0017b4 0fee      	LSL  R30
0017b5 2ffe      	MOV  R31,R30
0017b6 e0e0      	LDI  R30,0
0017b7 01db      	MOVW R26,R22
0017b8 0fae      	ADD  R26,R30
0017b9 1fbf      	ADC  R27,R31
0017ba efef      	LDI  R30,LOW(8191)
0017bb e1ff      	LDI  R31,HIGH(8191)
0017bc 23ea      	AND  R30,R26
0017bd 23fb      	AND  R31,R27
0017be 8be8      	STD  Y+16,R30
0017bf 8bf9      	STD  Y+16+1,R31
                 ; 0006 0567 if ( g1 & 0x1000 ) {                /* negative */
0017c0 89e9      	LDD  R30,Y+17
0017c1 71e0      	ANDI R30,LOW(0x10)
0017c2 f411      	BRNE PC+3
0017c3 940c 17c8 	JMP _0xC0104
                 ; 0006 0568 g1 |= 0xe000 ;
0017c5 89e9      	LDD  R30,Y+17
0017c6 6ee0      	ORI  R30,LOW(0xE0)
0017c7 8be9      	STD  Y+17,R30
                 ; 0006 0569 }
                 ; 0006 056A g2 =  ((short) ((packed_data[c_ch][24] >> 2) & 0x3f) +
                 _0xC0104:
                 ; 0006 056B ((packed_data[c_ch][25] & 0x7f)* 64 )) & 0x1fff ;
0017c8 81ee      	LDD  R30,Y+6
0017c9 e2a8      	LDI  R26,LOW(40)
0017ca 9fea      	MUL  R30,R26
0017cb 01f0      	MOVW R30,R0
                +
0017cc 54e3     +SUBI R30 , LOW ( - _packed_data - ( 24 ) )
0017cd 49f6     +SBCI R31 , HIGH ( - _packed_data - ( 24 ) )
                 	__ADDW1MN _packed_data,24
0017ce 81e0      	LD   R30,Z
0017cf e0f0      	LDI  R31,0
0017d0 940e 319f 	CALL __ASRW2
0017d2 73ef      	ANDI R30,LOW(0x3F)
0017d3 70f0      	ANDI R31,HIGH(0x3F)
0017d4 01bf      	MOVW R22,R30
0017d5 81ee      	LDD  R30,Y+6
0017d6 9fea      	MUL  R30,R26
0017d7 01f0      	MOVW R30,R0
                +
0017d8 54e2     +SUBI R30 , LOW ( - _packed_data - ( 25 ) )
0017d9 49f6     +SBCI R31 , HIGH ( - _packed_data - ( 25 ) )
                 	__ADDW1MN _packed_data,25
0017da 81e0      	LD   R30,Z
0017db e0f0      	LDI  R31,0
0017dc 77ef      	ANDI R30,LOW(0x7F)
0017dd 70f0      	ANDI R31,HIGH(0x7F)
0017de 940e 3196 	CALL __LSLW2
0017e0 940e 3192 	CALL __LSLW4
0017e2 01db      	MOVW R26,R22
0017e3 0fae      	ADD  R26,R30
0017e4 1fbf      	ADC  R27,R31
0017e5 efef      	LDI  R30,LOW(8191)
0017e6 e1ff      	LDI  R31,HIGH(8191)
0017e7 23ea      	AND  R30,R26
0017e8 23fb      	AND  R31,R27
0017e9 87ee      	STD  Y+14,R30
0017ea 87ff      	STD  Y+14+1,R31
                 ; 0006 056C if ( g2 & 0x1000 ) {                /* negative */
0017eb 85ef      	LDD  R30,Y+15
0017ec 71e0      	ANDI R30,LOW(0x10)
0017ed f411      	BRNE PC+3
0017ee 940c 17f3 	JMP _0xC0105
                 ; 0006 056D g2 |= 0xe000 ;
0017f0 85ef      	LDD  R30,Y+15
0017f1 6ee0      	ORI  R30,LOW(0xE0)
0017f2 87ef      	STD  Y+15,R30
                 ; 0006 056E }
                 ; 0006 056F g3 =  ((short)((packed_data[c_ch][25] >> 7) & 0x01) +
                 _0xC0105:
                 ; 0006 0570 (packed_data[c_ch][26] * 2) +
                 ; 0006 0571 ((packed_data[c_ch][27] & 0x0f) * 512)) & 0x1fff ;
0017f3 81ee      	LDD  R30,Y+6
0017f4 e2a8      	LDI  R26,LOW(40)
0017f5 9fea      	MUL  R30,R26
0017f6 01f0      	MOVW R30,R0
                +
0017f7 54e2     +SUBI R30 , LOW ( - _packed_data - ( 25 ) )
0017f8 49f6     +SBCI R31 , HIGH ( - _packed_data - ( 25 ) )
                 	__ADDW1MN _packed_data,25
0017f9 81a0      	LD   R26,Z
0017fa e0b0      	LDI  R27,0
0017fb e0e7      	LDI  R30,LOW(7)
0017fc 940e 317f 	CALL __ASRW12
0017fe 70e1      	ANDI R30,LOW(0x1)
0017ff 70f0      	ANDI R31,HIGH(0x1)
001800 01bf      	MOVW R22,R30
001801 81ee      	LDD  R30,Y+6
001802 e2a8      	LDI  R26,LOW(40)
001803 9fea      	MUL  R30,R26
001804 01f0      	MOVW R30,R0
                +
001805 54e1     +SUBI R30 , LOW ( - _packed_data - ( 26 ) )
001806 49f6     +SBCI R31 , HIGH ( - _packed_data - ( 26 ) )
                 	__ADDW1MN _packed_data,26
001807 81a0      	LD   R26,Z
001808 e0e2      	LDI  R30,LOW(2)
001809 9fea      	MUL  R30,R26
00180a 01f0      	MOVW R30,R0
                +
00180b 0f6e     +ADD R22 , R30
00180c 1f7f     +ADC R23 , R31
                 	__ADDWRR 22,23,30,31
00180d 81ee      	LDD  R30,Y+6
00180e e2a8      	LDI  R26,LOW(40)
00180f 9fea      	MUL  R30,R26
001810 01f0      	MOVW R30,R0
                +
001811 54e0     +SUBI R30 , LOW ( - _packed_data - ( 27 ) )
001812 49f6     +SBCI R31 , HIGH ( - _packed_data - ( 27 ) )
                 	__ADDW1MN _packed_data,27
001813 81e0      	LD   R30,Z
001814 e0f0      	LDI  R31,0
001815 70ef      	ANDI R30,LOW(0xF)
001816 70f0      	ANDI R31,HIGH(0xF)
001817 0fee      	LSL  R30
001818 2ffe      	MOV  R31,R30
001819 e0e0      	LDI  R30,0
00181a 01db      	MOVW R26,R22
00181b 0fae      	ADD  R26,R30
00181c 1fbf      	ADC  R27,R31
00181d efef      	LDI  R30,LOW(8191)
00181e e1ff      	LDI  R31,HIGH(8191)
00181f 23ea      	AND  R30,R26
001820 23fb      	AND  R31,R27
001821 87ec      	STD  Y+12,R30
001822 87fd      	STD  Y+12+1,R31
                 ; 0006 0572 if ( g3 & 0x1000 ) {                /* negative */
001823 85ed      	LDD  R30,Y+13
001824 71e0      	ANDI R30,LOW(0x10)
001825 f411      	BRNE PC+3
001826 940c 182b 	JMP _0xC0106
                 ; 0006 0573 g3 |= 0xe000 ;
001828 85ed      	LDD  R30,Y+13
001829 6ee0      	ORI  R30,LOW(0xE0)
00182a 87ed      	STD  Y+13,R30
                 ; 0006 0574 }
                 ; 0006 0575 knst += d_knst;                                 /* remember new value */
                 _0xC0106:
00182b 89ea      	LDD  R30,Y+18
00182c 89fb      	LDD  R31,Y+18+1
                +
00182d 0f4e     +ADD R20 , R30
00182e 1f5f     +ADC R21 , R31
                 	__ADDWRR 20,21,30,31
                 ; 0006 0576 sens_data[2] = CalcSensData(knst*2, g1*2, g2*2, g3*2, temp_data) ;
                +
00182f e0a2     +LDI R26 , 2
001830 9fa4     +MUL R26 , R20
001831 01f0     +MOVW R30 , R0
001832 9fa5     +MUL R26 , R21
001833 0df0     +ADD R31 , R0
                 	__MULBNWRU 20,21,2
001834 93fa      	ST   -Y,R31
001835 93ea      	ST   -Y,R30
001836 89aa      	LDD  R26,Y+18
001837 89bb      	LDD  R27,Y+18+1
001838 e0e2      	LDI  R30,LOW(2)
001839 940e 31b2 	CALL __MULB1W2U
00183b 93fa      	ST   -Y,R31
00183c 93ea      	ST   -Y,R30
00183d 89aa      	LDD  R26,Y+18
00183e 89bb      	LDD  R27,Y+18+1
00183f e0e2      	LDI  R30,LOW(2)
001840 940e 31b2 	CALL __MULB1W2U
001842 93fa      	ST   -Y,R31
001843 93ea      	ST   -Y,R30
001844 89aa      	LDD  R26,Y+18
001845 89bb      	LDD  R27,Y+18+1
001846 e0e2      	LDI  R30,LOW(2)
001847 940e 31b2 	CALL __MULB1W2U
001849 93fa      	ST   -Y,R31
00184a 93ea      	ST   -Y,R30
                +
00184b 89a8     +LDD R26 , Y + 16
00184c 89b9     +LDD R27 , Y + 16 + 1
00184d 898a     +LDD R24 , Y + 16 + 2
00184e 899b     +LDD R25 , Y + 16 + 3
                 	__GETD2S 16
00184f 940e 1a6d 	CALL _CalcSensData
                +
001851 93e0 699f+STS _sens_data + ( 4 ) , R30
001853 93f0 69a0+STS _sens_data + ( 4 ) + 1 , R31
                 	__PUTW1MN _sens_data,4
                 ; 0006 0577 /* sens value 60%FRO @ temp */
                 ; 0006 0578 
                 ; 0006 0579 /* start calculate data for 100 % FRO */
                 ; 0006 057A d_knst = ((short)((packed_data[c_ch][27] >> 4) & 0x0f) +
                 ; 0006 057B (packed_data[c_ch][28] * 16) +
                 ; 0006 057C ((packed_data[c_ch][29] & 0x01)) * 4096)& 0x1fff ;
001855 81ee      	LDD  R30,Y+6
001856 e2a8      	LDI  R26,LOW(40)
001857 9fea      	MUL  R30,R26
001858 01f0      	MOVW R30,R0
                +
001859 54e0     +SUBI R30 , LOW ( - _packed_data - ( 27 ) )
00185a 49f6     +SBCI R31 , HIGH ( - _packed_data - ( 27 ) )
                 	__ADDW1MN _packed_data,27
00185b 81e0      	LD   R30,Z
00185c e0f0      	LDI  R31,0
00185d 940e 319b 	CALL __ASRW4
00185f 70ef      	ANDI R30,LOW(0xF)
001860 70f0      	ANDI R31,HIGH(0xF)
001861 01bf      	MOVW R22,R30
001862 81ee      	LDD  R30,Y+6
001863 9fea      	MUL  R30,R26
001864 01f0      	MOVW R30,R0
                +
001865 53ef     +SUBI R30 , LOW ( - _packed_data - ( 28 ) )
001866 49f6     +SBCI R31 , HIGH ( - _packed_data - ( 28 ) )
                 	__ADDW1MN _packed_data,28
001867 81a0      	LD   R26,Z
001868 e1e0      	LDI  R30,LOW(16)
001869 9fea      	MUL  R30,R26
00186a 01f0      	MOVW R30,R0
                +
00186b 0f6e     +ADD R22 , R30
00186c 1f7f     +ADC R23 , R31
                 	__ADDWRR 22,23,30,31
00186d 81ee      	LDD  R30,Y+6
00186e e2a8      	LDI  R26,LOW(40)
00186f 9fea      	MUL  R30,R26
001870 01f0      	MOVW R30,R0
                +
001871 53ee     +SUBI R30 , LOW ( - _packed_data - ( 29 ) )
001872 49f6     +SBCI R31 , HIGH ( - _packed_data - ( 29 ) )
                 	__ADDW1MN _packed_data,29
001873 81e0      	LD   R30,Z
001874 e0f0      	LDI  R31,0
001875 70e1      	ANDI R30,LOW(0x1)
001876 70f0      	ANDI R31,HIGH(0x1)
001877 95e2      	SWAP R30
001878 7fe0      	ANDI R30,0xF0
001879 2ffe      	MOV  R31,R30
00187a e0e0      	LDI  R30,0
00187b 01db      	MOVW R26,R22
00187c 0fae      	ADD  R26,R30
00187d 1fbf      	ADC  R27,R31
00187e efef      	LDI  R30,LOW(8191)
00187f e1ff      	LDI  R31,HIGH(8191)
001880 23ea      	AND  R30,R26
001881 23fb      	AND  R31,R27
001882 8bea      	STD  Y+18,R30
001883 8bfb      	STD  Y+18+1,R31
                 ; 0006 057D 
                 ; 0006 057E g1 =  ((short) ((packed_data[c_ch][29] >> 1) & 0x7f) +
                 ; 0006 057F ((packed_data[c_ch][30] & 0x3f) * 128)) & 0x1fff ;
001884 81ee      	LDD  R30,Y+6
001885 e2a8      	LDI  R26,LOW(40)
001886 9fea      	MUL  R30,R26
001887 01f0      	MOVW R30,R0
                +
001888 53ee     +SUBI R30 , LOW ( - _packed_data - ( 29 ) )
001889 49f6     +SBCI R31 , HIGH ( - _packed_data - ( 29 ) )
                 	__ADDW1MN _packed_data,29
00188a 81e0      	LD   R30,Z
00188b e0f0      	LDI  R31,0
00188c 95f5      	ASR  R31
00188d 95e7      	ROR  R30
00188e 77ef      	ANDI R30,LOW(0x7F)
00188f 70f0      	ANDI R31,HIGH(0x7F)
001890 01bf      	MOVW R22,R30
001891 81ee      	LDD  R30,Y+6
001892 9fea      	MUL  R30,R26
001893 01f0      	MOVW R30,R0
                +
001894 53ed     +SUBI R30 , LOW ( - _packed_data - ( 30 ) )
001895 49f6     +SBCI R31 , HIGH ( - _packed_data - ( 30 ) )
                 	__ADDW1MN _packed_data,30
001896 81e0      	LD   R30,Z
001897 e0f0      	LDI  R31,0
001898 73ef      	ANDI R30,LOW(0x3F)
001899 70f0      	ANDI R31,HIGH(0x3F)
00189a 940e 3194 	CALL __LSLW3
00189c 940e 3192 	CALL __LSLW4
00189e 01db      	MOVW R26,R22
00189f 0fae      	ADD  R26,R30
0018a0 1fbf      	ADC  R27,R31
0018a1 efef      	LDI  R30,LOW(8191)
0018a2 e1ff      	LDI  R31,HIGH(8191)
0018a3 23ea      	AND  R30,R26
0018a4 23fb      	AND  R31,R27
0018a5 8be8      	STD  Y+16,R30
0018a6 8bf9      	STD  Y+16+1,R31
                 ; 0006 0580 if ( g1 & 0x1000 ) {                /* negative */
0018a7 89e9      	LDD  R30,Y+17
0018a8 71e0      	ANDI R30,LOW(0x10)
0018a9 f411      	BRNE PC+3
0018aa 940c 18af 	JMP _0xC0107
                 ; 0006 0581 g1 |= 0xe000 ;
0018ac 89e9      	LDD  R30,Y+17
0018ad 6ee0      	ORI  R30,LOW(0xE0)
0018ae 8be9      	STD  Y+17,R30
                 ; 0006 0582 }
                 ; 0006 0583 g2 =  ((short) ((packed_data[c_ch][30] >> 6) & 0x03) +
                 _0xC0107:
                 ; 0006 0584 (packed_data[c_ch][31] * 4) +
                 ; 0006 0585 ((packed_data[c_ch][32]& 0x07) * 1024)) & 0x1fff ;
0018af 81ee      	LDD  R30,Y+6
0018b0 e2a8      	LDI  R26,LOW(40)
0018b1 9fea      	MUL  R30,R26
0018b2 01f0      	MOVW R30,R0
                +
0018b3 53ed     +SUBI R30 , LOW ( - _packed_data - ( 30 ) )
0018b4 49f6     +SBCI R31 , HIGH ( - _packed_data - ( 30 ) )
                 	__ADDW1MN _packed_data,30
0018b5 81a0      	LD   R26,Z
0018b6 e0b0      	LDI  R27,0
0018b7 e0e6      	LDI  R30,LOW(6)
0018b8 940e 317f 	CALL __ASRW12
0018ba 70e3      	ANDI R30,LOW(0x3)
0018bb 70f0      	ANDI R31,HIGH(0x3)
0018bc 01bf      	MOVW R22,R30
0018bd 81ee      	LDD  R30,Y+6
0018be e2a8      	LDI  R26,LOW(40)
0018bf 9fea      	MUL  R30,R26
0018c0 01f0      	MOVW R30,R0
                +
0018c1 53ec     +SUBI R30 , LOW ( - _packed_data - ( 31 ) )
0018c2 49f6     +SBCI R31 , HIGH ( - _packed_data - ( 31 ) )
                 	__ADDW1MN _packed_data,31
0018c3 81a0      	LD   R26,Z
0018c4 e0e4      	LDI  R30,LOW(4)
0018c5 9fea      	MUL  R30,R26
0018c6 01f0      	MOVW R30,R0
                +
0018c7 0f6e     +ADD R22 , R30
0018c8 1f7f     +ADC R23 , R31
                 	__ADDWRR 22,23,30,31
0018c9 81ee      	LDD  R30,Y+6
0018ca e2a8      	LDI  R26,LOW(40)
0018cb 9fea      	MUL  R30,R26
0018cc 01f0      	MOVW R30,R0
                +
0018cd 53eb     +SUBI R30 , LOW ( - _packed_data - ( 32 ) )
0018ce 49f6     +SBCI R31 , HIGH ( - _packed_data - ( 32 ) )
                 	__ADDW1MN _packed_data,32
0018cf 81e0      	LD   R30,Z
0018d0 e0f0      	LDI  R31,0
0018d1 70e7      	ANDI R30,LOW(0x7)
0018d2 70f0      	ANDI R31,HIGH(0x7)
0018d3 0fee      	LSL  R30
0018d4 0fee      	LSL  R30
0018d5 2ffe      	MOV  R31,R30
0018d6 e0e0      	LDI  R30,0
0018d7 01db      	MOVW R26,R22
0018d8 0fae      	ADD  R26,R30
0018d9 1fbf      	ADC  R27,R31
0018da efef      	LDI  R30,LOW(8191)
0018db e1ff      	LDI  R31,HIGH(8191)
0018dc 23ea      	AND  R30,R26
0018dd 23fb      	AND  R31,R27
0018de 87ee      	STD  Y+14,R30
0018df 87ff      	STD  Y+14+1,R31
                 ; 0006 0586 if ( g2 & 0x1000 ) {                /* negative */
0018e0 85ef      	LDD  R30,Y+15
0018e1 71e0      	ANDI R30,LOW(0x10)
0018e2 f411      	BRNE PC+3
0018e3 940c 18e8 	JMP _0xC0108
                 ; 0006 0587 g2 |= 0xe000 ;
0018e5 85ef      	LDD  R30,Y+15
0018e6 6ee0      	ORI  R30,LOW(0xE0)
0018e7 87ef      	STD  Y+15,R30
                 ; 0006 0588 }
                 ; 0006 0589 g3 =  ((short) ((packed_data[c_ch][32] >> 3) & 0x1f) +
                 _0xC0108:
                 ; 0006 058A (packed_data[c_ch][33] * 32)) & 0x1fff ;
0018e8 81ee      	LDD  R30,Y+6
0018e9 e2a8      	LDI  R26,LOW(40)
0018ea 9fea      	MUL  R30,R26
0018eb 01f0      	MOVW R30,R0
                +
0018ec 53eb     +SUBI R30 , LOW ( - _packed_data - ( 32 ) )
0018ed 49f6     +SBCI R31 , HIGH ( - _packed_data - ( 32 ) )
                 	__ADDW1MN _packed_data,32
0018ee 81e0      	LD   R30,Z
0018ef e0f0      	LDI  R31,0
0018f0 940e 319d 	CALL __ASRW3
0018f2 71ef      	ANDI R30,LOW(0x1F)
0018f3 70f0      	ANDI R31,HIGH(0x1F)
0018f4 01bf      	MOVW R22,R30
0018f5 81ee      	LDD  R30,Y+6
0018f6 9fea      	MUL  R30,R26
0018f7 01f0      	MOVW R30,R0
                +
0018f8 53ea     +SUBI R30 , LOW ( - _packed_data - ( 33 ) )
0018f9 49f6     +SBCI R31 , HIGH ( - _packed_data - ( 33 ) )
                 	__ADDW1MN _packed_data,33
0018fa 81a0      	LD   R26,Z
0018fb e2e0      	LDI  R30,LOW(32)
0018fc 9fea      	MUL  R30,R26
0018fd 01f0      	MOVW R30,R0
0018fe 01db      	MOVW R26,R22
0018ff 0fae      	ADD  R26,R30
001900 1fbf      	ADC  R27,R31
001901 efef      	LDI  R30,LOW(8191)
001902 e1ff      	LDI  R31,HIGH(8191)
001903 23ea      	AND  R30,R26
001904 23fb      	AND  R31,R27
001905 87ec      	STD  Y+12,R30
001906 87fd      	STD  Y+12+1,R31
                 ; 0006 058B if ( g3 & 0x1000 ) {                /* negative */
001907 85ed      	LDD  R30,Y+13
001908 71e0      	ANDI R30,LOW(0x10)
001909 f411      	BRNE PC+3
00190a 940c 190f 	JMP _0xC0109
                 ; 0006 058C g3 |= 0xe000 ;
00190c 85ed      	LDD  R30,Y+13
00190d 6ee0      	ORI  R30,LOW(0xE0)
00190e 87ed      	STD  Y+13,R30
                 ; 0006 058D }
                 ; 0006 058E knst += d_knst;                                 /* remember new value */
                 _0xC0109:
00190f 89ea      	LDD  R30,Y+18
001910 89fb      	LDD  R31,Y+18+1
                +
001911 0f4e     +ADD R20 , R30
001912 1f5f     +ADC R21 , R31
                 	__ADDWRR 20,21,30,31
                 ; 0006 058F sens_data[3] = CalcSensData(knst*2, g1*2, g2*2, g3*2, temp_data) ;
                +
001913 e0a2     +LDI R26 , 2
001914 9fa4     +MUL R26 , R20
001915 01f0     +MOVW R30 , R0
001916 9fa5     +MUL R26 , R21
001917 0df0     +ADD R31 , R0
                 	__MULBNWRU 20,21,2
001918 93fa      	ST   -Y,R31
001919 93ea      	ST   -Y,R30
00191a 89aa      	LDD  R26,Y+18
00191b 89bb      	LDD  R27,Y+18+1
00191c e0e2      	LDI  R30,LOW(2)
00191d 940e 31b2 	CALL __MULB1W2U
00191f 93fa      	ST   -Y,R31
001920 93ea      	ST   -Y,R30
001921 89aa      	LDD  R26,Y+18
001922 89bb      	LDD  R27,Y+18+1
001923 e0e2      	LDI  R30,LOW(2)
001924 940e 31b2 	CALL __MULB1W2U
001926 93fa      	ST   -Y,R31
001927 93ea      	ST   -Y,R30
001928 89aa      	LDD  R26,Y+18
001929 89bb      	LDD  R27,Y+18+1
00192a e0e2      	LDI  R30,LOW(2)
00192b 940e 31b2 	CALL __MULB1W2U
00192d 93fa      	ST   -Y,R31
00192e 93ea      	ST   -Y,R30
                +
00192f 89a8     +LDD R26 , Y + 16
001930 89b9     +LDD R27 , Y + 16 + 1
001931 898a     +LDD R24 , Y + 16 + 2
001932 899b     +LDD R25 , Y + 16 + 3
                 	__GETD2S 16
001933 940e 1a6d 	CALL _CalcSensData
                +
001935 93e0 69a1+STS _sens_data + ( 6 ) , R30
001937 93f0 69a2+STS _sens_data + ( 6 ) + 1 , R31
                 	__PUTW1MN _sens_data,6
                 ; 0006 0590 /* sens value 100%FRO @ temp */
                 ; 0006 0591 
                 ; 0006 0592 sens_nl1 = (signed char)((packed_data[c_ch][34] >> 3) & 0x0f) ; /*  NL1 */
001939 81ee      	LDD  R30,Y+6
00193a e2a8      	LDI  R26,LOW(40)
00193b 9fea      	MUL  R30,R26
00193c 01f0      	MOVW R30,R0
                +
00193d 53e9     +SUBI R30 , LOW ( - _packed_data - ( 34 ) )
00193e 49f6     +SBCI R31 , HIGH ( - _packed_data - ( 34 ) )
                 	__ADDW1MN _packed_data,34
00193f 81e0      	LD   R30,Z
001940 95e6      	LSR  R30
001941 95e6      	LSR  R30
001942 95e6      	LSR  R30
001943 70ef      	ANDI R30,LOW(0xF)
001944 93e0 69a3 	STS  _sens_nl1,R30
                 ; 0006 0593 if ( (packed_data[c_ch][34]) & 0x80 ) {
001946 81ee      	LDD  R30,Y+6
001947 9fea      	MUL  R30,R26
001948 01f0      	MOVW R30,R0
                +
001949 53e9     +SUBI R30 , LOW ( - _packed_data - ( 34 ) )
00194a 49f6     +SBCI R31 , HIGH ( - _packed_data - ( 34 ) )
                 	__ADDW1MN _packed_data,34
00194b 81e0      	LD   R30,Z
00194c 78e0      	ANDI R30,LOW(0x80)
00194d f411      	BRNE PC+3
00194e 940c 1955 	JMP _0xC010A
                 ; 0006 0594 sens_nl1 |= 0xf0 ;
001950 91e0 69a3 	LDS  R30,_sens_nl1
001952 6fe0      	ORI  R30,LOW(0xF0)
001953 93e0 69a3 	STS  _sens_nl1,R30
                 ; 0006 0595 }
                 ; 0006 0596 sens_nl1 *= 3 ;
                 _0xC010A:
001955 91e0 69a3 	LDS  R30,_sens_nl1
001957 e0a3      	LDI  R26,LOW(3)
001958 02ea      	MULS R30,R26
001959 01f0      	MOVW R30,R0
00195a 93e0 69a3 	STS  _sens_nl1,R30
                 ; 0006 0597 
                 ; 0006 0598 sens_nl2 = (signed char) (packed_data[c_ch][34] & 0x07) ;         /* NL2 */
00195c 81ee      	LDD  R30,Y+6
00195d e2a8      	LDI  R26,LOW(40)
00195e 9fea      	MUL  R30,R26
00195f 01f0      	MOVW R30,R0
                +
001960 53e9     +SUBI R30 , LOW ( - _packed_data - ( 34 ) )
001961 49f6     +SBCI R31 , HIGH ( - _packed_data - ( 34 ) )
                 	__ADDW1MN _packed_data,34
001962 81e0      	LD   R30,Z
001963 70e7      	ANDI R30,LOW(0x7)
001964 93e0 69a4 	STS  _sens_nl2,R30
                 ; 0006 0599 if ( (packed_data[c_ch][34]) & 0x04 ) {
001966 81ee      	LDD  R30,Y+6
001967 9fea      	MUL  R30,R26
001968 01f0      	MOVW R30,R0
                +
001969 53e9     +SUBI R30 , LOW ( - _packed_data - ( 34 ) )
00196a 49f6     +SBCI R31 , HIGH ( - _packed_data - ( 34 ) )
                 	__ADDW1MN _packed_data,34
00196b 81e0      	LD   R30,Z
00196c 70e4      	ANDI R30,LOW(0x4)
00196d f411      	BRNE PC+3
00196e 940c 1975 	JMP _0xC010B
                 ; 0006 059A sens_nl2 |= 0xf8 ;
001970 91e0 69a4 	LDS  R30,_sens_nl2
001972 6fe8      	ORI  R30,LOW(0xF8)
001973 93e0 69a4 	STS  _sens_nl2,R30
                 ; 0006 059B }
                 ; 0006 059C sens_nl2 *= 3 ;
                 _0xC010B:
001975 91e0 69a4 	LDS  R30,_sens_nl2
001977 e0a3      	LDI  R26,LOW(3)
001978 02ea      	MULS R30,R26
001979 01f0      	MOVW R30,R0
00197a 93e0 69a4 	STS  _sens_nl2,R30
                 ; 0006 059D 
                 ; 0006 059E offset[ch] =  (short) (packed_data[c_ch][35] +(packed_data[c_ch][36] * 256)) ;           /*offset*/
00197c 89ec      	LDD  R30,Y+20
00197d eaa3      	LDI  R26,LOW(_offset)
00197e e6bb      	LDI  R27,HIGH(_offset)
00197f e0f0      	LDI  R31,0
001980 0fee      	LSL  R30
001981 1fff      	ROL  R31
001982 0fea      	ADD  R30,R26
001983 1ffb      	ADC  R31,R27
001984 01cf      	MOVW R24,R30
001985 81ee      	LDD  R30,Y+6
001986 e2a8      	LDI  R26,LOW(40)
001987 9fea      	MUL  R30,R26
001988 01f0      	MOVW R30,R0
                +
001989 53e8     +SUBI R30 , LOW ( - _packed_data - ( 35 ) )
00198a 49f6     +SBCI R31 , HIGH ( - _packed_data - ( 35 ) )
                 	__ADDW1MN _packed_data,35
00198b 8160      	LD   R22,Z
00198c 2777      	CLR  R23
00198d 81ee      	LDD  R30,Y+6
00198e 9fea      	MUL  R30,R26
00198f 01f0      	MOVW R30,R0
                +
001990 53e7     +SUBI R30 , LOW ( - _packed_data - ( 36 ) )
001991 49f6     +SBCI R31 , HIGH ( - _packed_data - ( 36 ) )
                 	__ADDW1MN _packed_data,36
001992 81a0      	LD   R26,Z
001993 e0b0      	LDI  R27,0
001994 e0e0      	LDI  R30,LOW(256)
001995 e0f1      	LDI  R31,HIGH(256)
001996 940e 31b8 	CALL __MULW12
001998 0fe6      	ADD  R30,R22
001999 1ff7      	ADC  R31,R23
00199a 01dc      	MOVW R26,R24
00199b 93ed      	ST   X+,R30
00199c 93fc      	ST   X,R31
                 ; 0006 059F data_low= packed_data[c_ch][37];
00199d 81ee      	LDD  R30,Y+6
00199e e2a8      	LDI  R26,LOW(40)
00199f 9fea      	MUL  R30,R26
0019a0 01f0      	MOVW R30,R0
                +
0019a1 53e6     +SUBI R30 , LOW ( - _packed_data - ( 37 ) )
0019a2 49f6     +SBCI R31 , HIGH ( - _packed_data - ( 37 ) )
                 	__ADDW1MN _packed_data,37
0019a3 8100      	LD   R16,Z
0019a4 2711      	CLR  R17
                 ; 0006 05A0 data_high= packed_data[c_ch][38] * 256;
0019a5 81ee      	LDD  R30,Y+6
0019a6 9fea      	MUL  R30,R26
0019a7 01f0      	MOVW R30,R0
                +
0019a8 53e5     +SUBI R30 , LOW ( - _packed_data - ( 38 ) )
0019a9 49f6     +SBCI R31 , HIGH ( - _packed_data - ( 38 ) )
                 	__ADDW1MN _packed_data,38
0019aa 81a0      	LD   R26,Z
0019ab e0b0      	LDI  R27,0
0019ac e0e0      	LDI  R30,LOW(256)
0019ad e0f1      	LDI  R31,HIGH(256)
0019ae 940e 31b8 	CALL __MULW12
0019b0 019f      	MOVW R18,R30
                 ; 0006 05A1 gain[ch] =  1.0 + (float)((int)((data_low + data_high))/100000.0) ;  /*gain*/
0019b1 89ec      	LDD  R30,Y+20
0019b2 e6ab      	LDI  R26,LOW(_gain)
0019b3 e6bb      	LDI  R27,HIGH(_gain)
0019b4 e0f0      	LDI  R31,0
0019b5 940e 3196 	CALL __LSLW2
0019b7 0fea      	ADD  R30,R26
0019b8 1ffb      	ADC  R31,R27
0019b9 93ff      	PUSH R31
0019ba 93ef      	PUSH R30
0019bb 01f9      	MOVW R30,R18
0019bc 0fe0      	ADD  R30,R16
0019bd 1ff1      	ADC  R31,R17
                +
0019be 2f6f     +MOV R22 , R31
0019bf 0f66     +ADD R22 , R22
0019c0 0b66     +SBC R22 , R22
0019c1 2f76     +MOV R23 , R22
                 	__CWD1
0019c2 940e 328f 	CALL __CDF1
0019c4 01df      	MOVW R26,R30
0019c5 01cb      	MOVW R24,R22
                +
0019c6 e0e0     +LDI R30 , LOW ( 0x47C35000 )
0019c7 e5f0     +LDI R31 , HIGH ( 0x47C35000 )
0019c8 ec63     +LDI R22 , BYTE3 ( 0x47C35000 )
0019c9 e477     +LDI R23 , BYTE4 ( 0x47C35000 )
                 	__GETD1N 0x47C35000
0019ca 940e 3366 	CALL __DIVF21
                +
0019cc e0a0     +LDI R26 , LOW ( 0x3F800000 )
0019cd e0b0     +LDI R27 , HIGH ( 0x3F800000 )
0019ce e880     +LDI R24 , BYTE3 ( 0x3F800000 )
0019cf e39f     +LDI R25 , BYTE4 ( 0x3F800000 )
                 	__GETD2N 0x3F800000
0019d0 940e 32c9 	CALL __ADDF12
0019d2 91af      	POP  R26
0019d3 91bf      	POP  R27
                +
0019d4 93ed     +ST X + , R30
0019d5 93fd     +ST X + , R31
0019d6 936d     +ST X + , R22
0019d7 937c     +ST X , R23
                 	__PUTDP1
                 ; 0006 05A2 //gain[ch] =  1.0 + (float)((packed_data[c_ch][37] + packed_data[c_ch][38] * 256)/100000.0) ;  /*gain*/
                 ; 0006 05A3 /* 256 can not be 256.0 !!!*/
                 ; 0006 05A4 } else {
0019d8 c038      	RJMP _0xC010C
                 _0xC00FA:
                 ; 0006 05A5 sens_data[0] =     0 ;                  /* dummy values to prevent */
0019d9 e0e0      	LDI  R30,LOW(0)
0019da 93e0 699b 	STS  _sens_data,R30
0019dc 93e0 699c 	STS  _sens_data+1,R30
                 ; 0006 05A6 sens_data[1] =  4000 ;             /* divide by zero */
                +
0019de e9ed     +LDI R30 , LOW ( _sens_data + ( 2 ) )
0019df e6f9     +LDI R31 , HIGH ( _sens_data + ( 2 ) )
                 	__POINTW1MN _sens_data,2
0019e0 eaa0      	LDI  R26,LOW(4000)
0019e1 e0bf      	LDI  R27,HIGH(4000)
0019e2 83a0      	STD  Z+0,R26
0019e3 83b1      	STD  Z+1,R27
                 ; 0006 05A7 sens_data[2] =  8000 ;
                +
0019e4 e9ef     +LDI R30 , LOW ( _sens_data + ( 4 ) )
0019e5 e6f9     +LDI R31 , HIGH ( _sens_data + ( 4 ) )
                 	__POINTW1MN _sens_data,4
0019e6 e4a0      	LDI  R26,LOW(8000)
0019e7 e1bf      	LDI  R27,HIGH(8000)
0019e8 83a0      	STD  Z+0,R26
0019e9 83b1      	STD  Z+1,R27
                 ; 0006 05A8 sens_data[3] = 12000 ;
                +
0019ea eae1     +LDI R30 , LOW ( _sens_data + ( 6 ) )
0019eb e6f9     +LDI R31 , HIGH ( _sens_data + ( 6 ) )
                 	__POINTW1MN _sens_data,6
0019ec eea0      	LDI  R26,LOW(12000)
0019ed e2be      	LDI  R27,HIGH(12000)
0019ee 83a0      	STD  Z+0,R26
0019ef 83b1      	STD  Z+1,R27
                 ; 0006 05A9 sens_nl1 = 0 ;
0019f0 e0e0      	LDI  R30,LOW(0)
0019f1 93e0 69a3 	STS  _sens_nl1,R30
                 ; 0006 05AA sens_nl2 = 0 ;
0019f3 93e0 69a4 	STS  _sens_nl2,R30
                 ; 0006 05AB offset[ch] =  0 ;                       /*offset*/
0019f5 89ec      	LDD  R30,Y+20
0019f6 eaa3      	LDI  R26,LOW(_offset)
0019f7 e6bb      	LDI  R27,HIGH(_offset)
0019f8 e0f0      	LDI  R31,0
0019f9 0fee      	LSL  R30
0019fa 1fff      	ROL  R31
0019fb 0fae      	ADD  R26,R30
0019fc 1fbf      	ADC  R27,R31
0019fd e0e0      	LDI  R30,LOW(0)
0019fe e0f0      	LDI  R31,HIGH(0)
0019ff 93ed      	ST   X+,R30
001a00 93fc      	ST   X,R31
                 ; 0006 05AC gain[ch] =  1.0 ;                       /* gain */
001a01 89ec      	LDD  R30,Y+20
001a02 e6ab      	LDI  R26,LOW(_gain)
001a03 e6bb      	LDI  R27,HIGH(_gain)
001a04 e0f0      	LDI  R31,0
001a05 940e 3196 	CALL __LSLW2
001a07 0fae      	ADD  R26,R30
001a08 1fbf      	ADC  R27,R31
                +
001a09 e0e0     +LDI R30 , LOW ( 0x3F800000 )
001a0a e0f0     +LDI R31 , HIGH ( 0x3F800000 )
001a0b e860     +LDI R22 , BYTE3 ( 0x3F800000 )
001a0c e37f     +LDI R23 , BYTE4 ( 0x3F800000 )
                 	__GETD1N 0x3F800000
                +
001a0d 93ed     +ST X + , R30
001a0e 93fd     +ST X + , R31
001a0f 936d     +ST X + , R22
001a10 937c     +ST X , R23
                 	__PUTDP1
                 ; 0006 05AD }
                 _0xC010C:
                 ; 0006 05AE if ( (eep_type[7] & 0x01) || (eep_type[7] & 0x10) ) {     /* ok data */
                +
001a11 91e0 6be6+LDS R30 , _eep_type + ( 7 )
                 	__GETB1MN _eep_type,7
001a13 70e1      	ANDI R30,LOW(0x1)
001a14 f011      	BREQ PC+3
001a15 940c 1a1e 	JMP _0xC010E
                +
001a17 91e0 6be6+LDS R30 , _eep_type + ( 7 )
                 	__GETB1MN _eep_type,7
001a19 71e0      	ANDI R30,LOW(0x10)
001a1a f011      	BREQ PC+3
001a1b 940c 1a1e 	JMP _0xC010E
001a1d c03a      	RJMP _0xC010D
                 _0xC010E:
                 ; 0006 05AF cal_zero = (short) packed_data[7][35] + packed_data[7][36] * 256 ;
                +
001a1e 9160 6ae0+LDS R22 , _packed_data + ( 315 )
                 	__GETBRMN 22,_packed_data,315
001a20 2777      	CLR  R23
                +
001a21 91a0 6ae1+LDS R26 , _packed_data + ( 316 )
                 	__GETB2MN _packed_data,316
001a23 e0b0      	LDI  R27,0
001a24 e0e0      	LDI  R30,LOW(256)
001a25 e0f1      	LDI  R31,HIGH(256)
001a26 940e 31b8 	CALL __MULW12
001a28 0fe6      	ADD  R30,R22
001a29 1ff7      	ADC  R31,R23
001a2a 93e0 6bc3 	STS  _cal_zero,R30
001a2c 93f0 6bc4 	STS  _cal_zero+1,R31
                 ; 0006 05B0 data_low= packed_data[7][37];
                +
001a2e 9100 6ae2+LDS R16 , _packed_data + ( 317 )
                 	__GETBRMN 16,_packed_data,317
001a30 2711      	CLR  R17
                 ; 0006 05B1 data_high= packed_data[7][38] * 256;
                +
001a31 91a0 6ae3+LDS R26 , _packed_data + ( 318 )
                 	__GETB2MN _packed_data,318
001a33 e0b0      	LDI  R27,0
001a34 e0e0      	LDI  R30,LOW(256)
001a35 e0f1      	LDI  R31,HIGH(256)
001a36 940e 31b8 	CALL __MULW12
001a38 019f      	MOVW R18,R30
                 ; 0006 05B2 cal_gain =  1.0 + (float)((int)((data_low + data_high))/100000.0) ; /*gain*/
001a39 0fe0      	ADD  R30,R16
001a3a 1ff1      	ADC  R31,R17
                +
001a3b 2f6f     +MOV R22 , R31
001a3c 0f66     +ADD R22 , R22
001a3d 0b66     +SBC R22 , R22
001a3e 2f76     +MOV R23 , R22
                 	__CWD1
001a3f 940e 328f 	CALL __CDF1
001a41 01df      	MOVW R26,R30
001a42 01cb      	MOVW R24,R22
                +
001a43 e0e0     +LDI R30 , LOW ( 0x47C35000 )
001a44 e5f0     +LDI R31 , HIGH ( 0x47C35000 )
001a45 ec63     +LDI R22 , BYTE3 ( 0x47C35000 )
001a46 e477     +LDI R23 , BYTE4 ( 0x47C35000 )
                 	__GETD1N 0x47C35000
001a47 940e 3366 	CALL __DIVF21
                +
001a49 e0a0     +LDI R26 , LOW ( 0x3F800000 )
001a4a e0b0     +LDI R27 , HIGH ( 0x3F800000 )
001a4b e880     +LDI R24 , BYTE3 ( 0x3F800000 )
001a4c e39f     +LDI R25 , BYTE4 ( 0x3F800000 )
                 	__GETD2N 0x3F800000
001a4d 940e 32c9 	CALL __ADDF12
001a4f 93e0 6bbf 	STS  _cal_gain,R30
001a51 93f0 6bc0 	STS  _cal_gain+1,R31
001a53 9360 6bc1 	STS  _cal_gain+2,R22
001a55 9370 6bc2 	STS  _cal_gain+3,R23
                 ; 0006 05B3 //cal_gain =  1.0 + (float)((packed_data[7][37] + packed_data[7][38] * 256)/100000.0) ; /*gain*/
                 ; 0006 05B4 /* 256 can not be 256.0 !!!*/
                 ; 0006 05B5 } else {
001a57 c011      	RJMP _0xC0110
                 _0xC010D:
                 ; 0006 05B6 cal_zero = 0 ;
001a58 e0e0      	LDI  R30,LOW(0)
001a59 93e0 6bc3 	STS  _cal_zero,R30
001a5b 93e0 6bc4 	STS  _cal_zero+1,R30
                 ; 0006 05B7 cal_gain = 1.0 ;
                +
001a5d e0e0     +LDI R30 , LOW ( 0x3F800000 )
001a5e e0f0     +LDI R31 , HIGH ( 0x3F800000 )
001a5f e860     +LDI R22 , BYTE3 ( 0x3F800000 )
001a60 e37f     +LDI R23 , BYTE4 ( 0x3F800000 )
                 	__GETD1N 0x3F800000
001a61 93e0 6bbf 	STS  _cal_gain,R30
001a63 93f0 6bc0 	STS  _cal_gain+1,R31
001a65 9360 6bc1 	STS  _cal_gain+2,R22
001a67 9370 6bc2 	STS  _cal_gain+3,R23
                 ; 0006 05B8 }
                 _0xC0110:
                 ; 0006 05B9 }
001a69 940e 3158 	CALL __LOADLOCR6
001a6b 9665      	ADIW R28,21
001a6c 9508      	RET
                 ; .FEND
                 ;unsigned int CalcSensData(unsigned int knst, unsigned int g1, unsigned int g2, unsigned int g3, float temp)
                 ; 0006 05C0 {
                 _CalcSensData:
                 ; .FSTART _CalcSensData
                 ; 0006 05C1 
                 ; 0006 05C2 return(knst + (g1 * temp) +
001a6d 940e 31e3 	CALL __PUTPARD2
001a6f 940e 3151 	CALL __SAVELOCR6
                +
001a71 850a     +LDD R16 , Y + 10
001a72 851b     +LDD R17 , Y + 10 + 1
                 	__GETWRS 16,17,10
                +
001a73 852c     +LDD R18 , Y + 12
001a74 853d     +LDD R19 , Y + 12 + 1
                 	__GETWRS 18,19,12
                +
001a75 854e     +LDD R20 , Y + 14
001a76 855f     +LDD R21 , Y + 14 + 1
                 	__GETWRS 20,21,14
                 ;	knst -> Y+16
                 ;	g1 -> R20,R21
                 ;	g2 -> R18,R19
                 ;	g3 -> R16,R17
                 ;	temp -> Y+6
                 ; 0006 05C3 (g2 * temp * temp) +
                 ; 0006 05C4 (g3 * temp * temp * temp)) ;    /* sens value ?%FRO @ temp */
                +
001a77 81ee     +LDD R30 , Y + 6
001a78 81ff     +LDD R31 , Y + 6 + 1
001a79 8568     +LDD R22 , Y + 6 + 2
001a7a 8579     +LDD R23 , Y + 6 + 3
                 	__GETD1S 6
001a7b 01da      	MOVW R26,R20
001a7c 2788      	CLR  R24
001a7d 2799      	CLR  R25
001a7e 940e 31ea 	CALL __CDF2
001a80 940e 3318 	CALL __MULF12
001a82 89a8      	LDD  R26,Y+16
001a83 89b9      	LDD  R27,Y+16+1
001a84 2788      	CLR  R24
001a85 2799      	CLR  R25
001a86 940e 31ea 	CALL __CDF2
001a88 940e 32c9 	CALL __ADDF12
001a8a 937f      	PUSH R23
001a8b 936f      	PUSH R22
001a8c 93ff      	PUSH R31
001a8d 93ef      	PUSH R30
                +
001a8e 81ee     +LDD R30 , Y + 6
001a8f 81ff     +LDD R31 , Y + 6 + 1
001a90 8568     +LDD R22 , Y + 6 + 2
001a91 8579     +LDD R23 , Y + 6 + 3
                 	__GETD1S 6
001a92 01d9      	MOVW R26,R18
001a93 2788      	CLR  R24
001a94 2799      	CLR  R25
001a95 940e 31ea 	CALL __CDF2
001a97 940e 3318 	CALL __MULF12
                +
001a99 81ae     +LDD R26 , Y + 6
001a9a 81bf     +LDD R27 , Y + 6 + 1
001a9b 8588     +LDD R24 , Y + 6 + 2
001a9c 8599     +LDD R25 , Y + 6 + 3
                 	__GETD2S 6
001a9d 940e 3318 	CALL __MULF12
001a9f 91af      	POP  R26
001aa0 91bf      	POP  R27
001aa1 918f      	POP  R24
001aa2 919f      	POP  R25
001aa3 940e 32c9 	CALL __ADDF12
001aa5 937f      	PUSH R23
001aa6 936f      	PUSH R22
001aa7 93ff      	PUSH R31
001aa8 93ef      	PUSH R30
                +
001aa9 81ee     +LDD R30 , Y + 6
001aaa 81ff     +LDD R31 , Y + 6 + 1
001aab 8568     +LDD R22 , Y + 6 + 2
001aac 8579     +LDD R23 , Y + 6 + 3
                 	__GETD1S 6
001aad 01d8      	MOVW R26,R16
001aae 2788      	CLR  R24
001aaf 2799      	CLR  R25
001ab0 940e 31ea 	CALL __CDF2
001ab2 940e 3318 	CALL __MULF12
                +
001ab4 81ae     +LDD R26 , Y + 6
001ab5 81bf     +LDD R27 , Y + 6 + 1
001ab6 8588     +LDD R24 , Y + 6 + 2
001ab7 8599     +LDD R25 , Y + 6 + 3
                 	__GETD2S 6
001ab8 940e 3318 	CALL __MULF12
                +
001aba 81ae     +LDD R26 , Y + 6
001abb 81bf     +LDD R27 , Y + 6 + 1
001abc 8588     +LDD R24 , Y + 6 + 2
001abd 8599     +LDD R25 , Y + 6 + 3
                 	__GETD2S 6
001abe 940e 3318 	CALL __MULF12
001ac0 91af      	POP  R26
001ac1 91bf      	POP  R27
001ac2 918f      	POP  R24
001ac3 919f      	POP  R25
001ac4 940e 32c9 	CALL __ADDF12
001ac6 940e 3256 	CALL __CFD1U
001ac8 940e 3158 	CALL __LOADLOCR6
001aca 9662      	ADIW R28,18
001acb 9508      	RET
                 ; 0006 05C5 
                 ; 0006 05C6 }
                 ; .FEND
                 ;unsigned int FindTemp(signed char ch)
                 ; 0006 05CE {
                 _FindTemp:
                 ; .FSTART _FindTemp
                 ; 0006 05CF 
                 ; 0006 05D0 short temp_ch, i ;
                 ; 0006 05D1 
                 ; 0006 05D2 temp_ch = (short) ch + 1 ;
001acc 940e 3151 	CALL __SAVELOCR6
001ace 2f5a      	MOV  R21,R26
                 ;	ch -> R21
                 ;	temp_ch -> R16,R17
                 ;	i -> R18,R19
001acf 2fe5      	MOV  R30,R21
001ad0 e0f0      	LDI  R31,0
001ad1 fde7      	SBRC R30,7
001ad2 efff      	SER  R31
001ad3 9631      	ADIW R30,1
001ad4 018f      	MOVW R16,R30
                 ; 0006 05D3 if ( ((ch_stat[temp_ch] & 0x0c) == 0x04) &&
                 ; 0006 05D4 (mes_data[temp_ch] < 150.0) &&                     /* to high or */
                 ; 0006 05D5 (mes_data[temp_ch] > -80.0) &&                     /* to low temp or */
                 ; 0006 05D6 (!(ch_stat[temp_ch] & 0x01)) ) {                    /* convertion error */
001ad5 eda1      	LDI  R26,LOW(_ch_stat)
001ad6 e6bb      	LDI  R27,HIGH(_ch_stat)
001ad7 0fa0      	ADD  R26,R16
001ad8 1fb1      	ADC  R27,R17
001ad9 91ec      	LD   R30,X
001ada 70ec      	ANDI R30,LOW(0xC)
001adb 30e4      	CPI  R30,LOW(0x4)
001adc f011      	BREQ PC+3
001add 940c 1b16 	JMP _0xC0112
001adf 01f8      	MOVW R30,R16
001ae0 e2a9      	LDI  R26,LOW(_mes_data)
001ae1 e6bb      	LDI  R27,HIGH(_mes_data)
001ae2 940e 3196 	CALL __LSLW2
001ae4 0fae      	ADD  R26,R30
001ae5 1fbf      	ADC  R27,R31
                +
001ae6 91ed     +LD R30 , X +
001ae7 91fd     +LD R31 , X +
001ae8 916d     +LD R22 , X +
001ae9 917d     +LD R23 , X +
                 	__GETD1P_INC
001aea 01df      	MOVW R26,R30
001aeb 01cb      	MOVW R24,R22
                +
001aec e0e0     +LDI R30 , LOW ( 0x43160000 )
001aed e0f0     +LDI R31 , HIGH ( 0x43160000 )
001aee e166     +LDI R22 , BYTE3 ( 0x43160000 )
001aef e473     +LDI R23 , BYTE4 ( 0x43160000 )
                 	__GETD1N 0x43160000
001af0 940e 33aa 	CALL __CMPF12
001af2 f010      	BRLO PC+3
001af3 940c 1b16 	JMP _0xC0112
001af5 01f8      	MOVW R30,R16
001af6 e2a9      	LDI  R26,LOW(_mes_data)
001af7 e6bb      	LDI  R27,HIGH(_mes_data)
001af8 940e 3196 	CALL __LSLW2
001afa 0fae      	ADD  R26,R30
001afb 1fbf      	ADC  R27,R31
                +
001afc 91ed     +LD R30 , X +
001afd 91fd     +LD R31 , X +
001afe 916d     +LD R22 , X +
001aff 917d     +LD R23 , X +
                 	__GETD1P_INC
001b00 01df      	MOVW R26,R30
001b01 01cb      	MOVW R24,R22
                +
001b02 e0e0     +LDI R30 , LOW ( 0xC2A00000 )
001b03 e0f0     +LDI R31 , HIGH ( 0xC2A00000 )
001b04 ea60     +LDI R22 , BYTE3 ( 0xC2A00000 )
001b05 ec72     +LDI R23 , BYTE4 ( 0xC2A00000 )
                 	__GETD1N 0xC2A00000
001b06 940e 33aa 	CALL __CMPF12
001b08 f009      	BREQ PC+2
001b09 f410      	BRCC PC+3
001b0a 940c 1b16 	JMP  _0xC0112
001b0c eda1      	LDI  R26,LOW(_ch_stat)
001b0d e6bb      	LDI  R27,HIGH(_ch_stat)
001b0e 0fa0      	ADD  R26,R16
001b0f 1fb1      	ADC  R27,R17
001b10 91ec      	LD   R30,X
001b11 70e1      	ANDI R30,LOW(0x1)
001b12 f011      	BREQ PC+3
001b13 940c 1b16 	JMP _0xC0112
001b15 c001      	RJMP _0xC0113
                 _0xC0112:
001b16 c001      	RJMP _0xC0111
                 _0xC0113:
                 ; 0006 05D7 } else {
001b17 c052      	RJMP _0xC0114
                 _0xC0111:
                 ; 0006 05D8 temp_ch = NOIOCH ;                         /* used if no temp */
                +
001b18 e00e     +LDI R16 , LOW ( 14 )
001b19 e010     +LDI R17 , HIGH ( 14 )
                 	__GETWRN 16,17,14
                 ; 0006 05D9 for ( i = 0; i < NOIOCH; i++ ) {
                +
001b1a e020     +LDI R18 , LOW ( 0 )
001b1b e030     +LDI R19 , HIGH ( 0 )
                 	__GETWRN 18,19,0
                 _0xC0116:
                +
001b1c 302e     +CPI R18 , LOW ( 14 )
001b1d e0e0     +LDI R30 , HIGH ( 14 )
001b1e 073e     +CPC R19 , R30
                 	__CPWRN 18,19,14
001b1f f010      	BRLO PC+3
001b20 940c 1b6a 	JMP _0xC0117
                 ; 0006 05DA if ( (ch_stat[i] & 0x0c) == 0x04 ) {  /* temp ? */
001b22 eda1      	LDI  R26,LOW(_ch_stat)
001b23 e6bb      	LDI  R27,HIGH(_ch_stat)
001b24 0fa2      	ADD  R26,R18
001b25 1fb3      	ADC  R27,R19
001b26 91ec      	LD   R30,X
001b27 70ec      	ANDI R30,LOW(0xC)
001b28 30e4      	CPI  R30,LOW(0x4)
001b29 f011      	BREQ PC+3
001b2a 940c 1b67 	JMP _0xC0118
                 ; 0006 05DB if ( (mes_data[i] < 150.0) &&         /* to high or */
                 ; 0006 05DC (mes_data[i] > -80.0) &&     /* to low temp or */
                 ; 0006 05DD !(ch_stat[i] & 0x01) ) {         /* convertion error */
001b2c 01f9      	MOVW R30,R18
001b2d e2a9      	LDI  R26,LOW(_mes_data)
001b2e e6bb      	LDI  R27,HIGH(_mes_data)
001b2f 940e 3196 	CALL __LSLW2
001b31 0fae      	ADD  R26,R30
001b32 1fbf      	ADC  R27,R31
                +
001b33 91ed     +LD R30 , X +
001b34 91fd     +LD R31 , X +
001b35 916d     +LD R22 , X +
001b36 917d     +LD R23 , X +
                 	__GETD1P_INC
001b37 01df      	MOVW R26,R30
001b38 01cb      	MOVW R24,R22
                +
001b39 e0e0     +LDI R30 , LOW ( 0x43160000 )
001b3a e0f0     +LDI R31 , HIGH ( 0x43160000 )
001b3b e166     +LDI R22 , BYTE3 ( 0x43160000 )
001b3c e473     +LDI R23 , BYTE4 ( 0x43160000 )
                 	__GETD1N 0x43160000
001b3d 940e 33aa 	CALL __CMPF12
001b3f f010      	BRLO PC+3
001b40 940c 1b63 	JMP _0xC011A
001b42 01f9      	MOVW R30,R18
001b43 e2a9      	LDI  R26,LOW(_mes_data)
001b44 e6bb      	LDI  R27,HIGH(_mes_data)
001b45 940e 3196 	CALL __LSLW2
001b47 0fae      	ADD  R26,R30
001b48 1fbf      	ADC  R27,R31
                +
001b49 91ed     +LD R30 , X +
001b4a 91fd     +LD R31 , X +
001b4b 916d     +LD R22 , X +
001b4c 917d     +LD R23 , X +
                 	__GETD1P_INC
001b4d 01df      	MOVW R26,R30
001b4e 01cb      	MOVW R24,R22
                +
001b4f e0e0     +LDI R30 , LOW ( 0xC2A00000 )
001b50 e0f0     +LDI R31 , HIGH ( 0xC2A00000 )
001b51 ea60     +LDI R22 , BYTE3 ( 0xC2A00000 )
001b52 ec72     +LDI R23 , BYTE4 ( 0xC2A00000 )
                 	__GETD1N 0xC2A00000
001b53 940e 33aa 	CALL __CMPF12
001b55 f009      	BREQ PC+2
001b56 f410      	BRCC PC+3
001b57 940c 1b63 	JMP  _0xC011A
001b59 eda1      	LDI  R26,LOW(_ch_stat)
001b5a e6bb      	LDI  R27,HIGH(_ch_stat)
001b5b 0fa2      	ADD  R26,R18
001b5c 1fb3      	ADC  R27,R19
001b5d 91ec      	LD   R30,X
001b5e 70e1      	ANDI R30,LOW(0x1)
001b5f f011      	BREQ PC+3
001b60 940c 1b63 	JMP _0xC011A
001b62 c001      	RJMP _0xC011B
                 _0xC011A:
001b63 c003      	RJMP _0xC0119
                 _0xC011B:
                 ; 0006 05DE temp_ch = i ;
001b64 0189      	MOVW R16,R18
                 ; 0006 05DF i = NOIOCH ;                               /* exit */
                +
001b65 e02e     +LDI R18 , LOW ( 14 )
001b66 e030     +LDI R19 , HIGH ( 14 )
                 	__GETWRN 18,19,14
                 ; 0006 05E0 }
                 ; 0006 05E1 }
                 _0xC0119:
                 ; 0006 05E2 }
                 _0xC0118:
                 _0xC0115:
                +
001b67 5f2f     +SUBI R18 , LOW ( - 1 )
001b68 4f3f     +SBCI R19 , HIGH ( - 1 )
                 	__ADDWRN 18,19,1
001b69 cfb2      	RJMP _0xC0116
                 _0xC0117:
                 ; 0006 05E3 }
                 _0xC0114:
                 ; 0006 05E4 
                 ; 0006 05E5 return temp_ch ;
001b6a 01f8      	MOVW R30,R16
001b6b 940e 3158 	CALL __LOADLOCR6
001b6d 9626      	ADIW R28,6
001b6e 9508      	RET
                 ; 0006 05E6 }
                 ; .FEND
                 ;void ResetRxPointer(void)
                 ; 0006 05EE {
                 _ResetRxPointer:
                 ; .FSTART _ResetRxPointer
                 ; 0006 05EF 
                 ; 0006 05F0 rx_indx = 1 ;
001b6f e0e1      	LDI  R30,LOW(1)
001b70 93e0 6994 	STS  _rx_indx,R30
                 ; 0006 05F1 rx_hndx = 0 ;
001b72 e0e0      	LDI  R30,LOW(0)
001b73 93e0 6995 	STS  _rx_hndx,R30
                 ; 0006 05F2 rx_start = 0 ;
001b75 93e0 6996 	STS  _rx_start,R30
                 ; 0006 05F3 rx_buff[0] = 0 ;
001b77 93e0 68c8 	STS  _rx_buff,R30
                 ; 0006 05F4 rx_buff[1] = 0 ;
                +
001b79 93e0 68c9+STS _rx_buff + ( 1 ) , R30
                 	__PUTB1MN _rx_buff,1
                 ; 0006 05F5 rx_buff[2] = 0 ;
                +
001b7b 93e0 68ca+STS _rx_buff + ( 2 ) , R30
                 	__PUTB1MN _rx_buff,2
                 ; 0006 05F6 rx_state = SYNC ;                   /* error in pack len */
001b7d 93e0 6beb 	STS  _rx_state,R30
                 ; 0006 05F7 rx_timeout = OFF ;                 /* timeout on channel */
001b7f 93e0 6999 	STS  _rx_timeout,R30
                 ; 0006 05F8 }
001b81 9508      	RET
                 ; .FEND
                 ;int CalcRxChecksum(void)
                 ; 0006 0600 {
                 _CalcRxChecksum:
                 ; .FSTART _CalcRxChecksum
                 ; 0006 0601 
                 ; 0006 0602 int             cnt ;
                 ; 0006 0603 unsigned char   csum ;
                 ; 0006 0604 
                 ; 0006 0605 csum = 0 ;
001b82 940e 3153 	CALL __SAVELOCR4
                 ;	cnt -> R16,R17
                 ;	csum -> R19
001b84 e030      	LDI  R19,LOW(0)
                 ; 0006 0606 for ( cnt=rx_start ; cnt < (rx_start+rx_packlen-2) ; cnt++ ) {
001b85 9100 6996 	LDS  R16,_rx_start
001b87 2711      	CLR  R17
                 _0xC011D:
001b88 91a0 6996 	LDS  R26,_rx_start
001b8a 27bb      	CLR  R27
001b8b 91e0 6998 	LDS  R30,_rx_packlen
001b8d e0f0      	LDI  R31,0
001b8e 0fae      	ADD  R26,R30
001b8f 1fbf      	ADC  R27,R31
001b90 e0e2      	LDI  R30,LOW(2)
001b91 e0f0      	LDI  R31,HIGH(2)
001b92 940e 31f3 	CALL __SWAPW12
001b94 1bea      	SUB  R30,R26
001b95 0bfb      	SBC  R31,R27
001b96 170e      	CP   R16,R30
001b97 071f      	CPC  R17,R31
001b98 f014      	BRLT PC+3
001b99 940c 1bab 	JMP _0xC011E
                 ; 0006 0607 csum = crc[csum ^ rx_buff[cnt]] ;
001b9b 2e03      	MOV  R0,R19
001b9c 2411      	CLR  R1
001b9d eca8      	LDI  R26,LOW(_rx_buff)
001b9e e6b8      	LDI  R27,HIGH(_rx_buff)
001b9f 0fa0      	ADD  R26,R16
001ba0 1fb1      	ADC  R27,R17
001ba1 91ec      	LD   R30,X
001ba2 e0f0      	LDI  R31,0
001ba3 25e0      	EOR  R30,R0
001ba4 25f1      	EOR  R31,R1
001ba5 5fec      	SUBI R30,LOW(-_crc*2)
001ba6 4ffe      	SBCI R31,HIGH(-_crc*2)
001ba7 9134      	LPM  R19,Z
                 ; 0006 0608 }
                 _0xC011C:
                +
001ba8 5f0f     +SUBI R16 , LOW ( - 1 )
001ba9 4f1f     +SBCI R17 , HIGH ( - 1 )
                 	__ADDWRN 16,17,1
001baa cfdd      	RJMP _0xC011D
                 _0xC011E:
                 ; 0006 0609 if ( csum == (rx_buff[rx_start + rx_packlen - 2]) ) {
001bab 91a0 6996 	LDS  R26,_rx_start
001bad 27bb      	CLR  R27
001bae 91e0 6998 	LDS  R30,_rx_packlen
001bb0 e0f0      	LDI  R31,0
001bb1 0fae      	ADD  R26,R30
001bb2 1fbf      	ADC  R27,R31
001bb3 e0e2      	LDI  R30,LOW(2)
001bb4 e0f0      	LDI  R31,HIGH(2)
001bb5 940e 31f3 	CALL __SWAPW12
001bb7 1bea      	SUB  R30,R26
001bb8 0bfb      	SBC  R31,R27
001bb9 53e8      	SUBI R30,LOW(-_rx_buff)
001bba 49f7      	SBCI R31,HIGH(-_rx_buff)
001bbb 81e0      	LD   R30,Z
001bbc 17e3      	CP   R30,R19
001bbd f011      	BREQ PC+3
001bbe 940c 1bc6 	JMP _0xC011F
                 ; 0006 060A return TRUE ;
001bc0 e0e1      	LDI  R30,LOW(1)
001bc1 e0f0      	LDI  R31,HIGH(1)
001bc2 940e 315a 	CALL __LOADLOCR4
001bc4 9624      	ADIW R28,4
001bc5 9508      	RET
                 ; 0006 060B } else {
                 _0xC011F:
                 ; 0006 060C return FALSE ;
001bc6 e0e0      	LDI  R30,LOW(0)
001bc7 e0f0      	LDI  R31,HIGH(0)
001bc8 940e 315a 	CALL __LOADLOCR4
001bca 9624      	ADIW R28,4
001bcb 9508      	RET
                 ; 0006 060D }
                 _0xC0120:
                 ; 0006 060E }
001bcc 940e 315a 	CALL __LOADLOCR4
001bce 9624      	ADIW R28,4
001bcf 9508      	RET
                 ; .FEND
                 ;void HandleRxPacket(void)
                 ; 0006 0617 {
                 _HandleRxPacket:
                 ; .FSTART _HandleRxPacket
                 ; 0006 0618 short     pointer, ndb, more ;
                 ; 0006 0619 
                 ; 0006 061A Led(1, ON) ;
001bd0 940e 3151 	CALL __SAVELOCR6
                 ;	pointer -> R16,R17
                 ;	ndb -> R18,R19
                 ;	more -> R20,R21
001bd2 e0e1      	LDI  R30,LOW(1)
001bd3 93ea      	ST   -Y,R30
001bd4 e0a1      	LDI  R26,LOW(1)
001bd5 940e 066e 	CALL _Led
                 ; 0006 061B sendtail = FALSE ;
001bd7 e0e0      	LDI  R30,LOW(0)
001bd8 93e0 6bed 	STS  _sendtail,R30
                 ; 0006 061C more    = TRUE ;
                +
001bda e041     +LDI R20 , LOW ( 1 )
001bdb e050     +LDI R21 , HIGH ( 1 )
                 	__GETWRN 20,21,1
                 ; 0006 061D pointer = 0 ;
                +
001bdc e000     +LDI R16 , LOW ( 0 )
001bdd e010     +LDI R17 , HIGH ( 0 )
                 	__GETWRN 16,17,0
                 ; 0006 061E ndb = 2 ;                                           /* point to first command */
                +
001bde e022     +LDI R18 , LOW ( 2 )
001bdf e030     +LDI R19 , HIGH ( 2 )
                 	__GETWRN 18,19,2
                 ; 0006 061F pointer = rx_start;                             /* Point to  command */
001be0 9100 6996 	LDS  R16,_rx_start
001be2 2711      	CLR  R17
                 ; 0006 0620 while ( more && (pointer < (rx_packlen + rx_start)) ) {
                 _0xC0121:
001be3 2e04      	MOV  R0,R20
001be4 2a05      	OR   R0,R21
001be5 f411      	BRNE PC+3
001be6 940c 1bf6 	JMP _0xC0124
001be8 91a0 6998 	LDS  R26,_rx_packlen
001bea 27bb      	CLR  R27
001beb 91e0 6996 	LDS  R30,_rx_start
001bed e0f0      	LDI  R31,0
001bee 0fea      	ADD  R30,R26
001bef 1ffb      	ADC  R31,R27
001bf0 170e      	CP   R16,R30
001bf1 071f      	CPC  R17,R31
001bf2 f010      	BRLO PC+3
001bf3 940c 1bf6 	JMP _0xC0124
001bf5 c001      	RJMP _0xC0125
                 _0xC0124:
001bf6 c013      	RJMP _0xC0123
                 _0xC0125:
                 ; 0006 0621 pointer = pointer + ndb + 2;                /* Point to  command */
001bf7 01f9      	MOVW R30,R18
001bf8 0fe0      	ADD  R30,R16
001bf9 1ff1      	ADC  R31,R17
001bfa 9632      	ADIW R30,2
001bfb 018f      	MOVW R16,R30
                 ; 0006 0622 ndb = rx_buff[pointer+1]    ;               /* Save pointer to next command */
                +
001bfc 53e7     +SUBI R30 , LOW ( - _rx_buff - ( 1 ) )
001bfd 49f7     +SBCI R31 , HIGH ( - _rx_buff - ( 1 ) )
                 	__ADDW1MN _rx_buff,1
001bfe 8120      	LD   R18,Z
001bff 2733      	CLR  R19
                 ; 0006 0623 if ( !CheckAction(pointer) ) {
001c00 01d8      	MOVW R26,R16
001c01 940e 1db4 	CALL _CheckAction
001c03 9730      	SBIW R30,0
001c04 f011      	BREQ PC+3
001c05 940c 1c09 	JMP _0xC0126
                 ; 0006 0624 more = FALSE ;                              /* terminate while  */
                +
001c07 e040     +LDI R20 , LOW ( 0 )
001c08 e050     +LDI R21 , HIGH ( 0 )
                 	__GETWRN 20,21,0
                 ; 0006 0625 }
                 ; 0006 0626 }
                 _0xC0126:
001c09 cfd9      	RJMP _0xC0121
                 _0xC0123:
                 ; 0006 0627 Led(1, OFF) ;
001c0a e0e1      	LDI  R30,LOW(1)
001c0b 93ea      	ST   -Y,R30
001c0c e0a0      	LDI  R26,LOW(0)
001c0d 940e 066e 	CALL _Led
                 ; 0006 0628 }
001c0f 940e 3158 	CALL __LOADLOCR6
001c11 9626      	ADIW R28,6
001c12 9508      	RET
                 ; .FEND
                 ;int ReceiveRxPacket(void)
                 ; 0006 0630 {
                 _ReceiveRxPacket:
                 ; .FSTART _ReceiveRxPacket
                 ; 0006 0631 //    int   ret_val, cnt, new_sync ;
                 ; 0006 0632 int   ret_val ;
                 ; 0006 0633 
                 ; 0006 0634 ret_val = FALSE ;
001c13 931a      	ST   -Y,R17
001c14 930a      	ST   -Y,R16
                 ;	ret_val -> R16,R17
                +
001c15 e000     +LDI R16 , LOW ( 0 )
001c16 e010     +LDI R17 , HIGH ( 0 )
                 	__GETWRN 16,17,0
                 ; 0006 0635 rx_timeout = RX_TO_TIME ;               /* timeout on channel */
001c17 eee8      	LDI  R30,LOW(232)
001c18 93e0 6999 	STS  _rx_timeout,R30
                 ; 0006 0636 while ( rx_indx > rx_hndx )
                 _0xC0127:
001c1a 91e0 6995 	LDS  R30,_rx_hndx
001c1c 91a0 6994 	LDS  R26,_rx_indx
001c1e 17ea      	CP   R30,R26
001c1f f010      	BRLO PC+3
001c20 940c 1cdb 	JMP _0xC0129
                 ; 0006 0637 {                     /* more char to check */
                 ; 0006 0638 switch ( rx_state )
001c22 91e0 6beb 	LDS  R30,_rx_state
001c24 e0f0      	LDI  R31,0
                 ; 0006 0639 {                     /* check state */
                 ; 0006 063A case SYNC :
001c25 9730      	SBIW R30,0
001c26 f011      	BREQ PC+3
001c27 940c 1c2a 	JMP _0xC012D
                 ; 0006 063B // all functionallity moved to inerrupt routine for receive
                 ; 0006 063C // on version 10
                 ; 0006 063D break ;
001c29 c0a5      	RJMP _0xC012C
                 ; 0006 063E case HEADER :
                 _0xC012D:
001c2a 30e1      	CPI  R30,LOW(0x1)
001c2b e0a0      	LDI  R26,HIGH(0x1)
001c2c 07fa      	CPC  R31,R26
001c2d f011      	BREQ PC+3
001c2e 940c 1c7c 	JMP _0xC012E
                 ; 0006 063F if ( (rx_hndx-rx_start) >= 3 )
001c30 91a0 6995 	LDS  R26,_rx_hndx
001c32 27bb      	CLR  R27
001c33 91e0 6996 	LDS  R30,_rx_start
001c35 e0f0      	LDI  R31,0
001c36 1bae      	SUB  R26,R30
001c37 0bbf      	SBC  R27,R31
001c38 9713      	SBIW R26,3
001c39 f414      	BRGE PC+3
001c3a 940c 1c7b 	JMP _0xC012F
                 ; 0006 0640 {             /* rec. header */
                 ; 0006 0641 rx_packlen = ((rx_buff[rx_start+2] * 256) + rx_buff[rx_start+3] ) ;             /* calc. pack.len */
001c3c 91e0 6996 	LDS  R30,_rx_start
001c3e e0f0      	LDI  R31,0
                +
001c3f 53e6     +SUBI R30 , LOW ( - _rx_buff - ( 2 ) )
001c40 49f7     +SBCI R31 , HIGH ( - _rx_buff - ( 2 ) )
                 	__ADDW1MN _rx_buff,2
001c41 81e0      	LD   R30,Z
001c42 91e0 6996 	LDS  R30,_rx_start
001c44 e0f0      	LDI  R31,0
                +
001c45 53e5     +SUBI R30 , LOW ( - _rx_buff - ( 3 ) )
001c46 49f7     +SBCI R31 , HIGH ( - _rx_buff - ( 3 ) )
                 	__ADDW1MN _rx_buff,3
001c47 81e0      	LD   R30,Z
001c48 93e0 6998 	STS  _rx_packlen,R30
                 ; 0006 0642 if ( (rx_packlen < ((short) RX_SIZE-rx_hndx)) &&    /* chk. header */
                 ; 0006 0643 (rx_packlen >= MIN_PACK_LEN) &&
                 ; 0006 0644 (rx_buff[rx_start+1] != 0xff) )
001c4a 91e0 6995 	LDS  R30,_rx_hndx
001c4c e0f0      	LDI  R31,0
001c4d eca8      	LDI  R26,LOW(200)
001c4e e0b0      	LDI  R27,HIGH(200)
001c4f 940e 31f3 	CALL __SWAPW12
001c51 1bea      	SUB  R30,R26
001c52 0bfb      	SBC  R31,R27
001c53 91a0 6998 	LDS  R26,_rx_packlen
001c55 e0b0      	LDI  R27,0
001c56 17ae      	CP   R26,R30
001c57 07bf      	CPC  R27,R31
001c58 f014      	BRLT PC+3
001c59 940c 1c6c 	JMP _0xC0131
001c5b 91a0 6998 	LDS  R26,_rx_packlen
001c5d 30a5      	CPI  R26,LOW(0x5)
001c5e f410      	BRSH PC+3
001c5f 940c 1c6c 	JMP _0xC0131
001c61 91e0 6996 	LDS  R30,_rx_start
001c63 e0f0      	LDI  R31,0
                +
001c64 53e7     +SUBI R30 , LOW ( - _rx_buff - ( 1 ) )
001c65 49f7     +SBCI R31 , HIGH ( - _rx_buff - ( 1 ) )
                 	__ADDW1MN _rx_buff,1
001c66 81a0      	LD   R26,Z
001c67 3faf      	CPI  R26,LOW(0xFF)
001c68 f411      	BRNE PC+3
001c69 940c 1c6c 	JMP _0xC0131
001c6b c001      	RJMP _0xC0132
                 _0xC0131:
001c6c c00c      	RJMP _0xC0130
                 _0xC0132:
                 ; 0006 0645 {
                 ; 0006 0646 rx_state = RECEIVE ;                    /* header ok */
001c6d e0e2      	LDI  R30,LOW(2)
001c6e 93e0 6beb 	STS  _rx_state,R30
                 ; 0006 0647 rx_counter = rx_hndx - rx_start + 1 ;
001c70 91a0 6996 	LDS  R26,_rx_start
001c72 91e0 6995 	LDS  R30,_rx_hndx
001c74 1bea      	SUB  R30,R26
001c75 5fef      	SUBI R30,-LOW(1)
001c76 93e0 6997 	STS  _rx_counter,R30
                 ; 0006 0648 } else
001c78 c002      	RJMP _0xC0133
                 _0xC0130:
                 ; 0006 0649 {
                 ; 0006 064A ResetRxPointer() ;
001c79 940e 1b6f 	CALL _ResetRxPointer
                 ; 0006 064B }
                 _0xC0133:
                 ; 0006 064C }
                 ; 0006 064D break ;
                 _0xC012F:
001c7b c053      	RJMP _0xC012C
                 ; 0006 064E case RECEIVE :
                 _0xC012E:
001c7c 30e2      	CPI  R30,LOW(0x2)
001c7d e0a0      	LDI  R26,HIGH(0x2)
001c7e 07fa      	CPC  R31,R26
001c7f f011      	BREQ PC+3
001c80 940c 1ccd 	JMP _0xC013D
                 ; 0006 064F if ( ++rx_counter >= rx_packlen ) {
001c82 91a0 6997 	LDS  R26,_rx_counter
001c84 5faf      	SUBI R26,-LOW(1)
001c85 93a0 6997 	STS  _rx_counter,R26
001c87 91e0 6998 	LDS  R30,_rx_packlen
001c89 17ae      	CP   R26,R30
001c8a f410      	BRSH PC+3
001c8b 940c 1ccc 	JMP _0xC0135
                 ; 0006 0650 if ( (rx_buff[rx_packlen + rx_start-1]) == ETX ) {
001c8d 91a0 6998 	LDS  R26,_rx_packlen
001c8f 27bb      	CLR  R27
001c90 91e0 6996 	LDS  R30,_rx_start
001c92 e0f0      	LDI  R31,0
001c93 0fae      	ADD  R26,R30
001c94 1fbf      	ADC  R27,R31
001c95 e0e1      	LDI  R30,LOW(1)
001c96 e0f0      	LDI  R31,HIGH(1)
001c97 940e 31f3 	CALL __SWAPW12
001c99 1bea      	SUB  R30,R26
001c9a 0bfb      	SBC  R31,R27
001c9b 53e8      	SUBI R30,LOW(-_rx_buff)
001c9c 49f7      	SBCI R31,HIGH(-_rx_buff)
001c9d 81a0      	LD   R26,Z
001c9e 30a3      	CPI  R26,LOW(0x3)
001c9f f011      	BREQ PC+3
001ca0 940c 1ccc 	JMP _0xC0136
                 ; 0006 0651 if ( CalcRxChecksum() )
001ca2 940e 1b82 	CALL _CalcRxChecksum
001ca4 9730      	SBIW R30,0
001ca5 f411      	BRNE PC+3
001ca6 940c 1cca 	JMP _0xC0137
                 ; 0006 0652 {
                 ; 0006 0653 if ( rx_buff[rx_start + 1] < PC_START_ADDRESS )
001ca8 91e0 6996 	LDS  R30,_rx_start
001caa e0f0      	LDI  R31,0
                +
001cab 53e7     +SUBI R30 , LOW ( - _rx_buff - ( 1 ) )
001cac 49f7     +SBCI R31 , HIGH ( - _rx_buff - ( 1 ) )
                 	__ADDW1MN _rx_buff,1
001cad 81a0      	LD   R26,Z
001cae 3fa0      	CPI  R26,LOW(0xF0)
001caf f010      	BRLO PC+3
001cb0 940c 1cb2 	JMP _0xC0138
                 ; 0006 0654 {
                 ; 0006 0655 }
                 ; 0006 0656 if ( (rx_buff[rx_start] == MYADRESS_LOCAL)||
                 _0xC0138:
                 ; 0006 0657 (rx_buff[rx_start] == 0) )
001cb2 91e0 6996 	LDS  R30,_rx_start
001cb4 e0f0      	LDI  R31,0
001cb5 53e8      	SUBI R30,LOW(-_rx_buff)
001cb6 49f7      	SBCI R31,HIGH(-_rx_buff)
001cb7 81a0      	LD   R26,Z
001cb8 30a9      	CPI  R26,LOW(0x9)
001cb9 f411      	BRNE PC+3
001cba 940c 1cc7 	JMP _0xC013A
001cbc 91e0 6996 	LDS  R30,_rx_start
001cbe e0f0      	LDI  R31,0
001cbf 53e8      	SUBI R30,LOW(-_rx_buff)
001cc0 49f7      	SBCI R31,HIGH(-_rx_buff)
001cc1 81a0      	LD   R26,Z
001cc2 30a0      	CPI  R26,LOW(0x0)
001cc3 f411      	BRNE PC+3
001cc4 940c 1cc7 	JMP _0xC013A
001cc6 c002      	RJMP _0xC0139
                 _0xC013A:
                 ; 0006 0658 {        /* don't use address*/
                 ; 0006 0659 ret_val = TRUE ;
                +
001cc7 e001     +LDI R16 , LOW ( 1 )
001cc8 e010     +LDI R17 , HIGH ( 1 )
                 	__GETWRN 16,17,1
                 ; 0006 065A }
                 ; 0006 065B }
                 _0xC0139:
                 ; 0006 065C else
001cc9 c002      	RJMP _0xC013C
                 _0xC0137:
                 ; 0006 065D {
                 ; 0006 065E ResetRxPointer() ;              /* reset pointer */
001cca 940e 1b6f 	CALL _ResetRxPointer
                 ; 0006 065F }
                 _0xC013C:
                 ; 0006 0660 }
                 ; 0006 0661 }
                 _0xC0136:
                 ; 0006 0662 break ;
                 _0xC0135:
001ccc c002      	RJMP _0xC012C
                 ; 0006 0663 default :
                 _0xC013D:
                 ; 0006 0664 ResetRxPointer() ;                          /* reset pointer */
001ccd 940e 1b6f 	CALL _ResetRxPointer
                 ; 0006 0665 break ;
                 ; 0006 0666 }                                                       /* end switch */
                 _0xC012C:
                 ; 0006 0667 if ( ++rx_hndx >= RX_SIZE ) {                 /* check pointer */
001ccf 91a0 6995 	LDS  R26,_rx_hndx
001cd1 5faf      	SUBI R26,-LOW(1)
001cd2 93a0 6995 	STS  _rx_hndx,R26
001cd4 3ca8      	CPI  R26,LOW(0xC8)
001cd5 f410      	BRSH PC+3
001cd6 940c 1cda 	JMP _0xC013E
                 ; 0006 0668 ResetRxPointer() ;                          /* reset pointer */
001cd8 940e 1b6f 	CALL _ResetRxPointer
                 ; 0006 0669 }
                 ; 0006 066A }                                                           /* end while.. */
                 _0xC013E:
001cda cf3f      	RJMP _0xC0127
                 _0xC0129:
                 ; 0006 066B return ret_val ;
001cdb 01f8      	MOVW R30,R16
001cdc 9109      	LD   R16,Y+
001cdd 9119      	LD   R17,Y+
001cde 9508      	RET
                 ; 0006 066C }
                 ; .FEND
                 ;void     ResetADCBySW(void)
                 ; 0006 066F {   spi1_master_tx_rx (0xFF);
                 _ResetADCBySW:
                 ; .FSTART _ResetADCBySW
001cdf efaf      	LDI  R26,LOW(255)
001ce0 940e 0576 	CALL _spi1_master_tx_rx
                 ; 0006 0670 spi1_master_tx_rx (0xFF);
001ce2 efaf      	LDI  R26,LOW(255)
001ce3 940e 0576 	CALL _spi1_master_tx_rx
                 ; 0006 0671 spi1_master_tx_rx (0xFF);
001ce5 efaf      	LDI  R26,LOW(255)
001ce6 940e 0576 	CALL _spi1_master_tx_rx
                 ; 0006 0672 spi1_master_tx_rx (0xFF);
001ce8 efaf      	LDI  R26,LOW(255)
001ce9 940e 0576 	CALL _spi1_master_tx_rx
                 ; 0006 0673 
                 ; 0006 0674 }
001ceb 9508      	RET
                 ; .FEND
                 ;void     ResetADCByHW(void)
                 ; 0006 0676 {   ADC_CS_LOW;
                 _ResetADCByHW:
                 ; .FSTART _ResetADCByHW
001cec e0e8      	LDI  R30,LOW(8)
001ced 93e0 0446 	STS  1094,R30
                 ; 0006 0677 delay_us(50);
                +
001cef e483     +LDI R24 , LOW ( 67 )
                +__DELAY_USB_LOOP :
001cf0 958a     +DEC R24
001cf1 f7f1     +BRNE __DELAY_USB_LOOP
                 	__DELAY_USB 67
                 ; 0006 0678 ADC_RST_LOW;
001cf2 e2e0      	LDI  R30,LOW(32)
001cf3 93e0 04a6 	STS  1190,R30
                 ; 0006 0679 delay_ms(10);
001cf5 e0aa      	LDI  R26,LOW(10)
001cf6 e0b0      	LDI  R27,0
001cf7 940e 33ca 	CALL _delay_ms
                 ; 0006 067A ADC_RST_HIGH;
001cf9 e2e0      	LDI  R30,LOW(32)
001cfa 93e0 04a5 	STS  1189,R30
                 ; 0006 067B //ADC_CS_HIGH;
                 ; 0006 067C delay_us(50);
                +
001cfc e483     +LDI R24 , LOW ( 67 )
                +__DELAY_USB_LOOP :
001cfd 958a     +DEC R24
001cfe f7f1     +BRNE __DELAY_USB_LOOP
                 	__DELAY_USB 67
                 ; 0006 067D }
001cff 9508      	RET
                 ; .FEND
                 ;interrupt [(23)  ] void usart0_tx_isr(void)
                 ; 0006 068A {
                 _usart0_tx_isr:
                 ; .FSTART _usart0_tx_isr
001d00 920a      	ST   -Y,R0
001d01 921a      	ST   -Y,R1
001d02 92fa      	ST   -Y,R15
001d03 936a      	ST   -Y,R22
001d04 937a      	ST   -Y,R23
001d05 938a      	ST   -Y,R24
001d06 939a      	ST   -Y,R25
001d07 93aa      	ST   -Y,R26
001d08 93ba      	ST   -Y,R27
001d09 93ea      	ST   -Y,R30
001d0a 93fa      	ST   -Y,R31
001d0b b7ef      	IN   R30,SREG
001d0c 93ea      	ST   -Y,R30
                 ; 0006 068B if ( tx_indx < tx_bytes )         /* More to send ? */
001d0d 91e0 6991 	LDS  R30,_tx_bytes
001d0f 91a0 6990 	LDS  R26,_tx_indx
001d11 17ae      	CP   R26,R30
001d12 f010      	BRLO PC+3
001d13 940c 1d27 	JMP _0xC013F
                 ; 0006 068C {   USART0.TXDATAL = tx_buff[tx_indx++];
001d15 91e0 6990 	LDS  R30,_tx_indx
001d17 5fef      	SUBI R30,-LOW(1)
001d18 93e0 6990 	STS  _tx_indx,R30
001d1a 50e1      	SUBI R30,LOW(1)
001d1b e0f0      	LDI  R31,0
001d1c 50e0      	SUBI R30,LOW(-_tx_buff)
001d1d 49f8      	SBCI R31,HIGH(-_tx_buff)
001d1e 81e0      	LD   R30,Z
001d1f 93e0 0802 	STS  2050,R30
                 ; 0006 068D ad_mode |= 0x01 ;
001d21 91e0 6bcb 	LDS  R30,_ad_mode
001d23 60e1      	ORI  R30,1
001d24 93e0 6bcb 	STS  _ad_mode,R30
                 ; 0006 068E }
                 ; 0006 068F else
001d26 c00c      	RJMP _0xC0140
                 _0xC013F:
                 ; 0006 0690 {   delay_ms(2);// ADD TO FINSIH SENDING
001d27 e0a2      	LDI  R26,LOW(2)
001d28 e0b0      	LDI  R27,0
001d29 940e 33ca 	CALL _delay_ms
                 ; 0006 0691 USART0.CTRLA&= ~USART_DREIE_bm;
001d2b 91e0 0805 	LDS  R30,2053
001d2d 7def      	ANDI R30,0xDF
001d2e 93e0 0805 	STS  2053,R30
                 ; 0006 0692 tx_tail = TXTAIL ;            /* driver on for last char */
001d30 e0e2      	LDI  R30,LOW(2)
001d31 93e0 6992 	STS  _tx_tail,R30
                 ; 0006 0693 }
                 _0xC0140:
                 ; 0006 0694 }
001d33 91e9      	LD   R30,Y+
001d34 bfef      	OUT  SREG,R30
001d35 91f9      	LD   R31,Y+
001d36 91e9      	LD   R30,Y+
001d37 91b9      	LD   R27,Y+
001d38 91a9      	LD   R26,Y+
001d39 9199      	LD   R25,Y+
001d3a 9189      	LD   R24,Y+
001d3b 9179      	LD   R23,Y+
001d3c 9169      	LD   R22,Y+
001d3d 90f9      	LD   R15,Y+
001d3e 9019      	LD   R1,Y+
001d3f 9009      	LD   R0,Y+
001d40 9518      	RETI
                 ; .FEND
                 ;interrupt [(22)  ] void usart0_rx_isr(void)
                 ; 0006 069F {
                 _usart0_rx_isr:
                 ; .FSTART _usart0_rx_isr
001d41 920a      	ST   -Y,R0
001d42 921a      	ST   -Y,R1
001d43 92fa      	ST   -Y,R15
001d44 936a      	ST   -Y,R22
001d45 937a      	ST   -Y,R23
001d46 938a      	ST   -Y,R24
001d47 939a      	ST   -Y,R25
001d48 93aa      	ST   -Y,R26
001d49 93ba      	ST   -Y,R27
001d4a 93ea      	ST   -Y,R30
001d4b 93fa      	ST   -Y,R31
001d4c b7ef      	IN   R30,SREG
001d4d 93ea      	ST   -Y,R30
                 ; 0006 06A0 
                 ; 0006 06A1 char status, bufch;
                 ; 0006 06A2 
                 ; 0006 06A3 status=USART0.RXDATAH;
001d4e 931a      	ST   -Y,R17
001d4f 930a      	ST   -Y,R16
                 ;	status -> R17
                 ;	bufch -> R16
001d50 9110 0801 	LDS  R17,2049
                 ; 0006 06A4 bufch=USART0.RXDATAL;
001d52 9100 0800 	LDS  R16,2048
                 ; 0006 06A5 if ((status & (USART_FERR_bm | USART_PERR_bm | USART_BUFOVF_bm)) == 0)
001d54 2fe1      	MOV  R30,R17
001d55 74e6      	ANDI R30,LOW(0x46)
001d56 f011      	BREQ PC+3
001d57 940c 1da4 	JMP _0xC0141
                 ; 0006 06A6 {    if ( tx_complete )
001d59 91e0 6bec 	LDS  R30,_tx_complete
001d5b 30e0      	CPI  R30,0
001d5c f411      	BRNE PC+3
001d5d 940c 1da4 	JMP _0xC0142
                 ; 0006 06A7 {                      /* ok to receive? */
                 ; 0006 06A8 switch ( rx_state ) {                     /* check state */
001d5f 91e0 6beb 	LDS  R30,_rx_state
001d61 e0f0      	LDI  R31,0
                 ; 0006 06A9 case SYNC :
001d62 9730      	SBIW R30,0
001d63 f011      	BREQ PC+3
001d64 940c 1d92 	JMP _0xC014B
                 ; 0006 06AA if ( bufch == STX )
001d66 3002      	CPI  R16,2
001d67 f011      	BREQ PC+3
001d68 940c 1d70 	JMP _0xC0147
                 ; 0006 06AB {
                 ; 0006 06AC sync_cnt ++ ;               // cont sync
001d6a 91e0 699a 	LDS  R30,_sync_cnt
001d6c 5fef      	SUBI R30,-LOW(1)
001d6d 93e0 699a 	STS  _sync_cnt,R30
                 ; 0006 06AD }
                 ; 0006 06AE else if ( sync_cnt >= 2 )
001d6f c021      	RJMP _0xC0148
                 _0xC0147:
001d70 91a0 699a 	LDS  R26,_sync_cnt
001d72 30a2      	CPI  R26,LOW(0x2)
001d73 f410      	BRSH PC+3
001d74 940c 1d8e 	JMP _0xC0149
                 ; 0006 06AF {
                 ; 0006 06B0 sync_cnt = 0 ;              // reset counter
001d76 e0e0      	LDI  R30,LOW(0)
001d77 93e0 699a 	STS  _sync_cnt,R30
                 ; 0006 06B1 rx_state = HEADER ;
001d79 e0e1      	LDI  R30,LOW(1)
001d7a 93e0 6beb 	STS  _rx_state,R30
                 ; 0006 06B2 rx_indx = 0 ;
001d7c e0e0      	LDI  R30,LOW(0)
001d7d 93e0 6994 	STS  _rx_indx,R30
                 ; 0006 06B3 rx_hndx = 0 ;
001d7f 93e0 6995 	STS  _rx_hndx,R30
                 ; 0006 06B4 rx_start = rx_hndx ;            /* start after the two STX */
001d81 93e0 6996 	STS  _rx_start,R30
                 ; 0006 06B5 rx_buff[rx_indx++] = bufch;
001d83 91e0 6994 	LDS  R30,_rx_indx
001d85 5fef      	SUBI R30,-LOW(1)
001d86 93e0 6994 	STS  _rx_indx,R30
001d88 50e1      	SUBI R30,LOW(1)
001d89 e0f0      	LDI  R31,0
001d8a 53e8      	SUBI R30,LOW(-_rx_buff)
001d8b 49f7      	SBCI R31,HIGH(-_rx_buff)
001d8c 8300      	ST   Z,R16
                 ; 0006 06B6 }
                 ; 0006 06B7 else
001d8d c003      	RJMP _0xC014A
                 _0xC0149:
                 ; 0006 06B8 {
                 ; 0006 06B9 sync_cnt = 0 ;                  // start over once more
001d8e e0e0      	LDI  R30,LOW(0)
001d8f 93e0 699a 	STS  _sync_cnt,R30
                 ; 0006 06BA }
                 _0xC014A:
                 _0xC0148:
                 ; 0006 06BB break;
001d91 c00a      	RJMP _0xC0145
                 ; 0006 06BC default:
                 _0xC014B:
                 ; 0006 06BD rx_buff[rx_indx++] = bufch;
001d92 91e0 6994 	LDS  R30,_rx_indx
001d94 5fef      	SUBI R30,-LOW(1)
001d95 93e0 6994 	STS  _rx_indx,R30
001d97 50e1      	SUBI R30,LOW(1)
001d98 e0f0      	LDI  R31,0
001d99 53e8      	SUBI R30,LOW(-_rx_buff)
001d9a 49f7      	SBCI R31,HIGH(-_rx_buff)
001d9b 8300      	ST   Z,R16
                 ; 0006 06BE break;
                 ; 0006 06BF }
                 _0xC0145:
                 ; 0006 06C0 if ( rx_indx >= RX_SIZE ) {           /* check rx pointer */
001d9c 91a0 6994 	LDS  R26,_rx_indx
001d9e 3ca8      	CPI  R26,LOW(0xC8)
001d9f f410      	BRSH PC+3
001da0 940c 1da4 	JMP _0xC014C
                 ; 0006 06C1 ResetRxPointer() ;              // reset pointer
001da2 940e 1b6f 	CALL _ResetRxPointer
                 ; 0006 06C2 }
                 ; 0006 06C3 }
                 _0xC014C:
                 ; 0006 06C4 }
                 _0xC0142:
                 ; 0006 06C5 }
                 _0xC0141:
001da4 9109      	LD   R16,Y+
001da5 9119      	LD   R17,Y+
001da6 91e9      	LD   R30,Y+
001da7 bfef      	OUT  SREG,R30
001da8 91f9      	LD   R31,Y+
001da9 91e9      	LD   R30,Y+
001daa 91b9      	LD   R27,Y+
001dab 91a9      	LD   R26,Y+
001dac 9199      	LD   R25,Y+
001dad 9189      	LD   R24,Y+
001dae 9179      	LD   R23,Y+
001daf 9169      	LD   R22,Y+
001db0 90f9      	LD   R15,Y+
001db1 9019      	LD   R1,Y+
001db2 9009      	LD   R0,Y+
001db3 9518      	RETI
                 ; .FEND
                 ;unsigned int CheckAction(unsigned int data)
                 ; 0007 002D {
                 
                 	.CSEG
                 _CheckAction:
                 ; .FSTART _CheckAction
                 ; 0007 002E short i, test, ret_val = TRUE ;
                 ; 0007 002F unsigned char d_buff[PACKED_DATA_SIZE] ;
                 ; 0007 0030 unsigned int pointer=data;
                 ; 0007 0031 switch ( rx_buff[pointer] ) {                      /* check action */
001db4 93ba      	ST   -Y,R27
001db5 93aa      	ST   -Y,R26
001db6 97aa      	SBIW R28,42
001db7 940e 3151 	CALL __SAVELOCR6
                 ;	data -> Y+48
                 ;	i -> R16,R17
                 ;	test -> R18,R19
                 ;	ret_val -> R20,R21
                 ;	d_buff -> Y+8
                 ;	pointer -> Y+6
                +
001db9 e041     +LDI R20 , LOW ( 1 )
001dba e050     +LDI R21 , HIGH ( 1 )
                 	__GETWRN 20,21,1
001dbb a9e8      	LDD  R30,Y+48
001dbc a9f9      	LDD  R31,Y+48+1
001dbd 83ee      	STD  Y+6,R30
001dbe 83ff      	STD  Y+6+1,R31
001dbf 53e8      	SUBI R30,LOW(-_rx_buff)
001dc0 49f7      	SBCI R31,HIGH(-_rx_buff)
001dc1 81e0      	LD   R30,Z
001dc2 e0f0      	LDI  R31,0
                 ; 0007 0032 case SEND_M_DATA :
001dc3 30ea      	CPI  R30,LOW(0xA)
001dc4 e0a0      	LDI  R26,HIGH(0xA)
001dc5 07fa      	CPC  R31,R26
001dc6 f011      	BREQ PC+3
001dc7 940c 1e54 	JMP _0xE0006
                 ; 0007 0033 not_mes_data = rx_buff[pointer+2] ;     /* number of transmissions */
001dc9 81ee      	LDD  R30,Y+6
001dca 81ff      	LDD  R31,Y+6+1
                +
001dcb 53e6     +SUBI R30 , LOW ( - _rx_buff - ( 2 ) )
001dcc 49f7     +SBCI R31 , HIGH ( - _rx_buff - ( 2 ) )
                 	__ADDW1MN _rx_buff,2
001dcd 81e0      	LD   R30,Z
001dce 93e0 6bc5 	STS  _not_mes_data,R30
                 ; 0007 0034 not_raw_data = 0 ;
001dd0 e0e0      	LDI  R30,LOW(0)
001dd1 93e0 6bc6 	STS  _not_raw_data,R30
                 ; 0007 0035 not_cal_data = 0 ;
001dd3 93e0 6bc7 	STS  _not_cal_data,R30
                 ; 0007 0036 if ( not_mes_data ) {                         /* check if not 0 and send one */
001dd5 91e0 6bc5 	LDS  R30,_not_mes_data
001dd7 30e0      	CPI  R30,0
001dd8 f411      	BRNE PC+3
001dd9 940c 1dde 	JMP _0xE0007
                 ; 0007 0037 not_mes_data-- ;
001ddb 50e1      	SUBI R30,LOW(1)
001ddc 93e0 6bc5 	STS  _not_mes_data,R30
                 ; 0007 0038 }
                 ; 0007 0039 if ( !sendtail ) {                            /* make header ? */
                 _0xE0007:
001dde 91e0 6bed 	LDS  R30,_sendtail
001de0 30e0      	CPI  R30,0
001de1 f011      	BREQ PC+3
001de2 940c 1deb 	JMP _0xE0008
                 ; 0007 003A BuildHeader() ;                             /* Build send packet header */
001de4 940e 23ab 	CALL _BuildHeader
                 ; 0007 003B sendtail |= MAKE ;              /* build tail*/
001de6 91e0 6bed 	LDS  R30,_sendtail
001de8 60e1      	ORI  R30,1
001de9 93e0 6bed 	STS  _sendtail,R30
                 ; 0007 003C }
                 ; 0007 003D if ( (sendtail & TX_ERR) || ((TX_SIZE - tx_indx) < 10 ) ) {
                 _0xE0008:
001deb 91e0 6bed 	LDS  R30,_sendtail
001ded 70e2      	ANDI R30,LOW(0x2)
001dee f011      	BREQ PC+3
001def 940c 1dfd 	JMP _0xE000A
001df1 91e0 6990 	LDS  R30,_tx_indx
001df3 e0f0      	LDI  R31,0
001df4 eca8      	LDI  R26,LOW(200)
001df5 e0b0      	LDI  R27,HIGH(200)
001df6 1bae      	SUB  R26,R30
001df7 0bbf      	SBC  R27,R31
001df8 971a      	SBIW R26,10
001df9 f414      	BRGE PC+3
001dfa 940c 1dfd 	JMP _0xE000A
001dfc c006      	RJMP _0xE0009
                 _0xE000A:
                 ; 0007 003E sendtail |= TX_ERR ;
001dfd 91e0 6bed 	LDS  R30,_sendtail
001dff 60e2      	ORI  R30,2
001e00 93e0 6bed 	STS  _sendtail,R30
                 ; 0007 003F } else {
001e02 c002      	RJMP _0xE000C
                 _0xE0009:
                 ; 0007 0040 BuildMTData() ;                     /* Build data p. for temp. */
001e03 940e 2485 	CALL _BuildMTData
                 ; 0007 0041 }
                 _0xE000C:
                 ; 0007 0042 if ( (sendtail & TX_ERR) || ((TX_SIZE - tx_indx) < 10 ) ) {
001e05 91e0 6bed 	LDS  R30,_sendtail
001e07 70e2      	ANDI R30,LOW(0x2)
001e08 f011      	BREQ PC+3
001e09 940c 1e17 	JMP _0xE000E
001e0b 91e0 6990 	LDS  R30,_tx_indx
001e0d e0f0      	LDI  R31,0
001e0e eca8      	LDI  R26,LOW(200)
001e0f e0b0      	LDI  R27,HIGH(200)
001e10 1bae      	SUB  R26,R30
001e11 0bbf      	SBC  R27,R31
001e12 971a      	SBIW R26,10
001e13 f414      	BRGE PC+3
001e14 940c 1e17 	JMP _0xE000E
001e16 c006      	RJMP _0xE000D
                 _0xE000E:
                 ; 0007 0043 sendtail |= TX_ERR ;
001e17 91e0 6bed 	LDS  R30,_sendtail
001e19 60e2      	ORI  R30,2
001e1a 93e0 6bed 	STS  _sendtail,R30
                 ; 0007 0044 } else {
001e1c c002      	RJMP _0xE0010
                 _0xE000D:
                 ; 0007 0045 BuildMPData();                          /* Build data p. for pressure */
001e1d 940e 23f3 	CALL _BuildMPData
                 ; 0007 0046 }
                 _0xE0010:
                 ; 0007 0047 if ( (sendtail & TX_ERR) || ((TX_SIZE - tx_indx) < 10 ) ) {
001e1f 91e0 6bed 	LDS  R30,_sendtail
001e21 70e2      	ANDI R30,LOW(0x2)
001e22 f011      	BREQ PC+3
001e23 940c 1e31 	JMP _0xE0012
001e25 91e0 6990 	LDS  R30,_tx_indx
001e27 e0f0      	LDI  R31,0
001e28 eca8      	LDI  R26,LOW(200)
001e29 e0b0      	LDI  R27,HIGH(200)
001e2a 1bae      	SUB  R26,R30
001e2b 0bbf      	SBC  R27,R31
001e2c 971a      	SBIW R26,10
001e2d f414      	BRGE PC+3
001e2e 940c 1e31 	JMP _0xE0012
001e30 c006      	RJMP _0xE0011
                 _0xE0012:
                 ; 0007 0048 sendtail |= TX_ERR ;
001e31 91e0 6bed 	LDS  R30,_sendtail
001e33 60e2      	ORI  R30,2
001e34 93e0 6bed 	STS  _sendtail,R30
                 ; 0007 0049 } else {
001e36 c002      	RJMP _0xE0014
                 _0xE0011:
                 ; 0007 004A BuildMOData() ;                         /* Build data p. for other */
001e37 940e 2517 	CALL _BuildMOData
                 ; 0007 004B }
                 _0xE0014:
                 ; 0007 004C if ( (sendtail & TX_ERR) || ((TX_SIZE - tx_indx) < 10 ) ) {
001e39 91e0 6bed 	LDS  R30,_sendtail
001e3b 70e2      	ANDI R30,LOW(0x2)
001e3c f011      	BREQ PC+3
001e3d 940c 1e4b 	JMP _0xE0016
001e3f 91e0 6990 	LDS  R30,_tx_indx
001e41 e0f0      	LDI  R31,0
001e42 eca8      	LDI  R26,LOW(200)
001e43 e0b0      	LDI  R27,HIGH(200)
001e44 1bae      	SUB  R26,R30
001e45 0bbf      	SBC  R27,R31
001e46 971a      	SBIW R26,10
001e47 f414      	BRGE PC+3
001e48 940c 1e4b 	JMP _0xE0016
001e4a c006      	RJMP _0xE0015
                 _0xE0016:
                 ; 0007 004D sendtail |= TX_ERR ;
001e4b 91e0 6bed 	LDS  R30,_sendtail
001e4d 60e2      	ORI  R30,2
001e4e 93e0 6bed 	STS  _sendtail,R30
                 ; 0007 004E } else {
001e50 c002      	RJMP _0xE0018
                 _0xE0015:
                 ; 0007 004F BuildWHData();                        // Send high level and washtrac
001e51 940e 25a9 	CALL _BuildWHData
                 ; 0007 0050 }
                 _0xE0018:
                 ; 0007 0051 break ;
001e53 c552      	RJMP _0xE0005
                 ; 0007 0052 
                 ; 0007 0053 case SEND_R_DATA :
                 _0xE0006:
001e54 30ed      	CPI  R30,LOW(0xD)
001e55 e0a0      	LDI  R26,HIGH(0xD)
001e56 07fa      	CPC  R31,R26
001e57 f011      	BREQ PC+3
001e58 940c 1ecb 	JMP _0xE0019
                 ; 0007 0054 not_raw_data = rx_buff[pointer+2] ;     /* number of transmissions */
001e5a 81ee      	LDD  R30,Y+6
001e5b 81ff      	LDD  R31,Y+6+1
                +
001e5c 53e6     +SUBI R30 , LOW ( - _rx_buff - ( 2 ) )
001e5d 49f7     +SBCI R31 , HIGH ( - _rx_buff - ( 2 ) )
                 	__ADDW1MN _rx_buff,2
001e5e 81e0      	LD   R30,Z
001e5f 93e0 6bc6 	STS  _not_raw_data,R30
                 ; 0007 0055 not_mes_data = 0 ;
001e61 e0e0      	LDI  R30,LOW(0)
001e62 93e0 6bc5 	STS  _not_mes_data,R30
                 ; 0007 0056 not_cal_data = 0 ;
001e64 93e0 6bc7 	STS  _not_cal_data,R30
                 ; 0007 0057 if ( not_raw_data ) {                         /* check if not 0 and send one */
001e66 91e0 6bc6 	LDS  R30,_not_raw_data
001e68 30e0      	CPI  R30,0
001e69 f411      	BRNE PC+3
001e6a 940c 1e6f 	JMP _0xE001A
                 ; 0007 0058 not_raw_data-- ;
001e6c 50e1      	SUBI R30,LOW(1)
001e6d 93e0 6bc6 	STS  _not_raw_data,R30
                 ; 0007 0059 }
                 ; 0007 005A if ( !sendtail ) {                            /* make header ? */
                 _0xE001A:
001e6f 91e0 6bed 	LDS  R30,_sendtail
001e71 30e0      	CPI  R30,0
001e72 f011      	BREQ PC+3
001e73 940c 1e7c 	JMP _0xE001B
                 ; 0007 005B BuildHeader() ;                             /* Build send packet header */
001e75 940e 23ab 	CALL _BuildHeader
                 ; 0007 005C sendtail |= MAKE ;              /* build tail*/
001e77 91e0 6bed 	LDS  R30,_sendtail
001e79 60e1      	ORI  R30,1
001e7a 93e0 6bed 	STS  _sendtail,R30
                 ; 0007 005D }
                 ; 0007 005E if ( (sendtail & TX_ERR) ||
                 _0xE001B:
                 ; 0007 005F ((TX_SIZE - tx_indx) < 56 ) ) {
001e7c 91e0 6bed 	LDS  R30,_sendtail
001e7e 70e2      	ANDI R30,LOW(0x2)
001e7f f011      	BREQ PC+3
001e80 940c 1e8e 	JMP _0xE001D
001e82 91e0 6990 	LDS  R30,_tx_indx
001e84 e0f0      	LDI  R31,0
001e85 eca8      	LDI  R26,LOW(200)
001e86 e0b0      	LDI  R27,HIGH(200)
001e87 1bae      	SUB  R26,R30
001e88 0bbf      	SBC  R27,R31
001e89 97d8      	SBIW R26,56
001e8a f414      	BRGE PC+3
001e8b 940c 1e8e 	JMP _0xE001D
001e8d c006      	RJMP _0xE001C
                 _0xE001D:
                 ; 0007 0060 sendtail |= TX_ERR ;
001e8e 91e0 6bed 	LDS  R30,_sendtail
001e90 60e2      	ORI  R30,2
001e91 93e0 6bed 	STS  _sendtail,R30
                 ; 0007 0061 } else {
001e93 c002      	RJMP _0xE001F
                 _0xE001C:
                 ; 0007 0062 BuildRTData() ;                         /* Build data p. for temp. */
001e94 940e 26ce 	CALL _BuildRTData
                 ; 0007 0063 }
                 _0xE001F:
                 ; 0007 0064 if ( (sendtail & TX_ERR) ||
                 ; 0007 0065 ((TX_SIZE - tx_indx) < 28 ) ) {
001e96 91e0 6bed 	LDS  R30,_sendtail
001e98 70e2      	ANDI R30,LOW(0x2)
001e99 f011      	BREQ PC+3
001e9a 940c 1ea8 	JMP _0xE0021
001e9c 91e0 6990 	LDS  R30,_tx_indx
001e9e e0f0      	LDI  R31,0
001e9f eca8      	LDI  R26,LOW(200)
001ea0 e0b0      	LDI  R27,HIGH(200)
001ea1 1bae      	SUB  R26,R30
001ea2 0bbf      	SBC  R27,R31
001ea3 975c      	SBIW R26,28
001ea4 f414      	BRGE PC+3
001ea5 940c 1ea8 	JMP _0xE0021
001ea7 c006      	RJMP _0xE0020
                 _0xE0021:
                 ; 0007 0066 sendtail |= TX_ERR ;
001ea8 91e0 6bed 	LDS  R30,_sendtail
001eaa 60e2      	ORI  R30,2
001eab 93e0 6bed 	STS  _sendtail,R30
                 ; 0007 0067 } else {
001ead c002      	RJMP _0xE0023
                 _0xE0020:
                 ; 0007 0068 BuildRPData() ;                             /* Build data p. for pressure */
001eae 940e 264d 	CALL _BuildRPData
                 ; 0007 0069 }
                 _0xE0023:
                 ; 0007 006A if ( (sendtail & TX_ERR) ||
                 ; 0007 006B ((TX_SIZE - tx_indx) < 28 ) ) {
001eb0 91e0 6bed 	LDS  R30,_sendtail
001eb2 70e2      	ANDI R30,LOW(0x2)
001eb3 f011      	BREQ PC+3
001eb4 940c 1ec2 	JMP _0xE0025
001eb6 91e0 6990 	LDS  R30,_tx_indx
001eb8 e0f0      	LDI  R31,0
001eb9 eca8      	LDI  R26,LOW(200)
001eba e0b0      	LDI  R27,HIGH(200)
001ebb 1bae      	SUB  R26,R30
001ebc 0bbf      	SBC  R27,R31
001ebd 975c      	SBIW R26,28
001ebe f414      	BRGE PC+3
001ebf 940c 1ec2 	JMP _0xE0025
001ec1 c006      	RJMP _0xE0024
                 _0xE0025:
                 ; 0007 006C sendtail |= TX_ERR ;
001ec2 91e0 6bed 	LDS  R30,_sendtail
001ec4 60e2      	ORI  R30,2
001ec5 93e0 6bed 	STS  _sendtail,R30
                 ; 0007 006D } else {
001ec7 c002      	RJMP _0xE0027
                 _0xE0024:
                 ; 0007 006E BuildROData() ;                     /* Build data p. for other */
001ec8 940e 274f 	CALL _BuildROData
                 ; 0007 006F }
                 _0xE0027:
                 ; 0007 0070 break ;
001eca c4db      	RJMP _0xE0005
                 ; 0007 0071 case SEND_C_DATA :
                 _0xE0019:
001ecb 31e0      	CPI  R30,LOW(0x10)
001ecc e0a0      	LDI  R26,HIGH(0x10)
001ecd 07fa      	CPC  R31,R26
001ece f011      	BREQ PC+3
001ecf 940c 1f0e 	JMP _0xE0028
                 ; 0007 0072 not_cal_data = rx_buff[pointer+2] ;     /* number of transmissions */
001ed1 81ee      	LDD  R30,Y+6
001ed2 81ff      	LDD  R31,Y+6+1
                +
001ed3 53e6     +SUBI R30 , LOW ( - _rx_buff - ( 2 ) )
001ed4 49f7     +SBCI R31 , HIGH ( - _rx_buff - ( 2 ) )
                 	__ADDW1MN _rx_buff,2
001ed5 81e0      	LD   R30,Z
001ed6 93e0 6bc7 	STS  _not_cal_data,R30
                 ; 0007 0073 not_raw_data = 0 ;
001ed8 e0e0      	LDI  R30,LOW(0)
001ed9 93e0 6bc6 	STS  _not_raw_data,R30
                 ; 0007 0074 not_mes_data = 0 ;
001edb 93e0 6bc5 	STS  _not_mes_data,R30
                 ; 0007 0075 if ( not_cal_data ) {                         /* check if not 0 and send one */
001edd 91e0 6bc7 	LDS  R30,_not_cal_data
001edf 30e0      	CPI  R30,0
001ee0 f411      	BRNE PC+3
001ee1 940c 1ee6 	JMP _0xE0029
                 ; 0007 0076 not_cal_data-- ;
001ee3 50e1      	SUBI R30,LOW(1)
001ee4 93e0 6bc7 	STS  _not_cal_data,R30
                 ; 0007 0077 }
                 ; 0007 0078 if ( !sendtail ) {                            /* make header ? */
                 _0xE0029:
001ee6 91e0 6bed 	LDS  R30,_sendtail
001ee8 30e0      	CPI  R30,0
001ee9 f011      	BREQ PC+3
001eea 940c 1ef3 	JMP _0xE002A
                 ; 0007 0079 BuildHeader() ;                             /* Build send packet header */
001eec 940e 23ab 	CALL _BuildHeader
                 ; 0007 007A sendtail |= MAKE ;              /* build tail*/
001eee 91e0 6bed 	LDS  R30,_sendtail
001ef0 60e1      	ORI  R30,1
001ef1 93e0 6bed 	STS  _sendtail,R30
                 ; 0007 007B }
                 ; 0007 007C if ( (sendtail & TX_ERR) ||
                 _0xE002A:
                 ; 0007 007D ((TX_SIZE - tx_indx) < 56 ) ) {
001ef3 91e0 6bed 	LDS  R30,_sendtail
001ef5 70e2      	ANDI R30,LOW(0x2)
001ef6 f011      	BREQ PC+3
001ef7 940c 1f05 	JMP _0xE002C
001ef9 91e0 6990 	LDS  R30,_tx_indx
001efb e0f0      	LDI  R31,0
001efc eca8      	LDI  R26,LOW(200)
001efd e0b0      	LDI  R27,HIGH(200)
001efe 1bae      	SUB  R26,R30
001eff 0bbf      	SBC  R27,R31
001f00 97d8      	SBIW R26,56
001f01 f414      	BRGE PC+3
001f02 940c 1f05 	JMP _0xE002C
001f04 c006      	RJMP _0xE002B
                 _0xE002C:
                 ; 0007 007E sendtail |= TX_ERR ;
001f05 91e0 6bed 	LDS  R30,_sendtail
001f07 60e2      	ORI  R30,2
001f08 93e0 6bed 	STS  _sendtail,R30
                 ; 0007 007F } else {
001f0a c002      	RJMP _0xE002E
                 _0xE002B:
                 ; 0007 0080 BuildCalData() ;                        /* Build calibration data */
001f0b 940e 27d0 	CALL _BuildCalData
                 ; 0007 0081 }
                 _0xE002E:
                 ; 0007 0082 break ;
001f0d c498      	RJMP _0xE0005
                 ; 0007 0083 case SEND_CONFIG :
                 _0xE0028:
001f0e 31e1      	CPI  R30,LOW(0x11)
001f0f e0a0      	LDI  R26,HIGH(0x11)
001f10 07fa      	CPC  R31,R26
001f11 f011      	BREQ PC+3
001f12 940c 1f3c 	JMP _0xE002F
                 ; 0007 0084 if ( !sendtail ) {                            /* make header ? */
001f14 91e0 6bed 	LDS  R30,_sendtail
001f16 30e0      	CPI  R30,0
001f17 f011      	BREQ PC+3
001f18 940c 1f21 	JMP _0xE0030
                 ; 0007 0085 BuildHeader() ;                             /* Build send packet header */
001f1a 940e 23ab 	CALL _BuildHeader
                 ; 0007 0086 sendtail |= MAKE ;              /* build tail*/
001f1c 91e0 6bed 	LDS  R30,_sendtail
001f1e 60e1      	ORI  R30,1
001f1f 93e0 6bed 	STS  _sendtail,R30
                 ; 0007 0087 }
                 ; 0007 0088 if ( (sendtail & TX_ERR) ||
                 _0xE0030:
                 ; 0007 0089 ((TX_SIZE - tx_indx) < 42 ) ) {
001f21 91e0 6bed 	LDS  R30,_sendtail
001f23 70e2      	ANDI R30,LOW(0x2)
001f24 f011      	BREQ PC+3
001f25 940c 1f33 	JMP _0xE0032
001f27 91e0 6990 	LDS  R30,_tx_indx
001f29 e0f0      	LDI  R31,0
001f2a eca8      	LDI  R26,LOW(200)
001f2b e0b0      	LDI  R27,HIGH(200)
001f2c 1bae      	SUB  R26,R30
001f2d 0bbf      	SBC  R27,R31
001f2e 979a      	SBIW R26,42
001f2f f414      	BRGE PC+3
001f30 940c 1f33 	JMP _0xE0032
001f32 c006      	RJMP _0xE0031
                 _0xE0032:
                 ; 0007 008A sendtail |= TX_ERR ;
001f33 91e0 6bed 	LDS  R30,_sendtail
001f35 60e2      	ORI  R30,2
001f36 93e0 6bed 	STS  _sendtail,R30
                 ; 0007 008B } else {
001f38 c002      	RJMP _0xE0034
                 _0xE0031:
                 ; 0007 008C BuildConfData() ;                           /* Build config data */
001f39 940e 2847 	CALL _BuildConfData
                 ; 0007 008D }
                 _0xE0034:
                 ; 0007 008E break ;
001f3b c46a      	RJMP _0xE0005
                 ; 0007 008F case REC_EEP_DATA :
                 _0xE002F:
001f3c 31e2      	CPI  R30,LOW(0x12)
001f3d e0a0      	LDI  R26,HIGH(0x12)
001f3e 07fa      	CPC  R31,R26
001f3f f011      	BREQ PC+3
001f40 940c 1f48 	JMP _0xE0035
                 ; 0007 0090 RecEepData(pointer+2) ;                     /* new eeprom data for a channel*/
001f42 81ae      	LDD  R26,Y+6
001f43 81bf      	LDD  R27,Y+6+1
001f44 9612      	ADIW R26,2
001f45 940e 2a0c 	CALL _RecEepData
                 ; 0007 0091 break ;
001f47 c45e      	RJMP _0xE0005
                 ; 0007 0092 case REC_OFF_GAIN :
                 _0xE0035:
001f48 31e3      	CPI  R30,LOW(0x13)
001f49 e0a0      	LDI  R26,HIGH(0x13)
001f4a 07fa      	CPC  R31,R26
001f4b f011      	BREQ PC+3
001f4c 940c 1f52 	JMP _0xE0036
                 ; 0007 0093 RecOGData(pointer) ;                            /* offset and gain from PC */
001f4e 81ae      	LDD  R26,Y+6
001f4f 940e 2a7f 	CALL _RecOGData
                 ; 0007 0094 break ;
001f51 c454      	RJMP _0xE0005
                 ; 0007 0095 case REC_SET_UP :
                 _0xE0036:
001f52 31e4      	CPI  R30,LOW(0x14)
001f53 e0a0      	LDI  R26,HIGH(0x14)
001f54 07fa      	CPC  R31,R26
001f55 f011      	BREQ PC+3
001f56 940c 1f5d 	JMP _0xE0037
                 ; 0007 0096 RecSetupData(pointer + 2) ;             /* setup for channels */
001f58 81ae      	LDD  R26,Y+6
001f59 5fae      	SUBI R26,-LOW(2)
001f5a 940e 2b21 	CALL _RecSetupData
                 ; 0007 0097 break ;
001f5c c449      	RJMP _0xE0005
                 ; 0007 0098 case REC_TBTR :
                 _0xE0037:
001f5d 31e5      	CPI  R30,LOW(0x15)
001f5e e0a0      	LDI  R26,HIGH(0x15)
001f5f 07fa      	CPC  R31,R26
001f60 f011      	BREQ PC+3
001f61 940c 1f6d 	JMP _0xE0038
                 ; 0007 0099 time_b_temp = rx_buff[pointer+2]  ;     /* seconds between temp reading*/
001f63 81ee      	LDD  R30,Y+6
001f64 81ff      	LDD  R31,Y+6+1
                +
001f65 53e6     +SUBI R30 , LOW ( - _rx_buff - ( 2 ) )
001f66 49f7     +SBCI R31 , HIGH ( - _rx_buff - ( 2 ) )
                 	__ADDW1MN _rx_buff,2
001f67 81e0      	LD   R30,Z
001f68 93e0 6ae6 	STS  _time_b_temp,R30
                 ; 0007 009A time_b_cnt = time_b_temp ;                  /* reload counter */
001f6a 93e0 6ae7 	STS  _time_b_cnt,R30
                 ; 0007 009B break ;
001f6c c439      	RJMP _0xE0005
                 ; 0007 009C case CMD_WRITE_EEP :
                 _0xE0038:
001f6d 31e6      	CPI  R30,LOW(0x16)
001f6e e0a0      	LDI  R26,HIGH(0x16)
001f6f 07fa      	CPC  R31,R26
001f70 f011      	BREQ PC+3
001f71 940c 2043 	JMP _0xE0039
                 ; 0007 009D test = TRUE ;
                +
001f73 e021     +LDI R18 , LOW ( 1 )
001f74 e030     +LDI R19 , HIGH ( 1 )
                 	__GETWRN 18,19,1
                 ; 0007 009E if ( eep_type[rx_buff[pointer+2]>>1] & 0x09 ) {
001f75 81ee      	LDD  R30,Y+6
001f76 81ff      	LDD  R31,Y+6+1
                +
001f77 53e6     +SUBI R30 , LOW ( - _rx_buff - ( 2 ) )
001f78 49f7     +SBCI R31 , HIGH ( - _rx_buff - ( 2 ) )
                 	__ADDW1MN _rx_buff,2
001f79 81e0      	LD   R30,Z
001f7a e0f0      	LDI  R31,0
001f7b 95f5      	ASR  R31
001f7c 95e7      	ROR  R30
001f7d 52e1      	SUBI R30,LOW(-_eep_type)
001f7e 49f4      	SBCI R31,HIGH(-_eep_type)
001f7f 81e0      	LD   R30,Z
001f80 70e9      	ANDI R30,LOW(0x9)
001f81 f411      	BRNE PC+3
001f82 940c 1ff0 	JMP _0xE003A
                 ; 0007 009F for ( i = 0; i < PACKED_DATA_SIZE; i++ ) {
                +
001f84 e000     +LDI R16 , LOW ( 0 )
001f85 e010     +LDI R17 , HIGH ( 0 )
                 	__GETWRN 16,17,0
                 _0xE003C:
                +
001f86 3208     +CPI R16 , LOW ( 40 )
001f87 e0e0     +LDI R30 , HIGH ( 40 )
001f88 071e     +CPC R17 , R30
                 	__CPWRN 16,17,40
001f89 f010      	BRLO PC+3
001f8a 940c 1fa8 	JMP _0xE003D
                 ; 0007 00A0 d_buff[i] = packed_data[rx_buff[pointer+2]>>1][i] ; /*copy buffer */
001f8c 01f8      	MOVW R30,R16
001f8d 01de      	MOVW R26,R28
001f8e 9618      	ADIW R26,8
001f8f 0fea      	ADD  R30,R26
001f90 1ffb      	ADC  R31,R27
001f91 01bf      	MOVW R22,R30
001f92 81ee      	LDD  R30,Y+6
001f93 81ff      	LDD  R31,Y+6+1
                +
001f94 53e6     +SUBI R30 , LOW ( - _rx_buff - ( 2 ) )
001f95 49f7     +SBCI R31 , HIGH ( - _rx_buff - ( 2 ) )
                 	__ADDW1MN _rx_buff,2
001f96 81e0      	LD   R30,Z
001f97 e0f0      	LDI  R31,0
001f98 95f5      	ASR  R31
001f99 95e7      	ROR  R30
001f9a e2a8      	LDI  R26,LOW(40)
001f9b e0b0      	LDI  R27,HIGH(40)
001f9c 940e 31aa 	CALL __MULW12U
001f9e 55eb      	SUBI R30,LOW(-_packed_data)
001f9f 49f6      	SBCI R31,HIGH(-_packed_data)
001fa0 0fe0      	ADD  R30,R16
001fa1 1ff1      	ADC  R31,R17
001fa2 81e0      	LD   R30,Z
001fa3 01db      	MOVW R26,R22
001fa4 93ec      	ST   X,R30
                 ; 0007 00A1 }
                 _0xE003B:
                +
001fa5 5f0f     +SUBI R16 , LOW ( - 1 )
001fa6 4f1f     +SBCI R17 , HIGH ( - 1 )
                 	__ADDWRN 16,17,1
001fa7 cfde      	RJMP _0xE003C
                 _0xE003D:
                 ; 0007 00A2 if ( !Eeprom(rx_buff[pointer+2]>>1, WRITE_SP) ) {
001fa8 81ee      	LDD  R30,Y+6
001fa9 81ff      	LDD  R31,Y+6+1
                +
001faa 53e6     +SUBI R30 , LOW ( - _rx_buff - ( 2 ) )
001fab 49f7     +SBCI R31 , HIGH ( - _rx_buff - ( 2 ) )
                 	__ADDW1MN _rx_buff,2
001fac 81e0      	LD   R30,Z
001fad 95e6      	LSR  R30
001fae 93ea      	ST   -Y,R30
001faf e0af      	LDI  R26,LOW(15)
001fb0 940e 2bf0 	CALL _Eeprom
001fb2 9730      	SBIW R30,0
001fb3 f011      	BREQ PC+3
001fb4 940c 1fb8 	JMP _0xE003E
                 ; 0007 00A3 test= FALSE ;                               /* write data to scratchpad */
                +
001fb6 e020     +LDI R18 , LOW ( 0 )
001fb7 e030     +LDI R19 , HIGH ( 0 )
                 	__GETWRN 18,19,0
                 ; 0007 00A4 }
                 ; 0007 00A5 if ( !Eeprom(rx_buff[pointer+2]>>1, READ_SP) ) {
                 _0xE003E:
001fb8 81ee      	LDD  R30,Y+6
001fb9 81ff      	LDD  R31,Y+6+1
                +
001fba 53e6     +SUBI R30 , LOW ( - _rx_buff - ( 2 ) )
001fbb 49f7     +SBCI R31 , HIGH ( - _rx_buff - ( 2 ) )
                 	__ADDW1MN _rx_buff,2
001fbc 81e0      	LD   R30,Z
001fbd 95e6      	LSR  R30
001fbe 93ea      	ST   -Y,R30
001fbf eaaa      	LDI  R26,LOW(170)
001fc0 940e 2bf0 	CALL _Eeprom
001fc2 9730      	SBIW R30,0
001fc3 f011      	BREQ PC+3
001fc4 940c 1fc8 	JMP _0xE003F
                 ; 0007 00A6 test = FALSE ;                          /* Read data from scratchpad */
                +
001fc6 e020     +LDI R18 , LOW ( 0 )
001fc7 e030     +LDI R19 , HIGH ( 0 )
                 	__GETWRN 18,19,0
                 ; 0007 00A7 }
                 ; 0007 00A8 for ( i = 0; i < PACKED_DATA_SIZE; i++ ) {
                 _0xE003F:
                +
001fc8 e000     +LDI R16 , LOW ( 0 )
001fc9 e010     +LDI R17 , HIGH ( 0 )
                 	__GETWRN 16,17,0
                 _0xE0041:
                +
001fca 3208     +CPI R16 , LOW ( 40 )
001fcb e0e0     +LDI R30 , HIGH ( 40 )
001fcc 071e     +CPC R17 , R30
                 	__CPWRN 16,17,40
001fcd f010      	BRLO PC+3
001fce 940c 1fef 	JMP _0xE0042
                 ; 0007 00A9 if ( d_buff[i] != packed_data[rx_buff[pointer+2]>>1][i] ) {
001fd0 01de      	MOVW R26,R28
001fd1 9618      	ADIW R26,8
001fd2 0fa0      	ADD  R26,R16
001fd3 1fb1      	ADC  R27,R17
001fd4 916c      	LD   R22,X
001fd5 81ee      	LDD  R30,Y+6
001fd6 81ff      	LDD  R31,Y+6+1
                +
001fd7 53e6     +SUBI R30 , LOW ( - _rx_buff - ( 2 ) )
001fd8 49f7     +SBCI R31 , HIGH ( - _rx_buff - ( 2 ) )
                 	__ADDW1MN _rx_buff,2
001fd9 81e0      	LD   R30,Z
001fda e0f0      	LDI  R31,0
001fdb 95f5      	ASR  R31
001fdc 95e7      	ROR  R30
001fdd e2a8      	LDI  R26,LOW(40)
001fde e0b0      	LDI  R27,HIGH(40)
001fdf 940e 31aa 	CALL __MULW12U
001fe1 55eb      	SUBI R30,LOW(-_packed_data)
001fe2 49f6      	SBCI R31,HIGH(-_packed_data)
001fe3 0fe0      	ADD  R30,R16
001fe4 1ff1      	ADC  R31,R17
001fe5 81e0      	LD   R30,Z
001fe6 17e6      	CP   R30,R22
001fe7 f411      	BRNE PC+3
001fe8 940c 1fec 	JMP _0xE0043
                 ; 0007 00AA test = FALSE;                                  /*compare buffer */
                +
001fea e020     +LDI R18 , LOW ( 0 )
001feb e030     +LDI R19 , HIGH ( 0 )
                 	__GETWRN 18,19,0
                 ; 0007 00AB }
                 ; 0007 00AC }
                 _0xE0043:
                 _0xE0040:
                +
001fec 5f0f     +SUBI R16 , LOW ( - 1 )
001fed 4f1f     +SBCI R17 , HIGH ( - 1 )
                 	__ADDWRN 16,17,1
001fee cfdb      	RJMP _0xE0041
                 _0xE0042:
                 ; 0007 00AD } else {
001fef c002      	RJMP _0xE0044
                 _0xE003A:
                 ; 0007 00AE test = FALSE ;
                +
001ff0 e020     +LDI R18 , LOW ( 0 )
001ff1 e030     +LDI R19 , HIGH ( 0 )
                 	__GETWRN 18,19,0
                 ; 0007 00AF }
                 _0xE0044:
                 ; 0007 00B0 if ( !sendtail ) {                                /* make header ? */
001ff2 91e0 6bed 	LDS  R30,_sendtail
001ff4 30e0      	CPI  R30,0
001ff5 f011      	BREQ PC+3
001ff6 940c 1fff 	JMP _0xE0045
                 ; 0007 00B1 BuildHeader() ;                             /* Build send packet header */
001ff8 940e 23ab 	CALL _BuildHeader
                 ; 0007 00B2 sendtail |= MAKE ;                      /* build tail*/
001ffa 91e0 6bed 	LDS  R30,_sendtail
001ffc 60e1      	ORI  R30,1
001ffd 93e0 6bed 	STS  _sendtail,R30
                 ; 0007 00B3 }
                 ; 0007 00B4 if ( !(sendtail & TX_ERR) ) {
                 _0xE0045:
001fff 91e0 6bed 	LDS  R30,_sendtail
002001 70e2      	ANDI R30,LOW(0x2)
002002 f011      	BREQ PC+3
002003 940c 2042 	JMP _0xE0046
                 ; 0007 00B5 tx_buff[tx_indx++] = TX_WRITE_EEP ;     /* Command  */
002005 91e0 6990 	LDS  R30,_tx_indx
002007 5fef      	SUBI R30,-LOW(1)
002008 93e0 6990 	STS  _tx_indx,R30
00200a 50e1      	SUBI R30,LOW(1)
00200b e0f0      	LDI  R31,0
00200c 50e0      	SUBI R30,LOW(-_tx_buff)
00200d 49f8      	SBCI R31,HIGH(-_tx_buff)
00200e e2aa      	LDI  R26,LOW(42)
00200f 83a0      	STD  Z+0,R26
                 ; 0007 00B6 tx_buff[tx_indx++] = 1 ;                    /* One byte data  */
002010 91e0 6990 	LDS  R30,_tx_indx
002012 5fef      	SUBI R30,-LOW(1)
002013 93e0 6990 	STS  _tx_indx,R30
002015 50e1      	SUBI R30,LOW(1)
002016 e0f0      	LDI  R31,0
002017 50e0      	SUBI R30,LOW(-_tx_buff)
002018 49f8      	SBCI R31,HIGH(-_tx_buff)
002019 e0a1      	LDI  R26,LOW(1)
00201a 83a0      	STD  Z+0,R26
                 ; 0007 00B7 tx_buff[tx_indx] = 1 ;              /* Write status code FAIL */
00201b 91e0 6990 	LDS  R30,_tx_indx
00201d e0f0      	LDI  R31,0
00201e 50e0      	SUBI R30,LOW(-_tx_buff)
00201f 49f8      	SBCI R31,HIGH(-_tx_buff)
002020 83a0      	STD  Z+0,R26
                 ; 0007 00B8 if ( test == TRUE ) {                             /* write to eep OK */
002021 e0e1      	LDI  R30,LOW(1)
002022 e0f0      	LDI  R31,HIGH(1)
002023 17e2      	CP   R30,R18
002024 07f3      	CPC  R31,R19
002025 f011      	BREQ PC+3
002026 940c 203d 	JMP _0xE0047
                 ; 0007 00B9 if ( Eeprom(rx_buff[pointer+2]>>1, COPY_SP_NV) ) {    /* copy data to NV-ram */
002028 81ee      	LDD  R30,Y+6
002029 81ff      	LDD  R31,Y+6+1
                +
00202a 53e6     +SUBI R30 , LOW ( - _rx_buff - ( 2 ) )
00202b 49f7     +SBCI R31 , HIGH ( - _rx_buff - ( 2 ) )
                 	__ADDW1MN _rx_buff,2
00202c 81e0      	LD   R30,Z
00202d 95e6      	LSR  R30
00202e 93ea      	ST   -Y,R30
00202f e5a5      	LDI  R26,LOW(85)
002030 940e 2bf0 	CALL _Eeprom
002032 9730      	SBIW R30,0
002033 f411      	BRNE PC+3
002034 940c 203d 	JMP _0xE0048
                 ; 0007 00BA tx_buff[tx_indx] = 0 ;              /* Write status code OK*/
002036 91e0 6990 	LDS  R30,_tx_indx
002038 e0f0      	LDI  R31,0
002039 50e0      	SUBI R30,LOW(-_tx_buff)
00203a 49f8      	SBCI R31,HIGH(-_tx_buff)
00203b e0a0      	LDI  R26,LOW(0)
00203c 83a0      	STD  Z+0,R26
                 ; 0007 00BB }
                 ; 0007 00BC }
                 _0xE0048:
                 ; 0007 00BD tx_indx++ ;                                     /* Write status code FAIL */
                 _0xE0047:
00203d 91e0 6990 	LDS  R30,_tx_indx
00203f 5fef      	SUBI R30,-LOW(1)
002040 93e0 6990 	STS  _tx_indx,R30
                 ; 0007 00BE }
                 ; 0007 00BF break ;
                 _0xE0046:
002042 c363      	RJMP _0xE0005
                 ; 0007 00C0 case CMD_WRITE_ADR :
                 _0xE0039:
002043 31e7      	CPI  R30,LOW(0x17)
002044 e0a0      	LDI  R26,HIGH(0x17)
002045 07fa      	CPC  R31,R26
002046 f011      	BREQ PC+3
002047 940c 21e8 	JMP _0xE0049
                 ; 0007 00C1 test = TRUE ;
                +
002049 e021     +LDI R18 , LOW ( 1 )
00204a e030     +LDI R19 , HIGH ( 1 )
                 	__GETWRN 18,19,1
                 ; 0007 00C2 if ( eep_type[rx_buff[pointer+2]>>1] & 0x09 ) {
00204b 81ee      	LDD  R30,Y+6
00204c 81ff      	LDD  R31,Y+6+1
                +
00204d 53e6     +SUBI R30 , LOW ( - _rx_buff - ( 2 ) )
00204e 49f7     +SBCI R31 , HIGH ( - _rx_buff - ( 2 ) )
                 	__ADDW1MN _rx_buff,2
00204f 81e0      	LD   R30,Z
002050 e0f0      	LDI  R31,0
002051 95f5      	ASR  R31
002052 95e7      	ROR  R30
002053 52e1      	SUBI R30,LOW(-_eep_type)
002054 49f4      	SBCI R31,HIGH(-_eep_type)
002055 81e0      	LD   R30,Z
002056 70e9      	ANDI R30,LOW(0x9)
002057 f411      	BRNE PC+3
002058 940c 20c6 	JMP _0xE004A
                 ; 0007 00C3 for ( i = 0; i < PACKED_DATA_SIZE; i++ ) {
                +
00205a e000     +LDI R16 , LOW ( 0 )
00205b e010     +LDI R17 , HIGH ( 0 )
                 	__GETWRN 16,17,0
                 _0xE004C:
                +
00205c 3208     +CPI R16 , LOW ( 40 )
00205d e0e0     +LDI R30 , HIGH ( 40 )
00205e 071e     +CPC R17 , R30
                 	__CPWRN 16,17,40
00205f f010      	BRLO PC+3
002060 940c 207e 	JMP _0xE004D
                 ; 0007 00C4 d_buff[i] = packed_data[rx_buff[pointer+2]>>1][i] ; /*copy buffer */
002062 01f8      	MOVW R30,R16
002063 01de      	MOVW R26,R28
002064 9618      	ADIW R26,8
002065 0fea      	ADD  R30,R26
002066 1ffb      	ADC  R31,R27
002067 01bf      	MOVW R22,R30
002068 81ee      	LDD  R30,Y+6
002069 81ff      	LDD  R31,Y+6+1
                +
00206a 53e6     +SUBI R30 , LOW ( - _rx_buff - ( 2 ) )
00206b 49f7     +SBCI R31 , HIGH ( - _rx_buff - ( 2 ) )
                 	__ADDW1MN _rx_buff,2
00206c 81e0      	LD   R30,Z
00206d e0f0      	LDI  R31,0
00206e 95f5      	ASR  R31
00206f 95e7      	ROR  R30
002070 e2a8      	LDI  R26,LOW(40)
002071 e0b0      	LDI  R27,HIGH(40)
002072 940e 31aa 	CALL __MULW12U
002074 55eb      	SUBI R30,LOW(-_packed_data)
002075 49f6      	SBCI R31,HIGH(-_packed_data)
002076 0fe0      	ADD  R30,R16
002077 1ff1      	ADC  R31,R17
002078 81e0      	LD   R30,Z
002079 01db      	MOVW R26,R22
00207a 93ec      	ST   X,R30
                 ; 0007 00C5 }
                 _0xE004B:
                +
00207b 5f0f     +SUBI R16 , LOW ( - 1 )
00207c 4f1f     +SBCI R17 , HIGH ( - 1 )
                 	__ADDWRN 16,17,1
00207d cfde      	RJMP _0xE004C
                 _0xE004D:
                 ; 0007 00C6 if ( !Eeprom(rx_buff[pointer+2]>>1, WRITE_APPREG) ) {
00207e 81ee      	LDD  R30,Y+6
00207f 81ff      	LDD  R31,Y+6+1
                +
002080 53e6     +SUBI R30 , LOW ( - _rx_buff - ( 2 ) )
002081 49f7     +SBCI R31 , HIGH ( - _rx_buff - ( 2 ) )
                 	__ADDW1MN _rx_buff,2
002082 81e0      	LD   R30,Z
002083 95e6      	LSR  R30
002084 93ea      	ST   -Y,R30
002085 e9a9      	LDI  R26,LOW(153)
002086 940e 2bf0 	CALL _Eeprom
002088 9730      	SBIW R30,0
002089 f011      	BREQ PC+3
00208a 940c 208e 	JMP _0xE004E
                 ; 0007 00C7 test = FALSE ;                      /* write data to adreg */
                +
00208c e020     +LDI R18 , LOW ( 0 )
00208d e030     +LDI R19 , HIGH ( 0 )
                 	__GETWRN 18,19,0
                 ; 0007 00C8 }
                 ; 0007 00C9 if ( !Eeprom(rx_buff[pointer+2]>>1, READ_APPREG) ) {
                 _0xE004E:
00208e 81ee      	LDD  R30,Y+6
00208f 81ff      	LDD  R31,Y+6+1
                +
002090 53e6     +SUBI R30 , LOW ( - _rx_buff - ( 2 ) )
002091 49f7     +SBCI R31 , HIGH ( - _rx_buff - ( 2 ) )
                 	__ADDW1MN _rx_buff,2
002092 81e0      	LD   R30,Z
002093 95e6      	LSR  R30
002094 93ea      	ST   -Y,R30
002095 eca3      	LDI  R26,LOW(195)
002096 940e 2bf0 	CALL _Eeprom
002098 9730      	SBIW R30,0
002099 f011      	BREQ PC+3
00209a 940c 209e 	JMP _0xE004F
                 ; 0007 00CA test = FALSE ;                          /* Read data from adreg */
                +
00209c e020     +LDI R18 , LOW ( 0 )
00209d e030     +LDI R19 , HIGH ( 0 )
                 	__GETWRN 18,19,0
                 ; 0007 00CB }
                 ; 0007 00CC for ( i = 0; i < PACKED_DATA_SIZE; i++ ) {
                 _0xE004F:
                +
00209e e000     +LDI R16 , LOW ( 0 )
00209f e010     +LDI R17 , HIGH ( 0 )
                 	__GETWRN 16,17,0
                 _0xE0051:
                +
0020a0 3208     +CPI R16 , LOW ( 40 )
0020a1 e0e0     +LDI R30 , HIGH ( 40 )
0020a2 071e     +CPC R17 , R30
                 	__CPWRN 16,17,40
0020a3 f010      	BRLO PC+3
0020a4 940c 20c5 	JMP _0xE0052
                 ; 0007 00CD if ( d_buff[i] != packed_data[rx_buff[pointer+2]>>1][i] ) {
0020a6 01de      	MOVW R26,R28
0020a7 9618      	ADIW R26,8
0020a8 0fa0      	ADD  R26,R16
0020a9 1fb1      	ADC  R27,R17
0020aa 916c      	LD   R22,X
0020ab 81ee      	LDD  R30,Y+6
0020ac 81ff      	LDD  R31,Y+6+1
                +
0020ad 53e6     +SUBI R30 , LOW ( - _rx_buff - ( 2 ) )
0020ae 49f7     +SBCI R31 , HIGH ( - _rx_buff - ( 2 ) )
                 	__ADDW1MN _rx_buff,2
0020af 81e0      	LD   R30,Z
0020b0 e0f0      	LDI  R31,0
0020b1 95f5      	ASR  R31
0020b2 95e7      	ROR  R30
0020b3 e2a8      	LDI  R26,LOW(40)
0020b4 e0b0      	LDI  R27,HIGH(40)
0020b5 940e 31aa 	CALL __MULW12U
0020b7 55eb      	SUBI R30,LOW(-_packed_data)
0020b8 49f6      	SBCI R31,HIGH(-_packed_data)
0020b9 0fe0      	ADD  R30,R16
0020ba 1ff1      	ADC  R31,R17
0020bb 81e0      	LD   R30,Z
0020bc 17e6      	CP   R30,R22
0020bd f411      	BRNE PC+3
0020be 940c 20c2 	JMP _0xE0053
                 ; 0007 00CE test = FALSE;                                  /*compare buffer */
                +
0020c0 e020     +LDI R18 , LOW ( 0 )
0020c1 e030     +LDI R19 , HIGH ( 0 )
                 	__GETWRN 18,19,0
                 ; 0007 00CF }
                 ; 0007 00D0 }
                 _0xE0053:
                 _0xE0050:
                +
0020c2 5f0f     +SUBI R16 , LOW ( - 1 )
0020c3 4f1f     +SBCI R17 , HIGH ( - 1 )
                 	__ADDWRN 16,17,1
0020c4 cfdb      	RJMP _0xE0051
                 _0xE0052:
                 ; 0007 00D1 } else {
0020c5 c002      	RJMP _0xE0054
                 _0xE004A:
                 ; 0007 00D2 test = FALSE ;
                +
0020c6 e020     +LDI R18 , LOW ( 0 )
0020c7 e030     +LDI R19 , HIGH ( 0 )
                 	__GETWRN 18,19,0
                 ; 0007 00D3 }
                 _0xE0054:
                 ; 0007 00D4 if ( !sendtail ) {                                /* make header ? */
0020c8 91e0 6bed 	LDS  R30,_sendtail
0020ca 30e0      	CPI  R30,0
0020cb f011      	BREQ PC+3
0020cc 940c 20d5 	JMP _0xE0055
                 ; 0007 00D5 BuildHeader() ;                             /* Build send packet header */
0020ce 940e 23ab 	CALL _BuildHeader
                 ; 0007 00D6 sendtail |= MAKE ;                      /* build tail*/
0020d0 91e0 6bed 	LDS  R30,_sendtail
0020d2 60e1      	ORI  R30,1
0020d3 93e0 6bed 	STS  _sendtail,R30
                 ; 0007 00D7 }
                 ; 0007 00D8 if ( !(sendtail & TX_ERR) )
                 _0xE0055:
0020d5 91e0 6bed 	LDS  R30,_sendtail
0020d7 70e2      	ANDI R30,LOW(0x2)
0020d8 f011      	BREQ PC+3
0020d9 940c 21e7 	JMP _0xE0056
                 ; 0007 00D9 {
                 ; 0007 00DA tx_buff[tx_indx++] = TX_WRITE_ADR ;     /* Command  */
0020db 91e0 6990 	LDS  R30,_tx_indx
0020dd 5fef      	SUBI R30,-LOW(1)
0020de 93e0 6990 	STS  _tx_indx,R30
0020e0 50e1      	SUBI R30,LOW(1)
0020e1 e0f0      	LDI  R31,0
0020e2 50e0      	SUBI R30,LOW(-_tx_buff)
0020e3 49f8      	SBCI R31,HIGH(-_tx_buff)
0020e4 e2ab      	LDI  R26,LOW(43)
0020e5 83a0      	STD  Z+0,R26
                 ; 0007 00DB tx_buff[tx_indx++] = 1 ;                    /* One data byte  */
0020e6 91e0 6990 	LDS  R30,_tx_indx
0020e8 5fef      	SUBI R30,-LOW(1)
0020e9 93e0 6990 	STS  _tx_indx,R30
0020eb 50e1      	SUBI R30,LOW(1)
0020ec e0f0      	LDI  R31,0
0020ed 50e0      	SUBI R30,LOW(-_tx_buff)
0020ee 49f8      	SBCI R31,HIGH(-_tx_buff)
0020ef e0a1      	LDI  R26,LOW(1)
0020f0 83a0      	STD  Z+0,R26
                 ; 0007 00DC if ( test == TRUE )
0020f1 e0e1      	LDI  R30,LOW(1)
0020f2 e0f0      	LDI  R31,HIGH(1)
0020f3 17e2      	CP   R30,R18
0020f4 07f3      	CPC  R31,R19
0020f5 f011      	BREQ PC+3
0020f6 940c 21dc 	JMP _0xE0057
                 ; 0007 00DD {
                 ; 0007 00DE if (    (rx_buff[pointer+3] == 'L')
                 ; 0007 00DF && (rx_buff[pointer+4] == 'O')
                 ; 0007 00E0 && (rx_buff[pointer+5] == 'C')
                 ; 0007 00E1 && (rx_buff[pointer+6] == 'K') )
0020f8 81ee      	LDD  R30,Y+6
0020f9 81ff      	LDD  R31,Y+6+1
                +
0020fa 53e5     +SUBI R30 , LOW ( - _rx_buff - ( 3 ) )
0020fb 49f7     +SBCI R31 , HIGH ( - _rx_buff - ( 3 ) )
                 	__ADDW1MN _rx_buff,3
0020fc 81a0      	LD   R26,Z
0020fd 34ac      	CPI  R26,LOW(0x4C)
0020fe f011      	BREQ PC+3
0020ff 940c 211d 	JMP _0xE0059
002101 81ee      	LDD  R30,Y+6
002102 81ff      	LDD  R31,Y+6+1
                +
002103 53e4     +SUBI R30 , LOW ( - _rx_buff - ( 4 ) )
002104 49f7     +SBCI R31 , HIGH ( - _rx_buff - ( 4 ) )
                 	__ADDW1MN _rx_buff,4
002105 81a0      	LD   R26,Z
002106 34af      	CPI  R26,LOW(0x4F)
002107 f011      	BREQ PC+3
002108 940c 211d 	JMP _0xE0059
00210a 81ee      	LDD  R30,Y+6
00210b 81ff      	LDD  R31,Y+6+1
                +
00210c 53e3     +SUBI R30 , LOW ( - _rx_buff - ( 5 ) )
00210d 49f7     +SBCI R31 , HIGH ( - _rx_buff - ( 5 ) )
                 	__ADDW1MN _rx_buff,5
00210e 81a0      	LD   R26,Z
00210f 34a3      	CPI  R26,LOW(0x43)
002110 f011      	BREQ PC+3
002111 940c 211d 	JMP _0xE0059
002113 81ee      	LDD  R30,Y+6
002114 81ff      	LDD  R31,Y+6+1
                +
002115 53e2     +SUBI R30 , LOW ( - _rx_buff - ( 6 ) )
002116 49f7     +SBCI R31 , HIGH ( - _rx_buff - ( 6 ) )
                 	__ADDW1MN _rx_buff,6
002117 81a0      	LD   R26,Z
002118 34ab      	CPI  R26,LOW(0x4B)
002119 f011      	BREQ PC+3
00211a 940c 211d 	JMP _0xE0059
00211c c001      	RJMP _0xE005A
                 _0xE0059:
00211d c031      	RJMP _0xE0058
                 _0xE005A:
                 ; 0007 00E2 {     /* LOCK AP? */
                 ; 0007 00E3 test = FALSE ;
                +
00211e e020     +LDI R18 , LOW ( 0 )
00211f e030     +LDI R19 , HIGH ( 0 )
                 	__GETWRN 18,19,0
                 ; 0007 00E4 if ( Eeprom(rx_buff[pointer+2]>>1, LOCK_APP) )
002120 81ee      	LDD  R30,Y+6
002121 81ff      	LDD  R31,Y+6+1
                +
002122 53e6     +SUBI R30 , LOW ( - _rx_buff - ( 2 ) )
002123 49f7     +SBCI R31 , HIGH ( - _rx_buff - ( 2 ) )
                 	__ADDW1MN _rx_buff,2
002124 81e0      	LD   R30,Z
002125 95e6      	LSR  R30
002126 93ea      	ST   -Y,R30
002127 e5aa      	LDI  R26,LOW(90)
002128 940e 2bf0 	CALL _Eeprom
00212a 9730      	SBIW R30,0
00212b f411      	BRNE PC+3
00212c 940c 2130 	JMP _0xE005B
                 ; 0007 00E5 {   /* LOCK APP REG. */
                 ; 0007 00E6 test = TRUE ;
                +
00212e e021     +LDI R18 , LOW ( 1 )
00212f e030     +LDI R19 , HIGH ( 1 )
                 	__GETWRN 18,19,1
                 ; 0007 00E7 
                 ; 0007 00E8 }
                 ; 0007 00E9 if ( test == TRUE ) {
                 _0xE005B:
002130 e0e1      	LDI  R30,LOW(1)
002131 e0f0      	LDI  R31,HIGH(1)
002132 17e2      	CP   R30,R18
002133 07f3      	CPC  R31,R19
002134 f011      	BREQ PC+3
002135 940c 2143 	JMP _0xE005C
                 ; 0007 00EA tx_buff[tx_indx++] = 0 ;                /* Write status code OK*/
002137 91e0 6990 	LDS  R30,_tx_indx
002139 5fef      	SUBI R30,-LOW(1)
00213a 93e0 6990 	STS  _tx_indx,R30
00213c 50e1      	SUBI R30,LOW(1)
00213d e0f0      	LDI  R31,0
00213e 50e0      	SUBI R30,LOW(-_tx_buff)
00213f 49f8      	SBCI R31,HIGH(-_tx_buff)
002140 e0a0      	LDI  R26,LOW(0)
002141 83a0      	STD  Z+0,R26
                 ; 0007 00EB }
                 ; 0007 00EC else {
002142 c00b      	RJMP _0xE005D
                 _0xE005C:
                 ; 0007 00ED tx_buff[tx_indx++] = 1 ;                /* Write status code FAIL*/
002143 91e0 6990 	LDS  R30,_tx_indx
002145 5fef      	SUBI R30,-LOW(1)
002146 93e0 6990 	STS  _tx_indx,R30
002148 50e1      	SUBI R30,LOW(1)
002149 e0f0      	LDI  R31,0
00214a 50e0      	SUBI R30,LOW(-_tx_buff)
00214b 49f8      	SBCI R31,HIGH(-_tx_buff)
00214c e0a1      	LDI  R26,LOW(1)
00214d 83a0      	STD  Z+0,R26
                 ; 0007 00EE }
                 _0xE005D:
                 ; 0007 00EF 
                 ; 0007 00F0 }
                 ; 0007 00F1 else if (  (rx_buff[pointer+3] == 'U')
00214e c06e      	RJMP _0xE005E
                 _0xE0058:
                 ; 0007 00F2 && (rx_buff[pointer+4] == 'N')
                 ; 0007 00F3 && (rx_buff[pointer+5] == 'L')
                 ; 0007 00F4 && (rx_buff[pointer+6] == 'O')
                 ; 0007 00F5 && (rx_buff[pointer+7] == 'C')
                 ; 0007 00F6 && (rx_buff[pointer+8] == 'K') )
00214f 81ee      	LDD  R30,Y+6
002150 81ff      	LDD  R31,Y+6+1
                +
002151 53e5     +SUBI R30 , LOW ( - _rx_buff - ( 3 ) )
002152 49f7     +SBCI R31 , HIGH ( - _rx_buff - ( 3 ) )
                 	__ADDW1MN _rx_buff,3
002153 81a0      	LD   R26,Z
002154 35a5      	CPI  R26,LOW(0x55)
002155 f011      	BREQ PC+3
002156 940c 2186 	JMP _0xE0060
002158 81ee      	LDD  R30,Y+6
002159 81ff      	LDD  R31,Y+6+1
                +
00215a 53e4     +SUBI R30 , LOW ( - _rx_buff - ( 4 ) )
00215b 49f7     +SBCI R31 , HIGH ( - _rx_buff - ( 4 ) )
                 	__ADDW1MN _rx_buff,4
00215c 81a0      	LD   R26,Z
00215d 34ae      	CPI  R26,LOW(0x4E)
00215e f011      	BREQ PC+3
00215f 940c 2186 	JMP _0xE0060
002161 81ee      	LDD  R30,Y+6
002162 81ff      	LDD  R31,Y+6+1
                +
002163 53e3     +SUBI R30 , LOW ( - _rx_buff - ( 5 ) )
002164 49f7     +SBCI R31 , HIGH ( - _rx_buff - ( 5 ) )
                 	__ADDW1MN _rx_buff,5
002165 81a0      	LD   R26,Z
002166 34ac      	CPI  R26,LOW(0x4C)
002167 f011      	BREQ PC+3
002168 940c 2186 	JMP _0xE0060
00216a 81ee      	LDD  R30,Y+6
00216b 81ff      	LDD  R31,Y+6+1
                +
00216c 53e2     +SUBI R30 , LOW ( - _rx_buff - ( 6 ) )
00216d 49f7     +SBCI R31 , HIGH ( - _rx_buff - ( 6 ) )
                 	__ADDW1MN _rx_buff,6
00216e 81a0      	LD   R26,Z
00216f 34af      	CPI  R26,LOW(0x4F)
002170 f011      	BREQ PC+3
002171 940c 2186 	JMP _0xE0060
002173 81ee      	LDD  R30,Y+6
002174 81ff      	LDD  R31,Y+6+1
                +
002175 53e1     +SUBI R30 , LOW ( - _rx_buff - ( 7 ) )
002176 49f7     +SBCI R31 , HIGH ( - _rx_buff - ( 7 ) )
                 	__ADDW1MN _rx_buff,7
002177 81a0      	LD   R26,Z
002178 34a3      	CPI  R26,LOW(0x43)
002179 f011      	BREQ PC+3
00217a 940c 2186 	JMP _0xE0060
00217c 81ee      	LDD  R30,Y+6
00217d 81ff      	LDD  R31,Y+6+1
                +
00217e 53e0     +SUBI R30 , LOW ( - _rx_buff - ( 8 ) )
00217f 49f7     +SBCI R31 , HIGH ( - _rx_buff - ( 8 ) )
                 	__ADDW1MN _rx_buff,8
002180 81a0      	LD   R26,Z
002181 34ab      	CPI  R26,LOW(0x4B)
002182 f011      	BREQ PC+3
002183 940c 2186 	JMP _0xE0060
002185 c001      	RJMP _0xE0061
                 _0xE0060:
002186 c02b      	RJMP _0xE005F
                 _0xE0061:
                 ; 0007 00F7 {     /* UNLOCK AP? */
                 ; 0007 00F8 test = TRUE ;
                +
002187 e021     +LDI R18 , LOW ( 1 )
002188 e030     +LDI R19 , HIGH ( 1 )
                 	__GETWRN 18,19,1
                 ; 0007 00F9 SerielNummerLock= UNLOCK_BYTE;
002189 e0a2      	LDI  R26,LOW(_SerielNummerLock)
00218a e0b0      	LDI  R27,HIGH(_SerielNummerLock)
00218b eaea      	LDI  R30,LOW(170)
00218c 940e 3203 	CALL __EEPROMWRB
                 ; 0007 00FA EEpromStatusByte=DEFAULT_EEPROM_STATUS;
00218e e2ac      	LDI  R26,LOW(_EEpromStatusByte)
00218f e0b0      	LDI  R27,HIGH(_EEpromStatusByte)
002190 e0e0      	LDI  R30,LOW(0)
002191 940e 3203 	CALL __EEPROMWRB
                 ; 0007 00FB if ( test == TRUE ) {
002193 e0e1      	LDI  R30,LOW(1)
002194 e0f0      	LDI  R31,HIGH(1)
002195 17e2      	CP   R30,R18
002196 07f3      	CPC  R31,R19
002197 f011      	BREQ PC+3
002198 940c 21a6 	JMP _0xE0062
                 ; 0007 00FC tx_buff[tx_indx++] = 0 ;                /* Write status code OK*/
00219a 91e0 6990 	LDS  R30,_tx_indx
00219c 5fef      	SUBI R30,-LOW(1)
00219d 93e0 6990 	STS  _tx_indx,R30
00219f 50e1      	SUBI R30,LOW(1)
0021a0 e0f0      	LDI  R31,0
0021a1 50e0      	SUBI R30,LOW(-_tx_buff)
0021a2 49f8      	SBCI R31,HIGH(-_tx_buff)
0021a3 e0a0      	LDI  R26,LOW(0)
0021a4 83a0      	STD  Z+0,R26
                 ; 0007 00FD }
                 ; 0007 00FE else {
0021a5 c00b      	RJMP _0xE0063
                 _0xE0062:
                 ; 0007 00FF tx_buff[tx_indx++] = 1 ;                /* Write status code FAIL*/
0021a6 91e0 6990 	LDS  R30,_tx_indx
0021a8 5fef      	SUBI R30,-LOW(1)
0021a9 93e0 6990 	STS  _tx_indx,R30
0021ab 50e1      	SUBI R30,LOW(1)
0021ac e0f0      	LDI  R31,0
0021ad 50e0      	SUBI R30,LOW(-_tx_buff)
0021ae 49f8      	SBCI R31,HIGH(-_tx_buff)
0021af e0a1      	LDI  R26,LOW(1)
0021b0 83a0      	STD  Z+0,R26
                 ; 0007 0100 }
                 _0xE0063:
                 ; 0007 0101 }
                 ; 0007 0102 else
0021b1 c00b      	RJMP _0xE0064
                 _0xE005F:
                 ; 0007 0103 {
                 ; 0007 0104 tx_buff[tx_indx++] = 1 ;                /* Write status code FAIL */
0021b2 91e0 6990 	LDS  R30,_tx_indx
0021b4 5fef      	SUBI R30,-LOW(1)
0021b5 93e0 6990 	STS  _tx_indx,R30
0021b7 50e1      	SUBI R30,LOW(1)
0021b8 e0f0      	LDI  R31,0
0021b9 50e0      	SUBI R30,LOW(-_tx_buff)
0021ba 49f8      	SBCI R31,HIGH(-_tx_buff)
0021bb e0a1      	LDI  R26,LOW(1)
0021bc 83a0      	STD  Z+0,R26
                 ; 0007 0105 }
                 _0xE0064:
                 _0xE005E:
                 ; 0007 0106 
                 ; 0007 0107 if ( test == TRUE ) {
0021bd e0e1      	LDI  R30,LOW(1)
0021be e0f0      	LDI  R31,HIGH(1)
0021bf 17e2      	CP   R30,R18
0021c0 07f3      	CPC  R31,R19
0021c1 f011      	BREQ PC+3
0021c2 940c 21d0 	JMP _0xE0065
                 ; 0007 0108 tx_buff[tx_indx++] = 0 ;                /* Write status code OK*/
0021c4 91e0 6990 	LDS  R30,_tx_indx
0021c6 5fef      	SUBI R30,-LOW(1)
0021c7 93e0 6990 	STS  _tx_indx,R30
0021c9 50e1      	SUBI R30,LOW(1)
0021ca e0f0      	LDI  R31,0
0021cb 50e0      	SUBI R30,LOW(-_tx_buff)
0021cc 49f8      	SBCI R31,HIGH(-_tx_buff)
0021cd e0a0      	LDI  R26,LOW(0)
0021ce 83a0      	STD  Z+0,R26
                 ; 0007 0109 } else {
0021cf c00b      	RJMP _0xE0066
                 _0xE0065:
                 ; 0007 010A tx_buff[tx_indx++] = 1 ;                /* Write status code FAIL*/
0021d0 91e0 6990 	LDS  R30,_tx_indx
0021d2 5fef      	SUBI R30,-LOW(1)
0021d3 93e0 6990 	STS  _tx_indx,R30
0021d5 50e1      	SUBI R30,LOW(1)
0021d6 e0f0      	LDI  R31,0
0021d7 50e0      	SUBI R30,LOW(-_tx_buff)
0021d8 49f8      	SBCI R31,HIGH(-_tx_buff)
0021d9 e0a1      	LDI  R26,LOW(1)
0021da 83a0      	STD  Z+0,R26
                 ; 0007 010B }
                 _0xE0066:
                 ; 0007 010C }
                 ; 0007 010D else
0021db c00b      	RJMP _0xE0067
                 _0xE0057:
                 ; 0007 010E {   tx_buff[tx_indx++] = 1 ;                /* Write status code FAIL */
0021dc 91e0 6990 	LDS  R30,_tx_indx
0021de 5fef      	SUBI R30,-LOW(1)
0021df 93e0 6990 	STS  _tx_indx,R30
0021e1 50e1      	SUBI R30,LOW(1)
0021e2 e0f0      	LDI  R31,0
0021e3 50e0      	SUBI R30,LOW(-_tx_buff)
0021e4 49f8      	SBCI R31,HIGH(-_tx_buff)
0021e5 e0a1      	LDI  R26,LOW(1)
0021e6 83a0      	STD  Z+0,R26
                 ; 0007 010F }
                 _0xE0067:
                 ; 0007 0110 }
                 ; 0007 0111 break ;
                 _0xE0056:
0021e7 c1be      	RJMP _0xE0005
                 ; 0007 0112 case SEND_EEP_DATA :
                 _0xE0049:
0021e8 31e8      	CPI  R30,LOW(0x18)
0021e9 e0a0      	LDI  R26,HIGH(0x18)
0021ea 07fa      	CPC  R31,R26
0021eb f011      	BREQ PC+3
0021ec 940c 221b 	JMP _0xE0068
                 ; 0007 0113 if ( !sendtail ) {                                /* make header ? */
0021ee 91e0 6bed 	LDS  R30,_sendtail
0021f0 30e0      	CPI  R30,0
0021f1 f011      	BREQ PC+3
0021f2 940c 21fb 	JMP _0xE0069
                 ; 0007 0114 BuildHeader() ;                             /* Build send packet header */
0021f4 940e 23ab 	CALL _BuildHeader
                 ; 0007 0115 sendtail |= MAKE ;                      /* build tail*/
0021f6 91e0 6bed 	LDS  R30,_sendtail
0021f8 60e1      	ORI  R30,1
0021f9 93e0 6bed 	STS  _sendtail,R30
                 ; 0007 0116 }
                 ; 0007 0117 if ( (sendtail & TX_ERR) ||
                 _0xE0069:
                 ; 0007 0118 ((TX_SIZE - tx_indx) < PACKED_DATA_SIZE ) ) {
0021fb 91e0 6bed 	LDS  R30,_sendtail
0021fd 70e2      	ANDI R30,LOW(0x2)
0021fe f011      	BREQ PC+3
0021ff 940c 220d 	JMP _0xE006B
002201 91e0 6990 	LDS  R30,_tx_indx
002203 e0f0      	LDI  R31,0
002204 eca8      	LDI  R26,LOW(200)
002205 e0b0      	LDI  R27,HIGH(200)
002206 1bae      	SUB  R26,R30
002207 0bbf      	SBC  R27,R31
002208 9798      	SBIW R26,40
002209 f414      	BRGE PC+3
00220a 940c 220d 	JMP _0xE006B
00220c c006      	RJMP _0xE006A
                 _0xE006B:
                 ; 0007 0119 sendtail |= TX_ERR ;
00220d 91e0 6bed 	LDS  R30,_sendtail
00220f 60e2      	ORI  R30,2
002210 93e0 6bed 	STS  _sendtail,R30
                 ; 0007 011A } else {
002212 c007      	RJMP _0xE006D
                 _0xE006A:
                 ; 0007 011B BuildEepData(rx_buff[pointer+2]) ;  /* Build eeprom data for a channel*/
002213 81ee      	LDD  R30,Y+6
002214 81ff      	LDD  R31,Y+6+1
                +
002215 53e6     +SUBI R30 , LOW ( - _rx_buff - ( 2 ) )
002216 49f7     +SBCI R31 , HIGH ( - _rx_buff - ( 2 ) )
                 	__ADDW1MN _rx_buff,2
002217 81a0      	LD   R26,Z
002218 940e 28a4 	CALL _BuildEepData
                 ; 0007 011C }
                 _0xE006D:
                 ; 0007 011D break ;
00221a c18b      	RJMP _0xE0005
                 ; 0007 011E case CMD_READ_EEP :
                 _0xE0068:
00221b 31e9      	CPI  R30,LOW(0x19)
00221c e0a0      	LDI  R26,HIGH(0x19)
00221d 07fa      	CPC  R31,R26
00221e f011      	BREQ PC+3
00221f 940c 22b0 	JMP _0xE006E
                 ; 0007 011F eep_type[rx_buff[pointer+2]>>1] |= 0x20 ;     /* Error before read */
002221 81ee      	LDD  R30,Y+6
002222 81ff      	LDD  R31,Y+6+1
                +
002223 53e6     +SUBI R30 , LOW ( - _rx_buff - ( 2 ) )
002224 49f7     +SBCI R31 , HIGH ( - _rx_buff - ( 2 ) )
                 	__ADDW1MN _rx_buff,2
002225 81e0      	LD   R30,Z
002226 e0f0      	LDI  R31,0
002227 95f5      	ASR  R31
002228 95e7      	ROR  R30
002229 52e1      	SUBI R30,LOW(-_eep_type)
00222a 49f4      	SBCI R31,HIGH(-_eep_type)
00222b 01df      	MOVW R26,R30
00222c 91ec      	LD   R30,X
00222d 62e0      	ORI  R30,0x20
00222e 93ec      	ST   X,R30
                 ; 0007 0120 eep_type[rx_buff[pointer+2]>>1] &= ~0x10 ;
00222f 81ee      	LDD  R30,Y+6
002230 81ff      	LDD  R31,Y+6+1
                +
002231 53e6     +SUBI R30 , LOW ( - _rx_buff - ( 2 ) )
002232 49f7     +SBCI R31 , HIGH ( - _rx_buff - ( 2 ) )
                 	__ADDW1MN _rx_buff,2
002233 81e0      	LD   R30,Z
002234 e0f0      	LDI  R31,0
002235 95f5      	ASR  R31
002236 95e7      	ROR  R30
002237 52e1      	SUBI R30,LOW(-_eep_type)
002238 49f4      	SBCI R31,HIGH(-_eep_type)
002239 01df      	MOVW R26,R30
00223a 91ec      	LD   R30,X
00223b 7eef      	ANDI R30,0xEF
00223c 93ec      	ST   X,R30
                 ; 0007 0121 if ( Eeprom(rx_buff[pointer+2]>>1, COPY_NV_SP) ) {
00223d 81ee      	LDD  R30,Y+6
00223e 81ff      	LDD  R31,Y+6+1
                +
00223f 53e6     +SUBI R30 , LOW ( - _rx_buff - ( 2 ) )
002240 49f7     +SBCI R31 , HIGH ( - _rx_buff - ( 2 ) )
                 	__ADDW1MN _rx_buff,2
002241 81e0      	LD   R30,Z
002242 95e6      	LSR  R30
002243 93ea      	ST   -Y,R30
002244 efa0      	LDI  R26,LOW(240)
002245 940e 2bf0 	CALL _Eeprom
002247 9730      	SBIW R30,0
002248 f411      	BRNE PC+3
002249 940c 22af 	JMP _0xE006F
                 ; 0007 0122 if ( Eeprom(rx_buff[pointer+2]>>1, READ_SP) ) {
00224b 81ee      	LDD  R30,Y+6
00224c 81ff      	LDD  R31,Y+6+1
                +
00224d 53e6     +SUBI R30 , LOW ( - _rx_buff - ( 2 ) )
00224e 49f7     +SBCI R31 , HIGH ( - _rx_buff - ( 2 ) )
                 	__ADDW1MN _rx_buff,2
00224f 81e0      	LD   R30,Z
002250 95e6      	LSR  R30
002251 93ea      	ST   -Y,R30
002252 eaaa      	LDI  R26,LOW(170)
002253 940e 2bf0 	CALL _Eeprom
002255 9730      	SBIW R30,0
002256 f411      	BRNE PC+3
002257 940c 22af 	JMP _0xE0070
                 ; 0007 0123 if ( Eeprom(rx_buff[pointer+2]>>1, READ_APPREG) ) {
002259 81ee      	LDD  R30,Y+6
00225a 81ff      	LDD  R31,Y+6+1
                +
00225b 53e6     +SUBI R30 , LOW ( - _rx_buff - ( 2 ) )
00225c 49f7     +SBCI R31 , HIGH ( - _rx_buff - ( 2 ) )
                 	__ADDW1MN _rx_buff,2
00225d 81e0      	LD   R30,Z
00225e 95e6      	LSR  R30
00225f 93ea      	ST   -Y,R30
002260 eca3      	LDI  R26,LOW(195)
002261 940e 2bf0 	CALL _Eeprom
002263 9730      	SBIW R30,0
002264 f411      	BRNE PC+3
002265 940c 22af 	JMP _0xE0071
                 ; 0007 0124 if ( CheckADData(&packed_data[rx_buff[pointer+2]>>1][0]) &&
                 ; 0007 0125 CheckEepData(&packed_data[rx_buff[pointer+2]>>1][8]) ) { /*check checksum */
002267 81ee      	LDD  R30,Y+6
002268 81ff      	LDD  R31,Y+6+1
                +
002269 53e6     +SUBI R30 , LOW ( - _rx_buff - ( 2 ) )
00226a 49f7     +SBCI R31 , HIGH ( - _rx_buff - ( 2 ) )
                 	__ADDW1MN _rx_buff,2
00226b 81e0      	LD   R30,Z
00226c e0f0      	LDI  R31,0
00226d 95f5      	ASR  R31
00226e 95e7      	ROR  R30
00226f e2a8      	LDI  R26,LOW(40)
002270 e0b0      	LDI  R27,HIGH(40)
002271 940e 31aa 	CALL __MULW12U
002273 55eb      	SUBI R30,LOW(-_packed_data)
002274 49f6      	SBCI R31,HIGH(-_packed_data)
002275 01df      	MOVW R26,R30
002276 940e 2fa1 	CALL _CheckADData
002278 30e0      	CPI  R30,0
002279 f411      	BRNE PC+3
00227a 940c 2292 	JMP _0xE0073
00227c 81ee      	LDD  R30,Y+6
00227d 81ff      	LDD  R31,Y+6+1
                +
00227e 53e6     +SUBI R30 , LOW ( - _rx_buff - ( 2 ) )
00227f 49f7     +SBCI R31 , HIGH ( - _rx_buff - ( 2 ) )
                 	__ADDW1MN _rx_buff,2
002280 81e0      	LD   R30,Z
002281 e0f0      	LDI  R31,0
002282 95f5      	ASR  R31
002283 95e7      	ROR  R30
002284 e2a8      	LDI  R26,LOW(40)
002285 e0b0      	LDI  R27,HIGH(40)
002286 940e 31aa 	CALL __MULW12U
                +
002288 55e3     +SUBI R30 , LOW ( - _packed_data - ( 8 ) )
002289 49f6     +SBCI R31 , HIGH ( - _packed_data - ( 8 ) )
                 	__ADDW1MN _packed_data,8
00228a 01df      	MOVW R26,R30
00228b 940e 2fde 	CALL _CheckEepData
00228d 30e0      	CPI  R30,0
00228e f411      	BRNE PC+3
00228f 940c 2292 	JMP _0xE0073
002291 c001      	RJMP _0xE0074
                 _0xE0073:
002292 c01c      	RJMP _0xE0072
                 _0xE0074:
                 ; 0007 0126 eep_type[rx_buff[pointer+2]>>1] |= 0x10 ;     /* OK from eeprom */
002293 81ee      	LDD  R30,Y+6
002294 81ff      	LDD  R31,Y+6+1
                +
002295 53e6     +SUBI R30 , LOW ( - _rx_buff - ( 2 ) )
002296 49f7     +SBCI R31 , HIGH ( - _rx_buff - ( 2 ) )
                 	__ADDW1MN _rx_buff,2
002297 81e0      	LD   R30,Z
002298 e0f0      	LDI  R31,0
002299 95f5      	ASR  R31
00229a 95e7      	ROR  R30
00229b 52e1      	SUBI R30,LOW(-_eep_type)
00229c 49f4      	SBCI R31,HIGH(-_eep_type)
00229d 01df      	MOVW R26,R30
00229e 91ec      	LD   R30,X
00229f 61e0      	ORI  R30,0x10
0022a0 93ec      	ST   X,R30
                 ; 0007 0127 eep_type[rx_buff[pointer+2]>>1] &= ~0x20 ;     /* Error from eeprom */
0022a1 81ee      	LDD  R30,Y+6
0022a2 81ff      	LDD  R31,Y+6+1
                +
0022a3 53e6     +SUBI R30 , LOW ( - _rx_buff - ( 2 ) )
0022a4 49f7     +SBCI R31 , HIGH ( - _rx_buff - ( 2 ) )
                 	__ADDW1MN _rx_buff,2
0022a5 81e0      	LD   R30,Z
0022a6 e0f0      	LDI  R31,0
0022a7 95f5      	ASR  R31
0022a8 95e7      	ROR  R30
0022a9 52e1      	SUBI R30,LOW(-_eep_type)
0022aa 49f4      	SBCI R31,HIGH(-_eep_type)
0022ab 01df      	MOVW R26,R30
0022ac 91ec      	LD   R30,X
0022ad 7def      	ANDI R30,0xDF
0022ae 93ec      	ST   X,R30
                 ; 0007 0128 }
                 ; 0007 0129 }
                 _0xE0072:
                 ; 0007 012A }
                 _0xE0071:
                 ; 0007 012B }
                 _0xE0070:
                 ; 0007 012C break ;
                 _0xE006F:
0022af c0f6      	RJMP _0xE0005
                 ; 0007 012D case REC_FILTER :
                 _0xE006E:
0022b0 31ea      	CPI  R30,LOW(0x1A)
0022b1 e0a0      	LDI  R26,HIGH(0x1A)
0022b2 07fa      	CPC  R31,R26
0022b3 f011      	BREQ PC+3
0022b4 940c 22cc 	JMP _0xE0075
                 ; 0007 012E p_filter = rx_buff[pointer+2] ;
0022b6 81ee      	LDD  R30,Y+6
0022b7 81ff      	LDD  R31,Y+6+1
                +
0022b8 53e6     +SUBI R30 , LOW ( - _rx_buff - ( 2 ) )
0022b9 49f7     +SBCI R31 , HIGH ( - _rx_buff - ( 2 ) )
                 	__ADDW1MN _rx_buff,2
0022ba 81e0      	LD   R30,Z
0022bb 93e0 6be7 	STS  _p_filter,R30
                 ; 0007 012F t_filter = rx_buff[pointer+3] ;
0022bd 81ee      	LDD  R30,Y+6
0022be 81ff      	LDD  R31,Y+6+1
                +
0022bf 53e5     +SUBI R30 , LOW ( - _rx_buff - ( 3 ) )
0022c0 49f7     +SBCI R31 , HIGH ( - _rx_buff - ( 3 ) )
                 	__ADDW1MN _rx_buff,3
0022c1 81e0      	LD   R30,Z
0022c2 93e0 6be8 	STS  _t_filter,R30
                 ; 0007 0130 o_filter = rx_buff[pointer+4] ;                     /* set new filter */
0022c4 81ee      	LDD  R30,Y+6
0022c5 81ff      	LDD  R31,Y+6+1
                +
0022c6 53e4     +SUBI R30 , LOW ( - _rx_buff - ( 4 ) )
0022c7 49f7     +SBCI R31 , HIGH ( - _rx_buff - ( 4 ) )
                 	__ADDW1MN _rx_buff,4
0022c8 81e0      	LD   R30,Z
0022c9 93e0 6be9 	STS  _o_filter,R30
                 ; 0007 0131 break ;                    /* press, temp, other */
0022cb c0da      	RJMP _0xE0005
                 ; 0007 0132 case SEND_CARD_STAT :
                 _0xE0075:
0022cc 31eb      	CPI  R30,LOW(0x1B)
0022cd e0a0      	LDI  R26,HIGH(0x1B)
0022ce 07fa      	CPC  R31,R26
0022cf f011      	BREQ PC+3
0022d0 940c 22e8 	JMP _0xE0076
                 ; 0007 0133 if ( !sendtail ) {                                /* make header ? */
0022d2 91e0 6bed 	LDS  R30,_sendtail
0022d4 30e0      	CPI  R30,0
0022d5 f011      	BREQ PC+3
0022d6 940c 22df 	JMP _0xE0077
                 ; 0007 0134 BuildHeader() ;                             /* Build send packet header */
0022d8 940e 23ab 	CALL _BuildHeader
                 ; 0007 0135 sendtail |= MAKE ;                      /* build tail*/
0022da 91e0 6bed 	LDS  R30,_sendtail
0022dc 60e1      	ORI  R30,1
0022dd 93e0 6bed 	STS  _sendtail,R30
                 ; 0007 0136 }
                 ; 0007 0137 if ( !(sendtail & TX_ERR) ) {
                 _0xE0077:
0022df 91e0 6bed 	LDS  R30,_sendtail
0022e1 70e2      	ANDI R30,LOW(0x2)
0022e2 f011      	BREQ PC+3
0022e3 940c 22e7 	JMP _0xE0078
                 ; 0007 0138 BuildCSData() ;                             /* Build datablock for status */
0022e5 940e 28ff 	CALL _BuildCSData
                 ; 0007 0139 }
                 ; 0007 013A break ;
                 _0xE0078:
0022e7 c0be      	RJMP _0xE0005
                 ; 0007 013B case SEND_SER_NO :                              /* Serial no from eeprom */
                 _0xE0076:
0022e8 31ec      	CPI  R30,LOW(0x1C)
0022e9 e0a0      	LDI  R26,HIGH(0x1C)
0022ea 07fa      	CPC  R31,R26
0022eb f011      	BREQ PC+3
0022ec 940c 2378 	JMP _0xE0079
                 ; 0007 013C if ( !sendtail ) {                                /* make header ? */
0022ee 91e0 6bed 	LDS  R30,_sendtail
0022f0 30e0      	CPI  R30,0
0022f1 f011      	BREQ PC+3
0022f2 940c 22fb 	JMP _0xE007A
                 ; 0007 013D BuildHeader() ;                             /* Build send packet header */
0022f4 940e 23ab 	CALL _BuildHeader
                 ; 0007 013E sendtail |= MAKE ;                      /* build tail*/
0022f6 91e0 6bed 	LDS  R30,_sendtail
0022f8 60e1      	ORI  R30,1
0022f9 93e0 6bed 	STS  _sendtail,R30
                 ; 0007 013F }
                 ; 0007 0140 if ( !(sendtail & TX_ERR) )
                 _0xE007A:
0022fb 91e0 6bed 	LDS  R30,_sendtail
0022fd 70e2      	ANDI R30,LOW(0x2)
0022fe f011      	BREQ PC+3
0022ff 940c 2377 	JMP _0xE007B
                 ; 0007 0141 {
                 ; 0007 0142 tx_buff[tx_indx++] = TX_SER_NO ;
002301 91e0 6990 	LDS  R30,_tx_indx
002303 5fef      	SUBI R30,-LOW(1)
002304 93e0 6990 	STS  _tx_indx,R30
002306 50e1      	SUBI R30,LOW(1)
002307 e0f0      	LDI  R31,0
002308 50e0      	SUBI R30,LOW(-_tx_buff)
002309 49f8      	SBCI R31,HIGH(-_tx_buff)
00230a e3a0      	LDI  R26,LOW(48)
00230b 83a0      	STD  Z+0,R26
                 ; 0007 0143 tx_buff[tx_indx++] = 10 ;
00230c 91e0 6990 	LDS  R30,_tx_indx
00230e 5fef      	SUBI R30,-LOW(1)
00230f 93e0 6990 	STS  _tx_indx,R30
002311 50e1      	SUBI R30,LOW(1)
002312 e0f0      	LDI  R31,0
002313 50e0      	SUBI R30,LOW(-_tx_buff)
002314 49f8      	SBCI R31,HIGH(-_tx_buff)
002315 e0aa      	LDI  R26,LOW(10)
002316 83a0      	STD  Z+0,R26
                 ; 0007 0144 tx_buff[tx_indx++] = rx_buff[pointer+2] ; /*channel no */
002317 91e0 6990 	LDS  R30,_tx_indx
002319 5fef      	SUBI R30,-LOW(1)
00231a 93e0 6990 	STS  _tx_indx,R30
00231c 50e1      	SUBI R30,LOW(1)
00231d e0f0      	LDI  R31,0
00231e 50e0      	SUBI R30,LOW(-_tx_buff)
00231f 49f8      	SBCI R31,HIGH(-_tx_buff)
002320 01df      	MOVW R26,R30
002321 81ee      	LDD  R30,Y+6
002322 81ff      	LDD  R31,Y+6+1
                +
002323 53e6     +SUBI R30 , LOW ( - _rx_buff - ( 2 ) )
002324 49f7     +SBCI R31 , HIGH ( - _rx_buff - ( 2 ) )
                 	__ADDW1MN _rx_buff,2
002325 81e0      	LD   R30,Z
002326 93ec      	ST   X,R30
                 ; 0007 0145 if ( Eeprom(rx_buff[pointer+2]>>1, READ_ROM) )
002327 81ee      	LDD  R30,Y+6
002328 81ff      	LDD  R31,Y+6+1
                +
002329 53e6     +SUBI R30 , LOW ( - _rx_buff - ( 2 ) )
00232a 49f7     +SBCI R31 , HIGH ( - _rx_buff - ( 2 ) )
                 	__ADDW1MN _rx_buff,2
00232b 81e0      	LD   R30,Z
00232c 95e6      	LSR  R30
00232d 93ea      	ST   -Y,R30
00232e e3a3      	LDI  R26,LOW(51)
00232f 940e 2bf0 	CALL _Eeprom
002331 9730      	SBIW R30,0
002332 f411      	BRNE PC+3
002333 940c 2361 	JMP _0xE007C
                 ; 0007 0146 {  /* EEP serial number */
                 ; 0007 0147 tx_indx += 8 ;
002335 91e0 6990 	LDS  R30,_tx_indx
002337 5fe8      	SUBI R30,-LOW(8)
002338 93e0 6990 	STS  _tx_indx,R30
                 ; 0007 0148 if ( Eeprom(rx_buff[pointer+2]>>1, READ_STATUS) ) { /* EEP status register */
00233a 81ee      	LDD  R30,Y+6
00233b 81ff      	LDD  R31,Y+6+1
                +
00233c 53e6     +SUBI R30 , LOW ( - _rx_buff - ( 2 ) )
00233d 49f7     +SBCI R31 , HIGH ( - _rx_buff - ( 2 ) )
                 	__ADDW1MN _rx_buff,2
00233e 81e0      	LD   R30,Z
00233f 95e6      	LSR  R30
002340 93ea      	ST   -Y,R30
002341 e6a6      	LDI  R26,LOW(102)
002342 940e 2bf0 	CALL _Eeprom
002344 9730      	SBIW R30,0
002345 f411      	BRNE PC+3
002346 940c 2355 	JMP _0xE007D
                 ; 0007 0149 tx_buff[tx_indx++] = eep_status ;    /* status */
002348 91e0 6990 	LDS  R30,_tx_indx
00234a 5fef      	SUBI R30,-LOW(1)
00234b 93e0 6990 	STS  _tx_indx,R30
00234d 50e1      	SUBI R30,LOW(1)
00234e e0f0      	LDI  R31,0
00234f 50e0      	SUBI R30,LOW(-_tx_buff)
002350 49f8      	SBCI R31,HIGH(-_tx_buff)
002351 91a0 6ae5 	LDS  R26,_eep_status
002353 83a0      	STD  Z+0,R26
                 ; 0007 014A } else {
002354 c00b      	RJMP _0xE007E
                 _0xE007D:
                 ; 0007 014B tx_buff[tx_indx++] = 0x0f ;          /* status */
002355 91e0 6990 	LDS  R30,_tx_indx
002357 5fef      	SUBI R30,-LOW(1)
002358 93e0 6990 	STS  _tx_indx,R30
00235a 50e1      	SUBI R30,LOW(1)
00235b e0f0      	LDI  R31,0
00235c 50e0      	SUBI R30,LOW(-_tx_buff)
00235d 49f8      	SBCI R31,HIGH(-_tx_buff)
00235e e0af      	LDI  R26,LOW(15)
00235f 83a0      	STD  Z+0,R26
                 ; 0007 014C }
                 _0xE007E:
                 ; 0007 014D }
                 ; 0007 014E else
002360 c016      	RJMP _0xE007F
                 _0xE007C:
                 ; 0007 014F {
                 ; 0007 0150 for ( i = 0; i < 9; i++ )
                +
002361 e000     +LDI R16 , LOW ( 0 )
002362 e010     +LDI R17 , HIGH ( 0 )
                 	__GETWRN 16,17,0
                 _0xE0081:
                +
002363 3009     +CPI R16 , LOW ( 9 )
002364 e0e0     +LDI R30 , HIGH ( 9 )
002365 071e     +CPC R17 , R30
                 	__CPWRN 16,17,9
002366 f010      	BRLO PC+3
002367 940c 2377 	JMP _0xE0082
                 ; 0007 0151 {
                 ; 0007 0152 tx_buff[tx_indx++] = 0x00 ;             /*  send 0's when error */
002369 91e0 6990 	LDS  R30,_tx_indx
00236b 5fef      	SUBI R30,-LOW(1)
00236c 93e0 6990 	STS  _tx_indx,R30
00236e 50e1      	SUBI R30,LOW(1)
00236f e0f0      	LDI  R31,0
002370 50e0      	SUBI R30,LOW(-_tx_buff)
002371 49f8      	SBCI R31,HIGH(-_tx_buff)
002372 e0a0      	LDI  R26,LOW(0)
002373 83a0      	STD  Z+0,R26
                 ; 0007 0153 }
                 _0xE0080:
                +
002374 5f0f     +SUBI R16 , LOW ( - 1 )
002375 4f1f     +SBCI R17 , HIGH ( - 1 )
                 	__ADDWRN 16,17,1
002376 cfec      	RJMP _0xE0081
                 _0xE0082:
                 ; 0007 0154 }
                 _0xE007F:
                 ; 0007 0155 }
                 ; 0007 0156 break ;
                 _0xE007B:
002377 c02e      	RJMP _0xE0005
                 ; 0007 0157 case SEND_ACK :                                     /* No more data, send ack. */
                 _0xE0079:
002378 30e1      	CPI  R30,LOW(0x1)
002379 e0a0      	LDI  R26,HIGH(0x1)
00237a 07fa      	CPC  R31,R26
00237b f011      	BREQ PC+3
00237c 940c 237f 	JMP _0xE0083
                 ; 0007 0158 case NO_MORE_DATA :                             /* No more data */
00237e c004      	RJMP _0xE0084
                 _0xE0083:
00237f 9730      	SBIW R30,0
002380 f011      	BREQ PC+3
002381 940c 23a6 	JMP _0xE0089
                 _0xE0084:
                 ; 0007 0159 if ( sendtail )
002383 91e0 6bed 	LDS  R30,_sendtail
002385 30e0      	CPI  R30,0
002386 f411      	BRNE PC+3
002387 940c 23a3 	JMP _0xE0086
                 ; 0007 015A {
                 ; 0007 015B if ( rx_buff[pointer] == SEND_ACK )
002389 81ee      	LDD  R30,Y+6
00238a 81ff      	LDD  R31,Y+6+1
00238b 53e8      	SUBI R30,LOW(-_rx_buff)
00238c 49f7      	SBCI R31,HIGH(-_rx_buff)
00238d 81a0      	LD   R26,Z
00238e 30a1      	CPI  R26,LOW(0x1)
00238f f011      	BREQ PC+3
002390 940c 239b 	JMP _0xE0087
                 ; 0007 015C {
                 ; 0007 015D BuildTail(TX_ACK, sendtail & TX_ERR) ;  /* Build t. w/ err code */
002392 e0e5      	LDI  R30,LOW(5)
002393 93ea      	ST   -Y,R30
002394 91e0 6bed 	LDS  R30,_sendtail
002396 70e2      	ANDI R30,LOW(0x2)
002397 2fae      	MOV  R26,R30
002398 940e 29b8 	CALL _BuildTail
                 ; 0007 015E }
                 ; 0007 015F else
00239a c008      	RJMP _0xE0088
                 _0xE0087:
                 ; 0007 0160 {
                 ; 0007 0161 BuildTail(NO_MORE_DATA,  sendtail & TX_ERR) ;/* Build tail */
00239b e0e0      	LDI  R30,LOW(0)
00239c 93ea      	ST   -Y,R30
00239d 91e0 6bed 	LDS  R30,_sendtail
00239f 70e2      	ANDI R30,LOW(0x2)
0023a0 2fae      	MOV  R26,R30
0023a1 940e 29b8 	CALL _BuildTail
                 ; 0007 0162 }
                 _0xE0088:
                 ; 0007 0163 }
                 ; 0007 0164 ret_val = FALSE ;
                 _0xE0086:
                +
0023a3 e040     +LDI R20 , LOW ( 0 )
0023a4 e050     +LDI R21 , HIGH ( 0 )
                 	__GETWRN 20,21,0
                 ; 0007 0165 break ;
0023a5 c000      	RJMP _0xE0005
                 ; 0007 0166 default:                                                /* I don't understand this */
                 _0xE0089:
                 ; 0007 0167 break ;
                 ; 0007 0168 }
                 _0xE0005:
                 ; 0007 0169 return ret_val ;
0023a6 01fa      	MOVW R30,R20
0023a7 940e 3158 	CALL __LOADLOCR6
0023a9 96e2      	ADIW R28,50
0023aa 9508      	RET
                 ; 0007 016A }
                 ; .FEND
                 ;void BuildHeader(void)
                 ; 0007 0173 {
                 _BuildHeader:
                 ; .FSTART _BuildHeader
                 ; 0007 0174 tx_indx = 0;
0023ab e0e0      	LDI  R30,LOW(0)
0023ac 93e0 6990 	STS  _tx_indx,R30
                 ; 0007 0175 
                 ; 0007 0176 tx_buff[tx_indx++] = STX ;                  /* STX */
0023ae 5fef      	SUBI R30,-LOW(1)
0023af 93e0 6990 	STS  _tx_indx,R30
0023b1 50e1      	SUBI R30,LOW(1)
0023b2 e0f0      	LDI  R31,0
0023b3 50e0      	SUBI R30,LOW(-_tx_buff)
0023b4 49f8      	SBCI R31,HIGH(-_tx_buff)
0023b5 e0a2      	LDI  R26,LOW(2)
0023b6 83a0      	STD  Z+0,R26
                 ; 0007 0177 tx_buff[tx_indx++] = STX ;                  /* STX */
0023b7 91e0 6990 	LDS  R30,_tx_indx
0023b9 5fef      	SUBI R30,-LOW(1)
0023ba 93e0 6990 	STS  _tx_indx,R30
0023bc 50e1      	SUBI R30,LOW(1)
0023bd e0f0      	LDI  R31,0
0023be 50e0      	SUBI R30,LOW(-_tx_buff)
0023bf 49f8      	SBCI R31,HIGH(-_tx_buff)
0023c0 83a0      	STD  Z+0,R26
                 ; 0007 0178 tx_buff[tx_indx++] = rx_buff[rx_start+1] ; /* Rx address */
0023c1 91e0 6990 	LDS  R30,_tx_indx
0023c3 5fef      	SUBI R30,-LOW(1)
0023c4 93e0 6990 	STS  _tx_indx,R30
0023c6 50e1      	SUBI R30,LOW(1)
0023c7 e0f0      	LDI  R31,0
0023c8 50e0      	SUBI R30,LOW(-_tx_buff)
0023c9 49f8      	SBCI R31,HIGH(-_tx_buff)
0023ca 01df      	MOVW R26,R30
0023cb 91e0 6996 	LDS  R30,_rx_start
0023cd e0f0      	LDI  R31,0
                +
0023ce 53e7     +SUBI R30 , LOW ( - _rx_buff - ( 1 ) )
0023cf 49f7     +SBCI R31 , HIGH ( - _rx_buff - ( 1 ) )
                 	__ADDW1MN _rx_buff,1
0023d0 81e0      	LD   R30,Z
0023d1 93ec      	ST   X,R30
                 ; 0007 0179 tx_buff[tx_indx++] = MYADRESS_LOCAL ;           /* Tx address */
0023d2 91e0 6990 	LDS  R30,_tx_indx
0023d4 5fef      	SUBI R30,-LOW(1)
0023d5 93e0 6990 	STS  _tx_indx,R30
0023d7 50e1      	SUBI R30,LOW(1)
0023d8 e0f0      	LDI  R31,0
0023d9 50e0      	SUBI R30,LOW(-_tx_buff)
0023da 49f8      	SBCI R31,HIGH(-_tx_buff)
0023db e0a9      	LDI  R26,LOW(9)
0023dc 83a0      	STD  Z+0,R26
                 ; 0007 017A tx_buff[tx_indx++] = 0 ;                          /* packlen HB, dont know yet */
0023dd 91e0 6990 	LDS  R30,_tx_indx
0023df 5fef      	SUBI R30,-LOW(1)
0023e0 93e0 6990 	STS  _tx_indx,R30
0023e2 50e1      	SUBI R30,LOW(1)
0023e3 e0f0      	LDI  R31,0
0023e4 50e0      	SUBI R30,LOW(-_tx_buff)
0023e5 49f8      	SBCI R31,HIGH(-_tx_buff)
0023e6 e0a0      	LDI  R26,LOW(0)
0023e7 83a0      	STD  Z+0,R26
                 ; 0007 017B tx_buff[tx_indx++] = 0 ;                     /* packlen LB, dont know yet */
0023e8 91e0 6990 	LDS  R30,_tx_indx
0023ea 5fef      	SUBI R30,-LOW(1)
0023eb 93e0 6990 	STS  _tx_indx,R30
0023ed 50e1      	SUBI R30,LOW(1)
0023ee e0f0      	LDI  R31,0
0023ef 50e0      	SUBI R30,LOW(-_tx_buff)
0023f0 49f8      	SBCI R31,HIGH(-_tx_buff)
0023f1 83a0      	STD  Z+0,R26
                 ; 0007 017C }
0023f2 9508      	RET
                 ; .FEND
                 ;void BuildMPData(void)
                 ; 0007 0184 {
                 _BuildMPData:
                 ; .FSTART _BuildMPData
                 ; 0007 0185 
                 ; 0007 0186 short i, ntna;
                 ; 0007 0187 char senddata[4] ;
                 ; 0007 0188 
                 ; 0007 0189 tx_buff[tx_indx++] = TX_MP_DATA ;           /* action */
0023f3 9724      	SBIW R28,4
0023f4 940e 3153 	CALL __SAVELOCR4
                 ;	i -> R16,R17
                 ;	ntna -> R18,R19
                 ;	senddata -> Y+4
0023f6 91e0 6990 	LDS  R30,_tx_indx
0023f8 5fef      	SUBI R30,-LOW(1)
0023f9 93e0 6990 	STS  _tx_indx,R30
0023fb 50e1      	SUBI R30,LOW(1)
0023fc e0f0      	LDI  R31,0
0023fd 50e0      	SUBI R30,LOW(-_tx_buff)
0023fe 49f8      	SBCI R31,HIGH(-_tx_buff)
0023ff e1ae      	LDI  R26,LOW(30)
002400 83a0      	STD  Z+0,R26
                 ; 0007 018A ntna = tx_indx++ ;                                  /* remember index */
002401 91e0 6990 	LDS  R30,_tx_indx
002403 5fef      	SUBI R30,-LOW(1)
002404 93e0 6990 	STS  _tx_indx,R30
002406 50e1      	SUBI R30,LOW(1)
002407 2f2e      	MOV  R18,R30
002408 2733      	CLR  R19
                 ; 0007 018B for ( i = 0; i < NOIOCH; i++ ) {
                +
002409 e000     +LDI R16 , LOW ( 0 )
00240a e010     +LDI R17 , HIGH ( 0 )
                 	__GETWRN 16,17,0
                 _0xE008B:
                +
00240b 300e     +CPI R16 , LOW ( 14 )
00240c e0e0     +LDI R30 , HIGH ( 14 )
00240d 071e     +CPC R17 , R30
                 	__CPWRN 16,17,14
00240e f010      	BRLO PC+3
00240f 940c 2474 	JMP _0xE008C
                 ; 0007 018C if ( (ch_stat[i] & 0x0c) == 0x0c ) {    /* find pressure sensors */
002411 eda1      	LDI  R26,LOW(_ch_stat)
002412 e6bb      	LDI  R27,HIGH(_ch_stat)
002413 0fa0      	ADD  R26,R16
002414 1fb1      	ADC  R27,R17
002415 91ec      	LD   R30,X
002416 70ec      	ANDI R30,LOW(0xC)
002417 30ec      	CPI  R30,LOW(0xC)
002418 f011      	BREQ PC+3
002419 940c 2471 	JMP _0xE008D
                 ; 0007 018D *((float*)&senddata[0]) = mes_data[i] ;       /* data */
00241b 01f8      	MOVW R30,R16
00241c e2a9      	LDI  R26,LOW(_mes_data)
00241d e6bb      	LDI  R27,HIGH(_mes_data)
00241e 940e 3196 	CALL __LSLW2
002420 0fae      	ADD  R26,R30
002421 1fbf      	ADC  R27,R31
                +
002422 91ed     +LD R30 , X +
002423 91fd     +LD R31 , X +
002424 916d     +LD R22 , X +
002425 917d     +LD R23 , X +
                 	__GETD1P_INC
                +
002426 83ec     +STD Y + 4 , R30
002427 83fd     +STD Y + 4 + 1 , R31
002428 836e     +STD Y + 4 + 2 , R22
002429 837f     +STD Y + 4 + 3 , R23
                 	__PUTD1S 4
                 ; 0007 018E tx_buff[tx_indx++] = i ;                /* channel number */
00242a 91e0 6990 	LDS  R30,_tx_indx
00242c 5fef      	SUBI R30,-LOW(1)
00242d 93e0 6990 	STS  _tx_indx,R30
00242f 50e1      	SUBI R30,LOW(1)
002430 e0f0      	LDI  R31,0
002431 50e0      	SUBI R30,LOW(-_tx_buff)
002432 49f8      	SBCI R31,HIGH(-_tx_buff)
002433 8300      	ST   Z,R16
                 ; 0007 018F tx_buff[tx_indx++] = (ch_stat[i]   ) ;     /* cal/conv status */
002434 91e0 6990 	LDS  R30,_tx_indx
002436 5fef      	SUBI R30,-LOW(1)
002437 93e0 6990 	STS  _tx_indx,R30
002439 50e1      	SUBI R30,LOW(1)
00243a e0f0      	LDI  R31,0
00243b 50e0      	SUBI R30,LOW(-_tx_buff)
00243c 49f8      	SBCI R31,HIGH(-_tx_buff)
00243d 010f      	MOVW R0,R30
00243e eda1      	LDI  R26,LOW(_ch_stat)
00243f e6bb      	LDI  R27,HIGH(_ch_stat)
002440 0fa0      	ADD  R26,R16
002441 1fb1      	ADC  R27,R17
002442 91ec      	LD   R30,X
002443 01d0      	MOVW R26,R0
002444 93ec      	ST   X,R30
                 ; 0007 0190 //            tx_buff[tx_indx++] = senddata[3] ;
                 ; 0007 0191 //            tx_buff[tx_indx++] = senddata[2] ;
                 ; 0007 0192 //            tx_buff[tx_indx++] = senddata[1] ;
                 ; 0007 0193 //            tx_buff[tx_indx++] = senddata[0] ;
                 ; 0007 0194 tx_buff[tx_indx++] = senddata[0] ;
002445 91e0 6990 	LDS  R30,_tx_indx
002447 5fef      	SUBI R30,-LOW(1)
002448 93e0 6990 	STS  _tx_indx,R30
00244a 50e1      	SUBI R30,LOW(1)
00244b e0f0      	LDI  R31,0
00244c 50e0      	SUBI R30,LOW(-_tx_buff)
00244d 49f8      	SBCI R31,HIGH(-_tx_buff)
00244e 81ac      	LDD  R26,Y+4
00244f 83a0      	STD  Z+0,R26
                 ; 0007 0195 tx_buff[tx_indx++] = senddata[1] ;
002450 91e0 6990 	LDS  R30,_tx_indx
002452 5fef      	SUBI R30,-LOW(1)
002453 93e0 6990 	STS  _tx_indx,R30
002455 50e1      	SUBI R30,LOW(1)
002456 e0f0      	LDI  R31,0
002457 50e0      	SUBI R30,LOW(-_tx_buff)
002458 49f8      	SBCI R31,HIGH(-_tx_buff)
002459 81ad      	LDD  R26,Y+5
00245a 83a0      	STD  Z+0,R26
                 ; 0007 0196 tx_buff[tx_indx++] = senddata[2] ;
00245b 91e0 6990 	LDS  R30,_tx_indx
00245d 5fef      	SUBI R30,-LOW(1)
00245e 93e0 6990 	STS  _tx_indx,R30
002460 50e1      	SUBI R30,LOW(1)
002461 e0f0      	LDI  R31,0
002462 50e0      	SUBI R30,LOW(-_tx_buff)
002463 49f8      	SBCI R31,HIGH(-_tx_buff)
002464 81ae      	LDD  R26,Y+6
002465 83a0      	STD  Z+0,R26
                 ; 0007 0197 tx_buff[tx_indx++] = senddata[3] ;
002466 91e0 6990 	LDS  R30,_tx_indx
002468 5fef      	SUBI R30,-LOW(1)
002469 93e0 6990 	STS  _tx_indx,R30
00246b 50e1      	SUBI R30,LOW(1)
00246c e0f0      	LDI  R31,0
00246d 50e0      	SUBI R30,LOW(-_tx_buff)
00246e 49f8      	SBCI R31,HIGH(-_tx_buff)
00246f 81af      	LDD  R26,Y+7
002470 83a0      	STD  Z+0,R26
                 ; 0007 0198 }
                 ; 0007 0199 }
                 _0xE008D:
                 _0xE008A:
                +
002471 5f0f     +SUBI R16 , LOW ( - 1 )
002472 4f1f     +SBCI R17 , HIGH ( - 1 )
                 	__ADDWRN 16,17,1
002473 cf97      	RJMP _0xE008B
                 _0xE008C:
                 ; 0007 019A tx_buff[ntna] = tx_indx - ntna - 1  ;                /* length of data block */
002474 01f9      	MOVW R30,R18
002475 50e0      	SUBI R30,LOW(-_tx_buff)
002476 49f8      	SBCI R31,HIGH(-_tx_buff)
002477 01bf      	MOVW R22,R30
002478 91a0 6990 	LDS  R26,_tx_indx
00247a 1ba2      	SUB  R26,R18
00247b e0e1      	LDI  R30,LOW(1)
00247c 940e 31f6 	CALL __SWAPB12
00247e 1bea      	SUB  R30,R26
00247f 01db      	MOVW R26,R22
002480 93ec      	ST   X,R30
                 ; 0007 019B }
002481 940e 315a 	CALL __LOADLOCR4
002483 9628      	ADIW R28,8
002484 9508      	RET
                 ; .FEND
                 ;void BuildMTData(void)
                 ; 0007 01A3 {
                 _BuildMTData:
                 ; .FSTART _BuildMTData
                 ; 0007 01A4 
                 ; 0007 01A5 short i, ntna;
                 ; 0007 01A6 char senddata[4];
                 ; 0007 01A7 
                 ; 0007 01A8 tx_buff[tx_indx++] = TX_MT_DATA ;           /* action */
002485 9724      	SBIW R28,4
002486 940e 3153 	CALL __SAVELOCR4
                 ;	i -> R16,R17
                 ;	ntna -> R18,R19
                 ;	senddata -> Y+4
002488 91e0 6990 	LDS  R30,_tx_indx
00248a 5fef      	SUBI R30,-LOW(1)
00248b 93e0 6990 	STS  _tx_indx,R30
00248d 50e1      	SUBI R30,LOW(1)
00248e e0f0      	LDI  R31,0
00248f 50e0      	SUBI R30,LOW(-_tx_buff)
002490 49f8      	SBCI R31,HIGH(-_tx_buff)
002491 e1af      	LDI  R26,LOW(31)
002492 83a0      	STD  Z+0,R26
                 ; 0007 01A9 ntna = tx_indx++ ;                                  /* remember index */
002493 91e0 6990 	LDS  R30,_tx_indx
002495 5fef      	SUBI R30,-LOW(1)
002496 93e0 6990 	STS  _tx_indx,R30
002498 50e1      	SUBI R30,LOW(1)
002499 2f2e      	MOV  R18,R30
00249a 2733      	CLR  R19
                 ; 0007 01AA for ( i = 0; i < NOIOCH; i++ ) {
                +
00249b e000     +LDI R16 , LOW ( 0 )
00249c e010     +LDI R17 , HIGH ( 0 )
                 	__GETWRN 16,17,0
                 _0xE008F:
                +
00249d 300e     +CPI R16 , LOW ( 14 )
00249e e0e0     +LDI R30 , HIGH ( 14 )
00249f 071e     +CPC R17 , R30
                 	__CPWRN 16,17,14
0024a0 f010      	BRLO PC+3
0024a1 940c 2506 	JMP _0xE0090
                 ; 0007 01AB if ( (ch_stat[i] & 0x0c)  == 0x04 ) {    /* find temperature sensors */
0024a3 eda1      	LDI  R26,LOW(_ch_stat)
0024a4 e6bb      	LDI  R27,HIGH(_ch_stat)
0024a5 0fa0      	ADD  R26,R16
0024a6 1fb1      	ADC  R27,R17
0024a7 91ec      	LD   R30,X
0024a8 70ec      	ANDI R30,LOW(0xC)
0024a9 30e4      	CPI  R30,LOW(0x4)
0024aa f011      	BREQ PC+3
0024ab 940c 2503 	JMP _0xE0091
                 ; 0007 01AC *((float*)&senddata[0]) = mes_data[i] ;      /* data */
0024ad 01f8      	MOVW R30,R16
0024ae e2a9      	LDI  R26,LOW(_mes_data)
0024af e6bb      	LDI  R27,HIGH(_mes_data)
0024b0 940e 3196 	CALL __LSLW2
0024b2 0fae      	ADD  R26,R30
0024b3 1fbf      	ADC  R27,R31
                +
0024b4 91ed     +LD R30 , X +
0024b5 91fd     +LD R31 , X +
0024b6 916d     +LD R22 , X +
0024b7 917d     +LD R23 , X +
                 	__GETD1P_INC
                +
0024b8 83ec     +STD Y + 4 , R30
0024b9 83fd     +STD Y + 4 + 1 , R31
0024ba 836e     +STD Y + 4 + 2 , R22
0024bb 837f     +STD Y + 4 + 3 , R23
                 	__PUTD1S 4
                 ; 0007 01AD tx_buff[tx_indx++] = i ;                /* channel number */
0024bc 91e0 6990 	LDS  R30,_tx_indx
0024be 5fef      	SUBI R30,-LOW(1)
0024bf 93e0 6990 	STS  _tx_indx,R30
0024c1 50e1      	SUBI R30,LOW(1)
0024c2 e0f0      	LDI  R31,0
0024c3 50e0      	SUBI R30,LOW(-_tx_buff)
0024c4 49f8      	SBCI R31,HIGH(-_tx_buff)
0024c5 8300      	ST   Z,R16
                 ; 0007 01AE tx_buff[tx_indx++] = ( ch_stat[i]  ) ;     /* cal/conv status */
0024c6 91e0 6990 	LDS  R30,_tx_indx
0024c8 5fef      	SUBI R30,-LOW(1)
0024c9 93e0 6990 	STS  _tx_indx,R30
0024cb 50e1      	SUBI R30,LOW(1)
0024cc e0f0      	LDI  R31,0
0024cd 50e0      	SUBI R30,LOW(-_tx_buff)
0024ce 49f8      	SBCI R31,HIGH(-_tx_buff)
0024cf 010f      	MOVW R0,R30
0024d0 eda1      	LDI  R26,LOW(_ch_stat)
0024d1 e6bb      	LDI  R27,HIGH(_ch_stat)
0024d2 0fa0      	ADD  R26,R16
0024d3 1fb1      	ADC  R27,R17
0024d4 91ec      	LD   R30,X
0024d5 01d0      	MOVW R26,R0
0024d6 93ec      	ST   X,R30
                 ; 0007 01AF //            tx_buff[tx_indx++] = senddata[3] ;
                 ; 0007 01B0 //            tx_buff[tx_indx++] = senddata[2] ;
                 ; 0007 01B1 //            tx_buff[tx_indx++] = senddata[1] ;
                 ; 0007 01B2 //            tx_buff[tx_indx++] = senddata[0] ;
                 ; 0007 01B3 
                 ; 0007 01B4 tx_buff[tx_indx++] = senddata[0] ;
0024d7 91e0 6990 	LDS  R30,_tx_indx
0024d9 5fef      	SUBI R30,-LOW(1)
0024da 93e0 6990 	STS  _tx_indx,R30
0024dc 50e1      	SUBI R30,LOW(1)
0024dd e0f0      	LDI  R31,0
0024de 50e0      	SUBI R30,LOW(-_tx_buff)
0024df 49f8      	SBCI R31,HIGH(-_tx_buff)
0024e0 81ac      	LDD  R26,Y+4
0024e1 83a0      	STD  Z+0,R26
                 ; 0007 01B5 tx_buff[tx_indx++] = senddata[1] ;
0024e2 91e0 6990 	LDS  R30,_tx_indx
0024e4 5fef      	SUBI R30,-LOW(1)
0024e5 93e0 6990 	STS  _tx_indx,R30
0024e7 50e1      	SUBI R30,LOW(1)
0024e8 e0f0      	LDI  R31,0
0024e9 50e0      	SUBI R30,LOW(-_tx_buff)
0024ea 49f8      	SBCI R31,HIGH(-_tx_buff)
0024eb 81ad      	LDD  R26,Y+5
0024ec 83a0      	STD  Z+0,R26
                 ; 0007 01B6 tx_buff[tx_indx++] = senddata[2] ;
0024ed 91e0 6990 	LDS  R30,_tx_indx
0024ef 5fef      	SUBI R30,-LOW(1)
0024f0 93e0 6990 	STS  _tx_indx,R30
0024f2 50e1      	SUBI R30,LOW(1)
0024f3 e0f0      	LDI  R31,0
0024f4 50e0      	SUBI R30,LOW(-_tx_buff)
0024f5 49f8      	SBCI R31,HIGH(-_tx_buff)
0024f6 81ae      	LDD  R26,Y+6
0024f7 83a0      	STD  Z+0,R26
                 ; 0007 01B7 tx_buff[tx_indx++] = senddata[3] ;
0024f8 91e0 6990 	LDS  R30,_tx_indx
0024fa 5fef      	SUBI R30,-LOW(1)
0024fb 93e0 6990 	STS  _tx_indx,R30
0024fd 50e1      	SUBI R30,LOW(1)
0024fe e0f0      	LDI  R31,0
0024ff 50e0      	SUBI R30,LOW(-_tx_buff)
002500 49f8      	SBCI R31,HIGH(-_tx_buff)
002501 81af      	LDD  R26,Y+7
002502 83a0      	STD  Z+0,R26
                 ; 0007 01B8 }
                 ; 0007 01B9 }
                 _0xE0091:
                 _0xE008E:
                +
002503 5f0f     +SUBI R16 , LOW ( - 1 )
002504 4f1f     +SBCI R17 , HIGH ( - 1 )
                 	__ADDWRN 16,17,1
002505 cf97      	RJMP _0xE008F
                 _0xE0090:
                 ; 0007 01BA tx_buff[ntna] = tx_indx - ntna - 1 ;                /* length of data block */
002506 01f9      	MOVW R30,R18
002507 50e0      	SUBI R30,LOW(-_tx_buff)
002508 49f8      	SBCI R31,HIGH(-_tx_buff)
002509 01bf      	MOVW R22,R30
00250a 91a0 6990 	LDS  R26,_tx_indx
00250c 1ba2      	SUB  R26,R18
00250d e0e1      	LDI  R30,LOW(1)
00250e 940e 31f6 	CALL __SWAPB12
002510 1bea      	SUB  R30,R26
002511 01db      	MOVW R26,R22
002512 93ec      	ST   X,R30
                 ; 0007 01BB }
002513 940e 315a 	CALL __LOADLOCR4
002515 9628      	ADIW R28,8
002516 9508      	RET
                 ; .FEND
                 ;void BuildMOData(void)
                 ; 0007 01C3 {
                 _BuildMOData:
                 ; .FSTART _BuildMOData
                 ; 0007 01C4 
                 ; 0007 01C5 short i, ntna;
                 ; 0007 01C6 char senddata[4] ;
                 ; 0007 01C7 
                 ; 0007 01C8 tx_buff[tx_indx++] = TX_MO_DATA ;           /* action */
002517 9724      	SBIW R28,4
002518 940e 3153 	CALL __SAVELOCR4
                 ;	i -> R16,R17
                 ;	ntna -> R18,R19
                 ;	senddata -> Y+4
00251a 91e0 6990 	LDS  R30,_tx_indx
00251c 5fef      	SUBI R30,-LOW(1)
00251d 93e0 6990 	STS  _tx_indx,R30
00251f 50e1      	SUBI R30,LOW(1)
002520 e0f0      	LDI  R31,0
002521 50e0      	SUBI R30,LOW(-_tx_buff)
002522 49f8      	SBCI R31,HIGH(-_tx_buff)
002523 e2a0      	LDI  R26,LOW(32)
002524 83a0      	STD  Z+0,R26
                 ; 0007 01C9 ntna = tx_indx++ ;                                  /* remember index */
002525 91e0 6990 	LDS  R30,_tx_indx
002527 5fef      	SUBI R30,-LOW(1)
002528 93e0 6990 	STS  _tx_indx,R30
00252a 50e1      	SUBI R30,LOW(1)
00252b 2f2e      	MOV  R18,R30
00252c 2733      	CLR  R19
                 ; 0007 01CA for ( i = 0; i < NOIOCH; i++ ) {
                +
00252d e000     +LDI R16 , LOW ( 0 )
00252e e010     +LDI R17 , HIGH ( 0 )
                 	__GETWRN 16,17,0
                 _0xE0093:
                +
00252f 300e     +CPI R16 , LOW ( 14 )
002530 e0e0     +LDI R30 , HIGH ( 14 )
002531 071e     +CPC R17 , R30
                 	__CPWRN 16,17,14
002532 f010      	BRLO PC+3
002533 940c 2598 	JMP _0xE0094
                 ; 0007 01CB if ( (ch_stat[i] & 0x0c)  == 0x08 ) {    /* find other sensors */
002535 eda1      	LDI  R26,LOW(_ch_stat)
002536 e6bb      	LDI  R27,HIGH(_ch_stat)
002537 0fa0      	ADD  R26,R16
002538 1fb1      	ADC  R27,R17
002539 91ec      	LD   R30,X
00253a 70ec      	ANDI R30,LOW(0xC)
00253b 30e8      	CPI  R30,LOW(0x8)
00253c f011      	BREQ PC+3
00253d 940c 2595 	JMP _0xE0095
                 ; 0007 01CC *((float*)&senddata[0]) = mes_data[i] ;                               /* data */
00253f 01f8      	MOVW R30,R16
002540 e2a9      	LDI  R26,LOW(_mes_data)
002541 e6bb      	LDI  R27,HIGH(_mes_data)
002542 940e 3196 	CALL __LSLW2
002544 0fae      	ADD  R26,R30
002545 1fbf      	ADC  R27,R31
                +
002546 91ed     +LD R30 , X +
002547 91fd     +LD R31 , X +
002548 916d     +LD R22 , X +
002549 917d     +LD R23 , X +
                 	__GETD1P_INC
                +
00254a 83ec     +STD Y + 4 , R30
00254b 83fd     +STD Y + 4 + 1 , R31
00254c 836e     +STD Y + 4 + 2 , R22
00254d 837f     +STD Y + 4 + 3 , R23
                 	__PUTD1S 4
                 ; 0007 01CD tx_buff[tx_indx++] = i ;                /* channel number */
00254e 91e0 6990 	LDS  R30,_tx_indx
002550 5fef      	SUBI R30,-LOW(1)
002551 93e0 6990 	STS  _tx_indx,R30
002553 50e1      	SUBI R30,LOW(1)
002554 e0f0      	LDI  R31,0
002555 50e0      	SUBI R30,LOW(-_tx_buff)
002556 49f8      	SBCI R31,HIGH(-_tx_buff)
002557 8300      	ST   Z,R16
                 ; 0007 01CE tx_buff[tx_indx++] = ch_stat[i] ;     /* cal/conv status */
002558 91e0 6990 	LDS  R30,_tx_indx
00255a 5fef      	SUBI R30,-LOW(1)
00255b 93e0 6990 	STS  _tx_indx,R30
00255d 50e1      	SUBI R30,LOW(1)
00255e e0f0      	LDI  R31,0
00255f 50e0      	SUBI R30,LOW(-_tx_buff)
002560 49f8      	SBCI R31,HIGH(-_tx_buff)
002561 010f      	MOVW R0,R30
002562 eda1      	LDI  R26,LOW(_ch_stat)
002563 e6bb      	LDI  R27,HIGH(_ch_stat)
002564 0fa0      	ADD  R26,R16
002565 1fb1      	ADC  R27,R17
002566 91ec      	LD   R30,X
002567 01d0      	MOVW R26,R0
002568 93ec      	ST   X,R30
                 ; 0007 01CF //            tx_buff[tx_indx++] = senddata[3] ;
                 ; 0007 01D0 //            tx_buff[tx_indx++] = senddata[2] ;
                 ; 0007 01D1 //            tx_buff[tx_indx++] = senddata[1] ;
                 ; 0007 01D2 //            tx_buff[tx_indx++] = senddata[0] ;
                 ; 0007 01D3 tx_buff[tx_indx++] = senddata[0] ;
002569 91e0 6990 	LDS  R30,_tx_indx
00256b 5fef      	SUBI R30,-LOW(1)
00256c 93e0 6990 	STS  _tx_indx,R30
00256e 50e1      	SUBI R30,LOW(1)
00256f e0f0      	LDI  R31,0
002570 50e0      	SUBI R30,LOW(-_tx_buff)
002571 49f8      	SBCI R31,HIGH(-_tx_buff)
002572 81ac      	LDD  R26,Y+4
002573 83a0      	STD  Z+0,R26
                 ; 0007 01D4 tx_buff[tx_indx++] = senddata[1] ;
002574 91e0 6990 	LDS  R30,_tx_indx
002576 5fef      	SUBI R30,-LOW(1)
002577 93e0 6990 	STS  _tx_indx,R30
002579 50e1      	SUBI R30,LOW(1)
00257a e0f0      	LDI  R31,0
00257b 50e0      	SUBI R30,LOW(-_tx_buff)
00257c 49f8      	SBCI R31,HIGH(-_tx_buff)
00257d 81ad      	LDD  R26,Y+5
00257e 83a0      	STD  Z+0,R26
                 ; 0007 01D5 tx_buff[tx_indx++] = senddata[2] ;
00257f 91e0 6990 	LDS  R30,_tx_indx
002581 5fef      	SUBI R30,-LOW(1)
002582 93e0 6990 	STS  _tx_indx,R30
002584 50e1      	SUBI R30,LOW(1)
002585 e0f0      	LDI  R31,0
002586 50e0      	SUBI R30,LOW(-_tx_buff)
002587 49f8      	SBCI R31,HIGH(-_tx_buff)
002588 81ae      	LDD  R26,Y+6
002589 83a0      	STD  Z+0,R26
                 ; 0007 01D6 tx_buff[tx_indx++] = senddata[3] ;
00258a 91e0 6990 	LDS  R30,_tx_indx
00258c 5fef      	SUBI R30,-LOW(1)
00258d 93e0 6990 	STS  _tx_indx,R30
00258f 50e1      	SUBI R30,LOW(1)
002590 e0f0      	LDI  R31,0
002591 50e0      	SUBI R30,LOW(-_tx_buff)
002592 49f8      	SBCI R31,HIGH(-_tx_buff)
002593 81af      	LDD  R26,Y+7
002594 83a0      	STD  Z+0,R26
                 ; 0007 01D7 }
                 ; 0007 01D8 }
                 _0xE0095:
                 _0xE0092:
                +
002595 5f0f     +SUBI R16 , LOW ( - 1 )
002596 4f1f     +SBCI R17 , HIGH ( - 1 )
                 	__ADDWRN 16,17,1
002597 cf97      	RJMP _0xE0093
                 _0xE0094:
                 ; 0007 01D9 tx_buff[ntna] = tx_indx - ntna - 1  ;               /* length of data block */
002598 01f9      	MOVW R30,R18
002599 50e0      	SUBI R30,LOW(-_tx_buff)
00259a 49f8      	SBCI R31,HIGH(-_tx_buff)
00259b 01bf      	MOVW R22,R30
00259c 91a0 6990 	LDS  R26,_tx_indx
00259e 1ba2      	SUB  R26,R18
00259f e0e1      	LDI  R30,LOW(1)
0025a0 940e 31f6 	CALL __SWAPB12
0025a2 1bea      	SUB  R30,R26
0025a3 01db      	MOVW R26,R22
0025a4 93ec      	ST   X,R30
                 ; 0007 01DA }
0025a5 940e 315a 	CALL __LOADLOCR4
0025a7 9628      	ADIW R28,8
0025a8 9508      	RET
                 ; .FEND
                 ;void BuildWHData(void)
                 ; 0007 01E5 {
                 _BuildWHData:
                 ; .FSTART _BuildWHData
                 ; 0007 01E6 short ntna, i ;
                 ; 0007 01E7 /*  // AN-SGCNV_EXT not connected
                 ; 0007 01E8 if ( P7DR & 0x80 )
                 ; 0007 01E9 {
                 ; 0007 01EA return;
                 ; 0007 01EB }
                 ; 0007 01EC */
                 ; 0007 01ED if (SELECT_EXTBOARD_1 ==1)  // AN-SGCNV_EXT not connected
0025a9 940e 3153 	CALL __SAVELOCR4
                 ;	ntna -> R16,R17
                 ;	i -> R18,R19
0025ab 91e0 0468 	LDS  R30,1128
0025ad 70e1      	ANDI R30,LOW(0x1)
0025ae e0a0      	LDI  R26,LOW(0)
                +
0025af 17ea     +CP R30 , R26
0025b0 e0e1     +LDI R30 , 1
0025b1 f409     +BRNE PC + 2
0025b2 27ee     +CLR R30
                 	__NEB12
0025b3 30e1      	CPI  R30,LOW(0x1)
0025b4 f011      	BREQ PC+3
0025b5 940c 25bb 	JMP _0xE0096
                 ; 0007 01EE {    return;
0025b7 940e 315a 	CALL __LOADLOCR4
0025b9 9624      	ADIW R28,4
0025ba 9508      	RET
                 ; 0007 01EF }
                 ; 0007 01F0 else {
                 _0xE0096:
                 ; 0007 01F1 tx_buff[tx_indx++] = TX_WH_DATA ;               // action
0025bb 91e0 6990 	LDS  R30,_tx_indx
0025bd 5fef      	SUBI R30,-LOW(1)
0025be 93e0 6990 	STS  _tx_indx,R30
0025c0 50e1      	SUBI R30,LOW(1)
0025c1 e0f0      	LDI  R31,0
0025c2 50e0      	SUBI R30,LOW(-_tx_buff)
0025c3 49f8      	SBCI R31,HIGH(-_tx_buff)
0025c4 e3a1      	LDI  R26,LOW(49)
0025c5 83a0      	STD  Z+0,R26
                 ; 0007 01F2 ntna = tx_indx++ ;                              // remember index
0025c6 91e0 6990 	LDS  R30,_tx_indx
0025c8 5fef      	SUBI R30,-LOW(1)
0025c9 93e0 6990 	STS  _tx_indx,R30
0025cb 50e1      	SUBI R30,LOW(1)
0025cc 2f0e      	MOV  R16,R30
0025cd 2711      	CLR  R17
                 ; 0007 01F3 for ( i = 0; i< NOWT; i++ ) {
                +
0025ce e020     +LDI R18 , LOW ( 0 )
0025cf e030     +LDI R19 , HIGH ( 0 )
                 	__GETWRN 18,19,0
                 _0xE0099:
                +
0025d0 3024     +CPI R18 , LOW ( 4 )
0025d1 e0e0     +LDI R30 , HIGH ( 4 )
0025d2 073e     +CPC R19 , R30
                 	__CPWRN 18,19,4
0025d3 f010      	BRLO PC+3
0025d4 940c 260a 	JMP _0xE009A
                 ; 0007 01F4 unsigned short WTCnt = washtrac[i];
                 ; 0007 01F5 washtrac[i] = 0;
0025d6 9722      	SBIW R28,2
                 ;	WTCnt -> Y+0
0025d7 01f9      	MOVW R30,R18
0025d8 e6a2      	LDI  R26,LOW(_washtrac)
0025d9 e6bb      	LDI  R27,HIGH(_washtrac)
0025da 0fee      	LSL  R30
0025db 1fff      	ROL  R31
0025dc 0fae      	ADD  R26,R30
0025dd 1fbf      	ADC  R27,R31
0025de 91ed      	LD   R30,X+
0025df 91fd      	LD   R31,X+
0025e0 83e8      	ST   Y,R30
0025e1 83f9      	STD  Y+1,R31
0025e2 01f9      	MOVW R30,R18
0025e3 e6a2      	LDI  R26,LOW(_washtrac)
0025e4 e6bb      	LDI  R27,HIGH(_washtrac)
0025e5 0fee      	LSL  R30
0025e6 1fff      	ROL  R31
0025e7 0fae      	ADD  R26,R30
0025e8 1fbf      	ADC  R27,R31
0025e9 e0e0      	LDI  R30,LOW(0)
0025ea e0f0      	LDI  R31,HIGH(0)
0025eb 93ed      	ST   X+,R30
0025ec 93fc      	ST   X,R31
                 ; 0007 01F6 tx_buff[tx_indx++] = WTCnt & 0xff;         // add washtrack
0025ed 91e0 6990 	LDS  R30,_tx_indx
0025ef 5fef      	SUBI R30,-LOW(1)
0025f0 93e0 6990 	STS  _tx_indx,R30
0025f2 50e1      	SUBI R30,LOW(1)
0025f3 e0f0      	LDI  R31,0
0025f4 50e0      	SUBI R30,LOW(-_tx_buff)
0025f5 49f8      	SBCI R31,HIGH(-_tx_buff)
0025f6 01df      	MOVW R26,R30
0025f7 81e8      	LD   R30,Y
0025f8 93ec      	ST   X,R30
                 ; 0007 01F7 tx_buff[tx_indx++] = (WTCnt >> 8) & 0xff;         // add washtrack
0025f9 91e0 6990 	LDS  R30,_tx_indx
0025fb 5fef      	SUBI R30,-LOW(1)
0025fc 93e0 6990 	STS  _tx_indx,R30
0025fe 50e1      	SUBI R30,LOW(1)
0025ff e0f0      	LDI  R31,0
002600 50e0      	SUBI R30,LOW(-_tx_buff)
002601 49f8      	SBCI R31,HIGH(-_tx_buff)
002602 01df      	MOVW R26,R30
002603 81e9      	LDD  R30,Y+1
002604 70f0      	ANDI R31,HIGH(0x0)
002605 93ec      	ST   X,R30
                 ; 0007 01F8 }
002606 9622      	ADIW R28,2
                 _0xE0098:
                +
002607 5f2f     +SUBI R18 , LOW ( - 1 )
002608 4f3f     +SBCI R19 , HIGH ( - 1 )
                 	__ADDWRN 18,19,1
002609 cfc6      	RJMP _0xE0099
                 _0xE009A:
                 ; 0007 01F9 tx_buff[tx_indx++] = highlevel;                 // add highlevel
00260a 91e0 6990 	LDS  R30,_tx_indx
00260c 5fef      	SUBI R30,-LOW(1)
00260d 93e0 6990 	STS  _tx_indx,R30
00260f 50e1      	SUBI R30,LOW(1)
002610 e0f0      	LDI  R31,0
002611 50e0      	SUBI R30,LOW(-_tx_buff)
002612 49f8      	SBCI R31,HIGH(-_tx_buff)
002613 91a0 6b61 	LDS  R26,_highlevel
002615 83a0      	STD  Z+0,R26
                 ; 0007 01FA {
                 ; 0007 01FB unsigned short TNow = ms_cnt;
                 ; 0007 01FC ms_cnt = 0;
002616 9722      	SBIW R28,2
                 ;	TNow -> Y+0
002617 91e0 6aed 	LDS  R30,_ms_cnt
002619 91f0 6aee 	LDS  R31,_ms_cnt+1
00261b 83e8      	ST   Y,R30
00261c 83f9      	STD  Y+1,R31
00261d e0e0      	LDI  R30,LOW(0)
00261e 93e0 6aed 	STS  _ms_cnt,R30
002620 93e0 6aee 	STS  _ms_cnt+1,R30
                 ; 0007 01FD tx_buff[tx_indx++] = TNow & 0xff;               // add washtrack
002622 91e0 6990 	LDS  R30,_tx_indx
002624 5fef      	SUBI R30,-LOW(1)
002625 93e0 6990 	STS  _tx_indx,R30
002627 50e1      	SUBI R30,LOW(1)
002628 e0f0      	LDI  R31,0
002629 50e0      	SUBI R30,LOW(-_tx_buff)
00262a 49f8      	SBCI R31,HIGH(-_tx_buff)
00262b 01df      	MOVW R26,R30
00262c 81e8      	LD   R30,Y
00262d 93ec      	ST   X,R30
                 ; 0007 01FE tx_buff[tx_indx++] = (TNow >> 8) & 0xff;        // add washtrack
00262e 91e0 6990 	LDS  R30,_tx_indx
002630 5fef      	SUBI R30,-LOW(1)
002631 93e0 6990 	STS  _tx_indx,R30
002633 50e1      	SUBI R30,LOW(1)
002634 e0f0      	LDI  R31,0
002635 50e0      	SUBI R30,LOW(-_tx_buff)
002636 49f8      	SBCI R31,HIGH(-_tx_buff)
002637 01df      	MOVW R26,R30
002638 81e9      	LDD  R30,Y+1
002639 70f0      	ANDI R31,HIGH(0x0)
00263a 93ec      	ST   X,R30
                 ; 0007 01FF }
00263b 9622      	ADIW R28,2
                 ; 0007 0200 tx_buff[ntna] = tx_indx - ntna - 1 ;            // length of data block
00263c 01f8      	MOVW R30,R16
00263d 50e0      	SUBI R30,LOW(-_tx_buff)
00263e 49f8      	SBCI R31,HIGH(-_tx_buff)
00263f 01bf      	MOVW R22,R30
002640 91a0 6990 	LDS  R26,_tx_indx
002642 1ba0      	SUB  R26,R16
002643 e0e1      	LDI  R30,LOW(1)
002644 940e 31f6 	CALL __SWAPB12
002646 1bea      	SUB  R30,R26
002647 01db      	MOVW R26,R22
002648 93ec      	ST   X,R30
                 ; 0007 0201 }
                 _0xE0097:
                 ; 0007 0202 }
002649 940e 315a 	CALL __LOADLOCR4
00264b 9624      	ADIW R28,4
00264c 9508      	RET
                 ; .FEND
                 ;void BuildRPData(void)
                 ; 0007 020A {
                 _BuildRPData:
                 ; .FSTART _BuildRPData
                 ; 0007 020B 
                 ; 0007 020C short i, ntna ;
                 ; 0007 020D //    char senddata[2];
                 ; 0007 020E 
                 ; 0007 020F tx_buff[tx_indx++] = TX_RP_DATA ;           /* action */
00264d 940e 3153 	CALL __SAVELOCR4
                 ;	i -> R16,R17
                 ;	ntna -> R18,R19
00264f 91e0 6990 	LDS  R30,_tx_indx
002651 5fef      	SUBI R30,-LOW(1)
002652 93e0 6990 	STS  _tx_indx,R30
002654 50e1      	SUBI R30,LOW(1)
002655 e0f0      	LDI  R31,0
002656 50e0      	SUBI R30,LOW(-_tx_buff)
002657 49f8      	SBCI R31,HIGH(-_tx_buff)
002658 e2a1      	LDI  R26,LOW(33)
002659 83a0      	STD  Z+0,R26
                 ; 0007 0210 ntna = tx_indx++ ;                                  /* remember index */
00265a 91e0 6990 	LDS  R30,_tx_indx
00265c 5fef      	SUBI R30,-LOW(1)
00265d 93e0 6990 	STS  _tx_indx,R30
00265f 50e1      	SUBI R30,LOW(1)
002660 2f2e      	MOV  R18,R30
002661 2733      	CLR  R19
                 ; 0007 0211 for ( i = 0; i < NOIOCH; i++ ) {
                +
002662 e000     +LDI R16 , LOW ( 0 )
002663 e010     +LDI R17 , HIGH ( 0 )
                 	__GETWRN 16,17,0
                 _0xE009C:
                +
002664 300e     +CPI R16 , LOW ( 14 )
002665 e0e0     +LDI R30 , HIGH ( 14 )
002666 071e     +CPC R17 , R30
                 	__CPWRN 16,17,14
002667 f010      	BRLO PC+3
002668 940c 26bd 	JMP _0xE009D
                 ; 0007 0212 if ( (ch_stat[i] & 0x0c) == 0x0c )
00266a eda1      	LDI  R26,LOW(_ch_stat)
00266b e6bb      	LDI  R27,HIGH(_ch_stat)
00266c 0fa0      	ADD  R26,R16
00266d 1fb1      	ADC  R27,R17
00266e 91ec      	LD   R30,X
00266f 70ec      	ANDI R30,LOW(0xC)
002670 30ec      	CPI  R30,LOW(0xC)
002671 f011      	BREQ PC+3
002672 940c 26ba 	JMP _0xE009E
                 ; 0007 0213 {    /* find pressure sensors */
                 ; 0007 0214 //            char *senddata = (char*)&raw_data[i] ;                           /* data */
                 ; 0007 0215 tx_buff[tx_indx++] = i ;                /* channel number */
002674 91e0 6990 	LDS  R30,_tx_indx
002676 5fef      	SUBI R30,-LOW(1)
002677 93e0 6990 	STS  _tx_indx,R30
002679 50e1      	SUBI R30,LOW(1)
00267a e0f0      	LDI  R31,0
00267b 50e0      	SUBI R30,LOW(-_tx_buff)
00267c 49f8      	SBCI R31,HIGH(-_tx_buff)
00267d 8300      	ST   Z,R16
                 ; 0007 0216 tx_buff[tx_indx++] = ch_stat[i] ;     /* cal/conv status */
00267e 91e0 6990 	LDS  R30,_tx_indx
002680 5fef      	SUBI R30,-LOW(1)
002681 93e0 6990 	STS  _tx_indx,R30
002683 50e1      	SUBI R30,LOW(1)
002684 e0f0      	LDI  R31,0
002685 50e0      	SUBI R30,LOW(-_tx_buff)
002686 49f8      	SBCI R31,HIGH(-_tx_buff)
002687 010f      	MOVW R0,R30
002688 eda1      	LDI  R26,LOW(_ch_stat)
002689 e6bb      	LDI  R27,HIGH(_ch_stat)
00268a 0fa0      	ADD  R26,R16
00268b 1fb1      	ADC  R27,R17
00268c 91ec      	LD   R30,X
00268d 01d0      	MOVW R26,R0
00268e 93ec      	ST   X,R30
                 ; 0007 0217 //            tx_buff[tx_indx++] = senddata[1] ;            /* data  LB */
                 ; 0007 0218 //            tx_buff[tx_indx++] = senddata[0] ;            /* data  HB */
                 ; 0007 0219 tx_buff[tx_indx++] = raw_data[i]&0x00ff ;            /* data  LB */
00268f 91e0 6990 	LDS  R30,_tx_indx
002691 5fef      	SUBI R30,-LOW(1)
002692 93e0 6990 	STS  _tx_indx,R30
002694 50e1      	SUBI R30,LOW(1)
002695 e0f0      	LDI  R31,0
002696 50e0      	SUBI R30,LOW(-_tx_buff)
002697 49f8      	SBCI R31,HIGH(-_tx_buff)
002698 010f      	MOVW R0,R30
002699 01f8      	MOVW R30,R16
00269a e0ad      	LDI  R26,LOW(_raw_data)
00269b e6bb      	LDI  R27,HIGH(_raw_data)
00269c 0fee      	LSL  R30
00269d 1fff      	ROL  R31
00269e 0fae      	ADD  R26,R30
00269f 1fbf      	ADC  R27,R31
0026a0 91ec      	LD   R30,X
0026a1 01d0      	MOVW R26,R0
0026a2 93ec      	ST   X,R30
                 ; 0007 021A tx_buff[tx_indx++] = raw_data[i] >>8 ;            /* data  HB */
0026a3 91e0 6990 	LDS  R30,_tx_indx
0026a5 5fef      	SUBI R30,-LOW(1)
0026a6 93e0 6990 	STS  _tx_indx,R30
0026a8 50e1      	SUBI R30,LOW(1)
0026a9 e0f0      	LDI  R31,0
0026aa 50e0      	SUBI R30,LOW(-_tx_buff)
0026ab 49f8      	SBCI R31,HIGH(-_tx_buff)
0026ac 010f      	MOVW R0,R30
0026ad 01f8      	MOVW R30,R16
0026ae e0ad      	LDI  R26,LOW(_raw_data)
0026af e6bb      	LDI  R27,HIGH(_raw_data)
0026b0 0fee      	LSL  R30
0026b1 1fff      	ROL  R31
0026b2 0fae      	ADD  R26,R30
0026b3 1fbf      	ADC  R27,R31
0026b4 91ed      	LD   R30,X+
0026b5 91fd      	LD   R31,X+
0026b6 2fef      	MOV  R30,R31
0026b7 e0f0      	LDI  R31,0
0026b8 01d0      	MOVW R26,R0
0026b9 93ec      	ST   X,R30
                 ; 0007 021B }
                 ; 0007 021C }
                 _0xE009E:
                 _0xE009B:
                +
0026ba 5f0f     +SUBI R16 , LOW ( - 1 )
0026bb 4f1f     +SBCI R17 , HIGH ( - 1 )
                 	__ADDWRN 16,17,1
0026bc cfa7      	RJMP _0xE009C
                 _0xE009D:
                 ; 0007 021D tx_buff[ntna] = tx_indx - ntna - 1  ;               /* length of data block */
0026bd 01f9      	MOVW R30,R18
0026be 50e0      	SUBI R30,LOW(-_tx_buff)
0026bf 49f8      	SBCI R31,HIGH(-_tx_buff)
0026c0 01bf      	MOVW R22,R30
0026c1 91a0 6990 	LDS  R26,_tx_indx
0026c3 1ba2      	SUB  R26,R18
0026c4 e0e1      	LDI  R30,LOW(1)
0026c5 940e 31f6 	CALL __SWAPB12
0026c7 1bea      	SUB  R30,R26
0026c8 01db      	MOVW R26,R22
0026c9 93ec      	ST   X,R30
                 ; 0007 021E }
0026ca 940e 315a 	CALL __LOADLOCR4
0026cc 9624      	ADIW R28,4
0026cd 9508      	RET
                 ; .FEND
                 ;void BuildRTData(void)
                 ; 0007 0226 {
                 _BuildRTData:
                 ; .FSTART _BuildRTData
                 ; 0007 0227 
                 ; 0007 0228 short i, ntna ;
                 ; 0007 0229 //    char senddata[2];
                 ; 0007 022A 
                 ; 0007 022B tx_buff[tx_indx++] = TX_RT_DATA ;           /* action */
0026ce 940e 3153 	CALL __SAVELOCR4
                 ;	i -> R16,R17
                 ;	ntna -> R18,R19
0026d0 91e0 6990 	LDS  R30,_tx_indx
0026d2 5fef      	SUBI R30,-LOW(1)
0026d3 93e0 6990 	STS  _tx_indx,R30
0026d5 50e1      	SUBI R30,LOW(1)
0026d6 e0f0      	LDI  R31,0
0026d7 50e0      	SUBI R30,LOW(-_tx_buff)
0026d8 49f8      	SBCI R31,HIGH(-_tx_buff)
0026d9 e2a2      	LDI  R26,LOW(34)
0026da 83a0      	STD  Z+0,R26
                 ; 0007 022C ntna = tx_indx++ ;                                  /* remember index */
0026db 91e0 6990 	LDS  R30,_tx_indx
0026dd 5fef      	SUBI R30,-LOW(1)
0026de 93e0 6990 	STS  _tx_indx,R30
0026e0 50e1      	SUBI R30,LOW(1)
0026e1 2f2e      	MOV  R18,R30
0026e2 2733      	CLR  R19
                 ; 0007 022D for ( i = 0; i < NOIOCH; i++ ) {
                +
0026e3 e000     +LDI R16 , LOW ( 0 )
0026e4 e010     +LDI R17 , HIGH ( 0 )
                 	__GETWRN 16,17,0
                 _0xE00A0:
                +
0026e5 300e     +CPI R16 , LOW ( 14 )
0026e6 e0e0     +LDI R30 , HIGH ( 14 )
0026e7 071e     +CPC R17 , R30
                 	__CPWRN 16,17,14
0026e8 f010      	BRLO PC+3
0026e9 940c 273e 	JMP _0xE00A1
                 ; 0007 022E if ( (ch_stat[i] & 0x0c)  == 0x04 ) {    /* find temperature sensors */
0026eb eda1      	LDI  R26,LOW(_ch_stat)
0026ec e6bb      	LDI  R27,HIGH(_ch_stat)
0026ed 0fa0      	ADD  R26,R16
0026ee 1fb1      	ADC  R27,R17
0026ef 91ec      	LD   R30,X
0026f0 70ec      	ANDI R30,LOW(0xC)
0026f1 30e4      	CPI  R30,LOW(0x4)
0026f2 f011      	BREQ PC+3
0026f3 940c 273b 	JMP _0xE00A2
                 ; 0007 022F //            *((short*)&senddata[0]) = raw_data[i] ;                           /* data */
                 ; 0007 0230 tx_buff[tx_indx++] = i ;                /* channel number */
0026f5 91e0 6990 	LDS  R30,_tx_indx
0026f7 5fef      	SUBI R30,-LOW(1)
0026f8 93e0 6990 	STS  _tx_indx,R30
0026fa 50e1      	SUBI R30,LOW(1)
0026fb e0f0      	LDI  R31,0
0026fc 50e0      	SUBI R30,LOW(-_tx_buff)
0026fd 49f8      	SBCI R31,HIGH(-_tx_buff)
0026fe 8300      	ST   Z,R16
                 ; 0007 0231 tx_buff[tx_indx++] = ch_stat[i] ;     /* cal/conv status */
0026ff 91e0 6990 	LDS  R30,_tx_indx
002701 5fef      	SUBI R30,-LOW(1)
002702 93e0 6990 	STS  _tx_indx,R30
002704 50e1      	SUBI R30,LOW(1)
002705 e0f0      	LDI  R31,0
002706 50e0      	SUBI R30,LOW(-_tx_buff)
002707 49f8      	SBCI R31,HIGH(-_tx_buff)
002708 010f      	MOVW R0,R30
002709 eda1      	LDI  R26,LOW(_ch_stat)
00270a e6bb      	LDI  R27,HIGH(_ch_stat)
00270b 0fa0      	ADD  R26,R16
00270c 1fb1      	ADC  R27,R17
00270d 91ec      	LD   R30,X
00270e 01d0      	MOVW R26,R0
00270f 93ec      	ST   X,R30
                 ; 0007 0232 tx_buff[tx_indx++] = raw_data[i]&0x00ff ;            /* data  LB */
002710 91e0 6990 	LDS  R30,_tx_indx
002712 5fef      	SUBI R30,-LOW(1)
002713 93e0 6990 	STS  _tx_indx,R30
002715 50e1      	SUBI R30,LOW(1)
002716 e0f0      	LDI  R31,0
002717 50e0      	SUBI R30,LOW(-_tx_buff)
002718 49f8      	SBCI R31,HIGH(-_tx_buff)
002719 010f      	MOVW R0,R30
00271a 01f8      	MOVW R30,R16
00271b e0ad      	LDI  R26,LOW(_raw_data)
00271c e6bb      	LDI  R27,HIGH(_raw_data)
00271d 0fee      	LSL  R30
00271e 1fff      	ROL  R31
00271f 0fae      	ADD  R26,R30
002720 1fbf      	ADC  R27,R31
002721 91ec      	LD   R30,X
002722 01d0      	MOVW R26,R0
002723 93ec      	ST   X,R30
                 ; 0007 0233 tx_buff[tx_indx++] = raw_data[i] >>8 ;            /* data  HB */
002724 91e0 6990 	LDS  R30,_tx_indx
002726 5fef      	SUBI R30,-LOW(1)
002727 93e0 6990 	STS  _tx_indx,R30
002729 50e1      	SUBI R30,LOW(1)
00272a e0f0      	LDI  R31,0
00272b 50e0      	SUBI R30,LOW(-_tx_buff)
00272c 49f8      	SBCI R31,HIGH(-_tx_buff)
00272d 010f      	MOVW R0,R30
00272e 01f8      	MOVW R30,R16
00272f e0ad      	LDI  R26,LOW(_raw_data)
002730 e6bb      	LDI  R27,HIGH(_raw_data)
002731 0fee      	LSL  R30
002732 1fff      	ROL  R31
002733 0fae      	ADD  R26,R30
002734 1fbf      	ADC  R27,R31
002735 91ed      	LD   R30,X+
002736 91fd      	LD   R31,X+
002737 2fef      	MOV  R30,R31
002738 e0f0      	LDI  R31,0
002739 01d0      	MOVW R26,R0
00273a 93ec      	ST   X,R30
                 ; 0007 0234 
                 ; 0007 0235 //            tx_buff[tx_indx++] = senddata[0] ;            /* data  HB */
                 ; 0007 0236 //            tx_buff[tx_indx++] = senddata[1] ;            /* data  LB */
                 ; 0007 0237 }
                 ; 0007 0238 }
                 _0xE00A2:
                 _0xE009F:
                +
00273b 5f0f     +SUBI R16 , LOW ( - 1 )
00273c 4f1f     +SBCI R17 , HIGH ( - 1 )
                 	__ADDWRN 16,17,1
00273d cfa7      	RJMP _0xE00A0
                 _0xE00A1:
                 ; 0007 0239 tx_buff[ntna] = tx_indx - ntna - 1  ;               /* length of data block */
00273e 01f9      	MOVW R30,R18
00273f 50e0      	SUBI R30,LOW(-_tx_buff)
002740 49f8      	SBCI R31,HIGH(-_tx_buff)
002741 01bf      	MOVW R22,R30
002742 91a0 6990 	LDS  R26,_tx_indx
002744 1ba2      	SUB  R26,R18
002745 e0e1      	LDI  R30,LOW(1)
002746 940e 31f6 	CALL __SWAPB12
002748 1bea      	SUB  R30,R26
002749 01db      	MOVW R26,R22
00274a 93ec      	ST   X,R30
                 ; 0007 023A }
00274b 940e 315a 	CALL __LOADLOCR4
00274d 9624      	ADIW R28,4
00274e 9508      	RET
                 ; .FEND
                 ;void BuildROData(void)
                 ; 0007 0242 {
                 _BuildROData:
                 ; .FSTART _BuildROData
                 ; 0007 0243 
                 ; 0007 0244 short i, ntna ;
                 ; 0007 0245 //    char senddata[2];
                 ; 0007 0246 
                 ; 0007 0247 tx_buff[tx_indx++] = TX_RO_DATA ;           /* action */
00274f 940e 3153 	CALL __SAVELOCR4
                 ;	i -> R16,R17
                 ;	ntna -> R18,R19
002751 91e0 6990 	LDS  R30,_tx_indx
002753 5fef      	SUBI R30,-LOW(1)
002754 93e0 6990 	STS  _tx_indx,R30
002756 50e1      	SUBI R30,LOW(1)
002757 e0f0      	LDI  R31,0
002758 50e0      	SUBI R30,LOW(-_tx_buff)
002759 49f8      	SBCI R31,HIGH(-_tx_buff)
00275a e2a3      	LDI  R26,LOW(35)
00275b 83a0      	STD  Z+0,R26
                 ; 0007 0248 ntna = tx_indx++ ;                                  /* remember index */
00275c 91e0 6990 	LDS  R30,_tx_indx
00275e 5fef      	SUBI R30,-LOW(1)
00275f 93e0 6990 	STS  _tx_indx,R30
002761 50e1      	SUBI R30,LOW(1)
002762 2f2e      	MOV  R18,R30
002763 2733      	CLR  R19
                 ; 0007 0249 for ( i = 0; i < NOIOCH; i++ ) {
                +
002764 e000     +LDI R16 , LOW ( 0 )
002765 e010     +LDI R17 , HIGH ( 0 )
                 	__GETWRN 16,17,0
                 _0xE00A4:
                +
002766 300e     +CPI R16 , LOW ( 14 )
002767 e0e0     +LDI R30 , HIGH ( 14 )
002768 071e     +CPC R17 , R30
                 	__CPWRN 16,17,14
002769 f010      	BRLO PC+3
00276a 940c 27bf 	JMP _0xE00A5
                 ; 0007 024A if ( (ch_stat[i] & 0x0c)  == 0x08 ) {    /* find other sensors */
00276c eda1      	LDI  R26,LOW(_ch_stat)
00276d e6bb      	LDI  R27,HIGH(_ch_stat)
00276e 0fa0      	ADD  R26,R16
00276f 1fb1      	ADC  R27,R17
002770 91ec      	LD   R30,X
002771 70ec      	ANDI R30,LOW(0xC)
002772 30e8      	CPI  R30,LOW(0x8)
002773 f011      	BREQ PC+3
002774 940c 27bc 	JMP _0xE00A6
                 ; 0007 024B //            *((short*)&senddata[0]) = raw_data[i] ;                           /* data */
                 ; 0007 024C tx_buff[tx_indx++] = i ;                /* channel number */
002776 91e0 6990 	LDS  R30,_tx_indx
002778 5fef      	SUBI R30,-LOW(1)
002779 93e0 6990 	STS  _tx_indx,R30
00277b 50e1      	SUBI R30,LOW(1)
00277c e0f0      	LDI  R31,0
00277d 50e0      	SUBI R30,LOW(-_tx_buff)
00277e 49f8      	SBCI R31,HIGH(-_tx_buff)
00277f 8300      	ST   Z,R16
                 ; 0007 024D tx_buff[tx_indx++] = ch_stat[i] ;     /* cal/conv status */
002780 91e0 6990 	LDS  R30,_tx_indx
002782 5fef      	SUBI R30,-LOW(1)
002783 93e0 6990 	STS  _tx_indx,R30
002785 50e1      	SUBI R30,LOW(1)
002786 e0f0      	LDI  R31,0
002787 50e0      	SUBI R30,LOW(-_tx_buff)
002788 49f8      	SBCI R31,HIGH(-_tx_buff)
002789 010f      	MOVW R0,R30
00278a eda1      	LDI  R26,LOW(_ch_stat)
00278b e6bb      	LDI  R27,HIGH(_ch_stat)
00278c 0fa0      	ADD  R26,R16
00278d 1fb1      	ADC  R27,R17
00278e 91ec      	LD   R30,X
00278f 01d0      	MOVW R26,R0
002790 93ec      	ST   X,R30
                 ; 0007 024E //            tx_buff[tx_indx++] = senddata[1] ;            /* data  LB */
                 ; 0007 024F //            tx_buff[tx_indx++] = senddata[0] ;            /* data  HB */
                 ; 0007 0250 tx_buff[tx_indx++] = raw_data[i]&0x00ff ;            /* data  LB */
002791 91e0 6990 	LDS  R30,_tx_indx
002793 5fef      	SUBI R30,-LOW(1)
002794 93e0 6990 	STS  _tx_indx,R30
002796 50e1      	SUBI R30,LOW(1)
002797 e0f0      	LDI  R31,0
002798 50e0      	SUBI R30,LOW(-_tx_buff)
002799 49f8      	SBCI R31,HIGH(-_tx_buff)
00279a 010f      	MOVW R0,R30
00279b 01f8      	MOVW R30,R16
00279c e0ad      	LDI  R26,LOW(_raw_data)
00279d e6bb      	LDI  R27,HIGH(_raw_data)
00279e 0fee      	LSL  R30
00279f 1fff      	ROL  R31
0027a0 0fae      	ADD  R26,R30
0027a1 1fbf      	ADC  R27,R31
0027a2 91ec      	LD   R30,X
0027a3 01d0      	MOVW R26,R0
0027a4 93ec      	ST   X,R30
                 ; 0007 0251 tx_buff[tx_indx++] = raw_data[i] >>8 ;            /* data  HB */
0027a5 91e0 6990 	LDS  R30,_tx_indx
0027a7 5fef      	SUBI R30,-LOW(1)
0027a8 93e0 6990 	STS  _tx_indx,R30
0027aa 50e1      	SUBI R30,LOW(1)
0027ab e0f0      	LDI  R31,0
0027ac 50e0      	SUBI R30,LOW(-_tx_buff)
0027ad 49f8      	SBCI R31,HIGH(-_tx_buff)
0027ae 010f      	MOVW R0,R30
0027af 01f8      	MOVW R30,R16
0027b0 e0ad      	LDI  R26,LOW(_raw_data)
0027b1 e6bb      	LDI  R27,HIGH(_raw_data)
0027b2 0fee      	LSL  R30
0027b3 1fff      	ROL  R31
0027b4 0fae      	ADD  R26,R30
0027b5 1fbf      	ADC  R27,R31
0027b6 91ed      	LD   R30,X+
0027b7 91fd      	LD   R31,X+
0027b8 2fef      	MOV  R30,R31
0027b9 e0f0      	LDI  R31,0
0027ba 01d0      	MOVW R26,R0
0027bb 93ec      	ST   X,R30
                 ; 0007 0252 
                 ; 0007 0253 }
                 ; 0007 0254 }
                 _0xE00A6:
                 _0xE00A3:
                +
0027bc 5f0f     +SUBI R16 , LOW ( - 1 )
0027bd 4f1f     +SBCI R17 , HIGH ( - 1 )
                 	__ADDWRN 16,17,1
0027be cfa7      	RJMP _0xE00A4
                 _0xE00A5:
                 ; 0007 0255 tx_buff[ntna] = tx_indx - ntna - 1  ;               /* length of data block */
0027bf 01f9      	MOVW R30,R18
0027c0 50e0      	SUBI R30,LOW(-_tx_buff)
0027c1 49f8      	SBCI R31,HIGH(-_tx_buff)
0027c2 01bf      	MOVW R22,R30
0027c3 91a0 6990 	LDS  R26,_tx_indx
0027c5 1ba2      	SUB  R26,R18
0027c6 e0e1      	LDI  R30,LOW(1)
0027c7 940e 31f6 	CALL __SWAPB12
0027c9 1bea      	SUB  R30,R26
0027ca 01db      	MOVW R26,R22
0027cb 93ec      	ST   X,R30
                 ; 0007 0256 }
0027cc 940e 315a 	CALL __LOADLOCR4
0027ce 9624      	ADIW R28,4
0027cf 9508      	RET
                 ; .FEND
                 ;void BuildCalData(void)
                 ; 0007 025E {
                 _BuildCalData:
                 ; .FSTART _BuildCalData
                 ; 0007 025F 
                 ; 0007 0260 short i, ntna ;
                 ; 0007 0261 //    char  senddata[2];
                 ; 0007 0262 
                 ; 0007 0263 tx_buff[tx_indx++] = TX_CAL_DATA ;              /* action */
0027d0 940e 3153 	CALL __SAVELOCR4
                 ;	i -> R16,R17
                 ;	ntna -> R18,R19
0027d2 91e0 6990 	LDS  R30,_tx_indx
0027d4 5fef      	SUBI R30,-LOW(1)
0027d5 93e0 6990 	STS  _tx_indx,R30
0027d7 50e1      	SUBI R30,LOW(1)
0027d8 e0f0      	LDI  R31,0
0027d9 50e0      	SUBI R30,LOW(-_tx_buff)
0027da 49f8      	SBCI R31,HIGH(-_tx_buff)
0027db e2a4      	LDI  R26,LOW(36)
0027dc 83a0      	STD  Z+0,R26
                 ; 0007 0264 ntna = tx_indx++ ;                                  /* remember index */
0027dd 91e0 6990 	LDS  R30,_tx_indx
0027df 5fef      	SUBI R30,-LOW(1)
0027e0 93e0 6990 	STS  _tx_indx,R30
0027e2 50e1      	SUBI R30,LOW(1)
0027e3 2f2e      	MOV  R18,R30
0027e4 2733      	CLR  R19
                 ; 0007 0265 for ( i = 0; i < NOIOCH; i++ ) {
                +
0027e5 e000     +LDI R16 , LOW ( 0 )
0027e6 e010     +LDI R17 , HIGH ( 0 )
                 	__GETWRN 16,17,0
                 _0xE00A8:
                +
0027e7 300e     +CPI R16 , LOW ( 14 )
0027e8 e0e0     +LDI R30 , HIGH ( 14 )
0027e9 071e     +CPC R17 , R30
                 	__CPWRN 16,17,14
0027ea f010      	BRLO PC+3
0027eb 940c 2836 	JMP _0xE00A9
                 ; 0007 0266 //       *((short*)&senddata[0]) = cal_data[i] ;   /* data */
                 ; 0007 0267 tx_buff[tx_indx++] = i ;                        /* channel number */
0027ed 91e0 6990 	LDS  R30,_tx_indx
0027ef 5fef      	SUBI R30,-LOW(1)
0027f0 93e0 6990 	STS  _tx_indx,R30
0027f2 50e1      	SUBI R30,LOW(1)
0027f3 e0f0      	LDI  R31,0
0027f4 50e0      	SUBI R30,LOW(-_tx_buff)
0027f5 49f8      	SBCI R31,HIGH(-_tx_buff)
0027f6 8300      	ST   Z,R16
                 ; 0007 0268 tx_buff[tx_indx++] = ch_stat[i] ;             /* cal status */
0027f7 91e0 6990 	LDS  R30,_tx_indx
0027f9 5fef      	SUBI R30,-LOW(1)
0027fa 93e0 6990 	STS  _tx_indx,R30
0027fc 50e1      	SUBI R30,LOW(1)
0027fd e0f0      	LDI  R31,0
0027fe 50e0      	SUBI R30,LOW(-_tx_buff)
0027ff 49f8      	SBCI R31,HIGH(-_tx_buff)
002800 010f      	MOVW R0,R30
002801 eda1      	LDI  R26,LOW(_ch_stat)
002802 e6bb      	LDI  R27,HIGH(_ch_stat)
002803 0fa0      	ADD  R26,R16
002804 1fb1      	ADC  R27,R17
002805 91ec      	LD   R30,X
002806 01d0      	MOVW R26,R0
002807 93ec      	ST   X,R30
                 ; 0007 0269 tx_buff[tx_indx++] = cal_data[i]&0x00ff ;            /* data  LB */
002808 91e0 6990 	LDS  R30,_tx_indx
00280a 5fef      	SUBI R30,-LOW(1)
00280b 93e0 6990 	STS  _tx_indx,R30
00280d 50e1      	SUBI R30,LOW(1)
00280e e0f0      	LDI  R31,0
00280f 50e0      	SUBI R30,LOW(-_tx_buff)
002810 49f8      	SBCI R31,HIGH(-_tx_buff)
002811 010f      	MOVW R0,R30
002812 01f8      	MOVW R30,R16
002813 efa1      	LDI  R26,LOW(_cal_data)
002814 e6ba      	LDI  R27,HIGH(_cal_data)
002815 0fee      	LSL  R30
002816 1fff      	ROL  R31
002817 0fae      	ADD  R26,R30
002818 1fbf      	ADC  R27,R31
002819 91ec      	LD   R30,X
00281a 01d0      	MOVW R26,R0
00281b 93ec      	ST   X,R30
                 ; 0007 026A tx_buff[tx_indx++] = cal_data[i] >>8 ;            /* data  HB */
00281c 91e0 6990 	LDS  R30,_tx_indx
00281e 5fef      	SUBI R30,-LOW(1)
00281f 93e0 6990 	STS  _tx_indx,R30
002821 50e1      	SUBI R30,LOW(1)
002822 e0f0      	LDI  R31,0
002823 50e0      	SUBI R30,LOW(-_tx_buff)
002824 49f8      	SBCI R31,HIGH(-_tx_buff)
002825 010f      	MOVW R0,R30
002826 01f8      	MOVW R30,R16
002827 efa1      	LDI  R26,LOW(_cal_data)
002828 e6ba      	LDI  R27,HIGH(_cal_data)
002829 0fee      	LSL  R30
00282a 1fff      	ROL  R31
00282b 0fae      	ADD  R26,R30
00282c 1fbf      	ADC  R27,R31
00282d 91ed      	LD   R30,X+
00282e 91fd      	LD   R31,X+
00282f 2fef      	MOV  R30,R31
002830 e0f0      	LDI  R31,0
002831 01d0      	MOVW R26,R0
002832 93ec      	ST   X,R30
                 ; 0007 026B 
                 ; 0007 026C }
                 _0xE00A7:
                +
002833 5f0f     +SUBI R16 , LOW ( - 1 )
002834 4f1f     +SBCI R17 , HIGH ( - 1 )
                 	__ADDWRN 16,17,1
002835 cfb1      	RJMP _0xE00A8
                 _0xE00A9:
                 ; 0007 026D tx_buff[ntna] = tx_indx - ntna - 1  ;             /* length of data block */
002836 01f9      	MOVW R30,R18
002837 50e0      	SUBI R30,LOW(-_tx_buff)
002838 49f8      	SBCI R31,HIGH(-_tx_buff)
002839 01bf      	MOVW R22,R30
00283a 91a0 6990 	LDS  R26,_tx_indx
00283c 1ba2      	SUB  R26,R18
00283d e0e1      	LDI  R30,LOW(1)
00283e 940e 31f6 	CALL __SWAPB12
002840 1bea      	SUB  R30,R26
002841 01db      	MOVW R26,R22
002842 93ec      	ST   X,R30
                 ; 0007 026E }
002843 940e 315a 	CALL __LOADLOCR4
002845 9624      	ADIW R28,4
002846 9508      	RET
                 ; .FEND
                 ;void BuildConfData(void)
                 ; 0007 0276 {
                 _BuildConfData:
                 ; .FSTART _BuildConfData
                 ; 0007 0277 
                 ; 0007 0278 short i, ntna ;
                 ; 0007 0279 
                 ; 0007 027A tx_buff[tx_indx++] = TX_CONFIG ;                  /* action */
002847 940e 3153 	CALL __SAVELOCR4
                 ;	i -> R16,R17
                 ;	ntna -> R18,R19
002849 91e0 6990 	LDS  R30,_tx_indx
00284b 5fef      	SUBI R30,-LOW(1)
00284c 93e0 6990 	STS  _tx_indx,R30
00284e 50e1      	SUBI R30,LOW(1)
00284f e0f0      	LDI  R31,0
002850 50e0      	SUBI R30,LOW(-_tx_buff)
002851 49f8      	SBCI R31,HIGH(-_tx_buff)
002852 e2a5      	LDI  R26,LOW(37)
002853 83a0      	STD  Z+0,R26
                 ; 0007 027B ntna = tx_indx++ ;                                /* remember index */
002854 91e0 6990 	LDS  R30,_tx_indx
002856 5fef      	SUBI R30,-LOW(1)
002857 93e0 6990 	STS  _tx_indx,R30
002859 50e1      	SUBI R30,LOW(1)
00285a 2f2e      	MOV  R18,R30
00285b 2733      	CLR  R19
                 ; 0007 027C for ( i = 0; i < NOIOCH; i++ ) {
                +
00285c e000     +LDI R16 , LOW ( 0 )
00285d e010     +LDI R17 , HIGH ( 0 )
                 	__GETWRN 16,17,0
                 _0xE00AB:
                +
00285e 300e     +CPI R16 , LOW ( 14 )
00285f e0e0     +LDI R30 , HIGH ( 14 )
002860 071e     +CPC R17 , R30
                 	__CPWRN 16,17,14
002861 f010      	BRLO PC+3
002862 940c 2893 	JMP _0xE00AC
                 ; 0007 027D tx_buff[tx_indx++] = i ;                      /* channel number */
002864 91e0 6990 	LDS  R30,_tx_indx
002866 5fef      	SUBI R30,-LOW(1)
002867 93e0 6990 	STS  _tx_indx,R30
002869 50e1      	SUBI R30,LOW(1)
00286a e0f0      	LDI  R31,0
00286b 50e0      	SUBI R30,LOW(-_tx_buff)
00286c 49f8      	SBCI R31,HIGH(-_tx_buff)
00286d 8300      	ST   Z,R16
                 ; 0007 027E tx_buff[tx_indx++] = ch_stat[i] ;             /* channel setup */
00286e 91e0 6990 	LDS  R30,_tx_indx
002870 5fef      	SUBI R30,-LOW(1)
002871 93e0 6990 	STS  _tx_indx,R30
002873 50e1      	SUBI R30,LOW(1)
002874 e0f0      	LDI  R31,0
002875 50e0      	SUBI R30,LOW(-_tx_buff)
002876 49f8      	SBCI R31,HIGH(-_tx_buff)
002877 010f      	MOVW R0,R30
002878 eda1      	LDI  R26,LOW(_ch_stat)
002879 e6bb      	LDI  R27,HIGH(_ch_stat)
00287a 0fa0      	ADD  R26,R16
00287b 1fb1      	ADC  R27,R17
00287c 91ec      	LD   R30,X
00287d 01d0      	MOVW R26,R0
00287e 93ec      	ST   X,R30
                 ; 0007 027F tx_buff[tx_indx++] = eep_type[i >> 1] ;           /* eeprom setup */
00287f 91e0 6990 	LDS  R30,_tx_indx
002881 5fef      	SUBI R30,-LOW(1)
002882 93e0 6990 	STS  _tx_indx,R30
002884 50e1      	SUBI R30,LOW(1)
002885 e0f0      	LDI  R31,0
002886 50e0      	SUBI R30,LOW(-_tx_buff)
002887 49f8      	SBCI R31,HIGH(-_tx_buff)
002888 01df      	MOVW R26,R30
002889 01f8      	MOVW R30,R16
00288a 95f6      	LSR  R31
00288b 95e7      	ROR  R30
00288c 52e1      	SUBI R30,LOW(-_eep_type)
00288d 49f4      	SBCI R31,HIGH(-_eep_type)
00288e 81e0      	LD   R30,Z
00288f 93ec      	ST   X,R30
                 ; 0007 0280 }
                 _0xE00AA:
                +
002890 5f0f     +SUBI R16 , LOW ( - 1 )
002891 4f1f     +SBCI R17 , HIGH ( - 1 )
                 	__ADDWRN 16,17,1
002892 cfcb      	RJMP _0xE00AB
                 _0xE00AC:
                 ; 0007 0281 tx_buff[ntna] = tx_indx - ntna - 1  ;               /* length of data block */
002893 01f9      	MOVW R30,R18
002894 50e0      	SUBI R30,LOW(-_tx_buff)
002895 49f8      	SBCI R31,HIGH(-_tx_buff)
002896 01bf      	MOVW R22,R30
002897 91a0 6990 	LDS  R26,_tx_indx
002899 1ba2      	SUB  R26,R18
00289a e0e1      	LDI  R30,LOW(1)
00289b 940e 31f6 	CALL __SWAPB12
00289d 1bea      	SUB  R30,R26
00289e 01db      	MOVW R26,R22
00289f 93ec      	ST   X,R30
                 ; 0007 0282 }
0028a0 940e 315a 	CALL __LOADLOCR4
0028a2 9624      	ADIW R28,4
0028a3 9508      	RET
                 ; .FEND
                 ;void BuildEepData(unsigned char channel)
                 ; 0007 028A {
                 _BuildEepData:
                 ; .FSTART _BuildEepData
                 ; 0007 028B 
                 ; 0007 028C short i, ntna;
                 ; 0007 028D tx_buff[tx_indx++] = TX_EEP_DATA ;              /* action */
0028a4 940e 3151 	CALL __SAVELOCR6
0028a6 2f5a      	MOV  R21,R26
                 ;	channel -> R21
                 ;	i -> R16,R17
                 ;	ntna -> R18,R19
0028a7 91e0 6990 	LDS  R30,_tx_indx
0028a9 5fef      	SUBI R30,-LOW(1)
0028aa 93e0 6990 	STS  _tx_indx,R30
0028ac 50e1      	SUBI R30,LOW(1)
0028ad e0f0      	LDI  R31,0
0028ae 50e0      	SUBI R30,LOW(-_tx_buff)
0028af 49f8      	SBCI R31,HIGH(-_tx_buff)
0028b0 e2ac      	LDI  R26,LOW(44)
0028b1 83a0      	STD  Z+0,R26
                 ; 0007 028E ntna = tx_indx++ ;                                  /* remember index */
0028b2 91e0 6990 	LDS  R30,_tx_indx
0028b4 5fef      	SUBI R30,-LOW(1)
0028b5 93e0 6990 	STS  _tx_indx,R30
0028b7 50e1      	SUBI R30,LOW(1)
0028b8 2f2e      	MOV  R18,R30
0028b9 2733      	CLR  R19
                 ; 0007 028F tx_buff[tx_indx++] = channel ;          /* channel number */
0028ba 91e0 6990 	LDS  R30,_tx_indx
0028bc 5fef      	SUBI R30,-LOW(1)
0028bd 93e0 6990 	STS  _tx_indx,R30
0028bf 50e1      	SUBI R30,LOW(1)
0028c0 e0f0      	LDI  R31,0
0028c1 50e0      	SUBI R30,LOW(-_tx_buff)
0028c2 49f8      	SBCI R31,HIGH(-_tx_buff)
0028c3 8350      	ST   Z,R21
                 ; 0007 0290 channel >>= 1 ;
0028c4 9556      	LSR  R21
                 ; 0007 0291 for ( i = 0; i < PACKED_DATA_SIZE; i++ ) {
                +
0028c5 e000     +LDI R16 , LOW ( 0 )
0028c6 e010     +LDI R17 , HIGH ( 0 )
                 	__GETWRN 16,17,0
                 _0xE00AE:
                +
0028c7 3208     +CPI R16 , LOW ( 40 )
0028c8 e0e0     +LDI R30 , HIGH ( 40 )
0028c9 071e     +CPC R17 , R30
                 	__CPWRN 16,17,40
0028ca f010      	BRLO PC+3
0028cb 940c 28e4 	JMP _0xE00AF
                 ; 0007 0292 tx_buff[tx_indx++] = packed_data[channel][i]; /* data */
0028cd 91e0 6990 	LDS  R30,_tx_indx
0028cf 5fef      	SUBI R30,-LOW(1)
0028d0 93e0 6990 	STS  _tx_indx,R30
0028d2 50e1      	SUBI R30,LOW(1)
0028d3 e0f0      	LDI  R31,0
0028d4 50e0      	SUBI R30,LOW(-_tx_buff)
0028d5 49f8      	SBCI R31,HIGH(-_tx_buff)
0028d6 01bf      	MOVW R22,R30
0028d7 e2a8      	LDI  R26,LOW(40)
0028d8 9f5a      	MUL  R21,R26
0028d9 01f0      	MOVW R30,R0
0028da 55eb      	SUBI R30,LOW(-_packed_data)
0028db 49f6      	SBCI R31,HIGH(-_packed_data)
0028dc 0fe0      	ADD  R30,R16
0028dd 1ff1      	ADC  R31,R17
0028de 81e0      	LD   R30,Z
0028df 01db      	MOVW R26,R22
0028e0 93ec      	ST   X,R30
                 ; 0007 0293 }
                 _0xE00AD:
                +
0028e1 5f0f     +SUBI R16 , LOW ( - 1 )
0028e2 4f1f     +SBCI R17 , HIGH ( - 1 )
                 	__ADDWRN 16,17,1
0028e3 cfe3      	RJMP _0xE00AE
                 _0xE00AF:
                 ; 0007 0294 tx_buff[ntna] = tx_indx - ntna - 1  ;      /* length of data block */
0028e4 01f9      	MOVW R30,R18
0028e5 50e0      	SUBI R30,LOW(-_tx_buff)
0028e6 49f8      	SBCI R31,HIGH(-_tx_buff)
0028e7 01bf      	MOVW R22,R30
0028e8 91a0 6990 	LDS  R26,_tx_indx
0028ea 1ba2      	SUB  R26,R18
0028eb e0e1      	LDI  R30,LOW(1)
0028ec 940e 31f6 	CALL __SWAPB12
0028ee 1bea      	SUB  R30,R26
0028ef 01db      	MOVW R26,R22
0028f0 93ec      	ST   X,R30
                 ; 0007 0295 ch_stat[channel << 1]  &= ~0x80 ;                  /* Release new sensor flag */
0028f1 2fe5      	MOV  R30,R21
0028f2 e0f0      	LDI  R31,0
0028f3 0fee      	LSL  R30
0028f4 1fff      	ROL  R31
0028f5 52ef      	SUBI R30,LOW(-_ch_stat)
0028f6 49f4      	SBCI R31,HIGH(-_ch_stat)
0028f7 01df      	MOVW R26,R30
0028f8 91ec      	LD   R30,X
0028f9 77ef      	ANDI R30,0x7F
0028fa 93ec      	ST   X,R30
                 ; 0007 0296 }
0028fb 940e 3158 	CALL __LOADLOCR6
0028fd 9626      	ADIW R28,6
0028fe 9508      	RET
                 ; .FEND
                 ;void BuildCSData(void)
                 ; 0007 029E {
                 _BuildCSData:
                 ; .FSTART _BuildCSData
                 ; 0007 029F 
                 ; 0007 02A0 short ntna ;
                 ; 0007 02A1 char senddata[4] ;
                 ; 0007 02A2 
                 ; 0007 02A3 tx_buff[tx_indx++] = TX_CARD_STAT ;         /* action */
0028ff 9724      	SBIW R28,4
002900 931a      	ST   -Y,R17
002901 930a      	ST   -Y,R16
                 ;	ntna -> R16,R17
                 ;	senddata -> Y+2
002902 91e0 6990 	LDS  R30,_tx_indx
002904 5fef      	SUBI R30,-LOW(1)
002905 93e0 6990 	STS  _tx_indx,R30
002907 50e1      	SUBI R30,LOW(1)
002908 e0f0      	LDI  R31,0
002909 50e0      	SUBI R30,LOW(-_tx_buff)
00290a 49f8      	SBCI R31,HIGH(-_tx_buff)
00290b e2af      	LDI  R26,LOW(47)
00290c 83a0      	STD  Z+0,R26
                 ; 0007 02A4 ntna = tx_indx++ ;                                  /* remember index */
00290d 91e0 6990 	LDS  R30,_tx_indx
00290f 5fef      	SUBI R30,-LOW(1)
002910 93e0 6990 	STS  _tx_indx,R30
002912 50e1      	SUBI R30,LOW(1)
002913 2f0e      	MOV  R16,R30
002914 2711      	CLR  R17
                 ; 0007 02A5 tx_buff[tx_indx++] = (unsigned char) VERSION; /* software version */
002915 91e0 6990 	LDS  R30,_tx_indx
002917 5fef      	SUBI R30,-LOW(1)
002918 93e0 6990 	STS  _tx_indx,R30
00291a 50e1      	SUBI R30,LOW(1)
00291b e0f0      	LDI  R31,0
00291c 50e0      	SUBI R30,LOW(-_tx_buff)
00291d 49f8      	SBCI R31,HIGH(-_tx_buff)
00291e e0ae      	LDI  R26,LOW(14)
00291f 83a0      	STD  Z+0,R26
                 ; 0007 02A6 //    tx_buff[tx_indx] = GetMyAddress();        /* get the address */
                 ; 0007 02A7 tx_buff[tx_indx] = MYADRESS_LOCAL;        /* get the address */
002920 91e0 6990 	LDS  R30,_tx_indx
002922 e0f0      	LDI  R31,0
002923 50e0      	SUBI R30,LOW(-_tx_buff)
002924 49f8      	SBCI R31,HIGH(-_tx_buff)
002925 e0a9      	LDI  R26,LOW(9)
002926 83a0      	STD  Z+0,R26
                 ; 0007 02A8 
                 ; 0007 02A9 if ( ad_mode & 0x10 ) {
002927 91e0 6bcb 	LDS  R30,_ad_mode
002929 71e0      	ANDI R30,LOW(0x10)
00292a f411      	BRNE PC+3
00292b 940c 2935 	JMP _0xE00B0
                 ; 0007 02AA tx_buff[tx_indx] |= 0x80 ;                   /* restart flag */
00292d 91a0 6990 	LDS  R26,_tx_indx
00292f e0b0      	LDI  R27,0
002930 50a0      	SUBI R26,LOW(-_tx_buff)
002931 49b8      	SBCI R27,HIGH(-_tx_buff)
002932 91ec      	LD   R30,X
002933 68e0      	ORI  R30,0x80
002934 93ec      	ST   X,R30
                 ; 0007 02AB }
                 ; 0007 02AC tx_indx++  ;
                 _0xE00B0:
002935 91e0 6990 	LDS  R30,_tx_indx
002937 5fef      	SUBI R30,-LOW(1)
002938 93e0 6990 	STS  _tx_indx,R30
                 ; 0007 02AD ad_mode &= ~0x10 ;                                   /* reset restart flag */
00293a 91e0 6bcb 	LDS  R30,_ad_mode
00293c 7eef      	ANDI R30,0xEF
00293d 93e0 6bcb 	STS  _ad_mode,R30
                 ; 0007 02AE tx_buff[tx_indx++] = (unsigned char) RX_SIZE; /* rx buffer size */
00293f 91e0 6990 	LDS  R30,_tx_indx
002941 5fef      	SUBI R30,-LOW(1)
002942 93e0 6990 	STS  _tx_indx,R30
002944 50e1      	SUBI R30,LOW(1)
002945 e0f0      	LDI  R31,0
002946 50e0      	SUBI R30,LOW(-_tx_buff)
002947 49f8      	SBCI R31,HIGH(-_tx_buff)
002948 eca8      	LDI  R26,LOW(200)
002949 83a0      	STD  Z+0,R26
                 ; 0007 02AF tx_buff[tx_indx++] = (unsigned char) TX_SIZE; /* tx buffer size */
00294a 91e0 6990 	LDS  R30,_tx_indx
00294c 5fef      	SUBI R30,-LOW(1)
00294d 93e0 6990 	STS  _tx_indx,R30
00294f 50e1      	SUBI R30,LOW(1)
002950 e0f0      	LDI  R31,0
002951 50e0      	SUBI R30,LOW(-_tx_buff)
002952 49f8      	SBCI R31,HIGH(-_tx_buff)
002953 83a0      	STD  Z+0,R26
                 ; 0007 02B0 tx_buff[tx_indx++] = (unsigned char) cal_zero ;     /* cal zero */
002954 91e0 6990 	LDS  R30,_tx_indx
002956 5fef      	SUBI R30,-LOW(1)
002957 93e0 6990 	STS  _tx_indx,R30
002959 50e1      	SUBI R30,LOW(1)
00295a e0f0      	LDI  R31,0
00295b 50e0      	SUBI R30,LOW(-_tx_buff)
00295c 49f8      	SBCI R31,HIGH(-_tx_buff)
00295d 91a0 6bc3 	LDS  R26,_cal_zero
00295f 83a0      	STD  Z+0,R26
                 ; 0007 02B1 tx_buff[tx_indx++] = (unsigned char) cal_zero >> 8 ;
002960 91e0 6990 	LDS  R30,_tx_indx
002962 5fef      	SUBI R30,-LOW(1)
002963 93e0 6990 	STS  _tx_indx,R30
002965 50e1      	SUBI R30,LOW(1)
002966 e0f0      	LDI  R31,0
002967 50e0      	SUBI R30,LOW(-_tx_buff)
002968 49f8      	SBCI R31,HIGH(-_tx_buff)
002969 01bf      	MOVW R22,R30
00296a e0e8      	LDI  R30,LOW(8)
00296b 940e 3177 	CALL __LSRB12
00296d 01db      	MOVW R26,R22
00296e 93ec      	ST   X,R30
                 ; 0007 02B2 
                 ; 0007 02B3 *((float*)&senddata[0]) = cal_gain ;              /* calibration gain */
00296f 91e0 6bbf 	LDS  R30,_cal_gain
002971 91f0 6bc0 	LDS  R31,_cal_gain+1
002973 9160 6bc1 	LDS  R22,_cal_gain+2
002975 9170 6bc2 	LDS  R23,_cal_gain+3
                +
002977 83ea     +STD Y + 2 , R30
002978 83fb     +STD Y + 2 + 1 , R31
002979 836c     +STD Y + 2 + 2 , R22
00297a 837d     +STD Y + 2 + 3 , R23
                 	__PUTD1S 2
                 ; 0007 02B4 //    tx_buff[tx_indx++] = senddata[3] ;
                 ; 0007 02B5 //    tx_buff[tx_indx++] = senddata[2] ;
                 ; 0007 02B6 //    tx_buff[tx_indx++] = senddata[1] ;
                 ; 0007 02B7 //    tx_buff[tx_indx++] = senddata[0] ;
                 ; 0007 02B8 tx_buff[tx_indx++] = senddata[0] ;
00297b 91e0 6990 	LDS  R30,_tx_indx
00297d 5fef      	SUBI R30,-LOW(1)
00297e 93e0 6990 	STS  _tx_indx,R30
002980 50e1      	SUBI R30,LOW(1)
002981 e0f0      	LDI  R31,0
002982 50e0      	SUBI R30,LOW(-_tx_buff)
002983 49f8      	SBCI R31,HIGH(-_tx_buff)
002984 81aa      	LDD  R26,Y+2
002985 83a0      	STD  Z+0,R26
                 ; 0007 02B9 tx_buff[tx_indx++] = senddata[1] ;
002986 91e0 6990 	LDS  R30,_tx_indx
002988 5fef      	SUBI R30,-LOW(1)
002989 93e0 6990 	STS  _tx_indx,R30
00298b 50e1      	SUBI R30,LOW(1)
00298c e0f0      	LDI  R31,0
00298d 50e0      	SUBI R30,LOW(-_tx_buff)
00298e 49f8      	SBCI R31,HIGH(-_tx_buff)
00298f 81ab      	LDD  R26,Y+3
002990 83a0      	STD  Z+0,R26
                 ; 0007 02BA tx_buff[tx_indx++] = senddata[2] ;
002991 91e0 6990 	LDS  R30,_tx_indx
002993 5fef      	SUBI R30,-LOW(1)
002994 93e0 6990 	STS  _tx_indx,R30
002996 50e1      	SUBI R30,LOW(1)
002997 e0f0      	LDI  R31,0
002998 50e0      	SUBI R30,LOW(-_tx_buff)
002999 49f8      	SBCI R31,HIGH(-_tx_buff)
00299a 81ac      	LDD  R26,Y+4
00299b 83a0      	STD  Z+0,R26
                 ; 0007 02BB tx_buff[tx_indx++] = senddata[3] ;
00299c 91e0 6990 	LDS  R30,_tx_indx
00299e 5fef      	SUBI R30,-LOW(1)
00299f 93e0 6990 	STS  _tx_indx,R30
0029a1 50e1      	SUBI R30,LOW(1)
0029a2 e0f0      	LDI  R31,0
0029a3 50e0      	SUBI R30,LOW(-_tx_buff)
0029a4 49f8      	SBCI R31,HIGH(-_tx_buff)
0029a5 81ad      	LDD  R26,Y+5
0029a6 83a0      	STD  Z+0,R26
                 ; 0007 02BC 
                 ; 0007 02BD tx_buff[ntna] = tx_indx - ntna - 1 ;                /* length of data block */
0029a7 01f8      	MOVW R30,R16
0029a8 50e0      	SUBI R30,LOW(-_tx_buff)
0029a9 49f8      	SBCI R31,HIGH(-_tx_buff)
0029aa 01bf      	MOVW R22,R30
0029ab 91a0 6990 	LDS  R26,_tx_indx
0029ad 1ba0      	SUB  R26,R16
0029ae e0e1      	LDI  R30,LOW(1)
0029af 940e 31f6 	CALL __SWAPB12
0029b1 1bea      	SUB  R30,R26
0029b2 01db      	MOVW R26,R22
0029b3 93ec      	ST   X,R30
                 ; 0007 02BE }
0029b4 8119      	LDD  R17,Y+1
0029b5 8108      	LDD  R16,Y+0
0029b6 9626      	ADIW R28,6
0029b7 9508      	RET
                 ; .FEND
                 ;void BuildTail(unsigned char type, unsigned char error)
                 ; 0007 02C6 {  unsigned char tmp_crc;
                 _BuildTail:
                 ; .FSTART _BuildTail
                 ; 0007 02C7 
                 ; 0007 02C8 tx_buff[tx_indx++] = type ;                 /* action end */
0029b8 940e 3153 	CALL __SAVELOCR4
0029ba 2f0a      	MOV  R16,R26
0029bb 813c      	LDD  R19,Y+4
                 ;	type -> R19
                 ;	error -> R16
                 ;	tmp_crc -> R17
0029bc 91e0 6990 	LDS  R30,_tx_indx
0029be 5fef      	SUBI R30,-LOW(1)
0029bf 93e0 6990 	STS  _tx_indx,R30
0029c1 50e1      	SUBI R30,LOW(1)
0029c2 e0f0      	LDI  R31,0
0029c3 50e0      	SUBI R30,LOW(-_tx_buff)
0029c4 49f8      	SBCI R31,HIGH(-_tx_buff)
0029c5 8330      	ST   Z,R19
                 ; 0007 02C9 tx_buff[tx_indx++] = error ;                /* error code */
0029c6 91e0 6990 	LDS  R30,_tx_indx
0029c8 5fef      	SUBI R30,-LOW(1)
0029c9 93e0 6990 	STS  _tx_indx,R30
0029cb 50e1      	SUBI R30,LOW(1)
0029cc e0f0      	LDI  R31,0
0029cd 50e0      	SUBI R30,LOW(-_tx_buff)
0029ce 49f8      	SBCI R31,HIGH(-_tx_buff)
0029cf 8300      	ST   Z,R16
                 ; 0007 02CA 
                 ; 0007 02CB tx_buff[4] = tx_indx >> 8 ;                /* packet len high */
0029d0 91a0 6990 	LDS  R26,_tx_indx
0029d2 e0e8      	LDI  R30,LOW(8)
0029d3 940e 3177 	CALL __LSRB12
                +
0029d5 93e0 6804+STS _tx_buff + ( 4 ) , R30
                 	__PUTB1MN _tx_buff,4
                 ; 0007 02CC tx_buff[5] = tx_indx ;                          /* correct length because stx's*/
0029d7 91e0 6990 	LDS  R30,_tx_indx
                +
0029d9 93e0 6805+STS _tx_buff + ( 5 ) , R30
                 	__PUTB1MN _tx_buff,5
                 ; 0007 02CD tmp_crc=CalcTxChecksum(tx_indx);
0029db 27bb      	CLR  R27
0029dc 940e 2bd0 	CALL _CalcTxChecksum
0029de 2f1e      	MOV  R17,R30
                 ; 0007 02CE //    BuffCRC[BuffCRC_Index]=tmp_crc;
                 ; 0007 02CF //    BuffCRC_Index++;
                 ; 0007 02D0 //    tx_buff[tx_indx++] = CalcTxChecksum(tx_indx) ; /* Get checksum */
                 ; 0007 02D1 tx_buff[tx_indx++] = tmp_crc ; /* Get checksum */
0029df 91e0 6990 	LDS  R30,_tx_indx
0029e1 5fef      	SUBI R30,-LOW(1)
0029e2 93e0 6990 	STS  _tx_indx,R30
0029e4 50e1      	SUBI R30,LOW(1)
0029e5 e0f0      	LDI  R31,0
0029e6 50e0      	SUBI R30,LOW(-_tx_buff)
0029e7 49f8      	SBCI R31,HIGH(-_tx_buff)
0029e8 8310      	ST   Z,R17
                 ; 0007 02D2 
                 ; 0007 02D3 tx_buff[tx_indx++] = ETX ;                  /* ETX */
0029e9 91e0 6990 	LDS  R30,_tx_indx
0029eb 5fef      	SUBI R30,-LOW(1)
0029ec 93e0 6990 	STS  _tx_indx,R30
0029ee 50e1      	SUBI R30,LOW(1)
0029ef e0f0      	LDI  R31,0
0029f0 50e0      	SUBI R30,LOW(-_tx_buff)
0029f1 49f8      	SBCI R31,HIGH(-_tx_buff)
0029f2 e0a3      	LDI  R26,LOW(3)
0029f3 83a0      	STD  Z+0,R26
                 ; 0007 02D4 
                 ; 0007 02D5 tx_bytes = tx_indx;                         /*bytes to send */
0029f4 91e0 6990 	LDS  R30,_tx_indx
0029f6 93e0 6991 	STS  _tx_bytes,R30
                 ; 0007 02D6 tx_indx = 0;                                    /* reset cunter */
0029f8 e0e0      	LDI  R30,LOW(0)
0029f9 93e0 6990 	STS  _tx_indx,R30
                 ; 0007 02D7 tx_complete = FALSE;
0029fb 93e0 6bec 	STS  _tx_complete,R30
                 ; 0007 02D8 wait_for_pc = PC_SLOW;                      /* delay before send */
0029fd e1e4      	LDI  R30,LOW(20)
0029fe 93e0 6993 	STS  _wait_for_pc,R30
                 ; 0007 02D9 TxDriver(ON);                                   /* driver on */
002a00 e0a1      	LDI  R26,LOW(1)
002a01 940e 06ec 	CALL _TxDriver
                 ; 0007 02DA Led(1, ON) ;
002a03 e0e1      	LDI  R30,LOW(1)
002a04 93ea      	ST   -Y,R30
002a05 e0a1      	LDI  R26,LOW(1)
002a06 940e 066e 	CALL _Led
                 ; 0007 02DB }
002a08 940e 315a 	CALL __LOADLOCR4
002a0a 9625      	ADIW R28,5
002a0b 9508      	RET
                 ; .FEND
                 ;void RecEepData(unsigned int pointer)
                 ; 0007 02E3 {
                 _RecEepData:
                 ; .FSTART _RecEepData
                 ; 0007 02E4 
                 ; 0007 02E5 short i, ch ;
                 ; 0007 02E6 //    unsigned char temp_data[PACKED_DATA_SIZE];
                 ; 0007 02E7 unsigned char   *e_data, *a_data ;
                 ; 0007 02E8 
                 ; 0007 02E9 ch = (rx_buff[pointer++] >> 1 ) ;                               /* get channel */
002a0c 93ba      	ST   -Y,R27
002a0d 93aa      	ST   -Y,R26
002a0e 9722      	SBIW R28,2
002a0f 940e 3151 	CALL __SAVELOCR6
                 ;	pointer -> Y+8
                 ;	i -> R16,R17
                 ;	ch -> R18,R19
                 ;	*e_data -> R20,R21
                 ;	*a_data -> Y+6
002a11 85e8      	LDD  R30,Y+8
002a12 85f9      	LDD  R31,Y+8+1
002a13 9631      	ADIW R30,1
002a14 87e8      	STD  Y+8,R30
002a15 87f9      	STD  Y+8+1,R31
002a16 9731      	SBIW R30,1
002a17 53e8      	SUBI R30,LOW(-_rx_buff)
002a18 49f7      	SBCI R31,HIGH(-_rx_buff)
002a19 81e0      	LD   R30,Z
002a1a e0f0      	LDI  R31,0
002a1b 95f5      	ASR  R31
002a1c 95e7      	ROR  R30
002a1d 019f      	MOVW R18,R30
                 ; 0007 02EA a_data = &rx_buff[pointer] ;
002a1e 85e8      	LDD  R30,Y+8
002a1f 85f9      	LDD  R31,Y+8+1
002a20 53e8      	SUBI R30,LOW(-_rx_buff)
002a21 49f7      	SBCI R31,HIGH(-_rx_buff)
002a22 83ee      	STD  Y+6,R30
002a23 83ff      	STD  Y+6+1,R31
                 ; 0007 02EB e_data = &rx_buff[pointer + 8] ;
002a24 85e8      	LDD  R30,Y+8
002a25 85f9      	LDD  R31,Y+8+1
                +
002a26 53e0     +SUBI R30 , LOW ( - _rx_buff - ( 8 ) )
002a27 49f7     +SBCI R31 , HIGH ( - _rx_buff - ( 8 ) )
                 	__ADDW1MN _rx_buff,8
002a28 01af      	MOVW R20,R30
                 ; 0007 02EC 
                 ; 0007 02ED if ( CheckEepData(e_data) && CheckADData(a_data) &&
                 ; 0007 02EE (rx_buff[pointer + PACKED_DATA_SIZE] & 0x01) ) { /* check legale packet */
002a29 01da      	MOVW R26,R20
002a2a 940e 2fde 	CALL _CheckEepData
002a2c 30e0      	CPI  R30,0
002a2d f411      	BRNE PC+3
002a2e 940c 2a42 	JMP _0xE00B2
002a30 81ae      	LDD  R26,Y+6
002a31 81bf      	LDD  R27,Y+6+1
002a32 940e 2fa1 	CALL _CheckADData
002a34 30e0      	CPI  R30,0
002a35 f411      	BRNE PC+3
002a36 940c 2a42 	JMP _0xE00B2
002a38 85e8      	LDD  R30,Y+8
002a39 85f9      	LDD  R31,Y+8+1
                +
002a3a 51e0     +SUBI R30 , LOW ( - _rx_buff - ( 40 ) )
002a3b 49f7     +SBCI R31 , HIGH ( - _rx_buff - ( 40 ) )
                 	__ADDW1MN _rx_buff,40
002a3c 81e0      	LD   R30,Z
002a3d 70e1      	ANDI R30,LOW(0x1)
002a3e f411      	BRNE PC+3
002a3f 940c 2a42 	JMP _0xE00B2
002a41 c001      	RJMP _0xE00B3
                 _0xE00B2:
002a42 c02c      	RJMP _0xE00B1
                 _0xE00B3:
                 ; 0007 02EF for ( i = 0; i < PACKED_DATA_SIZE; i++ ) {
                +
002a43 e000     +LDI R16 , LOW ( 0 )
002a44 e010     +LDI R17 , HIGH ( 0 )
                 	__GETWRN 16,17,0
                 _0xE00B5:
                +
002a45 3208     +CPI R16 , LOW ( 40 )
002a46 e0e0     +LDI R30 , HIGH ( 40 )
002a47 071e     +CPC R17 , R30
                 	__CPWRN 16,17,40
002a48 f010      	BRLO PC+3
002a49 940c 2a62 	JMP _0xE00B6
                 ; 0007 02F0 packed_data[ch][i] = rx_buff[pointer++];            /* copy data */
                +
002a4b e2a8     +LDI R26 , 40
002a4c 9fa2     +MUL R26 , R18
002a4d 01f0     +MOVW R30 , R0
002a4e 9fa3     +MUL R26 , R19
002a4f 0df0     +ADD R31 , R0
                 	__MULBNWRU 18,19,40
002a50 55eb      	SUBI R30,LOW(-_packed_data)
002a51 49f6      	SBCI R31,HIGH(-_packed_data)
002a52 0fe0      	ADD  R30,R16
002a53 1ff1      	ADC  R31,R17
002a54 01df      	MOVW R26,R30
002a55 85e8      	LDD  R30,Y+8
002a56 85f9      	LDD  R31,Y+8+1
002a57 9631      	ADIW R30,1
002a58 87e8      	STD  Y+8,R30
002a59 87f9      	STD  Y+8+1,R31
002a5a 9731      	SBIW R30,1
002a5b 53e8      	SUBI R30,LOW(-_rx_buff)
002a5c 49f7      	SBCI R31,HIGH(-_rx_buff)
002a5d 81e0      	LD   R30,Z
002a5e 93ec      	ST   X,R30
                 ; 0007 02F1 }
                 _0xE00B4:
                +
002a5f 5f0f     +SUBI R16 , LOW ( - 1 )
002a60 4f1f     +SBCI R17 , HIGH ( - 1 )
                 	__ADDWRN 16,17,1
002a61 cfe3      	RJMP _0xE00B5
                 _0xE00B6:
                 ; 0007 02F2 eep_type[ch] &= ~0x0f ;
002a62 01d9      	MOVW R26,R18
002a63 52a1      	SUBI R26,LOW(-_eep_type)
002a64 49b4      	SBCI R27,HIGH(-_eep_type)
002a65 91ec      	LD   R30,X
002a66 7fe0      	ANDI R30,LOW(0xF0)
002a67 93ec      	ST   X,R30
                 ; 0007 02F3 eep_type[ch] |= 0x09 ;               /* use PC data */
002a68 01d9      	MOVW R26,R18
002a69 52a1      	SUBI R26,LOW(-_eep_type)
002a6a 49b4      	SBCI R27,HIGH(-_eep_type)
002a6b 91ec      	LD   R30,X
002a6c 60e9      	ORI  R30,LOW(0x9)
002a6d 93ec      	ST   X,R30
                 ; 0007 02F4 } else {
002a6e c00c      	RJMP _0xE00B7
                 _0xE00B1:
                 ; 0007 02F5 eep_type[ch] &= ~0x0f ;
002a6f 01d9      	MOVW R26,R18
002a70 52a1      	SUBI R26,LOW(-_eep_type)
002a71 49b4      	SBCI R27,HIGH(-_eep_type)
002a72 91ec      	LD   R30,X
002a73 7fe0      	ANDI R30,LOW(0xF0)
002a74 93ec      	ST   X,R30
                 ; 0007 02F6 eep_type[ch] |= 0x02 ;                          /* fail from pc */
002a75 01d9      	MOVW R26,R18
002a76 52a1      	SUBI R26,LOW(-_eep_type)
002a77 49b4      	SBCI R27,HIGH(-_eep_type)
002a78 91ec      	LD   R30,X
002a79 60e2      	ORI  R30,2
002a7a 93ec      	ST   X,R30
                 ; 0007 02F7 }
                 _0xE00B7:
                 ; 0007 02F8 }
002a7b 940e 3158 	CALL __LOADLOCR6
002a7d 962a      	ADIW R28,10
002a7e 9508      	RET
                 ; .FEND
                 ;void RecOGData(unsigned char pointer)
                 ; 0007 0301 {
                 _RecOGData:
                 ; .FSTART _RecOGData
                 ; 0007 0302 
                 ; 0007 0303 short i, number, channel ;
                 ; 0007 0304 float gai;
                 ; 0007 0305 
                 ; 0007 0306 number = rx_buff[++pointer] / 5 ;   /* number of channels (5 bytes each ch) */
002a7f 93aa      	ST   -Y,R26
002a80 9724      	SBIW R28,4
002a81 940e 3151 	CALL __SAVELOCR6
                 ;	pointer -> Y+10
                 ;	i -> R16,R17
                 ;	number -> R18,R19
                 ;	channel -> R20,R21
                 ;	gai -> Y+6
002a83 85ea      	LDD  R30,Y+10
002a84 5fef      	SUBI R30,-LOW(1)
002a85 87ea      	STD  Y+10,R30
002a86 e0f0      	LDI  R31,0
002a87 53e8      	SUBI R30,LOW(-_rx_buff)
002a88 49f7      	SBCI R31,HIGH(-_rx_buff)
002a89 81a0      	LD   R26,Z
002a8a e0b0      	LDI  R27,0
002a8b e0e5      	LDI  R30,LOW(5)
002a8c e0f0      	LDI  R31,HIGH(5)
002a8d 940e 31d0 	CALL __DIVW21
002a8f 019f      	MOVW R18,R30
                 ; 0007 0307 for ( i = 0; i < number; i++ ) {
                +
002a90 e000     +LDI R16 , LOW ( 0 )
002a91 e010     +LDI R17 , HIGH ( 0 )
                 	__GETWRN 16,17,0
                 _0xE00B9:
                +
002a92 1702     +CP R16 , R18
002a93 0713     +CPC R17 , R19
                 	__CPWRR 16,17,18,19
002a94 f010      	BRLO PC+3
002a95 940c 2b1d 	JMP _0xE00BA
                 ; 0007 0308 channel = rx_buff[++pointer] ;         /* Remember channel */
002a97 85ea      	LDD  R30,Y+10
002a98 5fef      	SUBI R30,-LOW(1)
002a99 87ea      	STD  Y+10,R30
002a9a e0f0      	LDI  R31,0
002a9b 53e8      	SUBI R30,LOW(-_rx_buff)
002a9c 49f7      	SBCI R31,HIGH(-_rx_buff)
002a9d 8140      	LD   R20,Z
002a9e 2755      	CLR  R21
                 ; 0007 0309 /* Must be like this due to error in compiler, compiles from right to left!!! */
                 ; 0007 030A offset[channel] = (rx_buff[++pointer] * 256) ;
002a9f 01fa      	MOVW R30,R20
002aa0 eaa3      	LDI  R26,LOW(_offset)
002aa1 e6bb      	LDI  R27,HIGH(_offset)
002aa2 0fee      	LSL  R30
002aa3 1fff      	ROL  R31
002aa4 0fea      	ADD  R30,R26
002aa5 1ffb      	ADC  R31,R27
002aa6 01bf      	MOVW R22,R30
002aa7 85ea      	LDD  R30,Y+10
002aa8 5fef      	SUBI R30,-LOW(1)
002aa9 87ea      	STD  Y+10,R30
002aaa e0f0      	LDI  R31,0
002aab 53e8      	SUBI R30,LOW(-_rx_buff)
002aac 49f7      	SBCI R31,HIGH(-_rx_buff)
002aad 81a0      	LD   R26,Z
002aae e0b0      	LDI  R27,0
002aaf e0e0      	LDI  R30,LOW(256)
002ab0 e0f1      	LDI  R31,HIGH(256)
002ab1 940e 31b8 	CALL __MULW12
002ab3 01db      	MOVW R26,R22
002ab4 93ed      	ST   X+,R30
002ab5 93fc      	ST   X,R31
                 ; 0007 030B offset[channel] += rx_buff[++pointer] ;
002ab6 01fa      	MOVW R30,R20
002ab7 eaa3      	LDI  R26,LOW(_offset)
002ab8 e6bb      	LDI  R27,HIGH(_offset)
002ab9 0fee      	LSL  R30
002aba 1fff      	ROL  R31
002abb 0fea      	ADD  R30,R26
002abc 1ffb      	ADC  R31,R27
002abd 010f      	MOVW R0,R30
002abe 01df      	MOVW R26,R30
002abf 91ed      	LD   R30,X+
002ac0 91fd      	LD   R31,X+
002ac1 01df      	MOVW R26,R30
002ac2 85ea      	LDD  R30,Y+10
002ac3 5fef      	SUBI R30,-LOW(1)
002ac4 87ea      	STD  Y+10,R30
002ac5 e0f0      	LDI  R31,0
002ac6 53e8      	SUBI R30,LOW(-_rx_buff)
002ac7 49f7      	SBCI R31,HIGH(-_rx_buff)
002ac8 81e0      	LD   R30,Z
002ac9 e0f0      	LDI  R31,0
002aca 0fea      	ADD  R30,R26
002acb 1ffb      	ADC  R31,R27
002acc 01d0      	MOVW R26,R0
002acd 93ed      	ST   X+,R30
002ace 93fc      	ST   X,R31
                 ; 0007 030C /* Must be like this due to error in compiler, compiles from right to left!!! */
                 ; 0007 030D gai = (float)(rx_buff[++pointer]) * 256.0 ;
002acf 85ea      	LDD  R30,Y+10
002ad0 5fef      	SUBI R30,-LOW(1)
002ad1 87ea      	STD  Y+10,R30
002ad2 e0f0      	LDI  R31,0
002ad3 53e8      	SUBI R30,LOW(-_rx_buff)
002ad4 49f7      	SBCI R31,HIGH(-_rx_buff)
002ad5 81e0      	LD   R30,Z
002ad6 27ff      	CLR  R31
002ad7 2766      	CLR  R22
002ad8 2777      	CLR  R23
002ad9 940e 328f 	CALL __CDF1
                +
002adb e0a0     +LDI R26 , LOW ( 0x43800000 )
002adc e0b0     +LDI R27 , HIGH ( 0x43800000 )
002add e880     +LDI R24 , BYTE3 ( 0x43800000 )
002ade e493     +LDI R25 , BYTE4 ( 0x43800000 )
                 	__GETD2N 0x43800000
002adf 940e 3318 	CALL __MULF12
                +
002ae1 83ee     +STD Y + 6 , R30
002ae2 83ff     +STD Y + 6 + 1 , R31
002ae3 8768     +STD Y + 6 + 2 , R22
002ae4 8779     +STD Y + 6 + 3 , R23
                 	__PUTD1S 6
                 ; 0007 030E gai += (float)(rx_buff[++pointer]) ;
002ae5 85ea      	LDD  R30,Y+10
002ae6 5fef      	SUBI R30,-LOW(1)
002ae7 87ea      	STD  Y+10,R30
002ae8 e0f0      	LDI  R31,0
002ae9 53e8      	SUBI R30,LOW(-_rx_buff)
002aea 49f7      	SBCI R31,HIGH(-_rx_buff)
002aeb 81e0      	LD   R30,Z
002aec 27ff      	CLR  R31
002aed 2766      	CLR  R22
002aee 2777      	CLR  R23
002aef 940e 328f 	CALL __CDF1
                +
002af1 81ae     +LDD R26 , Y + 6
002af2 81bf     +LDD R27 , Y + 6 + 1
002af3 8588     +LDD R24 , Y + 6 + 2
002af4 8599     +LDD R25 , Y + 6 + 3
                 	__GETD2S 6
002af5 940e 32c9 	CALL __ADDF12
                +
002af7 83ee     +STD Y + 6 , R30
002af8 83ff     +STD Y + 6 + 1 , R31
002af9 8768     +STD Y + 6 + 2 , R22
002afa 8779     +STD Y + 6 + 3 , R23
                 	__PUTD1S 6
                 ; 0007 030F gain[channel] = 1.0 + (gai / 100000.0) ;   /*gain*/
002afb 01fa      	MOVW R30,R20
002afc e6ab      	LDI  R26,LOW(_gain)
002afd e6bb      	LDI  R27,HIGH(_gain)
002afe 940e 3196 	CALL __LSLW2
002b00 0fea      	ADD  R30,R26
002b01 1ffb      	ADC  R31,R27
002b02 93ff      	PUSH R31
002b03 93ef      	PUSH R30
                +
002b04 81ae     +LDD R26 , Y + 6
002b05 81bf     +LDD R27 , Y + 6 + 1
002b06 8588     +LDD R24 , Y + 6 + 2
002b07 8599     +LDD R25 , Y + 6 + 3
                 	__GETD2S 6
                +
002b08 e0e0     +LDI R30 , LOW ( 0x47C35000 )
002b09 e5f0     +LDI R31 , HIGH ( 0x47C35000 )
002b0a ec63     +LDI R22 , BYTE3 ( 0x47C35000 )
002b0b e477     +LDI R23 , BYTE4 ( 0x47C35000 )
                 	__GETD1N 0x47C35000
002b0c 940e 3366 	CALL __DIVF21
                +
002b0e e0a0     +LDI R26 , LOW ( 0x3F800000 )
002b0f e0b0     +LDI R27 , HIGH ( 0x3F800000 )
002b10 e880     +LDI R24 , BYTE3 ( 0x3F800000 )
002b11 e39f     +LDI R25 , BYTE4 ( 0x3F800000 )
                 	__GETD2N 0x3F800000
002b12 940e 32c9 	CALL __ADDF12
002b14 91af      	POP  R26
002b15 91bf      	POP  R27
                +
002b16 93ed     +ST X + , R30
002b17 93fd     +ST X + , R31
002b18 936d     +ST X + , R22
002b19 937c     +ST X , R23
                 	__PUTDP1
                 ; 0007 0310 }
                 _0xE00B8:
                +
002b1a 5f0f     +SUBI R16 , LOW ( - 1 )
002b1b 4f1f     +SBCI R17 , HIGH ( - 1 )
                 	__ADDWRN 16,17,1
002b1c cf75      	RJMP _0xE00B9
                 _0xE00BA:
                 ; 0007 0311 }
002b1d 940e 3158 	CALL __LOADLOCR6
002b1f 962b      	ADIW R28,11
002b20 9508      	RET
                 ; .FEND
                 ;void RecSetupData(unsigned char pointer)
                 ; 0007 031A {
                 _RecSetupData:
                 ; .FSTART _RecSetupData
                 ; 0007 031B unsigned char temp;
                 ; 0007 031C short i, test ;
                 ; 0007 031D unsigned char d_buff[PACKED_DATA_SIZE] ;
                 ; 0007 031E 
                 ; 0007 031F for ( i = 0; i < NOIOCH; i++ )
002b21 97a8      	SBIW R28,40
002b22 940e 3151 	CALL __SAVELOCR6
002b24 2f0a      	MOV  R16,R26
                 ;	pointer -> R16
                 ;	temp -> R17
                 ;	i -> R18,R19
                 ;	test -> R20,R21
                 ;	d_buff -> Y+6
                +
002b25 e020     +LDI R18 , LOW ( 0 )
002b26 e030     +LDI R19 , HIGH ( 0 )
                 	__GETWRN 18,19,0
                 _0xE00BC:
                +
002b27 302e     +CPI R18 , LOW ( 14 )
002b28 e0e0     +LDI R30 , HIGH ( 14 )
002b29 073e     +CPC R19 , R30
                 	__CPWRN 18,19,14
002b2a f010      	BRLO PC+3
002b2b 940c 2b44 	JMP _0xE00BD
                 ; 0007 0320 {
                 ; 0007 0321 ch_stat[i] &= ~0x1c ;
002b2d 01d9      	MOVW R26,R18
002b2e 52af      	SUBI R26,LOW(-_ch_stat)
002b2f 49b4      	SBCI R27,HIGH(-_ch_stat)
002b30 91ec      	LD   R30,X
002b31 7ee3      	ANDI R30,LOW(0xE3)
002b32 93ec      	ST   X,R30
                 ; 0007 0322 //        ch_stat[i] |= (rx_buff[pointer++] & 0x1c);  /* Setup for channel */
                 ; 0007 0323 temp= rx_buff[pointer] & 0x1c;
002b33 2fe0      	MOV  R30,R16
002b34 e0f0      	LDI  R31,0
002b35 53e8      	SUBI R30,LOW(-_rx_buff)
002b36 49f7      	SBCI R31,HIGH(-_rx_buff)
002b37 81e0      	LD   R30,Z
002b38 71ec      	ANDI R30,LOW(0x1C)
002b39 2f1e      	MOV  R17,R30
                 ; 0007 0324 ch_stat[i] |= temp;  /* Setup for channel */
002b3a 01d9      	MOVW R26,R18
002b3b 52af      	SUBI R26,LOW(-_ch_stat)
002b3c 49b4      	SBCI R27,HIGH(-_ch_stat)
002b3d 91ec      	LD   R30,X
002b3e 2be1      	OR   R30,R17
002b3f 93ec      	ST   X,R30
                 ; 0007 0325 pointer++;
002b40 5f0f      	SUBI R16,-1
                 ; 0007 0326 }
                 _0xE00BB:
                +
002b41 5f2f     +SUBI R18 , LOW ( - 1 )
002b42 4f3f     +SBCI R19 , HIGH ( - 1 )
                 	__ADDWRN 18,19,1
002b43 cfe3      	RJMP _0xE00BC
                 _0xE00BD:
                 ; 0007 0327 if ( rx_buff[pointer] )
002b44 2fe0      	MOV  R30,R16
002b45 e0f0      	LDI  R31,0
002b46 53e8      	SUBI R30,LOW(-_rx_buff)
002b47 49f7      	SBCI R31,HIGH(-_rx_buff)
002b48 81e0      	LD   R30,Z
002b49 30e0      	CPI  R30,0
002b4a f411      	BRNE PC+3
002b4b 940c 2bc3 	JMP _0xE00BE
                 ; 0007 0328 {
                 ; 0007 0329 for ( i = 0; i < NOIOCH; i++ ) {
                +
002b4d e020     +LDI R18 , LOW ( 0 )
002b4e e030     +LDI R19 , HIGH ( 0 )
                 	__GETWRN 18,19,0
                 _0xE00C0:
                +
002b4f 302e     +CPI R18 , LOW ( 14 )
002b50 e0e0     +LDI R30 , HIGH ( 14 )
002b51 073e     +CPC R19 , R30
                 	__CPWRN 18,19,14
002b52 f010      	BRLO PC+3
002b53 940c 2b67 	JMP _0xE00C1
                 ; 0007 032A packed_data[7][i+8] = (ch_stat[i] & 0x0c) ; /* copy setup to eeprom */
                +
002b55 ebad     +LDI R26 , LOW ( _packed_data + ( 280 ) )
002b56 e6ba     +LDI R27 , HIGH ( _packed_data + ( 280 ) )
                 	__POINTW2MN _packed_data,280
002b57 01f9      	MOVW R30,R18
002b58 9638      	ADIW R30,8
002b59 0fea      	ADD  R30,R26
002b5a 1ffb      	ADC  R31,R27
002b5b 010f      	MOVW R0,R30
002b5c eda1      	LDI  R26,LOW(_ch_stat)
002b5d e6bb      	LDI  R27,HIGH(_ch_stat)
002b5e 0fa2      	ADD  R26,R18
002b5f 1fb3      	ADC  R27,R19
002b60 91ec      	LD   R30,X
002b61 70ec      	ANDI R30,LOW(0xC)
002b62 01d0      	MOVW R26,R0
002b63 93ec      	ST   X,R30
                 ; 0007 032B }
                 _0xE00BF:
                +
002b64 5f2f     +SUBI R18 , LOW ( - 1 )
002b65 4f3f     +SBCI R19 , HIGH ( - 1 )
                 	__ADDWRN 18,19,1
002b66 cfe8      	RJMP _0xE00C0
                 _0xE00C1:
                 ; 0007 032C MakeEepChksum(&packed_data[7][8]) ;
                +
002b67 eca5     +LDI R26 , LOW ( _packed_data + ( 288 ) )
002b68 e6ba     +LDI R27 , HIGH ( _packed_data + ( 288 ) )
                 	__POINTW2MN _packed_data,288
002b69 940e 300d 	CALL _MakeEepChksum
                 ; 0007 032D 
                 ; 0007 032E for ( i = 0; i < PACKED_DATA_SIZE; i++ ) {
                +
002b6b e020     +LDI R18 , LOW ( 0 )
002b6c e030     +LDI R19 , HIGH ( 0 )
                 	__GETWRN 18,19,0
                 _0xE00C3:
                +
002b6d 3228     +CPI R18 , LOW ( 40 )
002b6e e0e0     +LDI R30 , HIGH ( 40 )
002b6f 073e     +CPC R19 , R30
                 	__CPWRN 18,19,40
002b70 f010      	BRLO PC+3
002b71 940c 2b80 	JMP _0xE00C4
                 ; 0007 032F d_buff[i] = packed_data[7][i] ;                 /*copy buffer */
002b73 01de      	MOVW R26,R28
002b74 9616      	ADIW R26,6
002b75 0fa2      	ADD  R26,R18
002b76 1fb3      	ADC  R27,R19
                +
002b77 ebed     +LDI R30 , LOW ( _packed_data + ( 280 ) )
002b78 e6fa     +LDI R31 , HIGH ( _packed_data + ( 280 ) )
                 	__POINTW1MN _packed_data,280
002b79 0fe2      	ADD  R30,R18
002b7a 1ff3      	ADC  R31,R19
002b7b 81e0      	LD   R30,Z
002b7c 93ec      	ST   X,R30
                 ; 0007 0330 }
                 _0xE00C2:
                +
002b7d 5f2f     +SUBI R18 , LOW ( - 1 )
002b7e 4f3f     +SBCI R19 , HIGH ( - 1 )
                 	__ADDWRN 18,19,1
002b7f cfed      	RJMP _0xE00C3
                 _0xE00C4:
                 ; 0007 0331 test = TRUE ;
                +
002b80 e041     +LDI R20 , LOW ( 1 )
002b81 e050     +LDI R21 , HIGH ( 1 )
                 	__GETWRN 20,21,1
                 ; 0007 0332 // Intern EEprom
                 ; 0007 0333 if ( !Eeprom(7, WRITE_SP) ) {
002b82 e0e7      	LDI  R30,LOW(7)
002b83 93ea      	ST   -Y,R30
002b84 e0af      	LDI  R26,LOW(15)
002b85 940e 2bf0 	CALL _Eeprom
002b87 9730      	SBIW R30,0
002b88 f011      	BREQ PC+3
002b89 940c 2b8d 	JMP _0xE00C5
                 ; 0007 0334 test= FALSE ;                               /* write data to scratchpad */
                +
002b8b e040     +LDI R20 , LOW ( 0 )
002b8c e050     +LDI R21 , HIGH ( 0 )
                 	__GETWRN 20,21,0
                 ; 0007 0335 }
                 ; 0007 0336 if ( !Eeprom(7, READ_SP) ) {
                 _0xE00C5:
002b8d e0e7      	LDI  R30,LOW(7)
002b8e 93ea      	ST   -Y,R30
002b8f eaaa      	LDI  R26,LOW(170)
002b90 940e 2bf0 	CALL _Eeprom
002b92 9730      	SBIW R30,0
002b93 f011      	BREQ PC+3
002b94 940c 2b98 	JMP _0xE00C6
                 ; 0007 0337 test = FALSE ;                          /* Read data from scratchpad */
                +
002b96 e040     +LDI R20 , LOW ( 0 )
002b97 e050     +LDI R21 , HIGH ( 0 )
                 	__GETWRN 20,21,0
                 ; 0007 0338 }
                 ; 0007 0339 for ( i = 0; i < PACKED_DATA_SIZE; i++ ) {
                 _0xE00C6:
                +
002b98 e020     +LDI R18 , LOW ( 0 )
002b99 e030     +LDI R19 , HIGH ( 0 )
                 	__GETWRN 18,19,0
                 _0xE00C8:
                +
002b9a 3228     +CPI R18 , LOW ( 40 )
002b9b e0e0     +LDI R30 , HIGH ( 40 )
002b9c 073e     +CPC R19 , R30
                 	__CPWRN 18,19,40
002b9d f010      	BRLO PC+3
002b9e 940c 2bb3 	JMP _0xE00C9
                 ; 0007 033A if ( d_buff[i] != packed_data[7][i] ) {
002ba0 01de      	MOVW R26,R28
002ba1 9616      	ADIW R26,6
002ba2 0fa2      	ADD  R26,R18
002ba3 1fb3      	ADC  R27,R19
002ba4 91ac      	LD   R26,X
                +
002ba5 ebed     +LDI R30 , LOW ( _packed_data + ( 280 ) )
002ba6 e6fa     +LDI R31 , HIGH ( _packed_data + ( 280 ) )
                 	__POINTW1MN _packed_data,280
002ba7 0fe2      	ADD  R30,R18
002ba8 1ff3      	ADC  R31,R19
002ba9 81e0      	LD   R30,Z
002baa 17ea      	CP   R30,R26
002bab f411      	BRNE PC+3
002bac 940c 2bb0 	JMP _0xE00CA
                 ; 0007 033B test = FALSE;                                  /*compare buffer */
                +
002bae e040     +LDI R20 , LOW ( 0 )
002baf e050     +LDI R21 , HIGH ( 0 )
                 	__GETWRN 20,21,0
                 ; 0007 033C }
                 ; 0007 033D }
                 _0xE00CA:
                 _0xE00C7:
                +
002bb0 5f2f     +SUBI R18 , LOW ( - 1 )
002bb1 4f3f     +SBCI R19 , HIGH ( - 1 )
                 	__ADDWRN 18,19,1
002bb2 cfe7      	RJMP _0xE00C8
                 _0xE00C9:
                 ; 0007 033E if ( test == TRUE ) {                             /* write to eep OK */
002bb3 e0e1      	LDI  R30,LOW(1)
002bb4 e0f0      	LDI  R31,HIGH(1)
002bb5 17e4      	CP   R30,R20
002bb6 07f5      	CPC  R31,R21
002bb7 f011      	BREQ PC+3
002bb8 940c 2bc3 	JMP _0xE00CB
                 ; 0007 033F if ( Eeprom(7, COPY_SP_NV) ) {    /* copy data to NV-ram */
002bba e0e7      	LDI  R30,LOW(7)
002bbb 93ea      	ST   -Y,R30
002bbc e5a5      	LDI  R26,LOW(85)
002bbd 940e 2bf0 	CALL _Eeprom
002bbf 9730      	SBIW R30,0
002bc0 f411      	BRNE PC+3
002bc1 940c 2bc3 	JMP _0xE00CC
                 ; 0007 0340 }
                 ; 0007 0341 }
                 _0xE00CC:
                 ; 0007 0342 }
                 _0xE00CB:
                 ; 0007 0343 ad_state = IDLE ;                               /* Restart convertion */
                 _0xE00BE:
002bc3 e0e7      	LDI  R30,LOW(7)
002bc4 93e0 6bca 	STS  _ad_state,R30
                 ; 0007 0344 curr_ad_ch = NOIOCH  ;
002bc6 e0ee      	LDI  R30,LOW(14)
002bc7 93e0 6bc8 	STS  _curr_ad_ch,R30
                 ; 0007 0345 ad_mode = 0x04 ;                            /* start with press.*/
002bc9 e0e4      	LDI  R30,LOW(4)
002bca 93e0 6bcb 	STS  _ad_mode,R30
                 ; 0007 0346 
                 ; 0007 0347 }
002bcc 940e 3158 	CALL __LOADLOCR6
002bce 96ae      	ADIW R28,46
002bcf 9508      	RET
                 ; .FEND
                 ;unsigned char CalcTxChecksum(unsigned int pack_len)
                 ; 0007 034F {
                 _CalcTxChecksum:
                 ; .FSTART _CalcTxChecksum
                 ; 0007 0350 
                 ; 0007 0351 unsigned int             cnt ;
                 ; 0007 0352 unsigned char   csum ;
                 ; 0007 0353 
                 ; 0007 0354 csum = 0 ;
002bd0 940e 3151 	CALL __SAVELOCR6
002bd2 01ad      	MOVW R20,R26
                 ;	pack_len -> R20,R21
                 ;	cnt -> R16,R17
                 ;	csum -> R19
002bd3 e030      	LDI  R19,LOW(0)
                 ; 0007 0355 for ( cnt = 2 ; cnt < (pack_len) ; cnt++ )
                +
002bd4 e002     +LDI R16 , LOW ( 2 )
002bd5 e010     +LDI R17 , HIGH ( 2 )
                 	__GETWRN 16,17,2
                 _0xE00CE:
                +
002bd6 1704     +CP R16 , R20
002bd7 0715     +CPC R17 , R21
                 	__CPWRR 16,17,20,21
002bd8 f010      	BRLO PC+3
002bd9 940c 2beb 	JMP _0xE00CF
                 ; 0007 0356 {
                 ; 0007 0357 csum = crc[csum ^ tx_buff[cnt]] ;
002bdb 2e03      	MOV  R0,R19
002bdc 2411      	CLR  R1
002bdd e0a0      	LDI  R26,LOW(_tx_buff)
002bde e6b8      	LDI  R27,HIGH(_tx_buff)
002bdf 0fa0      	ADD  R26,R16
002be0 1fb1      	ADC  R27,R17
002be1 91ec      	LD   R30,X
002be2 e0f0      	LDI  R31,0
002be3 25e0      	EOR  R30,R0
002be4 25f1      	EOR  R31,R1
002be5 5fec      	SUBI R30,LOW(-_crc*2)
002be6 4ffe      	SBCI R31,HIGH(-_crc*2)
002be7 9134      	LPM  R19,Z
                 ; 0007 0358 }
                 _0xE00CD:
                +
002be8 5f0f     +SUBI R16 , LOW ( - 1 )
002be9 4f1f     +SBCI R17 , HIGH ( - 1 )
                 	__ADDWRN 16,17,1
002bea cfeb      	RJMP _0xE00CE
                 _0xE00CF:
                 ; 0007 0359 return csum ;
002beb 2fe3      	MOV  R30,R19
002bec 940e 3158 	CALL __LOADLOCR6
002bee 9626      	ADIW R28,6
002bef 9508      	RET
                 ; 0007 035A }
                 ; .FEND
                 ;unsigned int Eeprom(unsigned char channel, unsigned char command)
                 ; 0008 0030 {
                 
                 	.CSEG
                 _Eeprom:
                 ; .FSTART _Eeprom
                 ; 0008 0031 //if channel 7, read from EEprom
                 ; 0008 0032 char   ret_val = FALSE;
                 ; 0008 0033 unsigned char   *data ;
                 ; 0008 0034 unsigned char i;
                 ; 0008 0035 unsigned char value;
                 ; 0008 0036 unsigned char localCRC;
                 ; 0008 0037 if ( channel==7)    // intern eeprom
002bf0 93aa      	ST   -Y,R26
002bf1 940e 3151 	CALL __SAVELOCR6
                 ;	channel -> Y+7
                 ;	command -> Y+6
                 ;	ret_val -> R17
                 ;	*data -> R18,R19
                 ;	i -> R16
                 ;	value -> R21
                 ;	localCRC -> R20
002bf3 e010      	LDI  R17,0
002bf4 81af      	LDD  R26,Y+7
002bf5 30a7      	CPI  R26,LOW(0x7)
002bf6 f011      	BREQ PC+3
002bf7 940c 2d17 	JMP _0x100003
                 ; 0008 0038 {
                 ; 0008 0039 switch ( command ) {          /* find command */
002bf9 81ee      	LDD  R30,Y+6
002bfa e0f0      	LDI  R31,0
                 ; 0008 003A case READ_SP :          /* read scratchpad */
002bfb 3aea      	CPI  R30,LOW(0xAA)
002bfc e0a0      	LDI  R26,HIGH(0xAA)
002bfd 07fa      	CPC  R31,R26
002bfe f011      	BREQ PC+3
002bff 940c 2c1e 	JMP _0x100007
                 ; 0008 003B data = &packed_data[channel][8] ;   /* nvram block */
002c01 81ef      	LDD  R30,Y+7
002c02 e2a8      	LDI  R26,LOW(40)
002c03 9fea      	MUL  R30,R26
002c04 01f0      	MOVW R30,R0
                +
002c05 55e3     +SUBI R30 , LOW ( - _packed_data - ( 8 ) )
002c06 49f6     +SBCI R31 , HIGH ( - _packed_data - ( 8 ) )
                 	__ADDW1MN _packed_data,8
002c07 019f      	MOVW R18,R30
                 ; 0008 003C for ( i =0; i < 32;i++)
002c08 e000      	LDI  R16,LOW(0)
                 _0x100009:
002c09 3200      	CPI  R16,32
002c0a f010      	BRLO PC+3
002c0b 940c 2c1c 	JMP _0x10000A
                 ; 0008 003D {   *data++ = EEpromScratchpad[i];
002c0d 933f      	PUSH R19
002c0e 932f      	PUSH R18
                +
002c0f 5f2f     +SUBI R18 , LOW ( - 1 )
002c10 4f3f     +SBCI R19 , HIGH ( - 1 )
                 	__ADDWRN 18,19,1
002c11 2fa0      	MOV  R26,R16
002c12 e0b0      	LDI  R27,0
002c13 5fad      	SUBI R26,LOW(-_EEpromScratchpad)
002c14 4fbf      	SBCI R27,HIGH(-_EEpromScratchpad)
002c15 940e 31fa 	CALL __EEPROMRDB
002c17 91af      	POP  R26
002c18 91bf      	POP  R27
002c19 93ec      	ST   X,R30
                 ; 0008 003E }
                 _0x100008:
002c1a 5f0f      	SUBI R16,-1
002c1b cfed      	RJMP _0x100009
                 _0x10000A:
                 ; 0008 003F ret_val = TRUE ;
002c1c e011      	LDI  R17,LOW(1)
                 ; 0008 0040 break ;
002c1d c0f8      	RJMP _0x100006
                 ; 0008 0041 case WRITE_SP :         /* write scratchpad */
                 _0x100007:
002c1e 30ef      	CPI  R30,LOW(0xF)
002c1f e0a0      	LDI  R26,HIGH(0xF)
002c20 07fa      	CPC  R31,R26
002c21 f011      	BREQ PC+3
002c22 940c 2c3f 	JMP _0x10000B
                 ; 0008 0042 data = &packed_data[channel][8] ;   /* nvram block */
002c24 81ef      	LDD  R30,Y+7
002c25 e2a8      	LDI  R26,LOW(40)
002c26 9fea      	MUL  R30,R26
002c27 01f0      	MOVW R30,R0
                +
002c28 55e3     +SUBI R30 , LOW ( - _packed_data - ( 8 ) )
002c29 49f6     +SBCI R31 , HIGH ( - _packed_data - ( 8 ) )
                 	__ADDW1MN _packed_data,8
002c2a 019f      	MOVW R18,R30
                 ; 0008 0043 for ( i =0; i < 32;i++)
002c2b e000      	LDI  R16,LOW(0)
                 _0x10000D:
002c2c 3200      	CPI  R16,32
002c2d f010      	BRLO PC+3
002c2e 940c 2c3e 	JMP _0x10000E
                 ; 0008 0044 {   EEpromScratchpad[i] =*data++;
002c30 2fe0      	MOV  R30,R16
002c31 e0f0      	LDI  R31,0
002c32 5fed      	SUBI R30,LOW(-_EEpromScratchpad)
002c33 4fff      	SBCI R31,HIGH(-_EEpromScratchpad)
002c34 010f      	MOVW R0,R30
002c35 01d9      	MOVW R26,R18
                +
002c36 5f2f     +SUBI R18 , LOW ( - 1 )
002c37 4f3f     +SBCI R19 , HIGH ( - 1 )
                 	__ADDWRN 18,19,1
002c38 91ec      	LD   R30,X
002c39 01d0      	MOVW R26,R0
002c3a 940e 3203 	CALL __EEPROMWRB
                 ; 0008 0045 }
                 _0x10000C:
002c3c 5f0f      	SUBI R16,-1
002c3d cfee      	RJMP _0x10000D
                 _0x10000E:
                 ; 0008 0046 break ;
002c3e c0d7      	RJMP _0x100006
                 ; 0008 0047 case READ_STATUS :          /* Read status register */
                 _0x10000B:
002c3f 36e6      	CPI  R30,LOW(0x66)
002c40 e0a0      	LDI  R26,HIGH(0x66)
002c41 07fa      	CPC  R31,R26
002c42 f011      	BREQ PC+3
002c43 940c 2c4f 	JMP _0x10000F
                 ; 0008 0048 data = &eep_status ;                        /* status */
                +
002c45 ee25     +LDI R18 , LOW ( _eep_status )
002c46 e63a     +LDI R19 , HIGH ( _eep_status )
                 	__POINTWRM 18,19,_eep_status
                 ; 0008 0049 *data = EEpromStatusByte;          // eeprom status   status
002c47 e2ac      	LDI  R26,LOW(_EEpromStatusByte)
002c48 e0b0      	LDI  R27,HIGH(_EEpromStatusByte)
002c49 940e 31fa 	CALL __EEPROMRDB
002c4b 01d9      	MOVW R26,R18
002c4c 93ec      	ST   X,R30
                 ; 0008 004A ret_val = TRUE ;
002c4d e011      	LDI  R17,LOW(1)
                 ; 0008 004B break ;
002c4e c0c7      	RJMP _0x100006
                 ; 0008 004C case COPY_SP_NV :                                   /* Copy scrpad to eeprom */
                 _0x10000F:
002c4f 35e5      	CPI  R30,LOW(0x55)
002c50 e0a0      	LDI  R26,HIGH(0x55)
002c51 07fa      	CPC  R31,R26
002c52 f011      	BREQ PC+3
002c53 940c 2c57 	JMP _0x100010
                 ; 0008 004D ret_val = TRUE ;
002c55 e011      	LDI  R17,LOW(1)
                 ; 0008 004E break ;
002c56 c0bf      	RJMP _0x100006
                 ; 0008 004F case COPY_NV_SP :                                   /* Copy eeprom to scrpad */
                 _0x100010:
002c57 3fe0      	CPI  R30,LOW(0xF0)
002c58 e0a0      	LDI  R26,HIGH(0xF0)
002c59 07fa      	CPC  R31,R26
002c5a f011      	BREQ PC+3
002c5b 940c 2c5f 	JMP _0x100011
                 ; 0008 0050 ret_val = TRUE ;
002c5d e011      	LDI  R17,LOW(1)
                 ; 0008 0051 break ;
002c5e c0b7      	RJMP _0x100006
                 ; 0008 0052 case READ_APPREG :                          /* Read APP-REG */
                 _0x100011:
002c5f 3ce3      	CPI  R30,LOW(0xC3)
002c60 e0a0      	LDI  R26,HIGH(0xC3)
002c61 07fa      	CPC  R31,R26
002c62 f011      	BREQ PC+3
002c63 940c 2c84 	JMP _0x100012
                 ; 0008 0053 data = &packed_data[channel][0] ;   /* ID-REG block */
002c65 81ef      	LDD  R30,Y+7
002c66 e2a8      	LDI  R26,LOW(40)
002c67 9fea      	MUL  R30,R26
002c68 01f0      	MOVW R30,R0
002c69 55eb      	SUBI R30,LOW(-_packed_data)
002c6a 49f6      	SBCI R31,HIGH(-_packed_data)
002c6b 019f      	MOVW R18,R30
                 ; 0008 0054 //ReadEepromData(data, 8) ;               /* Read 8 bytes */
                 ; 0008 0055 localCRC=0;
002c6c e040      	LDI  R20,LOW(0)
                 ; 0008 0056 for ( i =0; i < 8;i++)
002c6d e000      	LDI  R16,LOW(0)
                 _0x100014:
002c6e 3008      	CPI  R16,8
002c6f f010      	BRLO PC+3
002c70 940c 2c82 	JMP _0x100015
                 ; 0008 0057 {   value=EESerielNummer[i];
002c72 2fa0      	MOV  R26,R16
002c73 e0b0      	LDI  R27,0
002c74 5dad      	SUBI R26,LOW(-_EESerielNummer)
002c75 4fbf      	SBCI R27,HIGH(-_EESerielNummer)
002c76 940e 31fa 	CALL __EEPROMRDB
002c78 2f5e      	MOV  R21,R30
                 ; 0008 0058 *data++ =value;
002c79 933f      	PUSH R19
002c7a 932f      	PUSH R18
                +
002c7b 5f2f     +SUBI R18 , LOW ( - 1 )
002c7c 4f3f     +SBCI R19 , HIGH ( - 1 )
                 	__ADDWRN 18,19,1
002c7d 91af      	POP  R26
002c7e 91bf      	POP  R27
002c7f 93ec      	ST   X,R30
                 ; 0008 0059 }
                 _0x100013:
002c80 5f0f      	SUBI R16,-1
002c81 cfec      	RJMP _0x100014
                 _0x100015:
                 ; 0008 005A // control CRC
                 ; 0008 005B ret_val = TRUE ;
002c82 e011      	LDI  R17,LOW(1)
                 ; 0008 005C break ;
002c83 c092      	RJMP _0x100006
                 ; 0008 005D case WRITE_APPREG :          /* Write ID-REG */
                 _0x100012:
002c84 39e9      	CPI  R30,LOW(0x99)
002c85 e0a0      	LDI  R26,HIGH(0x99)
002c86 07fa      	CPC  R31,R26
002c87 f011      	BREQ PC+3
002c88 940c 2cc1 	JMP _0x100016
                 ; 0008 005E data = &packed_data[channel][0] ;    /* ID-REG block */
002c8a 81ef      	LDD  R30,Y+7
002c8b e2a8      	LDI  R26,LOW(40)
002c8c 9fea      	MUL  R30,R26
002c8d 01f0      	MOVW R30,R0
002c8e 55eb      	SUBI R30,LOW(-_packed_data)
002c8f 49f6      	SBCI R31,HIGH(-_packed_data)
002c90 019f      	MOVW R18,R30
                 ; 0008 005F value= SerielNummerLock;        // Read Seriel nummer lockbyte.
002c91 e0a2      	LDI  R26,LOW(_SerielNummerLock)
002c92 e0b0      	LDI  R27,HIGH(_SerielNummerLock)
002c93 940e 31fa 	CALL __EEPROMRDB
002c95 2f5e      	MOV  R21,R30
                 ; 0008 0060 if ( value != LOCK_BYTE )   // can write Seriem Nummer if not lock
002c96 3555      	CPI  R21,85
002c97 f411      	BRNE PC+3
002c98 940c 2cc0 	JMP _0x100017
                 ; 0008 0061 {   localCRC=0;
002c9a e040      	LDI  R20,LOW(0)
                 ; 0008 0062 for ( i =0; i < 8;i++)
002c9b e000      	LDI  R16,LOW(0)
                 _0x100019:
002c9c 3008      	CPI  R16,8
002c9d f010      	BRLO PC+3
002c9e 940c 2cb5 	JMP _0x10001A
                 ; 0008 0063 {   value=*data++;
002ca0 01d9      	MOVW R26,R18
                +
002ca1 5f2f     +SUBI R18 , LOW ( - 1 )
002ca2 4f3f     +SBCI R19 , HIGH ( - 1 )
                 	__ADDWRN 18,19,1
002ca3 915c      	LD   R21,X
                 ; 0008 0064 EESerielNummer[i]=value;
002ca4 2fa0      	MOV  R26,R16
002ca5 e0b0      	LDI  R27,0
002ca6 5dad      	SUBI R26,LOW(-_EESerielNummer)
002ca7 4fbf      	SBCI R27,HIGH(-_EESerielNummer)
002ca8 2fe5      	MOV  R30,R21
002ca9 940e 3203 	CALL __EEPROMWRB
                 ; 0008 0065 localCRC= crc[ localCRC ^value ];
002cab 2fa4      	MOV  R26,R20
002cac 27bb      	CLR  R27
002cad e0f0      	LDI  R31,0
002cae 27ea      	EOR  R30,R26
002caf 27fb      	EOR  R31,R27
002cb0 5fec      	SUBI R30,LOW(-_crc*2)
002cb1 4ffe      	SBCI R31,HIGH(-_crc*2)
002cb2 9144      	LPM  R20,Z
                 ; 0008 0066 }
                 _0x100018:
002cb3 5f0f      	SUBI R16,-1
002cb4 cfe7      	RJMP _0x100019
                 _0x10001A:
                 ; 0008 0067 EESerielNummerCRC=localCRC;
002cb5 2fe4      	MOV  R30,R20
002cb6 e2ab      	LDI  R26,LOW(_EESerielNummerCRC)
002cb7 e0b0      	LDI  R27,HIGH(_EESerielNummerCRC)
002cb8 940e 3203 	CALL __EEPROMWRB
                 ; 0008 0068 SerielNummerLock= LOCK_BYTE;    // lock Seriel nummer
002cba e0a2      	LDI  R26,LOW(_SerielNummerLock)
002cbb e0b0      	LDI  R27,HIGH(_SerielNummerLock)
002cbc e5e5      	LDI  R30,LOW(85)
002cbd 940e 3203 	CALL __EEPROMWRB
                 ; 0008 0069 ret_val = TRUE ;
002cbf e011      	LDI  R17,LOW(1)
                 ; 0008 006A }
                 ; 0008 006B //else {} Return False
                 ; 0008 006C break ;
                 _0x100017:
002cc0 c055      	RJMP _0x100006
                 ; 0008 006D case LOCK_APP :              /* Lock data in ID-Reg */
                 _0x100016:
002cc1 35ea      	CPI  R30,LOW(0x5A)
002cc2 e0a0      	LDI  R26,HIGH(0x5A)
002cc3 07fa      	CPC  R31,R26
002cc4 f011      	BREQ PC+3
002cc5 940c 2cf3 	JMP _0x10001B
                 ; 0008 006E // if CRC ok lock data
                 ; 0008 006F localCRC=0;
002cc7 e040      	LDI  R20,LOW(0)
                 ; 0008 0070 for ( i =0; i < 8;i++)
002cc8 e000      	LDI  R16,LOW(0)
                 _0x10001D:
002cc9 3008      	CPI  R16,8
002cca f010      	BRLO PC+3
002ccb 940c 2cde 	JMP _0x10001E
                 ; 0008 0071 {   value=EESerielNummer[i];
002ccd 2fa0      	MOV  R26,R16
002cce e0b0      	LDI  R27,0
002ccf 5dad      	SUBI R26,LOW(-_EESerielNummer)
002cd0 4fbf      	SBCI R27,HIGH(-_EESerielNummer)
002cd1 940e 31fa 	CALL __EEPROMRDB
002cd3 2f5e      	MOV  R21,R30
                 ; 0008 0072 localCRC= crc[ localCRC ^value ];
002cd4 2fa4      	MOV  R26,R20
002cd5 27bb      	CLR  R27
002cd6 e0f0      	LDI  R31,0
002cd7 27ea      	EOR  R30,R26
002cd8 27fb      	EOR  R31,R27
002cd9 5fec      	SUBI R30,LOW(-_crc*2)
002cda 4ffe      	SBCI R31,HIGH(-_crc*2)
002cdb 9144      	LPM  R20,Z
                 ; 0008 0073 }
                 _0x10001C:
002cdc 5f0f      	SUBI R16,-1
002cdd cfeb      	RJMP _0x10001D
                 _0x10001E:
                 ; 0008 0074 value=EESerielNummerCRC;
002cde e2ab      	LDI  R26,LOW(_EESerielNummerCRC)
002cdf e0b0      	LDI  R27,HIGH(_EESerielNummerCRC)
002ce0 940e 31fa 	CALL __EEPROMRDB
002ce2 2f5e      	MOV  R21,R30
                 ; 0008 0075 if (localCRC==value)
002ce3 1754      	CP   R21,R20
002ce4 f011      	BREQ PC+3
002ce5 940c 2cf2 	JMP _0x10001F
                 ; 0008 0076 {   SerielNummerLock= LOCK_BYTE;    // lock Seriel nummer
002ce7 e0a2      	LDI  R26,LOW(_SerielNummerLock)
002ce8 e0b0      	LDI  R27,HIGH(_SerielNummerLock)
002ce9 e5e5      	LDI  R30,LOW(85)
002cea 940e 3203 	CALL __EEPROMWRB
                 ; 0008 0077 EEpromStatusByte=PROGRAMED_EEPROM_STATUS;
002cec e2ac      	LDI  R26,LOW(_EEpromStatusByte)
002ced e0b0      	LDI  R27,HIGH(_EEpromStatusByte)
002cee e0ef      	LDI  R30,LOW(15)
002cef 940e 3203 	CALL __EEPROMWRB
                 ; 0008 0078 ret_val = TRUE ;
002cf1 e011      	LDI  R17,LOW(1)
                 ; 0008 0079 }
                 ; 0008 007A 
                 ; 0008 007B break ;
                 _0x10001F:
002cf2 c023      	RJMP _0x100006
                 ; 0008 007C case READ_ROM :          /* Read id from eeprom */
                 _0x10001B:
002cf3 33e3      	CPI  R30,LOW(0x33)
002cf4 e0a0      	LDI  R26,HIGH(0x33)
002cf5 07fa      	CPC  R31,R26
002cf6 f011      	BREQ PC+3
002cf7 940c 2d16 	JMP _0x100024
                 ; 0008 007D data = &tx_buff[tx_indx] ;                  /* Tx buffer */
002cf9 91e0 6990 	LDS  R30,_tx_indx
002cfb e0f0      	LDI  R31,0
002cfc 50e0      	SUBI R30,LOW(-_tx_buff)
002cfd 49f8      	SBCI R31,HIGH(-_tx_buff)
002cfe 019f      	MOVW R18,R30
                 ; 0008 007E //ReadEepromData(data, 8) ;            /* Read 8 bytes */
                 ; 0008 007F for ( i =0; i < 8;i++)
002cff e000      	LDI  R16,LOW(0)
                 _0x100022:
002d00 3008      	CPI  R16,8
002d01 f010      	BRLO PC+3
002d02 940c 2d14 	JMP _0x100023
                 ; 0008 0080 {   value=EEpromDallasSN[i];
002d04 2fa0      	MOV  R26,R16
002d05 e0b0      	LDI  R27,0
002d06 5da3      	SUBI R26,LOW(-_EEpromDallasSN)
002d07 4fbf      	SBCI R27,HIGH(-_EEpromDallasSN)
002d08 940e 31fa 	CALL __EEPROMRDB
002d0a 2f5e      	MOV  R21,R30
                 ; 0008 0081 *data++ =value;
002d0b 933f      	PUSH R19
002d0c 932f      	PUSH R18
                +
002d0d 5f2f     +SUBI R18 , LOW ( - 1 )
002d0e 4f3f     +SBCI R19 , HIGH ( - 1 )
                 	__ADDWRN 18,19,1
002d0f 91af      	POP  R26
002d10 91bf      	POP  R27
002d11 93ec      	ST   X,R30
                 ; 0008 0082 }
                 _0x100021:
002d12 5f0f      	SUBI R16,-1
002d13 cfec      	RJMP _0x100022
                 _0x100023:
                 ; 0008 0083 ret_val = TRUE ;
002d14 e011      	LDI  R17,LOW(1)
                 ; 0008 0084 
                 ; 0008 0085 break ;
002d15 c000      	RJMP _0x100006
                 ; 0008 0086 default :
                 _0x100024:
                 ; 0008 0087 break ;
                 ; 0008 0088 }
                 _0x100006:
                 ; 0008 0089 }
                 ; 0008 008A else
002d16 c124      	RJMP _0x100025
                 _0x100003:
                 ; 0008 008B {
                 ; 0008 008C 
                 ; 0008 008D SetCalResistance(OHM_1R) ;                      /* use 1 ohm res. on return. */
002d17 e4a0      	LDI  R26,LOW(64)
002d18 940e 0b17 	CALL _SetCalResistance
                 ; 0008 008E SetEepromChannel(channel) ;                 /* connect to the right eeprom && Set GND*/
002d1a 81af      	LDD  R26,Y+7
002d1b 940e 0709 	CALL _SetEepromChannel
                 ; 0008 008F SetMuxChannel(MUXCHOFF) ;                       /* mux channel off */
002d1d e1a0      	LDI  R26,LOW(16)
002d1e 940e 09c2 	CALL _SetMuxChannel
                 ; 0008 0090 SetSupplyChannel(SUPPCHOFF) ;                   /* set channel off */
002d20 e1a0      	LDI  R26,LOW(16)
002d21 940e 07a7 	CALL _SetSupplyChannel
                 ; 0008 0091 SetSupplyCurrent(1);                                /* set 1mA supply */
002d23 e0a1      	LDI  R26,LOW(1)
002d24 940e 0b08 	CALL _SetSupplyCurrent
                 ; 0008 0092 delay_ms(5);    //OneMsecDelay(5) ;                       /* supply the unit before read */
002d26 e0a5      	LDI  R26,LOW(5)
002d27 e0b0      	LDI  R27,0
002d28 940e 33ca 	CALL _delay_ms
                 ; 0008 0093 set_interrupt_mask(1);                          /* Disable interrupt */
002d2a e0a1      	LDI  R26,LOW(1)
002d2b 940e 302f 	CALL _set_interrupt_mask
                 ; 0008 0094 #asm("wdr");    //KickDog() ; /* kick dog due to long read time*/
002d2d 95a8      	WDR
                 ; 0008 0095 
                 ; 0008 0096 switch ( command ) {          /* find command */
002d2e 81ee      	LDD  R30,Y+6
002d2f e0f0      	LDI  R31,0
                 ; 0008 0097 case READ_SP :          /* read scratchpad */
002d30 3aea      	CPI  R30,LOW(0xAA)
002d31 e0a0      	LDI  R26,HIGH(0xAA)
002d32 07fa      	CPC  R31,R26
002d33 f011      	BREQ PC+3
002d34 940c 2d4f 	JMP _0x100029
                 ; 0008 0098 if ( SendEepromCommand(command, 0, 1) ) { /* Start at adderss 0 */
002d36 81ee      	LDD  R30,Y+6
002d37 93ea      	ST   -Y,R30
002d38 e0e0      	LDI  R30,LOW(0)
002d39 93ea      	ST   -Y,R30
002d3a e0a1      	LDI  R26,LOW(1)
002d3b 940e 2e41 	CALL _SendEepromCommand
002d3d 30e0      	CPI  R30,0
002d3e f411      	BRNE PC+3
002d3f 940c 2d4e 	JMP _0x10002A
                 ; 0008 0099 data = &packed_data[channel][8] ;   /* nvram block */
002d41 81ef      	LDD  R30,Y+7
002d42 e2a8      	LDI  R26,LOW(40)
002d43 9fea      	MUL  R30,R26
002d44 01f0      	MOVW R30,R0
                +
002d45 55e3     +SUBI R30 , LOW ( - _packed_data - ( 8 ) )
002d46 49f6     +SBCI R31 , HIGH ( - _packed_data - ( 8 ) )
                 	__ADDW1MN _packed_data,8
002d47 019f      	MOVW R18,R30
                 ; 0008 009A ReadEepromData(data, 32)    ;           /* Read 32 bytes */
002d48 933a      	ST   -Y,R19
002d49 932a      	ST   -Y,R18
002d4a e2a0      	LDI  R26,LOW(32)
002d4b 940e 2e70 	CALL _ReadEepromData
                 ; 0008 009B ret_val = TRUE ;
002d4d e011      	LDI  R17,LOW(1)
                 ; 0008 009C }
                 ; 0008 009D break ;
                 _0x10002A:
002d4e c0dc      	RJMP _0x100028
                 ; 0008 009E case WRITE_SP :         /* write scratchpad */
                 _0x100029:
002d4f 30ef      	CPI  R30,LOW(0xF)
002d50 e0a0      	LDI  R26,HIGH(0xF)
002d51 07fa      	CPC  R31,R26
002d52 f011      	BREQ PC+3
002d53 940c 2d6e 	JMP _0x10002B
                 ; 0008 009F if ( SendEepromCommand(command, 0, 1) ) { /* Start at adderss 0 */
002d55 81ee      	LDD  R30,Y+6
002d56 93ea      	ST   -Y,R30
002d57 e0e0      	LDI  R30,LOW(0)
002d58 93ea      	ST   -Y,R30
002d59 e0a1      	LDI  R26,LOW(1)
002d5a 940e 2e41 	CALL _SendEepromCommand
002d5c 30e0      	CPI  R30,0
002d5d f411      	BRNE PC+3
002d5e 940c 2d6d 	JMP _0x10002C
                 ; 0008 00A0 data = &packed_data[channel][8] ;   /* nvram block */
002d60 81ef      	LDD  R30,Y+7
002d61 e2a8      	LDI  R26,LOW(40)
002d62 9fea      	MUL  R30,R26
002d63 01f0      	MOVW R30,R0
                +
002d64 55e3     +SUBI R30 , LOW ( - _packed_data - ( 8 ) )
002d65 49f6     +SBCI R31 , HIGH ( - _packed_data - ( 8 ) )
                 	__ADDW1MN _packed_data,8
002d66 019f      	MOVW R18,R30
                 ; 0008 00A1 WriteEepromData(data, 32)   ;           /* Write 32 bytes */
002d67 933a      	ST   -Y,R19
002d68 932a      	ST   -Y,R18
002d69 e2a0      	LDI  R26,LOW(32)
002d6a 940e 2e8f 	CALL _WriteEepromData
                 ; 0008 00A2 ret_val = TRUE ;
002d6c e011      	LDI  R17,LOW(1)
                 ; 0008 00A3 }
                 ; 0008 00A4 break ;
                 _0x10002C:
002d6d c0bd      	RJMP _0x100028
                 ; 0008 00A5 case READ_STATUS :          /* Read status register */
                 _0x10002B:
002d6e 36e6      	CPI  R30,LOW(0x66)
002d6f e0a0      	LDI  R26,HIGH(0x66)
002d70 07fa      	CPC  R31,R26
002d71 f011      	BREQ PC+3
002d72 940c 2d88 	JMP _0x10002D
                 ; 0008 00A6 if ( SendEepromCommand(command, 0, 1) ) {  /* Command 0 */
002d74 81ee      	LDD  R30,Y+6
002d75 93ea      	ST   -Y,R30
002d76 e0e0      	LDI  R30,LOW(0)
002d77 93ea      	ST   -Y,R30
002d78 e0a1      	LDI  R26,LOW(1)
002d79 940e 2e41 	CALL _SendEepromCommand
002d7b 30e0      	CPI  R30,0
002d7c f411      	BRNE PC+3
002d7d 940c 2d87 	JMP _0x10002E
                 ; 0008 00A7 data = &eep_status ;                        /* status */
                +
002d7f ee25     +LDI R18 , LOW ( _eep_status )
002d80 e63a     +LDI R19 , HIGH ( _eep_status )
                 	__POINTWRM 18,19,_eep_status
                 ; 0008 00A8 ReadEepromData(data, 1) ;               /* Read 1 bytes */
002d81 933a      	ST   -Y,R19
002d82 932a      	ST   -Y,R18
002d83 e0a1      	LDI  R26,LOW(1)
002d84 940e 2e70 	CALL _ReadEepromData
                 ; 0008 00A9 ret_val = TRUE ;
002d86 e011      	LDI  R17,LOW(1)
                 ; 0008 00AA }
                 ; 0008 00AB break ;
                 _0x10002E:
002d87 c0a3      	RJMP _0x100028
                 ; 0008 00AC case COPY_SP_NV :                                   /* Copy scrpad to eeprom */
                 _0x10002D:
002d88 35e5      	CPI  R30,LOW(0x55)
002d89 e0a0      	LDI  R26,HIGH(0x55)
002d8a 07fa      	CPC  R31,R26
002d8b f011      	BREQ PC+3
002d8c 940c 2da2 	JMP _0x10002F
                 ; 0008 00AD if ( SendEepromCommand(command, 0xa5, 1) ) {
002d8e 81ee      	LDD  R30,Y+6
002d8f 93ea      	ST   -Y,R30
002d90 eae5      	LDI  R30,LOW(165)
002d91 93ea      	ST   -Y,R30
002d92 e0a1      	LDI  R26,LOW(1)
002d93 940e 2e41 	CALL _SendEepromCommand
002d95 30e0      	CPI  R30,0
002d96 f411      	BRNE PC+3
002d97 940c 2da1 	JMP _0x100030
                 ; 0008 00AE set_interrupt_mask(0);                  /* Enable interrupt due to*/
002d99 e0a0      	LDI  R26,LOW(0)
002d9a 940e 302f 	CALL _set_interrupt_mask
                 ; 0008 00AF delay_ms (100); //OneMsecDelay(100) ;   /* the 100 ms delay */
002d9c e6a4      	LDI  R26,LOW(100)
002d9d e0b0      	LDI  R27,0
002d9e 940e 33ca 	CALL _delay_ms
                 ; 0008 00B0 
                 ; 0008 00B1 ret_val = TRUE ;
002da0 e011      	LDI  R17,LOW(1)
                 ; 0008 00B2 }
                 ; 0008 00B3 break ;
                 _0x100030:
002da1 c089      	RJMP _0x100028
                 ; 0008 00B4 case COPY_NV_SP :                                   /* Copy eeprom to scrpad */
                 _0x10002F:
002da2 3fe0      	CPI  R30,LOW(0xF0)
002da3 e0a0      	LDI  R26,HIGH(0xF0)
002da4 07fa      	CPC  R31,R26
002da5 f011      	BREQ PC+3
002da6 940c 2db5 	JMP _0x100031
                 ; 0008 00B5 if ( SendEepromCommand(command, 0, 1) ) {
002da8 81ee      	LDD  R30,Y+6
002da9 93ea      	ST   -Y,R30
002daa e0e0      	LDI  R30,LOW(0)
002dab 93ea      	ST   -Y,R30
002dac e0a1      	LDI  R26,LOW(1)
002dad 940e 2e41 	CALL _SendEepromCommand
002daf 30e0      	CPI  R30,0
002db0 f411      	BRNE PC+3
002db1 940c 2db4 	JMP _0x100032
                 ; 0008 00B6 ret_val = TRUE ;
002db3 e011      	LDI  R17,LOW(1)
                 ; 0008 00B7 }
                 ; 0008 00B8 break ;
                 _0x100032:
002db4 c076      	RJMP _0x100028
                 ; 0008 00B9 case READ_APPREG :                          /* Read APP-REG */
                 _0x100031:
002db5 3ce3      	CPI  R30,LOW(0xC3)
002db6 e0a0      	LDI  R26,HIGH(0xC3)
002db7 07fa      	CPC  R31,R26
002db8 f011      	BREQ PC+3
002db9 940c 2dd4 	JMP _0x100033
                 ; 0008 00BA if ( SendEepromCommand(command, 0, 1) ) {     /* Start at addrss 0 */
002dbb 81ee      	LDD  R30,Y+6
002dbc 93ea      	ST   -Y,R30
002dbd e0e0      	LDI  R30,LOW(0)
002dbe 93ea      	ST   -Y,R30
002dbf e0a1      	LDI  R26,LOW(1)
002dc0 940e 2e41 	CALL _SendEepromCommand
002dc2 30e0      	CPI  R30,0
002dc3 f411      	BRNE PC+3
002dc4 940c 2dd3 	JMP _0x100034
                 ; 0008 00BB data = &packed_data[channel][0] ;   /* ID-REG block */
002dc6 81ef      	LDD  R30,Y+7
002dc7 e2a8      	LDI  R26,LOW(40)
002dc8 9fea      	MUL  R30,R26
002dc9 01f0      	MOVW R30,R0
002dca 55eb      	SUBI R30,LOW(-_packed_data)
002dcb 49f6      	SBCI R31,HIGH(-_packed_data)
002dcc 019f      	MOVW R18,R30
                 ; 0008 00BC ReadEepromData(data, 8) ;               /* Read 8 bytes */
002dcd 933a      	ST   -Y,R19
002dce 932a      	ST   -Y,R18
002dcf e0a8      	LDI  R26,LOW(8)
002dd0 940e 2e70 	CALL _ReadEepromData
                 ; 0008 00BD ret_val = TRUE ;
002dd2 e011      	LDI  R17,LOW(1)
                 ; 0008 00BE }
                 ; 0008 00BF break ;
                 _0x100034:
002dd3 c057      	RJMP _0x100028
                 ; 0008 00C0 case WRITE_APPREG :          /* Write ID-REG */
                 _0x100033:
002dd4 39e9      	CPI  R30,LOW(0x99)
002dd5 e0a0      	LDI  R26,HIGH(0x99)
002dd6 07fa      	CPC  R31,R26
002dd7 f011      	BREQ PC+3
002dd8 940c 2df3 	JMP _0x100035
                 ; 0008 00C1 if ( SendEepromCommand(command, 0, 1) ) {  /* Start at addrss 0 */
002dda 81ee      	LDD  R30,Y+6
002ddb 93ea      	ST   -Y,R30
002ddc e0e0      	LDI  R30,LOW(0)
002ddd 93ea      	ST   -Y,R30
002dde e0a1      	LDI  R26,LOW(1)
002ddf 940e 2e41 	CALL _SendEepromCommand
002de1 30e0      	CPI  R30,0
002de2 f411      	BRNE PC+3
002de3 940c 2df2 	JMP _0x100036
                 ; 0008 00C2 data = &packed_data[channel][0] ;    /* ID-REG block */
002de5 81ef      	LDD  R30,Y+7
002de6 e2a8      	LDI  R26,LOW(40)
002de7 9fea      	MUL  R30,R26
002de8 01f0      	MOVW R30,R0
002de9 55eb      	SUBI R30,LOW(-_packed_data)
002dea 49f6      	SBCI R31,HIGH(-_packed_data)
002deb 019f      	MOVW R18,R30
                 ; 0008 00C3 WriteEepromData(data, 8)    ;            /* Write 8 bytes */
002dec 933a      	ST   -Y,R19
002ded 932a      	ST   -Y,R18
002dee e0a8      	LDI  R26,LOW(8)
002def 940e 2e8f 	CALL _WriteEepromData
                 ; 0008 00C4 ret_val = TRUE ;
002df1 e011      	LDI  R17,LOW(1)
                 ; 0008 00C5 }
                 ; 0008 00C6 break ;
                 _0x100036:
002df2 c038      	RJMP _0x100028
                 ; 0008 00C7 case LOCK_APP :              /* Lock data in ID-Reg */
                 _0x100035:
002df3 35ea      	CPI  R30,LOW(0x5A)
002df4 e0a0      	LDI  R26,HIGH(0x5A)
002df5 07fa      	CPC  R31,R26
002df6 f011      	BREQ PC+3
002df7 940c 2e0d 	JMP _0x100037
                 ; 0008 00C8 if ( SendEepromCommand(command, 0xa5, 1) ) { /* Command importent */
002df9 81ee      	LDD  R30,Y+6
002dfa 93ea      	ST   -Y,R30
002dfb eae5      	LDI  R30,LOW(165)
002dfc 93ea      	ST   -Y,R30
002dfd e0a1      	LDI  R26,LOW(1)
002dfe 940e 2e41 	CALL _SendEepromCommand
002e00 30e0      	CPI  R30,0
002e01 f411      	BRNE PC+3
002e02 940c 2e0c 	JMP _0x100038
                 ; 0008 00C9 set_interrupt_mask(0);                  /* Enable interrupt due to*/
002e04 e0a0      	LDI  R26,LOW(0)
002e05 940e 302f 	CALL _set_interrupt_mask
                 ; 0008 00CA delay_ms(100);          //OneMsecDelay(100) ;  /* the 100 ms delay */
002e07 e6a4      	LDI  R26,LOW(100)
002e08 e0b0      	LDI  R27,0
002e09 940e 33ca 	CALL _delay_ms
                 ; 0008 00CB ret_val = TRUE ;
002e0b e011      	LDI  R17,LOW(1)
                 ; 0008 00CC }
                 ; 0008 00CD break ;
                 _0x100038:
002e0c c01e      	RJMP _0x100028
                 ; 0008 00CE case READ_ROM :          /* Read id from eeprom */
                 _0x100037:
002e0d 33e3      	CPI  R30,LOW(0x33)
002e0e e0a0      	LDI  R26,HIGH(0x33)
002e0f 07fa      	CPC  R31,R26
002e10 f011      	BREQ PC+3
002e11 940c 2e2b 	JMP _0x10003B
                 ; 0008 00CF if ( SendEepromCommand(command, 0, -1) ) {     /* No skip rom command!! */
002e13 81ee      	LDD  R30,Y+6
002e14 93ea      	ST   -Y,R30
002e15 e0e0      	LDI  R30,LOW(0)
002e16 93ea      	ST   -Y,R30
002e17 efaf      	LDI  R26,LOW(255)
002e18 940e 2e41 	CALL _SendEepromCommand
002e1a 30e0      	CPI  R30,0
002e1b f411      	BRNE PC+3
002e1c 940c 2e2a 	JMP _0x10003A
                 ; 0008 00D0 data = &tx_buff[tx_indx] ;                  /* Tx buffer */
002e1e 91e0 6990 	LDS  R30,_tx_indx
002e20 e0f0      	LDI  R31,0
002e21 50e0      	SUBI R30,LOW(-_tx_buff)
002e22 49f8      	SBCI R31,HIGH(-_tx_buff)
002e23 019f      	MOVW R18,R30
                 ; 0008 00D1 ReadEepromData(data, 8) ;            /* Read 8 bytes */
002e24 933a      	ST   -Y,R19
002e25 932a      	ST   -Y,R18
002e26 e0a8      	LDI  R26,LOW(8)
002e27 940e 2e70 	CALL _ReadEepromData
                 ; 0008 00D2 ret_val = TRUE ;
002e29 e011      	LDI  R17,LOW(1)
                 ; 0008 00D3 }
                 ; 0008 00D4 break ;
                 _0x10003A:
002e2a c000      	RJMP _0x100028
                 ; 0008 00D5 default :
                 _0x10003B:
                 ; 0008 00D6 break ;
                 ; 0008 00D7 }
                 _0x100028:
                 ; 0008 00D8 set_interrupt_mask(0);                          /* Enable interrupt */
002e2b e0a0      	LDI  R26,LOW(0)
002e2c 940e 302f 	CALL _set_interrupt_mask
                 ; 0008 00D9 SetSupplyCurrent(1);                                /* set 1mA supply */
002e2e e0a1      	LDI  R26,LOW(1)
002e2f 940e 0b08 	CALL _SetSupplyCurrent
                 ; 0008 00DA SetEepromChannel(EEPCHOFF) ;                    /* 9 = off */
002e31 e0a9      	LDI  R26,LOW(9)
002e32 940e 0709 	CALL _SetEepromChannel
                 ; 0008 00DB SetSupplyChannel(SUPPCHOFF) ;                   /* 16 = off */
002e34 e1a0      	LDI  R26,LOW(16)
002e35 940e 07a7 	CALL _SetSupplyChannel
                 ; 0008 00DC SetCalResistance(OFF) ;                         /* Switch off cal. res. */
002e37 e0a0      	LDI  R26,LOW(0)
002e38 940e 0b17 	CALL _SetCalResistance
                 ; 0008 00DD #asm("wdr");        //KickDog() ; /* kick dog due to long read time*/
002e3a 95a8      	WDR
                 ; 0008 00DE }
                 _0x100025:
                 ; 0008 00DF return ret_val ;
002e3b 2fe1      	MOV  R30,R17
002e3c e0f0      	LDI  R31,0
002e3d 940e 3158 	CALL __LOADLOCR6
002e3f 9628      	ADIW R28,8
002e40 9508      	RET
                 ; 0008 00E0 }
                 ; .FEND
                 ;char SendEepromCommand(unsigned char command, unsigned char cmd_byte, unsigned char number)
                 ; 0008 00E8 {
                 _SendEepromCommand:
                 ; .FSTART _SendEepromCommand
                 ; 0008 00E9 
                 ; 0008 00EA 
                 ; 0008 00EB //    if ( ResetEeprom() )
                 ; 0008 00EC if ( ResetONEWIRE ())
002e41 940e 3153 	CALL __SAVELOCR4
002e43 2f1a      	MOV  R17,R26
002e44 810c      	LDD  R16,Y+4
002e45 813d      	LDD  R19,Y+5
                 ;	command -> R19
                 ;	cmd_byte -> R16
                 ;	number -> R17
002e46 940e 303a 	CALL _ResetONEWIRE
002e48 30e0      	CPI  R30,0
002e49 f411      	BRNE PC+3
002e4a 940c 2e67 	JMP _0x10003C
                 ; 0008 00ED {                /* Reset the chip */
                 ; 0008 00EE if ( number != -1 )
002e4c 2fa1      	MOV  R26,R17
002e4d efef      	LDI  R30,LOW(255)
002e4e e0b0      	LDI  R27,0
002e4f efff      	SER  R31
002e50 17ea      	CP   R30,R26
002e51 07fb      	CPC  R31,R27
002e52 f411      	BRNE PC+3
002e53 940c 2e58 	JMP _0x10003D
                 ; 0008 00EF {
                 ; 0008 00F0 //WriteEepromByte(SKIP_ROM) ;       /* skip rom */
                 ; 0008 00F1 WriteTo_1Wire(SKIP_ROM) ;       /* skip rom */
002e55 ecac      	LDI  R26,LOW(204)
002e56 940e 306c 	CALL _WriteTo_1Wire
                 ; 0008 00F2 }
                 ; 0008 00F3 //WriteEepromByte(command) ;                  /* Write command */
                 ; 0008 00F4 WriteTo_1Wire(command) ;                  /* Write command */
                 _0x10003D:
002e58 2fa3      	MOV  R26,R19
002e59 940e 306c 	CALL _WriteTo_1Wire
                 ; 0008 00F5 
                 ; 0008 00F6 if ( number == 1 )
002e5b 3011      	CPI  R17,1
002e5c f011      	BREQ PC+3
002e5d 940c 2e62 	JMP _0x10003E
                 ; 0008 00F7 {                          /* one cmd */
                 ; 0008 00F8 //WriteEepromByte(cmd_byte) ;         /* Write 2. command */
                 ; 0008 00F9 WriteTo_1Wire(cmd_byte) ;         /* Write 2. command */
002e5f 2fa0      	MOV  R26,R16
002e60 940e 306c 	CALL _WriteTo_1Wire
                 ; 0008 00FA }
                 ; 0008 00FB return TRUE ;
                 _0x10003E:
002e62 e0e1      	LDI  R30,LOW(1)
002e63 940e 315a 	CALL __LOADLOCR4
002e65 9626      	ADIW R28,6
002e66 9508      	RET
                 ; 0008 00FC }
                 ; 0008 00FD else
                 _0x10003C:
                 ; 0008 00FE {
                 ; 0008 00FF return FALSE ;
002e67 e0e0      	LDI  R30,LOW(0)
002e68 940e 315a 	CALL __LOADLOCR4
002e6a 9626      	ADIW R28,6
002e6b 9508      	RET
                 ; 0008 0100 }
                 _0x10003F:
                 ; 0008 0101 }
002e6c 940e 315a 	CALL __LOADLOCR4
002e6e 9626      	ADIW R28,6
002e6f 9508      	RET
                 ; .FEND
                 ;void ReadEepromData(unsigned char *data, char NofBytes)
                 ; 0008 010A {
                 _ReadEepromData:
                 ; .FSTART _ReadEepromData
                 ; 0008 010B short       i;
                 ; 0008 010C 
                 ; 0008 010D for ( i = 0; i < NofBytes; i++ )
002e70 940e 3151 	CALL __SAVELOCR6
002e72 2f3a      	MOV  R19,R26
                +
002e73 814e     +LDD R20 , Y + 6
002e74 815f     +LDD R21 , Y + 6 + 1
                 	__GETWRS 20,21,6
                 ;	*data -> R20,R21
                 ;	NofBytes -> R19
                 ;	i -> R16,R17
                +
002e75 e000     +LDI R16 , LOW ( 0 )
002e76 e010     +LDI R17 , HIGH ( 0 )
                 	__GETWRN 16,17,0
                 _0x100041:
002e77 2fe3      	MOV  R30,R19
002e78 01d8      	MOVW R26,R16
002e79 e0f0      	LDI  R31,0
002e7a 17ae      	CP   R26,R30
002e7b 07bf      	CPC  R27,R31
002e7c f010      	BRLO PC+3
002e7d 940c 2e8b 	JMP _0x100042
                 ; 0008 010E {
                 ; 0008 010F *data++ = Read_1Wire() ;
002e7f 935f      	PUSH R21
002e80 934f      	PUSH R20
                +
002e81 5f4f     +SUBI R20 , LOW ( - 1 )
002e82 4f5f     +SBCI R21 , HIGH ( - 1 )
                 	__ADDWRN 20,21,1
002e83 940e 3099 	CALL _Read_1Wire
002e85 91af      	POP  R26
002e86 91bf      	POP  R27
002e87 93ec      	ST   X,R30
                 ; 0008 0110 }
                 _0x100040:
                +
002e88 5f0f     +SUBI R16 , LOW ( - 1 )
002e89 4f1f     +SBCI R17 , HIGH ( - 1 )
                 	__ADDWRN 16,17,1
002e8a cfec      	RJMP _0x100041
                 _0x100042:
                 ; 0008 0111 }
002e8b 940e 3158 	CALL __LOADLOCR6
002e8d 9628      	ADIW R28,8
002e8e 9508      	RET
                 ; .FEND
                 ;void WriteEepromData(unsigned char* data, char NofBytes)
                 ; 0008 0119 {
                 _WriteEepromData:
                 ; .FSTART _WriteEepromData
                 ; 0008 011A short       i;
                 ; 0008 011B 
                 ; 0008 011C 
                 ; 0008 011D for ( i = 0; i < NofBytes; i++ ) {
002e8f 940e 3151 	CALL __SAVELOCR6
002e91 2f3a      	MOV  R19,R26
                +
002e92 814e     +LDD R20 , Y + 6
002e93 815f     +LDD R21 , Y + 6 + 1
                 	__GETWRS 20,21,6
                 ;	*data -> R20,R21
                 ;	NofBytes -> R19
                 ;	i -> R16,R17
                +
002e94 e000     +LDI R16 , LOW ( 0 )
002e95 e010     +LDI R17 , HIGH ( 0 )
                 	__GETWRN 16,17,0
                 _0x100044:
002e96 2fe3      	MOV  R30,R19
002e97 01d8      	MOVW R26,R16
002e98 e0f0      	LDI  R31,0
002e99 17ae      	CP   R26,R30
002e9a 07bf      	CPC  R27,R31
002e9b f010      	BRLO PC+3
002e9c 940c 2ea7 	JMP _0x100045
                 ; 0008 011E //WriteEepromByte(*data++) ;
                 ; 0008 011F WriteTo_1Wire(*data++);
002e9e 01da      	MOVW R26,R20
                +
002e9f 5f4f     +SUBI R20 , LOW ( - 1 )
002ea0 4f5f     +SBCI R21 , HIGH ( - 1 )
                 	__ADDWRN 20,21,1
002ea1 91ac      	LD   R26,X
002ea2 940e 306c 	CALL _WriteTo_1Wire
                 ; 0008 0120 }
                 _0x100043:
                +
002ea4 5f0f     +SUBI R16 , LOW ( - 1 )
002ea5 4f1f     +SBCI R17 , HIGH ( - 1 )
                 	__ADDWRN 16,17,1
002ea6 cfef      	RJMP _0x100044
                 _0x100045:
                 ; 0008 0121 
                 ; 0008 0122 }
002ea7 940e 3158 	CALL __LOADLOCR6
002ea9 9628      	ADIW R28,8
002eaa 9508      	RET
                 ; .FEND
                 ;unsigned int CheckEepChannel(void)
                 ; 0008 01B0 {
                 _CheckEepChannel:
                 ; .FSTART _CheckEepChannel
                 ; 0008 01B1 
                 ; 0008 01B2 short ch, i  ;
                 ; 0008 01B3 
                 ; 0008 01B4 /* read the on board eeprom */
                 ; 0008 01B5 if ( !(eep_type[7] & 0x10 ) && !(eep_type[7] & 0x09) ) {   /* ok sens || ok pc*/
002eab 940e 3153 	CALL __SAVELOCR4
                 ;	ch -> R16,R17
                 ;	i -> R18,R19
                +
002ead 91e0 6be6+LDS R30 , _eep_type + ( 7 )
                 	__GETB1MN _eep_type,7
002eaf 71e0      	ANDI R30,LOW(0x10)
002eb0 f011      	BREQ PC+3
002eb1 940c 2eba 	JMP _0x100047
                +
002eb3 91e0 6be6+LDS R30 , _eep_type + ( 7 )
                 	__GETB1MN _eep_type,7
002eb5 70e9      	ANDI R30,LOW(0x9)
002eb6 f011      	BREQ PC+3
002eb7 940c 2eba 	JMP _0x100047
002eb9 c001      	RJMP _0x100048
                 _0x100047:
002eba c055      	RJMP _0x100046
                 _0x100048:
                 ; 0008 01B6 eep_type[7] |= 0x20 ;               /* Error before OK proved */
                +
002ebb 91e0 6be6+LDS R30 , _eep_type + ( 7 )
                 	__GETB1MN _eep_type,7
002ebd 62e0      	ORI  R30,0x20
                +
002ebe 93e0 6be6+STS _eep_type + ( 7 ) , R30
                 	__PUTB1MN _eep_type,7
                 ; 0008 01B7 eep_type[7] &= ~0x10 ;
002ec0 7eef      	ANDI R30,0xEF
                +
002ec1 93e0 6be6+STS _eep_type + ( 7 ) , R30
                 	__PUTB1MN _eep_type,7
                 ; 0008 01B8 if ( Eeprom(7, COPY_NV_SP) ) {
002ec3 e0e7      	LDI  R30,LOW(7)
002ec4 93ea      	ST   -Y,R30
002ec5 efa0      	LDI  R26,LOW(240)
002ec6 940e 2bf0 	CALL _Eeprom
002ec8 9730      	SBIW R30,0
002ec9 f411      	BRNE PC+3
002eca 940c 2f10 	JMP _0x100049
                 ; 0008 01B9 if ( Eeprom(7, READ_SP) ) {
002ecc e0e7      	LDI  R30,LOW(7)
002ecd 93ea      	ST   -Y,R30
002ece eaaa      	LDI  R26,LOW(170)
002ecf 940e 2bf0 	CALL _Eeprom
002ed1 9730      	SBIW R30,0
002ed2 f411      	BRNE PC+3
002ed3 940c 2f10 	JMP _0x10004A
                 ; 0008 01BA if ( Eeprom(7, READ_APPREG) ) {
002ed5 e0e7      	LDI  R30,LOW(7)
002ed6 93ea      	ST   -Y,R30
002ed7 eca3      	LDI  R26,LOW(195)
002ed8 940e 2bf0 	CALL _Eeprom
002eda 9730      	SBIW R30,0
002edb f411      	BRNE PC+3
002edc 940c 2f10 	JMP _0x10004B
                 ; 0008 01BB if ( CheckADData(&packed_data[7][0]) &&
                 ; 0008 01BC CheckEepData(&packed_data[7][8]) ) {          /*check checksum */
                +
002ede ebad     +LDI R26 , LOW ( _packed_data + ( 280 ) )
002edf e6ba     +LDI R27 , HIGH ( _packed_data + ( 280 ) )
                 	__POINTW2MN _packed_data,280
002ee0 940e 2fa1 	CALL _CheckADData
002ee2 30e0      	CPI  R30,0
002ee3 f411      	BRNE PC+3
002ee4 940c 2eef 	JMP _0x10004D
                +
002ee6 eca5     +LDI R26 , LOW ( _packed_data + ( 288 ) )
002ee7 e6ba     +LDI R27 , HIGH ( _packed_data + ( 288 ) )
                 	__POINTW2MN _packed_data,288
002ee8 940e 2fde 	CALL _CheckEepData
002eea 30e0      	CPI  R30,0
002eeb f411      	BRNE PC+3
002eec 940c 2eef 	JMP _0x10004D
002eee c001      	RJMP _0x10004E
                 _0x10004D:
002eef c020      	RJMP _0x10004C
                 _0x10004E:
                 ; 0008 01BD eep_type[7] &= ~0x20 ;
                +
002ef0 91e0 6be6+LDS R30 , _eep_type + ( 7 )
                 	__GETB1MN _eep_type,7
002ef2 7def      	ANDI R30,0xDF
                +
002ef3 93e0 6be6+STS _eep_type + ( 7 ) , R30
                 	__PUTB1MN _eep_type,7
                 ; 0008 01BE eep_type[7] |= 0x10 ;           /* OK from eeprom */
002ef5 61e0      	ORI  R30,0x10
                +
002ef6 93e0 6be6+STS _eep_type + ( 7 ) , R30
                 	__PUTB1MN _eep_type,7
                 ; 0008 01BF for ( i=0; i < NOIOCH; i++ ) {
                +
002ef8 e020     +LDI R18 , LOW ( 0 )
002ef9 e030     +LDI R19 , HIGH ( 0 )
                 	__GETWRN 18,19,0
                 _0x100050:
                +
002efa 302e     +CPI R18 , LOW ( 14 )
002efb e0e0     +LDI R30 , HIGH ( 14 )
002efc 073e     +CPC R19 , R30
                 	__CPWRN 18,19,14
002efd f010      	BRLO PC+3
002efe 940c 2f10 	JMP _0x100051
                 ; 0008 01C0 ch_stat[i] = packed_data[7][i+8] ;    /* copy setup */
002f00 01f9      	MOVW R30,R18
002f01 52ef      	SUBI R30,LOW(-_ch_stat)
002f02 49f4      	SBCI R31,HIGH(-_ch_stat)
002f03 010f      	MOVW R0,R30
                +
002f04 ebad     +LDI R26 , LOW ( _packed_data + ( 280 ) )
002f05 e6ba     +LDI R27 , HIGH ( _packed_data + ( 280 ) )
                 	__POINTW2MN _packed_data,280
002f06 01f9      	MOVW R30,R18
002f07 9638      	ADIW R30,8
002f08 0fae      	ADD  R26,R30
002f09 1fbf      	ADC  R27,R31
002f0a 91ec      	LD   R30,X
002f0b 01d0      	MOVW R26,R0
002f0c 93ec      	ST   X,R30
                 ; 0008 01C1 }
                 _0x10004F:
                +
002f0d 5f2f     +SUBI R18 , LOW ( - 1 )
002f0e 4f3f     +SBCI R19 , HIGH ( - 1 )
                 	__ADDWRN 18,19,1
002f0f cfea      	RJMP _0x100050
                 _0x100051:
                 ; 0008 01C2 }
                 ; 0008 01C3 }
                 _0x10004C:
                 ; 0008 01C4 }
                 _0x10004B:
                 ; 0008 01C5 }
                 _0x10004A:
                 ; 0008 01C6 }
                 _0x100049:
                 ; 0008 01C7 for ( ch=0; ch < NOPSD-1; ch++ ) {
                 _0x100046:
                +
002f10 e000     +LDI R16 , LOW ( 0 )
002f11 e010     +LDI R17 , HIGH ( 0 )
                 	__GETWRN 16,17,0
                 _0x100053:
                +
002f12 3007     +CPI R16 , LOW ( 7 )
002f13 e0e0     +LDI R30 , HIGH ( 7 )
002f14 071e     +CPC R17 , R30
                 	__CPWRN 16,17,7
002f15 f010      	BRLO PC+3
002f16 940c 2f9b 	JMP _0x100054
                 ; 0008 01C8 if ( !(eep_type[ch] & 0x10 ) && !(eep_type[ch]& 0x09) &&    /* ok sens || ok pc*/
                 ; 0008 01C9 ((ch_stat[ch<<1] & 0x1c) || (ch_stat[ch<<1] & 0x60)) ) { /* && pressure */
002f18 edaf      	LDI  R26,LOW(_eep_type)
002f19 e6bb      	LDI  R27,HIGH(_eep_type)
002f1a 0fa0      	ADD  R26,R16
002f1b 1fb1      	ADC  R27,R17
002f1c 91ec      	LD   R30,X
002f1d 71e0      	ANDI R30,LOW(0x10)
002f1e f011      	BREQ PC+3
002f1f 940c 2f40 	JMP _0x100056
002f21 edaf      	LDI  R26,LOW(_eep_type)
002f22 e6bb      	LDI  R27,HIGH(_eep_type)
002f23 0fa0      	ADD  R26,R16
002f24 1fb1      	ADC  R27,R17
002f25 91ec      	LD   R30,X
002f26 70e9      	ANDI R30,LOW(0x9)
002f27 f011      	BREQ PC+3
002f28 940c 2f40 	JMP _0x100056
002f2a 01f8      	MOVW R30,R16
002f2b 0fee      	LSL  R30
002f2c 1fff      	ROL  R31
002f2d 52ef      	SUBI R30,LOW(-_ch_stat)
002f2e 49f4      	SBCI R31,HIGH(-_ch_stat)
002f2f 81e0      	LD   R30,Z
002f30 71ec      	ANDI R30,LOW(0x1C)
002f31 f011      	BREQ PC+3
002f32 940c 2f3f 	JMP _0x100057
002f34 01f8      	MOVW R30,R16
002f35 0fee      	LSL  R30
002f36 1fff      	ROL  R31
002f37 52ef      	SUBI R30,LOW(-_ch_stat)
002f38 49f4      	SBCI R31,HIGH(-_ch_stat)
002f39 81e0      	LD   R30,Z
002f3a 76e0      	ANDI R30,LOW(0x60)
002f3b f011      	BREQ PC+3
002f3c 940c 2f3f 	JMP _0x100057
002f3e c001      	RJMP _0x100056
                 _0x100057:
002f3f c001      	RJMP _0x100059
                 _0x100056:
002f40 c057      	RJMP _0x100055
                 _0x100059:
                 ; 0008 01CA eep_type[ch] |= 0x20 ;              /* Error before OK proved */
002f41 01d8      	MOVW R26,R16
002f42 52a1      	SUBI R26,LOW(-_eep_type)
002f43 49b4      	SBCI R27,HIGH(-_eep_type)
002f44 91ec      	LD   R30,X
002f45 62e0      	ORI  R30,0x20
002f46 93ec      	ST   X,R30
                 ; 0008 01CB eep_type[ch] &= ~0x10 ;
002f47 01d8      	MOVW R26,R16
002f48 52a1      	SUBI R26,LOW(-_eep_type)
002f49 49b4      	SBCI R27,HIGH(-_eep_type)
002f4a 91ec      	LD   R30,X
002f4b 7eef      	ANDI R30,0xEF
002f4c 93ec      	ST   X,R30
                 ; 0008 01CC if ( Eeprom(ch, COPY_NV_SP) ) {
002f4d 930a      	ST   -Y,R16
002f4e efa0      	LDI  R26,LOW(240)
002f4f 940e 2bf0 	CALL _Eeprom
002f51 9730      	SBIW R30,0
002f52 f411      	BRNE PC+3
002f53 940c 2f98 	JMP _0x10005A
                 ; 0008 01CD if ( Eeprom(ch, READ_SP) ) {
002f55 930a      	ST   -Y,R16
002f56 eaaa      	LDI  R26,LOW(170)
002f57 940e 2bf0 	CALL _Eeprom
002f59 9730      	SBIW R30,0
002f5a f411      	BRNE PC+3
002f5b 940c 2f98 	JMP _0x10005B
                 ; 0008 01CE if ( Eeprom(ch, READ_APPREG) ) {
002f5d 930a      	ST   -Y,R16
002f5e eca3      	LDI  R26,LOW(195)
002f5f 940e 2bf0 	CALL _Eeprom
002f61 9730      	SBIW R30,0
002f62 f411      	BRNE PC+3
002f63 940c 2f98 	JMP _0x10005C
                 ; 0008 01CF if ( CheckADData(&packed_data[ch][0]) &&
                 ; 0008 01D0 CheckEepData(&packed_data[ch][8]) ) { /*check checksum */
                +
002f65 e2a8     +LDI R26 , 40
002f66 9fa0     +MUL R26 , R16
002f67 01f0     +MOVW R30 , R0
002f68 9fa1     +MUL R26 , R17
002f69 0df0     +ADD R31 , R0
                 	__MULBNWRU 16,17,40
002f6a 55eb      	SUBI R30,LOW(-_packed_data)
002f6b 49f6      	SBCI R31,HIGH(-_packed_data)
002f6c 01df      	MOVW R26,R30
002f6d 940e 2fa1 	CALL _CheckADData
002f6f 30e0      	CPI  R30,0
002f70 f411      	BRNE PC+3
002f71 940c 2f82 	JMP _0x10005E
                +
002f73 e2a8     +LDI R26 , 40
002f74 9fa0     +MUL R26 , R16
002f75 01f0     +MOVW R30 , R0
002f76 9fa1     +MUL R26 , R17
002f77 0df0     +ADD R31 , R0
                 	__MULBNWRU 16,17,40
                +
002f78 55e3     +SUBI R30 , LOW ( - _packed_data - ( 8 ) )
002f79 49f6     +SBCI R31 , HIGH ( - _packed_data - ( 8 ) )
                 	__ADDW1MN _packed_data,8
002f7a 01df      	MOVW R26,R30
002f7b 940e 2fde 	CALL _CheckEepData
002f7d 30e0      	CPI  R30,0
002f7e f411      	BRNE PC+3
002f7f 940c 2f82 	JMP _0x10005E
002f81 c001      	RJMP _0x10005F
                 _0x10005E:
002f82 c015      	RJMP _0x10005D
                 _0x10005F:
                 ; 0008 01D1 eep_type[ch] &= ~0x20 ;
002f83 01d8      	MOVW R26,R16
002f84 52a1      	SUBI R26,LOW(-_eep_type)
002f85 49b4      	SBCI R27,HIGH(-_eep_type)
002f86 91ec      	LD   R30,X
002f87 7def      	ANDI R30,0xDF
002f88 93ec      	ST   X,R30
                 ; 0008 01D2 eep_type[ch] |= 0x10 ;           /* OK from eeprom */
002f89 01d8      	MOVW R26,R16
002f8a 52a1      	SUBI R26,LOW(-_eep_type)
002f8b 49b4      	SBCI R27,HIGH(-_eep_type)
002f8c 91ec      	LD   R30,X
002f8d 61e0      	ORI  R30,0x10
002f8e 93ec      	ST   X,R30
                 ; 0008 01D3 ch_stat[ch << 1] |= 0x80 ;            /* New sensor flagged */
002f8f 01f8      	MOVW R30,R16
002f90 0fee      	LSL  R30
002f91 1fff      	ROL  R31
002f92 52ef      	SUBI R30,LOW(-_ch_stat)
002f93 49f4      	SBCI R31,HIGH(-_ch_stat)
002f94 01df      	MOVW R26,R30
002f95 91ec      	LD   R30,X
002f96 68e0      	ORI  R30,0x80
002f97 93ec      	ST   X,R30
                 ; 0008 01D4 }
                 ; 0008 01D5 }
                 _0x10005D:
                 ; 0008 01D6 }
                 _0x10005C:
                 ; 0008 01D7 }
                 _0x10005B:
                 ; 0008 01D8 }
                 _0x10005A:
                 ; 0008 01D9 }
                 _0x100055:
                 _0x100052:
                +
002f98 5f0f     +SUBI R16 , LOW ( - 1 )
002f99 4f1f     +SBCI R17 , HIGH ( - 1 )
                 	__ADDWRN 16,17,1
002f9a cf77      	RJMP _0x100053
                 _0x100054:
                 ; 0008 01DA return 0;
002f9b e0e0      	LDI  R30,LOW(0)
002f9c e0f0      	LDI  R31,HIGH(0)
002f9d 940e 315a 	CALL __LOADLOCR4
002f9f 9624      	ADIW R28,4
002fa0 9508      	RET
                 ; 0008 01DB }
                 ; .FEND
                 ;unsigned char CheckADData(unsigned char *data)
                 ; 0008 01E3 {
                 _CheckADData:
                 ; .FSTART _CheckADData
                 ; 0008 01E4 
                 ; 0008 01E5 int             cnt ;
                 ; 0008 01E6 unsigned char   csum, ok ;
                 ; 0008 01E7 
                 ; 0008 01E8 ok = FALSE ;
002fa1 940e 3151 	CALL __SAVELOCR6
002fa3 01ad      	MOVW R20,R26
                 ;	*data -> R20,R21
                 ;	cnt -> R16,R17
                 ;	csum -> R19
                 ;	ok -> R18
002fa4 e020      	LDI  R18,LOW(0)
                 ; 0008 01E9 csum = 0 ;
002fa5 e030      	LDI  R19,LOW(0)
                 ; 0008 01EA for ( cnt = 0 ; cnt < 7 ; cnt++ )
                +
002fa6 e000     +LDI R16 , LOW ( 0 )
002fa7 e010     +LDI R17 , HIGH ( 0 )
                 	__GETWRN 16,17,0
                 _0x100061:
                +
002fa8 3007     +CPI R16 , LOW ( 7 )
002fa9 e0e0     +LDI R30 , HIGH ( 7 )
002faa 071e     +CPC R17 , R30
                 	__CPWRN 16,17,7
002fab f014      	BRLT PC+3
002fac 940c 2fc4 	JMP _0x100062
                 ; 0008 01EB {
                 ; 0008 01EC if ( *data != 0x00 ) {
002fae 01da      	MOVW R26,R20
002faf 91ec      	LD   R30,X
002fb0 30e0      	CPI  R30,0
002fb1 f411      	BRNE PC+3
002fb2 940c 2fb5 	JMP _0x100063
                 ; 0008 01ED ok = TRUE ;
002fb4 e021      	LDI  R18,LOW(1)
                 ; 0008 01EE }
                 ; 0008 01EF csum = crc[csum ^ *data++] ;
                 _0x100063:
002fb5 2e03      	MOV  R0,R19
002fb6 2411      	CLR  R1
002fb7 01da      	MOVW R26,R20
                +
002fb8 5f4f     +SUBI R20 , LOW ( - 1 )
002fb9 4f5f     +SBCI R21 , HIGH ( - 1 )
                 	__ADDWRN 20,21,1
002fba 91ec      	LD   R30,X
002fbb e0f0      	LDI  R31,0
002fbc 25e0      	EOR  R30,R0
002fbd 25f1      	EOR  R31,R1
002fbe 5fec      	SUBI R30,LOW(-_crc*2)
002fbf 4ffe      	SBCI R31,HIGH(-_crc*2)
002fc0 9134      	LPM  R19,Z
                 ; 0008 01F0 }
                 _0x100060:
                +
002fc1 5f0f     +SUBI R16 , LOW ( - 1 )
002fc2 4f1f     +SBCI R17 , HIGH ( - 1 )
                 	__ADDWRN 16,17,1
002fc3 cfe4      	RJMP _0x100061
                 _0x100062:
                 ; 0008 01F1 if ( (csum == *data) && (ok == TRUE) )
002fc4 01da      	MOVW R26,R20
002fc5 91ec      	LD   R30,X
002fc6 17e3      	CP   R30,R19
002fc7 f011      	BREQ PC+3
002fc8 940c 2fcf 	JMP _0x100065
002fca 3021      	CPI  R18,1
002fcb f011      	BREQ PC+3
002fcc 940c 2fcf 	JMP _0x100065
002fce c001      	RJMP _0x100066
                 _0x100065:
002fcf c005      	RJMP _0x100064
                 _0x100066:
                 ; 0008 01F2 {   //LED3_OFF;
                 ; 0008 01F3 return TRUE ;
002fd0 e0e1      	LDI  R30,LOW(1)
002fd1 940e 3158 	CALL __LOADLOCR6
002fd3 9626      	ADIW R28,6
002fd4 9508      	RET
                 ; 0008 01F4 
                 ; 0008 01F5 }
                 ; 0008 01F6 else
                 _0x100064:
                 ; 0008 01F7 {   //LED3_ON;
                 ; 0008 01F8 return FALSE ;
002fd5 e0e0      	LDI  R30,LOW(0)
002fd6 940e 3158 	CALL __LOADLOCR6
002fd8 9626      	ADIW R28,6
002fd9 9508      	RET
                 ; 0008 01F9 
                 ; 0008 01FA }
                 _0x100067:
                 ; 0008 01FB }
002fda 940e 3158 	CALL __LOADLOCR6
002fdc 9626      	ADIW R28,6
002fdd 9508      	RET
                 ; .FEND
                 ;unsigned char CheckEepData(unsigned char *data)
                 ; 0008 0204 {
                 _CheckEepData:
                 ; .FSTART _CheckEepData
                 ; 0008 0205 
                 ; 0008 0206 int             cnt ;
                 ; 0008 0207 //    unsigned char   csum, ok ;
                 ; 0008 0208 unsigned char   csum;
                 ; 0008 0209 
                 ; 0008 020A csum = 0 ;
002fde 940e 3151 	CALL __SAVELOCR6
002fe0 01ad      	MOVW R20,R26
                 ;	*data -> R20,R21
                 ;	cnt -> R16,R17
                 ;	csum -> R19
002fe1 e030      	LDI  R19,LOW(0)
                 ; 0008 020B for ( cnt = 8 ; cnt < (PACKED_DATA_SIZE -1) ; cnt++ ) {
                +
002fe2 e008     +LDI R16 , LOW ( 8 )
002fe3 e010     +LDI R17 , HIGH ( 8 )
                 	__GETWRN 16,17,8
                 _0x100069:
                +
002fe4 3207     +CPI R16 , LOW ( 39 )
002fe5 e0e0     +LDI R30 , HIGH ( 39 )
002fe6 071e     +CPC R17 , R30
                 	__CPWRN 16,17,39
002fe7 f014      	BRLT PC+3
002fe8 940c 2ff9 	JMP _0x10006A
                 ; 0008 020C csum = crc[csum ^ *data++] ;
002fea 2e03      	MOV  R0,R19
002feb 2411      	CLR  R1
002fec 01da      	MOVW R26,R20
                +
002fed 5f4f     +SUBI R20 , LOW ( - 1 )
002fee 4f5f     +SBCI R21 , HIGH ( - 1 )
                 	__ADDWRN 20,21,1
002fef 91ec      	LD   R30,X
002ff0 e0f0      	LDI  R31,0
002ff1 25e0      	EOR  R30,R0
002ff2 25f1      	EOR  R31,R1
002ff3 5fec      	SUBI R30,LOW(-_crc*2)
002ff4 4ffe      	SBCI R31,HIGH(-_crc*2)
002ff5 9134      	LPM  R19,Z
                 ; 0008 020D }
                 _0x100068:
                +
002ff6 5f0f     +SUBI R16 , LOW ( - 1 )
002ff7 4f1f     +SBCI R17 , HIGH ( - 1 )
                 	__ADDWRN 16,17,1
002ff8 cfeb      	RJMP _0x100069
                 _0x10006A:
                 ; 0008 020E if ( csum == *data )
002ff9 01da      	MOVW R26,R20
002ffa 91ec      	LD   R30,X
002ffb 17e3      	CP   R30,R19
002ffc f011      	BREQ PC+3
002ffd 940c 3004 	JMP _0x10006B
                 ; 0008 020F {   //LED4_OFF;
                 ; 0008 0210 return TRUE ;
002fff e0e1      	LDI  R30,LOW(1)
003000 940e 3158 	CALL __LOADLOCR6
003002 9626      	ADIW R28,6
003003 9508      	RET
                 ; 0008 0211 }
                 ; 0008 0212 else
                 _0x10006B:
                 ; 0008 0213 {   //LED4_ON;
                 ; 0008 0214 return FALSE ;
003004 e0e0      	LDI  R30,LOW(0)
003005 940e 3158 	CALL __LOADLOCR6
003007 9626      	ADIW R28,6
003008 9508      	RET
                 ; 0008 0215 }
                 _0x10006C:
                 ; 0008 0216 }
003009 940e 3158 	CALL __LOADLOCR6
00300b 9626      	ADIW R28,6
00300c 9508      	RET
                 ; .FEND
                 ;void MakeEepChksum(unsigned char *data)
                 ; 0008 021E {
                 _MakeEepChksum:
                 ; .FSTART _MakeEepChksum
                 ; 0008 021F 
                 ; 0008 0220 int             cnt ;
                 ; 0008 0221 unsigned char   csum ;
                 ; 0008 0222 
                 ; 0008 0223 csum = 0 ;
00300d 940e 3151 	CALL __SAVELOCR6
00300f 01ad      	MOVW R20,R26
                 ;	*data -> R20,R21
                 ;	cnt -> R16,R17
                 ;	csum -> R19
003010 e030      	LDI  R19,LOW(0)
                 ; 0008 0224 for ( cnt = 8 ; cnt < (PACKED_DATA_SIZE -1) ; cnt++ ) {
                +
003011 e008     +LDI R16 , LOW ( 8 )
003012 e010     +LDI R17 , HIGH ( 8 )
                 	__GETWRN 16,17,8
                 _0x10006E:
                +
003013 3207     +CPI R16 , LOW ( 39 )
003014 e0e0     +LDI R30 , HIGH ( 39 )
003015 071e     +CPC R17 , R30
                 	__CPWRN 16,17,39
003016 f014      	BRLT PC+3
003017 940c 3028 	JMP _0x10006F
                 ; 0008 0225 csum = crc[csum ^ *data++] ;
003019 2e03      	MOV  R0,R19
00301a 2411      	CLR  R1
00301b 01da      	MOVW R26,R20
                +
00301c 5f4f     +SUBI R20 , LOW ( - 1 )
00301d 4f5f     +SBCI R21 , HIGH ( - 1 )
                 	__ADDWRN 20,21,1
00301e 91ec      	LD   R30,X
00301f e0f0      	LDI  R31,0
003020 25e0      	EOR  R30,R0
003021 25f1      	EOR  R31,R1
003022 5fec      	SUBI R30,LOW(-_crc*2)
003023 4ffe      	SBCI R31,HIGH(-_crc*2)
003024 9134      	LPM  R19,Z
                 ; 0008 0226 }
                 _0x10006D:
                +
003025 5f0f     +SUBI R16 , LOW ( - 1 )
003026 4f1f     +SBCI R17 , HIGH ( - 1 )
                 	__ADDWRN 16,17,1
003027 cfeb      	RJMP _0x10006E
                 _0x10006F:
                 ; 0008 0227 *data = csum ;
003028 2fe3      	MOV  R30,R19
003029 01da      	MOVW R26,R20
00302a 93ec      	ST   X,R30
                 ; 0008 0228 }
00302b 940e 3158 	CALL __LOADLOCR6
00302d 9626      	ADIW R28,6
00302e 9508      	RET
                 ; .FEND
                 ;void set_interrupt_mask (unsigned char data)
                 ; 0008 022B {
                 _set_interrupt_mask:
                 ; .FSTART _set_interrupt_mask
                 ; 0008 022C if (data==0)
00302f 931a      	ST   -Y,R17
003030 2f1a      	MOV  R17,R26
                 ;	data -> R17
003031 3010      	CPI  R17,0
003032 f011      	BREQ PC+3
003033 940c 3037 	JMP _0x100070
                 ; 0008 022D #asm("sei");
003035 9478      	SEI
                 ; 0008 022E else
003036 c001      	RJMP _0x100071
                 _0x100070:
                 ; 0008 022F #asm("cli");
003037 94f8      	CLI
                 ; 0008 0230 }
                 _0x100071:
003038 9119      	LD   R17,Y+
003039 9508      	RET
                 ; .FEND
                 ;char ResetONEWIRE (void)
                 ; 0009 0015 {   unsigned char result=0;
                 
                 	.CSEG
                 _ResetONEWIRE:
                 ; .FSTART _ResetONEWIRE
                 ; 0009 0016 unsigned char loop=1;
                 ; 0009 0017 ONEWIRE_CLR;                // set pin low
00303a 931a      	ST   -Y,R17
00303b 930a      	ST   -Y,R16
                 ;	result -> R17
                 ;	loop -> R16
00303c e010      	LDI  R17,0
00303d e001      	LDI  R16,1
00303e e0e2      	LDI  R30,LOW(2)
00303f 93e0 04a5 	STS  1189,R30
                 ; 0009 0018 delay_us( TRSTL ); // wait delay max from Maxim, see *.h the value
                +
003041 e18c     +LDI R24 , LOW ( 540 )
003042 e092     +LDI R25 , HIGH ( 540 )
                +__DELAY_USW_LOOP :
003043 9701     +SBIW R24 , 1
003044 f7f1     +BRNE __DELAY_USW_LOOP
                 	__DELAY_USW 540
                 ; 0009 0019 ONEWIRE_SET;    // Set pin high
003045 93e0 04a6 	STS  1190,R30
                 ; 0009 001A delay_us (TMSP);
                +
003047 e589     +LDI R24 , LOW ( 89 )
                +__DELAY_USB_LOOP :
003048 958a     +DEC R24
003049 f7f1     +BRNE __DELAY_USB_LOOP
                 	__DELAY_USB 89
                 ; 0009 001B if (ONEWIRE_READ == 0 )  // confirm presence
00304a 91e0 04a8 	LDS  R30,1192
00304c 70e1      	ANDI R30,LOW(0x1)
00304d f011      	BREQ PC+3
00304e 940c 3052 	JMP _0x120003
                 ; 0009 001C result = 0x01;
003050 e011      	LDI  R17,LOW(1)
                 ; 0009 001D else
003051 c001      	RJMP _0x120004
                 _0x120003:
                 ; 0009 001E result = 0x00;
003052 e010      	LDI  R17,LOW(0)
                 ; 0009 001F // wait line release to High, if not sensor it is high with pull up.
                 ; 0009 0020 while (loop)
                 _0x120004:
                 _0x120005:
003053 3000      	CPI  R16,0
003054 f411      	BRNE PC+3
003055 940c 3065 	JMP _0x120007
                 ; 0009 0021 {   if (ONEWIRE_READ == 1 )
003057 91e0 04a8 	LDS  R30,1192
003059 70e1      	ANDI R30,LOW(0x1)
00305a e0a0      	LDI  R26,LOW(0)
                +
00305b 17ea     +CP R30 , R26
00305c e0e1     +LDI R30 , 1
00305d f409     +BRNE PC + 2
00305e 27ee     +CLR R30
                 	__NEB12
00305f 30e1      	CPI  R30,LOW(0x1)
003060 f011      	BREQ PC+3
003061 940c 3064 	JMP _0x120008
                 ; 0009 0022 loop=0; // exit
003063 e000      	LDI  R16,LOW(0)
                 ; 0009 0023 }
                 _0x120008:
003064 cfee      	RJMP _0x120005
                 _0x120007:
                 ; 0009 0024 delay_us(TREC);
                +
003065 e087     +LDI R24 , LOW ( 7 )
                +__DELAY_USB_LOOP :
003066 958a     +DEC R24
003067 f7f1     +BRNE __DELAY_USB_LOOP
                 	__DELAY_USB 7
                 ; 0009 0025 return result;
003068 2fe1      	MOV  R30,R17
003069 9109      	LD   R16,Y+
00306a 9119      	LD   R17,Y+
00306b 9508      	RET
                 ; 0009 0026 }
                 ; .FEND
                 ;void    WriteTo_1Wire ( unsigned char data )
                 ; 0009 002B {   unsigned char temp;
                 _WriteTo_1Wire:
                 ; .FSTART _WriteTo_1Wire
                 ; 0009 002C unsigned char nb_bit=8;
                 ; 0009 002D temp=data;
00306c 940e 3153 	CALL __SAVELOCR4
00306e 2f3a      	MOV  R19,R26
                 ;	data -> R19
                 ;	temp -> R17
                 ;	nb_bit -> R16
00306f e008      	LDI  R16,8
003070 2f13      	MOV  R17,R19
                 ; 0009 002E while (nb_bit)
                 _0x120009:
003071 3000      	CPI  R16,0
003072 f411      	BRNE PC+3
003073 940c 3095 	JMP _0x12000B
                 ; 0009 002F {
                 ; 0009 0030 if ( (temp & 0x01) == 0x01) // send "1"
003075 2fe1      	MOV  R30,R17
003076 70e1      	ANDI R30,LOW(0x1)
003077 30e1      	CPI  R30,LOW(0x1)
003078 f011      	BREQ PC+3
003079 940c 3087 	JMP _0x12000C
                 ; 0009 0031 {   ONEWIRE_CLR;    // set pin low
00307b e0e2      	LDI  R30,LOW(2)
00307c 93e0 04a5 	STS  1189,R30
                 ; 0009 0032 delay_us( TW1_LOW ); //
                +
00307e e087     +LDI R24 , LOW ( 7 )
                +__DELAY_USB_LOOP :
00307f 958a     +DEC R24
003080 f7f1     +BRNE __DELAY_USB_LOOP
                 	__DELAY_USB 7
                 ; 0009 0033 ONEWIRE_SET;    // Set pin high
003081 93e0 04a6 	STS  1190,R30
                 ; 0009 0034 delay_us( TW1_SLOT ); // wait delay max from Maxim, see *.h the value
                +
003083 e580     +LDI R24 , LOW ( 80 )
                +__DELAY_USB_LOOP :
003084 958a     +DEC R24
003085 f7f1     +BRNE __DELAY_USB_LOOP
                 	__DELAY_USB 80
                 ; 0009 0035 }
                 ; 0009 0036 else    // send "0"
003086 c00b      	RJMP _0x12000D
                 _0x12000C:
                 ; 0009 0037 {   ONEWIRE_CLR;    // set pin low
003087 e0e2      	LDI  R30,LOW(2)
003088 93e0 04a5 	STS  1189,R30
                 ; 0009 0038 delay_us( TW0_LOW ); //
                +
00308a e580     +LDI R24 , LOW ( 80 )
                +__DELAY_USB_LOOP :
00308b 958a     +DEC R24
00308c f7f1     +BRNE __DELAY_USB_LOOP
                 	__DELAY_USB 80
                 ; 0009 0039 ONEWIRE_SET;    // Set pin high
00308d 93e0 04a6 	STS  1190,R30
                 ; 0009 003A delay_us( TW0_SLOT ); // wait delay max from Maxim, see *.h the value
                +
00308f e087     +LDI R24 , LOW ( 7 )
                +__DELAY_USB_LOOP :
003090 958a     +DEC R24
003091 f7f1     +BRNE __DELAY_USB_LOOP
                 	__DELAY_USB 7
                 ; 0009 003B }
                 _0x12000D:
                 ; 0009 003C temp>>=1;
003092 9516      	LSR  R17
                 ; 0009 003D nb_bit--;
003093 5001      	SUBI R16,1
                 ; 0009 003E }
003094 cfdc      	RJMP _0x120009
                 _0x12000B:
                 ; 0009 003F }
003095 940e 315a 	CALL __LOADLOCR4
003097 9624      	ADIW R28,4
003098 9508      	RET
                 ; .FEND
                 ;char    Read_1Wire (void)
                 ; 0009 0043 {    unsigned char data=0;
                 _Read_1Wire:
                 ; .FSTART _Read_1Wire
                 ; 0009 0044 unsigned char nb_bit=8;
                 ; 0009 0045 //		temp=data;
                 ; 0009 0046 while (nb_bit)
003099 931a      	ST   -Y,R17
00309a 930a      	ST   -Y,R16
                 ;	data -> R17
                 ;	nb_bit -> R16
00309b e010      	LDI  R17,0
00309c e008      	LDI  R16,8
                 _0x12000E:
00309d 3000      	CPI  R16,0
00309e f411      	BRNE PC+3
00309f 940c 30bf 	JMP _0x120010
                 ; 0009 0047 {   // make pull from master:
                 ; 0009 0048 ONEWIRE_CLR;    // set pin low
0030a1 e0e2      	LDI  R30,LOW(2)
0030a2 93e0 04a5 	STS  1189,R30
                 ; 0009 0049 delay_us( TW_RL ); //  set pin low
                +
0030a4 e083     +LDI R24 , LOW ( 3 )
                +__DELAY_USB_LOOP :
0030a5 958a     +DEC R24
0030a6 f7f1     +BRNE __DELAY_USB_LOOP
                 	__DELAY_USB 3
                 ; 0009 004A ONEWIRE_SET;    // Set pin high
0030a7 93e0 04a6 	STS  1190,R30
                 ; 0009 004B delay_us( TW_MSR ); // wait delay max from Maxim, see *.h the value
                +
0030a9 e181     +LDI R24 , LOW ( 17 )
                +__DELAY_USB_LOOP :
0030aa 958a     +DEC R24
0030ab f7f1     +BRNE __DELAY_USB_LOOP
                 	__DELAY_USB 17
                 ; 0009 004C data>>=1;
0030ac 9516      	LSR  R17
                 ; 0009 004D if ( ONEWIRE_READ ==1)
0030ad 91e0 04a8 	LDS  R30,1192
0030af 70e1      	ANDI R30,LOW(0x1)
0030b0 e0a0      	LDI  R26,LOW(0)
                +
0030b1 17ea     +CP R30 , R26
0030b2 e0e1     +LDI R30 , 1
0030b3 f409     +BRNE PC + 2
0030b4 27ee     +CLR R30
                 	__NEB12
0030b5 30e1      	CPI  R30,LOW(0x1)
0030b6 f011      	BREQ PC+3
0030b7 940c 30ba 	JMP _0x120011
                 ; 0009 004E data|=0x80;     // LSB FIRST move 8 time
0030b9 6810      	ORI  R17,LOW(128)
                 ; 0009 004F //data>>=1;
                 ; 0009 0050 nb_bit--;
                 _0x120011:
0030ba 5001      	SUBI R16,1
                 ; 0009 0051 delay_us (TWR_SLOT);
                +
0030bb e489     +LDI R24 , LOW ( 73 )
                +__DELAY_USB_LOOP :
0030bc 958a     +DEC R24
0030bd f7f1     +BRNE __DELAY_USB_LOOP
                 	__DELAY_USB 73
                 ; 0009 0052 }
0030be cfde      	RJMP _0x12000E
                 _0x120010:
                 ; 0009 0053 return data;
0030bf 2fe1      	MOV  R30,R17
0030c0 9109      	LD   R16,Y+
0030c1 9119      	LD   R17,Y+
0030c2 9508      	RET
                 ; 0009 0054 }
                 ; .FEND
                 ;void InitEEprom (void)
                 ; 000A 0036 {   unsigned char data;
                 
                 	.CSEG
                 _InitEEprom:
                 ; .FSTART _InitEEprom
                 ; 000A 0037 unsigned char buffer[8];
                 ; 000A 0038 unsigned char localCRC=0;
                 ; 000A 0039 unsigned char i;
                 ; 000A 003A data= EEpromInitByte;
0030c3 9728      	SBIW R28,8
0030c4 940e 3153 	CALL __SAVELOCR4
                 ;	data -> R17
                 ;	buffer -> Y+4
                 ;	localCRC -> R16
                 ;	i -> R19
0030c6 e000      	LDI  R16,0
0030c7 e0a1      	LDI  R26,LOW(_EEpromInitByte)
0030c8 e0b0      	LDI  R27,HIGH(_EEpromInitByte)
0030c9 940e 31fa 	CALL __EEPROMRDB
0030cb 2f1e      	MOV  R17,R30
                 ; 000A 003B if ( data != LOCK_BYTE )
0030cc 3515      	CPI  R17,85
0030cd f411      	BRNE PC+3
0030ce 940c 314d 	JMP _0x140003
                 ; 000A 003C {   EEpromInitByte = LOCK_BYTE;  // set eeprom to lock byte
0030d0 e0a1      	LDI  R26,LOW(_EEpromInitByte)
0030d1 e0b0      	LDI  R27,HIGH(_EEpromInitByte)
0030d2 e5e5      	LDI  R30,LOW(85)
0030d3 940e 3203 	CALL __EEPROMWRB
                 ; 000A 003D FirtByteEEprom = LOCK_BYTE;  // set eeprom to lock byte
0030d5 e0a0      	LDI  R26,LOW(_FirtByteEEprom)
0030d6 e0b0      	LDI  R27,HIGH(_FirtByteEEprom)
0030d7 940e 3203 	CALL __EEPROMWRB
                 ; 000A 003E EEpromStatusByte=DEFAULT_EEPROM_STATUS;
0030d9 e2ac      	LDI  R26,LOW(_EEpromStatusByte)
0030da e0b0      	LDI  R27,HIGH(_EEpromStatusByte)
0030db e0e0      	LDI  R30,LOW(0)
0030dc 940e 3203 	CALL __EEPROMWRB
                 ; 000A 003F data=SerielNummerLock;
0030de e0a2      	LDI  R26,LOW(_SerielNummerLock)
0030df e0b0      	LDI  R27,HIGH(_SerielNummerLock)
0030e0 940e 31fa 	CALL __EEPROMRDB
0030e2 2f1e      	MOV  R17,R30
                 ; 000A 0040 if ( data!= LOCK_BYTE)  // clear all EEprom variable.
0030e3 3515      	CPI  R17,85
0030e4 f411      	BRNE PC+3
0030e5 940c 310d 	JMP _0x140004
                 ; 000A 0041 {   for (i=0; i < 4; i++)   // clear Serial nummer
0030e7 e030      	LDI  R19,LOW(0)
                 _0x140006:
0030e8 3034      	CPI  R19,4
0030e9 f010      	BRLO PC+3
0030ea 940c 30f5 	JMP _0x140007
                 ; 000A 0042 { EESerielNummer[i]=0;
0030ec 2fa3      	MOV  R26,R19
0030ed e0b0      	LDI  R27,0
0030ee 5dad      	SUBI R26,LOW(-_EESerielNummer)
0030ef 4fbf      	SBCI R27,HIGH(-_EESerielNummer)
0030f0 e0e0      	LDI  R30,LOW(0)
0030f1 940e 3203 	CALL __EEPROMWRB
                 ; 000A 0043 }
                 _0x140005:
0030f3 5f3f      	SUBI R19,-1
0030f4 cff3      	RJMP _0x140006
                 _0x140007:
                 ; 000A 0044 EESerielNummerCRC=0;    // clear CRC
0030f5 e2ab      	LDI  R26,LOW(_EESerielNummerCRC)
0030f6 e0b0      	LDI  R27,HIGH(_EESerielNummerCRC)
0030f7 e0e0      	LDI  R30,LOW(0)
0030f8 940e 3203 	CALL __EEPROMWRB
                 ; 000A 0045 for (i=0; i < 32; i++)
0030fa e030      	LDI  R19,LOW(0)
                 _0x140009:
0030fb 3230      	CPI  R19,32
0030fc f010      	BRLO PC+3
0030fd 940c 3108 	JMP _0x14000A
                 ; 000A 0046 { EEpromScratchpad[i]=0;    // clear ScratchPad
0030ff 2fa3      	MOV  R26,R19
003100 e0b0      	LDI  R27,0
003101 5fad      	SUBI R26,LOW(-_EEpromScratchpad)
003102 4fbf      	SBCI R27,HIGH(-_EEpromScratchpad)
003103 e0e0      	LDI  R30,LOW(0)
003104 940e 3203 	CALL __EEPROMWRB
                 ; 000A 0047 }
                 _0x140008:
003106 5f3f      	SUBI R19,-1
003107 cff3      	RJMP _0x140009
                 _0x14000A:
                 ; 000A 0048 SerielNummerLock= UNLOCK_BYTE;
003108 e0a2      	LDI  R26,LOW(_SerielNummerLock)
003109 e0b0      	LDI  R27,HIGH(_SerielNummerLock)
00310a eaea      	LDI  R30,LOW(170)
00310b 940e 3203 	CALL __EEPROMWRB
                 ; 000A 0049 }
                 ; 000A 004A // Make EEpromDallesSN
                 ; 000A 004B buffer[0]= 0;    //crc
                 _0x140004:
00310d e0e0      	LDI  R30,LOW(0)
00310e 83ec      	STD  Y+4,R30
                 ; 000A 004C buffer[1]= 1;
00310f e0e1      	LDI  R30,LOW(1)
003110 83ed      	STD  Y+5,R30
                 ; 000A 004D buffer[2]= 4;
003111 e0e4      	LDI  R30,LOW(4)
003112 83ee      	STD  Y+6,R30
                 ; 000A 004E buffer[3]= 1;
003113 e0e1      	LDI  R30,LOW(1)
003114 83ef      	STD  Y+7,R30
                 ; 000A 004F buffer[4]= 2;
003115 e0e2      	LDI  R30,LOW(2)
003116 87e8      	STD  Y+8,R30
                 ; 000A 0050 buffer[5]= 2;
003117 87e9      	STD  Y+9,R30
                 ; 000A 0051 buffer[6]= 2;
003118 87ea      	STD  Y+10,R30
                 ; 000A 0052 buffer[7]= 0x14;
003119 e1e4      	LDI  R30,LOW(20)
00311a 87eb      	STD  Y+11,R30
                 ; 000A 0053 for ( i =1; i < 7;i++)
00311b e031      	LDI  R19,LOW(1)
                 _0x14000C:
00311c 3037      	CPI  R19,7
00311d f010      	BRLO PC+3
00311e 940c 3132 	JMP _0x14000D
                 ; 000A 0054 {   data=buffer[i];
003120 2fe3      	MOV  R30,R19
003121 e0f0      	LDI  R31,0
003122 01de      	MOVW R26,R28
003123 9614      	ADIW R26,4
003124 0fae      	ADD  R26,R30
003125 1fbf      	ADC  R27,R31
003126 911c      	LD   R17,X
                 ; 000A 0055 localCRC= crc[ localCRC ^ data ];
003127 2fa0      	MOV  R26,R16
003128 27bb      	CLR  R27
003129 2fe1      	MOV  R30,R17
00312a e0f0      	LDI  R31,0
00312b 27ea      	EOR  R30,R26
00312c 27fb      	EOR  R31,R27
00312d 5fec      	SUBI R30,LOW(-_crc*2)
00312e 4ffe      	SBCI R31,HIGH(-_crc*2)
00312f 9104      	LPM  R16,Z
                 ; 000A 0056 }
                 _0x14000B:
003130 5f3f      	SUBI R19,-1
003131 cfea      	RJMP _0x14000C
                 _0x14000D:
                 ; 000A 0057 buffer[0]=localCRC;
                +
003132 830c     +STD Y + 4 , R16
                 	__PUTBSR 16,4
                 ; 000A 0058 for ( i =0; i < 8;i++)
003133 e030      	LDI  R19,LOW(0)
                 _0x14000F:
003134 3038      	CPI  R19,8
003135 f010      	BRLO PC+3
003136 940c 3149 	JMP _0x140010
                 ; 000A 0059 {   EEpromDallasSN[i]= buffer[i];
003138 2fe3      	MOV  R30,R19
003139 e0f0      	LDI  R31,0
00313a 5de3      	SUBI R30,LOW(-_EEpromDallasSN)
00313b 4fff      	SBCI R31,HIGH(-_EEpromDallasSN)
00313c 010f      	MOVW R0,R30
00313d 2fe3      	MOV  R30,R19
00313e e0f0      	LDI  R31,0
00313f 01de      	MOVW R26,R28
003140 9614      	ADIW R26,4
003141 0fae      	ADD  R26,R30
003142 1fbf      	ADC  R27,R31
003143 91ec      	LD   R30,X
003144 01d0      	MOVW R26,R0
003145 940e 3203 	CALL __EEPROMWRB
                 ; 000A 005A }
                 _0x14000E:
003147 5f3f      	SUBI R19,-1
003148 cfeb      	RJMP _0x14000F
                 _0x140010:
                 ; 000A 005B delay_ms(10);
003149 e0aa      	LDI  R26,LOW(10)
00314a e0b0      	LDI  R27,0
00314b 940e 33ca 	CALL _delay_ms
                 ; 000A 005C }
                 ; 000A 005D }
                 _0x140003:
00314d 940e 315a 	CALL __LOADLOCR4
00314f 962c      	ADIW R28,12
003150 9508      	RET
                 ; .FEND
                 
                 	.CSEG
                 
                 	.CSEG
                 
                 	.CSEG
                 
                 	.CSEG
                 
                 	.CSEG
                 
                 	.DSEG
                 
                 	.CSEG
                 
                 	.DSEG
                 _tx_buff:
006800           	.BYTE 0xC8
                 _rx_buff:
0068c8           	.BYTE 0xC8
                 _tx_indx:
006990           	.BYTE 0x1
                 _tx_bytes:
006991           	.BYTE 0x1
                 _tx_tail:
006992           	.BYTE 0x1
                 _wait_for_pc:
006993           	.BYTE 0x1
                 _rx_indx:
006994           	.BYTE 0x1
                 _rx_hndx:
006995           	.BYTE 0x1
                 _rx_start:
006996           	.BYTE 0x1
                 _rx_counter:
006997           	.BYTE 0x1
                 _rx_packlen:
006998           	.BYTE 0x1
                 _rx_timeout:
006999           	.BYTE 0x1
                 _sync_cnt:
00699a           	.BYTE 0x1
                 _sens_data:
00699b           	.BYTE 0x8
                 _sens_nl1:
0069a3           	.BYTE 0x1
                 _sens_nl2:
0069a4           	.BYTE 0x1
                 _packed_data:
0069a5           	.BYTE 0x140
                 _eep_status:
006ae5           	.BYTE 0x1
                 _time_b_temp:
006ae6           	.BYTE 0x1
                 _time_b_cnt:
006ae7           	.BYTE 0x1
                 _time_e_cnt:
006ae8           	.BYTE 0x1
                 _ad_timeout_cnt:
006ae9           	.BYTE 0x2
                 _sec_cnt:
006aeb           	.BYTE 0x2
                 _ms_cnt:
006aed           	.BYTE 0x2
                 _curr_sens_data:
006aef           	.BYTE 0x2
                 _cal_data:
006af1           	.BYTE 0x1C
                 _raw_data:
006b0d           	.BYTE 0x1C
                 _mes_data:
006b29           	.BYTE 0x38
                 _highlevel:
006b61           	.BYTE 0x1
                 _washtrac:
006b62           	.BYTE 0x8
                 _washtrac_prev:
006b6a           	.BYTE 0x1
                 _gain:
006b6b           	.BYTE 0x38
                 _offset:
006ba3           	.BYTE 0x1C
                 _cal_gain:
006bbf           	.BYTE 0x4
                 _cal_zero:
006bc3           	.BYTE 0x2
                 _not_mes_data:
006bc5           	.BYTE 0x1
                 _not_raw_data:
006bc6           	.BYTE 0x1
                 _not_cal_data:
006bc7           	.BYTE 0x1
                 _curr_ad_ch:
006bc8           	.BYTE 0x1
                 _old_curr_ad_ch:
006bc9           	.BYTE 0x1
                 _ad_state:
006bca           	.BYTE 0x1
                 _ad_mode:
006bcb           	.BYTE 0x1
                 _ms_delay_cnt:
006bcc           	.BYTE 0x2
                 _ad_settling:
006bce           	.BYTE 0x2
                 _ad_gain:
006bd0           	.BYTE 0x1
                 _ch_stat:
006bd1           	.BYTE 0xE
                 _eep_type:
006bdf           	.BYTE 0x8
                 _p_filter:
006be7           	.BYTE 0x1
                 _t_filter:
006be8           	.BYTE 0x1
                 _o_filter:
006be9           	.BYTE 0x1
                 _my_address:
006bea           	.BYTE 0x1
                 _rx_state:
006beb           	.BYTE 0x1
                 _tx_complete:
006bec           	.BYTE 0x1
                 _sendtail:
006bed           	.BYTE 0x1
                 
                 	.ESEG
                 _FirtByteEEprom:
000000 aa        	.DB  0xAA
                 _EEpromInitByte:
000001 aa        	.DB  0xAA
                 _SerielNummerLock:
000002 aa        	.DB  0xAA
                 _EEpromScratchpad:
000003           	.BYTE 0x20
                 _EESerielNummer:
000023           	.BYTE 0x8
                 _EESerielNummerCRC:
00002b aa        	.DB  0xAA
                 _EEpromStatusByte:
00002c aa        	.DB  0xAA
                 _EEpromDallasSN:
00002d           	.BYTE 0x8
                 
                 	.DSEG
                 _rx_buffer_usart0:
006bee           	.BYTE 0x8
                 _rx_rd_index_usart0:
006bf6           	.BYTE 0x1
                 _rx_counter_usart0:
006bf7           	.BYTE 0x1
                 _tx_buffer_usart0:
006bf8           	.BYTE 0x8
                 _tx_wr_index_usart0:
006c00           	.BYTE 0x2
                 _tx_counter_usart0:
006c02           	.BYTE 0x1
                 __seed_G104:
006c03           	.BYTE 0x4
                 
                 	.CSEG
                 ;RUNTIME LIBRARY
                 
                 	.CSEG
                 __SAVELOCR6:
003151 935a      	ST   -Y,R21
                 __SAVELOCR5:
003152 934a      	ST   -Y,R20
                 __SAVELOCR4:
003153 933a      	ST   -Y,R19
                 __SAVELOCR3:
003154 932a      	ST   -Y,R18
                 __SAVELOCR2:
003155 931a      	ST   -Y,R17
003156 930a      	ST   -Y,R16
003157 9508      	RET
                 
                 __LOADLOCR6:
003158 815d      	LDD  R21,Y+5
                 __LOADLOCR5:
003159 814c      	LDD  R20,Y+4
                 __LOADLOCR4:
00315a 813b      	LDD  R19,Y+3
                 __LOADLOCR3:
00315b 812a      	LDD  R18,Y+2
                 __LOADLOCR2:
00315c 8119      	LDD  R17,Y+1
00315d 8108      	LD   R16,Y
00315e 9508      	RET
                 
                 __INITLOCB:
                 __INITLOCW:
00315f 93af      	PUSH R26
003160 93bf      	PUSH R27
003161 01db      	MOVW R26,R22
003162 0fac      	ADD  R26,R28
003163 1fbd      	ADC  R27,R29
                 __INITLOC0:
003164 9005      	LPM  R0,Z+
003165 920d      	ST   X+,R0
003166 958a      	DEC  R24
003167 f7e1      	BRNE __INITLOC0
003168 91bf      	POP  R27
003169 91af      	POP  R26
00316a 9508      	RET
                 
                 __ANEGW1:
00316b 95f1      	NEG  R31
00316c 95e1      	NEG  R30
00316d 40f0      	SBCI R31,0
00316e 9508      	RET
                 
                 __ANEGD1:
00316f 95f0      	COM  R31
003170 9560      	COM  R22
003171 9570      	COM  R23
003172 95e1      	NEG  R30
003173 4fff      	SBCI R31,-1
003174 4f6f      	SBCI R22,-1
003175 4f7f      	SBCI R23,-1
003176 9508      	RET
                 
                 __LSRB12:
003177 23ee      	TST  R30
003178 2e0e      	MOV  R0,R30
003179 2fea      	MOV  R30,R26
00317a f019      	BREQ __LSRB12R
                 __LSRB12L:
00317b 95e6      	LSR  R30
00317c 940a      	DEC  R0
00317d f7e9      	BRNE __LSRB12L
                 __LSRB12R:
00317e 9508      	RET
                 
                 __ASRW12:
00317f 23ee      	TST  R30
003180 2e0e      	MOV  R0,R30
003181 e0e8      	LDI  R30,8
003182 2e1e      	MOV  R1,R30
003183 01fd      	MOVW R30,R26
003184 f061      	BREQ __ASRW12R
                 __ASRW12S8:
003185 1401      	CP   R0,R1
003186 f030      	BRLO __ASRW12L
003187 2fef      	MOV  R30,R31
003188 e0f0      	LDI  R31,0
003189 fde7      	SBRC R30,7
00318a efff      	LDI  R31,0xFF
00318b 1801      	SUB  R0,R1
00318c f021      	BREQ __ASRW12R
                 __ASRW12L:
00318d 95f5      	ASR  R31
00318e 95e7      	ROR  R30
00318f 940a      	DEC  R0
003190 f7e1      	BRNE __ASRW12L
                 __ASRW12R:
003191 9508      	RET
                 
                 __LSLW4:
003192 0fee      	LSL  R30
003193 1fff      	ROL  R31
                 __LSLW3:
003194 0fee      	LSL  R30
003195 1fff      	ROL  R31
                 __LSLW2:
003196 0fee      	LSL  R30
003197 1fff      	ROL  R31
003198 0fee      	LSL  R30
003199 1fff      	ROL  R31
00319a 9508      	RET
                 
                 __ASRW4:
00319b 95f5      	ASR  R31
00319c 95e7      	ROR  R30
                 __ASRW3:
00319d 95f5      	ASR  R31
00319e 95e7      	ROR  R30
                 __ASRW2:
00319f 95f5      	ASR  R31
0031a0 95e7      	ROR  R30
0031a1 95f5      	ASR  R31
0031a2 95e7      	ROR  R30
0031a3 9508      	RET
                 
                 __CBD1:
0031a4 2ffe      	MOV  R31,R30
0031a5 0fff      	ADD  R31,R31
0031a6 0bff      	SBC  R31,R31
0031a7 2f6f      	MOV  R22,R31
0031a8 2f7f      	MOV  R23,R31
0031a9 9508      	RET
                 
                 __MULW12U:
0031aa 9ffa      	MUL  R31,R26
0031ab 2df0      	MOV  R31,R0
0031ac 9feb      	MUL  R30,R27
0031ad 0df0      	ADD  R31,R0
0031ae 9fea      	MUL  R30,R26
0031af 2de0      	MOV  R30,R0
0031b0 0df1      	ADD  R31,R1
0031b1 9508      	RET
                 
                 __MULB1W2U:
0031b2 2f6e      	MOV  R22,R30
0031b3 9f6a      	MUL  R22,R26
0031b4 01f0      	MOVW R30,R0
0031b5 9f6b      	MUL  R22,R27
0031b6 0df0      	ADD  R31,R0
0031b7 9508      	RET
                 
                 __MULW12:
0031b8 d01c      	RCALL __CHKSIGNW
0031b9 dff0      	RCALL __MULW12U
0031ba f40e      	BRTC __MULW121
0031bb dfaf      	RCALL __ANEGW1
                 __MULW121:
0031bc 9508      	RET
                 
                 __DIVW21U:
0031bd 2400      	CLR  R0
0031be 2411      	CLR  R1
0031bf e190      	LDI  R25,16
                 __DIVW21U1:
0031c0 0faa      	LSL  R26
0031c1 1fbb      	ROL  R27
0031c2 1c00      	ROL  R0
0031c3 1c11      	ROL  R1
0031c4 1a0e      	SUB  R0,R30
0031c5 0a1f      	SBC  R1,R31
0031c6 f418      	BRCC __DIVW21U2
0031c7 0e0e      	ADD  R0,R30
0031c8 1e1f      	ADC  R1,R31
0031c9 c001      	RJMP __DIVW21U3
                 __DIVW21U2:
0031ca 60a1      	SBR  R26,1
                 __DIVW21U3:
0031cb 959a      	DEC  R25
0031cc f799      	BRNE __DIVW21U1
0031cd 01fd      	MOVW R30,R26
0031ce 01d0      	MOVW R26,R0
0031cf 9508      	RET
                 
                 __DIVW21:
0031d0 d004      	RCALL __CHKSIGNW
0031d1 dfeb      	RCALL __DIVW21U
0031d2 f40e      	BRTC __DIVW211
0031d3 df97      	RCALL __ANEGW1
                 __DIVW211:
0031d4 9508      	RET
                 
                 __CHKSIGNW:
0031d5 94e8      	CLT
0031d6 fff7      	SBRS R31,7
0031d7 c002      	RJMP __CHKSW1
0031d8 df92      	RCALL __ANEGW1
0031d9 9468      	SET
                 __CHKSW1:
0031da ffb7      	SBRS R27,7
0031db c006      	RJMP __CHKSW2
0031dc 95b1      	NEG  R27
0031dd 95a1      	NEG  R26
0031de 40b0      	SBCI R27,0
0031df f800      	BLD  R0,0
0031e0 9403      	INC  R0
0031e1 fa00      	BST  R0,0
                 __CHKSW2:
0031e2 9508      	RET
                 
                 __PUTPARD2:
0031e3 939a      	ST   -Y,R25
0031e4 938a      	ST   -Y,R24
0031e5 93ba      	ST   -Y,R27
0031e6 93aa      	ST   -Y,R26
0031e7 9508      	RET
                 
                 __CDF2U:
0031e8 9468      	SET
0031e9 c001      	RJMP __CDF2U0
                 __CDF2:
0031ea 94e8      	CLT
                 __CDF2U0:
0031eb d001      	RCALL __SWAPD12
0031ec d0a3      	RCALL __CDF1U0
                 
                 __SWAPD12:
0031ed 2e18      	MOV  R1,R24
0031ee 2f86      	MOV  R24,R22
0031ef 2d61      	MOV  R22,R1
0031f0 2e19      	MOV  R1,R25
0031f1 2f97      	MOV  R25,R23
0031f2 2d71      	MOV  R23,R1
                 
                 __SWAPW12:
0031f3 2e1b      	MOV  R1,R27
0031f4 2fbf      	MOV  R27,R31
0031f5 2df1      	MOV  R31,R1
                 
                 __SWAPB12:
0031f6 2e1a      	MOV  R1,R26
0031f7 2fae      	MOV  R26,R30
0031f8 2de1      	MOV  R30,R1
0031f9 9508      	RET
                 
                 __EEPROMRDB:
0031fa 95a8      	WDR
0031fb 91e0 1002 	LDS  R30,NVMCTRL_STATUS
0031fd fde1      	SBRC R30,1
0031fe cffb      	RJMP __EEPROMRDB
0031ff 5ebc      	SUBI R27,-0x14
003200 91ec      	LD   R30,X
003201 51b4      	SUBI R27,0x14
003202 9508      	RET
                 
                 __EEPROMWRB:
003203 d01f      	RCALL __NVMREADY
003204 5ebc      	SUBI R27,-0x14
003205 918c      	LD   R24,X
003206 178e      	CP   R24,R30
003207 f411      	BRNE __EEPROMWRB1
003208 51b4      	SUBI R27,0x14
003209 9508      	RET
                 __EEPROMWRB1:
00320a 2f9e      	MOV  R25,R30
                 
                 __EEPROMWRA:
00320b d017      	RCALL __NVMREADY
00320c 936f      	PUSH R22
00320d 937f      	PUSH R23
00320e b77f      	IN   R23,SREG
00320f 94f8      	CLI
003210 93a0 1008 	STS  NVMCTRL_ADDRL,R26
003212 93b0 1009 	STS  NVMCTRL_ADDRH,R27
003214 e96d      	LDI  R22,0x9D
003215 e183      	LDI  R24,0x13
003216 bf64      	OUT  CCP,R22
003217 9380 1000 	STS  NVMCTRL_CTRLA,R24
003219 939c      	ST   X,R25
00321a 51b4      	SUBI R27,0x14
00321b d007      	RCALL __NVMREADY
00321c e080      	LDI  R24,0
00321d 9380 1000 	STS  NVMCTRL_CTRLA,R24
00321f bf7f      	OUT  SREG,R23
003220 917f      	POP  R23
003221 916f      	POP  R22
003222 9508      	RET
                 
                 __NVMREADY:
003223 95a8      	WDR
003224 9180 1002 	LDS  R24,NVMCTRL_STATUS
003226 fd81      	SBRC R24,1
003227 cffb      	RJMP __NVMREADY
003228 9508      	RET
                 
                 __ROUND_REPACK:
003229 2355      	TST  R21
00322a f442      	BRPL __REPACK
00322b 3850      	CPI  R21,0x80
00322c f411      	BRNE __ROUND_REPACK0
00322d ffe0      	SBRS R30,0
00322e c004      	RJMP __REPACK
                 __ROUND_REPACK0:
00322f 9631      	ADIW R30,1
003230 1f69      	ADC  R22,R25
003231 1f79      	ADC  R23,R25
003232 f06b      	BRVS __REPACK1
                 
                 __REPACK:
003233 e850      	LDI  R21,0x80
003234 2757      	EOR  R21,R23
003235 f411      	BRNE __REPACK0
003236 935f      	PUSH R21
003237 c0cf      	RJMP __ZERORES
                 __REPACK0:
003238 3f5f      	CPI  R21,0xFF
003239 f031      	BREQ __REPACK1
00323a 0f66      	LSL  R22
00323b 0c00      	LSL  R0
00323c 9557      	ROR  R21
00323d 9567      	ROR  R22
00323e 2f75      	MOV  R23,R21
00323f 9508      	RET
                 __REPACK1:
003240 935f      	PUSH R21
003241 2000      	TST  R0
003242 f00a      	BRMI __REPACK2
003243 c0ce      	RJMP __MAXRES
                 __REPACK2:
003244 c0c7      	RJMP __MINRES
                 
                 __UNPACK:
003245 e850      	LDI  R21,0x80
003246 2e19      	MOV  R1,R25
003247 2215      	AND  R1,R21
003248 0f88      	LSL  R24
003249 1f99      	ROL  R25
00324a 2795      	EOR  R25,R21
00324b 0f55      	LSL  R21
00324c 9587      	ROR  R24
                 
                 __UNPACK1:
00324d e850      	LDI  R21,0x80
00324e 2e07      	MOV  R0,R23
00324f 2205      	AND  R0,R21
003250 0f66      	LSL  R22
003251 1f77      	ROL  R23
003252 2775      	EOR  R23,R21
003253 0f55      	LSL  R21
003254 9567      	ROR  R22
003255 9508      	RET
                 
                 __CFD1U:
003256 9468      	SET
003257 c001      	RJMP __CFD1U0
                 __CFD1:
003258 94e8      	CLT
                 __CFD1U0:
003259 935f      	PUSH R21
00325a dff2      	RCALL __UNPACK1
00325b 3870      	CPI  R23,0x80
00325c f018      	BRLO __CFD10
00325d 3f7f      	CPI  R23,0xFF
00325e f408      	BRCC __CFD10
00325f c0a7      	RJMP __ZERORES
                 __CFD10:
003260 e156      	LDI  R21,22
003261 1b57      	SUB  R21,R23
003262 f4aa      	BRPL __CFD11
003263 9551      	NEG  R21
003264 3058      	CPI  R21,8
003265 f40e      	BRTC __CFD19
003266 3059      	CPI  R21,9
                 __CFD19:
003267 f030      	BRLO __CFD17
003268 efef      	SER  R30
003269 efff      	SER  R31
00326a ef6f      	SER  R22
00326b e77f      	LDI  R23,0x7F
00326c f977      	BLD  R23,7
00326d c01a      	RJMP __CFD15
                 __CFD17:
00326e 2777      	CLR  R23
00326f 2355      	TST  R21
003270 f0b9      	BREQ __CFD15
                 __CFD18:
003271 0fee      	LSL  R30
003272 1fff      	ROL  R31
003273 1f66      	ROL  R22
003274 1f77      	ROL  R23
003275 955a      	DEC  R21
003276 f7d1      	BRNE __CFD18
003277 c010      	RJMP __CFD15
                 __CFD11:
003278 2777      	CLR  R23
                 __CFD12:
003279 3058      	CPI  R21,8
00327a f028      	BRLO __CFD13
00327b 2fef      	MOV  R30,R31
00327c 2ff6      	MOV  R31,R22
00327d 2f67      	MOV  R22,R23
00327e 5058      	SUBI R21,8
00327f cff9      	RJMP __CFD12
                 __CFD13:
003280 2355      	TST  R21
003281 f031      	BREQ __CFD15
                 __CFD14:
003282 9576      	LSR  R23
003283 9567      	ROR  R22
003284 95f7      	ROR  R31
003285 95e7      	ROR  R30
003286 955a      	DEC  R21
003287 f7d1      	BRNE __CFD14
                 __CFD15:
003288 2000      	TST  R0
003289 f40a      	BRPL __CFD16
00328a dee4      	RCALL __ANEGD1
                 __CFD16:
00328b 915f      	POP  R21
00328c 9508      	RET
                 
                 __CDF1U:
00328d 9468      	SET
00328e c001      	RJMP __CDF1U0
                 __CDF1:
00328f 94e8      	CLT
                 __CDF1U0:
003290 9730      	SBIW R30,0
003291 4060      	SBCI R22,0
003292 4070      	SBCI R23,0
003293 f0b1      	BREQ __CDF10
003294 2400      	CLR  R0
003295 f026      	BRTS __CDF11
003296 2377      	TST  R23
003297 f412      	BRPL __CDF11
003298 9400      	COM  R0
003299 ded5      	RCALL __ANEGD1
                 __CDF11:
00329a 2e17      	MOV  R1,R23
00329b e17e      	LDI  R23,30
00329c 2011      	TST  R1
                 __CDF12:
00329d f032      	BRMI __CDF13
00329e 957a      	DEC  R23
00329f 0fee      	LSL  R30
0032a0 1fff      	ROL  R31
0032a1 1f66      	ROL  R22
0032a2 1c11      	ROL  R1
0032a3 cff9      	RJMP __CDF12
                 __CDF13:
0032a4 2fef      	MOV  R30,R31
0032a5 2ff6      	MOV  R31,R22
0032a6 2d61      	MOV  R22,R1
0032a7 935f      	PUSH R21
0032a8 df8a      	RCALL __REPACK
0032a9 915f      	POP  R21
                 __CDF10:
0032aa 9508      	RET
                 
                 __SWAPACC:
0032ab 934f      	PUSH R20
0032ac 01af      	MOVW R20,R30
0032ad 01fd      	MOVW R30,R26
0032ae 01da      	MOVW R26,R20
0032af 01ab      	MOVW R20,R22
0032b0 01bc      	MOVW R22,R24
0032b1 01ca      	MOVW R24,R20
0032b2 2d40      	MOV  R20,R0
0032b3 2c01      	MOV  R0,R1
0032b4 2e14      	MOV  R1,R20
0032b5 914f      	POP  R20
0032b6 9508      	RET
                 
                 __UADD12:
0032b7 0fea      	ADD  R30,R26
0032b8 1ffb      	ADC  R31,R27
0032b9 1f68      	ADC  R22,R24
0032ba 9508      	RET
                 
                 __NEGMAN1:
0032bb 95e0      	COM  R30
0032bc 95f0      	COM  R31
0032bd 9560      	COM  R22
0032be 5fef      	SUBI R30,-1
0032bf 4fff      	SBCI R31,-1
0032c0 4f6f      	SBCI R22,-1
0032c1 9508      	RET
                 
                 __SUBF12:
0032c2 935f      	PUSH R21
0032c3 df81      	RCALL __UNPACK
0032c4 3890      	CPI  R25,0x80
0032c5 f171      	BREQ __ADDF129
0032c6 e850      	LDI  R21,0x80
0032c7 2615      	EOR  R1,R21
                 
0032c8 c004      	RJMP __ADDF120
                 
                 __ADDF12:
0032c9 935f      	PUSH R21
0032ca df7a      	RCALL __UNPACK
0032cb 3890      	CPI  R25,0x80
0032cc f139      	BREQ __ADDF129
                 
                 __ADDF120:
0032cd 3870      	CPI  R23,0x80
0032ce f121      	BREQ __ADDF128
                 __ADDF121:
0032cf 2f57      	MOV  R21,R23
0032d0 1b59      	SUB  R21,R25
0032d1 f12b      	BRVS __ADDF1211
0032d2 f412      	BRPL __ADDF122
0032d3 dfd7      	RCALL __SWAPACC
0032d4 cffa      	RJMP __ADDF121
                 __ADDF122:
0032d5 3158      	CPI  R21,24
0032d6 f018      	BRLO __ADDF123
0032d7 27aa      	CLR  R26
0032d8 27bb      	CLR  R27
0032d9 2788      	CLR  R24
                 __ADDF123:
0032da 3058      	CPI  R21,8
0032db f028      	BRLO __ADDF124
0032dc 2fab      	MOV  R26,R27
0032dd 2fb8      	MOV  R27,R24
0032de 2788      	CLR  R24
0032df 5058      	SUBI R21,8
0032e0 cff9      	RJMP __ADDF123
                 __ADDF124:
0032e1 2355      	TST  R21
0032e2 f029      	BREQ __ADDF126
                 __ADDF125:
0032e3 9586      	LSR  R24
0032e4 95b7      	ROR  R27
0032e5 95a7      	ROR  R26
0032e6 955a      	DEC  R21
0032e7 f7d9      	BRNE __ADDF125
                 __ADDF126:
0032e8 2d50      	MOV  R21,R0
0032e9 2551      	EOR  R21,R1
0032ea f072      	BRMI __ADDF127
0032eb dfcb      	RCALL __UADD12
0032ec f438      	BRCC __ADDF129
0032ed 9567      	ROR  R22
0032ee 95f7      	ROR  R31
0032ef 95e7      	ROR  R30
0032f0 9573      	INC  R23
0032f1 f413      	BRVC __ADDF129
0032f2 c01f      	RJMP __MAXRES
                 __ADDF128:
0032f3 dfb7      	RCALL __SWAPACC
                 __ADDF129:
0032f4 df3e      	RCALL __REPACK
0032f5 915f      	POP  R21
0032f6 9508      	RET
                 __ADDF1211:
0032f7 f7d8      	BRCC __ADDF128
0032f8 cffb      	RJMP __ADDF129
                 __ADDF127:
0032f9 1bea      	SUB  R30,R26
0032fa 0bfb      	SBC  R31,R27
0032fb 0b68      	SBC  R22,R24
0032fc f051      	BREQ __ZERORES
0032fd f410      	BRCC __ADDF1210
0032fe 9400      	COM  R0
0032ff dfbb      	RCALL __NEGMAN1
                 __ADDF1210:
003300 2366      	TST  R22
003301 f392      	BRMI __ADDF129
003302 0fee      	LSL  R30
003303 1fff      	ROL  R31
003304 1f66      	ROL  R22
003305 957a      	DEC  R23
003306 f7cb      	BRVC __ADDF1210
                 
                 __ZERORES:
003307 27ee      	CLR  R30
003308 27ff      	CLR  R31
003309 01bf      	MOVW R22,R30
00330a 915f      	POP  R21
00330b 9508      	RET
                 
                 __MINRES:
00330c efef      	SER  R30
00330d efff      	SER  R31
00330e e76f      	LDI  R22,0x7F
00330f ef7f      	SER  R23
003310 915f      	POP  R21
003311 9508      	RET
                 
                 __MAXRES:
003312 efef      	SER  R30
003313 efff      	SER  R31
003314 e76f      	LDI  R22,0x7F
003315 e77f      	LDI  R23,0x7F
003316 915f      	POP  R21
003317 9508      	RET
                 
                 __MULF12:
003318 935f      	PUSH R21
003319 df2b      	RCALL __UNPACK
00331a 3870      	CPI  R23,0x80
00331b f359      	BREQ __ZERORES
00331c 3890      	CPI  R25,0x80
00331d f349      	BREQ __ZERORES
00331e 2401      	EOR  R0,R1
00331f 9408      	SEC
003320 1f79      	ADC  R23,R25
003321 f423      	BRVC __MULF124
003322 f324      	BRLT __ZERORES
                 __MULF125:
003323 2000      	TST  R0
003324 f33a      	BRMI __MINRES
003325 cfec      	RJMP __MAXRES
                 __MULF124:
003326 920f      	PUSH R0
003327 931f      	PUSH R17
003328 932f      	PUSH R18
003329 933f      	PUSH R19
00332a 934f      	PUSH R20
00332b 2711      	CLR  R17
00332c 2722      	CLR  R18
00332d 2799      	CLR  R25
00332e 9f68      	MUL  R22,R24
00332f 01a0      	MOVW R20,R0
003330 9f8f      	MUL  R24,R31
003331 2d30      	MOV  R19,R0
003332 0d41      	ADD  R20,R1
003333 1f59      	ADC  R21,R25
003334 9f6b      	MUL  R22,R27
003335 0d30      	ADD  R19,R0
003336 1d41      	ADC  R20,R1
003337 1f59      	ADC  R21,R25
003338 9f8e      	MUL  R24,R30
003339 d027      	RCALL __MULF126
00333a 9fbf      	MUL  R27,R31
00333b d025      	RCALL __MULF126
00333c 9f6a      	MUL  R22,R26
00333d d023      	RCALL __MULF126
00333e 9fbe      	MUL  R27,R30
00333f d01d      	RCALL __MULF127
003340 9faf      	MUL  R26,R31
003341 d01b      	RCALL __MULF127
003342 9fae      	MUL  R26,R30
003343 0d11      	ADD  R17,R1
003344 1f29      	ADC  R18,R25
003345 1f39      	ADC  R19,R25
003346 1f49      	ADC  R20,R25
003347 1f59      	ADC  R21,R25
003348 2fe3      	MOV  R30,R19
003349 2ff4      	MOV  R31,R20
00334a 2f65      	MOV  R22,R21
00334b 2f52      	MOV  R21,R18
00334c 914f      	POP  R20
00334d 913f      	POP  R19
00334e 912f      	POP  R18
00334f 911f      	POP  R17
003350 900f      	POP  R0
003351 2366      	TST  R22
003352 f02a      	BRMI __MULF122
003353 0f55      	LSL  R21
003354 1fee      	ROL  R30
003355 1fff      	ROL  R31
003356 1f66      	ROL  R22
003357 c002      	RJMP __MULF123
                 __MULF122:
003358 9573      	INC  R23
003359 f24b      	BRVS __MULF125
                 __MULF123:
00335a dece      	RCALL __ROUND_REPACK
00335b 915f      	POP  R21
00335c 9508      	RET
                 
                 __MULF127:
00335d 0d10      	ADD  R17,R0
00335e 1d21      	ADC  R18,R1
00335f 1f39      	ADC  R19,R25
003360 c002      	RJMP __MULF128
                 __MULF126:
003361 0d20      	ADD  R18,R0
003362 1d31      	ADC  R19,R1
                 __MULF128:
003363 1f49      	ADC  R20,R25
003364 1f59      	ADC  R21,R25
003365 9508      	RET
                 
                 __DIVF21:
003366 935f      	PUSH R21
003367 dedd      	RCALL __UNPACK
003368 3870      	CPI  R23,0x80
003369 f421      	BRNE __DIVF210
00336a 2011      	TST  R1
                 __DIVF211:
00336b f40a      	BRPL __DIVF219
00336c cf9f      	RJMP __MINRES
                 __DIVF219:
00336d cfa4      	RJMP __MAXRES
                 __DIVF210:
00336e 3890      	CPI  R25,0x80
00336f f409      	BRNE __DIVF218
                 __DIVF217:
003370 cf96      	RJMP __ZERORES
                 __DIVF218:
003371 2401      	EOR  R0,R1
003372 9408      	SEC
003373 0b97      	SBC  R25,R23
003374 f41b      	BRVC __DIVF216
003375 f3d4      	BRLT __DIVF217
003376 2000      	TST  R0
003377 cff3      	RJMP __DIVF211
                 __DIVF216:
003378 2f79      	MOV  R23,R25
003379 931f      	PUSH R17
00337a 932f      	PUSH R18
00337b 933f      	PUSH R19
00337c 934f      	PUSH R20
00337d 2411      	CLR  R1
00337e 2711      	CLR  R17
00337f 2722      	CLR  R18
003380 2733      	CLR  R19
003381 01a9      	MOVW R20,R18
003382 e290      	LDI  R25,32
                 __DIVF212:
003383 17ae      	CP   R26,R30
003384 07bf      	CPC  R27,R31
003385 0786      	CPC  R24,R22
003386 0741      	CPC  R20,R17
003387 f030      	BRLO __DIVF213
003388 1bae      	SUB  R26,R30
003389 0bbf      	SBC  R27,R31
00338a 0b86      	SBC  R24,R22
00338b 0b41      	SBC  R20,R17
00338c 9408      	SEC
00338d c001      	RJMP __DIVF214
                 __DIVF213:
00338e 9488      	CLC
                 __DIVF214:
00338f 1f55      	ROL  R21
003390 1f22      	ROL  R18
003391 1f33      	ROL  R19
003392 1c11      	ROL  R1
003393 1faa      	ROL  R26
003394 1fbb      	ROL  R27
003395 1f88      	ROL  R24
003396 1f44      	ROL  R20
003397 959a      	DEC  R25
003398 f751      	BRNE __DIVF212
003399 01f9      	MOVW R30,R18
00339a 2d61      	MOV  R22,R1
00339b 914f      	POP  R20
00339c 913f      	POP  R19
00339d 912f      	POP  R18
00339e 911f      	POP  R17
00339f 2366      	TST  R22
0033a0 f032      	BRMI __DIVF215
0033a1 0f55      	LSL  R21
0033a2 1fee      	ROL  R30
0033a3 1fff      	ROL  R31
0033a4 1f66      	ROL  R22
0033a5 957a      	DEC  R23
0033a6 f24b      	BRVS __DIVF217
                 __DIVF215:
0033a7 de81      	RCALL __ROUND_REPACK
0033a8 915f      	POP  R21
0033a9 9508      	RET
                 
                 __CMPF12:
0033aa 2399      	TST  R25
0033ab f09a      	BRMI __CMPF120
0033ac 2377      	TST  R23
0033ad f042      	BRMI __CMPF121
0033ae 1797      	CP   R25,R23
0033af f048      	BRLO __CMPF122
0033b0 f429      	BRNE __CMPF121
0033b1 17ae      	CP   R26,R30
0033b2 07bf      	CPC  R27,R31
0033b3 0786      	CPC  R24,R22
0033b4 f020      	BRLO __CMPF122
0033b5 f031      	BREQ __CMPF123
                 __CMPF121:
0033b6 9498      	CLZ
0033b7 9488      	CLC
0033b8 9508      	RET
                 __CMPF122:
0033b9 9498      	CLZ
0033ba 9408      	SEC
0033bb 9508      	RET
                 __CMPF123:
0033bc 9418      	SEZ
0033bd 9488      	CLC
0033be 9508      	RET
                 __CMPF120:
0033bf 2377      	TST  R23
0033c0 f7c2      	BRPL __CMPF122
0033c1 1797      	CP   R25,R23
0033c2 f398      	BRLO __CMPF121
0033c3 f7a9      	BRNE __CMPF122
0033c4 17ea      	CP   R30,R26
0033c5 07fb      	CPC  R31,R27
0033c6 0768      	CPC  R22,R24
0033c7 f388      	BRLO __CMPF122
0033c8 f399      	BREQ __CMPF123
0033c9 cfec      	RJMP __CMPF121
                 
                 _delay_ms:
0033ca 9610      	adiw r26,0
0033cb f039      	breq __delay_ms1
                 __delay_ms0:
0033cc 95a8      	wdr
                +
0033cd ee88     +LDI R24 , LOW ( 0x3E8 )
0033ce e093     +LDI R25 , HIGH ( 0x3E8 )
                +__DELAY_USW_LOOP :
0033cf 9701     +SBIW R24 , 1
0033d0 f7f1     +BRNE __DELAY_USW_LOOP
                 	__DELAY_USW 0x3E8
0033d1 9711      	sbiw r26,1
0033d2 f7c9      	brne __delay_ms0
                 __delay_ms1:
0033d3 9508      	ret
                 
                 ;END OF CODE MARKER
                 __END_OF_CODE:


RESOURCE USE INFORMATION
------------------------

Notice:
The register and instruction counts are symbol table hit counts,
and hence implicitly used resources are not counted, eg, the
'lpm' instruction without operands implicitly uses r0 and z,
none of which are counted.

x,y,z are separate entities in the symbol table and are
counted separately from r26..r31 here.

.dseg memory usage only counts static data declared with .byte

AVR64DB64 register use summary:
r0 : 193 r1 :  54 r2 :   0 r3 :   0 r4 :   0 r5 :   0 r6 :   0 r7 :   0 
r8 :   0 r9 :   0 r10:   0 r11:   0 r12:   0 r13:   0 r14:   0 r15:   6 
r16: 259 r17: 301 r18: 149 r19: 142 r20:  83 r21: 111 r22: 339 r23: 228 
r24: 194 r25: 136 r26:1548 r27: 570 r28:  81 r29:   2 r30:4268 r31:1402 
x  : 338 y  :1064 z  : 239 
Registers used: 22 out of 35 (62.9%)

AVR64DB64 instruction use summary:
.lds  :   0 .lds.l:   0 .sts  :   0 .sts.l:   0 adc   : 164 add   : 167 
adiw  :  76 and   :  34 andi  : 198 asr   :  25 bclr  :   0 bld   :   2 
brbc  :   0 brbs  :   0 brcc  :   8 brcs  :   5 break :   0 breq  : 266 
brge  :  11 brhc  :   0 brhs  :   0 brid  :   0 brie  :   0 brlo  :  64 
brlt  :   8 brmi  :   9 brne  : 166 brpl  :   7 brsh  :  11 brtc  :   3 
brts  :   1 brvc  :   4 brvs  :   4 bset  :   0 bst   :   1 call  : 580 
cbi   :   0 cbr   :   0 clc   :   3 clh   :   0 cli   :   5 cln   :   0 
clr   : 138 cls   :   0 clt   :   4 clv   :   0 clz   :   2 com   :   8 
cp    :  64 cpc   : 163 cpi   : 280 cpse  :   0 dec   :  26 des   :   0 
eor   :  27 fmul  :   0 fmuls :   0 fmulsu:   0 icall :   0 ijmp  :   0 
in    :   8 inc   :   3 jmp   : 499 ld    : 401 ldd   : 527 ldi   :2074 
lds   : 474 lpm   :  24 lsl   :  69 lsr   :  27 mov   : 197 movw  : 387 
mul   :  95 muls  :   2 mulsu :   0 neg   :   6 nop   :   0 or    :   2 
ori   :  84 out   :  24 pop   :  90 push  :  90 rcall :  32 ret   : 114 
reti  :   6 rjmp  : 319 rol   :  72 ror   :  37 sbc   :  32 sbci  : 365 
sbi   :   0 sbic  :   0 sbis  :   0 sbiw  :  85 sbr   :   1 sbrc  :   9 
sbrs  :   4 sec   :   4 seh   :   0 sei   :   1 sen   :   0 ser   :  15 
ses   :   0 set   :   4 sev   :   0 sez   :   1 sleep :   0 spm   :   0 
st    : 387 std   : 310 sts   : 729 sub   :  50 subi  : 616 swap  :   2 
tst   :  19 wdr   :   6 
Instructions used: 79 out of 116 (68.1%)

AVR64DB64 memory use summary [bytes]:
Segment   Begin    End      Code   Data   Used    Size   Use%
---------------------------------------------------------------
[.cseg] 0x000000 0x0067a8  26222    314  26536   65536  40.5%
[.dseg] 0x006000 0x006c07      0   1031   1031    8192  12.6%
[.eseg] 0x000000 0x000035      0     53     53     512  10.4%

Assembly complete, 0 errors, 3 warnings
