##############################################################################
#                                                                            #
# IAR ARM ANSI C/C++ Compiler V4.42A/W32               14/Dec/2022  11:03:43 #
# Copyright 1999-2005 IAR Systems. All rights reserved.                      #
#                                                                            #
#    Cpu mode        =  interwork                                            #
#    Endian          =  little                                               #
#    Stack alignment =  4                                                    #
#    Source file     =  D:\S2Prog\Shared\Src\AIAtmPressSensor_mV.cpp         #
#    Command line    =  D:\S2Prog\Shared\Src\AIAtmPressSensor_mV.cpp --fpu   #
#                       None -D OS_LIBMODE_SP -D CPU_S3C2410 -D              #
#                       OS_RAMVECT=0 -D OS_UART=-1 -D S2TXU -D USE_LZO=1 -D  #
#                       __ARM_LIBRARY__ -D WATCHDOG=1 -D NETWORK=1 -lCN      #
#                       D:\S2Prog\TXU\Debug\List\ -o                         #
#                       D:\S2Prog\TXU\Debug\Obj\ -z2 --no_cse --no_unroll    #
#                       --no_inline --no_code_motion --no_tbaa               #
#                       --no_clustering --no_scheduling --debug --cpu_mode   #
#                       arm --endian little --cpu ARM920T --stack_align 4    #
#                       --interwork -e --enable_multibytes --eec++           #
#                       --dlib_config "C:\Program Files (x86)\IAR            #
#                       Systems\Embedded Workbench                           #
#                       4.0\arm\LIB\dl4tpainl8n.h" -I                        #
#                       D:\S2Prog\TXU\GUI\CORE\ -I D:\S2Prog\TXU\GUI\WM\ -I  #
#                       D:\S2Prog\TXU\GUI\WIDGET\ -I D:\S2Prog\TXU\CONFIG\   #
#                       -I D:\S2Prog\TXU\INC\ -I D:\S2Prog\TXU\..\SHARED\INC #
#                       \ -I D:\S2Prog\TXU\..\SHARED\SRC\ -I                 #
#                       D:\S2Prog\TXU\..\SHARED\LZO\minilzo.210\ -I          #
#                       D:\S2Prog\TXU\lwip-1.4.1\src\include\ -I             #
#                       D:\S2Prog\TXU\lwip-1.4.1\src\include\ipv4\ -I        #
#                       D:\S2Prog\TXU\lwip-1.4.1\src\ -I                     #
#                       D:\S2Prog\TXU\..\SHARED\Database\ -I                 #
#                       D:\S2Prog\TXU\src\ -I "C:\Program Files (x86)\IAR    #
#                       Systems\Embedded Workbench 4.0\arm\INC\"             #
#    List file       =  D:\S2Prog\TXU\Debug\List\AIAtmPressSensor_mV.lst     #
#    Object file     =  D:\S2Prog\TXU\Debug\Obj\AIAtmPressSensor_mV.r79      #
#                                                                            #
#                                                                            #
##############################################################################

D:\S2Prog\Shared\Src\AIAtmPressSensor_mV.cpp
      1          #include "TSNIncludes.h"

   \                                 In segment CODE, align 4, keep-with-next
   \   __??Code32?? __code __interwork __atpcs char_allocator::char_allocator(char_allocator const &)
   \                     ??char_allocator:
   \   00000000   1EFF2FE1           BX       LR               ;; return

   \                                 In segment CODE, align 4, keep-with-next
   \   __??Code32?? __code __interwork __atpcs _String_val::_String_val(char_allocator)
   \                     ??_String_val:
   \   00000000   12402DE9           PUSH     {R1,R4,LR}
   \   00000004   0040B0E1           MOVS     R4,R0
   \   00000008   0D10B0E1           MOVS     R1,SP
   \   0000000C   0400B0E1           MOVS     R0,R4
   \   00000010   ........           _BLF     ??char_allocator,??char_allocator??rA
   \   00000014   0400B0E1           MOVS     R0,R4
   \   00000018   04D08DE2           ADD      SP,SP,#+4        ;; stack cleaning
   \   0000001C   1040BDE8           POP      {R4,LR}
   \   00000020   1EFF2FE1           BX       LR               ;; return

   \                                 In segment CODE, align 4, keep-with-next
   \   __??Code32?? __code __interwork __atpcs string::string(string const &)
   \                     ??string:
   \   00000000   30402DE9           PUSH     {R4,R5,LR}
   \   00000004   0040B0E1           MOVS     R4,R0
   \   00000008   0150B0E1           MOVS     R5,R1
   \   0000000C   0010D5E5           LDRB     R1,[R5, #+0]
   \   00000010   0400B0E1           MOVS     R0,R4
   \   00000014   ........           _BLF     ??_String_val,??_String_val??rA
   \   00000018   0020A0E3           MOV      R2,#+0
   \   0000001C   0010A0E3           MOV      R1,#+0
   \   00000020   0400B0E1           MOVS     R0,R4
   \   00000024   ........           _BLF     ??_Tidy,??_Tidy??rA
   \   00000028   1C009FE5           LDR      R0,??string_1    ;; ??npos
   \   0000002C   003090E5           LDR      R3,[R0, #+0]
   \   00000030   0020A0E3           MOV      R2,#+0
   \   00000034   0510B0E1           MOVS     R1,R5
   \   00000038   0400B0E1           MOVS     R0,R4
   \   0000003C   ........           _BLF     ??assign,??assign??rA
   \   00000040   0400B0E1           MOVS     R0,R4
   \   00000044   3040BDE8           POP      {R4,R5,LR}
   \   00000048   1EFF2FE1           BX       LR               ;; return
   \                     ??string_1:
   \   0000004C   ........           DC32     ??npos

   \                                 In segment CODE, align 4, keep-with-next
   \   __??Code32?? __code __interwork __atpcs string::~string()
   \                     `?~string`:
   \   00000000   10402DE9           PUSH     {R4,LR}
   \   00000004   0040B0E1           MOVS     R4,R0
   \   00000008   0020A0E3           MOV      R2,#+0
   \   0000000C   0110A0E3           MOV      R1,#+1
   \   00000010   0400B0E1           MOVS     R0,R4
   \   00000014   ........           _BLF     ??_Tidy,??_Tidy??rA
   \   00000018   1040BDE8           POP      {R4,LR}
   \   0000001C   1EFF2FE1           BX       LR               ;; return

   \                                 In segment CODE, align 4, keep-with-next
   \   __??Code32?? __code __interwork __atpcs AnsiString::AnsiString(AnsiString const &)
   \                     ??AnsiString:
   \   00000000   10402DE9           PUSH     {R4,LR}
   \   00000004   0040B0E1           MOVS     R4,R0
   \   00000008   0400B0E1           MOVS     R0,R4
   \   0000000C   ........           _BLF     ??string,??string??rA
   \   00000010   0400B0E1           MOVS     R0,R4
   \   00000014   1040BDE8           POP      {R4,LR}
   \   00000018   1EFF2FE1           BX       LR               ;; return

   \                                 In segment CODE, align 4, keep-with-next
   \   __??Code32?? __code __interwork __atpcs AnsiString::~AnsiString()
   \                     `?~AnsiString`:
   \   00000000   00402DE9           PUSH     {LR}
   \   00000004   ........           _BLF     `?~string`,`?~string??rA`
   \   00000008   0040BDE8           POP      {LR}
   \   0000000C   1EFF2FE1           BX       LR               ;; return

   \                                 In segment DATA_Z, align 4, align-sorted
   \   static GUI_FONT const __data TDU_FONT_ST
   \                     TDU_FONT_ST:
   \   00000000                      DS8 36

   \                                 In segment DATA_Z, align 4, align-sorted
   \   static GUI_FONT const __data TDU_FONT_PW
   \                     TDU_FONT_PW:
   \   00000000                      DS8 36

   \                                 In segment DATA_Z, align 4, align-sorted
   \   static GUI_FONT const __data TDU_FONT_HW
   \                     TDU_FONT_HW:
   \   00000000                      DS8 36

   \                                 In segment DATA_Z, align 4, align-sorted
   \   static GUI_FONT const __data TDU_FONT_BU
   \                     TDU_FONT_BU:
   \   00000000                      DS8 36

   \                                 In segment DATA_Z, align 4, align-sorted
   \   static GUI_FONT const __data TDU_FONT_HEADING
   \                     TDU_FONT_HEADING:
   \   00000000                      DS8 36

   \                                 In segment DATA_Z, align 4, align-sorted
   \   static GUI_FONT const __data TDU_FONT_BIG
   \                     TDU_FONT_BIG:
   \   00000000                      DS8 36
      2          #pragma hdrstop
      3          #ifdef BORLAND
      4          	#pragma package(smart_init)
      5          #endif
      6          //---------------------------------------------------------------------------
      7          

   \                                 In segment CODE, align 4, keep-with-next
      8          AIAtmPressSensor_mV::AIAtmPressSensor_mV(int SnsType):AIPressSensor_mV(SnsType)
   \                     ??AIAtmPressSensor_mV:
   \   00000000   30402DE9           PUSH     {R4,R5,LR}
   \   00000004   0040B0E1           MOVS     R4,R0
   \   00000008   0150B0E1           MOVS     R5,R1
      9          {
   \   0000000C   0020A0E3           MOV      R2,#+0
   \   00000010   0510B0E1           MOVS     R1,R5
   \   00000014   0400B0E1           MOVS     R0,R4
   \   00000018   ........           _BLF     ??AIPressSensor_mV,??AIPressSensor_mV??rA
   \   0000001C   18009FE5           LDR      R0,??AIAtmPressSensor_mV_1  ;; ??__vtbl
   \   00000020   A40084E5           STR      R0,[R4, #+164]
     10          	Location    = C_AI_LOC_SYSTEM;
   \   00000024   E500A0E3           MOV      R0,#+229
   \   00000028   800E80E3           ORR      R0,R0,#0x800
   \   0000002C   280184E5           STR      R0,[R4, #+296]
     11          }
   \   00000030   0400B0E1           MOVS     R0,R4
   \   00000034   3040BDE8           POP      {R4,R5,LR}
   \   00000038   1EFF2FE1           BX       LR               ;; return
   \                     ??AIAtmPressSensor_mV_1:
   \   0000003C   ........           DC32     ??__vtbl
     12          //---------------------------------------------------------------------------
     13          

   \                                 In segment CODE, align 4, keep-with-next
     14          AIAtmPressSensor_mV::~AIAtmPressSensor_mV(void)
     15          {
   \                     `?~AIAtmPressSensor_mV`:
   \   00000000   30402DE9           PUSH     {R4,R5,LR}
   \   00000004   0040B0E1           MOVS     R4,R0
   \   00000008   0150B0E1           MOVS     R5,R1
   \   0000000C   000054E3           CMP      R4,#+0
   \   00000010   0600000A           BEQ      `?~AIAtmPressSensor_mV_1`
     16          }
   \   00000014   0010A0E3           MOV      R1,#+0
   \   00000018   0400B0E1           MOVS     R0,R4
   \   0000001C   ........           _BLF     `?~AIPressSensor_mV`,`?~AIPressSensor_mV??rA`
   \   00000020   010015E3           TST      R5,#0x1
   \   00000024   0100000A           BEQ      `?~AIAtmPressSensor_mV_1`
   \   00000028   0400B0E1           MOVS     R0,R4
   \   0000002C   ........           _BLF     `??operator delete`,`??operator delete??rA`
   \                     `?~AIAtmPressSensor_mV_1`:
   \   00000030   3040BDE8           POP      {R4,R5,LR}
   \   00000034   1EFF2FE1           BX       LR               ;; return
     17          //---------------------------------------------------------------------------
     18          
     19          //////////////////////////////////////////////////////////////////
     20          //
     21          // Sensor calculations
     22          //
     23          //////////////////////////////////////////////////////////////////

   \                                 In segment CODE, align 4, keep-with-next
     24          float AIAtmPressSensor_mV::Calculate(void)
     25          {
   \                     ??Calculate:
   \   00000000   F0402DE9           PUSH     {R4-R7,LR}
   \   00000004   0060B0E1           MOVS     R6,R0
     26          	if ( CanCalculate() ) {
   \   00000008   0600B0E1           MOVS     R0,R6
   \   0000000C   ........           _BLF     ??CanCalculate,??CanCalculate??rA
   \   00000010   000050E3           CMP      R0,#+0
   \   00000014   2C00000A           BEQ      ??Calculate_1
     27          		float Val = Gain*(FilteredValue-NORMAL_ATM)+NORMAL_ATM-Offset;
   \   00000018   440196E5           LDR      R0,[R6, #+324]
   \   0000001C   ........           _BLF     __floatToDouble,??__floatToDouble??rA
   \   00000020   B0209FE5           LDR      R2,??Calculate_2  ;; 0xffffffffbf0f2b0c
   \   00000024   B0309FE5           LDR      R3,??Calculate_2+0x4  ;; 0xffffffffc024a8d1
   \   00000028   ........           _BLF     __dAdd,??__dAdd??rA
   \   0000002C   0040A0E1           MOV      R4,R0
   \   00000030   0150A0E1           MOV      R5,R1
   \   00000034   3C0196E5           LDR      R0,[R6, #+316]
   \   00000038   ........           _BLF     __floatToDouble,??__floatToDouble??rA
   \   0000003C   0420A0E1           MOV      R2,R4
   \   00000040   0530A0E1           MOV      R3,R5
   \   00000044   ........           _BLF     __dMul,??__dMul??rA
   \   00000048   88209FE5           LDR      R2,??Calculate_2  ;; 0xffffffffbf0f2b0c
   \   0000004C   8C309FE5           LDR      R3,??Calculate_2+0x8  ;; 0x4024a8d1
   \   00000050   ........           _BLF     __dAdd,??__dAdd??rA
   \   00000054   0040A0E1           MOV      R4,R0
   \   00000058   0150A0E1           MOV      R5,R1
   \   0000005C   400196E5           LDR      R0,[R6, #+320]
   \   00000060   ........           _BLF     __floatToDouble,??__floatToDouble??rA
   \   00000064   0020A0E1           MOV      R2,R0
   \   00000068   0130A0E1           MOV      R3,R1
   \   0000006C   0400A0E1           MOV      R0,R4
   \   00000070   0510A0E1           MOV      R1,R5
   \   00000074   ........           _BLF     __dSub,??__dSub??rA
   \   00000078   ........           _BLF     __doubleToFloat,??__doubleToFloat??rA
   \   0000007C   0070B0E1           MOVS     R7,R0
     28          		CalcValue = Val;
   \   00000080   487186E5           STR      R7,[R6, #+328]
     29          		ResultOK  = true;
   \   00000084   0100A0E3           MOV      R0,#+1
   \   00000088   3601C6E5           STRB     R0,[R6, #+310]
     30                          if ( CalcValue > MAX_ATM || CalcValue < MIN_ATM ) {
   \   0000008C   480196E5           LDR      R0,[R6, #+328]
   \   00000090   ........           _BLF     __floatToDouble,??__floatToDouble??rA
   \   00000094   48209FE5           LDR      R2,??Calculate_2+0xC  ;; 0x6c99d5d1
   \   00000098   48309FE5           LDR      R3,??Calculate_2+0x10  ;; 0x4027a84c
   \   0000009C   ........           _BLF     __dGreaterEqual,??__dGreaterEqual??rA
   \   000000A0   000050E3           CMP      R0,#+0
   \   000000A4   0800001A           BNE      ??Calculate_1
   \   000000A8   480196E5           LDR      R0,[R6, #+328]
   \   000000AC   ........           _BLF     __floatToDouble,??__floatToDouble??rA
   \   000000B0   34209FE5           LDR      R2,??Calculate_2+0x14  ;; 0xfffffffff29f0f0b
   \   000000B4   34309FE5           LDR      R3,??Calculate_2+0x18  ;; 0x402050c1
   \   000000B8   ........           _BLF     __dLess,??__dLess??rA
   \   000000BC   000050E3           CMP      R0,#+0
   \   000000C0   0100001A           BNE      ??Calculate_1
     31                              //Failure = true;
     32                          }else{
     33                              CalcValue = NORMAL_ATM;
   \   000000C4   28009FE5           LDR      R0,??Calculate_2+0x1C  ;; 0x4125468e
   \   000000C8   480186E5           STR      R0,[R6, #+328]
     34                          //    Failure = false;
     35                          }
     36          	}
     37          	return(CalcValue);
   \                     ??Calculate_1:
   \   000000CC   480196E5           LDR      R0,[R6, #+328]
   \   000000D0   F040BDE8           POP      {R4-R7,LR}
   \   000000D4   1EFF2FE1           BX       LR               ;; return
   \                     ??Calculate_2:
   \   000000D8   0C2B0FBF           DC32     0xffffffffbf0f2b0c
   \   000000DC   D1A824C0           DC32     0xffffffffc024a8d1
   \   000000E0   D1A82440           DC32     0x4024a8d1
   \   000000E4   D1D5996C           DC32     0x6c99d5d1
   \   000000E8   4CA82740           DC32     0x4027a84c
   \   000000EC   0B0F9FF2           DC32     0xfffffffff29f0f0b
   \   000000F0   C1502040           DC32     0x402050c1
   \   000000F4   8E462541           DC32     0x4125468e
     38          
     39          }
     40          
     41          
     42          ///////////////////////////////////////////////////////////////
     43          //
     44          // Routines for the librarian for input
     45          //
     46          ///////////////////////////////////////////////////////////////
     47          
     48          

   \                                 In segment CODE, align 4, keep-with-next
     49          int AIAtmPressSensor_mV::PutValue( int ValueId, int Index, AnsiString NewValue,bool Local, int *UnitId)
     50          {
   \                     ??PutValue:
   \   00000000   F04F2DE9           PUSH     {R4-R11,LR}
   \   00000004   3CD04DE2           SUB      SP,SP,#+60
   \   00000008   0040B0E1           MOVS     R4,R0
   \   0000000C   0150B0E1           MOVS     R5,R1
   \   00000010   0260B0E1           MOVS     R6,R2
   \   00000014   0370B0E1           MOVS     R7,R3
   \   00000018   6080DDE5           LDRB     R8,[SP, #+96]
   \   0000001C   64909DE5           LDR      R9,[SP, #+100]
     51          	int Status = E_NO_ERR, ValUnitId = NO_UNIT;
   \   00000020   0000A0E3           MOV      R0,#+0
   \   00000024   00A0B0E1           MOVS     R10,R0
   \   00000028   0010A0E3           MOV      R1,#+0
   \   0000002C   00108DE5           STR      R1,[SP, #+0]
     52          	switch ( ValueId ) {
   \   00000030   0500B0E1           MOVS     R0,R5
   \   00000034   B810A0E3           MOV      R1,#+184
   \   00000038   401E81E3           ORR      R1,R1,#0x400
   \   0000003C   010050E1           CMP      R0,R1
   \   00000040   0300000A           BEQ      ??PutValue_2
   \   00000044   4710A0E3           MOV      R1,#+71
   \   00000048   501E81E3           ORR      R1,R1,#0x500
   \   0000004C   010050E1           CMP      R0,R1
   \   00000050   1C00001A           BNE      ??PutValue_3
     53          	case SVT_ATM_PRESSURE:
     54          	case SVT_AI_CALC_VAL:
     55          		{
     56          			float OrgOffset = Offset;
   \                     ??PutValue_2:
   \   00000054   400194E5           LDR      R0,[R4, #+320]
   \   00000058   00B0B0E1           MOVS     R11,R0
     57          			Status = AIPressSensor::PutValue(SVT_AI_CALC_VAL, Index,NewValue,Local,&ValUnitId);
   \   0000005C   0710B0E1           MOVS     R1,R7
   \   00000060   20008DE2           ADD      R0,SP,#+32
   \   00000064   ........           _BLF     ??AnsiString,??AnsiString??rA
   \   00000068   0D10B0E1           MOVS     R1,SP
   \   0000006C   02002DE9           PUSH     {R1}
   \   00000070   0810B0E1           MOVS     R1,R8
   \   00000074   02002DE9           PUSH     {R1}
   \   00000078   0030B0E1           MOVS     R3,R0
   \   0000007C   0620B0E1           MOVS     R2,R6
   \   00000080   B810A0E3           MOV      R1,#+184
   \   00000084   401E81E3           ORR      R1,R1,#0x400
   \   00000088   0400B0E1           MOVS     R0,R4
   \   0000008C   ........           _BLF     ??PutValue_1,??PutValue??rA
   \   00000090   08D08DE2           ADD      SP,SP,#+8        ;; stack cleaning
   \   00000094   00A0B0E1           MOVS     R10,R0
   \   00000098   20008DE2           ADD      R0,SP,#+32
   \   0000009C   ........           _BLF     `?~AnsiString`,`?~AnsiString??rA`
     58          			if ( Status == E_NO_ERR ) {
   \   000000A0   00005AE3           CMP      R10,#+0
   \   000000A4   1700001A           BNE      ??PutValue_4
     59          				AdjustOffsets(OrgOffset - Offset,Local);
   \   000000A8   0810B0E1           MOVS     R1,R8
   \   000000AC   02002DE9           PUSH     {R1}
   \   000000B0   0B00B0E1           MOVS     R0,R11
   \   000000B4   401194E5           LDR      R1,[R4, #+320]
   \   000000B8   ........           _BLF     __fSub,??__fSub??rA
   \   000000BC   0200BDE8           POP      {R1}
   \   000000C0   ........           _BLF     ??AdjustOffsets,??AdjustOffsets??rA
   \   000000C4   0F0000EA           B        ??PutValue_4
     60          			}
     61          		}
     62          		break;
     63          	default:
     64          		Status = AIPressSensor::PutValue(ValueId, Index,NewValue,Local,&ValUnitId);
   \                     ??PutValue_3:
   \   000000C8   0710B0E1           MOVS     R1,R7
   \   000000CC   04008DE2           ADD      R0,SP,#+4
   \   000000D0   ........           _BLF     ??AnsiString,??AnsiString??rA
   \   000000D4   0030B0E1           MOVS     R3,R0
   \   000000D8   0D00B0E1           MOVS     R0,SP
   \   000000DC   01002DE9           PUSH     {R0}
   \   000000E0   0800B0E1           MOVS     R0,R8
   \   000000E4   01002DE9           PUSH     {R0}
   \   000000E8   0620B0E1           MOVS     R2,R6
   \   000000EC   0510B0E1           MOVS     R1,R5
   \   000000F0   0400B0E1           MOVS     R0,R4
   \   000000F4   ........           _BLF     ??PutValue_1,??PutValue??rA
   \   000000F8   08D08DE2           ADD      SP,SP,#+8        ;; stack cleaning
   \   000000FC   00A0B0E1           MOVS     R10,R0
   \   00000100   04008DE2           ADD      R0,SP,#+4
   \   00000104   ........           _BLF     `?~AnsiString`,`?~AnsiString??rA`
     65          		break;
     66          	}
     67          	if ( Status==E_NO_ERR ) {
   \                     ??PutValue_4:
   \   00000108   00005AE3           CMP      R10,#+0
   \   0000010C   0500001A           BNE      ??PutValue_5
     68          		SetModifiedFlag();
   \   00000110   A40094E5           LDR      R0,[R4, #+164]
   \   00000114   541090E2           ADDS     R1,R0,#+84
   \   00000118   0400B0E1           MOVS     R0,R4
   \   0000011C   001091E5           LDR      R1,[R1, #+0]
   \   00000120   0FE0A0E1           MOV      LR,PC
   \   00000124   11FF2FE1           BX       R1
     69          	}
     70          	if ( UnitId ) {
   \                     ??PutValue_5:
   \   00000128   000059E3           CMP      R9,#+0
   \   0000012C   0100000A           BEQ      ??PutValue_6
     71          		*UnitId = ValUnitId;
   \   00000130   00009DE5           LDR      R0,[SP, #+0]
   \   00000134   000089E5           STR      R0,[R9, #+0]
     72          	}
     73          	return(Status);
   \                     ??PutValue_6:
   \   00000138   0A00B0E1           MOVS     R0,R10
   \   0000013C   3CD08DE2           ADD      SP,SP,#+60       ;; stack cleaning
   \   00000140   F04FBDE8           POP      {R4-R11,LR}
   \   00000144   1EFF2FE1           BX       LR               ;; return
     74          }

   \                                 In segment DIFUNCT, align 4, keep-with-next, root
   \   00000000                      REQUIRE ?call_ctors
   \   00000000   ........           DC32    ??__sti__routine

   \                                 In segment CODE, align 4, keep-with-next
   \   __??Code32?? __code __interwork __atpcs AIAtmPressSensor_mV &AIAtmPressSensor_mV::new AIAtmPressSensor_mV(int)
   \                     `??new AIAtmPressSensor_mV`:
   \   00000000   10402DE9           PUSH     {R4,LR}
   \   00000004   0040B0E1           MOVS     R4,R0
   \   00000008   7F0FA0E3           MOV      R0,#+508
   \   0000000C   ........           _BLF     `??operator new`,`??operator new??rA`
   \   00000010   000050E3           CMP      R0,#+0
   \   00000014   0200000A           BEQ      `??new AIAtmPressSensor_mV_1`
   \   00000018   0410B0E1           MOVS     R1,R4
   \   0000001C   ........           BL       ??AIAtmPressSensor_mV
   \   00000020   000000EA           B        `??new AIAtmPressSensor_mV_2`
   \                     `??new AIAtmPressSensor_mV_1`:
   \   00000024   0000A0E3           MOV      R0,#+0
   \                     `??new AIAtmPressSensor_mV_2`:
   \   00000028   1040BDE8           POP      {R4,LR}
   \   0000002C   1EFF2FE1           BX       LR               ;; return

   \                                 In segment CODE, align 4, keep-with-next
   \   static __??Code32?? __intrinsic __code __interwork __atpcs void __sti__routine()
   \                     ??__sti__routine:
   \   00000000   A4009FE5           LDR      R0,??__sti__routine_1  ;; TDU_FONT_ST
   \   00000004   A4109FE5           LDR      R1,??__sti__routine_1+0x4  ;; GUI_Font13_1
   \   00000008   2430A0E3           MOV      R3,#+36
   \                     ??__sti__routine_2:
   \   0000000C   043053E2           SUBS     R3,R3,#+4
   \   00000010   032091E7           LDR      R2,[R1, R3]
   \   00000014   032080E7           STR      R2,[R0, R3]
   \   00000018   FBFFFF1A           BNE      ??__sti__routine_2
   \   0000001C   90009FE5           LDR      R0,??__sti__routine_1+0x8  ;; TDU_FONT_PW
   \   00000020   90109FE5           LDR      R1,??__sti__routine_1+0xC  ;; GUI_Font16_1
   \   00000024   2430A0E3           MOV      R3,#+36
   \                     ??__sti__routine_3:
   \   00000028   043053E2           SUBS     R3,R3,#+4
   \   0000002C   032091E7           LDR      R2,[R1, R3]
   \   00000030   032080E7           STR      R2,[R0, R3]
   \   00000034   FBFFFF1A           BNE      ??__sti__routine_3
   \   00000038   7C009FE5           LDR      R0,??__sti__routine_1+0x10  ;; TDU_FONT_HW
   \   0000003C   74109FE5           LDR      R1,??__sti__routine_1+0xC  ;; GUI_Font16_1
   \   00000040   2430A0E3           MOV      R3,#+36
   \                     ??__sti__routine_4:
   \   00000044   043053E2           SUBS     R3,R3,#+4
   \   00000048   032091E7           LDR      R2,[R1, R3]
   \   0000004C   032080E7           STR      R2,[R0, R3]
   \   00000050   FBFFFF1A           BNE      ??__sti__routine_4
   \   00000054   64009FE5           LDR      R0,??__sti__routine_1+0x14  ;; TDU_FONT_BU
   \   00000058   50109FE5           LDR      R1,??__sti__routine_1+0x4  ;; GUI_Font13_1
   \   0000005C   2430A0E3           MOV      R3,#+36
   \                     ??__sti__routine_5:
   \   00000060   043053E2           SUBS     R3,R3,#+4
   \   00000064   032091E7           LDR      R2,[R1, R3]
   \   00000068   032080E7           STR      R2,[R0, R3]
   \   0000006C   FBFFFF1A           BNE      ??__sti__routine_5
   \   00000070   4C009FE5           LDR      R0,??__sti__routine_1+0x18  ;; TDU_FONT_HEADING
   \   00000074   34109FE5           LDR      R1,??__sti__routine_1+0x4  ;; GUI_Font13_1
   \   00000078   2430A0E3           MOV      R3,#+36
   \                     ??__sti__routine_6:
   \   0000007C   043053E2           SUBS     R3,R3,#+4
   \   00000080   032091E7           LDR      R2,[R1, R3]
   \   00000084   032080E7           STR      R2,[R0, R3]
   \   00000088   FBFFFF1A           BNE      ??__sti__routine_6
   \   0000008C   34009FE5           LDR      R0,??__sti__routine_1+0x1C  ;; TDU_FONT_BIG
   \   00000090   34109FE5           LDR      R1,??__sti__routine_1+0x20  ;; GUI_Font24_1
   \   00000094   2430A0E3           MOV      R3,#+36
   \                     ??__sti__routine_7:
   \   00000098   043053E2           SUBS     R3,R3,#+4
   \   0000009C   032091E7           LDR      R2,[R1, R3]
   \   000000A0   032080E7           STR      R2,[R0, R3]
   \   000000A4   FBFFFF1A           BNE      ??__sti__routine_7
   \   000000A8   1EFF2FE1           BX       LR               ;; return
   \                     ??__sti__routine_1:
   \   000000AC   ........           DC32     TDU_FONT_ST
   \   000000B0   ........           DC32     GUI_Font13_1
   \   000000B4   ........           DC32     TDU_FONT_PW
   \   000000B8   ........           DC32     GUI_Font16_1
   \   000000BC   ........           DC32     TDU_FONT_HW
   \   000000C0   ........           DC32     TDU_FONT_BU
   \   000000C4   ........           DC32     TDU_FONT_HEADING
   \   000000C8   ........           DC32     TDU_FONT_BIG
   \   000000CC   ........           DC32     GUI_Font24_1
     75          
     76          
     77          

   Maximum stack usage in bytes:

     Function                       CSTACK
     --------                       ------
     AIAtmPressSensor_mV::AIAtmPressSensor_mV(int)
                                       12
     AIAtmPressSensor_mV::Calculate()
                                       20
     AIAtmPressSensor_mV::PutValue(int, int, AnsiString, bool, int *)
                                      104
     AIAtmPressSensor_mV::new AIAtmPressSensor_mV(int)
                                        8
     AIAtmPressSensor_mV::~AIAtmPressSensor_mV()
                                       12
     AnsiString::AnsiString(AnsiString const &)
                                        8
     AnsiString::~AnsiString()          4
     _String_val::_String_val(char_allocator)
                                       12
     __sti__routine()                   0
     char_allocator::char_allocator(char_allocator const &)
                                        0
     string::string(string const &)    12
     string::~string()                  8


   Segment part sizes:

     Function/Label                 Bytes
     --------------                 -----
     char_allocator::char_allocator(char_allocator const &)
                                       4
     _String_val::_String_val(char_allocator)
                                      36
     string::string(string const &)   80
     string::~string()                32
     AnsiString::AnsiString(AnsiString const &)
                                      28
     AnsiString::~AnsiString()        16
     TDU_FONT_ST                      36
     TDU_FONT_PW                      36
     TDU_FONT_HW                      36
     TDU_FONT_BU                      36
     TDU_FONT_HEADING                 36
     TDU_FONT_BIG                     36
     AIAtmPressSensor_mV::AIAtmPressSensor_mV(int)
                                      64
     AIAtmPressSensor_mV::~AIAtmPressSensor_mV()
                                      56
     AIAtmPressSensor_mV::Calculate()
                                     248
     AIAtmPressSensor_mV::PutValue(int, int, AnsiString, bool, int *)
                                     328
     AIAtmPressSensor_mV::new AIAtmPressSensor_mV(int)
                                      48
     __sti__routine()                208
      Others                         472

 
 1 448 bytes in segment CODE
   156 bytes in segment DATA_C
   216 bytes in segment DATA_Z
     4 bytes in segment DIFUNCT
    12 bytes in segment INITTAB
 
 956 bytes of CODE  memory (+ 508 bytes shared)
 156 bytes of CONST memory
 216 bytes of DATA  memory

Errors: none
Warnings: none
