##############################################################################
#                                                                            #
# IAR ARM ANSI C/C++ Compiler V4.42A/W32               14/Dec/2022  11:03:43 #
# Copyright 1999-2005 IAR Systems. All rights reserved.                      #
#                                                                            #
#    Cpu mode        =  interwork                                            #
#    Endian          =  little                                               #
#    Stack alignment =  4                                                    #
#    Source file     =  D:\S2Prog\Shared\Src\AIAtmPressSensor_mA.cpp         #
#    Command line    =  D:\S2Prog\Shared\Src\AIAtmPressSensor_mA.cpp --fpu   #
#                       None -D OS_LIBMODE_SP -D CPU_S3C2410 -D              #
#                       OS_RAMVECT=0 -D OS_UART=-1 -D S2TXU -D USE_LZO=1 -D  #
#                       __ARM_LIBRARY__ -D WATCHDOG=1 -D NETWORK=1 -lCN      #
#                       D:\S2Prog\TXU\Debug\List\ -o                         #
#                       D:\S2Prog\TXU\Debug\Obj\ -z2 --no_cse --no_unroll    #
#                       --no_inline --no_code_motion --no_tbaa               #
#                       --no_clustering --no_scheduling --debug --cpu_mode   #
#                       arm --endian little --cpu ARM920T --stack_align 4    #
#                       --interwork -e --enable_multibytes --eec++           #
#                       --dlib_config "C:\Program Files (x86)\IAR            #
#                       Systems\Embedded Workbench                           #
#                       4.0\arm\LIB\dl4tpainl8n.h" -I                        #
#                       D:\S2Prog\TXU\GUI\CORE\ -I D:\S2Prog\TXU\GUI\WM\ -I  #
#                       D:\S2Prog\TXU\GUI\WIDGET\ -I D:\S2Prog\TXU\CONFIG\   #
#                       -I D:\S2Prog\TXU\INC\ -I D:\S2Prog\TXU\..\SHARED\INC #
#                       \ -I D:\S2Prog\TXU\..\SHARED\SRC\ -I                 #
#                       D:\S2Prog\TXU\..\SHARED\LZO\minilzo.210\ -I          #
#                       D:\S2Prog\TXU\lwip-1.4.1\src\include\ -I             #
#                       D:\S2Prog\TXU\lwip-1.4.1\src\include\ipv4\ -I        #
#                       D:\S2Prog\TXU\lwip-1.4.1\src\ -I                     #
#                       D:\S2Prog\TXU\..\SHARED\Database\ -I                 #
#                       D:\S2Prog\TXU\src\ -I "C:\Program Files (x86)\IAR    #
#                       Systems\Embedded Workbench 4.0\arm\INC\"             #
#    List file       =  D:\S2Prog\TXU\Debug\List\AIAtmPressSensor_mA.lst     #
#    Object file     =  D:\S2Prog\TXU\Debug\Obj\AIAtmPressSensor_mA.r79      #
#                                                                            #
#                                                                            #
##############################################################################

D:\S2Prog\Shared\Src\AIAtmPressSensor_mA.cpp
      1          #include "TSNIncludes.h"

   \                                 In segment CODE, align 4, keep-with-next
   \   __??Code32?? __code __interwork __atpcs char_allocator::char_allocator(char_allocator const &)
   \                     ??char_allocator:
   \   00000000   1EFF2FE1           BX       LR               ;; return

   \                                 In segment CODE, align 4, keep-with-next
   \   __??Code32?? __code __interwork __atpcs _String_val::_String_val(char_allocator)
   \                     ??_String_val:
   \   00000000   12402DE9           PUSH     {R1,R4,LR}
   \   00000004   0040B0E1           MOVS     R4,R0
   \   00000008   0D10B0E1           MOVS     R1,SP
   \   0000000C   0400B0E1           MOVS     R0,R4
   \   00000010   ........           _BLF     ??char_allocator,??char_allocator??rA
   \   00000014   0400B0E1           MOVS     R0,R4
   \   00000018   04D08DE2           ADD      SP,SP,#+4        ;; stack cleaning
   \   0000001C   1040BDE8           POP      {R4,LR}
   \   00000020   1EFF2FE1           BX       LR               ;; return

   \                                 In segment CODE, align 4, keep-with-next
   \   __??Code32?? __code __interwork __atpcs string::string(string const &)
   \                     ??string:
   \   00000000   30402DE9           PUSH     {R4,R5,LR}
   \   00000004   0040B0E1           MOVS     R4,R0
   \   00000008   0150B0E1           MOVS     R5,R1
   \   0000000C   0010D5E5           LDRB     R1,[R5, #+0]
   \   00000010   0400B0E1           MOVS     R0,R4
   \   00000014   ........           _BLF     ??_String_val,??_String_val??rA
   \   00000018   0020A0E3           MOV      R2,#+0
   \   0000001C   0010A0E3           MOV      R1,#+0
   \   00000020   0400B0E1           MOVS     R0,R4
   \   00000024   ........           _BLF     ??_Tidy,??_Tidy??rA
   \   00000028   1C009FE5           LDR      R0,??string_1    ;; ??npos
   \   0000002C   003090E5           LDR      R3,[R0, #+0]
   \   00000030   0020A0E3           MOV      R2,#+0
   \   00000034   0510B0E1           MOVS     R1,R5
   \   00000038   0400B0E1           MOVS     R0,R4
   \   0000003C   ........           _BLF     ??assign,??assign??rA
   \   00000040   0400B0E1           MOVS     R0,R4
   \   00000044   3040BDE8           POP      {R4,R5,LR}
   \   00000048   1EFF2FE1           BX       LR               ;; return
   \                     ??string_1:
   \   0000004C   ........           DC32     ??npos

   \                                 In segment CODE, align 4, keep-with-next
   \   __??Code32?? __code __interwork __atpcs string::~string()
   \                     `?~string`:
   \   00000000   10402DE9           PUSH     {R4,LR}
   \   00000004   0040B0E1           MOVS     R4,R0
   \   00000008   0020A0E3           MOV      R2,#+0
   \   0000000C   0110A0E3           MOV      R1,#+1
   \   00000010   0400B0E1           MOVS     R0,R4
   \   00000014   ........           _BLF     ??_Tidy,??_Tidy??rA
   \   00000018   1040BDE8           POP      {R4,LR}
   \   0000001C   1EFF2FE1           BX       LR               ;; return

   \                                 In segment CODE, align 4, keep-with-next
   \   __??Code32?? __code __interwork __atpcs AnsiString::AnsiString(AnsiString const &)
   \                     ??AnsiString:
   \   00000000   10402DE9           PUSH     {R4,LR}
   \   00000004   0040B0E1           MOVS     R4,R0
   \   00000008   0400B0E1           MOVS     R0,R4
   \   0000000C   ........           _BLF     ??string,??string??rA
   \   00000010   0400B0E1           MOVS     R0,R4
   \   00000014   1040BDE8           POP      {R4,LR}
   \   00000018   1EFF2FE1           BX       LR               ;; return

   \                                 In segment CODE, align 4, keep-with-next
   \   __??Code32?? __code __interwork __atpcs AnsiString::~AnsiString()
   \                     `?~AnsiString`:
   \   00000000   00402DE9           PUSH     {LR}
   \   00000004   ........           _BLF     `?~string`,`?~string??rA`
   \   00000008   0040BDE8           POP      {LR}
   \   0000000C   1EFF2FE1           BX       LR               ;; return

   \                                 In segment DATA_Z, align 4, align-sorted
   \   static GUI_FONT const __data TDU_FONT_ST
   \                     TDU_FONT_ST:
   \   00000000                      DS8 36

   \                                 In segment DATA_Z, align 4, align-sorted
   \   static GUI_FONT const __data TDU_FONT_PW
   \                     TDU_FONT_PW:
   \   00000000                      DS8 36

   \                                 In segment DATA_Z, align 4, align-sorted
   \   static GUI_FONT const __data TDU_FONT_HW
   \                     TDU_FONT_HW:
   \   00000000                      DS8 36

   \                                 In segment DATA_Z, align 4, align-sorted
   \   static GUI_FONT const __data TDU_FONT_BU
   \                     TDU_FONT_BU:
   \   00000000                      DS8 36

   \                                 In segment DATA_Z, align 4, align-sorted
   \   static GUI_FONT const __data TDU_FONT_HEADING
   \                     TDU_FONT_HEADING:
   \   00000000                      DS8 36

   \                                 In segment DATA_Z, align 4, align-sorted
   \   static GUI_FONT const __data TDU_FONT_BIG
   \                     TDU_FONT_BIG:
   \   00000000                      DS8 36
      2          #pragma hdrstop
      3          #ifdef BORLAND
      4              #pragma package(smart_init)
      5          #endif
      6          #include "TSNAsyncsender.h"
      7          
      8          //---------------------------------------------------------------------------
      9          

   \                                 In segment CODE, align 4, keep-with-next
     10          AIAtmPressSensor_mA::AIAtmPressSensor_mA(int SnsType, bool TCUFlag):AIPressSensor_mA(SnsType,true)
   \                     ??AIAtmPressSensor_mA:
   \   00000000   70402DE9           PUSH     {R4-R6,LR}
   \   00000004   0040B0E1           MOVS     R4,R0
   \   00000008   0150B0E1           MOVS     R5,R1
   \   0000000C   0260B0E1           MOVS     R6,R2
     11          //:m_iSizeAlloc(10)
     12          {
   \   00000010   0120A0E3           MOV      R2,#+1
   \   00000014   0510B0E1           MOVS     R1,R5
   \   00000018   0400B0E1           MOVS     R0,R4
   \   0000001C   ........           _BLF     ??AIPressSensor_mA,??AIPressSensor_mA??rA
   \   00000020   2C009FE5           LDR      R0,??AIAtmPressSensor_mA_1  ;; ??__vtbl
   \   00000024   A40084E5           STR      R0,[R4, #+164]
     13              IsOnTCU         = TCUFlag;
   \   00000028   0862C4E5           STRB     R6,[R4, #+520]
     14              CalcValue       = NORMAL_ATM;
   \   0000002C   ........           LDR      R0,??DataTable1  ;; 0x4125468e
   \   00000030   480184E5           STR      R0,[R4, #+328]
     15              FilteredValue = 0.008; // About Normal atmospheric pressure
   \   00000034   1C009FE5           LDR      R0,??AIAtmPressSensor_mA_1+0x4  ;; 0x3c03126f
   \   00000038   440184E5           STR      R0,[R4, #+324]
     16              Location        = C_AI_LOC_SYSTEM;
   \   0000003C   E500A0E3           MOV      R0,#+229
   \   00000040   800E80E3           ORR      R0,R0,#0x800
   \   00000044   280184E5           STR      R0,[R4, #+296]
     17          }
   \   00000048   0400B0E1           MOVS     R0,R4
   \   0000004C   7040BDE8           POP      {R4-R6,LR}
   \   00000050   1EFF2FE1           BX       LR               ;; return
   \                     ??AIAtmPressSensor_mA_1:
   \   00000054   ........           DC32     ??__vtbl
   \   00000058   6F12033C           DC32     0x3c03126f
     18          //---------------------------------------------------------------------------
     19          

   \                                 In segment CODE, align 4, keep-with-next
     20          AIAtmPressSensor_mA::~AIAtmPressSensor_mA(void)
     21          {
   \                     `?~AIAtmPressSensor_mA`:
   \   00000000   30402DE9           PUSH     {R4,R5,LR}
   \   00000004   0040B0E1           MOVS     R4,R0
   \   00000008   0150B0E1           MOVS     R5,R1
   \   0000000C   000054E3           CMP      R4,#+0
   \   00000010   0600000A           BEQ      `?~AIAtmPressSensor_mA_1`
     22          }
   \   00000014   0010A0E3           MOV      R1,#+0
   \   00000018   0400B0E1           MOVS     R0,R4
   \   0000001C   ........           _BLF     `?~AIPressSensor_mA`,`?~AIPressSensor_mA??rA`
   \   00000020   010015E3           TST      R5,#0x1
   \   00000024   0100000A           BEQ      `?~AIAtmPressSensor_mA_1`
   \   00000028   0400B0E1           MOVS     R0,R4
   \   0000002C   ........           _BLF     `??operator delete`,`??operator delete??rA`
   \                     `?~AIAtmPressSensor_mA_1`:
   \   00000030   3040BDE8           POP      {R4,R5,LR}
   \   00000034   1EFF2FE1           BX       LR               ;; return
     23          //---------------------------------------------------------------------------
     24          
     25          ///////////////////////////////////////////////////////////////
     26          //
     27          // Routines for the librarian for input
     28          //
     29          ///////////////////////////////////////////////////////////////
     30          
     31          

   \                                 In segment CODE, align 4, keep-with-next
     32          int AIAtmPressSensor_mA::PutValue( int ValueId, int Index, AnsiString NewValue,bool Local, int *UnitId)
     33          {
   \                     ??PutValue:
   \   00000000   F04F2DE9           PUSH     {R4-R11,LR}
   \   00000004   3CD04DE2           SUB      SP,SP,#+60
   \   00000008   0040B0E1           MOVS     R4,R0
   \   0000000C   0150B0E1           MOVS     R5,R1
   \   00000010   0260B0E1           MOVS     R6,R2
   \   00000014   0370B0E1           MOVS     R7,R3
   \   00000018   6080DDE5           LDRB     R8,[SP, #+96]
   \   0000001C   64909DE5           LDR      R9,[SP, #+100]
     34              int Status    = E_NO_ERR, ValUnitId = NO_UNIT;
   \   00000020   0000A0E3           MOV      R0,#+0
   \   00000024   00A0B0E1           MOVS     R10,R0
   \   00000028   0010A0E3           MOV      R1,#+0
   \   0000002C   00108DE5           STR      R1,[SP, #+0]
     35          
     36              switch ( ValueId ) {
   \   00000030   0500B0E1           MOVS     R0,R5
   \   00000034   B810A0E3           MOV      R1,#+184
   \   00000038   401E81E3           ORR      R1,R1,#0x400
   \   0000003C   010050E1           CMP      R0,R1
   \   00000040   0300000A           BEQ      ??PutValue_2
   \   00000044   4710A0E3           MOV      R1,#+71
   \   00000048   501E81E3           ORR      R1,R1,#0x500
   \   0000004C   010050E1           CMP      R0,R1
   \   00000050   1C00001A           BNE      ??PutValue_3
     37              case SVT_ATM_PRESSURE:
     38              case SVT_AI_CALC_VAL:
     39                  {
     40                      float OrgOffset = Offset;
   \                     ??PutValue_2:
   \   00000054   400194E5           LDR      R0,[R4, #+320]
   \   00000058   00B0B0E1           MOVS     R11,R0
     41                      Status = AIPressSensor::PutValue(SVT_AI_CALC_VAL, Index,NewValue,Local,&ValUnitId);
   \   0000005C   0710B0E1           MOVS     R1,R7
   \   00000060   20008DE2           ADD      R0,SP,#+32
   \   00000064   ........           _BLF     ??AnsiString,??AnsiString??rA
   \   00000068   0D10B0E1           MOVS     R1,SP
   \   0000006C   02002DE9           PUSH     {R1}
   \   00000070   0810B0E1           MOVS     R1,R8
   \   00000074   02002DE9           PUSH     {R1}
   \   00000078   0030B0E1           MOVS     R3,R0
   \   0000007C   0620B0E1           MOVS     R2,R6
   \   00000080   B810A0E3           MOV      R1,#+184
   \   00000084   401E81E3           ORR      R1,R1,#0x400
   \   00000088   0400B0E1           MOVS     R0,R4
   \   0000008C   ........           _BLF     ??PutValue_1,??PutValue??rA
   \   00000090   08D08DE2           ADD      SP,SP,#+8        ;; stack cleaning
   \   00000094   00A0B0E1           MOVS     R10,R0
   \   00000098   20008DE2           ADD      R0,SP,#+32
   \   0000009C   ........           _BLF     `?~AnsiString`,`?~AnsiString??rA`
     42                      if ( Status == E_NO_ERR ) {
   \   000000A0   00005AE3           CMP      R10,#+0
   \   000000A4   1700001A           BNE      ??PutValue_4
     43                          AdjustOffsets(OrgOffset - Offset,Local);
   \   000000A8   0810B0E1           MOVS     R1,R8
   \   000000AC   02002DE9           PUSH     {R1}
   \   000000B0   0B00B0E1           MOVS     R0,R11
   \   000000B4   401194E5           LDR      R1,[R4, #+320]
   \   000000B8   ........           _BLF     __fSub,??__fSub??rA
   \   000000BC   0200BDE8           POP      {R1}
   \   000000C0   ........           _BLF     ??AdjustOffsets,??AdjustOffsets??rA
   \   000000C4   0F0000EA           B        ??PutValue_4
     44                      }
     45                  }
     46                  break;
     47              default:
     48                  Status = AIPressSensor::PutValue(ValueId, Index,NewValue,Local,&ValUnitId);
   \                     ??PutValue_3:
   \   000000C8   0710B0E1           MOVS     R1,R7
   \   000000CC   04008DE2           ADD      R0,SP,#+4
   \   000000D0   ........           _BLF     ??AnsiString,??AnsiString??rA
   \   000000D4   0030B0E1           MOVS     R3,R0
   \   000000D8   0D00B0E1           MOVS     R0,SP
   \   000000DC   01002DE9           PUSH     {R0}
   \   000000E0   0800B0E1           MOVS     R0,R8
   \   000000E4   01002DE9           PUSH     {R0}
   \   000000E8   0620B0E1           MOVS     R2,R6
   \   000000EC   0510B0E1           MOVS     R1,R5
   \   000000F0   0400B0E1           MOVS     R0,R4
   \   000000F4   ........           _BLF     ??PutValue_1,??PutValue??rA
   \   000000F8   08D08DE2           ADD      SP,SP,#+8        ;; stack cleaning
   \   000000FC   00A0B0E1           MOVS     R10,R0
   \   00000100   04008DE2           ADD      R0,SP,#+4
   \   00000104   ........           _BLF     `?~AnsiString`,`?~AnsiString??rA`
     49                  break;
     50              }
     51              if ( Status==E_NO_ERR ) {
   \                     ??PutValue_4:
   \   00000108   00005AE3           CMP      R10,#+0
   \   0000010C   0500001A           BNE      ??PutValue_5
     52                  SetModifiedFlag();
   \   00000110   A40094E5           LDR      R0,[R4, #+164]
   \   00000114   541090E2           ADDS     R1,R0,#+84
   \   00000118   0400B0E1           MOVS     R0,R4
   \   0000011C   001091E5           LDR      R1,[R1, #+0]
   \   00000120   0FE0A0E1           MOV      LR,PC
   \   00000124   11FF2FE1           BX       R1
     53              }
     54              if ( UnitId ) {
   \                     ??PutValue_5:
   \   00000128   000059E3           CMP      R9,#+0
   \   0000012C   0100000A           BEQ      ??PutValue_6
     55                  *UnitId = ValUnitId;
   \   00000130   00009DE5           LDR      R0,[SP, #+0]
   \   00000134   000089E5           STR      R0,[R9, #+0]
     56              }
     57              return(Status);
   \                     ??PutValue_6:
   \   00000138   0A00B0E1           MOVS     R0,R10
   \   0000013C   3CD08DE2           ADD      SP,SP,#+60       ;; stack cleaning
   \   00000140   F04FBDE8           POP      {R4-R11,LR}
   \   00000144   1EFF2FE1           BX       LR               ;; return
     58          }
     59          
     60          
     61          //////////////////////////////////////////////////////////////////
     62          //
     63          // Sensor calculations
     64          //
     65          //////////////////////////////////////////////////////////////////
     66          
     67          

   \                                 In segment CODE, align 4, keep-with-next
     68          void AIAtmPressSensor_mA::NewValue(float NewValue)
     69          {
     70              HWFailure           = false;
   \                     ??NewValue:
   \   00000000   0020A0E3           MOV      R2,#+0
   \   00000004   0C21C0E5           STRB     R2,[R0, #+268]
     71              FilteredValue       = NewValue;
   \   00000008   441180E5           STR      R1,[R0, #+324]
     72          }
   \   0000000C   1EFF2FE1           BX       LR               ;; return
     73          

   \                                 In segment CODE, align 4, keep-with-next
     74          void AIAtmPressSensor_mA::FilterValue(float NewCalcVal,float FilterDegree)
     75          {
   \                     ??FilterValue:
   \   00000000   F0412DE9           PUSH     {R4-R8,LR}
   \   00000004   0060B0E1           MOVS     R6,R0
   \   00000008   0180B0E1           MOVS     R8,R1
   \   0000000C   0270B0E1           MOVS     R7,R2
     76              CalcValue += (NewCalcVal - CalcValue)/(FilterDegree+1.0);
   \   00000010   0700B0E1           MOVS     R0,R7
   \   00000014   ........           _BLF     __floatToDouble,??__floatToDouble??rA
   \   00000018   0020A0E3           MOV      R2,#+0
   \   0000001C   C035A0E3           MOV      R3,#+805306368
   \   00000020   FF3683E3           ORR      R3,R3,#0xFF00000
   \   00000024   ........           _BLF     __dAdd,??__dAdd??rA
   \   00000028   0020A0E1           MOV      R2,R0
   \   0000002C   0130A0E1           MOV      R3,R1
   \   00000030   0240A0E1           MOV      R4,R2
   \   00000034   0350A0E1           MOV      R5,R3
   \   00000038   0800B0E1           MOVS     R0,R8
   \   0000003C   481196E5           LDR      R1,[R6, #+328]
   \   00000040   ........           _BLF     __fSub,??__fSub??rA
   \   00000044   ........           _BLF     __floatToDouble,??__floatToDouble??rA
   \   00000048   0420A0E1           MOV      R2,R4
   \   0000004C   0530A0E1           MOV      R3,R5
   \   00000050   ........           _BLF     __dDiv,??__dDiv??rA
   \   00000054   0040A0E1           MOV      R4,R0
   \   00000058   0150A0E1           MOV      R5,R1
   \   0000005C   480196E5           LDR      R0,[R6, #+328]
   \   00000060   ........           _BLF     __floatToDouble,??__floatToDouble??rA
   \   00000064   0420A0E1           MOV      R2,R4
   \   00000068   0530A0E1           MOV      R3,R5
   \   0000006C   ........           _BLF     __dAdd,??__dAdd??rA
   \   00000070   ........           _BLF     __doubleToFloat,??__doubleToFloat??rA
   \   00000074   480186E5           STR      R0,[R6, #+328]
     77          }
   \   00000078   F041BDE8           POP      {R4-R8,LR}
   \   0000007C   1EFF2FE1           BX       LR               ;; return
     78          

   \                                 In segment CODE, align 4, keep-with-next
     79          float AIAtmPressSensor_mA::Calculate(void)
     80          {
   \                     ??Calculate:
   \   00000000   F0402DE9           PUSH     {R4-R7,LR}
   \   00000004   0060B0E1           MOVS     R6,R0
     81              if ( CanCalculate() ) {
   \   00000008   0600B0E1           MOVS     R0,R6
   \   0000000C   ........           _BLF     ??CanCalculate,??CanCalculate??rA
   \   00000010   000050E3           CMP      R0,#+0
   \   00000014   3900000A           BEQ      ??Calculate_1
     82                  float tmpCalcValue = Gain*(Get_Press(FilteredValue,15.0)-NORMAL_ATM)+NORMAL_ATM-Offset;
   \   00000018   4024A0E3           MOV      R2,#+1073741824
   \   0000001C   5C2782E3           ORR      R2,R2,#0x1700000
   \   00000020   441196E5           LDR      R1,[R6, #+324]
   \   00000024   0600B0E1           MOVS     R0,R6
   \   00000028   ........           _BLF     ??Get_Press,??Get_Press??rA
   \   0000002C   ........           _BLF     __floatToDouble,??__floatToDouble??rA
   \   00000030   D4209FE5           LDR      R2,??Calculate_2  ;; 0xffffffffbf0f2b0c
   \   00000034   D4309FE5           LDR      R3,??Calculate_2+0x4  ;; 0xffffffffc024a8d1
   \   00000038   ........           _BLF     __dAdd,??__dAdd??rA
   \   0000003C   0040A0E1           MOV      R4,R0
   \   00000040   0150A0E1           MOV      R5,R1
   \   00000044   3C0196E5           LDR      R0,[R6, #+316]
   \   00000048   ........           _BLF     __floatToDouble,??__floatToDouble??rA
   \   0000004C   0420A0E1           MOV      R2,R4
   \   00000050   0530A0E1           MOV      R3,R5
   \   00000054   ........           _BLF     __dMul,??__dMul??rA
   \   00000058   AC209FE5           LDR      R2,??Calculate_2  ;; 0xffffffffbf0f2b0c
   \   0000005C   B0309FE5           LDR      R3,??Calculate_2+0x8  ;; 0x4024a8d1
   \   00000060   ........           _BLF     __dAdd,??__dAdd??rA
   \   00000064   0040A0E1           MOV      R4,R0
   \   00000068   0150A0E1           MOV      R5,R1
   \   0000006C   400196E5           LDR      R0,[R6, #+320]
   \   00000070   ........           _BLF     __floatToDouble,??__floatToDouble??rA
   \   00000074   0020A0E1           MOV      R2,R0
   \   00000078   0130A0E1           MOV      R3,R1
   \   0000007C   0400A0E1           MOV      R0,R4
   \   00000080   0510A0E1           MOV      R1,R5
   \   00000084   ........           _BLF     __dSub,??__dSub??rA
   \   00000088   ........           _BLF     __doubleToFloat,??__doubleToFloat??rA
   \   0000008C   0070B0E1           MOVS     R7,R0
     83                  if ( IsOnTCU ) {
   \   00000090   0802D6E5           LDRB     R0,[R6, #+520]
   \   00000094   000050E3           CMP      R0,#+0
   \   00000098   0500000A           BEQ      ??Calculate_3
     84                      FilterValue(tmpCalcValue,INT_ATM_REF_FILTER);
   \   0000009C   4024A0E3           MOV      R2,#+1073741824
   \   000000A0   B22782E3           ORR      R2,R2,#0x2C80000
   \   000000A4   0710B0E1           MOVS     R1,R7
   \   000000A8   0600B0E1           MOVS     R0,R6
   \   000000AC   ........           BL       ??FilterValue
   \   000000B0   000000EA           B        ??Calculate_4
     85                  } else {
     86                      CalcValue = tmpCalcValue;
   \                     ??Calculate_3:
   \   000000B4   487186E5           STR      R7,[R6, #+328]
     87                  }
     88                  ResultOK  = true;
   \                     ??Calculate_4:
   \   000000B8   0100A0E3           MOV      R0,#+1
   \   000000BC   3601C6E5           STRB     R0,[R6, #+310]
     89          
     90                  if ( CalcValue > MAX_ATM || CalcValue < MIN_ATM ) {
   \   000000C0   480196E5           LDR      R0,[R6, #+328]
   \   000000C4   ........           _BLF     __floatToDouble,??__floatToDouble??rA
   \   000000C8   48209FE5           LDR      R2,??Calculate_2+0xC  ;; 0x6c99d5d1
   \   000000CC   48309FE5           LDR      R3,??Calculate_2+0x10  ;; 0x4027a84c
   \   000000D0   ........           _BLF     __dGreaterEqual,??__dGreaterEqual??rA
   \   000000D4   000050E3           CMP      R0,#+0
   \   000000D8   0600001A           BNE      ??Calculate_5
   \   000000DC   480196E5           LDR      R0,[R6, #+328]
   \   000000E0   ........           _BLF     __floatToDouble,??__floatToDouble??rA
   \   000000E4   34209FE5           LDR      R2,??Calculate_2+0x14  ;; 0xfffffffff29f0f0b
   \   000000E8   34309FE5           LDR      R3,??Calculate_2+0x18  ;; 0x402050c1
   \   000000EC   ........           _BLF     __dLess,??__dLess??rA
   \   000000F0   000050E3           CMP      R0,#+0
   \   000000F4   0100000A           BEQ      ??Calculate_1
     91                      //Failure = true;
     92                      CalcValue = NORMAL_ATM;
   \                     ??Calculate_5:
   \   000000F8   ........           LDR      R0,??DataTable1  ;; 0x4125468e
   \   000000FC   480186E5           STR      R0,[R6, #+328]
     93                  }else{
     94                  //    Failure = false;
     95                  }
     96          
     97              }
     98              return(CalcValue);
   \                     ??Calculate_1:
   \   00000100   480196E5           LDR      R0,[R6, #+328]
   \   00000104   F040BDE8           POP      {R4-R7,LR}
   \   00000108   1EFF2FE1           BX       LR               ;; return
   \                     ??Calculate_2:
   \   0000010C   0C2B0FBF           DC32     0xffffffffbf0f2b0c
   \   00000110   D1A824C0           DC32     0xffffffffc024a8d1
   \   00000114   D1A82440           DC32     0x4024a8d1
   \   00000118   D1D5996C           DC32     0x6c99d5d1
   \   0000011C   4CA82740           DC32     0x4027a84c
   \   00000120   0B0F9FF2           DC32     0xfffffffff29f0f0b
   \   00000124   C1502040           DC32     0x402050c1
     99          
    100          }

   \                                 In segment DIFUNCT, align 4, keep-with-next, root
   \   00000000                      REQUIRE ?call_ctors
   \   00000000   ........           DC32    ??__sti__routine

   \                                 In segment CODE, align 4, keep-with-next
   \   __??Code32?? __code __interwork __atpcs AIAtmPressSensor_mA &AIAtmPressSensor_mA::new AIAtmPressSensor_mA(int, bool)
   \                     `??new AIAtmPressSensor_mA`:
   \   00000000   30402DE9           PUSH     {R4,R5,LR}
   \   00000004   0040B0E1           MOVS     R4,R0
   \   00000008   0150B0E1           MOVS     R5,R1
   \   0000000C   830FA0E3           MOV      R0,#+524
   \   00000010   ........           _BLF     `??operator new`,`??operator new??rA`
   \   00000014   000050E3           CMP      R0,#+0
   \   00000018   0300000A           BEQ      `??new AIAtmPressSensor_mA_1`
   \   0000001C   0520B0E1           MOVS     R2,R5
   \   00000020   0410B0E1           MOVS     R1,R4
   \   00000024   ........           BL       ??AIAtmPressSensor_mA
   \   00000028   000000EA           B        `??new AIAtmPressSensor_mA_2`
   \                     `??new AIAtmPressSensor_mA_1`:
   \   0000002C   0000A0E3           MOV      R0,#+0
   \                     `??new AIAtmPressSensor_mA_2`:
   \   00000030   3040BDE8           POP      {R4,R5,LR}
   \   00000034   1EFF2FE1           BX       LR               ;; return

   \                                 In segment CODE, align 4, keep-with-next
   \   static __??Code32?? __intrinsic __code __interwork __atpcs void __sti__routine()
   \                     ??__sti__routine:
   \   00000000   A4009FE5           LDR      R0,??__sti__routine_1  ;; TDU_FONT_ST
   \   00000004   A4109FE5           LDR      R1,??__sti__routine_1+0x4  ;; GUI_Font13_1
   \   00000008   2430A0E3           MOV      R3,#+36
   \                     ??__sti__routine_2:
   \   0000000C   043053E2           SUBS     R3,R3,#+4
   \   00000010   032091E7           LDR      R2,[R1, R3]
   \   00000014   032080E7           STR      R2,[R0, R3]
   \   00000018   FBFFFF1A           BNE      ??__sti__routine_2
   \   0000001C   90009FE5           LDR      R0,??__sti__routine_1+0x8  ;; TDU_FONT_PW
   \   00000020   90109FE5           LDR      R1,??__sti__routine_1+0xC  ;; GUI_Font16_1
   \   00000024   2430A0E3           MOV      R3,#+36
   \                     ??__sti__routine_3:
   \   00000028   043053E2           SUBS     R3,R3,#+4
   \   0000002C   032091E7           LDR      R2,[R1, R3]
   \   00000030   032080E7           STR      R2,[R0, R3]
   \   00000034   FBFFFF1A           BNE      ??__sti__routine_3
   \   00000038   7C009FE5           LDR      R0,??__sti__routine_1+0x10  ;; TDU_FONT_HW
   \   0000003C   74109FE5           LDR      R1,??__sti__routine_1+0xC  ;; GUI_Font16_1
   \   00000040   2430A0E3           MOV      R3,#+36
   \                     ??__sti__routine_4:
   \   00000044   043053E2           SUBS     R3,R3,#+4
   \   00000048   032091E7           LDR      R2,[R1, R3]
   \   0000004C   032080E7           STR      R2,[R0, R3]
   \   00000050   FBFFFF1A           BNE      ??__sti__routine_4
   \   00000054   64009FE5           LDR      R0,??__sti__routine_1+0x14  ;; TDU_FONT_BU
   \   00000058   50109FE5           LDR      R1,??__sti__routine_1+0x4  ;; GUI_Font13_1
   \   0000005C   2430A0E3           MOV      R3,#+36
   \                     ??__sti__routine_5:
   \   00000060   043053E2           SUBS     R3,R3,#+4
   \   00000064   032091E7           LDR      R2,[R1, R3]
   \   00000068   032080E7           STR      R2,[R0, R3]
   \   0000006C   FBFFFF1A           BNE      ??__sti__routine_5
   \   00000070   4C009FE5           LDR      R0,??__sti__routine_1+0x18  ;; TDU_FONT_HEADING
   \   00000074   34109FE5           LDR      R1,??__sti__routine_1+0x4  ;; GUI_Font13_1
   \   00000078   2430A0E3           MOV      R3,#+36
   \                     ??__sti__routine_6:
   \   0000007C   043053E2           SUBS     R3,R3,#+4
   \   00000080   032091E7           LDR      R2,[R1, R3]
   \   00000084   032080E7           STR      R2,[R0, R3]
   \   00000088   FBFFFF1A           BNE      ??__sti__routine_6
   \   0000008C   34009FE5           LDR      R0,??__sti__routine_1+0x1C  ;; TDU_FONT_BIG
   \   00000090   34109FE5           LDR      R1,??__sti__routine_1+0x20  ;; GUI_Font24_1
   \   00000094   2430A0E3           MOV      R3,#+36
   \                     ??__sti__routine_7:
   \   00000098   043053E2           SUBS     R3,R3,#+4
   \   0000009C   032091E7           LDR      R2,[R1, R3]
   \   000000A0   032080E7           STR      R2,[R0, R3]
   \   000000A4   FBFFFF1A           BNE      ??__sti__routine_7
   \   000000A8   1EFF2FE1           BX       LR               ;; return
   \                     ??__sti__routine_1:
   \   000000AC   ........           DC32     TDU_FONT_ST
   \   000000B0   ........           DC32     GUI_Font13_1
   \   000000B4   ........           DC32     TDU_FONT_PW
   \   000000B8   ........           DC32     GUI_Font16_1
   \   000000BC   ........           DC32     TDU_FONT_HW
   \   000000C0   ........           DC32     TDU_FONT_BU
   \   000000C4   ........           DC32     TDU_FONT_HEADING
   \   000000C8   ........           DC32     TDU_FONT_BIG
   \   000000CC   ........           DC32     GUI_Font24_1

   \                                 In segment CODE, align 4, keep-with-next
   \                     ??DataTable1:
   \   00000000   8E462541           DC32     0x4125468e
    101          

   Maximum stack usage in bytes:

     Function                       CSTACK
     --------                       ------
     AIAtmPressSensor_mA::AIAtmPressSensor_mA(int, bool)
                                       16
     AIAtmPressSensor_mA::Calculate()
                                       20
     AIAtmPressSensor_mA::FilterValue(float, float)
                                       24
     AIAtmPressSensor_mA::NewValue(float)
                                        0
     AIAtmPressSensor_mA::PutValue(int, int, AnsiString, bool, int *)
                                      104
     AIAtmPressSensor_mA::new AIAtmPressSensor_mA(int, bool)
                                       12
     AIAtmPressSensor_mA::~AIAtmPressSensor_mA()
                                       12
     AnsiString::AnsiString(AnsiString const &)
                                        8
     AnsiString::~AnsiString()          4
     _String_val::_String_val(char_allocator)
                                       12
     __sti__routine()                   0
     char_allocator::char_allocator(char_allocator const &)
                                        0
     string::string(string const &)    12
     string::~string()                  8


   Segment part sizes:

     Function/Label                 Bytes
     --------------                 -----
     char_allocator::char_allocator(char_allocator const &)
                                       4
     _String_val::_String_val(char_allocator)
                                      36
     string::string(string const &)   80
     string::~string()                32
     AnsiString::AnsiString(AnsiString const &)
                                      28
     AnsiString::~AnsiString()        16
     TDU_FONT_ST                      36
     TDU_FONT_PW                      36
     TDU_FONT_HW                      36
     TDU_FONT_BU                      36
     TDU_FONT_HEADING                 36
     TDU_FONT_BIG                     36
     AIAtmPressSensor_mA::AIAtmPressSensor_mA(int, bool)
                                      92
     AIAtmPressSensor_mA::~AIAtmPressSensor_mA()
                                      56
     AIAtmPressSensor_mA::PutValue(int, int, AnsiString, bool, int *)
                                     328
     AIAtmPressSensor_mA::NewValue(float)
                                      16
     AIAtmPressSensor_mA::FilterValue(float, float)
                                     128
     AIAtmPressSensor_mA::Calculate()
                                     296
     AIAtmPressSensor_mA::new AIAtmPressSensor_mA(int, bool)
                                      56
     __sti__routine()                208
     ??DataTable1                      4
      Others                         504

 
 1 712 bytes in segment CODE
   156 bytes in segment DATA_C
   216 bytes in segment DATA_Z
     4 bytes in segment DIFUNCT
    12 bytes in segment INITTAB
 
 1 188 bytes of CODE  memory (+ 540 bytes shared)
   156 bytes of CONST memory
   216 bytes of DATA  memory

Errors: none
Warnings: none
