##############################################################################
#                                                                            #
# IAR ARM ANSI C/C++ Compiler V4.42A/W32               14/Sep/2022  15:11:26 #
# Copyright 1999-2005 IAR Systems. All rights reserved.                      #
#                                                                            #
#    Cpu mode        =  interwork                                            #
#    Endian          =  little                                               #
#    Stack alignment =  4                                                    #
#    Source file     =  D:\S2Prog\Shared\Src\AIPressSensor_mV.cpp            #
#    Command line    =  D:\S2Prog\Shared\Src\AIPressSensor_mV.cpp --fpu      #
#                       None -D OS_LIBMODE_SP -D CPU_S3C2410 -D              #
#                       OS_RAMVECT=0 -D OS_UART=-1 -D S2TXU -D USE_LZO=1 -D  #
#                       __ARM_LIBRARY__ -D WATCHDOG=1 -D NETWORK=1 -lCN      #
#                       D:\S2Prog\TXU\Debug\List\ -o                         #
#                       D:\S2Prog\TXU\Debug\Obj\ -z9 --debug --cpu_mode arm  #
#                       --endian little --cpu ARM920T --stack_align 4        #
#                       --interwork -e --enable_multibytes --eec++           #
#                       --dlib_config "C:\Program Files (x86)\IAR            #
#                       Systems\Embedded Workbench                           #
#                       4.0\arm\LIB\dl4tpainl8n.h" -I                        #
#                       D:\S2Prog\TXU\GUI\CORE\ -I D:\S2Prog\TXU\GUI\WM\ -I  #
#                       D:\S2Prog\TXU\GUI\WIDGET\ -I D:\S2Prog\TXU\CONFIG\   #
#                       -I D:\S2Prog\TXU\INC\ -I D:\S2Prog\TXU\..\SHARED\INC #
#                       \ -I D:\S2Prog\TXU\..\SHARED\SRC\ -I                 #
#                       D:\S2Prog\TXU\..\SHARED\LZO\minilzo.210\ -I          #
#                       D:\S2Prog\TXU\lwip-1.4.1\src\include\ -I             #
#                       D:\S2Prog\TXU\lwip-1.4.1\src\include\ipv4\ -I        #
#                       D:\S2Prog\TXU\lwip-1.4.1\src\ -I                     #
#                       D:\S2Prog\TXU\..\SHARED\Database\ -I                 #
#                       D:\S2Prog\TXU\src\ -I "C:\Program Files (x86)\IAR    #
#                       Systems\Embedded Workbench 4.0\arm\INC\"             #
#                       --inline_threshold=2                                 #
#    List file       =  D:\S2Prog\TXU\Debug\List\AIPressSensor_mV.lst        #
#    Object file     =  D:\S2Prog\TXU\Debug\Obj\AIPressSensor_mV.r79         #
#                                                                            #
#                                                                            #
##############################################################################

D:\S2Prog\Shared\Src\AIPressSensor_mV.cpp
      1          #include "TSNIncludes.h"

   \                                 In segment CODE, align 4, keep-with-next
   \   __??Code32?? __code __interwork __atpcs _Tree_algobase<allocator<void>>::_Genptr _Tree_algobase<allocator<void>>::_DecP(_Tree_algobase<allocator<void>>::_Genptr)
   \                     ??_DecP:
   \   00000000   0D10D0E5           LDRB     R1,[R0, #+13]
   \   00000004   000051E3           CMP      R1,#+0
   \   00000008   08009015           LDRNE    R0,[R0, #+8]
   \   0000000C   1EFF2F11           BXNE     LR
   \   00000010   001090E5           LDR      R1,[R0, #+0]
   \   00000014   0D20D1E5           LDRB     R2,[R1, #+13]
   \   00000018   000052E3           CMP      R2,#+0
   \   0000001C   0700001A           BNE      ??_DecP_1
   \   00000020   000000EA           B        ??_DecP_2
   \                     ??_DecP_3:
   \   00000024   0010A0E1           MOV      R1,R0
   \                     ??_DecP_2:
   \   00000028   080091E5           LDR      R0,[R1, #+8]
   \   0000002C   0D20D0E5           LDRB     R2,[R0, #+13]
   \   00000030   000052E3           CMP      R2,#+0
   \   00000034   FAFFFF0A           BEQ      ??_DecP_3
   \   00000038   0100A0E1           MOV      R0,R1
   \   0000003C   1EFF2FE1           BX       LR
   \                     ??_DecP_1:
   \   00000040   041090E5           LDR      R1,[R0, #+4]
   \   00000044   0D20D1E5           LDRB     R2,[R1, #+13]
   \   00000048   000052E3           CMP      R2,#+0
   \   0000004C   1EFF2F11           BXNE     LR
   \   00000050   002091E5           LDR      R2,[R1, #+0]
   \   00000054   020050E1           CMP      R0,R2
   \   00000058   0100A0E1           MOV      R0,R1
   \   0000005C   F7FFFF0A           BEQ      ??_DecP_1
   \   00000060   1EFF2FE1           BX       LR               ;; return

   \                                 In segment CODE, align 4, keep-with-next
   \   __??Code32?? __code __interwork __atpcs void _Tree_algobase<allocator<void>>::_Rrotate(_Tree_algobase<allocator<void>>::_Genptr)
   \                     ??_Rrotate:
   \   00000000   002091E5           LDR      R2,[R1, #+0]
   \   00000004   083092E5           LDR      R3,[R2, #+8]
   \   00000008   003081E5           STR      R3,[R1, #+0]
   \   0000000C   083092E5           LDR      R3,[R2, #+8]
   \   00000010   0DC0D3E5           LDRB     R12,[R3, #+13]
   \   00000014   00005CE3           CMP      R12,#+0
   \   00000018   04108305           STREQ    R1,[R3, #+4]
   \   0000001C   043091E5           LDR      R3,[R1, #+4]
   \   00000020   043082E5           STR      R3,[R2, #+4]
   \   00000024   043090E5           LDR      R3,[R0, #+4]
   \   00000028   030051E1           CMP      R1,R3
   \   0000002C   04208005           STREQ    R2,[R0, #+4]
   \   00000030   0400000A           BEQ      ??_Rrotate_1
   \   00000034   040091E5           LDR      R0,[R1, #+4]
   \   00000038   083090E5           LDR      R3,[R0, #+8]
   \   0000003C   030051E1           CMP      R1,R3
   \   00000040   08208005           STREQ    R2,[R0, #+8]
   \   00000044   00208015           STRNE    R2,[R0, #+0]
   \                     ??_Rrotate_1:
   \   00000048   081082E5           STR      R1,[R2, #+8]
   \   0000004C   042081E5           STR      R2,[R1, #+4]
   \   00000050   1EFF2FE1           BX       LR               ;; return

   \                                 In segment CODE, align 4, keep-with-next
   \   __??Code32?? __code __interwork __atpcs void _Tree_algobase<allocator<void>>::_Lrotate(_Tree_algobase<allocator<void>>::_Genptr)
   \                     ??_Lrotate:
   \   00000000   082091E5           LDR      R2,[R1, #+8]
   \   00000004   003092E5           LDR      R3,[R2, #+0]
   \   00000008   083081E5           STR      R3,[R1, #+8]
   \   0000000C   003092E5           LDR      R3,[R2, #+0]
   \   00000010   0DC0D3E5           LDRB     R12,[R3, #+13]
   \   00000014   00005CE3           CMP      R12,#+0
   \   00000018   04108305           STREQ    R1,[R3, #+4]
   \   0000001C   043091E5           LDR      R3,[R1, #+4]
   \   00000020   043082E5           STR      R3,[R2, #+4]
   \   00000024   043090E5           LDR      R3,[R0, #+4]
   \   00000028   030051E1           CMP      R1,R3
   \   0000002C   04208005           STREQ    R2,[R0, #+4]
   \   00000030   0400000A           BEQ      ??_Lrotate_1
   \   00000034   040091E5           LDR      R0,[R1, #+4]
   \   00000038   003090E5           LDR      R3,[R0, #+0]
   \   0000003C   030051E1           CMP      R1,R3
   \   00000040   00208005           STREQ    R2,[R0, #+0]
   \   00000044   08208015           STRNE    R2,[R0, #+8]
   \                     ??_Lrotate_1:
   \   00000048   001082E5           STR      R1,[R2, #+0]
   \   0000004C   042081E5           STR      R2,[R1, #+4]
   \   00000050   1EFF2FE1           BX       LR               ;; return

   \                                 In segment CODE, align 4, keep-with-next
   \   __??Code32?? __code __interwork __atpcs void _Tree_algobase<allocator<void>>::_Insert(bool, _Tree_algobase<allocator<void>>::_Genptr, _Tree_algobase<allocator<void>>::_Genptr)
   \                     ??_Insert:
   \   00000000   F0402DE9           PUSH     {R4-R7,LR}
   \   00000004   0040A0E1           MOV      R4,R0
   \   00000008   100094E5           LDR      R0,[R4, #+16]
   \   0000000C   0350A0E1           MOV      R5,R3
   \   00000010   010080E2           ADD      R0,R0,#+1
   \   00000014   100084E5           STR      R0,[R4, #+16]
   \   00000018   040052E1           CMP      R2,R4
   \   0000001C   0300001A           BNE      ??_Insert_2
   \   00000020   045084E5           STR      R5,[R4, #+4]
   \   00000024   005084E5           STR      R5,[R4, #+0]
   \                     ??_Insert_3:
   \   00000028   085084E5           STR      R5,[R4, #+8]
   \   0000002C   130000EA           B        ??_Insert_4
   \                     ??_Insert_2:
   \   00000030   000051E3           CMP      R1,#+0
   \   00000034   0500000A           BEQ      ??_Insert_5
   \   00000038   005082E5           STR      R5,[R2, #+0]
   \   0000003C   000094E5           LDR      R0,[R4, #+0]
   \   00000040   000052E1           CMP      R2,R0
   \   00000044   0D00001A           BNE      ??_Insert_4
   \   00000048   005084E5           STR      R5,[R4, #+0]
   \   0000004C   0B0000EA           B        ??_Insert_4
   \                     ??_Insert_5:
   \   00000050   085082E5           STR      R5,[R2, #+8]
   \   00000054   080094E5           LDR      R0,[R4, #+8]
   \   00000058   000052E1           CMP      R2,R0
   \   0000005C   0700001A           BNE      ??_Insert_4
   \   00000060   F0FFFFEA           B        ??_Insert_3
   \                     ??_Insert_6:
   \   00000064   0C70C0E5           STRB     R7,[R0, #+12]
   \   00000068   0C70C2E5           STRB     R7,[R2, #+12]
   \   0000006C   040095E5           LDR      R0,[R5, #+4]
   \   00000070   040090E5           LDR      R0,[R0, #+4]
   \   00000074   0C60C0E5           STRB     R6,[R0, #+12]
   \   00000078   040095E5           LDR      R0,[R5, #+4]
   \   0000007C   045090E5           LDR      R5,[R0, #+4]
   \                     ??_Insert_4:
   \   00000080   0170A0E3           MOV      R7,#+1
   \   00000084   040095E5           LDR      R0,[R5, #+4]
   \   00000088   0C10D0E5           LDRB     R1,[R0, #+12]
   \   0000008C   000051E3           CMP      R1,#+0
   \   00000090   2F00001A           BNE      ??_Insert_7
   \   00000094   041090E5           LDR      R1,[R0, #+4]
   \   00000098   0060A0E3           MOV      R6,#+0
   \   0000009C   001091E5           LDR      R1,[R1, #+0]
   \   000000A0   010050E1           CMP      R0,R1
   \   000000A4   041090E5           LDR      R1,[R0, #+4]
   \   000000A8   1400001A           BNE      ??_Insert_8
   \   000000AC   082091E5           LDR      R2,[R1, #+8]
   \   000000B0   0C10D2E5           LDRB     R1,[R2, #+12]
   \   000000B4   000051E3           CMP      R1,#+0
   \   000000B8   E9FFFF0A           BEQ      ??_Insert_6
   \   000000BC   081090E5           LDR      R1,[R0, #+8]
   \   000000C0   010055E1           CMP      R5,R1
   \   000000C4   0300001A           BNE      ??_Insert_9
   \   000000C8   0050A0E1           MOV      R5,R0
   \   000000CC   0510A0E1           MOV      R1,R5
   \   000000D0   0400A0E1           MOV      R0,R4
   \   000000D4   ........           _BLF     ??_Lrotate,??_Lrotate??rA
   \                     ??_Insert_9:
   \   000000D8   040095E5           LDR      R0,[R5, #+4]
   \   000000DC   0C70C0E5           STRB     R7,[R0, #+12]
   \   000000E0   040095E5           LDR      R0,[R5, #+4]
   \   000000E4   040090E5           LDR      R0,[R0, #+4]
   \   000000E8   0C60C0E5           STRB     R6,[R0, #+12]
   \   000000EC   040095E5           LDR      R0,[R5, #+4]
   \   000000F0   041090E5           LDR      R1,[R0, #+4]
   \   000000F4   0400A0E1           MOV      R0,R4
   \   000000F8   ........           _BLF     ??_Rrotate,??_Rrotate??rA
   \   000000FC   DFFFFFEA           B        ??_Insert_4
   \                     ??_Insert_8:
   \   00000100   002091E5           LDR      R2,[R1, #+0]
   \   00000104   0C10D2E5           LDRB     R1,[R2, #+12]
   \   00000108   000051E3           CMP      R1,#+0
   \   0000010C   D4FFFF0A           BEQ      ??_Insert_6
   \   00000110   001090E5           LDR      R1,[R0, #+0]
   \   00000114   010055E1           CMP      R5,R1
   \   00000118   0300001A           BNE      ??_Insert_10
   \   0000011C   0050A0E1           MOV      R5,R0
   \   00000120   0510A0E1           MOV      R1,R5
   \   00000124   0400A0E1           MOV      R0,R4
   \   00000128   ........           _BLF     ??_Rrotate,??_Rrotate??rA
   \                     ??_Insert_10:
   \   0000012C   040095E5           LDR      R0,[R5, #+4]
   \   00000130   0C70C0E5           STRB     R7,[R0, #+12]
   \   00000134   040095E5           LDR      R0,[R5, #+4]
   \   00000138   040090E5           LDR      R0,[R0, #+4]
   \   0000013C   0C60C0E5           STRB     R6,[R0, #+12]
   \   00000140   040095E5           LDR      R0,[R5, #+4]
   \   00000144   041090E5           LDR      R1,[R0, #+4]
   \   00000148   0400A0E1           MOV      R0,R4
   \   0000014C   ........           _BLF     ??_Lrotate,??_Lrotate??rA
   \   00000150   CAFFFFEA           B        ??_Insert_4
   \                     ??_Insert_7:
   \   00000154   040094E5           LDR      R0,[R4, #+4]
   \   00000158   0C70C0E5           STRB     R7,[R0, #+12]
   \   0000015C   F040BDE8           POP      {R4-R7,LR}
   \   00000160   1EFF2FE1           BX       LR               ;; return

   \                                 In segment CODE, align 4, keep-with-next
   \   __??Code32?? __code __interwork __atpcs _Tree<_Tset_traits<AlarmBasic *, less<AlarmBasic *>, allocator<AlarmBasic *>, false>>::_Pairib _Tree<_Tset_traits<AlarmBasic *, less<AlarmBasic *>, allocator<AlarmBasic *>, false>>::insert(AlarmBasic *)
   \                     ??insert:
   \   00000000   F34C2DE9           PUSH     {R0,R1,R4-R7,R10,R11,LR}
   \   00000004   0040A0E1           MOV      R4,R0
   \   00000008   0150A0E1           MOV      R5,R1
   \   0000000C   040095E5           LDR      R0,[R5, #+4]
   \   00000010   0260A0E1           MOV      R6,R2
   \   00000014   05B0A0E1           MOV      R11,R5
   \   00000018   0170A0E3           MOV      R7,#+1
   \                     ??insert_1:
   \   0000001C   0D10D0E5           LDRB     R1,[R0, #+13]
   \   00000020   000051E3           CMP      R1,#+0
   \   00000024   0700001A           BNE      ??insert_2
   \   00000028   101090E5           LDR      R1,[R0, #+16]
   \   0000002C   00B0A0E1           MOV      R11,R0
   \   00000030   010056E1           CMP      R6,R1
   \   00000034   00009035           LDRCC    R0,[R0, #+0]
   \   00000038   0170A033           MOVCC    R7,#+1
   \   0000003C   08009025           LDRCS    R0,[R0, #+8]
   \   00000040   0070A023           MOVCS    R7,#+0
   \   00000044   F4FFFFEA           B        ??insert_1
   \                     ??insert_2:
   \   00000048   0B00A0E1           MOV      R0,R11
   \   0000004C   01A0A0E3           MOV      R10,#+1
   \   00000050   000057E3           CMP      R7,#+0
   \   00000054   0B00000A           BEQ      ??insert_3
   \   00000058   001095E5           LDR      R1,[R5, #+0]
   \   0000005C   010050E1           CMP      R0,R1
   \   00000060   0700001A           BNE      ??insert_4
   \   00000064   0630A0E1           MOV      R3,R6
   \   00000068   0B20A0E1           MOV      R2,R11
   \   0000006C   0110A0E3           MOV      R1,#+1
   \                     ??insert_5:
   \   00000070   0500A0E1           MOV      R0,R5
   \   00000074   ........           _BLF     ??_Insert_1,??_Insert??rA
   \   00000078   00008DE5           STR      R0,[SP, #+0]
   \   0000007C   04A0CDE5           STRB     R10,[SP, #+4]
   \   00000080   0A0000EA           B        ??insert_6
   \                     ??insert_4:
   \   00000084   ........           _BLF     ??_DecP,??_DecP??rA
   \                     ??insert_3:
   \   00000088   101090E5           LDR      R1,[R0, #+16]
   \   0000008C   060051E1           CMP      R1,R6
   \   00000090   0300002A           BCS      ??insert_7
   \   00000094   0630A0E1           MOV      R3,R6
   \   00000098   0B20A0E1           MOV      R2,R11
   \   0000009C   0710A0E1           MOV      R1,R7
   \   000000A0   F2FFFFEA           B        ??insert_5
   \                     ??insert_7:
   \   000000A4   00008DE5           STR      R0,[SP, #+0]
   \   000000A8   0010A0E3           MOV      R1,#+0
   \   000000AC   0410CDE5           STRB     R1,[SP, #+4]
   \                     ??insert_6:
   \   000000B0   0D00A0E1           MOV      R0,SP
   \   000000B4   030090E8           LDM      R0,{R0,R1}
   \   000000B8   030084E8           STM      R4,{R0,R1}
   \   000000BC   0400A0E1           MOV      R0,R4
   \   000000C0   F64CBDE8           POP      {R1,R2,R4-R7,R10,R11,LR}
   \   000000C4   1EFF2FE1           BX       LR               ;; return

   \                                 In segment CODE, align 4, keep-with-next
   \   __??Code32?? __code __interwork __atpcs _Tree<_Tset_traits<AlarmBasic *, less<AlarmBasic *>, allocator<AlarmBasic *>, false>>::iterator _Tree<_Tset_traits<AlarmBasic *, less<AlarmBasic *>, allocator<AlarmBasic *>, false>>::_Insert(bool, _Tree<_Tset_traits<AlarmBasic *, less<AlarmBasic *>, allocator<AlarmBasic *>, false>>::_Nodeptr, AlarmBasic *)
   \                     ??_Insert_1:
   \   00000000   F0412DE9           PUSH     {R4-R8,LR}
   \   00000004   0040A0E1           MOV      R4,R0
   \   00000008   0150A0E1           MOV      R5,R1
   \   0000000C   0260A0E1           MOV      R6,R2
   \   00000010   0370A0E1           MOV      R7,R3
   \   00000014   1400A0E3           MOV      R0,#+20
   \   00000018   ........           _BLF     `??operator new`,`??operator new??rA`
   \   0000001C   0080B0E1           MOVS     R8,R0
   \   00000020   0600000A           BEQ      ??_Insert_11
   \   00000024   004088E5           STR      R4,[R8, #+0]
   \   00000028   046088E5           STR      R6,[R8, #+4]
   \   0000002C   084088E5           STR      R4,[R8, #+8]
   \   00000030   0000A0E3           MOV      R0,#+0
   \   00000034   0C00C8E5           STRB     R0,[R8, #+12]
   \   00000038   0D00C8E5           STRB     R0,[R8, #+13]
   \   0000003C   107088E5           STR      R7,[R8, #+16]
   \                     ??_Insert_11:
   \   00000040   0830A0E1           MOV      R3,R8
   \   00000044   0620A0E1           MOV      R2,R6
   \   00000048   0510A0E1           MOV      R1,R5
   \   0000004C   0400A0E1           MOV      R0,R4
   \   00000050   ........           _BLF     ??_Insert,??_Insert??rA_1
   \   00000054   0800A0E1           MOV      R0,R8
   \   00000058   F041BDE8           POP      {R4-R8,LR}
   \   0000005C   1EFF2FE1           BX       LR               ;; return

   \                                 In segment CODE, align 4, keep-with-next
   \   __??Code32?? __code __interwork __atpcs void operator+(string const &, string const &)
   \                     `??operator+`:
   \   00000000   F0402DE9           PUSH     {R4-R7,LR}
   \   00000004   1CD04DE2           SUB      SP,SP,#+28
   \   00000008   0040A0E1           MOV      R4,R0
   \   0000000C   0150A0E1           MOV      R5,R1
   \   00000010   0260A0E1           MOV      R6,R2
   \   00000014   0020A0E3           MOV      R2,#+0
   \   00000018   0010A0E3           MOV      R1,#+0
   \   0000001C   0D00A0E1           MOV      R0,SP
   \   00000020   ........           _BLF     ??_Tidy,??_Tidy??rA
   \   00000024   6C009FE5           LDR      R0,`??operator+_1`  ;; ??npos
   \   00000028   0020A0E3           MOV      R2,#+0
   \   0000002C   007090E5           LDR      R7,[R0, #+0]
   \   00000030   0510A0E1           MOV      R1,R5
   \   00000034   0730A0E1           MOV      R3,R7
   \   00000038   0D00A0E1           MOV      R0,SP
   \   0000003C   ........           _BLF     ??assign,??assign??rA
   \   00000040   0730A0E1           MOV      R3,R7
   \   00000044   0020A0E3           MOV      R2,#+0
   \   00000048   0610A0E1           MOV      R1,R6
   \   0000004C   0D00A0E1           MOV      R0,SP
   \   00000050   ........           _BLF     ??append,??append??rA
   \   00000054   0050A0E1           MOV      R5,R0
   \   00000058   0020A0E3           MOV      R2,#+0
   \   0000005C   0210A0E1           MOV      R1,R2
   \   00000060   0400A0E1           MOV      R0,R4
   \   00000064   ........           _BLF     ??_Tidy,??_Tidy??rA
   \   00000068   0730A0E1           MOV      R3,R7
   \   0000006C   0020A0E3           MOV      R2,#+0
   \   00000070   0510A0E1           MOV      R1,R5
   \   00000074   0400A0E1           MOV      R0,R4
   \   00000078   ........           _BLF     ??assign,??assign??rA
   \   0000007C   0020A0E3           MOV      R2,#+0
   \   00000080   0110A0E3           MOV      R1,#+1
   \   00000084   0D00A0E1           MOV      R0,SP
   \   00000088   ........           _BLF     ??_Tidy,??_Tidy??rA
   \   0000008C   1CD08DE2           ADD      SP,SP,#+28
   \   00000090   F040BDE8           POP      {R4-R7,LR}
   \   00000094   1EFF2FE1           BX       LR               ;; return
   \                     `??operator+_1`:
   \   00000098   ........           DC32     ??npos

   \                                 In segment CODE, align 4, keep-with-next
   \   __??Code32?? __code __interwork __atpcs AnsiString::AnsiString(AnsiString const &)
   \                     ??AnsiString:
   \   00000000   30402DE9           PUSH     {R4,R5,LR}
   \   00000004   0040A0E1           MOV      R4,R0
   \   00000008   0150A0E1           MOV      R5,R1
   \   0000000C   0020A0E3           MOV      R2,#+0
   \   00000010   0010A0E3           MOV      R1,#+0
   \   00000014   ........           _BLF     ??_Tidy,??_Tidy??rA
   \   00000018   1C009FE5           LDR      R0,??AnsiString_6  ;; ??npos
   \   0000001C   0020A0E3           MOV      R2,#+0
   \   00000020   003090E5           LDR      R3,[R0, #+0]
   \   00000024   0510A0E1           MOV      R1,R5
   \   00000028   0400A0E1           MOV      R0,R4
   \   0000002C   ........           _BLF     ??assign,??assign??rA
   \   00000030   0400A0E1           MOV      R0,R4
   \   00000034   3040BDE8           POP      {R4,R5,LR}
   \   00000038   1EFF2FE1           BX       LR               ;; return
   \                     ??AnsiString_6:
   \   0000003C   ........           DC32     ??npos
      2          #pragma hdrstop
      3          #ifdef BORLAND
      4              #pragma package(smart_init)
      5          #endif
      6          
      7          //---------------------------------------------------------------------------
      8          

   \                                 In segment CODE, align 4, keep-with-next
      9          AIPressSensor_mV::AIPressSensor_mV(int SnsType,bool IsAtmRef):AIPressSensor(IsAtmRef)
   \                     ??AIPressSensor_mV:
   \   00000000   73402DE9           PUSH     {R0,R1,R4-R6,LR}
   \   00000004   0040A0E1           MOV      R4,R0
   \   00000008   0160A0E1           MOV      R6,R1
   \   0000000C   0210A0E1           MOV      R1,R2
     10          {
   \   00000010   ........           _BLF     ??AIPressSensor,??AIPressSensor??rA
   \   00000014   D0009FE5           LDR      R0,??AIPressSensor_mV_1  ;; ??__vtbl
   \   00000018   A05084E2           ADD      R5,R4,#+160
   \   0000001C   040085E5           STR      R0,[R5, #+4]
     11              Type         = SnsType;
   \   00000020   006085E5           STR      R6,[R5, #+0]
     12              CableLength  = 0.0;
   \   00000024   0010A0E3           MOV      R1,#+0
   \   00000028   281185E5           STR      R1,[R5, #+296]
   \   0000002C   7B0F84E2           ADD      R0,R4,#+492
   \   00000030   0060A0E3           MOV      R6,#+0
   \   00000034   B060C0E1           STRH     R6,[R0, #+0]
     13              NL1          = 0.0;
     14              NL2          = 0.0;
   \   00000038   B260C0E1           STRH     R6,[R0, #+2]
     15              EEPromGain   = 1.0;
   \   0000003C   FE25A0E3           MOV      R2,#+1065353216
   \   00000040   042080E5           STR      R2,[R0, #+4]
     16              EEPromOffset = 0.0;
   \   00000044   081080E5           STR      R1,[R0, #+8]
     17              for ( int ind=0; ind<MAX_MV_CALDATA; ind++ ) {
     18                  FRO[ind]    = 0;
   \                     ??AIPressSensor_mV_2:
   \   00000048   812084E0           ADD      R2,R4,R1, LSL #+1
   \   0000004C   732F82E2           ADD      R2,R2,#+460
   \   00000050   B060C2E1           STRH     R6,[R2, #+0]
     19                  G1[ind]     = 0;
   \   00000054   B860C2E1           STRH     R6,[R2, #+8]
     20                  G2[ind]     = 0;
   \   00000058   B061C2E1           STRH     R6,[R2, #+16]
     21                  G3[ind]     = 0;
   \   0000005C   B861C2E1           STRH     R6,[R2, #+24]
     22              }
   \   00000060   011081E2           ADD      R1,R1,#+1
   \   00000064   040051E3           CMP      R1,#+4
   \   00000068   F6FFFFBA           BLT      ??AIPressSensor_mV_2
     23              ADConfigData.CalError     = false;
   \   0000006C   0C1090E5           LDR      R1,[R0, #+12]
   \   00000070   0210C1E3           BIC      R1,R1,#0x2
   \   00000074   0C1080E5           STR      R1,[R0, #+12]
     24              ADConfigData.ConvError    = false;
   \   00000078   0110C1E3           BIC      R1,R1,#0x1
   \   0000007C   0C1080E5           STR      R1,[R0, #+12]
     25              ADConfigData.EEP_PCStatus = AD_EEPROM_OK;
   \   00000080   701EC1E3           BIC      R1,R1,#0x700
   \   00000084   401F81E3           ORR      R1,R1,#0x100
   \   00000088   0C1080E5           STR      R1,[R0, #+12]
     26              ADConfigData.EEPromStatus = AD_EEPROM_OK;
   \   0000008C   F01CC1E3           BIC      R1,R1,#0xF000
   \   00000090   401D81E3           ORR      R1,R1,#0x1000
   \   00000094   0C1080E5           STR      R1,[R0, #+12]
     27              ADConfigData.EEPUsePCData = false;
   \   00000098   801EC1E3           BIC      R1,R1,#0x800
   \   0000009C   0C1080E5           STR      R1,[R0, #+12]
     28              ADConfigData.FoundSensor  = AD_NO_SNS;
   \   000000A0   6010C1E3           BIC      R1,R1,#0x60
   \   000000A4   0C1080E5           STR      R1,[R0, #+12]
     29              ADConfigData.NewSensor    = false;
   \   000000A8   8010C1E3           BIC      R1,R1,#0x80
   \   000000AC   0C1080E5           STR      R1,[R0, #+12]
     30              ADConfigData.PCSensor     = AD_NO_SNS;
   \   000000B0   0C10C1E3           BIC      R1,R1,#0xC
   \   000000B4   0C1080E5           STR      R1,[R0, #+12]
     31              ADConfigData.UsePCSetUp   = false;
   \   000000B8   1010C1E3           BIC      R1,R1,#0x10
   \   000000BC   0C1080E5           STR      R1,[R0, #+12]
     32          
     33              AlarmSensorConCalError *SnsHWErrAlPtr = new AlarmSensorConCalError( this,&ADConfigData);
   \   000000C0   7E1F84E2           ADD      R1,R4,#+504
   \   000000C4   0400A0E1           MOV      R0,R4
   \   000000C8   ........           _BLF     `??new AlarmSensorConCalError`,`??new AlarmSensorConCalError??rA`
     34              AlarmSet.insert(SnsHWErrAlPtr);
   \   000000CC   0020A0E1           MOV      R2,R0
   \   000000D0   C01084E2           ADD      R1,R4,#+192
   \   000000D4   0D00A0E1           MOV      R0,SP
   \   000000D8   ........           _BLF     ??insert,??insert??rA
     35              tmpSnsPtr = NULL;
   \   000000DC   206185E5           STR      R6,[R5, #+288]
     36          
     37          }
   \   000000E0   0400A0E1           MOV      R0,R4
   \   000000E4   7640BDE8           POP      {R1,R2,R4-R6,LR}
   \   000000E8   1EFF2FE1           BX       LR               ;; return
   \                     ??AIPressSensor_mV_1:
   \   000000EC   ........           DC32     ??__vtbl
     38          //---------------------------------------------------------------------------
     39          

   \                                 In segment CODE, align 4, keep-with-next
     40          AIPressSensor_mV::~AIPressSensor_mV(void)
     41          {
   \                     `?~AIPressSensor_mV`:
   \   00000000   30402DE9           PUSH     {R4,R5,LR}
   \   00000004   0040A0E1           MOV      R4,R0
   \   00000008   0150A0E1           MOV      R5,R1
   \   0000000C   000054E3           CMP      R4,#+0
   \   00000010   0500000A           BEQ      `?~AIPressSensor_mV_1`
     42          }
   \   00000014   0010A0E3           MOV      R1,#+0
   \   00000018   ........           _BLF     `?~AIPressSensor`,`?~AIPressSensor??rA`
   \   0000001C   010015E3           TST      R5,#0x1
   \   00000020   0100000A           BEQ      `?~AIPressSensor_mV_1`
   \   00000024   0400A0E1           MOV      R0,R4
   \   00000028   ........           _BLF     `??operator delete`,`??operator delete??rA`
   \                     `?~AIPressSensor_mV_1`:
   \   0000002C                      REQUIRE ?Subroutine16
   \   0000002C                      ;; // Fall through to label ?Subroutine16

   \                                 In segment CODE, align 4, keep-with-next
   \                     ?Subroutine16:
   \   00000000   3040BDE8           POP      {R4,R5,LR}
   \   00000004   1EFF2FE1           BX       LR               ;; return
     43          //---------------------------------------------------------------------------
     44          
     45          //////////////////////////////////////////////////////////////////
     46          //
     47          // Sensor calculations
     48          //
     49          //////////////////////////////////////////////////////////////////

   \                                 In segment CODE, align 4, keep-with-next
     50          float AIPressSensor_mV::Calculate(void)
     51          {
   \                     ??Calculate:
   \   00000000   F0402DE9           PUSH     {R4-R7,LR}
   \   00000004   0060A0E1           MOV      R6,R0
     52              if ( CanCalculate() ) {
   \   00000008   527FA0E3           MOV      R7,#+328
   \   0000000C   ........           _BLF     ??CanCalculate,??CanCalculate??rA
   \   00000010   000050E3           CMP      R0,#+0
   \   00000014   3900000A           BEQ      ??Calculate_1
     53                  float Val = Gain*(FilteredValue-NORMAL_ATM)+NORMAL_ATM-AtmPressure-Offset;
   \   00000018   440196E5           LDR      R0,[R6, #+324]
   \   0000001C   ........           _BLF     __floatToDouble,??__floatToDouble??rA
   \   00000020   E0209FE5           LDR      R2,??Calculate_2  ;; 0xffffffffbf0f2b0c
   \   00000024   E0309FE5           LDR      R3,??Calculate_2+0x4  ;; 0xffffffffc024a8d1
   \   00000028   ........           _BLF     __dAdd,??__dAdd??rA
   \   0000002C   0040A0E1           MOV      R4,R0
   \   00000030   3C0196E5           LDR      R0,[R6, #+316]
   \   00000034   0150A0E1           MOV      R5,R1
   \   00000038   ........           _BLF     __floatToDouble,??__floatToDouble??rA
   \   0000003C   0420A0E1           MOV      R2,R4
   \   00000040   0530A0E1           MOV      R3,R5
   \   00000044   ........           _BLF     __dMul,??__dMul??rA
   \   00000048   B8209FE5           LDR      R2,??Calculate_2  ;; 0xffffffffbf0f2b0c
   \   0000004C   BC309FE5           LDR      R3,??Calculate_2+0x8  ;; 0x4024a8d1
   \   00000050   ........           _BLF     __dAdd,??__dAdd??rA
   \   00000054   0040A0E1           MOV      R4,R0
   \   00000058   B4009FE5           LDR      R0,??Calculate_2+0xC  ;; ??AtmPressure
   \   0000005C   0150A0E1           MOV      R5,R1
   \   00000060   000090E5           LDR      R0,[R0, #+0]
   \   00000064   ........           _BLF     __floatToDouble,??__floatToDouble??rA
   \   00000068   0020A0E1           MOV      R2,R0
   \   0000006C   0130A0E1           MOV      R3,R1
   \   00000070   0400A0E1           MOV      R0,R4
   \   00000074   0510A0E1           MOV      R1,R5
   \   00000078   ........           _BLF     __dSub,??__dSub??rA
   \   0000007C   0040A0E1           MOV      R4,R0
   \   00000080   400196E5           LDR      R0,[R6, #+320]
   \   00000084   0150A0E1           MOV      R5,R1
   \   00000088   ........           _BLF     __floatToDouble,??__floatToDouble??rA
   \   0000008C   0020A0E1           MOV      R2,R0
   \   00000090   0130A0E1           MOV      R3,R1
   \   00000094   0400A0E1           MOV      R0,R4
   \   00000098   0510A0E1           MOV      R1,R5
   \   0000009C   ........           _BLF     __dSub,??__dSub??rA
   \   000000A0   ........           _BLF     __doubleToFloat,??__doubleToFloat??rA
   \   000000A4   0040A0E1           MOV      R4,R0
     54                  switch ( Location ) {
   \   000000A8   280196E5           LDR      R0,[R6, #+296]
   \   000000AC   DF10A0E3           MOV      R1,#+223
   \   000000B0   801E81E3           ORR      R1,R1,#0x800
   \   000000B4   010050E1           CMP      R0,R1
   \   000000B8   8E0E5013           CMPNE    R0,#+2272
   \   000000BC   02108112           ADDNE    R1,R1,#+2
   \   000000C0   01005011           CMPNE    R0,R1
   \   000000C4   4E108112           ADDNE    R1,R1,#+78
   \   000000C8   01005011           CMPNE    R0,R1
   \   000000CC   930E5013           CMPNE    R0,#+2352
   \   000000D0   02108112           ADDNE    R1,R1,#+2
   \   000000D4   01005011           CMPNE    R0,R1
   \   000000D8   0500001A           BNE      ??Calculate_3
     55                  case C_AI_LOC_REDUNDANCY1   :
     56                  case C_AI_LOC_REDUNDANCY2   :
     57                  case C_AI_LOC_REDUNDANCY3   :
     58                  case C_AI_LOC_BOTTOM        :
     59                  case C_AI_LOC_MIDDLE        :
     60                  case C_AI_LOC_UPPER         :
     61                      Val -= CalcRefPressure();
   \   000000DC   0600A0E1           MOV      R0,R6
   \   000000E0   ........           _BLF     ??CalcRefPressure,??CalcRefPressure??rA
   \   000000E4   0010A0E1           MOV      R1,R0
   \   000000E8   0400A0E1           MOV      R0,R4
   \   000000EC   ........           _BLF     __fSub,??__fSub??rA
   \   000000F0   0040A0E1           MOV      R4,R0
     62                      break;
     63                  default:
     64                      break;
     65          
     66                  }
     67                  CalcValue = Val;
   \                     ??Calculate_3:
   \   000000F4   064087E7           STR      R4,[R7, +R6]
     68                  ResultOK  = true;
   \   000000F8   0100A0E3           MOV      R0,#+1
   \   000000FC   3601C6E5           STRB     R0,[R6, #+310]
     69              }
     70              return(CalcValue);
   \                     ??Calculate_1:
   \   00000100   060097E7           LDR      R0,[R7, +R6]
   \   00000104   ........           B        ?Subroutine17
   \                     ??Calculate_2:
   \   00000108   0C2B0FBF           DC32     0xffffffffbf0f2b0c
   \   0000010C   D1A824C0           DC32     0xffffffffc024a8d1
   \   00000110   D1A82440           DC32     0x4024a8d1
   \   00000114   ........           DC32     ??AtmPressure
     71          
     72          }

   \                                 In segment CODE, align 4, keep-with-next
   \                     ?Subroutine17:
   \   00000000   F040BDE8           POP      {R4-R7,LR}
   \   00000004   1EFF2FE1           BX       LR               ;; return
   \                     ??Subroutine17_0:
   \   00000008   53300000           DC8      "S0",+0
   \   0000000C   53000000           DC8      "S",+0,+0
     73          
     74          
     75          ///////////////////////////////////////////////////////////////
     76          //
     77          // Routines for the librarian for input
     78          //
     79          ///////////////////////////////////////////////////////////////
     80          
     81          

   \                                 In segment CODE, align 4, keep-with-next
     82          int AIPressSensor_mV::PutValue( int ValueId, int Index, AnsiString NewValue,bool Local, int *UnitId)
     83          {
   \                     ??PutValue:
   \   00000000   F0472DE9           PUSH     {R4-R10,LR}
   \   00000004   40D04DE2           SUB      SP,SP,#+64
   \   00000008   60A0DDE5           LDRB     R10,[SP, #+96]
   \   0000000C   64509DE5           LDR      R5,[SP, #+100]
   \   00000010   0040A0E1           MOV      R4,R0
   \   00000014   0180A0E1           MOV      R8,R1
   \   00000018   0290A0E1           MOV      R9,R2
   \   0000001C   0310A0E1           MOV      R1,R3
     84              int Status = E_NO_ERR, ValUnitId = NO_UNIT;
   \   00000020   0020A0E3           MOV      R2,#+0
   \   00000024   00208DE5           STR      R2,[SP, #+0]
   \   00000028   04208DE5           STR      R2,[SP, #+4]
     85              switch ( ValueId ) {
   \   0000002C   A46084E2           ADD      R6,R4,#+164
   \   00000030   7B7F84E2           ADD      R7,R4,#+492
   \   00000034   C10048E2           SUB      R0,R8,#+193
   \   00000038   400E40E2           SUB      R0,R0,#+1024
   \   0000003C   080050E3           CMP      R0,#+8
   \   00000040   6100008A           BHI      ??PutValue_4
   \   00000044   012F8FE2           ADR      R2,??PutValue_1
   \   00000048   0020D2E7           LDRB     R2,[R2, R0]
   \   0000004C   02F18FE0           ADD      PC,PC,R2, LSL #+2
   \                     ??PutValue_1:
   \   00000050   455E5E02           DC8      +69,+94,+94,+2
   \   00000054   02020227           DC8      +2,+2,+2,+39
   \   00000058   36000000           DC8      +54,+0,+0,+0
     86              case SVT_AI_CAL_DATA_FRO    :
     87              case SVT_AI_CAL_DATA_G1     :
     88              case SVT_AI_CAL_DATA_G2     :
     89              case SVT_AI_CAL_DATA_G3     :
     90                  if (Index >= 0 && Index < MAX_MV_CALDATA ) {
   \                     ??PutValue_5:
   \   0000005C   000059E3           CMP      R9,#+0
   \   00000060   6C00004A           BMI      ??PutValue_6
   \   00000064   040059E3           CMP      R9,#+4
   \   00000068   6A0000AA           BGE      ??PutValue_6
     91                      int Value = GetInt(NewValue, Status);
   \   0000006C   08008DE2           ADD      R0,SP,#+8
   \   00000070   ........           _BLF     ??AnsiString,??AnsiString??rA
   \   00000074   0D10A0E1           MOV      R1,SP
   \   00000078   ........           _BLF     ??GetInt,??GetInt??rA
   \   0000007C   0070A0E1           MOV      R7,R0
   \   00000080   0020A0E3           MOV      R2,#+0
   \   00000084   0110A0E3           MOV      R1,#+1
   \   00000088   08008DE2           ADD      R0,SP,#+8
   \   0000008C   ........           _BLF     ??_Tidy,??_Tidy??rA
     92                      if ( Status== E_NO_ERR ) {
   \   00000090   00009DE5           LDR      R0,[SP, #+0]
   \   00000094   000050E3           CMP      R0,#+0
   \   00000098   5B00001A           BNE      ??PutValue_7
     93                          switch ( ValueId ) {
   \   0000009C   890084E0           ADD      R0,R4,R9, LSL #+1
   \   000000A0   730F80E2           ADD      R0,R0,#+460
   \   000000A4   C48048E2           SUB      R8,R8,#+196
   \   000000A8   408E48E2           SUB      R8,R8,#+1024
   \   000000AC   030058E3           CMP      R8,#+3
   \   000000B0   0A00008A           BHI      ??PutValue_8
   \   000000B4   011F8FE2           ADR      R1,??PutValue_2
   \   000000B8   0810D1E7           LDRB     R1,[R1, R8]
   \   000000BC   01F18FE0           ADD      PC,PC,R1, LSL #+2
   \                     ??PutValue_2:
   \   000000C0   00020406           DC8      +0,+2,+4,+6
     94                          case SVT_AI_CAL_DATA_FRO:
     95                              FRO[Index] = Value;
   \                     ??PutValue_9:
   \   000000C4   B070C0E1           STRH     R7,[R0, #+0]
   \   000000C8   040000EA           B        ??PutValue_8
     96                              break;
     97                          case SVT_AI_CAL_DATA_G1 :
     98                              G1[Index] = Value;
   \                     ??PutValue_10:
   \   000000CC   B870C0E1           STRH     R7,[R0, #+8]
   \   000000D0   020000EA           B        ??PutValue_8
     99                              break;
    100                          case SVT_AI_CAL_DATA_G2 :
    101                              G2[Index] = Value;
   \                     ??PutValue_11:
   \   000000D4   B071C0E1           STRH     R7,[R0, #+16]
   \   000000D8   000000EA           B        ??PutValue_8
    102                              break;
    103                          case SVT_AI_CAL_DATA_G3 :
    104                              G3[Index] = Value;
   \                     ??PutValue_12:
   \   000000DC   B871C0E1           STRH     R7,[R0, #+24]
    105                              break;
    106                          }
    107                          TimeModified = time(NULL);
   \                     ??PutValue_8:
   \   000000E0   0000A0E3           MOV      R0,#+0
   \                     ??PutValue_13:
   \   000000E4   ........           _BLF     time,??time??rA
   \   000000E8   AC0086E5           STR      R0,[R6, #+172]
   \   000000EC   460000EA           B        ??PutValue_7
    108                      }
    109                  }
    110                  break;
    111              case SVT_AI_CAL_DATA_NL1:
    112                  {
    113                      short Value = GetInt(NewValue, Status);
   \                     ??PutValue_14:
   \   000000F0   08008DE2           ADD      R0,SP,#+8
   \   000000F4   ........           _BLF     ??AnsiString,??AnsiString??rA
   \   000000F8   0D10A0E1           MOV      R1,SP
   \   000000FC   ........           _BLF     ??GetInt,??GetInt??rA
   \   00000100   0088A0E1           MOV      R8,R0, LSL #+16
   \   00000104   0020A0E3           MOV      R2,#+0
   \   00000108   0110A0E3           MOV      R1,#+1
   \   0000010C   08008DE2           ADD      R0,SP,#+8
   \   00000110   ........           _BLF     ??_Tidy,??_Tidy??rA
    114                      if ( Status== E_NO_ERR ) {
   \   00000114   00009DE5           LDR      R0,[SP, #+0]
   \   00000118   4888A0E1           MOV      R8,R8, ASR #+16
   \   0000011C   000050E3           CMP      R0,#+0
   \   00000120   3900001A           BNE      ??PutValue_7
    115                          NL1             = Value;
   \   00000124   B080C7E1           STRH     R8,[R7, #+0]
    116                          TimeModified    = time(NULL);
   \   00000128   EDFFFFEA           B        ??PutValue_13
    117                      }
    118                  }
    119                  break;
    120              case SVT_AI_CAL_DATA_NL2:
    121                  {
    122                      short Value = GetInt(NewValue, Status);
   \                     ??PutValue_15:
   \   0000012C   08008DE2           ADD      R0,SP,#+8
   \   00000130   ........           _BLF     ??AnsiString,??AnsiString??rA
   \   00000134   0D10A0E1           MOV      R1,SP
   \   00000138   ........           _BLF     ??GetInt,??GetInt??rA
   \   0000013C   0088A0E1           MOV      R8,R0, LSL #+16
   \   00000140   0020A0E3           MOV      R2,#+0
   \   00000144   0110A0E3           MOV      R1,#+1
   \   00000148   08008DE2           ADD      R0,SP,#+8
   \   0000014C   ........           _BLF     ??_Tidy,??_Tidy??rA
    123                      if ( Status== E_NO_ERR ) {
   \   00000150   00009DE5           LDR      R0,[SP, #+0]
   \   00000154   4888A0E1           MOV      R8,R8, ASR #+16
   \   00000158   000050E3           CMP      R0,#+0
   \   0000015C   2A00001A           BNE      ??PutValue_7
    124                          NL2             = Value;
   \   00000160   B280C7E1           STRH     R8,[R7, #+2]
    125                          TimeModified    = time(NULL);
   \   00000164   DEFFFFEA           B        ??PutValue_13
    126                      }
    127                  }
    128                  break;
    129              case SVT_AI_CABLE_LENGTH:
    130                  {
    131                       float Value =ConvertToSi(NewValue, LENGTH_UNIT, Status,0.0 ,100.0);
   \                     ??PutValue_16:
   \   00000168   08008DE2           ADD      R0,SP,#+8
   \   0000016C   ........           _BLF     ??AnsiString,??AnsiString??rA
   \   00000170   0020A0E3           MOV      R2,#+0
   \   00000174   0030A0E3           MOV      R3,#+0
   \   00000178   0C002DE9           PUSH     {R2,R3}
   \   0000017C   4034A0E3           MOV      R3,#+1073741824
   \   00000180   593883E3           ORR      R3,R3,#0x590000
   \   00000184   0C002DE9           PUSH     {R2,R3}
   \   00000188   0230A0E1           MOV      R3,R2
   \   0000018C   0C002DE9           PUSH     {R2,R3}
   \   00000190   18208DE2           ADD      R2,SP,#+24
   \   00000194   0800BDE8           POP      {R3}
   \   00000198   0110A0E3           MOV      R1,#+1
   \   0000019C   ........           _BLF     ??ConvertToSi,??ConvertToSi??rA
   \   000001A0   0070A0E1           MOV      R7,R0
   \   000001A4   0020A0E3           MOV      R2,#+0
   \   000001A8   0110A0E3           MOV      R1,#+1
   \   000001AC   1C008DE2           ADD      R0,SP,#+28
   \   000001B0   ........           _BLF     ??_Tidy,??_Tidy??rA
    132                       if ( Status== E_NO_ERR ) {
   \   000001B4   14009DE5           LDR      R0,[SP, #+20]
   \   000001B8   14D08DE2           ADD      SP,SP,#+20
   \   000001BC   000050E3           CMP      R0,#+0
   \   000001C0   1100001A           BNE      ??PutValue_7
    133                           CableLength = Value;
   \   000001C4   247186E5           STR      R7,[R6, #+292]
    134                           TimeModified       = time(NULL);
   \   000001C8   C4FFFFEA           B        ??PutValue_8
    135                       }
    136                   }
    137                  break;
    138              case SVT_AI_OFFSET   :
    139              case SVT_AI_CALC_VAL :
    140              default:
    141                  Status = AIPressSensor::PutValue(ValueId, Index,NewValue,Local,&ValUnitId);
   \                     ??PutValue_4:
   \   000001CC   24008DE2           ADD      R0,SP,#+36
   \   000001D0   ........           _BLF     ??AnsiString,??AnsiString??rA
   \   000001D4   0030A0E1           MOV      R3,R0
   \   000001D8   04008DE2           ADD      R0,SP,#+4
   \   000001DC   01002DE9           PUSH     {R0}
   \   000001E0   00042DE9           PUSH     {R10}
   \   000001E4   0920A0E1           MOV      R2,R9
   \   000001E8   0810A0E1           MOV      R1,R8
   \   000001EC   0400A0E1           MOV      R0,R4
   \   000001F0   ........           _BLF     ??PutValue_3,??PutValue??rA
   \   000001F4   08008DE5           STR      R0,[SP, #+8]
   \   000001F8   0020A0E3           MOV      R2,#+0
   \   000001FC   0110A0E3           MOV      R1,#+1
   \   00000200   2C008DE2           ADD      R0,SP,#+44
   \   00000204   ........           _BLF     ??_Tidy,??_Tidy??rA
   \   00000208   08D08DE2           ADD      SP,SP,#+8
    142                  break;
    143              }
    144              if ( Status==E_NO_ERR ) {
   \                     ??PutValue_7:
   \   0000020C   00009DE5           LDR      R0,[SP, #+0]
   \   00000210   000050E3           CMP      R0,#+0
   \   00000214   0400001A           BNE      ??PutValue_17
    145                  SetModifiedFlag();
   \                     ??PutValue_6:
   \   00000218   001096E5           LDR      R1,[R6, #+0]
   \   0000021C   0400A0E1           MOV      R0,R4
   \   00000220   541091E5           LDR      R1,[R1, #+84]
   \   00000224   0FE0A0E1           MOV      LR,PC
   \   00000228   11FF2FE1           BX       R1
    146              }
    147              if ( UnitId ) {
   \                     ??PutValue_17:
   \   0000022C   000055E3           CMP      R5,#+0
    148                  *UnitId = ValUnitId;
   \   00000230   04009D15           LDRNE    R0,[SP, #+4]
   \   00000234   00008515           STRNE    R0,[R5, #+0]
    149              }
    150              return(Status);
   \   00000238   00009DE5           LDR      R0,[SP, #+0]
   \   0000023C   40D08DE2           ADD      SP,SP,#+64
   \   00000240   F047BDE8           POP      {R4-R10,LR}
   \   00000244   1EFF2FE1           BX       LR               ;; return
    151          }
    152          

   \                                 In segment CODE, align 4, keep-with-next
    153          int  AIPressSensor_mV::GetValue(int ValueId, int Index, float &MyRetValue, int &DecPnt, int &Unit)
    154          {
   \                     ??GetValue:
   \   00000000   F0432DE9           PUSH     {R4-R9,LR}
   \   00000004   1C509DE5           LDR      R5,[SP, #+28]
   \   00000008   20609DE5           LDR      R6,[SP, #+32]
   \   0000000C   0340A0E1           MOV      R4,R3
    155              int Status = GETVAL_NO_ERR;
   \   00000010   0070A0E3           MOV      R7,#+0
    156              switch ( ValueId ) {
   \   00000014   823080E0           ADD      R3,R0,R2, LSL #+1
   \   00000018   733F83E2           ADD      R3,R3,#+460
   \   0000001C   72CF80E2           ADD      R12,R0,#+456
   \   00000020   0080A0E3           MOV      R8,#+0
   \   00000024   C1E041E2           SUB      LR,R1,#+193
   \   00000028   40EE4EE2           SUB      LR,LR,#+1024
   \   0000002C   08005EE3           CMP      LR,#+8
   \   00000030   1C00008A           BHI      ??GetValue_3
   \   00000034   019F8FE2           ADR      R9,??GetValue_1
   \   00000038   0E90D9E7           LDRB     R9,[R9, LR]
   \   0000003C   09F18FE0           ADD      PC,PC,R9, LSL #+2
   \                     ??GetValue_1:
   \   00000040   12191902           DC8      +18,+25,+25,+2
   \   00000044   080A0C0E           DC8      +8,+10,+12,+14
   \   00000048   10000000           DC8      +16,+0,+0,+0
    157              case SVT_AI_CAL_DATA_FRO:
    158                  MyRetValue = FRO[Index];
   \                     ??GetValue_4:
   \   0000004C   F000D3E1           LDRSH    R0,[R3, #+0]
   \                     ??GetValue_5:
   \   00000050   ........           _BLF     __longToFloat,??__longToFloat??rA
   \   00000054   000084E5           STR      R0,[R4, #+0]
    159                  Unit       = NO_UNIT;
   \   00000058   008086E5           STR      R8,[R6, #+0]
    160                  DecPnt     = 0;
   \   0000005C   008085E5           STR      R8,[R5, #+0]
   \   00000060   160000EA           B        ??GetValue_6
    161                  break;
    162              case SVT_AI_CAL_DATA_G1 :
    163                  MyRetValue = G1[Index];
   \                     ??GetValue_7:
   \   00000064   F800D3E1           LDRSH    R0,[R3, #+8]
   \   00000068   F8FFFFEA           B        ??GetValue_5
    164                  Unit       = NO_UNIT;
    165                  DecPnt     = 0;
    166                  break;
    167              case SVT_AI_CAL_DATA_G2 :
    168                  MyRetValue = G2[Index];
   \                     ??GetValue_8:
   \   0000006C   F001D3E1           LDRSH    R0,[R3, #+16]
   \   00000070   F6FFFFEA           B        ??GetValue_5
    169                  Unit       = NO_UNIT;
    170                  DecPnt     = 0;
    171                  break;
    172              case SVT_AI_CAL_DATA_G3 :
    173                  MyRetValue = G3[Index];
   \                     ??GetValue_9:
   \   00000074   F801D3E1           LDRSH    R0,[R3, #+24]
   \   00000078   F4FFFFEA           B        ??GetValue_5
    174                  Unit       = NO_UNIT;
    175                  DecPnt     = 0;
    176                  break;
    177              case SVT_AI_CAL_DATA_NL1:
    178                  MyRetValue = NL1;
   \                     ??GetValue_10:
   \   0000007C   F402DCE1           LDRSH    R0,[R12, #+36]
   \   00000080   F2FFFFEA           B        ??GetValue_5
    179                  Unit       = NO_UNIT;
    180                  DecPnt     = 0;
    181                  break;
    182              case SVT_AI_CAL_DATA_NL2:
    183                  MyRetValue = NL2;
   \                     ??GetValue_11:
   \   00000084   F602DCE1           LDRSH    R0,[R12, #+38]
   \   00000088   F0FFFFEA           B        ??GetValue_5
    184                  Unit       = NO_UNIT;
    185                  DecPnt     = 0;
    186                  break;
    187              case SVT_AI_CABLE_LENGTH:
    188                  MyRetValue = CableLength;
   \                     ??GetValue_12:
   \   0000008C   00009CE5           LDR      R0,[R12, #+0]
   \   00000090   000084E5           STR      R0,[R4, #+0]
    189                  DecPnt     = 2;
   \   00000094   0200A0E3           MOV      R0,#+2
   \   00000098   000085E5           STR      R0,[R5, #+0]
    190                  Unit       = LENGTH_UNIT;
   \   0000009C   0100A0E3           MOV      R0,#+1
   \   000000A0   000086E5           STR      R0,[R6, #+0]
   \   000000A4   050000EA           B        ??GetValue_6
    191                  break;
    192              case SVT_AI_OFFSET      :
    193              case SVT_AI_CALC_VAL    :
    194              default:
    195                  Status = AIPressSensor::GetValue(ValueId, Index, MyRetValue, DecPnt, Unit);
   \                     ??GetValue_3:
   \   000000A8   40002DE9           PUSH     {R6}
   \   000000AC   20002DE9           PUSH     {R5}
   \   000000B0   0430A0E1           MOV      R3,R4
   \   000000B4   ........           _BLF     ??GetValue_2,??GetValue??rA
   \   000000B8   0070A0E1           MOV      R7,R0
   \   000000BC   08D08DE2           ADD      SP,SP,#+8
    196                  break;
    197              }
    198              return(Status);
   \                     ??GetValue_6:
   \   000000C0   0700A0E1           MOV      R0,R7
   \   000000C4   ........           B        ?Subroutine18
    199          }

   \                                 In segment CODE, align 4, keep-with-next
   \                     ?Subroutine18:
   \   00000000   F043BDE8           POP      {R4-R9,LR}
   \   00000004   1EFF2FE1           BX       LR               ;; return
   \                     ??Subroutine18_0:
   \   00000008   ........           DC32     SizeofStatusText
   \   0000000C   ........           DC32     ??ADSensorType
   \   00000010   ........           DC32     StatusText
   \   00000014   ........           DC32     ??EEPromInfo
   \   00000018   ........           DC32     `?<Constant {&"0%", &"40%", &"60%", &"100%"}>`
    200          

   \                                 In segment CODE, align 4, keep-with-next
    201          int AIPressSensor_mV::GetStringValue(int ValueId, int Index, AnsiString &MyString)
    202          {
   \                     ??GetStringValue:
   \   00000000   01C0A0E1           MOV      R12,R1
    203              int Status = GETVAL_NO_ERR;
    204              switch ( ValueId ) {
   \   00000004   ........           LDR      R1,??Subroutine18_0  ;; SizeofStatusText
   \   00000008   F0432DE9           PUSH     {R4-R9,LR}
   \   0000000C   ........           LDR      LR,??Subroutine18_0+0x4  ;; ??ADSensorType
   \   00000010   4ADF4DE2           SUB      SP,SP,#+296
   \   00000014   F87190E5           LDR      R7,[R0, #+504]
   \   00000018   0240A0E1           MOV      R4,R2
   \   0000001C   002091E5           LDR      R2,[R1, #+0]
   \   00000020   ........           LDR      R1,??Subroutine18_0+0x8  ;; StatusText
   \   00000024   0350A0E1           MOV      R5,R3
   \   00000028   ........           LDR      R3,??Subroutine18_0+0xC  ;; ??EEPromInfo
   \   0000002C   0060A0E3           MOV      R6,#+0
   \   00000030   CE90A0E3           MOV      R9,#+206
   \   00000034   409E89E3           ORR      R9,R9,#0x400
   \   00000038   09005CE1           CMP      R12,R9
   \   0000003C   D400000A           BEQ      ??GetStringValue_2
   \   00000040   0290A0E3           MOV      R9,#+2
   \   00000044   489D89E3           ORR      R9,R9,#0x1200
   \   00000048   09005CE1           CMP      R12,R9
   \   0000004C   1B00000A           BEQ      ??GetStringValue_3
   \   00000050   019089E3           ORR      R9,R9,#0x1
   \   00000054   09005CE1           CMP      R12,R9
   \   00000058   5100000A           BEQ      ??GetStringValue_4
   \   0000005C   019089E2           ADD      R9,R9,#+1
   \   00000060   09005CE1           CMP      R12,R9
   \   00000064   2600000A           BEQ      ??GetStringValue_5
   \   00000068   019089E3           ORR      R9,R9,#0x1
   \   0000006C   09005CE1           CMP      R12,R9
   \   00000070   A800000A           BEQ      ??GetStringValue_6
   \   00000074   019089E2           ADD      R9,R9,#+1
   \   00000078   09005CE1           CMP      R12,R9
   \   0000007C   8600000A           BEQ      ??GetStringValue_7
   \   00000080   019089E3           ORR      R9,R9,#0x1
   \   00000084   09005CE1           CMP      R12,R9
   \   00000088   9300000A           BEQ      ??GetStringValue_8
   \   0000008C   019089E2           ADD      R9,R9,#+1
   \   00000090   09005CE1           CMP      R12,R9
   \   00000094   AE00000A           BEQ      ??GetStringValue_9
   \   00000098   019089E3           ORR      R9,R9,#0x1
   \   0000009C   09005CE1           CMP      R12,R9
   \   000000A0   6D00000A           BEQ      ??GetStringValue_10
   \   000000A4   019089E2           ADD      R9,R9,#+1
   \   000000A8   09005CE1           CMP      R12,R9
   \   000000AC   5B00000A           BEQ      ??GetStringValue_11
   \   000000B0   019089E3           ORR      R9,R9,#0x1
   \   000000B4   09005CE1           CMP      R12,R9
   \   000000B8   4900000A           BEQ      ??GetStringValue_12
   \   000000BC   D40000EA           B        ??GetStringValue_13
    205              case SVT_IO_CH_CONV_ERROR   :
    206                  MyString = LibGetText(StatusText,SizeofStatusText,ST_TXT_ERROR_STAT,ADConfigData.ConvError);
   \                     ??GetStringValue_3:
   \   000000C0   010007E2           AND      R0,R7,#0x1
   \   000000C4   01002DE9           PUSH     {R0}
   \   000000C8   0730A0E3           MOV      R3,#+7
   \   000000CC   30008DE2           ADD      R0,SP,#+48
   \   000000D0   ........           _BLF     ??LibGetText,??LibGetText??rA
   \   000000D4   ........           LDR      R0,??DataTable13  ;; ??npos
   \   000000D8   0020A0E3           MOV      R2,#+0
   \   000000DC   003090E5           LDR      R3,[R0, #+0]
   \   000000E0   30108DE2           ADD      R1,SP,#+48
   \   000000E4   0500A0E1           MOV      R0,R5
   \   000000E8   ........           _BLF     ??assign,??assign??rA
   \   000000EC   0620A0E1           MOV      R2,R6
   \   000000F0   0110A0E3           MOV      R1,#+1
   \   000000F4   30008DE2           ADD      R0,SP,#+48
   \                     ??GetStringValue_14:
   \   000000F8   ........           _BLF     ??_Tidy,??_Tidy??rA
   \   000000FC   04D08DE2           ADD      SP,SP,#+4
   \   00000100   C80000EA           B        ??GetStringValue_15
    207                  break;
    208              case SVT_IO_CH_CNV_CAL_ERROR:
    209                  if ( ADConfigData.ConvError && ADConfigData.CalError ) {
   \                     ??GetStringValue_5:
   \   00000104   010017E3           TST      R7,#0x1
   \   00000108   02001713           TSTNE    R7,#0x2
   \   0000010C   0D00000A           BEQ      ??GetStringValue_16
    210                      MyString = FindDictionaryWord(L_WORD624);//CnvCal
   \   00000110   9C1FA0E3           MOV      R1,#+624
   \                     ??GetStringValue_17:
   \   00000114   0D00A0E1           MOV      R0,SP
   \   00000118   ........           _BLF     ??FindDictionaryWord,??FindDictionaryWord??rA
   \   0000011C   ........           LDR      R0,??DataTable13  ;; ??npos
   \   00000120   0020A0E3           MOV      R2,#+0
   \   00000124   003090E5           LDR      R3,[R0, #+0]
   \   00000128   0D10A0E1           MOV      R1,SP
   \                     ??GetStringValue_18:
   \   0000012C   0500A0E1           MOV      R0,R5
   \   00000130   ........           _BLF     ??assign,??assign??rA
   \   00000134   0620A0E1           MOV      R2,R6
   \   00000138   0110A0E3           MOV      R1,#+1
   \   0000013C   0D00A0E1           MOV      R0,SP
   \                     ??GetStringValue_19:
   \   00000140   ........           _BLF     ??_Tidy,??_Tidy??rA
   \   00000144   B70000EA           B        ??GetStringValue_15
    211                  } else if ( ADConfigData.ConvError ) {
   \                     ??GetStringValue_16:
   \   00000148   010017E3           TST      R7,#0x1
    212                      MyString = FindDictionaryWord(L_WORD625);//CnvErr
   \   0000014C   7110A013           MOVNE    R1,#+113
   \   00000150   801F8113           ORRNE    R1,R1,#0x200
   \   00000154   EEFFFF1A           BNE      ??GetStringValue_17
    213                  } else if ( ADConfigData.CalError ) {
   \   00000158   020007E2           AND      R0,R7,#0x2
   \   0000015C   A000B0E1           LSRS     R0,R0,#+1
   \   00000160   0D00000A           BEQ      ??GetStringValue_20
    214                      MyString = FindDictionaryWord(L_WORD626);//CalErr
   \   00000164   7210A0E3           MOV      R1,#+114
   \   00000168   801F81E3           ORR      R1,R1,#0x200
   \   0000016C   0D00A0E1           MOV      R0,SP
   \   00000170   ........           _BLF     ??FindDictionaryWord,??FindDictionaryWord??rA
   \   00000174   ........           LDR      R0,??DataTable13  ;; ??npos
   \   00000178   0020A0E3           MOV      R2,#+0
   \   0000017C   003090E5           LDR      R3,[R0, #+0]
   \   00000180   0D10A0E1           MOV      R1,SP
   \   00000184   0500A0E1           MOV      R0,R5
   \   00000188   ........           _BLF     ??assign,??assign??rA
   \   0000018C   0620A0E1           MOV      R2,R6
   \   00000190   0110A0E3           MOV      R1,#+1
   \   00000194   0D00A0E1           MOV      R0,SP
   \   00000198   E8FFFFEA           B        ??GetStringValue_19
    215                  } else {
    216                      MyString = FindDictionaryWord(L_WORD161);//OK
   \                     ??GetStringValue_20:
   \   0000019C   A110A0E3           MOV      R1,#+161
   \   000001A0   DBFFFFEA           B        ??GetStringValue_17
    217                  }
    218                  break;
    219              case SVT_IO_CH_CAL_ERROR    :
    220                  MyString = LibGetText(StatusText,SizeofStatusText,ST_TXT_ERROR_STAT,ADConfigData.CalError);
   \                     ??GetStringValue_4:
   \   000001A4   A700A0E1           LSR      R0,R7,#+1
   \   000001A8   010000E2           AND      R0,R0,#0x1
   \   000001AC   01002DE9           PUSH     {R0}
   \   000001B0   0730A0E3           MOV      R3,#+7
   \   000001B4   4C008DE2           ADD      R0,SP,#+76
   \   000001B8   ........           _BLF     ??LibGetText,??LibGetText??rA
   \   000001BC   ........           LDR      R0,??DataTable13  ;; ??npos
   \   000001C0   0020A0E3           MOV      R2,#+0
   \   000001C4   003090E5           LDR      R3,[R0, #+0]
   \   000001C8   4C108DE2           ADD      R1,SP,#+76
   \   000001CC   0500A0E1           MOV      R0,R5
   \   000001D0   ........           _BLF     ??assign,??assign??rA
   \   000001D4   0620A0E1           MOV      R2,R6
   \   000001D8   0110A0E3           MOV      R1,#+1
   \   000001DC   4C008DE2           ADD      R0,SP,#+76
   \   000001E0   C4FFFFEA           B        ??GetStringValue_14
    221                  break;
    222              case SVT_IO_CH_EEP_SNS_STAT  :
    223                  MyString = FindDictionaryWord(SCADCard::EEPromInfo[ADConfigData.EEPromStatus]);
   \                     ??GetStringValue_12:
   \   000001E4   F00C07E2           AND      R0,R7,#0xF000
   \   000001E8   2006A0E1           LSR      R0,R0,#+12
   \   000001EC   001193E7           LDR      R1,[R3, +R0, LSL #+2]
   \   000001F0   64008DE2           ADD      R0,SP,#+100
   \   000001F4   ........           _BLF     ??FindDictionaryWord,??FindDictionaryWord??rA
   \   000001F8   ........           LDR      R0,??DataTable13  ;; ??npos
   \   000001FC   0020A0E3           MOV      R2,#+0
   \   00000200   003090E5           LDR      R3,[R0, #+0]
   \   00000204   64108DE2           ADD      R1,SP,#+100
   \   00000208   0500A0E1           MOV      R0,R5
   \   0000020C   ........           _BLF     ??assign,??assign??rA
   \   00000210   0620A0E1           MOV      R2,R6
   \   00000214   0110A0E3           MOV      R1,#+1
   \   00000218   64008DE2           ADD      R0,SP,#+100
   \   0000021C   C7FFFFEA           B        ??GetStringValue_19
    224                  break;
    225              case SVT_IO_CH_EEP_PC_STAT  :
    226                  MyString = FindDictionaryWord(SCADCard::EEPromInfo[ADConfigData.EEP_PCStatus]);
   \                     ??GetStringValue_11:
   \   00000220   700E07E2           AND      R0,R7,#0x700
   \   00000224   2004A0E1           LSR      R0,R0,#+8
   \   00000228   001193E7           LDR      R1,[R3, +R0, LSL #+2]
   \   0000022C   80008DE2           ADD      R0,SP,#+128
   \   00000230   ........           _BLF     ??FindDictionaryWord,??FindDictionaryWord??rA
   \   00000234   ........           LDR      R0,??DataTable13  ;; ??npos
   \   00000238   0020A0E3           MOV      R2,#+0
   \   0000023C   003090E5           LDR      R3,[R0, #+0]
   \   00000240   80108DE2           ADD      R1,SP,#+128
   \   00000244   0500A0E1           MOV      R0,R5
   \   00000248   ........           _BLF     ??assign,??assign??rA
   \   0000024C   0620A0E1           MOV      R2,R6
   \   00000250   0110A0E3           MOV      R1,#+1
   \   00000254   80008DE2           ADD      R0,SP,#+128
   \   00000258   B8FFFFEA           B        ??GetStringValue_19
    227                  break;
    228              case SVT_IO_CH_EEP_USE_PCDATA:
    229                  MyString = LibGetText(StatusText,SizeofStatusText,ST_TXT_NO_YES,ADConfigData.EEPUsePCData);
   \                     ??GetStringValue_10:
   \   0000025C   A705A0E1           LSR      R0,R7,#+11
   \   00000260   010000E2           AND      R0,R0,#0x1
   \   00000264   01002DE9           PUSH     {R0}
   \   00000268   0430A0E3           MOV      R3,#+4
   \   0000026C   A0008DE2           ADD      R0,SP,#+160
   \   00000270   ........           _BLF     ??LibGetText,??LibGetText??rA
   \   00000274   ........           LDR      R0,??DataTable13  ;; ??npos
   \   00000278   0020A0E3           MOV      R2,#+0
   \   0000027C   003090E5           LDR      R3,[R0, #+0]
   \   00000280   A0108DE2           ADD      R1,SP,#+160
   \   00000284   0500A0E1           MOV      R0,R5
   \   00000288   ........           _BLF     ??assign,??assign??rA
   \   0000028C   0620A0E1           MOV      R2,R6
   \   00000290   0110A0E3           MOV      R1,#+1
   \   00000294   A0008DE2           ADD      R0,SP,#+160
   \   00000298   96FFFFEA           B        ??GetStringValue_14
    230                  break;
    231              case SVT_IO_CH_USE_PC_SETUP  :
    232                  MyString = LibGetText(StatusText,SizeofStatusText,ST_TXT_NO_YES,ADConfigData.UsePCSetUp);
   \                     ??GetStringValue_7:
   \   0000029C   2702A0E1           LSR      R0,R7,#+4
   \   000002A0   010000E2           AND      R0,R0,#0x1
   \   000002A4   01002DE9           PUSH     {R0}
   \   000002A8   0430A0E3           MOV      R3,#+4
   \   000002AC   BC008DE2           ADD      R0,SP,#+188
   \   000002B0   ........           _BLF     ??LibGetText,??LibGetText??rA
   \   000002B4   ........           LDR      R0,??DataTable13  ;; ??npos
   \   000002B8   0020A0E3           MOV      R2,#+0
   \   000002BC   003090E5           LDR      R3,[R0, #+0]
   \   000002C0   BC108DE2           ADD      R1,SP,#+188
   \   000002C4   0500A0E1           MOV      R0,R5
   \   000002C8   ........           _BLF     ??assign,??assign??rA
   \   000002CC   0620A0E1           MOV      R2,R6
   \   000002D0   0110A0E3           MOV      R1,#+1
   \   000002D4   BC008DE2           ADD      R0,SP,#+188
   \   000002D8   86FFFFEA           B        ??GetStringValue_14
    233                  break;
    234              case SVT_IO_CH_AD_SENSOR :
    235                  MyString = (AnsiString)SCADCard::ADSensorType[ADConfigData.FoundSensor];
   \                     ??GetStringValue_8:
   \   000002DC   600007E2           AND      R0,R7,#0x60
   \   000002E0   A002A0E1           LSR      R0,R0,#+5
   \   000002E4   00119EE7           LDR      R1,[LR, +R0, LSL #+2]
   \   000002E8   D4008DE2           ADD      R0,SP,#+212
   \   000002EC   ........           _BLF     ??AnsiString_1,??AnsiString??rA_1
   \   000002F0   ........           LDR      R1,??DataTable13  ;; ??npos
   \   000002F4   0020A0E3           MOV      R2,#+0
   \   000002F8   003091E5           LDR      R3,[R1, #+0]
   \   000002FC   0010A0E1           MOV      R1,R0
   \   00000300   0500A0E1           MOV      R0,R5
   \   00000304   ........           _BLF     ??assign,??assign??rA
   \   00000308   0620A0E1           MOV      R2,R6
   \   0000030C   0110A0E3           MOV      R1,#+1
   \   00000310   D4008DE2           ADD      R0,SP,#+212
   \   00000314   89FFFFEA           B        ??GetStringValue_19
    236                  break;
    237              case SVT_IO_CH_FROM_PC_SENSOR :
    238                  MyString = (AnsiString)SCADCard::ADSensorType[ADConfigData.PCSensor];
   \                     ??GetStringValue_6:
   \   00000318   0C0007E2           AND      R0,R7,#0xC
   \   0000031C   2001A0E1           LSR      R0,R0,#+2
   \   00000320   00119EE7           LDR      R1,[LR, +R0, LSL #+2]
   \   00000324   F0008DE2           ADD      R0,SP,#+240
   \   00000328   ........           _BLF     ??AnsiString_1,??AnsiString??rA_1
   \   0000032C   0010A0E1           MOV      R1,R0
   \   00000330   ........           LDR      R0,??DataTable13  ;; ??npos
   \   00000334   0020A0E3           MOV      R2,#+0
   \   00000338   003090E5           LDR      R3,[R0, #+0]
   \   0000033C   0500A0E1           MOV      R0,R5
   \   00000340   ........           _BLF     ??assign,??assign??rA
   \   00000344   0620A0E1           MOV      R2,R6
   \   00000348   0110A0E3           MOV      R1,#+1
   \   0000034C   F0008DE2           ADD      R0,SP,#+240
   \   00000350   7AFFFFEA           B        ??GetStringValue_19
    239                  break;
    240              case SVT_IO_CH_NEW_SENSOR   :
    241                  MyString = LibGetText(StatusText,SizeofStatusText,ST_TXT_NO_YES,ADConfigData.NewSensor);
   \                     ??GetStringValue_9:
   \   00000354   A703A0E1           LSR      R0,R7,#+7
   \   00000358   010000E2           AND      R0,R0,#0x1
   \   0000035C   01002DE9           PUSH     {R0}
   \   00000360   0430A0E3           MOV      R3,#+4
   \   00000364   440F8DE2           ADD      R0,SP,#+272
   \   00000368   ........           _BLF     ??LibGetText,??LibGetText??rA
   \   0000036C   ........           LDR      R0,??DataTable13  ;; ??npos
   \   00000370   0020A0E3           MOV      R2,#+0
   \   00000374   003090E5           LDR      R3,[R0, #+0]
   \   00000378   441F8DE2           ADD      R1,SP,#+272
   \   0000037C   0500A0E1           MOV      R0,R5
   \   00000380   ........           _BLF     ??assign,??assign??rA
   \   00000384   0620A0E1           MOV      R2,R6
   \   00000388   0110A0E3           MOV      R1,#+1
   \   0000038C   440F8DE2           ADD      R0,SP,#+272
   \   00000390   58FFFFEA           B        ??GetStringValue_14
    242                  break;
    243              case SVT_AI_CAL_DATA_PERCENT:
    244                  {
    245                      char *PercentRange[MAX_MV_CALDATA] ={"0%","40%","60%","100%"};
   \                     ??GetStringValue_2:
   \   00000394   ........           LDR      R0,??Subroutine18_0+0x10  ;; `?<Constant {&"0%", &"40%", &"60%", &"100%"}>`
   \   00000398   1C108DE2           ADD      R1,SP,#+28
   \   0000039C   880390E8           LDM      R0,{R3,R7-R9}
    246                      if (Index >= 0 && Index < MAX_MV_CALDATA) {
   \   000003A0   000054E3           CMP      R4,#+0
   \   000003A4   880381E8           STM      R1,{R3,R7-R9}
   \   000003A8   0A00004A           BMI      ??GetStringValue_21
   \   000003AC   040054E3           CMP      R4,#+4
   \   000003B0   080000AA           BGE      ??GetStringValue_21
    247                          MyString = PercentRange[Index];
   \   000003B4   1C008DE2           ADD      R0,SP,#+28
   \   000003B8   041190E7           LDR      R1,[R0, +R4, LSL #+2]
   \   000003BC   0D00A0E1           MOV      R0,SP
   \   000003C0   ........           _BLF     ??AnsiString_2,??AnsiString??rA_2
   \   000003C4   ........           LDR      R1,??DataTable13  ;; ??npos
   \   000003C8   0020A0E3           MOV      R2,#+0
   \   000003CC   003091E5           LDR      R3,[R1, #+0]
   \   000003D0   0010A0E1           MOV      R1,R0
   \   000003D4   54FFFFEA           B        ??GetStringValue_18
    248                      }else{
    249                          MyString = "IndexErr";
   \                     ??GetStringValue_21:
   \   000003D8   101080E2           ADD      R1,R0,#+16
   \   000003DC   0D00A0E1           MOV      R0,SP
   \   000003E0   ........           _BLF     ??AnsiString_2,??AnsiString??rA_2
   \   000003E4   ........           LDR      R1,??DataTable13  ;; ??npos
   \   000003E8   0020A0E3           MOV      R2,#+0
   \   000003EC   003091E5           LDR      R3,[R1, #+0]
   \   000003F0   0010A0E1           MOV      R1,R0
   \   000003F4   0500A0E1           MOV      R0,R5
   \   000003F8   ........           _BLF     ??assign,??assign??rA
   \   000003FC   0620A0E1           MOV      R2,R6
   \   00000400   0110A0E3           MOV      R1,#+1
   \   00000404   0D00A0E1           MOV      R0,SP
   \   00000408   ........           _BLF     ??_Tidy,??_Tidy??rA
    250                          Status = GETVAL_STRING_NOT_LEGAL;
   \   0000040C   0760A0E3           MOV      R6,#+7
   \   00000410   040000EA           B        ??GetStringValue_15
    251                      }
    252                  }
    253                  break;
    254              default:
    255                  Status = AIPressSensor::GetStringValue(ValueId,Index, MyString);
   \                     ??GetStringValue_13:
   \   00000414   0530A0E1           MOV      R3,R5
   \   00000418   0420A0E1           MOV      R2,R4
   \   0000041C   0C10A0E1           MOV      R1,R12
   \   00000420   ........           _BLF     ??GetStringValue_1,??GetStringValue??rA
   \   00000424   0060A0E1           MOV      R6,R0
    256                  break;
    257              }
    258              return(Status);
   \                     ??GetStringValue_15:
   \   00000428   0600A0E1           MOV      R0,R6
   \   0000042C   4ADF8DE2           ADD      SP,SP,#+296
   \   00000430                      REQUIRE ?Subroutine18
   \   00000430                      ;; // Fall through to label ?Subroutine18
    259          }
    260          

   \                                 In segment CODE, align 4, keep-with-next
    261          int AIPressSensor_mV::PutFloatValue( int ValueId, float NewValue)
    262          {
   \                     ??PutFloatValue:
   \   00000000   00402DE9           PUSH     {LR}
    263              return(AIPressSensor::PutFloatValue(ValueId, NewValue));
   \   00000004   ........           _BLF     ??PutFloatValue_1,??PutFloatValue??rA
   \   00000008   0040BDE8           POP      {LR}
   \   0000000C   1EFF2FE1           BX       LR               ;; return
    264          }
    265          
    266          

   \                                 In segment CODE, align 4, keep-with-next
    267          int AIPressSensor_mV::ReceiveData(U8 *data) {
   \                     ??ReceiveData:
   \   00000000   30402DE9           PUSH     {R4,R5,LR}
   \   00000004   34D04DE2           SUB      SP,SP,#+52
   \   00000008   0150A0E1           MOV      R5,R1
    268              ANPRO10_CommandHeading *pCH = (ANPRO10_CommandHeading *)data;
    269              switch (pCH->CommandNo) {
   \   0000000C   0110D5E5           LDRB     R1,[R5, #+1]
   \   00000010   0020D5E5           LDRB     R2,[R5, #+0]
   \   00000014   0040A0E1           MOV      R4,R0
   \   00000018   380084E2           ADD      R0,R4,#+56
   \   0000001C   011482E1           ORR      R1,R2,R1, LSL #+8
   \   00000020   651051E2           SUBS     R1,R1,#+101
   \   00000024   0200000A           BEQ      ??ReceiveData_1
   \   00000028   011051E2           SUBS     R1,R1,#+1
   \   0000002C   2E00000A           BEQ      ??ReceiveData_2
   \   00000030   970000EA           B        ??ReceiveData_3
    270              case CMD_GENERIC_REALTIME_DATA:
    271                  {
    272                      ANPRO10_COMMAND_2508  *pData = (ANPRO10_COMMAND_2508 *)data;
    273                      HWFailure       = pData->HWFailure;
   \                     ??ReceiveData_1:
   \   00000034   0810D5E5           LDRB     R1,[R5, #+8]
   \   00000038   D410C0E5           STRB     R1,[R0, #+212]
    274                      MyHWFailure     = pData->MyHWFailure;
   \   0000003C   0910D5E5           LDRB     R1,[R5, #+9]
   \   00000040   D510C0E5           STRB     R1,[R0, #+213]
    275                      ActiveAlarms    = pData->ActiveAlarms;
   \   00000044   0E10D5E5           LDRB     R1,[R5, #+14]
   \   00000048   0D20D5E5           LDRB     R2,[R5, #+13]
   \   0000004C   011482E1           ORR      R1,R2,R1, LSL #+8
   \   00000050   0C20D5E5           LDRB     R2,[R5, #+12]
   \   00000054   011482E1           ORR      R1,R2,R1, LSL #+8
   \   00000058   0B20D5E5           LDRB     R2,[R5, #+11]
   \   0000005C   011482E1           ORR      R1,R2,R1, LSL #+8
   \   00000060   001080E5           STR      R1,[R0, #+0]
    276                      FilteredValue   = pData->FilteredValue;
   \   00000064   0010A0E3           MOV      R1,#+0
   \   00000068   0D20A0E1           MOV      R2,SP
   \                     ??ReceiveData_4:
   \   0000006C   133085E2           ADD      R3,R5,#+19
   \   00000070   0330D1E7           LDRB     R3,[R1, +R3]
   \   00000074   0230C1E7           STRB     R3,[R1, +R2]
   \   00000078   011081E2           ADD      R1,R1,#+1
   \   0000007C   040051E3           CMP      R1,#+4
   \   00000080   F9FFFFBA           BLT      ??ReceiveData_4
   \   00000084   00109DE5           LDR      R1,[SP, #+0]
    277                      CalcValue       = pData->CalcValue;
   \   00000088   04208DE2           ADD      R2,SP,#+4
   \   0000008C   0C1180E5           STR      R1,[R0, #+268]
   \   00000090   0010A0E3           MOV      R1,#+0
   \                     ??ReceiveData_5:
   \   00000094   0F3085E2           ADD      R3,R5,#+15
   \   00000098   0330D1E7           LDRB     R3,[R1, +R3]
   \   0000009C   0230C1E7           STRB     R3,[R1, +R2]
   \   000000A0   011081E2           ADD      R1,R1,#+1
   \   000000A4   040051E3           CMP      R1,#+4
   \   000000A8   F9FFFFBA           BLT      ??ReceiveData_5
   \   000000AC   04109DE5           LDR      R1,[SP, #+4]
   \   000000B0   101180E5           STR      R1,[R0, #+272]
    278                      ResultOK        = pData->ResultOK;
   \   000000B4   0A10D5E5           LDRB     R1,[R5, #+10]
   \   000000B8   FE10C0E5           STRB     R1,[R0, #+254]
    279                      // Only check alarm for Master TCU for now
    280                      if (!CurrentDeviceAddress && CurrentDeviceId == DEVICE_TCU) {
   \   000000BC   DC019FE5           LDR      R0,??ReceiveData_6  ;; CurrentDeviceAddress
   \   000000C0   F000D0E1           LDRSH    R0,[R0, #+0]
   \   000000C4   000050E3           CMP      R0,#+0
   \   000000C8   D4019F05           LDREQ    R0,??ReceiveData_6+0x4  ;; CurrentDeviceId
   \   000000CC   F000D001           LDRSHEQ  R0,[R0, #+0]
   \   000000D0   20005003           CMPEQ    R0,#+32
   \   000000D4   0200001A           BNE      ??ReceiveData_7
    281                          CheckAlarms(AlarmSet);
   \   000000D8   0010A0E3           MOV      R1,#+0
   \   000000DC   C00084E2           ADD      R0,R4,#+192
   \   000000E0   ........           _BLF     ??CheckAlarms,??CheckAlarms??rA
    282                      }
    283          
    284                  }
    285                  return (E_OK);
   \                     ??ReceiveData_7:
   \   000000E4   0000A0E3           MOV      R0,#+0
   \   000000E8   6A0000EA           B        ??ReceiveData_8
    286              case CMD_GENERIC_STATIC_DATA:
    287                  {
    288                      ANPRO10_COMMAND_P906  *pData = (ANPRO10_COMMAND_P906 *)data;
    289                      Gain        = pData->Gain;
   \                     ??ReceiveData_2:
   \   000000EC   0010A0E3           MOV      R1,#+0
   \   000000F0   08208DE2           ADD      R2,SP,#+8
   \                     ??ReceiveData_9:
   \   000000F4   083085E2           ADD      R3,R5,#+8
   \   000000F8   0330D1E7           LDRB     R3,[R1, +R3]
   \   000000FC   0230C1E7           STRB     R3,[R1, +R2]
   \   00000100   011081E2           ADD      R1,R1,#+1
   \   00000104   040051E3           CMP      R1,#+4
   \   00000108   F9FFFFBA           BLT      ??ReceiveData_9
   \   0000010C   08109DE5           LDR      R1,[SP, #+8]
    290                      Offset      = pData->Offset;
   \   00000110   0C208DE2           ADD      R2,SP,#+12
   \   00000114   041180E5           STR      R1,[R0, #+260]
   \   00000118   0010A0E3           MOV      R1,#+0
   \                     ??ReceiveData_10:
   \   0000011C   0C3085E2           ADD      R3,R5,#+12
   \   00000120   0330D1E7           LDRB     R3,[R1, +R3]
   \   00000124   0230C1E7           STRB     R3,[R1, +R2]
   \   00000128   011081E2           ADD      R1,R1,#+1
   \   0000012C   040051E3           CMP      R1,#+4
   \   00000130   F9FFFFBA           BLT      ??ReceiveData_10
   \   00000134   0C109DE5           LDR      R1,[SP, #+12]
    291                      MinRange    = pData->MinRange;
   \   00000138   10208DE2           ADD      R2,SP,#+16
   \   0000013C   081180E5           STR      R1,[R0, #+264]
   \   00000140   0010A0E3           MOV      R1,#+0
   \                     ??ReceiveData_11:
   \   00000144   103085E2           ADD      R3,R5,#+16
   \   00000148   0330D1E7           LDRB     R3,[R1, +R3]
   \   0000014C   0230C1E7           STRB     R3,[R1, +R2]
   \   00000150   011081E2           ADD      R1,R1,#+1
   \   00000154   040051E3           CMP      R1,#+4
   \   00000158   F9FFFFBA           BLT      ??ReceiveData_11
   \   0000015C   10109DE5           LDR      R1,[SP, #+16]
    292                      MaxRange    = pData->MaxRange;
   \   00000160   14208DE2           ADD      R2,SP,#+20
   \   00000164   241180E5           STR      R1,[R0, #+292]
   \   00000168   0010A0E3           MOV      R1,#+0
   \                     ??ReceiveData_12:
   \   0000016C   143085E2           ADD      R3,R5,#+20
   \   00000170   0330D1E7           LDRB     R3,[R1, +R3]
   \   00000174   0230C1E7           STRB     R3,[R1, +R2]
   \   00000178   011081E2           ADD      R1,R1,#+1
   \   0000017C   040051E3           CMP      R1,#+4
   \   00000180   F9FFFFBA           BLT      ??ReceiveData_12
   \   00000184   14109DE5           LDR      R1,[SP, #+20]
   \   00000188   281180E5           STR      R1,[R0, #+296]
    293                      Enable      = pData->Enable;
   \   0000018C   1810D5E5           LDRB     R1,[R5, #+24]
   \   00000190   FC10C0E5           STRB     R1,[R0, #+252]
    294                      NewSensor   = pData->NewSensor;
   \   00000194   1910D5E5           LDRB     R1,[R5, #+25]
   \   00000198   FF10C0E5           STRB     R1,[R0, #+255]
    295                      SerialNumber = pData->SerialNo;
   \   0000019C   1A1085E2           ADD      R1,R5,#+26
   \   000001A0   18008DE2           ADD      R0,SP,#+24
   \   000001A4   ........           _BLF     ??AnsiString_2,??AnsiString??rA_2
   \   000001A8   ........           LDR      R1,??DataTable13  ;; ??npos
   \   000001AC   0020A0E3           MOV      R2,#+0
   \   000001B0   003091E5           LDR      R3,[R1, #+0]
   \   000001B4   0010A0E1           MOV      R1,R0
   \   000001B8   D80084E2           ADD      R0,R4,#+216
   \   000001BC   ........           _BLF     ??assign,??assign??rA
   \   000001C0   0020A0E3           MOV      R2,#+0
   \   000001C4   0110A0E3           MOV      R1,#+1
   \   000001C8   18008DE2           ADD      R0,SP,#+24
   \   000001CC   ........           _BLF     ??_Tidy,??_Tidy??rA
    296          
    297                      for (int i=0; i < MAX_MV_CALDATA; i++) {
   \   000001D0   0000A0E3           MOV      R0,#+0
    298                          FRO[i] = pData->FRO[i];
   \                     ??ReceiveData_13:
   \   000001D4   802085E0           ADD      R2,R5,R0, LSL #+1
   \   000001D8   2530D2E5           LDRB     R3,[R2, #+37]
   \   000001DC   24C0D2E5           LDRB     R12,[R2, #+36]
   \   000001E0   801084E0           ADD      R1,R4,R0, LSL #+1
   \   000001E4   731F81E2           ADD      R1,R1,#+460
   \   000001E8   03348CE1           ORR      R3,R12,R3, LSL #+8
   \   000001EC   B030C1E1           STRH     R3,[R1, #+0]
    299                          G1[i]  = pData->G1[i];
   \   000001F0   2D30D2E5           LDRB     R3,[R2, #+45]
   \   000001F4   2CC0D2E5           LDRB     R12,[R2, #+44]
    300                          G2[i]  = pData->G2[i];
    301                          G3[i]  = pData->G3[i];
    302                      }
   \   000001F8   010080E2           ADD      R0,R0,#+1
   \   000001FC   040050E3           CMP      R0,#+4
   \   00000200   03348CE1           ORR      R3,R12,R3, LSL #+8
   \   00000204   B830C1E1           STRH     R3,[R1, #+8]
   \   00000208   3530D2E5           LDRB     R3,[R2, #+53]
   \   0000020C   34C0D2E5           LDRB     R12,[R2, #+52]
   \   00000210   03348CE1           ORR      R3,R12,R3, LSL #+8
   \   00000214   B031C1E1           STRH     R3,[R1, #+16]
   \   00000218   3D30D2E5           LDRB     R3,[R2, #+61]
   \   0000021C   3C20D2E5           LDRB     R2,[R2, #+60]
   \   00000220   032482E1           ORR      R2,R2,R3, LSL #+8
   \   00000224   B821C1E1           STRH     R2,[R1, #+24]
   \   00000228   E9FFFFBA           BLT      ??ReceiveData_13
   \   0000022C   7B0F84E2           ADD      R0,R4,#+492
   \   00000230   B010D0E1           LDRH     R1,[R0, #+0]
    303                      pData->NL1           = NL1;
    304                      pData->NL2           = NL2;
    305                      pData->EEPromGain    = EEPromGain  ;
   \   00000234   482085E2           ADD      R2,R5,#+72
   \   00000238   4410C5E5           STRB     R1,[R5, #+68]
   \   0000023C   2114A0E1           LSR      R1,R1,#+8
   \   00000240   4510C5E5           STRB     R1,[R5, #+69]
   \   00000244   B210D0E1           LDRH     R1,[R0, #+2]
   \   00000248   4610C5E5           STRB     R1,[R5, #+70]
   \   0000024C   2114A0E1           LSR      R1,R1,#+8
   \   00000250   4710C5E5           STRB     R1,[R5, #+71]
   \   00000254   0010A0E3           MOV      R1,#+0
   \                     ??ReceiveData_14:
   \   00000258   043080E2           ADD      R3,R0,#+4
   \   0000025C   0330D1E7           LDRB     R3,[R1, +R3]
   \   00000260   0230C1E7           STRB     R3,[R1, +R2]
   \   00000264   011081E2           ADD      R1,R1,#+1
   \   00000268   040051E3           CMP      R1,#+4
   \   0000026C   F9FFFFBA           BLT      ??ReceiveData_14
    306                      pData->EEPromOffset  = EEPromOffset;
   \   00000270   0010A0E3           MOV      R1,#+0
   \   00000274   4C2085E2           ADD      R2,R5,#+76
   \                     ??ReceiveData_15:
   \   00000278   083080E2           ADD      R3,R0,#+8
   \   0000027C   0330D1E7           LDRB     R3,[R1, +R3]
   \   00000280   0230C1E7           STRB     R3,[R1, +R2]
   \   00000284   011081E2           ADD      R1,R1,#+1
   \   00000288   040051E3           CMP      R1,#+4
   \   0000028C   F9FFFFBA           BLT      ??ReceiveData_15
   \   00000290   93FFFFEA           B        ??ReceiveData_7
    307                  }
    308                  return (E_OK);
    309              default:
    310                  return (E_UNKNOWN_COMMAND);
   \                     ??ReceiveData_3:
   \   00000294   0100A0E3           MOV      R0,#+1
   \                     ??ReceiveData_8:
   \   00000298   34D08DE2           ADD      SP,SP,#+52
   \   0000029C   ........           B        ?Subroutine16
   \                     ??ReceiveData_6:
   \   000002A0   ........           DC32     CurrentDeviceAddress
   \   000002A4   ........           DC32     CurrentDeviceId
    311              };
    312          }

   \                                 In segment CODE, align 4, keep-with-next
    313          int AIPressSensor_mV::SendData(U16 cmd) {
   \                     ??SendData:
   \   00000000   10402DE9           PUSH     {R4,LR}
   \   00000004   7CD04DE2           SUB      SP,SP,#+124
   \   00000008   0040A0E1           MOV      R4,R0
    314              switch (cmd) {
   \   0000000C   380084E2           ADD      R0,R4,#+56
   \   00000010   0E20A0E3           MOV      R2,#+14
   \   00000014   FF30A0E3           MOV      R3,#+255
   \   00000018   00C0A0E3           MOV      R12,#+0
   \   0000001C   651051E2           SUBS     R1,R1,#+101
   \   00000020   0200000A           BEQ      ??SendData_1
   \   00000024   011051E2           SUBS     R1,R1,#+1
   \   00000028   3500000A           BEQ      ??SendData_2
   \   0000002C   990000EA           B        ??SendData_3
    315              case CMD_GENERIC_REALTIME_DATA:
    316                  {
    317                      QueueANPRO10_COMMAND_2508  Cmd;
    318                      Cmd.TxInfo.Port         = NULL;
   \                     ??SendData_1:
   \   00000030   00C08DE5           STR      R12,[SP, #+0]
    319                      Cmd.TxInfo.rxAddr       = DEVICE_BROADCAST_ADDR;
   \   00000034   0430CDE5           STRB     R3,[SP, #+4]
    320                      Cmd.TxInfo.rxId         = DEVICE_BROADCAST_TXU;
   \   00000038   0520CDE5           STRB     R2,[SP, #+5]
    321          
    322                      Cmd.Data.CommandNo      = CMD_GENERIC_REALTIME_DATA;
   \   0000003C   6520A0E3           MOV      R2,#+101
   \   00000040   B620CDE1           STRH     R2,[SP, #+6]
    323                      Cmd.Data.ndb            = sizeof(Cmd) - sizeof(QueueANPRO10_CommandHeading);
   \   00000044   1720A0E3           MOV      R2,#+23
   \   00000048   B820CDE1           STRH     R2,[SP, #+8]
    324                      Cmd.Data.ObjectId       = IDNumber;
   \   0000004C   641090E5           LDR      R1,[R0, #+100]
   \   00000050   0A10CDE5           STRB     R1,[SP, #+10]
   \   00000054   2114A0E1           LSR      R1,R1,#+8
   \   00000058   0B10CDE5           STRB     R1,[SP, #+11]
   \   0000005C   2114A0E1           LSR      R1,R1,#+8
   \   00000060   0C10CDE5           STRB     R1,[SP, #+12]
   \   00000064   2114A0E1           LSR      R1,R1,#+8
   \   00000068   0D10CDE5           STRB     R1,[SP, #+13]
    325                      Cmd.Data.HWFailure      = HWFailure;
   \   0000006C   D420D0E5           LDRB     R2,[R0, #+212]
   \   00000070   0E20CDE5           STRB     R2,[SP, #+14]
    326                      Cmd.Data.MyHWFailure    = MyHWFailure;
   \   00000074   D520D0E5           LDRB     R2,[R0, #+213]
   \   00000078   0F20CDE5           STRB     R2,[SP, #+15]
    327                      Cmd.Data.ActiveAlarms   = ActiveAlarms;
   \   0000007C   001090E5           LDR      R1,[R0, #+0]
    328                      Cmd.Data.FilteredValue  = FilteredValue;
   \   00000080   19208DE2           ADD      R2,SP,#+25
   \   00000084   1110CDE5           STRB     R1,[SP, #+17]
   \   00000088   2114A0E1           LSR      R1,R1,#+8
   \   0000008C   1210CDE5           STRB     R1,[SP, #+18]
   \   00000090   2114A0E1           LSR      R1,R1,#+8
   \   00000094   1310CDE5           STRB     R1,[SP, #+19]
   \   00000098   2114A0E1           LSR      R1,R1,#+8
   \   0000009C   1410CDE5           STRB     R1,[SP, #+20]
   \   000000A0   0010A0E3           MOV      R1,#+0
   \                     ??SendData_4:
   \   000000A4   433F80E2           ADD      R3,R0,#+268
   \   000000A8   0330D1E7           LDRB     R3,[R1, +R3]
   \   000000AC   0230C1E7           STRB     R3,[R1, +R2]
   \   000000B0   011081E2           ADD      R1,R1,#+1
   \   000000B4   040051E3           CMP      R1,#+4
   \   000000B8   F9FFFFBA           BLT      ??SendData_4
    329                      Cmd.Data.CalcValue      = CalcValue;
   \   000000BC   0010A0E3           MOV      R1,#+0
   \   000000C0   15208DE2           ADD      R2,SP,#+21
   \                     ??SendData_5:
   \   000000C4   443F80E2           ADD      R3,R0,#+272
   \   000000C8   0330D1E7           LDRB     R3,[R1, +R3]
   \   000000CC   0230C1E7           STRB     R3,[R1, +R2]
   \   000000D0   011081E2           ADD      R1,R1,#+1
   \   000000D4   040051E3           CMP      R1,#+4
   \   000000D8   F9FFFFBA           BLT      ??SendData_5
    330                      Cmd.Data.ResultOK       = ResultOK;
   \   000000DC   FE00D0E5           LDRB     R0,[R0, #+254]
   \   000000E0   1000CDE5           STRB     R0,[SP, #+16]
    331          
    332                      bool sent = ANPRO10SendNormal(&Cmd);
    333                      if (!sent) return (E_QUEUE_FULL);
   \   000000E4   0D00A0E1           MOV      R0,SP
   \   000000E8   ........           _BLF     ??ANPRO10SendNormal,??ANPRO10SendNormal??rA
   \   000000EC   000050E3           CMP      R0,#+0
   \   000000F0   0100001A           BNE      ??SendData_6
   \                     ??SendData_7:
   \   000000F4   0300A0E3           MOV      R0,#+3
   \   000000F8   670000EA           B        ??SendData_8
    334                      else return (E_OK);
   \                     ??SendData_6:
   \   000000FC   0000A0E3           MOV      R0,#+0
   \   00000100   650000EA           B        ??SendData_8
    335                  }
    336              case CMD_GENERIC_STATIC_DATA:
    337                  {
    338                      QueueANPRO10_COMMAND_P906  Cmd;
    339                      Cmd.TxInfo.Port        = NULL;
   \                     ??SendData_2:
   \   00000104   24C08DE5           STR      R12,[SP, #+36]
    340                      Cmd.TxInfo.rxAddr      = DEVICE_BROADCAST_ADDR;
   \   00000108   2830CDE5           STRB     R3,[SP, #+40]
    341                      Cmd.TxInfo.rxId        = DEVICE_BROADCAST_TXU;
   \   0000010C   2920CDE5           STRB     R2,[SP, #+41]
    342                      Cmd.Data.CommandNo     = CMD_GENERIC_STATIC_DATA;
   \   00000110   6620A0E3           MOV      R2,#+102
   \   00000114   BA22CDE1           STRH     R2,[SP, #+42]
    343                      Cmd.Data.ndb           = sizeof(Cmd) - sizeof(QueueANPRO10_CommandHeading);
   \   00000118   4C20A0E3           MOV      R2,#+76
   \   0000011C   BC22CDE1           STRH     R2,[SP, #+44]
    344                      Cmd.Data.ObjectId      = IDNumber;
   \   00000120   641090E5           LDR      R1,[R0, #+100]
    345          
    346                      Cmd.Data.Gain          = Gain;
   \   00000124   32208DE2           ADD      R2,SP,#+50
   \   00000128   2E10CDE5           STRB     R1,[SP, #+46]
   \   0000012C   2114A0E1           LSR      R1,R1,#+8
   \   00000130   2F10CDE5           STRB     R1,[SP, #+47]
   \   00000134   2114A0E1           LSR      R1,R1,#+8
   \   00000138   3010CDE5           STRB     R1,[SP, #+48]
   \   0000013C   2114A0E1           LSR      R1,R1,#+8
   \   00000140   3110CDE5           STRB     R1,[SP, #+49]
   \   00000144   0010A0E3           MOV      R1,#+0
   \                     ??SendData_9:
   \   00000148   413F80E2           ADD      R3,R0,#+260
   \   0000014C   0330D1E7           LDRB     R3,[R1, +R3]
   \   00000150   0230C1E7           STRB     R3,[R1, +R2]
   \   00000154   011081E2           ADD      R1,R1,#+1
   \   00000158   040051E3           CMP      R1,#+4
   \   0000015C   F9FFFFBA           BLT      ??SendData_9
    347                      Cmd.Data.Offset        = Offset;
   \   00000160   0010A0E3           MOV      R1,#+0
   \   00000164   36208DE2           ADD      R2,SP,#+54
   \                     ??SendData_10:
   \   00000168   423F80E2           ADD      R3,R0,#+264
   \   0000016C   0330D1E7           LDRB     R3,[R1, +R3]
   \   00000170   0230C1E7           STRB     R3,[R1, +R2]
   \   00000174   011081E2           ADD      R1,R1,#+1
   \   00000178   040051E3           CMP      R1,#+4
   \   0000017C   F9FFFFBA           BLT      ??SendData_10
    348                      Cmd.Data.MinRange      = MinRange;
   \   00000180   0010A0E3           MOV      R1,#+0
   \   00000184   3A208DE2           ADD      R2,SP,#+58
   \                     ??SendData_11:
   \   00000188   493F80E2           ADD      R3,R0,#+292
   \   0000018C   0330D1E7           LDRB     R3,[R1, +R3]
   \   00000190   0230C1E7           STRB     R3,[R1, +R2]
   \   00000194   011081E2           ADD      R1,R1,#+1
   \   00000198   040051E3           CMP      R1,#+4
   \   0000019C   F9FFFFBA           BLT      ??SendData_11
    349                      Cmd.Data.MaxRange      = MaxRange;
   \   000001A0   0010A0E3           MOV      R1,#+0
   \   000001A4   3E208DE2           ADD      R2,SP,#+62
   \                     ??SendData_12:
   \   000001A8   4A3F80E2           ADD      R3,R0,#+296
   \   000001AC   0330D1E7           LDRB     R3,[R1, +R3]
   \   000001B0   0230C1E7           STRB     R3,[R1, +R2]
   \   000001B4   011081E2           ADD      R1,R1,#+1
   \   000001B8   040051E3           CMP      R1,#+4
   \   000001BC   F9FFFFBA           BLT      ??SendData_12
    350                      Cmd.Data.Enable        = Enable;
   \   000001C0   FC20D0E5           LDRB     R2,[R0, #+252]
   \   000001C4   4220CDE5           STRB     R2,[SP, #+66]
    351                      Cmd.Data.NewSensor     = NewSensor;
   \   000001C8   FF00D0E5           LDRB     R0,[R0, #+255]
    352                      strncpy(Cmd.Data.SerialNo, SerialNumber.c_str(), 15);
   \   000001CC   0F20A0E3           MOV      R2,#+15
   \   000001D0   4300CDE5           STRB     R0,[SP, #+67]
   \   000001D4   D80084E2           ADD      R0,R4,#+216
   \   000001D8   181090E5           LDR      R1,[R0, #+24]
   \   000001DC   100051E3           CMP      R1,#+16
   \   000001E0   04109025           LDRCS    R1,[R0, #+4]
   \   000001E4   04108032           ADDCC    R1,R0,#+4
   \   000001E8   44008DE2           ADD      R0,SP,#+68
   \   000001EC   ........           _BLF     strncpy,??strncpy??rA
    353                      for (int i=0; i < MAX_MV_CALDATA; i++) {
   \   000001F0   0000A0E3           MOV      R0,#+0
    354                          Cmd.Data.FRO[i] = FRO[i];
   \                     ??SendData_13:
   \   000001F4   801084E0           ADD      R1,R4,R0, LSL #+1
   \   000001F8   731F81E2           ADD      R1,R1,#+460
   \   000001FC   F030D1E1           LDRSH    R3,[R1, #+0]
   \   00000200   24208DE2           ADD      R2,SP,#+36
   \   00000204   802082E0           ADD      R2,R2,R0, LSL #+1
   \   00000208   BA32C2E1           STRH     R3,[R2, #+42]
    355                          Cmd.Data.G1[i]  = G1[i];
   \   0000020C   F830D1E1           LDRSH    R3,[R1, #+8]
    356                          Cmd.Data.G2[i]  = G2[i];
    357                          Cmd.Data.G3[i]  = G3[i];
    358                      }
   \   00000210   010080E2           ADD      R0,R0,#+1
   \   00000214   040050E3           CMP      R0,#+4
   \   00000218   B233C2E1           STRH     R3,[R2, #+50]
   \   0000021C   F031D1E1           LDRSH    R3,[R1, #+16]
   \   00000220   BA33C2E1           STRH     R3,[R2, #+58]
   \   00000224   F811D1E1           LDRSH    R1,[R1, #+24]
   \   00000228   B214C2E1           STRH     R1,[R2, #+66]
   \   0000022C   F0FFFFBA           BLT      ??SendData_13
   \   00000230   7B0F84E2           ADD      R0,R4,#+492
   \   00000234   F020D0E1           LDRSH    R2,[R0, #+0]
    359                      Cmd.Data.NL1           = NL1;
    360                      Cmd.Data.NL2           = NL2;
    361                      Cmd.Data.EEPromGain    = EEPromGain  ;
   \   00000238   0010A0E3           MOV      R1,#+0
   \   0000023C   BE26CDE1           STRH     R2,[SP, #+110]
   \   00000240   F220D0E1           LDRSH    R2,[R0, #+2]
   \   00000244   B027CDE1           STRH     R2,[SP, #+112]
   \   00000248   72208DE2           ADD      R2,SP,#+114
   \                     ??SendData_14:
   \   0000024C   043080E2           ADD      R3,R0,#+4
   \   00000250   0330D1E7           LDRB     R3,[R1, +R3]
   \   00000254   0230C1E7           STRB     R3,[R1, +R2]
   \   00000258   011081E2           ADD      R1,R1,#+1
   \   0000025C   040051E3           CMP      R1,#+4
   \   00000260   F9FFFFBA           BLT      ??SendData_14
    362                      Cmd.Data.EEPromOffset  = EEPromOffset;
   \   00000264   0010A0E3           MOV      R1,#+0
   \   00000268   76208DE2           ADD      R2,SP,#+118
   \                     ??SendData_15:
   \   0000026C   083080E2           ADD      R3,R0,#+8
   \   00000270   0330D1E7           LDRB     R3,[R1, +R3]
   \   00000274   0230C1E7           STRB     R3,[R1, +R2]
   \   00000278   011081E2           ADD      R1,R1,#+1
   \   0000027C   040051E3           CMP      R1,#+4
   \   00000280   F9FFFFBA           BLT      ??SendData_15
    363                      bool sent = ANPRO10SendNormal(&Cmd);
    364                      if (!sent) return (E_QUEUE_FULL);
   \   00000284   24008DE2           ADD      R0,SP,#+36
   \   00000288   ........           _BLF     ??ANPRO10SendNormal,??ANPRO10SendNormal??rA
   \   0000028C   000050E3           CMP      R0,#+0
   \   00000290   99FFFF1A           BNE      ??SendData_6
   \   00000294   96FFFFEA           B        ??SendData_7
    365                      else return (E_OK);
    366                  }
    367              default:
    368                  return (E_UNKNOWN_COMMAND);
   \                     ??SendData_3:
   \   00000298   0100A0E3           MOV      R0,#+1
   \                     ??SendData_8:
   \   0000029C   7CD08DE2           ADD      SP,SP,#+124
   \   000002A0   1040BDE8           POP      {R4,LR}
   \   000002A4   1EFF2FE1           BX       LR               ;; return
    369              };
    370          
    371          }
    372          
    373          
    374          /*************************************************************************
    375           *
    376           *  Pack sensor data
    377           *   VERMARK 1.43
    378           *   Changed to support two independent cal-data structures
    379           *
    380           *************************************************************************/

   \                                 In segment CODE, align 4, keep-with-next
    381          void AIPressSensor_mV::PackSensorData(U8 CP[])
    382          {
   \                     ??PackSensorData:
   \   00000000   F04F2DE9           PUSH     {R4-R11,LR}
   \   00000004   6CD04DE2           SUB      SP,SP,#+108
   \   00000008   0040A0E1           MOV      R4,R0
    383              short LGain = (short)((EEPromGain -1.0)*100000.0);
   \   0000000C   736FA0E3           MOV      R6,#+460
   \   00000010   047086E0           ADD      R7,R6,R4
   \   00000014   240097E5           LDR      R0,[R7, #+36]
   \   00000018   0150A0E1           MOV      R5,R1
   \   0000001C   ........           _BLF     __floatToDouble,??__floatToDouble??rA
   \   00000020   0020A0E3           MOV      R2,#+0
   \   00000024   B034A0E3           MOV      R3,#-1342177280
   \   00000028   FF3683E3           ORR      R3,R3,#0xFF00000
   \   0000002C   ........           _BLF     __dAdd,??__dAdd??rA
   \   00000030   ........           LDR      R3,??DataTable17  ;; 0x40f86a00
   \   00000034   0020A0E3           MOV      R2,#+0
   \   00000038   ........           _BLF     __dMul,??__dMul??rA
   \   0000003C   ........           _BLF     __doubleToLong,??__doubleToLong??rA
   \   00000040   0008A0E1           MOV      R0,R0, LSL #+16
   \   00000044   4008A0E1           MOV      R0,R0, ASR #+16
   \   00000048   08008DE5           STR      R0,[SP, #+8]
    384              short SOffset = irint(EEPromOffset);
   \   0000004C   280097E5           LDR      R0,[R7, #+40]
   \   00000050   ........           _BLF     ??irint,??irint??rA
    385              short LFRO[MAX_CALDATA];
    386          
    387              {
    388                  LFRO[0] = FRO[SO_P0];
   \   00000054   F010D7E1           LDRSH    R1,[R7, #+0]
   \   00000058   0088A0E1           MOV      R8,R0, LSL #+16
   \   0000005C   4888A0E1           MOV      R8,R8, ASR #+16
   \   00000060   B010CDE1           STRH     R1,[SP, #+0]
    389                  for ( int i=1; i < MAX_CALDATA; i++ )   LFRO[i]= FRO[i]-FRO[i-1];
   \   00000064   0100A0E3           MOV      R0,#+1
   \                     ??PackSensorData_1:
   \   00000068   802084E0           ADD      R2,R4,R0, LSL #+1
   \   0000006C   F22096E1           LDRSH    R2,[R6, +R2]
   \   00000070   013040E2           SUB      R3,R0,#+1
   \   00000074   833084E0           ADD      R3,R4,R3, LSL #+1
   \   00000078   F33096E1           LDRSH    R3,[R6, +R3]
   \   0000007C   0D10A0E1           MOV      R1,SP
   \   00000080   801081E0           ADD      R1,R1,R0, LSL #+1
   \   00000084   032042E0           SUB      R2,R2,R3
   \   00000088   B020C1E1           STRH     R2,[R1, #+0]
   \   0000008C   010080E2           ADD      R0,R0,#+1
   \   00000090   040050E3           CMP      R0,#+4
   \   00000094   F3FFFFBA           BLT      ??PackSensorData_1
    390              }
    391              {
    392                  U32 SType = 0;
    393                  switch ( Type ) {
   \   00000098   A09084E2           ADD      R9,R4,#+160
   \   0000009C   001099E5           LDR      R1,[R9, #+0]
   \   000000A0   0060A0E3           MOV      R6,#+0
   \   000000A4   0000A0E3           MOV      R0,#+0
   \   000000A8   3E20A0E3           MOV      R2,#+62
   \   000000AC   802E82E3           ORR      R2,R2,#0x800
   \   000000B0   020051E1           CMP      R1,R2
   \   000000B4   0600000A           BEQ      ??PackSensorData_2
   \   000000B8   012082E3           ORR      R2,R2,#0x1
   \   000000BC   020051E1           CMP      R1,R2
   \   000000C0   0500000A           BEQ      ??PackSensorData_3
   \   000000C4   152082E2           ADD      R2,R2,#+21
   \   000000C8   020051E1           CMP      R1,R2
   \   000000CC   6C0EA003           MOVEQ    R0,#+1728
   \   000000D0   020000EA           B        ??PackSensorData_4
    394                  case C_AI_P906_0110:
    395                      SType = 906110;
   \                     ??PackSensorData_2:
   \   000000D4   ........           LDR      R0,??DataTable16  ;; 0xdd37e
   \   000000D8   000000EA           B        ??PackSensorData_4
    396                      break;
    397                  case C_AI_P906_0111:
    398                      SType = 906111;
   \                     ??PackSensorData_3:
   \   000000DC   A4039FE5           LDR      R0,??PackSensorData_5+0x4  ;; 0xdd37f
    399                      break;
    400                  case C_AI_1728:
    401                      SType = 1728;
    402                      break;
    403                  default:
    404                      break;
    405                  }
    406                  CP[0] = SType & 0xFF;
    407                  CP[1] = ( SType >> 8  ) & 0xFF;
    408                  CP[2] = ( SType >> 16 ) & 0x0F;
    409              }
    410              unsigned SerialNo = 0;
   \                     ??PackSensorData_4:
   \   000000E0   00A0A0E3           MOV      R10,#+0
   \   000000E4   0000C5E5           STRB     R0,[R5, #+0]
   \   000000E8   2014A0E1           LSR      R1,R0,#+8
   \   000000EC   0110C5E5           STRB     R1,[R5, #+1]
   \   000000F0   2008A0E1           LSR      R0,R0,#+16
   \   000000F4   0F0000E2           AND      R0,R0,#0xF
   \   000000F8   0200C5E5           STRB     R0,[R5, #+2]
    411              if ( SerialNumber.AnsiPos("SK")< 0 && SerialNumber.Length()> 1 ) {
   \   000000FC   E01F8FE2           ADR      R1,??PackSensorData_5  ;; "SK"
   \   00000100   50008DE2           ADD      R0,SP,#+80
   \   00000104   ........           _BLF     ??AnsiString_2,??AnsiString??rA_2
   \   00000108   0010A0E1           MOV      R1,R0
   \   0000010C   D80084E2           ADD      R0,R4,#+216
   \   00000110   ........           _BLF     ??AnsiPos,??AnsiPos??rA
   \   00000114   000050E3           CMP      R0,#+0
   \   00000118   0400005A           BPL      ??PackSensorData_6
   \   0000011C   D80084E2           ADD      R0,R4,#+216
   \   00000120   ........           _BLF     ??Length,??Length??rA
   \   00000124   020050E3           CMP      R0,#+2
   \   00000128   01B0A0A3           MOVGE    R11,#+1
   \   0000012C   000000AA           BGE      ??PackSensorData_7
   \                     ??PackSensorData_6:
   \   00000130   00B0A0E3           MOV      R11,#+0
   \                     ??PackSensorData_7:
   \   00000134   0020A0E3           MOV      R2,#+0
   \   00000138   0110A0E3           MOV      R1,#+1
   \   0000013C   50008DE2           ADD      R0,SP,#+80
   \   00000140   ........           _BLF     ??_Tidy,??_Tidy??rA
   \   00000144   00005BE3           CMP      R11,#+0
   \   00000148   1200000A           BEQ      ??PackSensorData_8
    412                  AnsiString tmpStr = SerialNumber.SubString(1,SerialNumber.Length()-1);
   \   0000014C   D80084E2           ADD      R0,R4,#+216
   \   00000150   ........           _BLF     ??Length,??Length??rA
   \   00000154   013040E2           SUB      R3,R0,#+1
   \   00000158   0120A0E3           MOV      R2,#+1
   \   0000015C   0C108DE2           ADD      R1,SP,#+12
   \   00000160   D80084E2           ADD      R0,R4,#+216
   \   00000164   ........           _BLF     ??SubString,??SubString??rA
    413                  SerialNo   = atoi(tmpStr.c_str());
   \   00000168   24009DE5           LDR      R0,[SP, #+36]
   \   0000016C   0A20A0E3           MOV      R2,#+10
   \   00000170   100050E3           CMP      R0,#+16
   \   00000174   10009D25           LDRCS    R0,[SP, #+16]
   \   00000178   0010A0E3           MOV      R1,#+0
   \   0000017C   10008D32           ADDCC    R0,SP,#+16
   \   00000180   ........           _BLF     _Stoul,??_Stoul??rA
   \   00000184   00A0A0E1           MOV      R10,R0
    414              }
   \   00000188   0620A0E1           MOV      R2,R6
   \   0000018C   0110A0E3           MOV      R1,#+1
   \   00000190   0C008DE2           ADD      R0,SP,#+12
   \   00000194   ........           _BLF     ??_Tidy,??_Tidy??rA
    415              CP[2] |= ( SerialNo << 4  ) & 0xF0;
   \                     ??PackSensorData_8:
   \   00000198   0200D5E5           LDRB     R0,[R5, #+2]
   \   0000019C   0A0280E1           ORR      R0,R0,R10, LSL #+4
   \   000001A0   0200C5E5           STRB     R0,[R5, #+2]
    416              CP[3]  = ( SerialNo >> 4  ) & 0xFF;
   \   000001A4   2A02A0E1           LSR      R0,R10,#+4
   \   000001A8   0300C5E5           STRB     R0,[R5, #+3]
    417              CP[4]  = ( SerialNo >> 12 ) & 0xFF;
   \   000001AC   2A06A0E1           LSR      R0,R10,#+12
   \   000001B0   0400C5E5           STRB     R0,[R5, #+4]
    418              CP[5] =irint(MinRange*100); // To correct for a possible
   \   000001B4   BC1099E5           LDR      R1,[R9, #+188]
   \   000001B8   4004A0E3           MOV      R0,#+1073741824
   \   000001BC   B20780E3           ORR      R0,R0,#0x2C80000
   \   000001C0   ........           _BLF     __fMul,??__fMul??rA
   \   000001C4   ........           _BLF     ??irint,??irint??rA
   \   000001C8   0500C5E5           STRB     R0,[R5, #+5]
    419              CP[6] =irint(MaxRange*10);  // round off
   \   000001CC   C01099E5           LDR      R1,[R9, #+192]
   \   000001D0   4004A0E3           MOV      R0,#+1073741824
   \   000001D4   480780E3           ORR      R0,R0,#0x1200000
   \   000001D8   ........           _BLF     __fMul,??__fMul??rA
   \   000001DC   ........           _BLF     ??irint,??irint??rA
   \   000001E0   0600C5E5           STRB     R0,[R5, #+6]
    420              {
    421                  U8 CSum = 0;
    422                  for ( int i=0 ; i < 7 ;i++ ) {
   \   000001E4   A0029FE5           LDR      R0,??PackSensorData_5+0x8  ;; CRC
   \   000001E8   0010A0E3           MOV      R1,#+0
   \   000001EC   0120A0E1           MOV      R2,R1
    423                      CSum = CRC[CSum ^ CP[i]] ;
   \                     ??PackSensorData_9:
   \   000001F0   0530D2E7           LDRB     R3,[R2, +R5]
    424                  }
   \   000001F4   012082E2           ADD      R2,R2,#+1
   \   000001F8   070052E3           CMP      R2,#+7
   \   000001FC   011023E0           EOR      R1,R3,R1
   \   00000200   0010D1E7           LDRB     R1,[R1, +R0]
   \   00000204   F9FFFFBA           BLT      ??PackSensorData_9
    425                  CP[7] = CSum ;
   \   00000208   0710C5E5           STRB     R1,[R5, #+7]
    426              }
    427          
    428              CP[8]   =  LFRO[SO_P0] & 0xff ;
   \   0000020C   F010DDE1           LDRSH    R1,[SP, #+0]
   \   00000210   0810C5E5           STRB     R1,[R5, #+8]
    429              CP[9]   = (LFRO[SO_P0] >> 8) & 0x1f ;
   \   00000214   F010DDE1           LDRSH    R1,[SP, #+0]
   \   00000218   4114A0E1           ASR      R1,R1,#+8
   \   0000021C   1F1001E2           AND      R1,R1,#0x1F
   \   00000220   0910C5E5           STRB     R1,[R5, #+9]
    430              CP[9]   |= (G1[SO_P0] << 5) & 0xe0 ;
   \   00000224   F820D7E1           LDRSH    R2,[R7, #+8]
   \   00000228   821281E1           ORR      R1,R1,R2, LSL #+5
   \   0000022C   0910C5E5           STRB     R1,[R5, #+9]
    431              CP[10]  = (G1[SO_P0] >> 3) & 0xff ;
   \   00000230   F810D7E1           LDRSH    R1,[R7, #+8]
   \   00000234   C111A0E1           ASR      R1,R1,#+3
   \   00000238   0A10C5E5           STRB     R1,[R5, #+10]
    432              CP[11]  = (G1[SO_P0] >> 11) & 0x03;
   \   0000023C   F810D7E1           LDRSH    R1,[R7, #+8]
   \   00000240   C115A0E1           ASR      R1,R1,#+11
   \   00000244   031001E2           AND      R1,R1,#0x3
   \   00000248   0B10C5E5           STRB     R1,[R5, #+11]
    433              CP[11]  |= (G2[SO_P0] << 2) & 0xfc ;
   \   0000024C   F021D7E1           LDRSH    R2,[R7, #+16]
   \   00000250   021181E1           ORR      R1,R1,R2, LSL #+2
   \   00000254   0B10C5E5           STRB     R1,[R5, #+11]
    434              CP[12]  = (G2[SO_P0] >> 6 ) & 0x7f ;
   \   00000258   F011D7E1           LDRSH    R1,[R7, #+16]
   \   0000025C   4113A0E1           ASR      R1,R1,#+6
   \   00000260   7F1001E2           AND      R1,R1,#0x7F
   \   00000264   0C10C5E5           STRB     R1,[R5, #+12]
    435              CP[12]  |= (G3[SO_P0] << 7) & 0x80  ;
   \   00000268   F821D7E1           LDRSH    R2,[R7, #+24]
   \   0000026C   821381E1           ORR      R1,R1,R2, LSL #+7
   \   00000270   0C10C5E5           STRB     R1,[R5, #+12]
    436              CP[13]  = (G3[SO_P0] >> 1 ) & 0xff ;
   \   00000274   F811D7E1           LDRSH    R1,[R7, #+24]
   \   00000278   C110A0E1           ASR      R1,R1,#+1
   \   0000027C   0D10C5E5           STRB     R1,[R5, #+13]
    437              CP[14]  = (G3[SO_P0] >> 9 ) & 0x0f ;
   \   00000280   F811D7E1           LDRSH    R1,[R7, #+24]
   \   00000284   C114A0E1           ASR      R1,R1,#+9
   \   00000288   0F1001E2           AND      R1,R1,#0xF
   \   0000028C   0E10C5E5           STRB     R1,[R5, #+14]
    438              CP[14]  |= (LFRO[SO_P40] << 4) & 0xf0;
   \   00000290   F210DDE1           LDRSH    R1,[SP, #+2]
   \   00000294   0E20D5E5           LDRB     R2,[R5, #+14]
   \   00000298   012282E1           ORR      R2,R2,R1, LSL #+4
   \   0000029C   0E20C5E5           STRB     R2,[R5, #+14]
    439              CP[15]  = (LFRO[SO_P40] >> 4) & 0xff ;
   \   000002A0   4122A0E1           ASR      R2,R1,#+4
   \   000002A4   0F20C5E5           STRB     R2,[R5, #+15]
    440              CP[16]  = (LFRO[SO_P40] >> 12) & 0x01 ;
   \   000002A8   4116A0E1           ASR      R1,R1,#+12
   \   000002AC   011001E2           AND      R1,R1,#0x1
   \   000002B0   1010C5E5           STRB     R1,[R5, #+16]
    441              CP[16]  |= (G1[SO_P40] << 1) & 0xfe ;
   \   000002B4   FA20D7E1           LDRSH    R2,[R7, #+10]
   \   000002B8   821081E1           ORR      R1,R1,R2, LSL #+1
   \   000002BC   1010C5E5           STRB     R1,[R5, #+16]
    442              CP[17]  = (G1[SO_P40] >> 7) & 0x3f ;
   \   000002C0   FA10D7E1           LDRSH    R1,[R7, #+10]
   \   000002C4   C113A0E1           ASR      R1,R1,#+7
   \   000002C8   3F1001E2           AND      R1,R1,#0x3F
   \   000002CC   1110C5E5           STRB     R1,[R5, #+17]
    443              CP[17]  |= (G2[SO_P40] << 6) & 0xc0 ;
   \   000002D0   F221D7E1           LDRSH    R2,[R7, #+18]
   \   000002D4   021381E1           ORR      R1,R1,R2, LSL #+6
   \   000002D8   1110C5E5           STRB     R1,[R5, #+17]
    444              CP[18]  = (G2[SO_P40] >> 2) & 0xff ;
   \   000002DC   F211D7E1           LDRSH    R1,[R7, #+18]
   \   000002E0   4111A0E1           ASR      R1,R1,#+2
   \   000002E4   1210C5E5           STRB     R1,[R5, #+18]
    445              CP[19]  = (G2[SO_P40] >> 10) & 0x07 ;
   \   000002E8   F211D7E1           LDRSH    R1,[R7, #+18]
   \   000002EC   4115A0E1           ASR      R1,R1,#+10
   \   000002F0   071001E2           AND      R1,R1,#0x7
   \   000002F4   1310C5E5           STRB     R1,[R5, #+19]
    446              CP[19]  |= (G3[SO_P40] << 3) & 0xf8 ;
   \   000002F8   FA21D7E1           LDRSH    R2,[R7, #+26]
   \   000002FC   821181E1           ORR      R1,R1,R2, LSL #+3
   \   00000300   1310C5E5           STRB     R1,[R5, #+19]
    447              CP[20]  = (G3[SO_P40] >> 5) & 0xff ;
   \   00000304   FA11D7E1           LDRSH    R1,[R7, #+26]
   \   00000308   C112A0E1           ASR      R1,R1,#+5
   \   0000030C   1410C5E5           STRB     R1,[R5, #+20]
    448              CP[21]  = LFRO[SO_P60] & 0xff ;
   \   00000310   F410DDE1           LDRSH    R1,[SP, #+4]
   \   00000314   1510C5E5           STRB     R1,[R5, #+21]
    449              CP[22]  = (LFRO[SO_P60] >> 8) & 0x1f ;
   \   00000318   4114A0E1           ASR      R1,R1,#+8
   \   0000031C   1F1001E2           AND      R1,R1,#0x1F
   \   00000320   1610C5E5           STRB     R1,[R5, #+22]
    450              CP[22]  |= (G1[SO_P60] << 5) & 0xe0 ;
   \   00000324   FC20D7E1           LDRSH    R2,[R7, #+12]
   \   00000328   821281E1           ORR      R1,R1,R2, LSL #+5
   \   0000032C   1610C5E5           STRB     R1,[R5, #+22]
    451              CP[23]  = (G1[SO_P60] >> 3) & 0xff ;
   \   00000330   FC10D7E1           LDRSH    R1,[R7, #+12]
   \   00000334   C111A0E1           ASR      R1,R1,#+3
   \   00000338   1710C5E5           STRB     R1,[R5, #+23]
    452              CP[24]  = (G1[SO_P60] >> 11) & 0x03;
   \   0000033C   FC10D7E1           LDRSH    R1,[R7, #+12]
   \   00000340   C115A0E1           ASR      R1,R1,#+11
   \   00000344   031001E2           AND      R1,R1,#0x3
   \   00000348   1810C5E5           STRB     R1,[R5, #+24]
    453              CP[24]  |= (G2[SO_P60] << 2) & 0xfc ;
   \   0000034C   F421D7E1           LDRSH    R2,[R7, #+20]
   \   00000350   021181E1           ORR      R1,R1,R2, LSL #+2
   \   00000354   1810C5E5           STRB     R1,[R5, #+24]
    454              CP[25]  = (G2[SO_P60] >> 6 ) & 0x7f ;
   \   00000358   F411D7E1           LDRSH    R1,[R7, #+20]
   \   0000035C   4113A0E1           ASR      R1,R1,#+6
   \   00000360   7F1001E2           AND      R1,R1,#0x7F
   \   00000364   1910C5E5           STRB     R1,[R5, #+25]
    455              CP[25]  |= (G3[SO_P60] << 7) & 0x80  ;
   \   00000368   FC21D7E1           LDRSH    R2,[R7, #+28]
   \   0000036C   821381E1           ORR      R1,R1,R2, LSL #+7
   \   00000370   1910C5E5           STRB     R1,[R5, #+25]
    456              CP[26]  = (G3[SO_P60] >> 1 ) & 0xff ;
   \   00000374   FC11D7E1           LDRSH    R1,[R7, #+28]
   \   00000378   C110A0E1           ASR      R1,R1,#+1
   \   0000037C   1A10C5E5           STRB     R1,[R5, #+26]
    457              CP[27]  = (G3[SO_P60] >> 9 ) & 0x0f ;
   \   00000380   FC11D7E1           LDRSH    R1,[R7, #+28]
   \   00000384   C114A0E1           ASR      R1,R1,#+9
   \   00000388   0F1001E2           AND      R1,R1,#0xF
   \   0000038C   1B10C5E5           STRB     R1,[R5, #+27]
    458              CP[27]  |= (LFRO[SO_P100] << 4) & 0xf0;
   \   00000390   F610DDE1           LDRSH    R1,[SP, #+6]
   \   00000394   1B20D5E5           LDRB     R2,[R5, #+27]
   \   00000398   012282E1           ORR      R2,R2,R1, LSL #+4
   \   0000039C   1B20C5E5           STRB     R2,[R5, #+27]
    459              CP[28]  = (LFRO[SO_P100] >> 4) & 0xff ;
   \   000003A0   4122A0E1           ASR      R2,R1,#+4
   \   000003A4   1C20C5E5           STRB     R2,[R5, #+28]
    460              CP[29]  = (LFRO[SO_P100] >> 12) & 0x01 ;
   \   000003A8   4116A0E1           ASR      R1,R1,#+12
   \   000003AC   011001E2           AND      R1,R1,#0x1
   \   000003B0   1D10C5E5           STRB     R1,[R5, #+29]
    461              CP[29]  |= (G1[SO_P100] << 1) & 0xfe ;
   \   000003B4   FE20D7E1           LDRSH    R2,[R7, #+14]
   \   000003B8   821081E1           ORR      R1,R1,R2, LSL #+1
   \   000003BC   1D10C5E5           STRB     R1,[R5, #+29]
    462              CP[30]  = (G1[SO_P100] >> 7) & 0x3f ;
   \   000003C0   FE10D7E1           LDRSH    R1,[R7, #+14]
   \   000003C4   C113A0E1           ASR      R1,R1,#+7
   \   000003C8   3F1001E2           AND      R1,R1,#0x3F
   \   000003CC   1E10C5E5           STRB     R1,[R5, #+30]
    463              CP[30]  |= (G2[SO_P100] << 6) & 0xc0 ;
   \   000003D0   F621D7E1           LDRSH    R2,[R7, #+22]
   \   000003D4   021381E1           ORR      R1,R1,R2, LSL #+6
   \   000003D8   1E10C5E5           STRB     R1,[R5, #+30]
    464              CP[31]  = (G2[SO_P100] >> 2) & 0xff ;
   \   000003DC   F611D7E1           LDRSH    R1,[R7, #+22]
   \   000003E0   4111A0E1           ASR      R1,R1,#+2
   \   000003E4   1F10C5E5           STRB     R1,[R5, #+31]
    465              CP[32]  = (G2[SO_P100] >> 10) & 0x07 ;
   \   000003E8   F611D7E1           LDRSH    R1,[R7, #+22]
   \   000003EC   4115A0E1           ASR      R1,R1,#+10
   \   000003F0   071001E2           AND      R1,R1,#0x7
   \   000003F4   2010C5E5           STRB     R1,[R5, #+32]
    466              CP[32]  |= (G3[SO_P100] << 3) & 0xf8 ;
   \   000003F8   FE21D7E1           LDRSH    R2,[R7, #+30]
   \   000003FC   821181E1           ORR      R1,R1,R2, LSL #+3
   \   00000400   2010C5E5           STRB     R1,[R5, #+32]
    467              CP[33]  = (G3[SO_P100] >> 5) & 0xff ;
   \   00000404   FE11D7E1           LDRSH    R1,[R7, #+30]
   \   00000408   C112A0E1           ASR      R1,R1,#+5
   \   0000040C   2110C5E5           STRB     R1,[R5, #+33]
    468              CP[34]  = NL2 & 0x07 ;
   \   00000410   F212D7E1           LDRSH    R1,[R7, #+34]
   \   00000414   071001E2           AND      R1,R1,#0x7
   \   00000418   2210C5E5           STRB     R1,[R5, #+34]
    469              CP[34]  |= ((signed char)NL1 << 3) & 0xf8 ;
   \   0000041C   F022D7E1           LDRSH    R2,[R7, #+32]
   \   00000420   821181E1           ORR      R1,R1,R2, LSL #+3
   \   00000424   2210C5E5           STRB     R1,[R5, #+34]
    470              CP[35]  = SOffset & 0xff ;
   \   00000428   2380C5E5           STRB     R8,[R5, #+35]
    471              CP[36]  = (SOffset >> 8) & 0xff ;
   \   0000042C   4814A0E1           ASR      R1,R8,#+8
   \   00000430   2410C5E5           STRB     R1,[R5, #+36]
    472              CP[37]  = LGain & 0xff ;
   \   00000434   08109DE5           LDR      R1,[SP, #+8]
   \   00000438   2510C5E5           STRB     R1,[R5, #+37]
    473              CP[38]  = (LGain >> 8) & 0xff ;
   \   0000043C   08109DE5           LDR      R1,[SP, #+8]
   \   00000440   4114A0E1           ASR      R1,R1,#+8
   \   00000444   2610C5E5           STRB     R1,[R5, #+38]
    474              {
    475          
    476                  U8 CSum = 0;
    477                  for ( int  i = 8 ; i < EEPROM_SIZE-1 ; i++ ) {
   \   00000448   0810A0E3           MOV      R1,#+8
    478                      CSum = CRC[CSum ^ CP[i]] ;
   \                     ??PackSensorData_10:
   \   0000044C   0520D1E7           LDRB     R2,[R1, +R5]
    479                  }
   \   00000450   011081E2           ADD      R1,R1,#+1
   \   00000454   270051E3           CMP      R1,#+39
   \   00000458   062022E0           EOR      R2,R2,R6
   \   0000045C   0060D2E7           LDRB     R6,[R2, +R0]
   \   00000460   F9FFFFBA           BLT      ??PackSensorData_10
    480                  CP[39] = CSum ;
   \   00000464   2760C5E5           STRB     R6,[R5, #+39]
    481          
    482              }
    483              char tmpBuf[40];
    484              memcpy(tmpBuf,CP,40);
   \   00000468   2820A0E3           MOV      R2,#+40
   \   0000046C   0510A0E1           MOV      R1,R5
   \   00000470   28008DE2           ADD      R0,SP,#+40
   \   00000474   ........           _BLF     memcpy,??memcpy??rA
    485          
    486          }
   \   00000478   6CD08DE2           ADD      SP,SP,#+108
   \   0000047C   F04FBDE8           POP      {R4-R11,LR}
   \   00000480   1EFF2FE1           BX       LR               ;; return
   \                     ??PackSensorData_5:
   \   00000484   534B0000           DC8      "SK",+0
   \   00000488   7FD30D00           DC32     0xdd37f
   \   0000048C   ........           DC32     CRC
    487          
    488          /*************************************************************************
    489          *
    490          *  Unpack sensor data
    491          *
    492          *  UnpackSensorData updates sensor status and CalDataDifference
    493          *
    494          *************************************************************************/

   \                                 In segment CODE, align 4, keep-with-next
    495          bool AIPressSensor_mV::UnpackSensorData(U8 CP[])
    496          {
   \                     ??UnpackSensorData:
   \   00000000   F0402DE9           PUSH     {R4-R7,LR}
   \   00000004   8CD04DE2           SUB      SP,SP,#+140
   \   00000008   0040A0E1           MOV      R4,R0
   \   0000000C   0160A0E1           MOV      R6,R1
    497              {
    498                  U32 LType =  (U32)CP[0] | ((U32)CP[1] << 8 ) | ( ( (U32)CP[2]  & 0x0F ) << 16 );
    499                  switch ( LType ) {
   \   00000010   0000D6E5           LDRB     R0,[R6, #+0]
   \   00000014   0110D6E5           LDRB     R1,[R6, #+1]
   \   00000018   A07084E2           ADD      R7,R4,#+160
   \   0000001C   010480E1           ORR      R0,R0,R1, LSL #+8
   \   00000020   0210D6E5           LDRB     R1,[R6, #+2]
   \   00000024   0F1001E2           AND      R1,R1,#0xF
   \   00000028   010880E1           ORR      R0,R0,R1, LSL #+16
   \   0000002C   6C0E50E3           CMP      R0,#+1728
   \   00000030   0A00000A           BEQ      ??UnpackSensorData_1
   \   00000034   ........           LDR      R1,??DataTable16  ;; 0xdd37e
   \   00000038   010050E1           CMP      R0,R1
   \   0000003C   0300000A           BEQ      ??UnpackSensorData_2
   \   00000040   011081E3           ORR      R1,R1,#0x1
   \   00000044   010050E1           CMP      R0,R1
   \   00000048   0200000A           BEQ      ??UnpackSensorData_3
   \   0000004C   060000EA           B        ??UnpackSensorData_4
    500                  case 906110:
    501                      Type = C_AI_P906_0110;
   \                     ??UnpackSensorData_2:
   \   00000050   3E00A0E3           MOV      R0,#+62
   \   00000054   020000EA           B        ??UnpackSensorData_5
    502                      break;
    503                  case 906111:
    504                      Type = C_AI_P906_0111;
   \                     ??UnpackSensorData_3:
   \   00000058   3F00A0E3           MOV      R0,#+63
   \   0000005C   000000EA           B        ??UnpackSensorData_5
    505                      break;
    506                  case 1728:
    507                      Type = C_AI_1728;
   \                     ??UnpackSensorData_1:
   \   00000060   5400A0E3           MOV      R0,#+84
   \                     ??UnpackSensorData_5:
   \   00000064   800E80E3           ORR      R0,R0,#0x800
   \   00000068   000087E5           STR      R0,[R7, #+0]
    508                      break;
    509                  default:
    510                      //Type = 0; // We only support C_AI_P906_0111 sensor for now
    511                      break;
    512                  }
    513              }
    514              U32 NewSerialNo = ((U32)CP[2] >> 4  ) | ((U32)CP[3] << 4  ) | ((U32)CP[4] << 12 );
   \                     ??UnpackSensorData_4:
   \   0000006C   0200D6E5           LDRB     R0,[R6, #+2]
   \   00000070   0310D6E5           LDRB     R1,[R6, #+3]
   \   00000074   0112A0E1           LSL      R1,R1,#+4
   \   00000078   200281E1           ORR      R0,R1,R0, LSR #+4
   \   0000007C   0410D6E5           LDRB     R1,[R6, #+4]
   \   00000080   015680E1           ORR      R5,R0,R1, LSL #+12
    515          
    516              MinRange      = CP[5] / 100.0;
   \   00000084   0500D6E5           LDRB     R0,[R6, #+5]
   \   00000088   ........           _BLF     __ulongToDouble,??__ulongToDouble??rA
   \   0000008C   0020A0E3           MOV      R2,#+0
   \   00000090   4034A0E3           MOV      R3,#+1073741824
   \   00000094   593883E3           ORR      R3,R3,#0x590000
   \   00000098   ........           _BLF     __dDiv,??__dDiv??rA
   \   0000009C   ........           _BLF     __doubleToFloat,??__doubleToFloat??rA
   \   000000A0   BC0087E5           STR      R0,[R7, #+188]
    517              MaxRange      = CP[6] /10.0;
   \   000000A4   0600D6E5           LDRB     R0,[R6, #+6]
   \   000000A8   ........           _BLF     __ulongToDouble,??__ulongToDouble??rA
   \   000000AC   0020A0E3           MOV      R2,#+0
   \   000000B0   4034A0E3           MOV      R3,#+1073741824
   \   000000B4   903983E3           ORR      R3,R3,#0x240000
   \   000000B8   ........           _BLF     __dDiv,??__dDiv??rA
   \   000000BC   ........           _BLF     __doubleToFloat,??__doubleToFloat??rA
   \   000000C0   C00087E5           STR      R0,[R7, #+192]
    518          
    519              FRO[SO_P0]    = (CP[8] | (CP[9]<<8) ) & 0x1fff ;
   \   000000C4   0810D6E5           LDRB     R1,[R6, #+8]
   \   000000C8   0920D6E5           LDRB     R2,[R6, #+9]
   \   000000CC   FF00A0E3           MOV      R0,#+255
   \   000000D0   7C0D80E3           ORR      R0,R0,#0x1F00
   \   000000D4   021481E1           ORR      R1,R1,R2, LSL #+8
   \   000000D8   012000E0           AND      R2,R0,R1
   \   000000DC   737F84E2           ADD      R7,R4,#+460
   \   000000E0   B020C7E1           STRH     R2,[R7, #+0]
    520              if ( FRO[SO_P0] & 0x1000 ) FRO[SO_P0] |= 0xe000 ;    // Negative EHSMark Dette m da vre feil
   \   000000E4   0010E0E1           MVN      R1,R0
   \   000000E8   400D12E3           TST      R2,#0x1000
   \   000000EC   02208111           ORRNE    R2,R1,R2
   \   000000F0   B020C711           STRHNE   R2,[R7, #+0]
    521          
    522              G1[SO_P0] = (   ( ( CP[ 9] >> 5  ) & 0x07 )
    523                              | ( ( CP[10] <<3 ) & 0x7ff )
    524                              | ( ( CP[11] & 0x03) << 11)
    525                          )  & 0x1fff ;
   \   000000F4   0920D6E5           LDRB     R2,[R6, #+9]
   \   000000F8   0A30D6E5           LDRB     R3,[R6, #+10]
   \   000000FC   A222A0E1           LSR      R2,R2,#+5
   \   00000100   832182E1           ORR      R2,R2,R3, LSL #+3
   \   00000104   0B30D6E5           LDRB     R3,[R6, #+11]
   \   00000108   832582E1           ORR      R2,R2,R3, LSL #+11
   \   0000010C   022000E0           AND      R2,R0,R2
   \   00000110   B820C7E1           STRH     R2,[R7, #+8]
    526          
    527              if ( G1[SO_P0] & 0x1000 )   G1[SO_P0] |= 0xe000 ;   // Negative
   \   00000114   400D12E3           TST      R2,#0x1000
   \   00000118   02208111           ORRNE    R2,R1,R2
   \   0000011C   B820C711           STRHNE   R2,[R7, #+8]
    528              G2[SO_P0] =  (((CP[11] >> 2) & 0x3f)|((CP[12] & 0x7f)<<6 )) & 0x1fff ;
   \   00000120   0B20D6E5           LDRB     R2,[R6, #+11]
   \   00000124   0C30D6E5           LDRB     R3,[R6, #+12]
   \   00000128   2221A0E1           LSR      R2,R2,#+2
   \   0000012C   032382E1           ORR      R2,R2,R3, LSL #+6
   \   00000130   022000E0           AND      R2,R0,R2
   \   00000134   B021C7E1           STRH     R2,[R7, #+16]
    529              if ( G2[SO_P0] & 0x1000 )   G2[SO_P0] |= 0xe000 ;
   \   00000138   400D12E3           TST      R2,#0x1000
   \   0000013C   02208111           ORRNE    R2,R1,R2
   \   00000140   B021C711           STRHNE   R2,[R7, #+16]
    530              G3[SO_P0] =(  ((CP[12] >> 7) & 0x01)
    531                            | ((CP[13]<< 1 ) & 0x1FE )
    532                            | ((CP[14] & 0x0f) <<9)) & 0x1fff ;
   \   00000144   0C20D6E5           LDRB     R2,[R6, #+12]
   \   00000148   0D30D6E5           LDRB     R3,[R6, #+13]
   \   0000014C   A223A0E1           LSR      R2,R2,#+7
   \   00000150   832082E1           ORR      R2,R2,R3, LSL #+1
   \   00000154   0E30D6E5           LDRB     R3,[R6, #+14]
   \   00000158   832482E1           ORR      R2,R2,R3, LSL #+9
   \   0000015C   022000E0           AND      R2,R0,R2
   \   00000160   B821C7E1           STRH     R2,[R7, #+24]
    533              if ( G3[SO_P0] & 0x1000 )   G3[SO_P0] |= 0xe000 ;
   \   00000164   400D12E3           TST      R2,#0x1000
   \   00000168   02208111           ORRNE    R2,R1,R2
   \   0000016C   B821C711           STRHNE   R2,[R7, #+24]
    534              /* start calculate data for 40 % FRO */
    535              FRO[SO_P40] = (   ((CP[14] >> 4) & 0x0f)
    536                                | (CP[15] <<4)
    537                                | ((CP[16] & 0x01) << 12))& 0x1fff ;
    538              FRO[SO_P40] += FRO[SO_P0];
   \   00000170   0E20D6E5           LDRB     R2,[R6, #+14]
   \   00000174   0F30D6E5           LDRB     R3,[R6, #+15]
   \   00000178   2222A0E1           LSR      R2,R2,#+4
   \   0000017C   032282E1           ORR      R2,R2,R3, LSL #+4
   \   00000180   1030D6E5           LDRB     R3,[R6, #+16]
   \   00000184   032682E1           ORR      R2,R2,R3, LSL #+12
   \   00000188   F030D7E1           LDRSH    R3,[R7, #+0]
   \   0000018C   022000E0           AND      R2,R0,R2
   \   00000190   022083E0           ADD      R2,R3,R2
   \   00000194   B220C7E1           STRH     R2,[R7, #+2]
    539          
    540              G1[SO_P40] = (((CP[16] >> 1) & 0x7f)|((CP[17] & 0x3f) << 7)) & 0x1fff ;
   \   00000198   1030D6E5           LDRB     R3,[R6, #+16]
   \   0000019C   11C0D6E5           LDRB     R12,[R6, #+17]
   \   000001A0   A330A0E1           LSR      R3,R3,#+1
   \   000001A4   8C3383E1           ORR      R3,R3,R12, LSL #+7
   \   000001A8   033000E0           AND      R3,R0,R3
   \   000001AC   BA30C7E1           STRH     R3,[R7, #+10]
    541              if ( G1[SO_P40] & 0x1000 )  G1[SO_P40] |= 0xe000 ;
   \   000001B0   400D13E3           TST      R3,#0x1000
   \   000001B4   03308111           ORRNE    R3,R1,R3
   \   000001B8   BA30C711           STRHNE   R3,[R7, #+10]
    542          
    543              G2[SO_P40] =(  ( (CP[17] >> 6) & 0x03)
    544                             | ( CP[18] << 2)
    545                             | ((CP[19]& 0x07) << 10)) & 0x1fff ;
   \   000001BC   1130D6E5           LDRB     R3,[R6, #+17]
   \   000001C0   12C0D6E5           LDRB     R12,[R6, #+18]
   \   000001C4   2333A0E1           LSR      R3,R3,#+6
   \   000001C8   0C3183E1           ORR      R3,R3,R12, LSL #+2
   \   000001CC   13C0D6E5           LDRB     R12,[R6, #+19]
   \   000001D0   0C3583E1           ORR      R3,R3,R12, LSL #+10
   \   000001D4   033000E0           AND      R3,R0,R3
   \   000001D8   B231C7E1           STRH     R3,[R7, #+18]
    546              if ( G2[SO_P40] & 0x1000 )  G2[SO_P40] |= 0xe000 ;
   \   000001DC   400D13E3           TST      R3,#0x1000
   \   000001E0   03308111           ORRNE    R3,R1,R3
   \   000001E4   B231C711           STRHNE   R3,[R7, #+18]
    547          
    548              G3[SO_P40] =  ( ( (CP[19] >> 3 ) & 0x1f ) | ( CP[20] << 5 ) )& 0x1fff ;
   \   000001E8   1330D6E5           LDRB     R3,[R6, #+19]
   \   000001EC   14C0D6E5           LDRB     R12,[R6, #+20]
   \   000001F0   A331A0E1           LSR      R3,R3,#+3
   \   000001F4   8C3283E1           ORR      R3,R3,R12, LSL #+5
   \   000001F8   BA31C7E1           STRH     R3,[R7, #+26]
    549              if ( G3[SO_P40] & 0x1000 )   G3[SO_P40] |= 0xe000 ;
   \   000001FC   400D13E3           TST      R3,#0x1000
   \   00000200   03308111           ORRNE    R3,R1,R3
   \   00000204   BA31C711           STRHNE   R3,[R7, #+26]
    550          
    551              /* start calculate data for 60 % FRO */
    552              FRO[SO_P60] =  (CP[21] | (CP[22] << 8)) & 0x1fff ;
    553              FRO[SO_P60] += FRO[SO_P40];
   \   00000208   1530D6E5           LDRB     R3,[R6, #+21]
   \   0000020C   16C0D6E5           LDRB     R12,[R6, #+22]
   \   00000210   0C3483E1           ORR      R3,R3,R12, LSL #+8
   \   00000214   033000E0           AND      R3,R0,R3
   \   00000218   032082E0           ADD      R2,R2,R3
   \   0000021C   B420C7E1           STRH     R2,[R7, #+4]
    554          
    555              G1[SO_P60] =  (  ((CP[22] >> 5) & 0x07)
    556                               | ( CP[23] << 3)
    557                               | ((CP[24] & 0x03)<<11)) & 0x1fff ;
   \   00000220   1630D6E5           LDRB     R3,[R6, #+22]
   \   00000224   17C0D6E5           LDRB     R12,[R6, #+23]
   \   00000228   A332A0E1           LSR      R3,R3,#+5
   \   0000022C   8C3183E1           ORR      R3,R3,R12, LSL #+3
   \   00000230   18C0D6E5           LDRB     R12,[R6, #+24]
   \   00000234   8C3583E1           ORR      R3,R3,R12, LSL #+11
   \   00000238   033000E0           AND      R3,R0,R3
   \   0000023C   BC30C7E1           STRH     R3,[R7, #+12]
    558              if ( G1[SO_P60] & 0x1000 )   G1[SO_P60] |= 0xe000 ;
   \   00000240   400D13E3           TST      R3,#0x1000
   \   00000244   03308111           ORRNE    R3,R1,R3
   \   00000248   BC30C711           STRHNE   R3,[R7, #+12]
    559          
    560              G2[SO_P60] = (((CP[24] >> 2) & 0x3f)|((CP[25] & 0x7f) <<6 )) & 0x1fff ;
   \   0000024C   1830D6E5           LDRB     R3,[R6, #+24]
   \   00000250   19C0D6E5           LDRB     R12,[R6, #+25]
   \   00000254   2331A0E1           LSR      R3,R3,#+2
   \   00000258   0C3383E1           ORR      R3,R3,R12, LSL #+6
   \   0000025C   033000E0           AND      R3,R0,R3
   \   00000260   B431C7E1           STRH     R3,[R7, #+20]
    561              if ( G2[SO_P60] & 0x1000 )   G2[SO_P60] |= 0xe000 ;
   \   00000264   400D13E3           TST      R3,#0x1000
   \   00000268   03308111           ORRNE    R3,R1,R3
   \   0000026C   B431C711           STRHNE   R3,[R7, #+20]
    562          
    563              G3[SO_P60] =  (  ((CP[25] >> 7 ) & 0x01)
    564                               |((CP[26] << 1 )  & 0x1FE )
    565                               |((CP[27] & 0x0f) <<9)) & 0x1fff ;
   \   00000270   1930D6E5           LDRB     R3,[R6, #+25]
   \   00000274   1AC0D6E5           LDRB     R12,[R6, #+26]
   \   00000278   A333A0E1           LSR      R3,R3,#+7
   \   0000027C   8C3083E1           ORR      R3,R3,R12, LSL #+1
   \   00000280   1BC0D6E5           LDRB     R12,[R6, #+27]
   \   00000284   8C3483E1           ORR      R3,R3,R12, LSL #+9
   \   00000288   033000E0           AND      R3,R0,R3
   \   0000028C   BC31C7E1           STRH     R3,[R7, #+28]
    566              if ( G3[SO_P60] & 0x1000 )   G3[SO_P60] |= 0xe000 ;
   \   00000290   400D13E3           TST      R3,#0x1000
   \   00000294   03308111           ORRNE    R3,R1,R3
   \   00000298   BC31C711           STRHNE   R3,[R7, #+28]
    567          
    568              FRO[SO_P100] = (   ((CP[27] >> 4) & 0x0f)
    569                                 | ( CP[28] <<4)
    570                                 | ((CP[29] & 0x01)<<12))& 0x1fff ;
    571              FRO[SO_P100] += FRO[SO_P60];
   \   0000029C   1B30D6E5           LDRB     R3,[R6, #+27]
   \   000002A0   1CC0D6E5           LDRB     R12,[R6, #+28]
   \   000002A4   2332A0E1           LSR      R3,R3,#+4
   \   000002A8   0C3283E1           ORR      R3,R3,R12, LSL #+4
   \   000002AC   1DC0D6E5           LDRB     R12,[R6, #+29]
   \   000002B0   0C3683E1           ORR      R3,R3,R12, LSL #+12
   \   000002B4   033000E0           AND      R3,R0,R3
   \   000002B8   032082E0           ADD      R2,R2,R3
   \   000002BC   B620C7E1           STRH     R2,[R7, #+6]
    572              G1[SO_P100] = (((CP[29] >> 1) & 0x7f)|((CP[30] & 0x3f) << 7)) & 0x1fff;
   \   000002C0   1D20D6E5           LDRB     R2,[R6, #+29]
   \   000002C4   1E30D6E5           LDRB     R3,[R6, #+30]
   \   000002C8   A220A0E1           LSR      R2,R2,#+1
   \   000002CC   832382E1           ORR      R2,R2,R3, LSL #+7
   \   000002D0   022000E0           AND      R2,R0,R2
   \   000002D4   BE20C7E1           STRH     R2,[R7, #+14]
    573              if ( G1[SO_P100] & 0x1000 ) G1[SO_P100] |= 0xe000 ;
   \   000002D8   400D12E3           TST      R2,#0x1000
   \   000002DC   02208111           ORRNE    R2,R1,R2
   \   000002E0   BE20C711           STRHNE   R2,[R7, #+14]
    574          
    575              G2[SO_P100] = (  ((CP[30] >> 6) & 0x03)
    576                               |( CP[31] << 2 )
    577                               |((CP[32]& 0x07) <<10)) & 0x1fff ;
   \   000002E4   1E20D6E5           LDRB     R2,[R6, #+30]
   \   000002E8   1F30D6E5           LDRB     R3,[R6, #+31]
   \   000002EC   2223A0E1           LSR      R2,R2,#+6
   \   000002F0   032182E1           ORR      R2,R2,R3, LSL #+2
   \   000002F4   2030D6E5           LDRB     R3,[R6, #+32]
   \   000002F8   032582E1           ORR      R2,R2,R3, LSL #+10
   \   000002FC   020000E0           AND      R0,R0,R2
   \   00000300   B601C7E1           STRH     R0,[R7, #+22]
    578              if ( G2[SO_P100] & 0x1000 )      G2[SO_P100] |= 0xe000 ;
   \   00000304   400D10E3           TST      R0,#0x1000
   \   00000308   00008111           ORRNE    R0,R1,R0
   \   0000030C   B601C711           STRHNE   R0,[R7, #+22]
    579          
    580              G3[SO_P100] =(((CP[32] >> 3) & 0x1f) | ( CP[33] << 5)) & 0x1fff ;
   \   00000310   2000D6E5           LDRB     R0,[R6, #+32]
   \   00000314   2120D6E5           LDRB     R2,[R6, #+33]
   \   00000318   A001A0E1           LSR      R0,R0,#+3
   \   0000031C   820280E1           ORR      R0,R0,R2, LSL #+5
   \   00000320   BE01C7E1           STRH     R0,[R7, #+30]
    581              if ( G3[SO_P100] & 0x1000 )     G3[SO_P100] |= 0xe000 ;
   \   00000324   400D10E3           TST      R0,#0x1000
   \   00000328   00008111           ORRNE    R0,R1,R0
   \   0000032C   BE01C711           STRHNE   R0,[R7, #+30]
    582          
    583              NL1 =   (CP[34] >> 3) & 0x0f ;  // sensor NL1
   \   00000330   2200D6E5           LDRB     R0,[R6, #+34]
   \   00000334   0F10A0E3           MOV      R1,#+15
   \   00000338   C00101E0           AND      R0,R1,R0, ASR #+3
   \   0000033C   B002C7E1           STRH     R0,[R7, #+32]
    584              if ( (CP[34]) & 0x80 )  NL1 |= 0xfff0 ; // Negate
   \   00000340   2210D6E5           LDRB     R1,[R6, #+34]
   \   00000344   800011E3           TST      R1,#0x80
   \   00000348   0F10E013           MVNNE    R1,#+15
   \   0000034C   00008111           ORRNE    R0,R1,R0
   \   00000350   B002C711           STRHNE   R0,[R7, #+32]
    585          
    586              NL2 = CP[34] & 0x07 ;
   \   00000354   2200D6E5           LDRB     R0,[R6, #+34]
   \   00000358   070000E2           AND      R0,R0,#0x7
   \   0000035C   B202C7E1           STRH     R0,[R7, #+34]
    587              if ( (CP[34]) & 0x04 ) NL2 |= 0xfff8 ;  // Negate
   \   00000360   2210D6E5           LDRB     R1,[R6, #+34]
   \   00000364   040011E3           TST      R1,#0x4
   \   00000368   0710E013           MVNNE    R1,#+7
   \   0000036C   00008111           ORRNE    R0,R1,R0
   \   00000370   B202C711           STRHNE   R0,[R7, #+34]
    588          
    589              EEPromOffset =  CP[35] | (CP[36] << 8) ;            /*offset*/
   \   00000374   2300D6E5           LDRB     R0,[R6, #+35]
   \   00000378   2410D6E5           LDRB     R1,[R6, #+36]
   \   0000037C   010480E1           ORR      R0,R0,R1, LSL #+8
   \   00000380   ........           _BLF     __longToFloat,??__longToFloat??rA
   \   00000384   280087E5           STR      R0,[R7, #+40]
    590          
    591              EEPromGain   =  1.0 + (CP[37] | (CP[38] <<8)) /100000.0;
   \   00000388   2500D6E5           LDRB     R0,[R6, #+37]
   \   0000038C   2610D6E5           LDRB     R1,[R6, #+38]
   \   00000390   010480E1           ORR      R0,R0,R1, LSL #+8
   \   00000394   ........           _BLF     __longToDouble,??__longToDouble??rA
   \   00000398   ........           LDR      R3,??DataTable17  ;; 0x40f86a00
   \   0000039C   0020A0E3           MOV      R2,#+0
   \   000003A0   ........           _BLF     __dDiv,??__dDiv??rA
   \   000003A4   0020A0E3           MOV      R2,#+0
   \   000003A8   C035A0E3           MOV      R3,#+805306368
   \   000003AC   FF3683E3           ORR      R3,R3,#0xFF00000
   \   000003B0   ........           _BLF     __dAdd,??__dAdd??rA
   \   000003B4   ........           _BLF     __doubleToFloat,??__doubleToFloat??rA
   \   000003B8   240087E5           STR      R0,[R7, #+36]
    592          
    593              // Only checks serialnumber to find new sensor
    594              // Should have some failcheck, but what shall we do wit an illegal number?
    595              AnsiString NewSerialNumStr;
   \   000003BC   38008DE2           ADD      R0,SP,#+56
   \   000003C0   ........           _BLF     ??AnsiString_3,??AnsiString??rA_3
    596              if ( NewSerialNo < 100000 ) {
   \   000003C4   600BA0E3           MOV      R0,#+98304
   \   000003C8   6A0E80E3           ORR      R0,R0,#0x6A0
   \   000003CC   000055E1           CMP      R5,R0
   \   000003D0   0510A0E1           MOV      R1,R5
   \   000003D4   1E00002A           BCS      ??UnpackSensorData_6
    597                  NewSerialNumStr       = (AnsiString)"S0"+(AnsiString)NewSerialNo;
   \   000003D8   1C008DE2           ADD      R0,SP,#+28
   \   000003DC   ........           _BLF     ??AnsiString_4,??AnsiString??rA_4
   \   000003E0   0060A0E1           MOV      R6,R0
   \   000003E4   ........           ADR      R1,??Subroutine17_0  ;; "S0"
   \   000003E8   54008DE2           ADD      R0,SP,#+84
   \   000003EC   ........           _BLF     ??AnsiString_2,??AnsiString??rA_2
   \   000003F0   0620A0E1           MOV      R2,R6
   \   000003F4   0010A0E1           MOV      R1,R0
   \   000003F8   0D00A0E1           MOV      R0,SP
   \   000003FC   ........           _BLF     `??operator+`,`??operator+??rA`
   \   00000400   0D10A0E1           MOV      R1,SP
   \   00000404   70008DE2           ADD      R0,SP,#+112
   \   00000408   ........           _BLF     ??AnsiString_5,??AnsiString??rA_5
   \   0000040C   0010A0E1           MOV      R1,R0
   \   00000410   ........           LDR      R0,??DataTable20  ;; ??npos
   \   00000414   0020A0E3           MOV      R2,#+0
   \   00000418   003090E5           LDR      R3,[R0, #+0]
   \   0000041C   38008DE2           ADD      R0,SP,#+56
   \   00000420   ........           _BLF     ??assign,??assign??rA
   \   00000424   0020A0E3           MOV      R2,#+0
   \   00000428   0110A0E3           MOV      R1,#+1
   \   0000042C   70008DE2           ADD      R0,SP,#+112
   \   00000430   ........           _BLF     ??_Tidy,??_Tidy??rA
   \   00000434   0020A0E3           MOV      R2,#+0
   \   00000438   0110A0E3           MOV      R1,#+1
   \   0000043C   0D00A0E1           MOV      R0,SP
   \   00000440   ........           _BLF     ??_Tidy,??_Tidy??rA
   \   00000444   0020A0E3           MOV      R2,#+0
   \   00000448   0110A0E3           MOV      R1,#+1
   \   0000044C   1C008DE2           ADD      R0,SP,#+28
   \   00000450   1D0000EA           B        ??UnpackSensorData_7
    598              } else {
    599                  NewSerialNumStr = (AnsiString)"S"+(AnsiString)NewSerialNo;
   \                     ??UnpackSensorData_6:
   \   00000454   70008DE2           ADD      R0,SP,#+112
   \   00000458   ........           _BLF     ??AnsiString_4,??AnsiString??rA_4
   \   0000045C   0060A0E1           MOV      R6,R0
   \   00000460   ........           ADR      R1,??Subroutine17_0+0x4  ;; "S"
   \   00000464   54008DE2           ADD      R0,SP,#+84
   \   00000468   ........           _BLF     ??AnsiString_2,??AnsiString??rA_2
   \   0000046C   0620A0E1           MOV      R2,R6
   \   00000470   0010A0E1           MOV      R1,R0
   \   00000474   1C008DE2           ADD      R0,SP,#+28
   \   00000478   ........           _BLF     `??operator+`,`??operator+??rA`
   \   0000047C   1C108DE2           ADD      R1,SP,#+28
   \   00000480   0D00A0E1           MOV      R0,SP
   \   00000484   ........           _BLF     ??AnsiString_5,??AnsiString??rA_5
   \   00000488   ........           LDR      R1,??DataTable20  ;; ??npos
   \   0000048C   0020A0E3           MOV      R2,#+0
   \   00000490   003091E5           LDR      R3,[R1, #+0]
   \   00000494   0010A0E1           MOV      R1,R0
   \   00000498   38008DE2           ADD      R0,SP,#+56
   \   0000049C   ........           _BLF     ??assign,??assign??rA
   \   000004A0   0020A0E3           MOV      R2,#+0
   \   000004A4   0110A0E3           MOV      R1,#+1
   \   000004A8   0D00A0E1           MOV      R0,SP
   \   000004AC   ........           _BLF     ??_Tidy,??_Tidy??rA
   \   000004B0   0020A0E3           MOV      R2,#+0
   \   000004B4   0110A0E3           MOV      R1,#+1
   \   000004B8   1C008DE2           ADD      R0,SP,#+28
   \   000004BC   ........           _BLF     ??_Tidy,??_Tidy??rA
   \   000004C0   0020A0E3           MOV      R2,#+0
   \   000004C4   0110A0E3           MOV      R1,#+1
   \   000004C8   70008DE2           ADD      R0,SP,#+112
   \                     ??UnpackSensorData_7:
   \   000004CC   ........           _BLF     ??_Tidy,??_Tidy??rA
   \   000004D0   0020A0E3           MOV      R2,#+0
   \   000004D4   0110A0E3           MOV      R1,#+1
   \   000004D8   54008DE2           ADD      R0,SP,#+84
   \   000004DC   ........           _BLF     ??_Tidy,??_Tidy??rA
    600              }
    601              bool NewSensorFound = false;
   \   000004E0   0060A0E3           MOV      R6,#+0
    602              if ( NewSerialNo > 0 && NewSerialNumStr != SerialNumber ) {
   \   000004E4   000055E3           CMP      R5,#+0
   \   000004E8   1400000A           BEQ      ??UnpackSensorData_8
   \   000004EC   D80084E2           ADD      R0,R4,#+216
   \   000004F0   181090E5           LDR      R1,[R0, #+24]
   \   000004F4   100051E3           CMP      R1,#+16
   \   000004F8   04309025           LDRCS    R3,[R0, #+4]
   \   000004FC   0010A0E3           MOV      R1,#+0
   \   00000500   04308032           ADDCC    R3,R0,#+4
   \   00000504   140090E5           LDR      R0,[R0, #+20]
   \   00000508   01002DE9           PUSH     {R0}
   \   0000050C   50209DE5           LDR      R2,[SP, #+80]
   \   00000510   3C008DE2           ADD      R0,SP,#+60
   \   00000514   ........           _BLF     ??compare,??compare??rA
   \   00000518   000050E3           CMP      R0,#+0
   \   0000051C   04D08DE2           ADD      SP,SP,#+4
   \   00000520   0600000A           BEQ      ??UnpackSensorData_8
    603                  SerialNumber = NewSerialNumStr;
   \   00000524   ........           LDR      R0,??DataTable20  ;; ??npos
   \   00000528   0020A0E3           MOV      R2,#+0
   \   0000052C   003090E5           LDR      R3,[R0, #+0]
   \   00000530   38108DE2           ADD      R1,SP,#+56
   \   00000534   D80084E2           ADD      R0,R4,#+216
   \   00000538   ........           _BLF     ??assign,??assign??rA
    604                  NewSensorFound    = true;
   \   0000053C   0160A0E3           MOV      R6,#+1
    605              }
    606              return(NewSensorFound);
   \                     ??UnpackSensorData_8:
   \   00000540   0020A0E3           MOV      R2,#+0
   \   00000544   0110A0E3           MOV      R1,#+1
   \   00000548   38008DE2           ADD      R0,SP,#+56
   \   0000054C   ........           _BLF     ??_Tidy,??_Tidy??rA
   \   00000550   0600A0E1           MOV      R0,R6
   \   00000554   8CD08DE2           ADD      SP,SP,#+140
   \   00000558                      REQUIRE ?Subroutine17
   \   00000558                      ;; // Fall through to label ?Subroutine17
    607          
    608          }
    609          

   \                                 In segment CODE, align 4, keep-with-next
    610          void AIPressSensor_mV::SetStatus(U8 *NewStatus)
    611          {
    612              ADConfigData = *(ConfigPacket*)NewStatus;
   \                     ??SetStatus:
   \   00000000   7E0F80E2           ADD      R0,R0,#+504
   \   00000004   0430A0E3           MOV      R3,#+4
   \                     ??SetStatus_1:
   \   00000008   013053E2           SUBS     R3,R3,#+1
   \   0000000C   0320D1E7           LDRB     R2,[R1, R3]
   \   00000010   0320C0E7           STRB     R2,[R0, R3]
   \   00000014   FBFFFF1A           BNE      ??SetStatus_1
    613          }
   \   00000018   1EFF2FE1           BX       LR               ;; return
    614          

   \                                 In segment CODE, align 4, keep-with-next
    615          void AIPressSensor_mV::SetTmpSnsPtr(AITempSensor *SnsPtr)
    616          {
    617              tmpSnsPtr = SnsPtr;
   \                     ??SetTmpSnsPtr:
   \   00000000   C01180E5           STR      R1,[R0, #+448]
    618          }
   \   00000004   1EFF2FE1           BX       LR               ;; return
    619          

   \                                 In segment CODE, align 4, keep-with-next
    620          AITempSensor* AIPressSensor_mV::GetTmpSnsPtr(void)
    621          {
    622              return tmpSnsPtr;
   \                     ??GetTmpSnsPtr:
   \   00000000   C00190E5           LDR      R0,[R0, #+448]
   \   00000004   1EFF2FE1           BX       LR               ;; return
    623          }

   \                                 In segment DIFUNCT, align 4, keep-with-next, root
   \   00000000                      REQUIRE ?call_ctors
   \   00000000   ........           DC32    ??__sti__routine

   \                                 In segment DATA_C, align 1, align-sorted
   \                     `?<Constant "0%">`:
   \   00000000   302500             DC8 "0%"

   \                                 In segment DATA_C, align 4, align-sorted
   \                     `?<Constant "40%">`:
   \   00000000   34302500           DC8 "40%"

   \                                 In segment DATA_C, align 4, align-sorted
   \                     `?<Constant "60%">`:
   \   00000000   36302500           DC8 "60%"

   \                                 In segment DATA_C, align 4, align-sorted
   \                     `?<Constant "100%">`:
   \   00000000   3130302500         DC8 "100%"
   \   00000005   000000             DC8 0, 0, 0

   \                                 In segment DATA_C, align 4, align-sorted
   \                     `?<Constant {&"0%", &"40%", &"60%", &"100%"}>`:
   \   00000000   ............       DC32 `?<Constant "0%">`, `?<Constant "40%">`, `?<Constant "60%">`
   \              ............
   \   0000000C   ........           DC32 `?<Constant "100%">`
   \   00000010   496E64657845       DC8 "IndexErr"
   \              727200      
   \   00000019   000000             DC8 0, 0, 0

   \                                 In segment DATA_C, align 1, align-sorted
   \   00000000   534B00             DC8 "SK"

   \                                 In segment DATA_C, align 1, align-sorted
   \   00000000   533000             DC8 "S0"

   \                                 In segment DATA_C, align 1, align-sorted
   \   00000000   5300               DC8 "S"

   \                                 In segment CODE, align 4, keep-with-next
   \   __??Code32?? __code __interwork __atpcs AIPressSensor_mV &AIPressSensor_mV::new AIPressSensor_mV(int, bool)
   \                     `??new AIPressSensor_mV`:
   \   00000000   30402DE9           PUSH     {R4,R5,LR}
   \   00000004   0040A0E1           MOV      R4,R0
   \   00000008   0150A0E1           MOV      R5,R1
   \   0000000C   7F0FA0E3           MOV      R0,#+508
   \   00000010   ........           _BLF     `??operator new`,`??operator new??rA`
   \   00000014   000050E3           CMP      R0,#+0
   \   00000018   0200000A           BEQ      `??new AIPressSensor_mV_1`
   \   0000001C   0520A0E1           MOV      R2,R5
   \   00000020   0410A0E1           MOV      R1,R4
   \   00000024   ........           BL       ??AIPressSensor_mV
   \                     `??new AIPressSensor_mV_1`:
   \   00000028   ........           B        ?Subroutine16

   \                                 In segment CODE, align 4, keep-with-next
   \   static __??Code32?? __intrinsic __code __interwork __atpcs void __sti__routine()
   \                     ??__sti__routine:
   \   00000000   1EFF2FE1           BX       LR               ;; return

   \                                 In segment CODE, align 4, keep-with-next
   \                     ??DataTable13:
   \   00000000   ........           DC32     ??npos

   \                                 In segment CODE, align 4, keep-with-next
   \                     ??DataTable16:
   \   00000000   7ED30D00           DC32     0xdd37e

   \                                 In segment CODE, align 4, keep-with-next
   \                     ??DataTable17:
   \   00000000   006AF840           DC32     0x40f86a00

   \                                 In segment CODE, align 4, keep-with-next
   \                     ??DataTable20:
   \   00000000   ........           DC32     ??npos

   Maximum stack usage in bytes:

     Function                       CSTACK
     --------                       ------
     AIPressSensor_mV::AIPressSensor_mV(int, bool)
                                       24
     AIPressSensor_mV::Calculate()     20
     AIPressSensor_mV::GetStringValue(int, int, AnsiString &)
                                      328
     AIPressSensor_mV::GetTmpSnsPtr()
                                        0
     AIPressSensor_mV::GetValue(int, int, float &, int &, int &)
                                       36
     AIPressSensor_mV::PackSensorData(unsigned char *)
                                      144
     AIPressSensor_mV::PutFloatValue(int, float)
                                        4
     AIPressSensor_mV::PutValue(int, int, AnsiString, bool, int *)
                                      120
     AIPressSensor_mV::ReceiveData(unsigned char *)
                                       64
     AIPressSensor_mV::SendData(unsigned short)
                                      132
     AIPressSensor_mV::SetStatus(unsigned char *)
                                        0
     AIPressSensor_mV::SetTmpSnsPtr(AITempSensor *)
                                        0
     AIPressSensor_mV::UnpackSensorData(unsigned char *)
                                      164
     AIPressSensor_mV::new AIPressSensor_mV(int, bool)
                                       12
     AIPressSensor_mV::~AIPressSensor_mV()
                                       12
     AnsiString::AnsiString(AnsiString const &)
                                       12
     _Tree<_Tset_traits<AlarmBasic *, less<AlarmBasic *>, allocator<AlarmBasic *>, false>>::_Insert(bool, _Tree<_Tset_traits<AlarmBasic *, less<AlarmBasic *>, allocator<AlarmBasic *>, false>>::_Nodeptr, AlarmBasic *)
                                       24
     _Tree<_Tset_traits<AlarmBasic *, less<AlarmBasic *>, allocator<AlarmBasic *>, false>>::insert(AlarmBasic *)
                                       44
     _Tree_algobase<allocator<void>>::_DecP(_Tree_algobase<allocator<void>>::_Genptr)
                                        0
     _Tree_algobase<allocator<void>>::_Insert(bool, _Tree_algobase<allocator<void>>::_Genptr, _Tree_algobase<allocator<void>>::_Genptr)
                                       20
     _Tree_algobase<allocator<void>>::_Lrotate(_Tree_algobase<allocator<void>>::_Genptr)
                                        0
     _Tree_algobase<allocator<void>>::_Rrotate(_Tree_algobase<allocator<void>>::_Genptr)
                                        0
     __sti__routine()                   0
     operator+(string const &, string const &)
                                       48


   Segment part sizes:

     Function/Label                 Bytes
     --------------                 -----
     _Tree_algobase<allocator<void>>::_DecP(_Tree_algobase<allocator<void>>::_Genptr)
                                     100
     _Tree_algobase<allocator<void>>::_Rrotate(_Tree_algobase<allocator<void>>::_Genptr)
                                      84
     _Tree_algobase<allocator<void>>::_Lrotate(_Tree_algobase<allocator<void>>::_Genptr)
                                      84
     _Tree_algobase<allocator<void>>::_Insert(bool, _Tree_algobase<allocator<void>>::_Genptr, _Tree_algobase<allocator<void>>::_Genptr)
                                     356
     _Tree<_Tset_traits<AlarmBasic *, less<AlarmBasic *>, allocator<AlarmBasic *>, false>>::insert(AlarmBasic *)
                                     200
     _Tree<_Tset_traits<AlarmBasic *, less<AlarmBasic *>, allocator<AlarmBasic *>, false>>::_Insert(bool, _Tree<_Tset_traits<AlarmBasic *, less<AlarmBasic *>, allocator<AlarmBasic *>, false>>::_Nodeptr, AlarmBasic *)
                                      96
     operator+(string const &, string const &)
                                     156
     AnsiString::AnsiString(AnsiString const &)
                                      64
     AIPressSensor_mV::AIPressSensor_mV(int, bool)
                                     240
     AIPressSensor_mV::~AIPressSensor_mV()
                                      44
     ?Subroutine16                     8
     AIPressSensor_mV::Calculate()   280
     ?Subroutine17                    16
     AIPressSensor_mV::PutValue(int, int, AnsiString, bool, int *)
                                     584
     AIPressSensor_mV::GetValue(int, int, float &, int &, int &)
                                     200
     ?Subroutine18                    28
     AIPressSensor_mV::GetStringValue(int, int, AnsiString &)
                                    1072
     AIPressSensor_mV::PutFloatValue(int, float)
                                      16
     AIPressSensor_mV::ReceiveData(unsigned char *)
                                     680
     AIPressSensor_mV::SendData(unsigned short)
                                     680
     AIPressSensor_mV::PackSensorData(unsigned char *)
                                    1168
     AIPressSensor_mV::UnpackSensorData(unsigned char *)
                                    1368
     AIPressSensor_mV::SetStatus(unsigned char *)
                                      28
     AIPressSensor_mV::SetTmpSnsPtr(AITempSensor *)
                                       8
     AIPressSensor_mV::GetTmpSnsPtr()
                                       8
     ?<Constant "0%">                  3
     ?<Constant "40%">                 4
     ?<Constant "60%">                 4
     ?<Constant "100%">                8
     ?<Constant {&"0%", &"40%", &"60%", &"100%"}>
                                      28
     ?<Constant "SK">                  3
     ?<Constant "S0">                  3
     ?<Constant "S">                   2
     AIPressSensor_mV::new AIPressSensor_mV(int, bool)
                                      44
     __sti__routine()                  4
     ??DataTable13                     4
     ??DataTable16                     4
     ??DataTable17                     4
     ??DataTable20                     4
      Others                         868

 
 8 344 bytes in segment CODE
   207 bytes in segment DATA_C
     4 bytes in segment DIFUNCT
 
 6 496 bytes of CODE  memory (+ 1 852 bytes shared)
   207 bytes of CONST memory

Errors: none
Warnings: none
