##############################################################################
#                                                                            #
# IAR ARM ANSI C/C++ Compiler V4.42A/W32               14/Sep/2022  15:11:36 #
# Copyright 1999-2005 IAR Systems. All rights reserved.                      #
#                                                                            #
#    Cpu mode        =  interwork                                            #
#    Endian          =  little                                               #
#    Stack alignment =  4                                                    #
#    Source file     =  D:\S2Prog\Shared\Src\AITempSensor_Pt1000.cpp         #
#    Command line    =  D:\S2Prog\Shared\Src\AITempSensor_Pt1000.cpp --fpu   #
#                       None -D OS_LIBMODE_SP -D CPU_S3C2410 -D              #
#                       OS_RAMVECT=0 -D OS_UART=-1 -D S2TXU -D USE_LZO=1 -D  #
#                       __ARM_LIBRARY__ -D WATCHDOG=1 -D NETWORK=1 -lCN      #
#                       D:\S2Prog\TXU\Debug\List\ -o                         #
#                       D:\S2Prog\TXU\Debug\Obj\ -z9 --debug --cpu_mode arm  #
#                       --endian little --cpu ARM920T --stack_align 4        #
#                       --interwork -e --enable_multibytes --eec++           #
#                       --dlib_config "C:\Program Files (x86)\IAR            #
#                       Systems\Embedded Workbench                           #
#                       4.0\arm\LIB\dl4tpainl8n.h" -I                        #
#                       D:\S2Prog\TXU\GUI\CORE\ -I D:\S2Prog\TXU\GUI\WM\ -I  #
#                       D:\S2Prog\TXU\GUI\WIDGET\ -I D:\S2Prog\TXU\CONFIG\   #
#                       -I D:\S2Prog\TXU\INC\ -I D:\S2Prog\TXU\..\SHARED\INC #
#                       \ -I D:\S2Prog\TXU\..\SHARED\SRC\ -I                 #
#                       D:\S2Prog\TXU\..\SHARED\LZO\minilzo.210\ -I          #
#                       D:\S2Prog\TXU\lwip-1.4.1\src\include\ -I             #
#                       D:\S2Prog\TXU\lwip-1.4.1\src\include\ipv4\ -I        #
#                       D:\S2Prog\TXU\lwip-1.4.1\src\ -I                     #
#                       D:\S2Prog\TXU\..\SHARED\Database\ -I                 #
#                       D:\S2Prog\TXU\src\ -I "C:\Program Files (x86)\IAR    #
#                       Systems\Embedded Workbench 4.0\arm\INC\"             #
#                       --inline_threshold=2                                 #
#    List file       =  D:\S2Prog\TXU\Debug\List\AITempSensor_Pt1000.lst     #
#    Object file     =  D:\S2Prog\TXU\Debug\Obj\AITempSensor_Pt1000.r79      #
#                                                                            #
#                                                                            #
##############################################################################

D:\S2Prog\Shared\Src\AITempSensor_Pt1000.cpp
      1          #include "TSNIncludes.h"

   \                                 In segment CODE, align 4, keep-with-next
   \   __??Code32?? __code __interwork __atpcs _Tree_algobase<allocator<void>>::_Genptr _Tree_algobase<allocator<void>>::_DecP(_Tree_algobase<allocator<void>>::_Genptr)
   \                     ??_DecP:
   \   00000000   0D10D0E5           LDRB     R1,[R0, #+13]
   \   00000004   000051E3           CMP      R1,#+0
   \   00000008   08009015           LDRNE    R0,[R0, #+8]
   \   0000000C   1EFF2F11           BXNE     LR
   \   00000010   001090E5           LDR      R1,[R0, #+0]
   \   00000014   0D20D1E5           LDRB     R2,[R1, #+13]
   \   00000018   000052E3           CMP      R2,#+0
   \   0000001C   0700001A           BNE      ??_DecP_1
   \   00000020   000000EA           B        ??_DecP_2
   \                     ??_DecP_3:
   \   00000024   0010A0E1           MOV      R1,R0
   \                     ??_DecP_2:
   \   00000028   080091E5           LDR      R0,[R1, #+8]
   \   0000002C   0D20D0E5           LDRB     R2,[R0, #+13]
   \   00000030   000052E3           CMP      R2,#+0
   \   00000034   FAFFFF0A           BEQ      ??_DecP_3
   \   00000038   0100A0E1           MOV      R0,R1
   \   0000003C   1EFF2FE1           BX       LR
   \                     ??_DecP_1:
   \   00000040   041090E5           LDR      R1,[R0, #+4]
   \   00000044   0D20D1E5           LDRB     R2,[R1, #+13]
   \   00000048   000052E3           CMP      R2,#+0
   \   0000004C   1EFF2F11           BXNE     LR
   \   00000050   002091E5           LDR      R2,[R1, #+0]
   \   00000054   020050E1           CMP      R0,R2
   \   00000058   0100A0E1           MOV      R0,R1
   \   0000005C   F7FFFF0A           BEQ      ??_DecP_1
   \   00000060   1EFF2FE1           BX       LR               ;; return

   \                                 In segment CODE, align 4, keep-with-next
   \   __??Code32?? __code __interwork __atpcs void _Tree_algobase<allocator<void>>::_Rrotate(_Tree_algobase<allocator<void>>::_Genptr)
   \                     ??_Rrotate:
   \   00000000   002091E5           LDR      R2,[R1, #+0]
   \   00000004   083092E5           LDR      R3,[R2, #+8]
   \   00000008   003081E5           STR      R3,[R1, #+0]
   \   0000000C   083092E5           LDR      R3,[R2, #+8]
   \   00000010   0DC0D3E5           LDRB     R12,[R3, #+13]
   \   00000014   00005CE3           CMP      R12,#+0
   \   00000018   04108305           STREQ    R1,[R3, #+4]
   \   0000001C   043091E5           LDR      R3,[R1, #+4]
   \   00000020   043082E5           STR      R3,[R2, #+4]
   \   00000024   043090E5           LDR      R3,[R0, #+4]
   \   00000028   030051E1           CMP      R1,R3
   \   0000002C   04208005           STREQ    R2,[R0, #+4]
   \   00000030   0400000A           BEQ      ??_Rrotate_1
   \   00000034   040091E5           LDR      R0,[R1, #+4]
   \   00000038   083090E5           LDR      R3,[R0, #+8]
   \   0000003C   030051E1           CMP      R1,R3
   \   00000040   08208005           STREQ    R2,[R0, #+8]
   \   00000044   00208015           STRNE    R2,[R0, #+0]
   \                     ??_Rrotate_1:
   \   00000048   081082E5           STR      R1,[R2, #+8]
   \   0000004C   042081E5           STR      R2,[R1, #+4]
   \   00000050   1EFF2FE1           BX       LR               ;; return

   \                                 In segment CODE, align 4, keep-with-next
   \   __??Code32?? __code __interwork __atpcs void _Tree_algobase<allocator<void>>::_Lrotate(_Tree_algobase<allocator<void>>::_Genptr)
   \                     ??_Lrotate:
   \   00000000   082091E5           LDR      R2,[R1, #+8]
   \   00000004   003092E5           LDR      R3,[R2, #+0]
   \   00000008   083081E5           STR      R3,[R1, #+8]
   \   0000000C   003092E5           LDR      R3,[R2, #+0]
   \   00000010   0DC0D3E5           LDRB     R12,[R3, #+13]
   \   00000014   00005CE3           CMP      R12,#+0
   \   00000018   04108305           STREQ    R1,[R3, #+4]
   \   0000001C   043091E5           LDR      R3,[R1, #+4]
   \   00000020   043082E5           STR      R3,[R2, #+4]
   \   00000024   043090E5           LDR      R3,[R0, #+4]
   \   00000028   030051E1           CMP      R1,R3
   \   0000002C   04208005           STREQ    R2,[R0, #+4]
   \   00000030   0400000A           BEQ      ??_Lrotate_1
   \   00000034   040091E5           LDR      R0,[R1, #+4]
   \   00000038   003090E5           LDR      R3,[R0, #+0]
   \   0000003C   030051E1           CMP      R1,R3
   \   00000040   00208005           STREQ    R2,[R0, #+0]
   \   00000044   08208015           STRNE    R2,[R0, #+8]
   \                     ??_Lrotate_1:
   \   00000048   001082E5           STR      R1,[R2, #+0]
   \   0000004C   042081E5           STR      R2,[R1, #+4]
   \   00000050   1EFF2FE1           BX       LR               ;; return

   \                                 In segment CODE, align 4, keep-with-next
   \   __??Code32?? __code __interwork __atpcs void _Tree_algobase<allocator<void>>::_Insert(bool, _Tree_algobase<allocator<void>>::_Genptr, _Tree_algobase<allocator<void>>::_Genptr)
   \                     ??_Insert:
   \   00000000   F0402DE9           PUSH     {R4-R7,LR}
   \   00000004   0040A0E1           MOV      R4,R0
   \   00000008   100094E5           LDR      R0,[R4, #+16]
   \   0000000C   0350A0E1           MOV      R5,R3
   \   00000010   010080E2           ADD      R0,R0,#+1
   \   00000014   100084E5           STR      R0,[R4, #+16]
   \   00000018   040052E1           CMP      R2,R4
   \   0000001C   0300001A           BNE      ??_Insert_2
   \   00000020   045084E5           STR      R5,[R4, #+4]
   \   00000024   005084E5           STR      R5,[R4, #+0]
   \                     ??_Insert_3:
   \   00000028   085084E5           STR      R5,[R4, #+8]
   \   0000002C   130000EA           B        ??_Insert_4
   \                     ??_Insert_2:
   \   00000030   000051E3           CMP      R1,#+0
   \   00000034   0500000A           BEQ      ??_Insert_5
   \   00000038   005082E5           STR      R5,[R2, #+0]
   \   0000003C   000094E5           LDR      R0,[R4, #+0]
   \   00000040   000052E1           CMP      R2,R0
   \   00000044   0D00001A           BNE      ??_Insert_4
   \   00000048   005084E5           STR      R5,[R4, #+0]
   \   0000004C   0B0000EA           B        ??_Insert_4
   \                     ??_Insert_5:
   \   00000050   085082E5           STR      R5,[R2, #+8]
   \   00000054   080094E5           LDR      R0,[R4, #+8]
   \   00000058   000052E1           CMP      R2,R0
   \   0000005C   0700001A           BNE      ??_Insert_4
   \   00000060   F0FFFFEA           B        ??_Insert_3
   \                     ??_Insert_6:
   \   00000064   0C70C0E5           STRB     R7,[R0, #+12]
   \   00000068   0C70C2E5           STRB     R7,[R2, #+12]
   \   0000006C   040095E5           LDR      R0,[R5, #+4]
   \   00000070   040090E5           LDR      R0,[R0, #+4]
   \   00000074   0C60C0E5           STRB     R6,[R0, #+12]
   \   00000078   040095E5           LDR      R0,[R5, #+4]
   \   0000007C   045090E5           LDR      R5,[R0, #+4]
   \                     ??_Insert_4:
   \   00000080   0170A0E3           MOV      R7,#+1
   \   00000084   040095E5           LDR      R0,[R5, #+4]
   \   00000088   0C10D0E5           LDRB     R1,[R0, #+12]
   \   0000008C   000051E3           CMP      R1,#+0
   \   00000090   2F00001A           BNE      ??_Insert_7
   \   00000094   041090E5           LDR      R1,[R0, #+4]
   \   00000098   0060A0E3           MOV      R6,#+0
   \   0000009C   001091E5           LDR      R1,[R1, #+0]
   \   000000A0   010050E1           CMP      R0,R1
   \   000000A4   041090E5           LDR      R1,[R0, #+4]
   \   000000A8   1400001A           BNE      ??_Insert_8
   \   000000AC   082091E5           LDR      R2,[R1, #+8]
   \   000000B0   0C10D2E5           LDRB     R1,[R2, #+12]
   \   000000B4   000051E3           CMP      R1,#+0
   \   000000B8   E9FFFF0A           BEQ      ??_Insert_6
   \   000000BC   081090E5           LDR      R1,[R0, #+8]
   \   000000C0   010055E1           CMP      R5,R1
   \   000000C4   0300001A           BNE      ??_Insert_9
   \   000000C8   0050A0E1           MOV      R5,R0
   \   000000CC   0510A0E1           MOV      R1,R5
   \   000000D0   0400A0E1           MOV      R0,R4
   \   000000D4   ........           _BLF     ??_Lrotate,??_Lrotate??rA
   \                     ??_Insert_9:
   \   000000D8   040095E5           LDR      R0,[R5, #+4]
   \   000000DC   0C70C0E5           STRB     R7,[R0, #+12]
   \   000000E0   040095E5           LDR      R0,[R5, #+4]
   \   000000E4   040090E5           LDR      R0,[R0, #+4]
   \   000000E8   0C60C0E5           STRB     R6,[R0, #+12]
   \   000000EC   040095E5           LDR      R0,[R5, #+4]
   \   000000F0   041090E5           LDR      R1,[R0, #+4]
   \   000000F4   0400A0E1           MOV      R0,R4
   \   000000F8   ........           _BLF     ??_Rrotate,??_Rrotate??rA
   \   000000FC   DFFFFFEA           B        ??_Insert_4
   \                     ??_Insert_8:
   \   00000100   002091E5           LDR      R2,[R1, #+0]
   \   00000104   0C10D2E5           LDRB     R1,[R2, #+12]
   \   00000108   000051E3           CMP      R1,#+0
   \   0000010C   D4FFFF0A           BEQ      ??_Insert_6
   \   00000110   001090E5           LDR      R1,[R0, #+0]
   \   00000114   010055E1           CMP      R5,R1
   \   00000118   0300001A           BNE      ??_Insert_10
   \   0000011C   0050A0E1           MOV      R5,R0
   \   00000120   0510A0E1           MOV      R1,R5
   \   00000124   0400A0E1           MOV      R0,R4
   \   00000128   ........           _BLF     ??_Rrotate,??_Rrotate??rA
   \                     ??_Insert_10:
   \   0000012C   040095E5           LDR      R0,[R5, #+4]
   \   00000130   0C70C0E5           STRB     R7,[R0, #+12]
   \   00000134   040095E5           LDR      R0,[R5, #+4]
   \   00000138   040090E5           LDR      R0,[R0, #+4]
   \   0000013C   0C60C0E5           STRB     R6,[R0, #+12]
   \   00000140   040095E5           LDR      R0,[R5, #+4]
   \   00000144   041090E5           LDR      R1,[R0, #+4]
   \   00000148   0400A0E1           MOV      R0,R4
   \   0000014C   ........           _BLF     ??_Lrotate,??_Lrotate??rA
   \   00000150   CAFFFFEA           B        ??_Insert_4
   \                     ??_Insert_7:
   \   00000154   040094E5           LDR      R0,[R4, #+4]
   \   00000158   0C70C0E5           STRB     R7,[R0, #+12]
   \   0000015C   F040BDE8           POP      {R4-R7,LR}
   \   00000160   1EFF2FE1           BX       LR               ;; return

   \                                 In segment CODE, align 4, keep-with-next
   \   __??Code32?? __code __interwork __atpcs _Tree<_Tset_traits<AlarmBasic *, less<AlarmBasic *>, allocator<AlarmBasic *>, false>>::_Pairib _Tree<_Tset_traits<AlarmBasic *, less<AlarmBasic *>, allocator<AlarmBasic *>, false>>::insert(AlarmBasic *)
   \                     ??insert:
   \   00000000   F34C2DE9           PUSH     {R0,R1,R4-R7,R10,R11,LR}
   \   00000004   0040A0E1           MOV      R4,R0
   \   00000008   0150A0E1           MOV      R5,R1
   \   0000000C   040095E5           LDR      R0,[R5, #+4]
   \   00000010   0260A0E1           MOV      R6,R2
   \   00000014   05B0A0E1           MOV      R11,R5
   \   00000018   0170A0E3           MOV      R7,#+1
   \                     ??insert_1:
   \   0000001C   0D10D0E5           LDRB     R1,[R0, #+13]
   \   00000020   000051E3           CMP      R1,#+0
   \   00000024   0700001A           BNE      ??insert_2
   \   00000028   101090E5           LDR      R1,[R0, #+16]
   \   0000002C   00B0A0E1           MOV      R11,R0
   \   00000030   010056E1           CMP      R6,R1
   \   00000034   00009035           LDRCC    R0,[R0, #+0]
   \   00000038   0170A033           MOVCC    R7,#+1
   \   0000003C   08009025           LDRCS    R0,[R0, #+8]
   \   00000040   0070A023           MOVCS    R7,#+0
   \   00000044   F4FFFFEA           B        ??insert_1
   \                     ??insert_2:
   \   00000048   0B00A0E1           MOV      R0,R11
   \   0000004C   01A0A0E3           MOV      R10,#+1
   \   00000050   000057E3           CMP      R7,#+0
   \   00000054   0B00000A           BEQ      ??insert_3
   \   00000058   001095E5           LDR      R1,[R5, #+0]
   \   0000005C   010050E1           CMP      R0,R1
   \   00000060   0700001A           BNE      ??insert_4
   \   00000064   0630A0E1           MOV      R3,R6
   \   00000068   0B20A0E1           MOV      R2,R11
   \   0000006C   0110A0E3           MOV      R1,#+1
   \                     ??insert_5:
   \   00000070   0500A0E1           MOV      R0,R5
   \   00000074   ........           _BLF     ??_Insert_1,??_Insert??rA
   \   00000078   00008DE5           STR      R0,[SP, #+0]
   \   0000007C   04A0CDE5           STRB     R10,[SP, #+4]
   \   00000080   0A0000EA           B        ??insert_6
   \                     ??insert_4:
   \   00000084   ........           _BLF     ??_DecP,??_DecP??rA
   \                     ??insert_3:
   \   00000088   101090E5           LDR      R1,[R0, #+16]
   \   0000008C   060051E1           CMP      R1,R6
   \   00000090   0300002A           BCS      ??insert_7
   \   00000094   0630A0E1           MOV      R3,R6
   \   00000098   0B20A0E1           MOV      R2,R11
   \   0000009C   0710A0E1           MOV      R1,R7
   \   000000A0   F2FFFFEA           B        ??insert_5
   \                     ??insert_7:
   \   000000A4   00008DE5           STR      R0,[SP, #+0]
   \   000000A8   0010A0E3           MOV      R1,#+0
   \   000000AC   0410CDE5           STRB     R1,[SP, #+4]
   \                     ??insert_6:
   \   000000B0   0D00A0E1           MOV      R0,SP
   \   000000B4   030090E8           LDM      R0,{R0,R1}
   \   000000B8   030084E8           STM      R4,{R0,R1}
   \   000000BC   0400A0E1           MOV      R0,R4
   \   000000C0   F64CBDE8           POP      {R1,R2,R4-R7,R10,R11,LR}
   \   000000C4   1EFF2FE1           BX       LR               ;; return

   \                                 In segment CODE, align 4, keep-with-next
   \   __??Code32?? __code __interwork __atpcs _Tree<_Tset_traits<AlarmBasic *, less<AlarmBasic *>, allocator<AlarmBasic *>, false>>::iterator _Tree<_Tset_traits<AlarmBasic *, less<AlarmBasic *>, allocator<AlarmBasic *>, false>>::_Insert(bool, _Tree<_Tset_traits<AlarmBasic *, less<AlarmBasic *>, allocator<AlarmBasic *>, false>>::_Nodeptr, AlarmBasic *)
   \                     ??_Insert_1:
   \   00000000   F0412DE9           PUSH     {R4-R8,LR}
   \   00000004   0040A0E1           MOV      R4,R0
   \   00000008   0150A0E1           MOV      R5,R1
   \   0000000C   0260A0E1           MOV      R6,R2
   \   00000010   0370A0E1           MOV      R7,R3
   \   00000014   1400A0E3           MOV      R0,#+20
   \   00000018   ........           _BLF     `??operator new`,`??operator new??rA`
   \   0000001C   0080B0E1           MOVS     R8,R0
   \   00000020   0600000A           BEQ      ??_Insert_11
   \   00000024   004088E5           STR      R4,[R8, #+0]
   \   00000028   046088E5           STR      R6,[R8, #+4]
   \   0000002C   084088E5           STR      R4,[R8, #+8]
   \   00000030   0000A0E3           MOV      R0,#+0
   \   00000034   0C00C8E5           STRB     R0,[R8, #+12]
   \   00000038   0D00C8E5           STRB     R0,[R8, #+13]
   \   0000003C   107088E5           STR      R7,[R8, #+16]
   \                     ??_Insert_11:
   \   00000040   0830A0E1           MOV      R3,R8
   \   00000044   0620A0E1           MOV      R2,R6
   \   00000048   0510A0E1           MOV      R1,R5
   \   0000004C   0400A0E1           MOV      R0,R4
   \   00000050   ........           _BLF     ??_Insert,??_Insert??rA_1
   \   00000054   0800A0E1           MOV      R0,R8
   \   00000058   F041BDE8           POP      {R4-R8,LR}
   \   0000005C   1EFF2FE1           BX       LR               ;; return

   \                                 In segment CODE, align 4, keep-with-next
   \   __??Code32?? __code __interwork __atpcs void operator+(string const &, string const &)
   \                     `??operator+`:
   \   00000000   F0402DE9           PUSH     {R4-R7,LR}
   \   00000004   1CD04DE2           SUB      SP,SP,#+28
   \   00000008   0040A0E1           MOV      R4,R0
   \   0000000C   0150A0E1           MOV      R5,R1
   \   00000010   0260A0E1           MOV      R6,R2
   \   00000014   0020A0E3           MOV      R2,#+0
   \   00000018   0010A0E3           MOV      R1,#+0
   \   0000001C   0D00A0E1           MOV      R0,SP
   \   00000020   ........           _BLF     ??_Tidy,??_Tidy??rA
   \   00000024   6C009FE5           LDR      R0,`??operator+_1`  ;; ??npos
   \   00000028   0020A0E3           MOV      R2,#+0
   \   0000002C   007090E5           LDR      R7,[R0, #+0]
   \   00000030   0510A0E1           MOV      R1,R5
   \   00000034   0730A0E1           MOV      R3,R7
   \   00000038   0D00A0E1           MOV      R0,SP
   \   0000003C   ........           _BLF     ??assign,??assign??rA
   \   00000040   0730A0E1           MOV      R3,R7
   \   00000044   0020A0E3           MOV      R2,#+0
   \   00000048   0610A0E1           MOV      R1,R6
   \   0000004C   0D00A0E1           MOV      R0,SP
   \   00000050   ........           _BLF     ??append,??append??rA
   \   00000054   0050A0E1           MOV      R5,R0
   \   00000058   0020A0E3           MOV      R2,#+0
   \   0000005C   0210A0E1           MOV      R1,R2
   \   00000060   0400A0E1           MOV      R0,R4
   \   00000064   ........           _BLF     ??_Tidy,??_Tidy??rA
   \   00000068   0730A0E1           MOV      R3,R7
   \   0000006C   0020A0E3           MOV      R2,#+0
   \   00000070   0510A0E1           MOV      R1,R5
   \   00000074   0400A0E1           MOV      R0,R4
   \   00000078   ........           _BLF     ??assign,??assign??rA
   \   0000007C   0020A0E3           MOV      R2,#+0
   \   00000080   0110A0E3           MOV      R1,#+1
   \   00000084   0D00A0E1           MOV      R0,SP
   \   00000088   ........           _BLF     ??_Tidy,??_Tidy??rA
   \   0000008C   1CD08DE2           ADD      SP,SP,#+28
   \   00000090   F040BDE8           POP      {R4-R7,LR}
   \   00000094   1EFF2FE1           BX       LR               ;; return
   \                     `??operator+_1`:
   \   00000098   ........           DC32     ??npos
      2          #pragma hdrstop
      3          #ifdef BORLAND
      4              #pragma package(smart_init)
      5          #endif
      6          
      7          //---------------------------------------------------------------------------
      8          

   \                                 In segment CODE, align 4, keep-with-next
      9          AITempSensor_Pt1000::AITempSensor_Pt1000(float pRadarDistance)
   \                     ??AITempSensor_Pt1000:
   \   00000000   30402DE9           PUSH     {R4,R5,LR}
   \   00000004   0040A0E1           MOV      R4,R0
   \   00000008   0150A0E1           MOV      R5,R1
     10          {
   \   0000000C   ........           _BLF     ??AITempSensor,??AITempSensor??rA
   \   00000010   ........           LDR      R0,??DataTable1  ;; ??__vtbl
     11              DistJunctionBoxToBot = pRadarDistance;
     12              Initialize(NULL);
   \   00000014   0010A0E3           MOV      R1,#+0
   \   00000018   A40084E5           STR      R0,[R4, #+164]
   \   0000001C   7C5184E5           STR      R5,[R4, #+380]
   \   00000020   ........           B        ?Subroutine14
     13          }

   \                                 In segment CODE, align 4, keep-with-next
   \                     ?Subroutine14:
   \   00000000   0400A0E1           MOV      R0,R4
   \   00000004   ........           BL       ??Initialize
   \   00000008   0400A0E1           MOV      R0,R4
   \                     ??Subroutine14_0:
   \   0000000C   3040BDE8           POP      {R4,R5,LR}
   \   00000010   1EFF2FE1           BX       LR               ;; return
     14          
     15          //---------------------------------------------------------------------------
     16          

   \                                 In segment CODE, align 4, keep-with-next
     17          AITempSensor_Pt1000::AITempSensor_Pt1000(AnalogInput *Sns) 
   \                     ??AITempSensor_Pt1000_1:
   \   00000000   30402DE9           PUSH     {R4,R5,LR}
   \   00000004   0040A0E1           MOV      R4,R0
   \   00000008   0150A0E1           MOV      R5,R1
     18          {
   \   0000000C   ........           _BLF     ??AITempSensor,??AITempSensor??rA
   \   00000010   ........           LDR      R0,??DataTable1  ;; ??__vtbl
     19              Initialize(Sns);
   \   00000014   0510A0E1           MOV      R1,R5
   \   00000018   A40084E5           STR      R0,[R4, #+164]
   \   0000001C                      REQUIRE ?Subroutine14
   \   0000001C                      ;; // Fall through to label ?Subroutine14
     20          }
     21          //---------------------------------------------------------------------------
     22          

   \                                 In segment CODE, align 4, keep-with-next
     23          AITempSensor_Pt1000::~AITempSensor_Pt1000(void)
     24          {
   \                     `?~AITempSensor_Pt1000`:
   \   00000000   30402DE9           PUSH     {R4,R5,LR}
   \   00000004   0040A0E1           MOV      R4,R0
   \   00000008   0150A0E1           MOV      R5,R1
   \   0000000C   000054E3           CMP      R4,#+0
   \   00000010   0500000A           BEQ      `?~AITempSensor_Pt1000_1`
     25          }
   \   00000014   0010A0E3           MOV      R1,#+0
   \   00000018   ........           _BLF     `?~AITempSensor`,`?~AITempSensor??rA`
   \   0000001C   010015E3           TST      R5,#0x1
   \   00000020   0100000A           BEQ      `?~AITempSensor_Pt1000_1`
   \   00000024   0400A0E1           MOV      R0,R4
   \   00000028   ........           _BLF     `??operator delete`,`??operator delete??rA`
   \                     `?~AITempSensor_Pt1000_1`:
   \   0000002C   ........           B        ??Subroutine14_0
     26          //---------------------------------------------------------------------------
     27          

   \                                 In segment CODE, align 4, keep-with-next
     28          void AITempSensor_Pt1000::Initialize(AnalogInput *Sns)
     29          {
   \                     ??Initialize:
   \   00000000   F3402DE9           PUSH     {R0,R1,R4-R7,LR}
   \   00000004   0040A0E1           MOV      R4,R0
   \   00000008   0150B0E1           MOVS     R5,R1
     30              if ( Sns ) {
   \   0000000C   4C0FA0E3           MOV      R0,#+304
   \   00000010   5F10A0E3           MOV      R1,#+95
   \   00000014   801E81E3           ORR      R1,R1,#0x800
   \   00000018   5200000A           BEQ      ??Initialize_1
     31                  IsIntegrated      = true;
   \   0000001C   0120A0E3           MOV      R2,#+1
   \   00000020   8821C4E5           STRB     R2,[R4, #+392]
     32                  Distance          = Sns->Distance;
   \   00000024   2C2195E5           LDR      R2,[R5, #+300]
     33                  AdjustedDistance  = Distance;
     34                  Type              = C_AI_Pt1000;    //Type = Sns->Type;
     35                  Name              = Sns->Name;
     36                  SortNo            = Sns->SortNo;
     37                  TagName           = Sns->TagName;
     38                  SerialNumber      = Sns->SerialNumber;
     39                  TCUAddress        = Sns->TCUAddress;
     40                  //TCUPort               = Sns->TCUPort;
     41                  TCUPortNo         = Sns->TCUPortNo;
     42                  IOAddress         = Sns->IOAddress;
     43                  IOChannel         = Sns->IOChannel;
     44                  IOType            = Sns->IOType;
     45                  ADCardChannel     = Sns->ADCardChannel+1;
     46                  Location          = Sns->Location;
     47                  IsPressureSns     = Sns->GetIsPressureSns();
   \   00000028   487FA0E3           MOV      R7,#+288
   \   0000002C   2C2184E5           STR      R2,[R4, #+300]
   \   00000030   042080E7           STR      R2,[R0, +R4]
   \   00000034   ........           LDR      R0,??DataTable4  ;; ??npos
   \   00000038   A01084E5           STR      R1,[R4, #+160]
   \   0000003C   006090E5           LDR      R6,[R0, #+0]
   \   00000040   0020A0E3           MOV      R2,#+0
   \   00000044   0630A0E1           MOV      R3,R6
   \   00000048   441085E2           ADD      R1,R5,#+68
   \   0000004C   440084E2           ADD      R0,R4,#+68
   \   00000050   ........           _BLF     ??assign,??assign??rA
   \   00000054   980095E5           LDR      R0,[R5, #+152]
   \   00000058   0630A0E1           MOV      R3,R6
   \   0000005C   980084E5           STR      R0,[R4, #+152]
   \   00000060   0020A0E3           MOV      R2,#+0
   \   00000064   601085E2           ADD      R1,R5,#+96
   \   00000068   600084E2           ADD      R0,R4,#+96
   \   0000006C   ........           _BLF     ??assign,??assign??rA
   \   00000070   0630A0E1           MOV      R3,R6
   \   00000074   0020A0E3           MOV      R2,#+0
   \   00000078   D81085E2           ADD      R1,R5,#+216
   \   0000007C   D80084E2           ADD      R0,R4,#+216
   \   00000080   ........           _BLF     ??assign,??assign??rA
   \   00000084   F40095E5           LDR      R0,[R5, #+244]
   \   00000088   4A6FA0E3           MOV      R6,#+296
   \   0000008C   F40084E5           STR      R0,[R4, #+244]
   \   00000090   F80095E5           LDR      R0,[R5, #+248]
   \   00000094   F80084E5           STR      R0,[R4, #+248]
   \   00000098   400FA0E3           MOV      R0,#+256
   \   0000009C   051090E7           LDR      R1,[R0, +R5]
   \   000000A0   041080E7           STR      R1,[R0, +R4]
   \   000000A4   410FA0E3           MOV      R0,#+260
   \   000000A8   051090E7           LDR      R1,[R0, +R5]
   \   000000AC   041080E7           STR      R1,[R0, +R4]
   \   000000B0   FC0095E5           LDR      R0,[R5, #+252]
   \   000000B4   FC0084E5           STR      R0,[R4, #+252]
   \   000000B8   420FA0E3           MOV      R0,#+264
   \   000000BC   051090E7           LDR      R1,[R0, +R5]
   \   000000C0   011081E2           ADD      R1,R1,#+1
   \   000000C4   041080E7           STR      R1,[R0, +R4]
   \   000000C8   280195E5           LDR      R0,[R5, #+296]
   \   000000CC   040086E7           STR      R0,[R6, +R4]
   \   000000D0   0500A0E1           MOV      R0,R5
   \   000000D4   ........           _BLF     ??GetIsPressureSns,??GetIsPressureSns??rA
   \   000000D8   0400C7E7           STRB     R0,[R7, +R4]
     48                  if ( IsPressureSns ) {
   \   000000DC   000050E3           CMP      R0,#+0
     49                      Location = C_AI_LOC_VAPOUR;
   \   000000E0   E200A013           MOVNE    R0,#+226
   \   000000E4   800E8013           ORRNE    R0,R0,#0x800
   \   000000E8   04008617           STRNE    R0,[R6, +R4]
     50                  }
     51                  {
     52                      AIPressSensor_mV *tmpSensor =(AIPressSensor_mV *)Sns;
     53                      tmpSensor->SetTmpSnsPtr((AITempSensor*)this);
   \   000000EC   A42095E5           LDR      R2,[R5, #+164]
   \   000000F0   0410A0E1           MOV      R1,R4
   \   000000F4   882092E5           LDR      R2,[R2, #+136]
   \   000000F8   0500A0E1           MOV      R0,R5
   \   000000FC   0FE0A0E1           MOV      LR,PC
   \   00000100   12FF2FE1           BX       R2
     54                      CableLengthShip          = tmpSensor->CableLengthShip         ;
   \   00000104   5C0FA0E3           MOV      R0,#+368
   \   00000108   051090E7           LDR      R1,[R0, +R5]
   \   0000010C   641184E5           STR      R1,[R4, #+356]
     55                      CableLengthSensor        = tmpSensor->CableLengthSensor       ;
   \   00000110   5D1FA0E3           MOV      R1,#+372
   \   00000114   052091E7           LDR      R2,[R1, +R5]
   \   00000118   682184E5           STR      R2,[R4, #+360]
     56                      CableResistanceShip      = tmpSensor->CableResistanceShip     ;
   \   0000011C   782195E5           LDR      R2,[R5, #+376]
   \   00000120   6C2184E5           STR      R2,[R4, #+364]
     57                      CableResistanceSensor    = tmpSensor->CableResistanceSensor   ;
   \   00000124   7C2195E5           LDR      R2,[R5, #+380]
   \   00000128   042080E7           STR      R2,[R0, +R4]
     58                      CableMsrdResistance      = tmpSensor->CableMsrdResistance     ;
   \   0000012C   600FA0E3           MOV      R0,#+384
   \   00000130   052090E7           LDR      R2,[R0, +R5]
   \   00000134   042081E7           STR      R2,[R1, +R4]
     59                      hasCableLengthSensor     = tmpSensor->hasCableLengthSensor    ;
   \   00000138   8A11D5E5           LDRB     R1,[R5, #+394]
   \   0000013C   8211C4E5           STRB     R1,[R4, #+386]
     60                      hasCableResistanceShip   = tmpSensor->hasCableResistanceShip  ;
   \   00000140   8811D5E5           LDRB     R1,[R5, #+392]
   \   00000144   0410C0E7           STRB     R1,[R0, +R4]
     61                      hasCableResistanceSensor = tmpSensor->hasCableResistanceSensor;
   \   00000148   8901D5E5           LDRB     R0,[R5, #+393]
   \   0000014C   8101C4E5           STRB     R0,[R4, #+385]
     62                  }
     63                  CalculateCableCorrection();
   \   00000150   A41094E5           LDR      R1,[R4, #+164]
   \   00000154   0400A0E1           MOV      R0,R4
   \   00000158   841091E5           LDR      R1,[R1, #+132]
   \   0000015C   0FE0A0E1           MOV      LR,PC
   \   00000160   11FF2FE1           BX       R1
   \   00000164   030000EA           B        ??Initialize_2
     64              } else {
     65                  Type              = C_AI_Pt1000;
   \                     ??Initialize_1:
   \   00000168   A01084E5           STR      R1,[R4, #+160]
     66          		IsIntegrated      = false;
   \   0000016C   0010A0E3           MOV      R1,#+0
   \   00000170   8811C4E5           STRB     R1,[R4, #+392]
     67                  AdjustedDistance  = 0.0;
   \   00000174   041080E7           STR      R1,[R0, +R4]
     68          	}
     69          
     70              ADConfigData.CalError     = false;
   \                     ??Initialize_2:
   \   00000178   8C01D4E5           LDRB     R0,[R4, #+396]
   \   0000017C   8B11D4E5           LDRB     R1,[R4, #+395]
   \   00000180   000481E1           ORR      R0,R1,R0, LSL #+8
   \   00000184   8A11D4E5           LDRB     R1,[R4, #+394]
   \   00000188   000481E1           ORR      R0,R1,R0, LSL #+8
   \   0000018C   8911D4E5           LDRB     R1,[R4, #+393]
   \   00000190   000481E1           ORR      R0,R1,R0, LSL #+8
   \   00000194   0200C0E3           BIC      R0,R0,#0x2
   \   00000198   8901C4E5           STRB     R0,[R4, #+393]
   \   0000019C   2004A0E1           LSR      R0,R0,#+8
   \   000001A0   8A01C4E5           STRB     R0,[R4, #+394]
   \   000001A4   2004A0E1           LSR      R0,R0,#+8
   \   000001A8   8B01C4E5           STRB     R0,[R4, #+395]
   \   000001AC   2004A0E1           LSR      R0,R0,#+8
   \   000001B0   8C01C4E5           STRB     R0,[R4, #+396]
     71              ADConfigData.ConvError    = false;
   \   000001B4   8B11D4E5           LDRB     R1,[R4, #+395]
   \   000001B8   000481E1           ORR      R0,R1,R0, LSL #+8
   \   000001BC   8A11D4E5           LDRB     R1,[R4, #+394]
   \   000001C0   000481E1           ORR      R0,R1,R0, LSL #+8
   \   000001C4   8911D4E5           LDRB     R1,[R4, #+393]
   \   000001C8   000481E1           ORR      R0,R1,R0, LSL #+8
   \   000001CC   0100C0E3           BIC      R0,R0,#0x1
   \   000001D0   8901C4E5           STRB     R0,[R4, #+393]
   \   000001D4   2004A0E1           LSR      R0,R0,#+8
   \   000001D8   8A01C4E5           STRB     R0,[R4, #+394]
   \   000001DC   2004A0E1           LSR      R0,R0,#+8
   \   000001E0   8B01C4E5           STRB     R0,[R4, #+395]
   \   000001E4   2004A0E1           LSR      R0,R0,#+8
   \   000001E8   8C01C4E5           STRB     R0,[R4, #+396]
     72              ADConfigData.EEP_PCStatus = AD_EEPROM_OK;
   \   000001EC   8B11D4E5           LDRB     R1,[R4, #+395]
   \   000001F0   000481E1           ORR      R0,R1,R0, LSL #+8
   \   000001F4   8A11D4E5           LDRB     R1,[R4, #+394]
   \   000001F8   000481E1           ORR      R0,R1,R0, LSL #+8
   \   000001FC   8911D4E5           LDRB     R1,[R4, #+393]
   \   00000200   000481E1           ORR      R0,R1,R0, LSL #+8
   \   00000204   700EC0E3           BIC      R0,R0,#0x700
   \   00000208   400F80E3           ORR      R0,R0,#0x100
   \   0000020C   8901C4E5           STRB     R0,[R4, #+393]
   \   00000210   2004A0E1           LSR      R0,R0,#+8
   \   00000214   8A01C4E5           STRB     R0,[R4, #+394]
   \   00000218   2004A0E1           LSR      R0,R0,#+8
   \   0000021C   8B01C4E5           STRB     R0,[R4, #+395]
   \   00000220   2004A0E1           LSR      R0,R0,#+8
   \   00000224   8C01C4E5           STRB     R0,[R4, #+396]
     73              ADConfigData.EEPromStatus = AD_EEPROM_OK;
   \   00000228   8B11D4E5           LDRB     R1,[R4, #+395]
   \   0000022C   000481E1           ORR      R0,R1,R0, LSL #+8
   \   00000230   8A11D4E5           LDRB     R1,[R4, #+394]
   \   00000234   000481E1           ORR      R0,R1,R0, LSL #+8
   \   00000238   8911D4E5           LDRB     R1,[R4, #+393]
   \   0000023C   000481E1           ORR      R0,R1,R0, LSL #+8
   \   00000240   F00CC0E3           BIC      R0,R0,#0xF000
   \   00000244   400D80E3           ORR      R0,R0,#0x1000
   \   00000248   8901C4E5           STRB     R0,[R4, #+393]
   \   0000024C   2004A0E1           LSR      R0,R0,#+8
   \   00000250   8A01C4E5           STRB     R0,[R4, #+394]
   \   00000254   2004A0E1           LSR      R0,R0,#+8
   \   00000258   8B01C4E5           STRB     R0,[R4, #+395]
   \   0000025C   2004A0E1           LSR      R0,R0,#+8
   \   00000260   8C01C4E5           STRB     R0,[R4, #+396]
     74              ADConfigData.EEPUsePCData = false;
   \   00000264   8B11D4E5           LDRB     R1,[R4, #+395]
   \   00000268   000481E1           ORR      R0,R1,R0, LSL #+8
   \   0000026C   8A11D4E5           LDRB     R1,[R4, #+394]
   \   00000270   000481E1           ORR      R0,R1,R0, LSL #+8
   \   00000274   8911D4E5           LDRB     R1,[R4, #+393]
   \   00000278   000481E1           ORR      R0,R1,R0, LSL #+8
   \   0000027C   800EC0E3           BIC      R0,R0,#0x800
   \   00000280   8901C4E5           STRB     R0,[R4, #+393]
   \   00000284   2004A0E1           LSR      R0,R0,#+8
   \   00000288   8A01C4E5           STRB     R0,[R4, #+394]
   \   0000028C   2004A0E1           LSR      R0,R0,#+8
   \   00000290   8B01C4E5           STRB     R0,[R4, #+395]
   \   00000294   2004A0E1           LSR      R0,R0,#+8
   \   00000298   8C01C4E5           STRB     R0,[R4, #+396]
     75              ADConfigData.FoundSensor  = AD_NO_SNS;
   \   0000029C   8B11D4E5           LDRB     R1,[R4, #+395]
   \   000002A0   000481E1           ORR      R0,R1,R0, LSL #+8
   \   000002A4   8A11D4E5           LDRB     R1,[R4, #+394]
   \   000002A8   000481E1           ORR      R0,R1,R0, LSL #+8
   \   000002AC   8911D4E5           LDRB     R1,[R4, #+393]
   \   000002B0   000481E1           ORR      R0,R1,R0, LSL #+8
   \   000002B4   6000C0E3           BIC      R0,R0,#0x60
   \   000002B8   8901C4E5           STRB     R0,[R4, #+393]
   \   000002BC   2004A0E1           LSR      R0,R0,#+8
   \   000002C0   8A01C4E5           STRB     R0,[R4, #+394]
   \   000002C4   2004A0E1           LSR      R0,R0,#+8
   \   000002C8   8B01C4E5           STRB     R0,[R4, #+395]
   \   000002CC   2004A0E1           LSR      R0,R0,#+8
   \   000002D0   8C01C4E5           STRB     R0,[R4, #+396]
     76              ADConfigData.NewSensor    = false;
   \   000002D4   8B11D4E5           LDRB     R1,[R4, #+395]
   \   000002D8   000481E1           ORR      R0,R1,R0, LSL #+8
   \   000002DC   8A11D4E5           LDRB     R1,[R4, #+394]
   \   000002E0   000481E1           ORR      R0,R1,R0, LSL #+8
   \   000002E4   8911D4E5           LDRB     R1,[R4, #+393]
   \   000002E8   000481E1           ORR      R0,R1,R0, LSL #+8
   \   000002EC   8000C0E3           BIC      R0,R0,#0x80
   \   000002F0   8901C4E5           STRB     R0,[R4, #+393]
   \   000002F4   2004A0E1           LSR      R0,R0,#+8
   \   000002F8   8A01C4E5           STRB     R0,[R4, #+394]
   \   000002FC   2004A0E1           LSR      R0,R0,#+8
   \   00000300   8B01C4E5           STRB     R0,[R4, #+395]
   \   00000304   2004A0E1           LSR      R0,R0,#+8
   \   00000308   8C01C4E5           STRB     R0,[R4, #+396]
     77              ADConfigData.PCSensor     = AD_NO_SNS;
   \   0000030C   8B11D4E5           LDRB     R1,[R4, #+395]
   \   00000310   000481E1           ORR      R0,R1,R0, LSL #+8
   \   00000314   8A11D4E5           LDRB     R1,[R4, #+394]
   \   00000318   000481E1           ORR      R0,R1,R0, LSL #+8
   \   0000031C   8911D4E5           LDRB     R1,[R4, #+393]
   \   00000320   000481E1           ORR      R0,R1,R0, LSL #+8
   \   00000324   0C00C0E3           BIC      R0,R0,#0xC
   \   00000328   8901C4E5           STRB     R0,[R4, #+393]
   \   0000032C   2004A0E1           LSR      R0,R0,#+8
   \   00000330   8A01C4E5           STRB     R0,[R4, #+394]
   \   00000334   2004A0E1           LSR      R0,R0,#+8
   \   00000338   8B01C4E5           STRB     R0,[R4, #+395]
   \   0000033C   2004A0E1           LSR      R0,R0,#+8
   \   00000340   8C01C4E5           STRB     R0,[R4, #+396]
     78              ADConfigData.UsePCSetUp   = false;
   \   00000344   8B11D4E5           LDRB     R1,[R4, #+395]
   \   00000348   000481E1           ORR      R0,R1,R0, LSL #+8
   \   0000034C   8A11D4E5           LDRB     R1,[R4, #+394]
   \   00000350   000481E1           ORR      R0,R1,R0, LSL #+8
   \   00000354   8911D4E5           LDRB     R1,[R4, #+393]
   \   00000358   000481E1           ORR      R0,R1,R0, LSL #+8
   \   0000035C   1000C0E3           BIC      R0,R0,#0x10
   \   00000360   8901C4E5           STRB     R0,[R4, #+393]
   \   00000364   2004A0E1           LSR      R0,R0,#+8
   \   00000368   8A01C4E5           STRB     R0,[R4, #+394]
   \   0000036C   2004A0E1           LSR      R0,R0,#+8
   \   00000370   8B01C4E5           STRB     R0,[R4, #+395]
   \   00000374   2004A0E1           LSR      R0,R0,#+8
   \   00000378   8C01C4E5           STRB     R0,[R4, #+396]
     79          
     80              AlarmSensorConCalError *SnsHWErrAlPtr = new AlarmSensorConCalError( this,&ADConfigData);
   \   0000037C   8900A0E3           MOV      R0,#+137
   \   00000380   400F80E3           ORR      R0,R0,#0x100
   \   00000384   041080E0           ADD      R1,R0,R4
   \   00000388   0400A0E1           MOV      R0,R4
   \   0000038C   ........           _BLF     `??new AlarmSensorConCalError`,`??new AlarmSensorConCalError??rA`
     81              AlarmSet.insert(SnsHWErrAlPtr);
   \   00000390   0020A0E1           MOV      R2,R0
   \   00000394   C01084E2           ADD      R1,R4,#+192
   \   00000398   0D00A0E1           MOV      R0,SP
   \   0000039C   ........           _BLF     ??insert,??insert??rA
     82          }
   \   000003A0   F340BDE8           POP      {R0,R1,R4-R7,LR}
   \   000003A4   1EFF2FE1           BX       LR               ;; return
     83          
     84          //---------------------------------------------------------------------------

   \                                 In segment CODE, align 4, keep-with-next
     85          AnsiString AITempSensor_Pt1000::MakeConfigString(int ExtraTabs)
     86          {
   \                     ??MakeConfigString:
   \   00000000   F0432DE9           PUSH     {R4-R9,LR}
   \   00000004   C4D04DE2           SUB      SP,SP,#+196
   \   00000008   0040A0E1           MOV      R4,R0
   \   0000000C   0150A0E1           MOV      R5,R1
   \   00000010   0260A0E1           MOV      R6,R2
     87              AnsiString LocalString;
   \   00000014   0500A0E1           MOV      R0,R5
   \   00000018   ........           _BLF     ??AnsiString,??AnsiString??rA
     88              if ( !IsIntegrated ) {
   \   0000001C   8801D4E5           LDRB     R0,[R4, #+392]
   \   00000020   000050E3           CMP      R0,#+0
   \   00000024   4F00001A           BNE      ??MakeConfigString_2
     89                  LocalString +=TabStr1+KeyWord(C_AI_Pt1000)+CrLfStr;
   \   00000028   40719FE5           LDR      R7,??MakeConfigString_3  ;; TabStr1
   \   0000002C   40819FE5           LDR      R8,??MakeConfigString_3+0x4  ;; CrLfStr
   \   00000030   5F10A0E3           MOV      R1,#+95
   \   00000034   801E81E3           ORR      R1,R1,#0x800
   \   00000038   38008DE2           ADD      R0,SP,#+56
   \   0000003C   ........           _BLF     ??KeyWord,??KeyWord??rA
   \   00000040   38208DE2           ADD      R2,SP,#+56
   \   00000044   0710A0E1           MOV      R1,R7
   \   00000048   1C008DE2           ADD      R0,SP,#+28
   \   0000004C   ........           _BLF     `??operator+`,`??operator+??rA`
   \   00000050   0820A0E1           MOV      R2,R8
   \   00000054   1C108DE2           ADD      R1,SP,#+28
   \   00000058   0D00A0E1           MOV      R0,SP
   \   0000005C   ........           _BLF     `??operator+`,`??operator+??rA`
   \   00000060   ........           LDR      R0,??DataTable4  ;; ??npos
   \   00000064   0020A0E3           MOV      R2,#+0
   \   00000068   009090E5           LDR      R9,[R0, #+0]
   \   0000006C   0D10A0E1           MOV      R1,SP
   \   00000070   0930A0E1           MOV      R3,R9
   \   00000074   0500A0E1           MOV      R0,R5
   \   00000078   ........           _BLF     ??append,??append??rA
   \   0000007C   0020A0E3           MOV      R2,#+0
   \   00000080   0110A0E3           MOV      R1,#+1
   \   00000084   0D00A0E1           MOV      R0,SP
   \   00000088   ........           _BLF     ??_Tidy,??_Tidy??rA
   \   0000008C   0020A0E3           MOV      R2,#+0
   \   00000090   0110A0E3           MOV      R1,#+1
   \   00000094   1C008DE2           ADD      R0,SP,#+28
   \   00000098   ........           _BLF     ??_Tidy,??_Tidy??rA
   \   0000009C   0020A0E3           MOV      R2,#+0
   \   000000A0   0110A0E3           MOV      R1,#+1
   \   000000A4   38008DE2           ADD      R0,SP,#+56
   \   000000A8   ........           _BLF     ??_Tidy,??_Tidy??rA
     90                  LocalString += AnalogInput::MakeConfigString(ExtraTabs);
   \   000000AC   0620A0E1           MOV      R2,R6
   \   000000B0   54108DE2           ADD      R1,SP,#+84
   \   000000B4   0400A0E1           MOV      R0,R4
   \   000000B8   ........           _BLF     ??MakeConfigString_1,??MakeConfigString??rA
   \   000000BC   0930A0E1           MOV      R3,R9
   \   000000C0   0020A0E3           MOV      R2,#+0
   \   000000C4   54108DE2           ADD      R1,SP,#+84
   \   000000C8   0500A0E1           MOV      R0,R5
   \   000000CC   ........           _BLF     ??append,??append??rA
   \   000000D0   0020A0E3           MOV      R2,#+0
   \   000000D4   0110A0E3           MOV      R1,#+1
   \   000000D8   54008DE2           ADD      R0,SP,#+84
   \   000000DC   ........           _BLF     ??_Tidy,??_Tidy??rA
     91                  LocalString +=TabStr1+KeyWord(C_AI_END)+CrLfStr;
   \   000000E0   9810A0E3           MOV      R1,#+152
   \   000000E4   801E81E3           ORR      R1,R1,#0x800
   \   000000E8   A8008DE2           ADD      R0,SP,#+168
   \   000000EC   ........           _BLF     ??KeyWord,??KeyWord??rA
   \   000000F0   A8208DE2           ADD      R2,SP,#+168
   \   000000F4   0710A0E1           MOV      R1,R7
   \   000000F8   8C008DE2           ADD      R0,SP,#+140
   \   000000FC   ........           _BLF     `??operator+`,`??operator+??rA`
   \   00000100   0820A0E1           MOV      R2,R8
   \   00000104   8C108DE2           ADD      R1,SP,#+140
   \   00000108   70008DE2           ADD      R0,SP,#+112
   \   0000010C   ........           _BLF     `??operator+`,`??operator+??rA`
   \   00000110   0930A0E1           MOV      R3,R9
   \   00000114   0020A0E3           MOV      R2,#+0
   \   00000118   70108DE2           ADD      R1,SP,#+112
   \   0000011C   0500A0E1           MOV      R0,R5
   \   00000120   ........           _BLF     ??append,??append??rA
   \   00000124   0020A0E3           MOV      R2,#+0
   \   00000128   0110A0E3           MOV      R1,#+1
   \   0000012C   70008DE2           ADD      R0,SP,#+112
   \   00000130   ........           _BLF     ??_Tidy,??_Tidy??rA
   \   00000134   0020A0E3           MOV      R2,#+0
   \   00000138   0110A0E3           MOV      R1,#+1
   \   0000013C   8C008DE2           ADD      R0,SP,#+140
   \   00000140   ........           _BLF     ??_Tidy,??_Tidy??rA
   \   00000144   0020A0E3           MOV      R2,#+0
   \   00000148   0110A0E3           MOV      R1,#+1
   \   0000014C   A8008DE2           ADD      R0,SP,#+168
   \   00000150   ........           _BLF     ??_Tidy,??_Tidy??rA
     92                  LocalString += CrLfStr;
   \   00000154   0930A0E1           MOV      R3,R9
   \   00000158   0020A0E3           MOV      R2,#+0
   \   0000015C   0810A0E1           MOV      R1,R8
   \   00000160   0500A0E1           MOV      R0,R5
   \   00000164   ........           _BLF     ??append,??append??rA
     93              }
     94              return(LocalString);
   \                     ??MakeConfigString_2:
   \   00000168   C4D08DE2           ADD      SP,SP,#+196
   \   0000016C   ........           B        ?Subroutine16
   \                     ??MakeConfigString_3:
   \   00000170   ........           DC32     TabStr1
   \   00000174   ........           DC32     CrLfStr
     95          }

   \                                 In segment CODE, align 4, keep-with-next
   \                     ?Subroutine16:
   \   00000000   F043BDE8           POP      {R4-R9,LR}
   \   00000004   1EFF2FE1           BX       LR               ;; return
     96          //---------------------------------------------------------------------------

   \                                 In segment CODE, align 4, keep-with-next
     97          void AITempSensor_Pt1000::CalculateCableCorrection(void)
     98          {
   \                     ??CalculateCableCorrection:
   \   00000000   70402DE9           PUSH     {R4-R6,LR}
   \   00000004   0040A0E1           MOV      R4,R0
     99              float CableResistance = CableLengthSensor*CableResistanceSensor; 
   \   00000008   681194E5           LDR      R1,[R4, #+360]
   \   0000000C   700194E5           LDR      R0,[R4, #+368]
   \   00000010   ........           _BLF     __fMul,??__fMul??rA
   \   00000014   746194E5           LDR      R6,[R4, #+372]
   \   00000018   0050A0E1           MOV      R5,R0
   \   0000001C   0000A0E3           MOV      R0,#+0
   \   00000020   0610A0E1           MOV      R1,R6
   \   00000024   ........           _BLF     __fNotEqual,??__fNotEqual??rA
   \   00000028   000050E3           CMP      R0,#+0
    100              if ( CableMsrdResistance ) {
    101                  CableResistance += CableMsrdResistance;
   \   0000002C   0500A011           MOVNE    R0,R5
   \   00000030   0610A011           MOVNE    R1,R6
   \   00000034   0300001A           BNE      ??CalculateCableCorrection_1
    102              }else{
    103                  CableResistance += CableLengthShip*CableResistanceShip;
   \   00000038   641194E5           LDR      R1,[R4, #+356]
   \   0000003C   6C0194E5           LDR      R0,[R4, #+364]
   \   00000040   ........           _BLF     __fMul,??__fMul??rA
   \   00000044   0510A0E1           MOV      R1,R5
   \                     ??CalculateCableCorrection_1:
   \   00000048   ........           _BLF     __fAdd,??__fAdd??rA
    104              }
    105              CableOffset = CableResistance/PT1000_OHM_DEG;
   \   0000004C   ........           _BLF     __floatToDouble,??__floatToDouble??rA
   \   00000050   14209FE5           LDR      R2,??CalculateCableCorrection_2  ;; 0x33333333
   \   00000054   14309FE5           LDR      R3,??CalculateCableCorrection_2+0x4  ;; 0x400f3333
   \   00000058   ........           _BLF     __dDiv,??__dDiv??rA
   \   0000005C   ........           _BLF     __doubleToFloat,??__doubleToFloat??rA
   \   00000060   780184E5           STR      R0,[R4, #+376]
    106          }
   \   00000064   7040BDE8           POP      {R4-R6,LR}
   \   00000068   1EFF2FE1           BX       LR               ;; return
   \                     ??CalculateCableCorrection_2:
   \   0000006C   33333333           DC32     0x33333333
   \   00000070   33330F40           DC32     0x400f3333
    107          //---------------------------------------------------------------------------
    108          
    109          
    110          ///////////////////////////////////////////////////////////////
    111          //
    112          // Routines for the librarian for input
    113          //
    114          ///////////////////////////////////////////////////////////////
    115          
    116          

   \                                 In segment CODE, align 4, keep-with-next
    117          int AITempSensor_Pt1000::PutValue( int ValueId, int Index, AnsiString NewValue,bool Local, int *UnitId)
    118          {
   \                     ??PutValue:
   \   00000000   F0432DE9           PUSH     {R4-R9,LR}
   \   00000004   20D04DE2           SUB      SP,SP,#+32
   \   00000008   3C80DDE5           LDRB     R8,[SP, #+60]
   \   0000000C   40909DE5           LDR      R9,[SP, #+64]
   \   00000010   0040A0E1           MOV      R4,R0
   \   00000014   0150A0E1           MOV      R5,R1
   \   00000018   0260A0E1           MOV      R6,R2
   \   0000001C   0370A0E1           MOV      R7,R3
    119              int Status = E_NO_ERR, ValUnitId = NO_UNIT;
   \   00000020   0010A0E3           MOV      R1,#+0
   \   00000024   00108DE5           STR      R1,[SP, #+0]
    120              switch ( ValueId ) {
    121              case SVT_AI_OFFSET   :
    122              case SVT_AI_CALC_VAL :
    123              default:
    124                  Status = AITempSensor::PutValue(ValueId, Index,NewValue,Local,&ValUnitId);
   \   00000028   0020A0E3           MOV      R2,#+0
   \   0000002C   04008DE2           ADD      R0,SP,#+4
   \   00000030   ........           _BLF     ??_Tidy,??_Tidy??rA
   \   00000034   ........           LDR      R0,??DataTable4  ;; ??npos
   \   00000038   0020A0E3           MOV      R2,#+0
   \   0000003C   003090E5           LDR      R3,[R0, #+0]
   \   00000040   0710A0E1           MOV      R1,R7
   \   00000044   04008DE2           ADD      R0,SP,#+4
   \   00000048   ........           _BLF     ??assign,??assign??rA
   \   0000004C   0D00A0E1           MOV      R0,SP
   \   00000050   01002DE9           PUSH     {R0}
   \   00000054   00012DE9           PUSH     {R8}
   \   00000058   0C308DE2           ADD      R3,SP,#+12
   \   0000005C   0620A0E1           MOV      R2,R6
   \   00000060   0510A0E1           MOV      R1,R5
   \   00000064   0400A0E1           MOV      R0,R4
   \   00000068   ........           _BLF     ??PutValue_1,??PutValue??rA
   \   0000006C   0050A0E1           MOV      R5,R0
   \   00000070   0020A0E3           MOV      R2,#+0
   \   00000074   0110A0E3           MOV      R1,#+1
   \   00000078   0C008DE2           ADD      R0,SP,#+12
   \   0000007C   ........           _BLF     ??_Tidy,??_Tidy??rA
    125                  break;
    126              }
    127              if ( Status==E_NO_ERR ) {
   \   00000080   000055E3           CMP      R5,#+0
   \   00000084   08D08DE2           ADD      SP,SP,#+8
   \   00000088   0400001A           BNE      ??PutValue_2
    128                  SetModifiedFlag();
   \   0000008C   A41094E5           LDR      R1,[R4, #+164]
   \   00000090   0400A0E1           MOV      R0,R4
   \   00000094   541091E5           LDR      R1,[R1, #+84]
   \   00000098   0FE0A0E1           MOV      LR,PC
   \   0000009C   11FF2FE1           BX       R1
    129              }
    130              if ( UnitId ) {
   \                     ??PutValue_2:
   \   000000A0   000059E3           CMP      R9,#+0
    131                  *UnitId = ValUnitId;
   \   000000A4   00009D15           LDRNE    R0,[SP, #+0]
   \   000000A8   00008915           STRNE    R0,[R9, #+0]
    132              }
    133              return(Status);
   \   000000AC   0500A0E1           MOV      R0,R5
   \   000000B0   20D08DE2           ADD      SP,SP,#+32
   \   000000B4                      REQUIRE ?Subroutine16
   \   000000B4                      ;; // Fall through to label ?Subroutine16
    134          }
    135          

   \                                 In segment CODE, align 4, keep-with-next
    136          int  AITempSensor_Pt1000::GetValue(int ValueId, int Index, float &MyRetValue, int &DecPnt, int &Unit)
    137          {
   \                     ??GetValue:
   \   00000000   10402DE9           PUSH     {R4,LR}
   \   00000004   08C09DE5           LDR      R12,[SP, #+8]
   \   00000008   0C409DE5           LDR      R4,[SP, #+12]
    138              int Status = GETVAL_NO_ERR;
    139              switch ( ValueId ) {
    140              case SVT_AI_OFFSET   :
    141              case SVT_AI_CALC_VAL :
    142              default:
    143                  Status = AITempSensor::GetValue(ValueId, Index, MyRetValue, DecPnt, Unit);
    144                  break;
    145              }
    146              return(Status);
   \   0000000C   10002DE9           PUSH     {R4}
   \   00000010   00102DE9           PUSH     {R12}
   \   00000014   ........           _BLF     ??GetValue_1,??GetValue??rA
   \   00000018   1640BDE8           POP      {R1,R2,R4,LR}
   \   0000001C   1EFF2FE1           BX       LR               ;; return
    147          }
    148          

   \                                 In segment CODE, align 4, keep-with-next
    149          int AITempSensor_Pt1000::GetStringValue(int ValueId, int Index, AnsiString &MyString)
    150          {
   \                     ??GetStringValue:
   \   00000000   00402DE9           PUSH     {LR}
    151              return(AITempSensor::GetStringValue(ValueId,Index, MyString));
   \   00000004   ........           _BLF     ??GetStringValue_1,??GetStringValue??rA
   \   00000008   ........           B        ?Subroutine17
    152          }

   \                                 In segment CODE, align 4, keep-with-next
   \                     ?Subroutine17:
   \   00000000   0040BDE8           POP      {LR}
   \   00000004   1EFF2FE1           BX       LR               ;; return
    153          

   \                                 In segment CODE, align 4, keep-with-next
    154          int AITempSensor_Pt1000::PutFloatValue( int ValueId, float NewValue)
    155          {
   \                     ??PutFloatValue:
   \   00000000   00402DE9           PUSH     {LR}
    156              return(AITempSensor::PutFloatValue(ValueId, NewValue));
   \   00000004   ........           _BLF     ??PutFloatValue_1,??PutFloatValue??rA
   \   00000008                      REQUIRE ?Subroutine17
   \   00000008                      ;; // Fall through to label ?Subroutine17
    157          }
    158          

   \                                 In segment CODE, align 4, keep-with-next
    159          void AITempSensor_Pt1000::SetStatus(U8 *NewStatus)
    160          {
    161              ADConfigData = *(ConfigPacket*)NewStatus;
   \                     ??SetStatus:
   \   00000000   8920A0E3           MOV      R2,#+137
   \   00000004   402F82E3           ORR      R2,R2,#0x100
   \   00000008   000082E0           ADD      R0,R2,R0
   \   0000000C   0430A0E3           MOV      R3,#+4
   \                     ??SetStatus_1:
   \   00000010   013053E2           SUBS     R3,R3,#+1
   \   00000014   0320D1E7           LDRB     R2,[R1, R3]
   \   00000018   0320C0E7           STRB     R2,[R0, R3]
   \   0000001C   FBFFFF1A           BNE      ??SetStatus_1
    162          }
   \   00000020   1EFF2FE1           BX       LR               ;; return

   \                                 In segment DIFUNCT, align 4, keep-with-next, root
   \   00000000                      REQUIRE ?call_ctors
   \   00000000   ........           DC32    ??__sti__routine

   \                                 In segment CODE, align 4, keep-with-next
   \   static __??Code32?? __intrinsic __code __interwork __atpcs void __sti__routine()
   \                     ??__sti__routine:
   \   00000000   1EFF2FE1           BX       LR               ;; return

   \                                 In segment CODE, align 4, keep-with-next
   \   __??Code32?? __code __interwork __atpcs AITempSensor_Pt1000 &AITempSensor_Pt1000::new AITempSensor_Pt1000(float)
   \                     `??new AITempSensor_Pt1000`:
   \   00000000   10402DE9           PUSH     {R4,LR}
   \   00000004   0040A0E1           MOV      R4,R0
   \   00000008   640FA0E3           MOV      R0,#+400
   \   0000000C   ........           _BLF     `??operator new`,`??operator new??rA`
   \   00000010   000050E3           CMP      R0,#+0
   \   00000014   0100000A           BEQ      `??new AITempSensor_Pt1000_2`
   \   00000018   0410A0E1           MOV      R1,R4
   \   0000001C   ........           BL       ??AITempSensor_Pt1000
   \                     `??new AITempSensor_Pt1000_2`:
   \   00000020   ........           B        ?Subroutine15

   \                                 In segment CODE, align 4, keep-with-next
   \   __??Code32?? __code __interwork __atpcs AITempSensor_Pt1000 &AITempSensor_Pt1000::new AITempSensor_Pt1000(AnalogInput *)
   \                     `??new AITempSensor_Pt1000_1`:
   \   00000000   10402DE9           PUSH     {R4,LR}
   \   00000004   0040A0E1           MOV      R4,R0
   \   00000008   640FA0E3           MOV      R0,#+400
   \   0000000C   ........           _BLF     `??operator new`,`??operator new??rA`
   \   00000010   000050E3           CMP      R0,#+0
   \   00000014   0100000A           BEQ      `??new AITempSensor_Pt1000_3`
   \   00000018   0410A0E1           MOV      R1,R4
   \   0000001C   ........           BL       ??AITempSensor_Pt1000_1
   \                     `??new AITempSensor_Pt1000_3`:
   \   00000020                      REQUIRE ?Subroutine15
   \   00000020                      ;; // Fall through to label ?Subroutine15

   \                                 In segment CODE, align 4, keep-with-next
   \                     ?Subroutine15:
   \   00000000   1040BDE8           POP      {R4,LR}
   \   00000004   1EFF2FE1           BX       LR               ;; return

   \                                 In segment CODE, align 4, keep-with-next
   \                     ??DataTable1:
   \   00000000   ........           DC32     ??__vtbl

   \                                 In segment CODE, align 4, keep-with-next
   \                     ??DataTable4:
   \   00000000   ........           DC32     ??npos
    163          
    164          

   Maximum stack usage in bytes:

     Function                       CSTACK
     --------                       ------
     AITempSensor_Pt1000::AITempSensor_Pt1000(AnalogInput *)
                                       12
     AITempSensor_Pt1000::AITempSensor_Pt1000(float)
                                       12
     AITempSensor_Pt1000::CalculateCableCorrection()
                                       16
     AITempSensor_Pt1000::GetStringValue(int, int, AnsiString &)
                                        4
     AITempSensor_Pt1000::GetValue(int, int, float &, int &, int &)
                                       16
     AITempSensor_Pt1000::Initialize(AnalogInput *)
                                       28
     AITempSensor_Pt1000::MakeConfigString(int)
                                      224
     AITempSensor_Pt1000::PutFloatValue(int, float)
                                        4
     AITempSensor_Pt1000::PutValue(int, int, AnsiString, bool, int *)
                                       68
     AITempSensor_Pt1000::SetStatus(unsigned char *)
                                        0
     AITempSensor_Pt1000::new AITempSensor_Pt1000(AnalogInput *)
                                        8
     AITempSensor_Pt1000::new AITempSensor_Pt1000(float)
                                        8
     AITempSensor_Pt1000::~AITempSensor_Pt1000()
                                       12
     _Tree<_Tset_traits<AlarmBasic *, less<AlarmBasic *>, allocator<AlarmBasic *>, false>>::_Insert(bool, _Tree<_Tset_traits<AlarmBasic *, less<AlarmBasic *>, allocator<AlarmBasic *>, false>>::_Nodeptr, AlarmBasic *)
                                       24
     _Tree<_Tset_traits<AlarmBasic *, less<AlarmBasic *>, allocator<AlarmBasic *>, false>>::insert(AlarmBasic *)
                                       44
     _Tree_algobase<allocator<void>>::_DecP(_Tree_algobase<allocator<void>>::_Genptr)
                                        0
     _Tree_algobase<allocator<void>>::_Insert(bool, _Tree_algobase<allocator<void>>::_Genptr, _Tree_algobase<allocator<void>>::_Genptr)
                                       20
     _Tree_algobase<allocator<void>>::_Lrotate(_Tree_algobase<allocator<void>>::_Genptr)
                                        0
     _Tree_algobase<allocator<void>>::_Rrotate(_Tree_algobase<allocator<void>>::_Genptr)
                                        0
     __sti__routine()                   0
     operator+(string const &, string const &)
                                       48


   Segment part sizes:

     Function/Label                 Bytes
     --------------                 -----
     _Tree_algobase<allocator<void>>::_DecP(_Tree_algobase<allocator<void>>::_Genptr)
                                     100
     _Tree_algobase<allocator<void>>::_Rrotate(_Tree_algobase<allocator<void>>::_Genptr)
                                      84
     _Tree_algobase<allocator<void>>::_Lrotate(_Tree_algobase<allocator<void>>::_Genptr)
                                      84
     _Tree_algobase<allocator<void>>::_Insert(bool, _Tree_algobase<allocator<void>>::_Genptr, _Tree_algobase<allocator<void>>::_Genptr)
                                     356
     _Tree<_Tset_traits<AlarmBasic *, less<AlarmBasic *>, allocator<AlarmBasic *>, false>>::insert(AlarmBasic *)
                                     200
     _Tree<_Tset_traits<AlarmBasic *, less<AlarmBasic *>, allocator<AlarmBasic *>, false>>::_Insert(bool, _Tree<_Tset_traits<AlarmBasic *, less<AlarmBasic *>, allocator<AlarmBasic *>, false>>::_Nodeptr, AlarmBasic *)
                                      96
     operator+(string const &, string const &)
                                     156
     AITempSensor_Pt1000::AITempSensor_Pt1000(float)
                                      36
     ?Subroutine14                    20
     AITempSensor_Pt1000::AITempSensor_Pt1000(AnalogInput *)
                                      28
     AITempSensor_Pt1000::~AITempSensor_Pt1000()
                                      48
     AITempSensor_Pt1000::Initialize(AnalogInput *)
                                     936
     AITempSensor_Pt1000::MakeConfigString(int)
                                     376
     ?Subroutine16                     8
     AITempSensor_Pt1000::CalculateCableCorrection()
                                     116
     AITempSensor_Pt1000::PutValue(int, int, AnsiString, bool, int *)
                                     180
     AITempSensor_Pt1000::GetValue(int, int, float &, int &, int &)
                                      32
     AITempSensor_Pt1000::GetStringValue(int, int, AnsiString &)
                                      12
     ?Subroutine17                     8
     AITempSensor_Pt1000::PutFloatValue(int, float)
                                       8
     AITempSensor_Pt1000::SetStatus(unsigned char *)
                                      36
     __sti__routine()                  4
     AITempSensor_Pt1000::new AITempSensor_Pt1000(float)
                                      36
     AITempSensor_Pt1000::new AITempSensor_Pt1000(AnalogInput *)
                                      32
     ?Subroutine15                     8
     ??DataTable1                      4
     ??DataTable4                      4
      Others                         548

 
 3 412 bytes in segment CODE
   140 bytes in segment DATA_C
     4 bytes in segment DIFUNCT
 
 1 936 bytes of CODE  memory (+ 1 480 bytes shared)
   140 bytes of CONST memory

Errors: none
Warnings: none
