##############################################################################
#                                                                            #
# IAR ARM ANSI C/C++ Compiler V4.42A/W32               14/Sep/2022  15:11:31 #
# Copyright 1999-2005 IAR Systems. All rights reserved.                      #
#                                                                            #
#    Cpu mode        =  interwork                                            #
#    Endian          =  little                                               #
#    Stack alignment =  4                                                    #
#    Source file     =  D:\S2Prog\Shared\Src\AITempSensor.cpp                #
#    Command line    =  D:\S2Prog\Shared\Src\AITempSensor.cpp --fpu None -D  #
#                       OS_LIBMODE_SP -D CPU_S3C2410 -D OS_RAMVECT=0 -D      #
#                       OS_UART=-1 -D S2TXU -D USE_LZO=1 -D __ARM_LIBRARY__  #
#                       -D WATCHDOG=1 -D NETWORK=1 -lCN                      #
#                       D:\S2Prog\TXU\Debug\List\ -o                         #
#                       D:\S2Prog\TXU\Debug\Obj\ -z9 --debug --cpu_mode arm  #
#                       --endian little --cpu ARM920T --stack_align 4        #
#                       --interwork -e --enable_multibytes --eec++           #
#                       --dlib_config "C:\Program Files (x86)\IAR            #
#                       Systems\Embedded Workbench                           #
#                       4.0\arm\LIB\dl4tpainl8n.h" -I                        #
#                       D:\S2Prog\TXU\GUI\CORE\ -I D:\S2Prog\TXU\GUI\WM\ -I  #
#                       D:\S2Prog\TXU\GUI\WIDGET\ -I D:\S2Prog\TXU\CONFIG\   #
#                       -I D:\S2Prog\TXU\INC\ -I D:\S2Prog\TXU\..\SHARED\INC #
#                       \ -I D:\S2Prog\TXU\..\SHARED\SRC\ -I                 #
#                       D:\S2Prog\TXU\..\SHARED\LZO\minilzo.210\ -I          #
#                       D:\S2Prog\TXU\lwip-1.4.1\src\include\ -I             #
#                       D:\S2Prog\TXU\lwip-1.4.1\src\include\ipv4\ -I        #
#                       D:\S2Prog\TXU\lwip-1.4.1\src\ -I                     #
#                       D:\S2Prog\TXU\..\SHARED\Database\ -I                 #
#                       D:\S2Prog\TXU\src\ -I "C:\Program Files (x86)\IAR    #
#                       Systems\Embedded Workbench 4.0\arm\INC\"             #
#                       --inline_threshold=2                                 #
#    List file       =  D:\S2Prog\TXU\Debug\List\AITempSensor.lst            #
#    Object file     =  D:\S2Prog\TXU\Debug\Obj\AITempSensor.r79             #
#                                                                            #
#                                                                            #
##############################################################################

D:\S2Prog\Shared\Src\AITempSensor.cpp
      1          #include "TSNIncludes.h"

   \                                 In segment CODE, align 4, keep-with-next
   \   __??Code32?? __code __interwork __atpcs string::string(string const &)
   \                     ??string:
   \   00000000   30402DE9           PUSH     {R4,R5,LR}
   \   00000004   0040A0E1           MOV      R4,R0
   \   00000008   0150A0E1           MOV      R5,R1
   \   0000000C   0020A0E3           MOV      R2,#+0
   \   00000010   0010A0E3           MOV      R1,#+0
   \   00000014   ........           _BLF     ??_Tidy,??_Tidy??rA
   \   00000018   1C009FE5           LDR      R0,??string_1    ;; ??npos
   \   0000001C   0020A0E3           MOV      R2,#+0
   \   00000020   003090E5           LDR      R3,[R0, #+0]
   \   00000024   0510A0E1           MOV      R1,R5
   \   00000028   0400A0E1           MOV      R0,R4
   \   0000002C   ........           _BLF     ??assign,??assign??rA
   \   00000030   0400A0E1           MOV      R0,R4
   \   00000034   3040BDE8           POP      {R4,R5,LR}
   \   00000038   1EFF2FE1           BX       LR               ;; return
   \                     ??string_1:
   \   0000003C   ........           DC32     ??npos

   \                                 In segment CODE, align 4, keep-with-next
   \   __??Code32?? __code __interwork __atpcs void operator+(string const &, string const &)
   \                     `??operator+`:
   \   00000000   30402DE9           PUSH     {R4,R5,LR}
   \   00000004   1CD04DE2           SUB      SP,SP,#+28
   \   00000008   0040A0E1           MOV      R4,R0
   \   0000000C   0250A0E1           MOV      R5,R2
   \   00000010   0D00A0E1           MOV      R0,SP
   \   00000014   ........           _BLF     ??string,??string??rA
   \   00000018   34109FE5           LDR      R1,`??operator+_2`  ;; ??npos
   \   0000001C   0020A0E3           MOV      R2,#+0
   \   00000020   003091E5           LDR      R3,[R1, #+0]
   \   00000024   0510A0E1           MOV      R1,R5
   \   00000028   ........           _BLF     ??append,??append??rA
   \   0000002C   0010A0E1           MOV      R1,R0
   \   00000030   0400A0E1           MOV      R0,R4
   \   00000034   ........           _BLF     ??string,??string??rA
   \   00000038   0020A0E3           MOV      R2,#+0
   \   0000003C   0110A0E3           MOV      R1,#+1
   \   00000040   0D00A0E1           MOV      R0,SP
   \   00000044   ........           _BLF     ??_Tidy,??_Tidy??rA
   \   00000048   1CD08DE2           ADD      SP,SP,#+28
   \   0000004C   3040BDE8           POP      {R4,R5,LR}
   \   00000050   1EFF2FE1           BX       LR               ;; return
   \                     `??operator+_2`:
   \   00000054   ........           DC32     ??npos

   \                                 In segment CODE, align 4, keep-with-next
   \   __??Code32?? __code __interwork __atpcs void operator+(string const &, char const *)
   \                     `??operator+_1`:
   \   00000000   70402DE9           PUSH     {R4-R6,LR}
   \   00000004   1CD04DE2           SUB      SP,SP,#+28
   \   00000008   0040A0E1           MOV      R4,R0
   \   0000000C   0250A0E1           MOV      R5,R2
   \   00000010   0D00A0E1           MOV      R0,SP
   \   00000014   ........           _BLF     ??string,??string??rA
   \   00000018   0060A0E1           MOV      R6,R0
   \   0000001C   0500A0E1           MOV      R0,R5
   \   00000020   ........           _BLF     strlen,??strlen??rA
   \   00000024   0020A0E1           MOV      R2,R0
   \   00000028   0510A0E1           MOV      R1,R5
   \   0000002C   0600A0E1           MOV      R0,R6
   \   00000030   ........           _BLF     ??append_1,??append??rA_1
   \   00000034   0010A0E1           MOV      R1,R0
   \   00000038   0400A0E1           MOV      R0,R4
   \   0000003C   ........           _BLF     ??string,??string??rA
   \   00000040   0020A0E3           MOV      R2,#+0
   \   00000044   0110A0E3           MOV      R1,#+1
   \   00000048   0D00A0E1           MOV      R0,SP
   \   0000004C   ........           _BLF     ??_Tidy,??_Tidy??rA
   \   00000050   1CD08DE2           ADD      SP,SP,#+28
   \   00000054   7040BDE8           POP      {R4-R6,LR}
   \   00000058   1EFF2FE1           BX       LR               ;; return
      2          #pragma hdrstop
      3          #ifdef BORLAND
      4          #pragma package(smart_init)
      5          #endif
      6          
      7          ////////////////////////////////////////////////////////////////////// 
      8          ///// 
      9          ///  The calculations has been verified using the datasets her. 
     10          /// 
     11          /// 
     12          ///
     13          /*
     14              double Tmp1 = GetTempFromR(18.52);
     15              double Tmp2 = GetTempFromR(35.54);
     16              double Tmp3 = GetTempFromR(60.26);
     17              double Tmp4 = GetTempFromR(80.31);
     18              double Tmp5 = GetTempFromR(100);
     19              double Tmp6 = GetTempFromR(103.9);
     20              double Tmp7 = GetTempFromR(119.4);
     21              double Tmp8 = GetTempFromR(138.51);
     22          */
     23              /*
     24          double Tmp = 0.0;
     25          temp_PRTTemperatureValue(18.52 ,100,Tmp);
     26          temp_PRTTemperatureValue(35.54 ,100,Tmp);
     27          temp_PRTTemperatureValue(60.26 ,100,Tmp);
     28          temp_PRTTemperatureValue(80.31 ,100,Tmp);
     29          temp_PRTTemperatureValue(100   ,100,Tmp);
     30          temp_PRTTemperatureValue(103.9 ,100,Tmp);
     31          temp_PRTTemperatureValue(119.4 ,100,Tmp);
     32          temp_PRTTemperatureValue(138.51,100,Tmp);
     33          */
     34          ///////////////////////////////////////////////////////////////////////////////
     35          
     36          //---------------------------------------------------------------------------
     37          

   \                                 In segment CODE, align 4, keep-with-next
     38          AITempSensor::AITempSensor(void) {
   \                     ??AITempSensor:
   \   00000000   10402DE9           PUSH     {R4,LR}
   \   00000004   0040A0E1           MOV      R4,R0
   \   00000008   ........           _BLF     ??AnalogInput,??AnalogInput??rA
   \   0000000C   ........           LDR      R0,??DataTable1  ;; ??__vtbl
   \   00000010   A40084E5           STR      R0,[R4, #+164]
     39              Init();
   \   00000014   0400A0E1           MOV      R0,R4
   \   00000018   ........           BL       ??Init
     40          }
   \   0000001C   0400A0E1           MOV      R0,R4
   \   00000020                      REQUIRE ?Subroutine22
   \   00000020                      ;; // Fall through to label ?Subroutine22

   \                                 In segment CODE, align 4, keep-with-next
   \                     ?Subroutine22:
   \   00000000   1040BDE8           POP      {R4,LR}
   \   00000004   1EFF2FE1           BX       LR               ;; return
     41          

   \                                 In segment CODE, align 4, keep-with-next
     42          AITempSensor::AITempSensor(int SnsType) {
   \                     ??AITempSensor_1:
   \   00000000   30402DE9           PUSH     {R4,R5,LR}
   \   00000004   0040A0E1           MOV      R4,R0
   \   00000008   0150A0E1           MOV      R5,R1
   \   0000000C   ........           _BLF     ??AnalogInput,??AnalogInput??rA
   \   00000010   ........           LDR      R0,??DataTable1  ;; ??__vtbl
   \   00000014   A40084E5           STR      R0,[R4, #+164]
     43              Init();
   \   00000018   0400A0E1           MOV      R0,R4
   \   0000001C   ........           BL       ??Init
     44              Type                = SnsType;
   \   00000020   A05084E5           STR      R5,[R4, #+160]
     45          }
   \   00000024   0400A0E1           MOV      R0,R4
   \   00000028   ........           B        ?Subroutine23

   \                                 In segment CODE, align 4, keep-with-next
   \                     ?Subroutine23:
   \   00000000   3040BDE8           POP      {R4,R5,LR}
   \   00000004   1EFF2FE1           BX       LR               ;; return
     46          

   \                                 In segment CODE, align 4, keep-with-next
     47          AITempSensor::~AITempSensor(void) {
   \                     `?~AITempSensor`:
   \   00000000   30402DE9           PUSH     {R4,R5,LR}
   \   00000004   0040A0E1           MOV      R4,R0
   \   00000008   0150A0E1           MOV      R5,R1
   \   0000000C   000054E3           CMP      R4,#+0
   \   00000010   0500000A           BEQ      `?~AITempSensor_1`
     48          }
   \   00000014   0010A0E3           MOV      R1,#+0
   \   00000018   ........           _BLF     `?~AnalogInput`,`?~AnalogInput??rA`
   \   0000001C   010015E3           TST      R5,#0x1
   \   00000020   0100000A           BEQ      `?~AITempSensor_1`
   \   00000024   0400A0E1           MOV      R0,R4
   \   00000028   ........           _BLF     `??operator delete`,`??operator delete??rA`
   \                     `?~AITempSensor_1`:
   \   0000002C                      REQUIRE ?Subroutine23
   \   0000002C                      ;; // Fall through to label ?Subroutine23
     49          

   \                                 In segment CODE, align 4, keep-with-next
     50          void AITempSensor::Init(void) {
     51              CableLengthShip         = 0.0;
     52              CableLengthSensor       = 0.0;
     53              CableResistanceShip     = PROProjectInfo::CableResistanceShip  ;
   \                     ??Init:
   \   00000000   60209FE5           LDR      R2,??Init_1      ;; ??CableResistanceShip
   \   00000004   0010A0E3           MOV      R1,#+0
   \   00000008   641180E5           STR      R1,[R0, #+356]
   \   0000000C   681180E5           STR      R1,[R0, #+360]
   \   00000010   002092E5           LDR      R2,[R2, #+0]
   \   00000014   6C2180E5           STR      R2,[R0, #+364]
     54              CableResistanceSensor   = PROProjectInfo::CableResistanceSensor;
   \   00000018   4C209FE5           LDR      R2,??Init_1+0x4  ;; ??CableResistanceSensor
   \   0000001C   002092E5           LDR      R2,[R2, #+0]
   \   00000020   702180E5           STR      R2,[R0, #+368]
     55              CableMsrdResistance     = 0.0;
   \   00000024   741180E5           STR      R1,[R0, #+372]
     56              CableOffset             = 0.0;
   \   00000028   781180E5           STR      R1,[R0, #+376]
     57              DistJunctionBoxToBot    = 0.0;
   \   0000002C   7C1180E5           STR      R1,[R0, #+380]
     58              Location                = C_AI_LOC_TEMP;
   \   00000030   FC10A0E3           MOV      R1,#+252
   \   00000034   801E81E3           ORR      R1,R1,#0x800
   \   00000038   281180E5           STR      R1,[R0, #+296]
     59              BasicSensorType         = AI_SENSOR_TEMP;
   \   0000003C   0210A0E3           MOV      R1,#+2
   \   00000040   101180E5           STR      R1,[R0, #+272]
     60              BasicSensorTypeWord     = L_WORD338; //Temp
   \   00000044   541F81E3           ORR      R1,R1,#0x150
   \   00000048   141180E5           STR      R1,[R0, #+276]
     61              CalData                 = NULL;
   \   0000004C   0010A0E3           MOV      R1,#+0
   \   00000050   841180E5           STR      R1,[R0, #+388]
     62              hasCableLengthSensor    = false;
   \   00000054   0020A0E3           MOV      R2,#+0
   \   00000058   8221C0E5           STRB     R2,[R0, #+386]
     63              hasCableResistanceShip  = false;  
   \   0000005C   8021C0E5           STRB     R2,[R0, #+384]
     64              hasCableResistanceSensor= false;
   \   00000060   8111C0E5           STRB     R1,[R0, #+385]
     65          }
   \   00000064   1EFF2FE1           BX       LR               ;; return
   \                     ??Init_1:
   \   00000068   ........           DC32     ??CableResistanceShip
   \   0000006C   ........           DC32     ??CableResistanceSensor
     66          
     67          
     68          ///////////////////////////////////////////////////////////////
     69          //
     70          // Routines for the Configuration
     71          //
     72          ///////////////////////////////////////////////////////////////
     73          

   \                                 In segment CODE, align 4, keep-with-next
     74          AnsiString AITempSensor::MakeConfigString(int ExtraTabs) {
   \                     ??MakeConfigString:
   \   00000000   F0412DE9           PUSH     {R4-R8,LR}
   \   00000004   7EDF4DE2           SUB      SP,SP,#+504
   \   00000008   0040A0E1           MOV      R4,R0
   \   0000000C   0150A0E1           MOV      R5,R1
   \   00000010   0260A0E1           MOV      R6,R2
     75              AnsiString TabStr1 = AnsiString::StringOfChar('\t', 1 + ExtraTabs);
   \   00000014   012086E2           ADD      R2,R6,#+1
   \   00000018   0910A0E3           MOV      R1,#+9
   \   0000001C   5B0F8DE2           ADD      R0,SP,#+364
   \   00000020   ........           _BLF     ??StringOfChar,??StringOfChar??rA
     76              AnsiString TabStr2 = AnsiString::StringOfChar('\t', 2 + ExtraTabs);
   \   00000024   022086E2           ADD      R2,R6,#+2
   \   00000028   0910A0E3           MOV      R1,#+9
   \   0000002C   8C008DE2           ADD      R0,SP,#+140
   \   00000030   ........           _BLF     ??StringOfChar,??StringOfChar??rA
     77              AnsiString TabStr3 = AnsiString::StringOfChar('\t', 3 + ExtraTabs);
   \   00000034   032086E2           ADD      R2,R6,#+3
   \   00000038   0910A0E3           MOV      R1,#+9
   \   0000003C   690F8DE2           ADD      R0,SP,#+420
   \   00000040   ........           _BLF     ??StringOfChar,??StringOfChar??rA
     78              AnsiString TabStr4 = AnsiString::StringOfChar('\t', 4 + ExtraTabs);
   \   00000044   042086E2           ADD      R2,R6,#+4
   \   00000048   0910A0E3           MOV      R1,#+9
   \   0000004C   620F8DE2           ADD      R0,SP,#+392
   \   00000050   ........           _BLF     ??StringOfChar,??StringOfChar??rA
     79              AnsiString TabStr5 = AnsiString::StringOfChar('\t', 5 + ExtraTabs);
   \   00000054   052086E2           ADD      R2,R6,#+5
   \   00000058   0910A0E3           MOV      R1,#+9
   \   0000005C   700F8DE2           ADD      R0,SP,#+448
   \   00000060   ........           _BLF     ??StringOfChar,??StringOfChar??rA
     80              AnsiString TabStr6 = AnsiString::StringOfChar('\t', 6 + ExtraTabs);
   \   00000064   062086E2           ADD      R2,R6,#+6
     81              AnsiString LocalString;
     82              LocalString += TabStr1 + KeyWord(Type) + CrLfStr;
   \   00000068   BC669FE5           LDR      R6,??MakeConfigString_3  ;; CrLfStr
   \   0000006C   0910A0E3           MOV      R1,#+9
   \   00000070   770F8DE2           ADD      R0,SP,#+476
   \   00000074   ........           _BLF     ??StringOfChar,??StringOfChar??rA
   \   00000078   0500A0E1           MOV      R0,R5
   \   0000007C   ........           _BLF     ??AnsiString,??AnsiString??rA
   \   00000080   A01094E5           LDR      R1,[R4, #+160]
   \   00000084   E0008DE2           ADD      R0,SP,#+224
   \   00000088   ........           _BLF     ??KeyWord,??KeyWord??rA
   \   0000008C   E0208DE2           ADD      R2,SP,#+224
   \   00000090   5B1F8DE2           ADD      R1,SP,#+364
   \   00000094   C4008DE2           ADD      R0,SP,#+196
   \   00000098   ........           _BLF     `??operator+`,`??operator+??rA`
   \   0000009C   0620A0E1           MOV      R2,R6
   \   000000A0   C4108DE2           ADD      R1,SP,#+196
   \   000000A4   A8008DE2           ADD      R0,SP,#+168
   \   000000A8   ........           _BLF     `??operator+`,`??operator+??rA`
   \   000000AC   ........           LDR      R0,??DataTable5  ;; ??npos
   \   000000B0   0020A0E3           MOV      R2,#+0
   \   000000B4   007090E5           LDR      R7,[R0, #+0]
   \   000000B8   A8108DE2           ADD      R1,SP,#+168
   \   000000BC   0730A0E1           MOV      R3,R7
   \   000000C0   0500A0E1           MOV      R0,R5
   \   000000C4   ........           _BLF     ??append,??append??rA
   \   000000C8   0020A0E3           MOV      R2,#+0
   \   000000CC   0110A0E3           MOV      R1,#+1
   \   000000D0   A8008DE2           ADD      R0,SP,#+168
   \   000000D4   ........           _BLF     ??_Tidy,??_Tidy??rA
   \   000000D8   0020A0E3           MOV      R2,#+0
   \   000000DC   0110A0E3           MOV      R1,#+1
   \   000000E0   C4008DE2           ADD      R0,SP,#+196
   \   000000E4   ........           _BLF     ??_Tidy,??_Tidy??rA
   \   000000E8   0020A0E3           MOV      R2,#+0
   \   000000EC   0110A0E3           MOV      R1,#+1
   \   000000F0   E0008DE2           ADD      R0,SP,#+224
   \   000000F4   ........           _BLF     ??_Tidy,??_Tidy??rA
     83              // Force 0.0 for distance as it will be calculated if distance 0.0 and sensor cable length is configured
     84              if ( !HasDistance ) {
   \   000000F8   2101D4E5           LDRB     R0,[R4, #+289]
     85                  Distance = 0.0;
     86              }
     87              LocalString += AnalogInput::MakeConfigString();     //common
   \   000000FC   0020A0E3           MOV      R2,#+0
   \   00000100   FC108DE2           ADD      R1,SP,#+252
   \   00000104   000050E3           CMP      R0,#+0
   \   00000108   2C018405           STREQ    R0,[R4, #+300]
   \   0000010C   0400A0E1           MOV      R0,R4
   \   00000110   ........           _BLF     ??MakeConfigString_2,??MakeConfigString??rA
   \   00000114   0730A0E1           MOV      R3,R7
   \   00000118   0020A0E3           MOV      R2,#+0
   \   0000011C   FC108DE2           ADD      R1,SP,#+252
   \   00000120   0500A0E1           MOV      R0,R5
   \   00000124   ........           _BLF     ??append,??append??rA
   \   00000128   0020A0E3           MOV      R2,#+0
   \   0000012C   0110A0E3           MOV      R1,#+1
   \   00000130   FC008DE2           ADD      R0,SP,#+252
   \   00000134   ........           _BLF     ??_Tidy,??_Tidy??rA
   \   00000138   281194E5           LDR      R1,[R4, #+296]
   \   0000013C   070041E2           SUB      R0,R1,#+7
   \   00000140   900E40E2           SUB      R0,R0,#+2304
   \   00000144   010050E3           CMP      R0,#+1
   \   00000148   1E00008A           BHI      ??MakeConfigString_4
   \   0000014C   012F8FE2           ADR      R2,??MakeConfigString_1
   \   00000150   0020D2E7           LDRB     R2,[R2, R0]
   \   00000154   02F18FE0           ADD      PC,PC,R2, LSL #+2
   \                     ??MakeConfigString_1:
   \   00000158   00000000           DC8      +0,+0,+0,+0
     88          
     89              switch ( Location ) {
     90                  case C_AI_LOC_TEMP_IN :
     91                  case C_AI_LOC_TEMP_OUT:
     92                      LocalString += TabStr4 + KeyWord(Location) + CrLfStr;
   \                     ??MakeConfigString_5:
   \   0000015C   1C008DE2           ADD      R0,SP,#+28
   \   00000160   ........           _BLF     ??KeyWord,??KeyWord??rA
   \   00000164   1C208DE2           ADD      R2,SP,#+28
   \   00000168   621F8DE2           ADD      R1,SP,#+392
   \   0000016C   38008DE2           ADD      R0,SP,#+56
   \   00000170   ........           _BLF     `??operator+`,`??operator+??rA`
   \   00000174   0620A0E1           MOV      R2,R6
   \   00000178   38108DE2           ADD      R1,SP,#+56
   \   0000017C   0D00A0E1           MOV      R0,SP
   \   00000180   ........           _BLF     `??operator+`,`??operator+??rA`
   \   00000184   0730A0E1           MOV      R3,R7
   \   00000188   0020A0E3           MOV      R2,#+0
   \   0000018C   0D10A0E1           MOV      R1,SP
   \   00000190   0500A0E1           MOV      R0,R5
   \   00000194   ........           _BLF     ??append,??append??rA
   \   00000198   0020A0E3           MOV      R2,#+0
   \   0000019C   0110A0E3           MOV      R1,#+1
   \   000001A0   0D00A0E1           MOV      R0,SP
   \   000001A4   ........           _BLF     ??_Tidy,??_Tidy??rA
   \   000001A8   0020A0E3           MOV      R2,#+0
   \   000001AC   0110A0E3           MOV      R1,#+1
   \   000001B0   38008DE2           ADD      R0,SP,#+56
   \   000001B4   ........           _BLF     ??_Tidy,??_Tidy??rA
   \   000001B8   0020A0E3           MOV      R2,#+0
   \   000001BC   0110A0E3           MOV      R1,#+1
   \   000001C0   1C008DE2           ADD      R0,SP,#+28
   \   000001C4   ........           _BLF     ??_Tidy,??_Tidy??rA
     93                      break;
     94                  default:
     95                      break;
     96              }
     97          
     98              if ( CableLengthShip ) {
   \                     ??MakeConfigString_4:
   \   000001C8   648194E5           LDR      R8,[R4, #+356]
   \   000001CC   0000A0E3           MOV      R0,#+0
   \   000001D0   0810A0E1           MOV      R1,R8
   \   000001D4   ........           _BLF     __fNotEqual,??__fNotEqual??rA
   \   000001D8   000050E3           CMP      R0,#+0
   \   000001DC   2D00000A           BEQ      ??MakeConfigString_6
     99                  LocalString += TabStr2 + KeyWord(C_AI_CABLE_LENGTH_SHIP) + FloatToAnsiString(CableLengthShip) + CrLfStr;
   \   000001E0   0330A0E3           MOV      R3,#+3
   \   000001E4   0720A0E3           MOV      R2,#+7
   \   000001E8   0810A0E1           MOV      R1,R8
   \   000001EC   70008DE2           ADD      R0,SP,#+112
   \   000001F0   ........           _BLF     ??FloatToAnsiString,??FloatToAnsiString??rA
   \   000001F4   A610A0E3           MOV      R1,#+166
   \   000001F8   801E81E3           ORR      R1,R1,#0x800
   \   000001FC   54008DE2           ADD      R0,SP,#+84
   \   00000200   ........           _BLF     ??KeyWord,??KeyWord??rA
   \   00000204   54208DE2           ADD      R2,SP,#+84
   \   00000208   8C108DE2           ADD      R1,SP,#+140
   \   0000020C   0D00A0E1           MOV      R0,SP
   \   00000210   ........           _BLF     `??operator+`,`??operator+??rA`
   \   00000214   70208DE2           ADD      R2,SP,#+112
   \   00000218   0D10A0E1           MOV      R1,SP
   \   0000021C   38008DE2           ADD      R0,SP,#+56
   \   00000220   ........           _BLF     `??operator+`,`??operator+??rA`
   \   00000224   0620A0E1           MOV      R2,R6
   \   00000228   38108DE2           ADD      R1,SP,#+56
   \   0000022C   1C008DE2           ADD      R0,SP,#+28
   \   00000230   ........           _BLF     `??operator+`,`??operator+??rA`
   \   00000234   0730A0E1           MOV      R3,R7
   \   00000238   0020A0E3           MOV      R2,#+0
   \   0000023C   1C108DE2           ADD      R1,SP,#+28
   \   00000240   0500A0E1           MOV      R0,R5
   \   00000244   ........           _BLF     ??append,??append??rA
   \   00000248   0020A0E3           MOV      R2,#+0
   \   0000024C   0110A0E3           MOV      R1,#+1
   \   00000250   1C008DE2           ADD      R0,SP,#+28
   \   00000254   ........           _BLF     ??_Tidy,??_Tidy??rA
   \   00000258   0020A0E3           MOV      R2,#+0
   \   0000025C   0110A0E3           MOV      R1,#+1
   \   00000260   38008DE2           ADD      R0,SP,#+56
   \   00000264   ........           _BLF     ??_Tidy,??_Tidy??rA
   \   00000268   0020A0E3           MOV      R2,#+0
   \   0000026C   0110A0E3           MOV      R1,#+1
   \   00000270   70008DE2           ADD      R0,SP,#+112
   \   00000274   ........           _BLF     ??_Tidy,??_Tidy??rA
   \   00000278   0020A0E3           MOV      R2,#+0
   \   0000027C   0110A0E3           MOV      R1,#+1
   \   00000280   0D00A0E1           MOV      R0,SP
   \   00000284   ........           _BLF     ??_Tidy,??_Tidy??rA
   \   00000288   0020A0E3           MOV      R2,#+0
   \   0000028C   0110A0E3           MOV      R1,#+1
   \   00000290   54008DE2           ADD      R0,SP,#+84
   \   00000294   ........           _BLF     ??_Tidy,??_Tidy??rA
    100              }
    101              if ( hasCableLengthSensor ) {
   \                     ??MakeConfigString_6:
   \   00000298   8201D4E5           LDRB     R0,[R4, #+386]
   \   0000029C   000050E3           CMP      R0,#+0
   \   000002A0   2D00000A           BEQ      ??MakeConfigString_7
    102                  LocalString += TabStr2 + KeyWord(C_AI_CABLE_LENGTH_SENS) + FloatToAnsiString(CableLengthSensor) + CrLfStr;
   \   000002A4   681194E5           LDR      R1,[R4, #+360]
   \   000002A8   0330A0E3           MOV      R3,#+3
   \   000002AC   0720A0E3           MOV      R2,#+7
   \   000002B0   54008DE2           ADD      R0,SP,#+84
   \   000002B4   ........           _BLF     ??FloatToAnsiString,??FloatToAnsiString??rA
   \   000002B8   A810A0E3           MOV      R1,#+168
   \   000002BC   801E81E3           ORR      R1,R1,#0x800
   \   000002C0   70008DE2           ADD      R0,SP,#+112
   \   000002C4   ........           _BLF     ??KeyWord,??KeyWord??rA
   \   000002C8   70208DE2           ADD      R2,SP,#+112
   \   000002CC   8C108DE2           ADD      R1,SP,#+140
   \   000002D0   1C008DE2           ADD      R0,SP,#+28
   \   000002D4   ........           _BLF     `??operator+`,`??operator+??rA`
   \   000002D8   54208DE2           ADD      R2,SP,#+84
   \   000002DC   1C108DE2           ADD      R1,SP,#+28
   \   000002E0   38008DE2           ADD      R0,SP,#+56
   \   000002E4   ........           _BLF     `??operator+`,`??operator+??rA`
   \   000002E8   0620A0E1           MOV      R2,R6
   \   000002EC   38108DE2           ADD      R1,SP,#+56
   \   000002F0   0D00A0E1           MOV      R0,SP
   \   000002F4   ........           _BLF     `??operator+`,`??operator+??rA`
   \   000002F8   0730A0E1           MOV      R3,R7
   \   000002FC   0020A0E3           MOV      R2,#+0
   \   00000300   0D10A0E1           MOV      R1,SP
   \   00000304   0500A0E1           MOV      R0,R5
   \   00000308   ........           _BLF     ??append,??append??rA
   \   0000030C   0020A0E3           MOV      R2,#+0
   \   00000310   0110A0E3           MOV      R1,#+1
   \   00000314   0D00A0E1           MOV      R0,SP
   \   00000318   ........           _BLF     ??_Tidy,??_Tidy??rA
   \   0000031C   0020A0E3           MOV      R2,#+0
   \   00000320   0110A0E3           MOV      R1,#+1
   \   00000324   38008DE2           ADD      R0,SP,#+56
   \   00000328   ........           _BLF     ??_Tidy,??_Tidy??rA
   \   0000032C   0020A0E3           MOV      R2,#+0
   \   00000330   0110A0E3           MOV      R1,#+1
   \   00000334   54008DE2           ADD      R0,SP,#+84
   \   00000338   ........           _BLF     ??_Tidy,??_Tidy??rA
   \   0000033C   0020A0E3           MOV      R2,#+0
   \   00000340   0110A0E3           MOV      R1,#+1
   \   00000344   1C008DE2           ADD      R0,SP,#+28
   \   00000348   ........           _BLF     ??_Tidy,??_Tidy??rA
   \   0000034C   0020A0E3           MOV      R2,#+0
   \   00000350   0110A0E3           MOV      R1,#+1
   \   00000354   70008DE2           ADD      R0,SP,#+112
   \   00000358   ........           _BLF     ??_Tidy,??_Tidy??rA
    103              }
    104              if ( CableResistanceShip != SHIP_BOARD_CABLE_RES ) {
   \                     ??MakeConfigString_7:
   \   0000035C   6C8194E5           LDR      R8,[R4, #+364]
   \   00000360   0800A0E1           MOV      R0,R8
   \   00000364   ........           _BLF     __floatToDouble,??__floatToDouble??rA
   \   00000368   0020A0E1           MOV      R2,R0
   \   0000036C   BC039FE5           LDR      R0,??MakeConfigString_3+0x4  ;; 0x76c8b439
   \   00000370   0130A0E1           MOV      R3,R1
   \   00000374   B8139FE5           LDR      R1,??MakeConfigString_3+0x8  ;; 0x3faa9fbe
   \   00000378   ........           _BLF     __dNotEqual,??__dNotEqual??rA
   \   0000037C   000050E3           CMP      R0,#+0
   \   00000380   2D00000A           BEQ      ??MakeConfigString_8
    105                  LocalString += TabStr2 + KeyWord(C_AI_CABLE_RES_SHIP) + FloatToAnsiString(CableResistanceShip) + CrLfStr;
   \   00000384   0330A0E3           MOV      R3,#+3
   \   00000388   0720A0E3           MOV      R2,#+7
   \   0000038C   0810A0E1           MOV      R1,R8
   \   00000390   70008DE2           ADD      R0,SP,#+112
   \   00000394   ........           _BLF     ??FloatToAnsiString,??FloatToAnsiString??rA
   \   00000398   A910A0E3           MOV      R1,#+169
   \   0000039C   801E81E3           ORR      R1,R1,#0x800
   \   000003A0   54008DE2           ADD      R0,SP,#+84
   \   000003A4   ........           _BLF     ??KeyWord,??KeyWord??rA
   \   000003A8   54208DE2           ADD      R2,SP,#+84
   \   000003AC   8C108DE2           ADD      R1,SP,#+140
   \   000003B0   0D00A0E1           MOV      R0,SP
   \   000003B4   ........           _BLF     `??operator+`,`??operator+??rA`
   \   000003B8   70208DE2           ADD      R2,SP,#+112
   \   000003BC   0D10A0E1           MOV      R1,SP
   \   000003C0   38008DE2           ADD      R0,SP,#+56
   \   000003C4   ........           _BLF     `??operator+`,`??operator+??rA`
   \   000003C8   0620A0E1           MOV      R2,R6
   \   000003CC   38108DE2           ADD      R1,SP,#+56
   \   000003D0   1C008DE2           ADD      R0,SP,#+28
   \   000003D4   ........           _BLF     `??operator+`,`??operator+??rA`
   \   000003D8   0730A0E1           MOV      R3,R7
   \   000003DC   0020A0E3           MOV      R2,#+0
   \   000003E0   1C108DE2           ADD      R1,SP,#+28
   \   000003E4   0500A0E1           MOV      R0,R5
   \   000003E8   ........           _BLF     ??append,??append??rA
   \   000003EC   0020A0E3           MOV      R2,#+0
   \   000003F0   0110A0E3           MOV      R1,#+1
   \   000003F4   1C008DE2           ADD      R0,SP,#+28
   \   000003F8   ........           _BLF     ??_Tidy,??_Tidy??rA
   \   000003FC   0020A0E3           MOV      R2,#+0
   \   00000400   0110A0E3           MOV      R1,#+1
   \   00000404   38008DE2           ADD      R0,SP,#+56
   \   00000408   ........           _BLF     ??_Tidy,??_Tidy??rA
   \   0000040C   0020A0E3           MOV      R2,#+0
   \   00000410   0110A0E3           MOV      R1,#+1
   \   00000414   70008DE2           ADD      R0,SP,#+112
   \   00000418   ........           _BLF     ??_Tidy,??_Tidy??rA
   \   0000041C   0020A0E3           MOV      R2,#+0
   \   00000420   0110A0E3           MOV      R1,#+1
   \   00000424   0D00A0E1           MOV      R0,SP
   \   00000428   ........           _BLF     ??_Tidy,??_Tidy??rA
   \   0000042C   0020A0E3           MOV      R2,#+0
   \   00000430   0110A0E3           MOV      R1,#+1
   \   00000434   54008DE2           ADD      R0,SP,#+84
   \   00000438   ........           _BLF     ??_Tidy,??_Tidy??rA
    106              }
    107              if ( CableResistanceSensor != TEMP_SENS_CABLE_RES ) {
   \                     ??MakeConfigString_8:
   \   0000043C   708194E5           LDR      R8,[R4, #+368]
   \   00000440   0800A0E1           MOV      R0,R8
   \   00000444   ........           _BLF     __floatToDouble,??__floatToDouble??rA
   \   00000448   0020A0E1           MOV      R2,R0
   \   0000044C   0130A0E1           MOV      R3,R1
   \   00000450   0000A0E3           MOV      R0,#+0
   \   00000454   C015A0E3           MOV      R1,#+805306368
   \   00000458   FF1681E3           ORR      R1,R1,#0xFF00000
   \   0000045C   ........           _BLF     __dNotEqual,??__dNotEqual??rA
   \   00000460   000050E3           CMP      R0,#+0
   \   00000464   2D00000A           BEQ      ??MakeConfigString_9
    108                  LocalString += TabStr2 + KeyWord(C_AI_CABLE_RES_SENS) + FloatToAnsiString(CableResistanceSensor) + CrLfStr;
   \   00000468   0330A0E3           MOV      R3,#+3
   \   0000046C   0720A0E3           MOV      R2,#+7
   \   00000470   0810A0E1           MOV      R1,R8
   \   00000474   54008DE2           ADD      R0,SP,#+84
   \   00000478   ........           _BLF     ??FloatToAnsiString,??FloatToAnsiString??rA
   \   0000047C   AA10A0E3           MOV      R1,#+170
   \   00000480   801E81E3           ORR      R1,R1,#0x800
   \   00000484   70008DE2           ADD      R0,SP,#+112
   \   00000488   ........           _BLF     ??KeyWord,??KeyWord??rA
   \   0000048C   70208DE2           ADD      R2,SP,#+112
   \   00000490   8C108DE2           ADD      R1,SP,#+140
   \   00000494   1C008DE2           ADD      R0,SP,#+28
   \   00000498   ........           _BLF     `??operator+`,`??operator+??rA`
   \   0000049C   54208DE2           ADD      R2,SP,#+84
   \   000004A0   1C108DE2           ADD      R1,SP,#+28
   \   000004A4   38008DE2           ADD      R0,SP,#+56
   \   000004A8   ........           _BLF     `??operator+`,`??operator+??rA`
   \   000004AC   0620A0E1           MOV      R2,R6
   \   000004B0   38108DE2           ADD      R1,SP,#+56
   \   000004B4   0D00A0E1           MOV      R0,SP
   \   000004B8   ........           _BLF     `??operator+`,`??operator+??rA`
   \   000004BC   0730A0E1           MOV      R3,R7
   \   000004C0   0020A0E3           MOV      R2,#+0
   \   000004C4   0D10A0E1           MOV      R1,SP
   \   000004C8   0500A0E1           MOV      R0,R5
   \   000004CC   ........           _BLF     ??append,??append??rA
   \   000004D0   0020A0E3           MOV      R2,#+0
   \   000004D4   0110A0E3           MOV      R1,#+1
   \   000004D8   0D00A0E1           MOV      R0,SP
   \   000004DC   ........           _BLF     ??_Tidy,??_Tidy??rA
   \   000004E0   0020A0E3           MOV      R2,#+0
   \   000004E4   0110A0E3           MOV      R1,#+1
   \   000004E8   38008DE2           ADD      R0,SP,#+56
   \   000004EC   ........           _BLF     ??_Tidy,??_Tidy??rA
   \   000004F0   0020A0E3           MOV      R2,#+0
   \   000004F4   0110A0E3           MOV      R1,#+1
   \   000004F8   54008DE2           ADD      R0,SP,#+84
   \   000004FC   ........           _BLF     ??_Tidy,??_Tidy??rA
   \   00000500   0020A0E3           MOV      R2,#+0
   \   00000504   0110A0E3           MOV      R1,#+1
   \   00000508   1C008DE2           ADD      R0,SP,#+28
   \   0000050C   ........           _BLF     ??_Tidy,??_Tidy??rA
   \   00000510   0020A0E3           MOV      R2,#+0
   \   00000514   0110A0E3           MOV      R1,#+1
   \   00000518   70008DE2           ADD      R0,SP,#+112
   \   0000051C   ........           _BLF     ??_Tidy,??_Tidy??rA
    109              }
    110              if ( CableMsrdResistance ) {
   \                     ??MakeConfigString_9:
   \   00000520   748194E5           LDR      R8,[R4, #+372]
   \   00000524   0000A0E3           MOV      R0,#+0
   \   00000528   0810A0E1           MOV      R1,R8
   \   0000052C   ........           _BLF     __fNotEqual,??__fNotEqual??rA
   \   00000530   000050E3           CMP      R0,#+0
   \   00000534   2D00000A           BEQ      ??MakeConfigString_10
    111                  LocalString += TabStr2 + KeyWord(C_AI_CABLE_RES_MSRD) + FloatToAnsiString(CableMsrdResistance) + CrLfStr;
   \   00000538   0330A0E3           MOV      R3,#+3
   \   0000053C   0720A0E3           MOV      R2,#+7
   \   00000540   0810A0E1           MOV      R1,R8
   \   00000544   70008DE2           ADD      R0,SP,#+112
   \   00000548   ........           _BLF     ??FloatToAnsiString,??FloatToAnsiString??rA
   \   0000054C   AB10A0E3           MOV      R1,#+171
   \   00000550   801E81E3           ORR      R1,R1,#0x800
   \   00000554   54008DE2           ADD      R0,SP,#+84
   \   00000558   ........           _BLF     ??KeyWord,??KeyWord??rA
   \   0000055C   54208DE2           ADD      R2,SP,#+84
   \   00000560   8C108DE2           ADD      R1,SP,#+140
   \   00000564   0D00A0E1           MOV      R0,SP
   \   00000568   ........           _BLF     `??operator+`,`??operator+??rA`
   \   0000056C   70208DE2           ADD      R2,SP,#+112
   \   00000570   0D10A0E1           MOV      R1,SP
   \   00000574   38008DE2           ADD      R0,SP,#+56
   \   00000578   ........           _BLF     `??operator+`,`??operator+??rA`
   \   0000057C   0620A0E1           MOV      R2,R6
   \   00000580   38108DE2           ADD      R1,SP,#+56
   \   00000584   1C008DE2           ADD      R0,SP,#+28
   \   00000588   ........           _BLF     `??operator+`,`??operator+??rA`
   \   0000058C   0730A0E1           MOV      R3,R7
   \   00000590   0020A0E3           MOV      R2,#+0
   \   00000594   1C108DE2           ADD      R1,SP,#+28
   \   00000598   0500A0E1           MOV      R0,R5
   \   0000059C   ........           _BLF     ??append,??append??rA
   \   000005A0   0020A0E3           MOV      R2,#+0
   \   000005A4   0110A0E3           MOV      R1,#+1
   \   000005A8   1C008DE2           ADD      R0,SP,#+28
   \   000005AC   ........           _BLF     ??_Tidy,??_Tidy??rA
   \   000005B0   0020A0E3           MOV      R2,#+0
   \   000005B4   0110A0E3           MOV      R1,#+1
   \   000005B8   38008DE2           ADD      R0,SP,#+56
   \   000005BC   ........           _BLF     ??_Tidy,??_Tidy??rA
   \   000005C0   0020A0E3           MOV      R2,#+0
   \   000005C4   0110A0E3           MOV      R1,#+1
   \   000005C8   70008DE2           ADD      R0,SP,#+112
   \   000005CC   ........           _BLF     ??_Tidy,??_Tidy??rA
   \   000005D0   0020A0E3           MOV      R2,#+0
   \   000005D4   0110A0E3           MOV      R1,#+1
   \   000005D8   0D00A0E1           MOV      R0,SP
   \   000005DC   ........           _BLF     ??_Tidy,??_Tidy??rA
   \   000005E0   0020A0E3           MOV      R2,#+0
   \   000005E4   0110A0E3           MOV      R1,#+1
   \   000005E8   54008DE2           ADD      R0,SP,#+84
   \   000005EC   ........           _BLF     ??_Tidy,??_Tidy??rA
    112              }
    113              if ( CalData ) {
   \                     ??MakeConfigString_10:
   \   000005F0   843194E5           LDR      R3,[R4, #+388]
   \   000005F4   000053E3           CMP      R3,#+0
   \   000005F8   0F00000A           BEQ      ??MakeConfigString_11
    114                  LocalString += CalData->MakeConfigString();
   \   000005FC   0300A0E1           MOV      R0,R3
   \   00000600   0C3093E5           LDR      R3,[R3, #+12]
   \   00000604   0020A0E3           MOV      R2,#+0
   \   00000608   003093E5           LDR      R3,[R3, #+0]
   \   0000060C   0D10A0E1           MOV      R1,SP
   \   00000610   0FE0A0E1           MOV      LR,PC
   \   00000614   13FF2FE1           BX       R3
   \   00000618   0730A0E1           MOV      R3,R7
   \   0000061C   0020A0E3           MOV      R2,#+0
   \   00000620   0D10A0E1           MOV      R1,SP
   \   00000624   0500A0E1           MOV      R0,R5
   \   00000628   ........           _BLF     ??append,??append??rA
   \   0000062C   0020A0E3           MOV      R2,#+0
   \   00000630   0110A0E3           MOV      R1,#+1
   \   00000634   0D00A0E1           MOV      R0,SP
   \   00000638   ........           _BLF     ??_Tidy,??_Tidy??rA
    115              }
    116              LocalString += TabStr1 + KeyWord(C_AI_END) + CrLfStr;
   \                     ??MakeConfigString_11:
   \   0000063C   9810A0E3           MOV      R1,#+152
   \   00000640   801E81E3           ORR      R1,R1,#0x800
   \   00000644   540F8DE2           ADD      R0,SP,#+336
   \   00000648   ........           _BLF     ??KeyWord,??KeyWord??rA
   \   0000064C   542F8DE2           ADD      R2,SP,#+336
   \   00000650   5B1F8DE2           ADD      R1,SP,#+364
   \   00000654   4D0F8DE2           ADD      R0,SP,#+308
   \   00000658   ........           _BLF     `??operator+`,`??operator+??rA`
   \   0000065C   0620A0E1           MOV      R2,R6
   \   00000660   4D1F8DE2           ADD      R1,SP,#+308
   \   00000664   460F8DE2           ADD      R0,SP,#+280
   \   00000668   ........           _BLF     `??operator+`,`??operator+??rA`
   \   0000066C   0730A0E1           MOV      R3,R7
   \   00000670   0020A0E3           MOV      R2,#+0
   \   00000674   461F8DE2           ADD      R1,SP,#+280
   \   00000678   0500A0E1           MOV      R0,R5
   \   0000067C   ........           _BLF     ??append,??append??rA
   \   00000680   0020A0E3           MOV      R2,#+0
   \   00000684   0110A0E3           MOV      R1,#+1
   \   00000688   460F8DE2           ADD      R0,SP,#+280
   \   0000068C   ........           _BLF     ??_Tidy,??_Tidy??rA
   \   00000690   0020A0E3           MOV      R2,#+0
   \   00000694   0110A0E3           MOV      R1,#+1
   \   00000698   4D0F8DE2           ADD      R0,SP,#+308
   \   0000069C   ........           _BLF     ??_Tidy,??_Tidy??rA
   \   000006A0   0020A0E3           MOV      R2,#+0
   \   000006A4   0110A0E3           MOV      R1,#+1
   \   000006A8   540F8DE2           ADD      R0,SP,#+336
   \   000006AC   ........           _BLF     ??_Tidy,??_Tidy??rA
    117              LocalString += CrLfStr;
   \   000006B0   0730A0E1           MOV      R3,R7
   \   000006B4   0020A0E3           MOV      R2,#+0
   \   000006B8   0610A0E1           MOV      R1,R6
   \   000006BC   0500A0E1           MOV      R0,R5
   \   000006C0   ........           _BLF     ??append,??append??rA
    118          
    119              return (LocalString);
   \   000006C4   0020A0E3           MOV      R2,#+0
   \   000006C8   0110A0E3           MOV      R1,#+1
   \   000006CC   770F8DE2           ADD      R0,SP,#+476
   \   000006D0   ........           _BLF     ??_Tidy,??_Tidy??rA
   \   000006D4   0020A0E3           MOV      R2,#+0
   \   000006D8   0110A0E3           MOV      R1,#+1
   \   000006DC   700F8DE2           ADD      R0,SP,#+448
   \   000006E0   ........           _BLF     ??_Tidy,??_Tidy??rA
   \   000006E4   0020A0E3           MOV      R2,#+0
   \   000006E8   0110A0E3           MOV      R1,#+1
   \   000006EC   620F8DE2           ADD      R0,SP,#+392
   \   000006F0   ........           _BLF     ??_Tidy,??_Tidy??rA
   \   000006F4   0020A0E3           MOV      R2,#+0
   \   000006F8   0110A0E3           MOV      R1,#+1
   \   000006FC   690F8DE2           ADD      R0,SP,#+420
   \   00000700   ........           _BLF     ??_Tidy,??_Tidy??rA
   \   00000704   0020A0E3           MOV      R2,#+0
   \   00000708   0110A0E3           MOV      R1,#+1
   \   0000070C   8C008DE2           ADD      R0,SP,#+140
   \   00000710   ........           _BLF     ??_Tidy,??_Tidy??rA
   \   00000714   0020A0E3           MOV      R2,#+0
   \   00000718   0110A0E3           MOV      R1,#+1
   \   0000071C   5B0F8DE2           ADD      R0,SP,#+364
   \   00000720   ........           _BLF     ??_Tidy,??_Tidy??rA
   \   00000724   7EDF8DE2           ADD      SP,SP,#+504
   \   00000728   ........           B        ?Subroutine24
   \                     ??MakeConfigString_3:
   \   0000072C   ........           DC32     CrLfStr
   \   00000730   39B4C876           DC32     0x76c8b439
   \   00000734   BE9FAA3F           DC32     0x3faa9fbe
    120          }

   \                                 In segment CODE, align 4, keep-with-next
   \                     ?Subroutine24:
   \   00000000   F041BDE8           POP      {R4-R8,LR}
   \   00000004   1EFF2FE1           BX       LR               ;; return
    121          //---------------------------------------------------------------------------
    122          

   \                                 In segment CODE, align 4, keep-with-next
    123          bool AITempSensor::LoadConfigString(TSNConfigString &ConfigString) {
   \                     ??LoadConfigString:
   \   00000000   F04D2DE9           PUSH     {R4-R8,R10,R11,LR}
    124              bool NoError = true;
    125              int ErrorLine = 0;
    126              int Key; 
    127              AnsiString PROName = "Temperature sensor";
   \   00000004   50A49FE5           LDR      R10,??LoadConfigString_2+0x4  ;; `?<Constant "Temperature sensor">`
   \   00000008   ACD04DE2           SUB      SP,SP,#+172
   \   0000000C   0040A0E1           MOV      R4,R0
   \   00000010   0150A0E1           MOV      R5,R1
   \   00000014   0010A0E3           MOV      R1,#+0
   \   00000018   00108DE5           STR      R1,[SP, #+0]
   \   0000001C   0A10A0E1           MOV      R1,R10
   \   00000020   3C008DE2           ADD      R0,SP,#+60
   \   00000024   ........           _BLF     ??AnsiString_1,??AnsiString??rA_1
    128              if ( PROPtr )   PROName += (AnsiString)", for " + PROPtr->Name;
   \   00000028   ........           LDR      R11,??DataTable5  ;; ??npos
   \   0000002C   498FA0E3           MOV      R8,#+292
   \   00000030   040098E7           LDR      R0,[R8, +R4]
   \   00000034   0160A0E3           MOV      R6,#+1
   \   00000038   000050E3           CMP      R0,#+0
   \   0000003C   1400000A           BEQ      ??LoadConfigString_3
   \   00000040   14108AE2           ADD      R1,R10,#+20
   \   00000044   20008DE2           ADD      R0,SP,#+32
   \   00000048   ........           _BLF     ??AnsiString_1,??AnsiString??rA_1
   \   0000004C   0010A0E1           MOV      R1,R0
   \   00000050   040098E7           LDR      R0,[R8, +R4]
   \   00000054   442080E2           ADD      R2,R0,#+68
   \   00000058   04008DE2           ADD      R0,SP,#+4
   \   0000005C   ........           _BLF     `??operator+`,`??operator+??rA`
   \   00000060   00309BE5           LDR      R3,[R11, #+0]
   \   00000064   0020A0E3           MOV      R2,#+0
   \   00000068   04108DE2           ADD      R1,SP,#+4
   \   0000006C   3C008DE2           ADD      R0,SP,#+60
   \   00000070   ........           _BLF     ??append,??append??rA
   \   00000074   0020A0E3           MOV      R2,#+0
   \   00000078   0110A0E3           MOV      R1,#+1
   \   0000007C   04008DE2           ADD      R0,SP,#+4
   \   00000080   ........           _BLF     ??_Tidy,??_Tidy??rA
   \   00000084   0020A0E3           MOV      R2,#+0
   \   00000088   0610A0E1           MOV      R1,R6
   \   0000008C   20008DE2           ADD      R0,SP,#+32
   \   00000090   ........           _BLF     ??_Tidy,??_Tidy??rA
    129              PROName += ":\n";
   \                     ??LoadConfigString_3:
   \   00000094   EF8F8FE2           ADR      R8,??LoadConfigString_2  ;; ":\n"
   \   00000098   0800A0E1           MOV      R0,R8
   \   0000009C   ........           _BLF     strlen,??strlen??rA
   \   000000A0   0020A0E1           MOV      R2,R0
   \   000000A4   0810A0E1           MOV      R1,R8
   \   000000A8   3C008DE2           ADD      R0,SP,#+60
   \   000000AC   ........           _BLF     ??append_1,??append??rA_1
   \   000000B0   008066E2           RSB      R8,R6,#+0
    130              do {
    131                  AnsiString InputKeyWord = ConfigString.NextWord(ErrorLine);
   \                     ??LoadConfigString_4:
   \   000000B4   0030A0E3           MOV      R3,#+0
   \   000000B8   0D20A0E1           MOV      R2,SP
   \   000000BC   20108DE2           ADD      R1,SP,#+32
   \   000000C0   0500A0E1           MOV      R0,R5
   \   000000C4   ........           _BLF     ??NextWord,??NextWord??rA
    132                  if ( ErrorLine ) {
   \   000000C8   00009DE5           LDR      R0,[SP, #+0]
   \   000000CC   000050E3           CMP      R0,#+0
   \   000000D0   0C00000A           BEQ      ??LoadConfigString_5
    133                      if ( ErrorLine != EOF ) {
   \   000000D4   080050E1           CMP      R0,R8
   \   000000D8   9C00000A           BEQ      ??LoadConfigString_6
    134                          GiveConfigWarning(PROName, ErrorLine);
   \   000000DC   3C108DE2           ADD      R1,SP,#+60
   \   000000E0   04008DE2           ADD      R0,SP,#+4
   \   000000E4   ........           _BLF     ??string,??string??rA
   \   000000E8   00109DE5           LDR      R1,[SP, #+0]
   \   000000EC   04008DE2           ADD      R0,SP,#+4
   \   000000F0   ........           _BLF     ??GiveConfigWarning,??GiveConfigWarning??rA
   \   000000F4   0020A0E3           MOV      R2,#+0
   \   000000F8   0110A0E3           MOV      R1,#+1
   \   000000FC   04008DE2           ADD      R0,SP,#+4
   \                     ??LoadConfigString_7:
   \   00000100   ........           _BLF     ??_Tidy,??_Tidy??rA
   \   00000104   910000EA           B        ??LoadConfigString_6
    135                      }
    136                  } else {
    137                      Key = FindConfigKey(InputKeyWord);
   \                     ??LoadConfigString_5:
   \   00000108   20108DE2           ADD      R1,SP,#+32
   \   0000010C   04008DE2           ADD      R0,SP,#+4
   \   00000110   ........           _BLF     ??string,??string??rA
   \   00000114   04008DE2           ADD      R0,SP,#+4
   \   00000118   ........           _BLF     ??FindConfigKey,??FindConfigKey??rA
   \   0000011C   0070A0E1           MOV      R7,R0
   \   00000120   0020A0E3           MOV      R2,#+0
   \   00000124   0110A0E3           MOV      R1,#+1
   \   00000128   04008DE2           ADD      R0,SP,#+4
   \   0000012C   ........           _BLF     ??_Tidy,??_Tidy??rA
    138                      switch ( Key ) {
   \   00000130   0100A0E3           MOV      R0,#+1
   \   00000134   9520A0E3           MOV      R2,#+149
   \   00000138   502E82E3           ORR      R2,R2,#0x500
   \   0000013C   020057E1           CMP      R7,R2
   \   00000140   7500000A           BEQ      ??LoadConfigString_8
   \   00000144   9820A0E3           MOV      R2,#+152
   \   00000148   802E82E3           ORR      R2,R2,#0x800
   \   0000014C   020057E1           CMP      R7,R2
   \   00000150   7E00000A           BEQ      ??LoadConfigString_6
   \   00000154   012082E3           ORR      R2,R2,#0x1
   \   00000158   020057E1           CMP      R7,R2
   \   0000015C   2A00000A           BEQ      ??LoadConfigString_9
   \   00000160   0D2082E2           ADD      R2,R2,#+13
   \   00000164   020057E1           CMP      R7,R2
   \   00000168   3600000A           BEQ      ??LoadConfigString_10
   \   0000016C   012082E3           ORR      R2,R2,#0x1
   \   00000170   020057E1           CMP      R7,R2
   \   00000174   01208212           ADDNE    R2,R2,#+1
   \   00000178   02005711           CMPNE    R7,R2
   \   0000017C   3E00000A           BEQ      ??LoadConfigString_11
   \   00000180   012082E3           ORR      R2,R2,#0x1
   \   00000184   020057E1           CMP      R7,R2
   \   00000188   4600000A           BEQ      ??LoadConfigString_12
   \   0000018C   012082E2           ADD      R2,R2,#+1
   \   00000190   020057E1           CMP      R7,R2
   \   00000194   4E00000A           BEQ      ??LoadConfigString_13
   \   00000198   012082E3           ORR      R2,R2,#0x1
   \   0000019C   020057E1           CMP      R7,R2
   \   000001A0   5300000A           BEQ      ??LoadConfigString_14
   \   000001A4   0A2082E2           ADD      R2,R2,#+10
   \   000001A8   020057E1           CMP      R7,R2
   \   000001AC   5A00000A           BEQ      ??LoadConfigString_8
   \   000001B0   522082E2           ADD      R2,R2,#+82
   \   000001B4   020057E1           CMP      R7,R2
   \   000001B8   01208212           ADDNE    R2,R2,#+1
   \   000001BC   02005711           CMPNE    R7,R2
   \   000001C0   6100000A           BEQ      ??LoadConfigString_15
    139                      default:
    140                          GiveConfigWarning(PROName, InputKeyWord, ConfigString.LineCount);
   \   000001C4   20108DE2           ADD      R1,SP,#+32
   \   000001C8   58008DE2           ADD      R0,SP,#+88
   \   000001CC   ........           _BLF     ??string,??string??rA
   \   000001D0   3C108DE2           ADD      R1,SP,#+60
   \   000001D4   74008DE2           ADD      R0,SP,#+116
   \   000001D8   ........           _BLF     ??string,??string??rA
   \   000001DC   1C2095E5           LDR      R2,[R5, #+28]
   \   000001E0   58108DE2           ADD      R1,SP,#+88
   \   000001E4   74008DE2           ADD      R0,SP,#+116
   \   000001E8   ........           _BLF     ??GiveConfigWarning_1,??GiveConfigWarning??rA_1
   \   000001EC   0020A0E3           MOV      R2,#+0
   \   000001F0   0110A0E3           MOV      R1,#+1
   \   000001F4   58008DE2           ADD      R0,SP,#+88
   \   000001F8   ........           _BLF     ??_Tidy,??_Tidy??rA
   \   000001FC   0020A0E3           MOV      R2,#+0
   \   00000200   0110A0E3           MOV      R1,#+1
   \   00000204   74008DE2           ADD      R0,SP,#+116
   \   00000208   BCFFFFEA           B        ??LoadConfigString_7
    141                          break;
    142                      case C_AI_START_COMMON:
    143          				AnalogInput::LoadConfigString(ConfigString);
   \                     ??LoadConfigString_9:
   \   0000020C   0510A0E1           MOV      R1,R5
   \   00000210   0400A0E1           MOV      R0,R4
   \   00000214   ........           _BLF     ??LoadConfigString_1,??LoadConfigString??rA
    144                          PROName = "Temperature sensor";
   \   00000218   0A10A0E1           MOV      R1,R10
   \   0000021C   90008DE2           ADD      R0,SP,#+144
   \   00000220   ........           _BLF     ??AnsiString_1,??AnsiString??rA_1
   \   00000224   00309BE5           LDR      R3,[R11, #+0]
   \   00000228   0020A0E3           MOV      R2,#+0
   \   0000022C   0010A0E1           MOV      R1,R0
   \   00000230   3C008DE2           ADD      R0,SP,#+60
   \   00000234   ........           _BLF     ??assign,??assign??rA
   \   00000238   0020A0E3           MOV      R2,#+0
   \   0000023C   0110A0E3           MOV      R1,#+1
   \   00000240   90008DE2           ADD      R0,SP,#+144
   \   00000244   ADFFFFEA           B        ??LoadConfigString_7
    145                          break;
    146                      case C_AI_CABLE_LENGTH_SHIP:
    147                          CableLengthShip     = ConfigString.ReadDouble(ErrorLine);
   \                     ??LoadConfigString_10:
   \   00000248   0020A0E3           MOV      R2,#+0
   \   0000024C   0D10A0E1           MOV      R1,SP
   \   00000250   0500A0E1           MOV      R0,R5
   \   00000254   ........           _BLF     ??ReadDouble,??ReadDouble??rA
   \   00000258   ........           _BLF     __doubleToFloat,??__doubleToFloat??rA
   \   0000025C   640184E5           STR      R0,[R4, #+356]
    148                          NoError = !ErrorLine;
   \   00000260   00009DE5           LDR      R0,[SP, #+0]
   \   00000264   000050E3           CMP      R0,#+0
   \   00000268   0100001A           BNE      ??LoadConfigString_16
   \                     ??LoadConfigString_17:
   \   0000026C   0160A0E3           MOV      R6,#+1
   \   00000270   360000EA           B        ??LoadConfigString_6
   \                     ??LoadConfigString_16:
   \   00000274   0060A0E3           MOV      R6,#+0
   \   00000278   340000EA           B        ??LoadConfigString_6
    149                          break;
    150                      case C_AI_CABLE_LENGTH_SENS2:
    151                      case C_AI_CABLE_LENGTH_SENS:
    152                          hasCableLengthSensor = true;
   \                     ??LoadConfigString_11:
   \   0000027C   8201C4E5           STRB     R0,[R4, #+386]
    153                          CableLengthSensor    = ConfigString.ReadDouble(ErrorLine);
   \   00000280   0020A0E3           MOV      R2,#+0
   \   00000284   0D10A0E1           MOV      R1,SP
   \   00000288   0500A0E1           MOV      R0,R5
   \   0000028C   ........           _BLF     ??ReadDouble,??ReadDouble??rA
   \   00000290   ........           _BLF     __doubleToFloat,??__doubleToFloat??rA
   \   00000294   680184E5           STR      R0,[R4, #+360]
    154                          NoError = !ErrorLine;
   \                     ??LoadConfigString_18:
   \   00000298   00009DE5           LDR      R0,[SP, #+0]
   \   0000029C   000050E3           CMP      R0,#+0
   \   000002A0   F3FFFF1A           BNE      ??LoadConfigString_16
   \   000002A4   F0FFFFEA           B        ??LoadConfigString_17
    155                          break;
    156                      case C_AI_CABLE_RES_SHIP   :
    157                          hasCableResistanceShip = true;
   \                     ??LoadConfigString_12:
   \   000002A8   8001C4E5           STRB     R0,[R4, #+384]
    158                          CableResistanceShip    = ConfigString.ReadDouble(ErrorLine);
   \   000002AC   0020A0E3           MOV      R2,#+0
   \   000002B0   0D10A0E1           MOV      R1,SP
   \   000002B4   0500A0E1           MOV      R0,R5
   \   000002B8   ........           _BLF     ??ReadDouble,??ReadDouble??rA
   \   000002BC   ........           _BLF     __doubleToFloat,??__doubleToFloat??rA
   \   000002C0   6C0184E5           STR      R0,[R4, #+364]
    159                          NoError = !ErrorLine;
   \   000002C4   00009DE5           LDR      R0,[SP, #+0]
   \   000002C8   000050E3           CMP      R0,#+0
   \   000002CC   E6FFFF0A           BEQ      ??LoadConfigString_17
   \                     ??LoadConfigString_19:
   \   000002D0   E7FFFFEA           B        ??LoadConfigString_16
    160                          break;
    161                      case C_AI_CABLE_RES_SENS   :
    162                          hasCableResistanceSensor = true;
   \                     ??LoadConfigString_13:
   \   000002D4   8101C4E5           STRB     R0,[R4, #+385]
    163                          CableResistanceSensor    = ConfigString.ReadDouble(ErrorLine);
   \   000002D8   0020A0E3           MOV      R2,#+0
   \   000002DC   0D10A0E1           MOV      R1,SP
   \   000002E0   0500A0E1           MOV      R0,R5
   \   000002E4   ........           _BLF     ??ReadDouble,??ReadDouble??rA
   \   000002E8   ........           _BLF     __doubleToFloat,??__doubleToFloat??rA
   \   000002EC   700184E5           STR      R0,[R4, #+368]
    164                          NoError = !ErrorLine;
   \   000002F0   E8FFFFEA           B        ??LoadConfigString_18
    165                          break;
    166                      case C_AI_CABLE_RES_MSRD   :
    167                          CableMsrdResistance = ConfigString.ReadDouble(ErrorLine);
   \                     ??LoadConfigString_14:
   \   000002F4   0020A0E3           MOV      R2,#+0
   \   000002F8   0D10A0E1           MOV      R1,SP
   \   000002FC   0500A0E1           MOV      R0,R5
   \   00000300   ........           _BLF     ??ReadDouble,??ReadDouble??rA
   \   00000304   ........           _BLF     __doubleToFloat,??__doubleToFloat??rA
   \   00000308   740184E5           STR      R0,[R4, #+372]
    168                          NoError = !ErrorLine;
   \   0000030C   00009DE5           LDR      R0,[SP, #+0]
   \   00000310   000050E3           CMP      R0,#+0
   \   00000314   D6FFFF1A           BNE      ??LoadConfigString_16
   \   00000318   D3FFFFEA           B        ??LoadConfigString_17
    169                          break;
    170                      case C_T_LEVEL_VOL_TABLE:
    171                          CalData = new TSNTable1Degree(Key);
   \                     ??LoadConfigString_8:
   \   0000031C   0700A0E1           MOV      R0,R7
   \   00000320   ........           _BLF     `??new TSNTable1Degree`,`??new TSNTable1Degree??rA`
   \   00000324   840184E5           STR      R0,[R4, #+388]
    172                          if ( CalData ) CalData->LoadConfigString(ConfigString, this);
   \   00000328   000050E3           CMP      R0,#+0
   \   0000032C   0700000A           BEQ      ??LoadConfigString_6
   \   00000330   0C3090E5           LDR      R3,[R0, #+12]
   \   00000334   0420A0E1           MOV      R2,R4
   \   00000338   043093E5           LDR      R3,[R3, #+4]
   \   0000033C   0510A0E1           MOV      R1,R5
   \   00000340   0FE0A0E1           MOV      LR,PC
   \   00000344   13FF2FE1           BX       R3
   \   00000348   000000EA           B        ??LoadConfigString_6
    173                          break;
    174                      case C_AI_CAL_DATA:
    175                          CalData = new TSNTable1Degree(Key);
    176                          if ( CalData ) CalData->LoadConfigString(ConfigString, this);
    177                          break;
    178                      case C_AI_LOC_TEMP_IN :
    179                      case C_AI_LOC_TEMP_OUT:
    180                          Location = Key;
   \                     ??LoadConfigString_15:
   \   0000034C   287184E5           STR      R7,[R4, #+296]
    181                          break;
    182                      case C_AI_END:
    183                          break;
    184                      }
    185                  }
    186              }while ( NoError && (ErrorLine != EOF) && (Key != C_AI_END) );
   \                     ??LoadConfigString_6:
   \   00000350   0020A0E3           MOV      R2,#+0
   \   00000354   0110A0E3           MOV      R1,#+1
   \   00000358   20008DE2           ADD      R0,SP,#+32
   \   0000035C   ........           _BLF     ??_Tidy,??_Tidy??rA
   \   00000360   000056E3           CMP      R6,#+0
   \   00000364   00009D15           LDRNE    R0,[SP, #+0]
   \   00000368   08005011           CMPNE    R0,R8
   \   0000036C   9800A013           MOVNE    R0,#+152
   \   00000370   800E8013           ORRNE    R0,R0,#0x800
   \   00000374   00005711           CMPNE    R7,R0
   \   00000378   4DFFFF1A           BNE      ??LoadConfigString_4
    187              if ( hasCableLengthSensor && !HasDistance ) {
   \   0000037C   8221D4E5           LDRB     R2,[R4, #+386]
   \   00000380   7C0194E5           LDR      R0,[R4, #+380]
   \   00000384   2111D4E5           LDRB     R1,[R4, #+289]
   \   00000388   4B7FA0E3           MOV      R7,#+300
   \   0000038C   000052E3           CMP      R2,#+0
   \   00000390   1E00000A           BEQ      ??LoadConfigString_20
   \   00000394   000051E3           CMP      R1,#+0
   \   00000398   2100001A           BNE      ??LoadConfigString_21
    188                  // Use radar height as the vertical zero point assuming that
    189                  // the junction box is at the same height
    190                  Distance = DistJunctionBoxToBot - CableLengthSensor;
   \   0000039C   681194E5           LDR      R1,[R4, #+360]
   \   000003A0   ........           _BLF     __fSub,??__fSub??rA
   \   000003A4   040087E7           STR      R0,[R7, +R4]
    191                  if ( Distance < 0.0 ) {
   \   000003A8   ........           _BLF     __floatToDouble,??__floatToDouble??rA
   \   000003AC   0020A0E3           MOV      R2,#+0
   \   000003B0   0030A0E3           MOV      R3,#+0
   \   000003B4   ........           _BLF     __dLess,??__dLess??rA
   \   000003B8   000050E3           CMP      R0,#+0
   \   000003BC   1800000A           BEQ      ??LoadConfigString_21
    192                      GiveConfigWarning(PROName + " Incorrect sensor cable length?", ConfigString.LineCount);
   \   000003C0   1C208AE2           ADD      R2,R10,#+28
   \   000003C4   3C108DE2           ADD      R1,SP,#+60
   \   000003C8   20008DE2           ADD      R0,SP,#+32
   \   000003CC   ........           _BLF     `??operator+_1`,`??operator+??rA_1`
   \   000003D0   20108DE2           ADD      R1,SP,#+32
   \   000003D4   04008DE2           ADD      R0,SP,#+4
   \   000003D8   ........           _BLF     ??AnsiString_2,??AnsiString??rA_2
   \   000003DC   1C1095E5           LDR      R1,[R5, #+28]
   \   000003E0   ........           _BLF     ??GiveConfigWarning,??GiveConfigWarning??rA
   \   000003E4   0020A0E3           MOV      R2,#+0
   \   000003E8   0110A0E3           MOV      R1,#+1
   \   000003EC   04008DE2           ADD      R0,SP,#+4
   \   000003F0   ........           _BLF     ??_Tidy,??_Tidy??rA
   \   000003F4   0020A0E3           MOV      R2,#+0
   \   000003F8   0110A0E3           MOV      R1,#+1
   \   000003FC   20008DE2           ADD      R0,SP,#+32
   \   00000400   ........           _BLF     ??_Tidy,??_Tidy??rA
    193                      Distance = 0.0;
   \   00000404   0000A0E3           MOV      R0,#+0
   \   00000408   040087E7           STR      R0,[R7, +R4]
   \   0000040C   040000EA           B        ??LoadConfigString_21
    194                  }
    195              } else if ( !hasCableLengthSensor && HasDistance ){
   \                     ??LoadConfigString_20:
   \   00000410   000051E3           CMP      R1,#+0
   \   00000414   0200000A           BEQ      ??LoadConfigString_21
    196                  CableLengthSensor = DistJunctionBoxToBot - Distance;
   \   00000418   041097E7           LDR      R1,[R7, +R4]
   \   0000041C   ........           _BLF     __fSub,??__fSub??rA
   \   00000420   680184E5           STR      R0,[R4, #+360]
    197              }
    198              CalculateCableCorrection();
   \                     ??LoadConfigString_21:
   \   00000424   A41094E5           LDR      R1,[R4, #+164]
   \   00000428   0400A0E1           MOV      R0,R4
   \   0000042C   841091E5           LDR      R1,[R1, #+132]
   \   00000430   0FE0A0E1           MOV      LR,PC
   \   00000434   11FF2FE1           BX       R1
    199              return (NoError);
   \   00000438   0020A0E3           MOV      R2,#+0
   \   0000043C   0110A0E3           MOV      R1,#+1
   \   00000440   3C008DE2           ADD      R0,SP,#+60
   \   00000444   ........           _BLF     ??_Tidy,??_Tidy??rA
   \   00000448   0600A0E1           MOV      R0,R6
   \   0000044C   ACD08DE2           ADD      SP,SP,#+172
   \   00000450   F04DBDE8           POP      {R4-R8,R10,R11,LR}
   \   00000454   1EFF2FE1           BX       LR               ;; return
   \                     ??LoadConfigString_2:
   \   00000458   3A0A0000           DC8      ":\n",+0
   \   0000045C   ........           DC32     `?<Constant "Temperature sensor">`
    200          }
    201          //---------------------------------------------------------------------------
    202          
    203          ///////////////////////////////////////////////////////////////
    204          //
    205          // Routines for the librarian for input
    206          //
    207          ///////////////////////////////////////////////////////////////
    208          
    209          

   \                                 In segment CODE, align 4, keep-with-next
    210          int AITempSensor::PutValue(int ValueId, int Index, AnsiString NewValue, bool Local, int *UnitId) {
   \                     ??PutValue:
   \   00000000   F0412DE9           PUSH     {R4-R8,LR}
   \   00000004   5CD04DE2           SUB      SP,SP,#+92
   \   00000008   7480DDE5           LDRB     R8,[SP, #+116]
   \   0000000C   78509DE5           LDR      R5,[SP, #+120]
   \   00000010   0040A0E1           MOV      R4,R0
   \   00000014   0160A0E1           MOV      R6,R1
   \   00000018   0270A0E1           MOV      R7,R2
   \   0000001C   0310A0E1           MOV      R1,R3
    211              int Status = E_NO_ERR, ValUnitId = NO_UNIT;
   \   00000020   0020A0E3           MOV      R2,#+0
   \   00000024   00208DE5           STR      R2,[SP, #+0]
   \   00000028   04208DE5           STR      R2,[SP, #+4]
    212              switch ( ValueId ) {
   \   0000002C   B50046E2           SUB      R0,R6,#+181
   \   00000030   400E40E2           SUB      R0,R0,#+1024
   \   00000034   030050E3           CMP      R0,#+3
   \   00000038   3000008A           BHI      ??PutValue_3
   \   0000003C   012F8FE2           ADR      R2,??PutValue_1
   \   00000040   0020D2E7           LDRB     R2,[R2, R0]
   \   00000044   02F18FE0           ADD      PC,PC,R2, LSL #+2
   \                     ??PutValue_1:
   \   00000048   002D2D1A           DC8      +0,+45,+45,+26
    213              case SVT_AI_OFFSET   :
    214                  Offset = ConvertToSi(NewValue, ValUnitId = TEMP_UNIT, Status, -180.0, 200.0, Offset);
   \                     ??PutValue_4:
   \   0000004C   0520A0E3           MOV      R2,#+5
   \   00000050   04208DE5           STR      R2,[SP, #+4]
   \   00000054   08008DE2           ADD      R0,SP,#+8
   \   00000058   ........           _BLF     ??string,??string??rA
   \   0000005C   506FA0E3           MOV      R6,#+320
   \   00000060   040096E7           LDR      R0,[R6, +R4]
   \   00000064   ........           _BLF     __floatToDouble,??__floatToDouble??rA
   \   00000068   03002DE9           PUSH     {R0,R1}
   \   0000006C   0000A0E3           MOV      R0,#+0
   \   00000070   4014A0E3           MOV      R1,#+1073741824
   \   00000074   691881E3           ORR      R1,R1,#0x690000
   \   00000078   03002DE9           PUSH     {R0,R1}
   \   0000007C   ........           LDR      R1,??DataTable6  ;; 0xffffffffc0668000
   \   00000080   03002DE9           PUSH     {R0,R1}
   \   00000084   18208DE2           ADD      R2,SP,#+24
   \   00000088   20008DE2           ADD      R0,SP,#+32
   \   0000008C   0800BDE8           POP      {R3}
   \   00000090   0510A0E3           MOV      R1,#+5
   \   00000094   ........           _BLF     ??ConvertToSi,??ConvertToSi??rA
   \   00000098   040086E7           STR      R0,[R6, +R4]
   \   0000009C   0020A0E3           MOV      R2,#+0
   \   000000A0   0110A0E3           MOV      R1,#+1
   \   000000A4   1C008DE2           ADD      R0,SP,#+28
   \   000000A8   ........           _BLF     ??_Tidy,??_Tidy??rA
   \   000000AC   14D08DE2           ADD      SP,SP,#+20
   \   000000B0   220000EA           B        ??PutValue_5
    215                  break;
    216              case SVT_AI_CALC_VAL :
    217                  Status = AdjustSensor(NewValue, ValUnitId = TEMP_UNIT, -25.0, 125.0, Local);
   \                     ??PutValue_6:
   \   000000B4   0520A0E3           MOV      R2,#+5
   \   000000B8   04208DE5           STR      R2,[SP, #+4]
   \   000000BC   24008DE2           ADD      R0,SP,#+36
   \   000000C0   ........           _BLF     ??string,??string??rA
   \   000000C4   00012DE9           PUSH     {R8}
   \   000000C8   4204A0E3           MOV      R0,#+1107296256
   \   000000CC   FA0880E3           ORR      R0,R0,#0xFA0000
   \   000000D0   01002DE9           PUSH     {R0}
   \   000000D4   C034A0E3           MOV      R3,#-1073741824
   \   000000D8   723783E3           ORR      R3,R3,#0x1C80000
   \   000000DC   0520A0E3           MOV      R2,#+5
   \   000000E0   2C108DE2           ADD      R1,SP,#+44
   \   000000E4   0400A0E1           MOV      R0,R4
   \   000000E8   ........           _BLF     ??AdjustSensor,??AdjustSensor??rA
   \   000000EC   08008DE5           STR      R0,[SP, #+8]
   \   000000F0   0020A0E3           MOV      R2,#+0
   \   000000F4   0110A0E3           MOV      R1,#+1
   \   000000F8   2C008DE2           ADD      R0,SP,#+44
   \   000000FC   0D0000EA           B        ??PutValue_7
    218                  break;
    219              default:
    220                  Status = AnalogInput::PutValue(ValueId, Index, NewValue, Local, &ValUnitId);
   \                     ??PutValue_3:
   \   00000100   40008DE2           ADD      R0,SP,#+64
   \   00000104   ........           _BLF     ??string,??string??rA
   \   00000108   04008DE2           ADD      R0,SP,#+4
   \   0000010C   01002DE9           PUSH     {R0}
   \   00000110   00012DE9           PUSH     {R8}
   \   00000114   48308DE2           ADD      R3,SP,#+72
   \   00000118   0720A0E1           MOV      R2,R7
   \   0000011C   0610A0E1           MOV      R1,R6
   \   00000120   0400A0E1           MOV      R0,R4
   \   00000124   ........           _BLF     ??PutValue_2,??PutValue??rA
   \   00000128   08008DE5           STR      R0,[SP, #+8]
   \   0000012C   0020A0E3           MOV      R2,#+0
   \   00000130   0110A0E3           MOV      R1,#+1
   \   00000134   48008DE2           ADD      R0,SP,#+72
   \                     ??PutValue_7:
   \   00000138   ........           _BLF     ??_Tidy,??_Tidy??rA
   \   0000013C   08D08DE2           ADD      SP,SP,#+8
    221                  break;
    222              }
    223              if ( Status == E_NO_ERR ) {
   \                     ??PutValue_5:
   \   00000140   00009DE5           LDR      R0,[SP, #+0]
   \   00000144   000050E3           CMP      R0,#+0
   \   00000148   0400001A           BNE      ??PutValue_8
    224                  SetModifiedFlag();
   \   0000014C   A41094E5           LDR      R1,[R4, #+164]
   \   00000150   0400A0E1           MOV      R0,R4
   \   00000154   541091E5           LDR      R1,[R1, #+84]
   \   00000158   0FE0A0E1           MOV      LR,PC
   \   0000015C   11FF2FE1           BX       R1
    225              }
    226              if ( UnitId ) {
   \                     ??PutValue_8:
   \   00000160   000055E3           CMP      R5,#+0
    227                  *UnitId = ValUnitId;
   \   00000164   04009D15           LDRNE    R0,[SP, #+4]
   \   00000168   00008515           STRNE    R0,[R5, #+0]
    228              }
    229              return (Status);
   \   0000016C   00009DE5           LDR      R0,[SP, #+0]
   \   00000170   5CD08DE2           ADD      SP,SP,#+92
   \   00000174                      REQUIRE ?Subroutine24
   \   00000174                      ;; // Fall through to label ?Subroutine24
    230          }
    231          

   \                                 In segment CODE, align 4, keep-with-next
    232          int  AITempSensor::GetValue(int ValueId, int Index, float &MyRetValue, int &DecPnt, int &Unit) {
   \                     ??GetValue:
   \   00000000   F0432DE9           PUSH     {R4-R9,LR}
   \   00000004   1C609DE5           LDR      R6,[SP, #+28]
   \   00000008   20709DE5           LDR      R7,[SP, #+32]
   \   0000000C   0040A0E1           MOV      R4,R0
   \   00000010   0350A0E1           MOV      R5,R3
    233              int Status = GETVAL_NO_ERR;
   \   00000014   0080A0E3           MOV      R8,#+0
    234              switch ( ValueId ) {
   \   00000018   0190A0E3           MOV      R9,#+1
   \   0000001C   B50041E2           SUB      R0,R1,#+181
   \   00000020   400E40E2           SUB      R0,R0,#+1024
   \   00000024   0C0050E3           CMP      R0,#+12
   \   00000028   1D00008A           BHI      ??GetValue_3
   \   0000002C   013F8FE2           ADR      R3,??GetValue_1
   \   00000030   0030D3E7           LDRB     R3,[R3, R0]
   \   00000034   03F18FE0           ADD      PC,PC,R3, LSL #+2
   \                     ??GetValue_1:
   \   00000038   031A1A05           DC8      +3,+26,+26,+5
   \   0000003C   1A1A1A1A           DC8      +26,+26,+26,+26
   \   00000040   1A1A1A1A           DC8      +26,+26,+26,+26
   \   00000044   14000000           DC8      +20,+0,+0,+0
    235              case SVT_AI_OFFSET   :
    236                  MyRetValue = Offset;
   \                     ??GetValue_4:
   \   00000048   400194E5           LDR      R0,[R4, #+320]
   \   0000004C   090000EA           B        ??GetValue_5
    237                  DecPnt     = 1;
    238                  Unit       = TEMP_UNIT;
    239                  break;
    240              case SVT_AI_CALC_VAL :
    241                  if ( !CanCalculate() ) {
   \                     ??GetValue_6:
   \   00000050   0400A0E1           MOV      R0,R4
   \   00000054   ........           _BLF     ??CanCalculate,??CanCalculate??rA
   \   00000058   000050E3           CMP      R0,#+0
    242                      Status = GETVAL_FLOAT_NOT_LEGAL;
   \   0000005C   0580A003           MOVEQ    R8,#+5
   \   00000060   0500000A           BEQ      ??GetValue_7
    243                  } else {
    244                      MyRetValue = Calculate();
   \   00000064   A41094E5           LDR      R1,[R4, #+164]
   \   00000068   0400A0E1           MOV      R0,R4
   \   0000006C   601091E5           LDR      R1,[R1, #+96]
   \   00000070   0FE0A0E1           MOV      LR,PC
   \   00000074   11FF2FE1           BX       R1
   \                     ??GetValue_5:
   \   00000078   000085E5           STR      R0,[R5, #+0]
    245                  }
    246                  DecPnt     = 1;
   \                     ??GetValue_7:
   \   0000007C   009086E5           STR      R9,[R6, #+0]
    247                  Unit       = TEMP_UNIT;
   \   00000080   0500A0E3           MOV      R0,#+5
   \   00000084   000087E5           STR      R0,[R7, #+0]
   \   00000088   0C0000EA           B        ??GetValue_8
    248                  break;
    249              case SVT_AI_CABLE_LENGTH:
    250                  MyRetValue = CableLengthSensor;
   \                     ??GetValue_9:
   \   0000008C   680194E5           LDR      R0,[R4, #+360]
   \   00000090   000085E5           STR      R0,[R5, #+0]
    251                  DecPnt     = 2;
   \   00000094   0200A0E3           MOV      R0,#+2
   \   00000098   000086E5           STR      R0,[R6, #+0]
    252                  Unit       = LENGTH_UNIT;
   \   0000009C   009087E5           STR      R9,[R7, #+0]
   \   000000A0   060000EA           B        ??GetValue_8
    253                  break;
    254              default:
    255                  Status = AnalogInput::GetValue(ValueId, Index, MyRetValue, DecPnt, Unit);
   \                     ??GetValue_3:
   \   000000A4   80002DE9           PUSH     {R7}
   \   000000A8   40002DE9           PUSH     {R6}
   \   000000AC   0530A0E1           MOV      R3,R5
   \   000000B0   0400A0E1           MOV      R0,R4
   \   000000B4   ........           _BLF     ??GetValue_2,??GetValue??rA
   \   000000B8   0080A0E1           MOV      R8,R0
   \   000000BC   08D08DE2           ADD      SP,SP,#+8
    256                  break;
    257              }
    258              return (Status);
   \                     ??GetValue_8:
   \   000000C0   0800A0E1           MOV      R0,R8
   \   000000C4   F043BDE8           POP      {R4-R9,LR}
   \   000000C8   1EFF2FE1           BX       LR               ;; return
    259          }
    260          

   \                                 In segment CODE, align 4, keep-with-next
    261          int AITempSensor::GetStringValue(int ValueId, int Index, AnsiString &MyString) {
   \                     ??GetStringValue:
   \   00000000   30402DE9           PUSH     {R4,R5,LR}
   \   00000004   1CD04DE2           SUB      SP,SP,#+28
   \   00000008   0340A0E1           MOV      R4,R3
    262              int Status = GETVAL_NO_ERR;
   \   0000000C   0050A0E3           MOV      R5,#+0
    263              switch ( ValueId ) {
   \   00000010   4C0E51E3           CMP      R1,#+1216
   \   00000014   0D00001A           BNE      ??GetStringValue_2
    264              case SVT_AI_UNIT:
    265                  MyString = GetUnitName(TEMP_UNIT);
   \   00000018   0510A0E3           MOV      R1,#+5
   \   0000001C   0D00A0E1           MOV      R0,SP
   \   00000020   ........           _BLF     ??GetUnitName,??GetUnitName??rA
   \   00000024   ........           LDR      R0,??DataTable5  ;; ??npos
   \   00000028   0020A0E3           MOV      R2,#+0
   \   0000002C   003090E5           LDR      R3,[R0, #+0]
   \   00000030   0D10A0E1           MOV      R1,SP
   \   00000034   0400A0E1           MOV      R0,R4
   \   00000038   ........           _BLF     ??assign,??assign??rA
   \   0000003C   0520A0E1           MOV      R2,R5
   \   00000040   0110A0E3           MOV      R1,#+1
   \   00000044   0D00A0E1           MOV      R0,SP
   \   00000048   ........           _BLF     ??_Tidy,??_Tidy??rA
   \   0000004C   010000EA           B        ??GetStringValue_3
    266                  break;
    267              default:
    268                  Status = AnalogInput::GetStringValue(ValueId, Index, MyString);
   \                     ??GetStringValue_2:
   \   00000050   ........           _BLF     ??GetStringValue_1,??GetStringValue??rA
   \   00000054   0050A0E1           MOV      R5,R0
    269                  break;
    270              }
    271              return Status;
   \                     ??GetStringValue_3:
   \   00000058   0500A0E1           MOV      R0,R5
   \   0000005C   1CD08DE2           ADD      SP,SP,#+28
   \   00000060   ........           B        ?Subroutine23
    272          }
    273          

   \                                 In segment CODE, align 4, keep-with-next
    274          int AITempSensor::PutFloatValue(int ValueId, float NewValue) {
   \                     ??PutFloatValue:
   \   00000000   00402DE9           PUSH     {LR}
    275              return (AnalogInput::PutFloatValue(ValueId, NewValue));
   \   00000004   ........           _BLF     ??PutFloatValue_1,??PutFloatValue??rA
   \   00000008                      REQUIRE ?Subroutine21
   \   00000008                      ;; // Fall through to label ?Subroutine21
    276          }

   \                                 In segment CODE, align 4, keep-with-next
   \                     ?Subroutine21:
   \   00000000   0040BDE8           POP      {LR}
   \   00000004   1EFF2FE1           BX       LR               ;; return
    277          
    278          ///////////////////////////////////////////////////////////////////
    279          //
    280          // Sensor check methode her, because here we know the application
    281          //
    282          ///////////////////////////////////////////////////////////////////

   \                                 In segment CODE, align 4, keep-with-next
    283          int AITempSensor::CheckInput(float Operator_Val, int &Action) {
    284              int InpStat   = E_NO_ERR;
    285              if ( Enable ) {
   \                     ??CheckInput:
   \   00000000   3431D0E5           LDRB     R3,[R0, #+308]
   \   00000004   0010A0E3           MOV      R1,#+0
   \   00000008   000053E3           CMP      R3,#+0
   \   0000000C   0500000A           BEQ      ??CheckInput_1
    286                  if ( ActiveAlarms ) {
   \   00000010   380090E5           LDR      R0,[R0, #+56]
   \   00000014   000050E3           CMP      R0,#+0
    287                      InpStat = E_SENSOR_ERROR;
   \   00000018   1F10A013           MOVNE    R1,#+31
    288                      Action  = SNS_ADJUST_ABORT;
   \   0000001C   0200001A           BNE      ??CheckInput_2
    289                  } else {
    290                      Action = SNS_ADJUST_OFFSET;
   \   00000020   0300A0E3           MOV      R0,#+3
   \   00000024   010000EA           B        ??CheckInput_3
    291                  }
    292          
    293              } else {
    294                  InpStat = E_SENSOR_IS_DISABELED;
   \                     ??CheckInput_1:
   \   00000028   2B10A0E3           MOV      R1,#+43
    295                  Action  = SNS_ADJUST_ABORT;
   \                     ??CheckInput_2:
   \   0000002C   0000A0E3           MOV      R0,#+0
   \                     ??CheckInput_3:
   \   00000030   000082E5           STR      R0,[R2, #+0]
    296              }
    297              return (InpStat);
   \   00000034   0100A0E1           MOV      R0,R1
   \   00000038   1EFF2FE1           BX       LR               ;; return
    298          }
    299          
    300          

   \                                 In segment CODE, align 4, keep-with-next
    301          void AITempSensor::CalculateCableCorrection(void) {
    302          }
   \                     ??CalculateCableCorrection:
   \   00000000   1EFF2FE1           BX       LR               ;; return

   \                                 In segment CODE, align 4, keep-with-next
    303          float AITempSensor::GetCableCorrection(void) {
    304              return CableOffset;
   \                     ??GetCableCorrection:
   \   00000000   780190E5           LDR      R0,[R0, #+376]
   \   00000004   1EFF2FE1           BX       LR               ;; return
    305          }
    306          

   \                                 In segment CODE, align 4, keep-with-next
    307          bool AITempSensor::IsHWError(void) {
    308              return false; // Default to no error EHSMark
   \                     ??IsHWError:
   \   00000000   0000A0E3           MOV      R0,#+0
   \   00000004   1EFF2FE1           BX       LR               ;; return
    309          }
    310          
    311          //////////////////////////////////////////////////////////////////
    312          //
    313          // Sensor calculations
    314          //
    315          // Formula for Pt100
    316          // Rt = R0 * (1 + A* t + B*t2 + C*(t-100)* t3)
    317          // Where:
    318          // Rt is the resistance at temperature t, R0 is the resistance at 0 C, and
    319          // A= 3.9083 E3
    320          // B = 5.775 E7
    321          // C = 4.183 E12 (below 0 C), or
    322          // C = 0 (above 0 C)
    323          //
    324          // Relationship between temperature and resistance
    325          // For each temperature there is exactly one resistance value.
    326          // This clear relationship can be described by mathematical formulae.
    327          // For the temperature range -200 ... 0 C the following applies,
    328          // irrespective of the resistor design:
    329          // Rt = R 0 [1 + At + Bt + C ( t - 100 C)  t ]
    330          // For the temperature range 0 ... 600 C the following applies:
    331          // Rt = R 0 [1 + At + Bt ] Legend: t = Temperature in C
    332          // Rt = Resistance in ohms at the measured temperature R0 = Resistance in ohms at t = 0 C (e.g. 100 ohms)
    333          // For the calculation, the following constants apply
    334          // A = 3.9083  10-3 (C-1) B = -5.7750  10-7 (C-2) C = -4.1830  10-12 (C-4)
    335          //
    336          //
    337          //
    338          //
    339          //////////////////////////////////////////////////////////////////

   \                                 In segment CODE, align 4, keep-with-next
    340          float AITempSensor::Calculate(void) {
   \                     ??Calculate:
   \   00000000   F0412DE9           PUSH     {R4-R8,LR}
   \   00000004   0040A0E1           MOV      R4,R0
    341          
    342              if ( CanCalculate() ) {
   \   00000008   525FA0E3           MOV      R5,#+328
   \   0000000C   ........           _BLF     ??CanCalculate,??CanCalculate??rA
   \   00000010   000050E3           CMP      R0,#+0
   \   00000014   2600000A           BEQ      ??Calculate_1
   \   00000018   842194E5           LDR      R2,[R4, #+388]
   \   0000001C   441194E5           LDR      R1,[R4, #+324]
   \   00000020   000052E3           CMP      R2,#+0
   \   00000024   0500000A           BEQ      ??Calculate_2
    343                  float CorrectedTemp; 
    344                  if ( CalData ) {
    345                      CorrectedTemp = CalData->Calc_Y(FilteredValue);
   \   00000028   0200A0E1           MOV      R0,R2
   \   0000002C   0C2092E5           LDR      R2,[R2, #+12]
   \   00000030   142092E5           LDR      R2,[R2, #+20]
   \   00000034   0FE0A0E1           MOV      LR,PC
   \   00000038   12FF2FE1           BX       R2
   \   0000003C   0010A0E1           MOV      R1,R0
    346                  }else{
    347                      CorrectedTemp = FilteredValue;
    348                  }
    349                  CalcValue = Gain * CorrectedTemp - Offset - GetCableCorrection();
   \                     ??Calculate_2:
   \   00000040   3C0194E5           LDR      R0,[R4, #+316]
   \   00000044   ........           _BLF     __fMul,??__fMul??rA
   \   00000048   401194E5           LDR      R1,[R4, #+320]
   \   0000004C   ........           _BLF     __fSub,??__fSub??rA
   \   00000050   781194E5           LDR      R1,[R4, #+376]
   \   00000054   ........           _BLF     __fSub,??__fSub??rA
   \   00000058   040085E7           STR      R0,[R5, +R4]
    350                  if ( CalcValue > MAX_TEMP || CalcValue < MIN_TEMP ) {
   \   0000005C   ........           _BLF     __floatToDouble,??__floatToDouble??rA
   \   00000060   0060A0E1           MOV      R6,R0
   \   00000064   0170A0E1           MOV      R7,R1
   \   00000068   0120A0E3           MOV      R2,#+1
   \   0000006C   4034A0E3           MOV      R3,#+1073741824
   \   00000070   693883E3           ORR      R3,R3,#0x690000
   \   00000074   ........           _BLF     __dGreaterEqual,??__dGreaterEqual??rA
   \   00000078   000050E3           CMP      R0,#+0
   \   0000007C   0600001A           BNE      ??Calculate_3
   \   00000080   ........           LDR      R3,??DataTable6  ;; 0xffffffffc0668000
   \   00000084   0600A0E1           MOV      R0,R6
   \   00000088   0710A0E1           MOV      R1,R7
   \   0000008C   0020A0E3           MOV      R2,#+0
   \   00000090   ........           _BLF     __dLess,??__dLess??rA
   \   00000094   000050E3           CMP      R0,#+0
   \   00000098   0000000A           BEQ      ??Calculate_4
    351                      Failure = true;
   \                     ??Calculate_3:
   \   0000009C   0100A0E3           MOV      R0,#+1
    352                  } else {
    353                      Failure = false;
   \                     ??Calculate_4:
   \   000000A0   3801C4E5           STRB     R0,[R4, #+312]
    354                  }
    355                  ResultOK  = !Failure;
   \   000000A4   000050E3           CMP      R0,#+0
   \   000000A8   0100A003           MOVEQ    R0,#+1
   \   000000AC   0000A013           MOVNE    R0,#+0
   \   000000B0   3601C4E5           STRB     R0,[R4, #+310]
    356              }
    357              return (CalcValue);
   \                     ??Calculate_1:
   \   000000B4   040095E7           LDR      R0,[R5, +R4]
   \   000000B8   ........           B        ?Subroutine24
    358          }
    359          

   \                                 In segment CODE, align 4, keep-with-next
    360          bool AITempSensor::temp_PRTResistanceValue(double aTemp, double R0, double &Resistance) {
   \                     ??temp_PRTResistanceValue:
   \   00000000   08002DE9           PUSH     {R3}
   \   00000004   F0432DE9           PUSH     {R4-R9,LR}
   \   00000008   24909DE5           LDR      R9,[SP, #+36]
   \   0000000C   0140A0E1           MOV      R4,R1
   \   00000010   0250A0E1           MOV      R5,R2
   \   00000014   1C008DE2           ADD      R0,SP,#+28
   \   00000018   C00090E8           LDM      R0,{R6,R7}
    361          // The function temp_PRTResistanceValue calculates the electrical
    362          // resistance for a Platinum Resistance Thermometer (PRT) at given
    363          // temperature and defined resistance R0 at 0C for a PRT element.
    364          // E.g. for a Pt1000 element resistance R0=1000. Function returns
    365          // TRUE if aTemp is within the ranges polynomial approximation
    366          // are defined, the respective resistance for the temperature aTemp
    367          // is found in Resistance.
    368          //----------------------------------------------------------------
    369          // Units:
    370          //  aTemp        Input temperature in ITS-90                   C
    371          //  R0           Type of PRT (resistance at 0C; e.g. Pt100)   Ohm
    372          //  Resistance   Returned resistance of R0 type PRT at aTemp   Ohm
    373          //----------------------------------------------------------------
    374          // References:
    375          //  Preston-Thomas & Quinn 1990 - Techniques for approximating
    376          //    the international temperature scale of 1990 - Bureau
    377          //    International des Poids et Mesures, 2nd Edition 1997,
    378          //    respecting the amendments of the 2nd Edition
    379          //-------------------------------------------------------------
    380          //  (c) Dr. Jan Schulz, 17. December 2008, www.code10.info
    381          //expect best case
    382              bool hasPRTResistanceValue = true;
   \   0000001C   0180A0E3           MOV      R8,#+1
    383          
    384              // is aTemp within defined ranges for the polynomial approximation
    385              if ( (aTemp >= -200) && (aTemp <= 850) ) {
   \   00000020   0400A0E1           MOV      R0,R4
   \   00000024   0510A0E1           MOV      R1,R5
   \   00000028   0020A0E3           MOV      R2,#+0
   \   0000002C   C034A0E3           MOV      R3,#-1073741824
   \   00000030   693883E3           ORR      R3,R3,#0x690000
   \   00000034   ........           _BLF     __dGreaterEqual,??__dGreaterEqual??rA
   \   00000038   000050E3           CMP      R0,#+0
   \   0000003C   3500000A           BEQ      ??temp_PRTResistanceValue_1
   \   00000040   ........           LDR      R3,??DataTable14  ;; 0x408a9000
   \   00000044   0400A0E1           MOV      R0,R4
   \   00000048   0510A0E1           MOV      R1,R5
   \   0000004C   0120A0E3           MOV      R2,#+1
   \   00000050   ........           _BLF     __dLess,??__dLess??rA
   \   00000054   000050E3           CMP      R0,#+0
   \   00000058   2E00000A           BEQ      ??temp_PRTResistanceValue_1
    386                  // aTemp decides which polynomial to use
    387                  if ( aTemp >= 0 ) {
   \   0000005C   0400A0E1           MOV      R0,R4
   \   00000060   0510A0E1           MOV      R1,R5
   \   00000064   0020A0E3           MOV      R2,#+0
   \   00000068   0030A0E3           MOV      R3,#+0
   \   0000006C   ........           _BLF     __dGreaterEqual,??__dGreaterEqual??rA
   \   00000070   000050E3           CMP      R0,#+0
   \   00000074   1400000A           BEQ      ??temp_PRTResistanceValue_2
    388                      Resistance = R0 * ((-5.775E-7 * aTemp + 3.9083E-3) * aTemp + 1);
   \   00000078   ........           LDR      R0,??DataTable19  ;; 0xffffffffee19ce88
   \   0000007C   ........           LDR      R1,??DataTable20  ;; 0xffffffffbea360af
   \                     ??temp_PRTResistanceValue_3:
   \   00000080   0420A0E1           MOV      R2,R4
   \   00000084   0530A0E1           MOV      R3,R5
   \   00000088   ........           _BLF     __dMul,??__dMul??rA
   \   0000008C   0020A0E1           MOV      R2,R0
   \   00000090   ........           LDR      R0,??DataTable23  ;; 0x4aed641c
   \   00000094   0130A0E1           MOV      R3,R1
   \   00000098   ........           LDR      R1,??DataTable24  ;; 0x3f700226
   \   0000009C   ........           _BLF     __dAdd,??__dAdd??rA
   \   000000A0   0420A0E1           MOV      R2,R4
   \   000000A4   0530A0E1           MOV      R3,R5
   \   000000A8   ........           _BLF     __dMul,??__dMul??rA
   \   000000AC   0020A0E3           MOV      R2,#+0
   \   000000B0   C035A0E3           MOV      R3,#+805306368
   \   000000B4   FF3683E3           ORR      R3,R3,#0xFF00000
   \   000000B8   ........           _BLF     __dAdd,??__dAdd??rA
   \   000000BC   0620A0E1           MOV      R2,R6
   \   000000C0   0730A0E1           MOV      R3,R7
   \   000000C4   ........           _BLF     __dMul,??__dMul??rA
   \   000000C8   150000EA           B        ??temp_PRTResistanceValue_4
    389                  } else {
    390                      Resistance = R0 * ((((aTemp - 100) * -4.183E-12 * aTemp - 5.775E-7) * aTemp + 3.9083E-3) * aTemp + 1);
   \                     ??temp_PRTResistanceValue_2:
   \   000000CC   C014A0E3           MOV      R1,#-1073741824
   \   000000D0   591881E3           ORR      R1,R1,#0x590000
   \   000000D4   0420A0E1           MOV      R2,R4
   \   000000D8   0530A0E1           MOV      R3,R5
   \   000000DC   ........           _BLF     __dAdd,??__dAdd??rA
   \   000000E0   0020A0E1           MOV      R2,R0
   \   000000E4   48009FE5           LDR      R0,??temp_PRTResistanceValue_5  ;; 0xffffffffa9d75ffa
   \   000000E8   0130A0E1           MOV      R3,R1
   \   000000EC   44109FE5           LDR      R1,??temp_PRTResistanceValue_5+0x4  ;; 0xffffffffbd9265a3
   \   000000F0   ........           _BLF     __dMul,??__dMul??rA
   \   000000F4   0420A0E1           MOV      R2,R4
   \   000000F8   0530A0E1           MOV      R3,R5
   \   000000FC   ........           _BLF     __dMul,??__dMul??rA
   \   00000100   0020A0E1           MOV      R2,R0
   \   00000104   ........           LDR      R0,??DataTable19  ;; 0xffffffffee19ce88
   \   00000108   0130A0E1           MOV      R3,R1
   \   0000010C   ........           LDR      R1,??DataTable20  ;; 0xffffffffbea360af
   \   00000110   ........           _BLF     __dAdd,??__dAdd??rA
   \   00000114   D9FFFFEA           B        ??temp_PRTResistanceValue_3
    391                  }
    392              } else {
    393                  // otherwise return False and defined Resistance
    394                  hasPRTResistanceValue = false;
   \                     ??temp_PRTResistanceValue_1:
   \   00000118   0080A0E3           MOV      R8,#+0
    395                  Resistance              = 0;
   \   0000011C   0000A0E3           MOV      R0,#+0
   \   00000120   0010A0E1           MOV      R1,R0
   \                     ??temp_PRTResistanceValue_4:
   \   00000124   030089E8           STM      R9,{R0,R1}
    396              }
    397              return hasPRTResistanceValue;
   \   00000128   0800A0E1           MOV      R0,R8
   \   0000012C   F043BDE8           POP      {R4-R9,LR}
   \   00000130   ........           B        ?Subroutine25
   \                     ??temp_PRTResistanceValue_5:
   \   00000134   FA5FD7A9           DC32     0xffffffffa9d75ffa
   \   00000138   A36592BD           DC32     0xffffffffbd9265a3
    398          }

   \                                 In segment CODE, align 4, keep-with-next
   \                     ?Subroutine25:
   \   00000000   04D08DE2           ADD      SP,SP,#+4
   \   00000004   1EFF2FE1           BX       LR               ;; return
    399          
    400          

   \                                 In segment CODE, align 4, keep-with-next
    401          bool AITempSensor::temp_PRTTemperatureValue(double aResistance, double R0, double &Temperature) {
   \                     ??temp_PRTTemperatureValue:
   \   00000000   08002DE9           PUSH     {R3}
   \   00000004   FF4F2DE9           PUSH     {R0-R11,LR}
   \   00000008   3C909DE5           LDR      R9,[SP, #+60]
   \   0000000C   00A0A0E1           MOV      R10,R0
   \   00000010   34008DE2           ADD      R0,SP,#+52
   \   00000014   300090E8           LDM      R0,{R4,R5}
   \   00000018   0160A0E1           MOV      R6,R1
    402          // The function temp_PRTTemperatureValue calculates the temperature
    403          // measured by a Platinum Resistance Thermometer (PRT) at given
    404          // electrical resistance and defined resistance R0 at 0C for a
    405          // PRT element. E.g. for a Pt1000 element resistance R0=1000.
    406          // Function returns TRUE if aResistance is within the ranges
    407          // polynomial approximation are defined, the respective temperature
    408          // for resistance aResistance is found in Temperature.
    409          //----------------------------------------------------------------
    410          // Units:
    411          //  aResistance  Input electrical resistance                   Ohm
    412          //  R0           Type of PRT (electrical resistance at 0C)    Ohm
    413          //  Temperature  Returned ITS-90 Temperature                   C
    414          //----------------------------------------------------------------
    415          // References:
    416          //  Preston-Thomas & Quinn 1990 - Techniques for approximating
    417          //    the international temperature scale of 1990 - Bureau
    418          //    International des Poids et Mesures, 2nd Edition 1997,
    419          //    respecting the amendments of the 2nd Edition
    420          //-------------------------------------------------------------
    421          //  (c) Dr. Jan Schulz, 18. December 2008, www.code10.info
    422              double MinResistance;
    423              double MaxResistance;
    424              // expect worst case
    425              bool hasResult = false;
    426              Temperature              = 0;
   \   0000001C   0000A0E3           MOV      R0,#+0
   \   00000020   0010A0E1           MOV      R1,R0
   \   00000024   030089E8           STM      R9,{R0,R1}
    427          
    428              // find min and max resistance values for defined range
    429              if ( temp_PRTResistanceValue(-200, R0, MinResistance) &&
    430                   temp_PRTResistanceValue(+850, R0, MaxResistance) ) {
   \   00000028   0D00A0E1           MOV      R0,SP
   \   0000002C   01002DE9           PUSH     {R0}
   \   00000030   30002DE9           PUSH     {R4,R5}
   \   00000034   0800BDE8           POP      {R3}
   \   00000038   0270A0E1           MOV      R7,R2
   \   0000003C   0080A0E3           MOV      R8,#+0
   \   00000040   C014A0E3           MOV      R1,#-1073741824
   \   00000044   692881E3           ORR      R2,R1,#0x690000
   \   00000048   0810A0E1           MOV      R1,R8
   \   0000004C   0A00A0E1           MOV      R0,R10
   \   00000050   ........           BL       ??temp_PRTResistanceValue
   \   00000054   000050E3           CMP      R0,#+0
   \   00000058   08D08DE2           ADD      SP,SP,#+8
   \   0000005C   5C00000A           BEQ      ??temp_PRTTemperatureValue_1
   \   00000060   ........           LDR      R1,??DataTable14  ;; 0x408a9000
   \   00000064   08008DE2           ADD      R0,SP,#+8
   \   00000068   01002DE9           PUSH     {R0}
   \   0000006C   30002DE9           PUSH     {R4,R5}
   \   00000070   0800BDE8           POP      {R3}
   \   00000074   0120A0E1           MOV      R2,R1
   \   00000078   0010A0E3           MOV      R1,#+0
   \   0000007C   0A00A0E1           MOV      R0,R10
   \   00000080   ........           BL       ??temp_PRTResistanceValue
   \   00000084   000050E3           CMP      R0,#+0
   \   00000088   08D08DE2           ADD      SP,SP,#+8
   \   0000008C   5000000A           BEQ      ??temp_PRTTemperatureValue_1
    431                  // is aResitance within defined range of polynomial approximation
    432                  if ( (aResistance >= MinResistance) && (aResistance <= MaxResistance) ) {
   \   00000090   0D20A0E1           MOV      R2,SP
   \   00000094   0C0092E8           LDM      R2,{R2,R3}
   \   00000098   0600A0E1           MOV      R0,R6
   \   0000009C   0710A0E1           MOV      R1,R7
   \   000000A0   ........           _BLF     __dGreaterEqual,??__dGreaterEqual??rA
   \   000000A4   000050E3           CMP      R0,#+0
   \   000000A8   4900000A           BEQ      ??temp_PRTTemperatureValue_1
   \   000000AC   08008DE2           ADD      R0,SP,#+8
   \   000000B0   030090E8           LDM      R0,{R0,R1}
   \   000000B4   0620A0E1           MOV      R2,R6
   \   000000B8   0730A0E1           MOV      R3,R7
   \   000000BC   ........           _BLF     __dGreaterEqual,??__dGreaterEqual??rA
   \   000000C0   000050E3           CMP      R0,#+0
   \   000000C4   4200000A           BEQ      ??temp_PRTTemperatureValue_1
    433                      // then calculate temperature
    434                      Temperature = (-R0 * 3.9083E-3 +
    435                                     sqrt(R0 * R0 * +3.9083E-3 * 3.9083E-3 - 4 * R0 * -5.775E-7 * (R0 - aResistance))) /
    436                          (2 * R0 * -5.775E-7);
   \   000000C8   0000A0E3           MOV      R0,#+0
   \   000000CC   4014A0E3           MOV      R1,#+1073741824
   \   000000D0   0420A0E1           MOV      R2,R4
   \   000000D4   0530A0E1           MOV      R3,R5
   \   000000D8   ........           _BLF     __dMul,??__dMul??rA
   \   000000DC   ........           LDR      R2,??DataTable19  ;; 0xffffffffee19ce88
   \   000000E0   ........           LDR      R3,??DataTable20  ;; 0xffffffffbea360af
   \   000000E4   ........           _BLF     __dMul,??__dMul??rA
   \   000000E8   0020A0E1           MOV      R2,R0
   \   000000EC   ........           LDR      R0,??DataTable23  ;; 0x4aed641c
   \   000000F0   0130A0E1           MOV      R3,R1
   \   000000F4   ........           LDR      R1,??DataTable24  ;; 0x3f700226
   \   000000F8   0C002DE9           PUSH     {R2,R3}
   \   000000FC   0420A0E1           MOV      R2,R4
   \   00000100   0530A0E1           MOV      R3,R5
   \   00000104   ........           _BLF     __dMul,??__dMul??rA
   \   00000108   00A0A0E1           MOV      R10,R0
   \   0000010C   01B0A0E1           MOV      R11,R1
   \   00000110   0600A0E1           MOV      R0,R6
   \   00000114   0710A0E1           MOV      R1,R7
   \   00000118   0420A0E1           MOV      R2,R4
   \   0000011C   0530A0E1           MOV      R3,R5
   \   00000120   ........           _BLF     __dSub,??__dSub??rA
   \   00000124   0060A0E1           MOV      R6,R0
   \   00000128   0170A0E1           MOV      R7,R1
   \   0000012C   0800A0E1           MOV      R0,R8
   \   00000130   4014A0E3           MOV      R1,#+1073741824
   \   00000134   401981E3           ORR      R1,R1,#0x100000
   \   00000138   0420A0E1           MOV      R2,R4
   \   0000013C   0530A0E1           MOV      R3,R5
   \   00000140   ........           _BLF     __dMul,??__dMul??rA
   \   00000144   0020A0E1           MOV      R2,R0
   \   00000148   ........           LDR      R0,??DataTable19  ;; 0xffffffffee19ce88
   \   0000014C   0130A0E1           MOV      R3,R1
   \   00000150   ........           LDR      R1,??DataTable20  ;; 0xffffffffbea360af
    437                      // and notify that we expect reliable results
    438                      hasResult = true;
   \   00000154   0180A0E3           MOV      R8,#+1
   \   00000158   ........           _BLF     __dMul,??__dMul??rA
   \   0000015C   0620A0E1           MOV      R2,R6
   \   00000160   0730A0E1           MOV      R3,R7
   \   00000164   ........           _BLF     __dMul,??__dMul??rA
   \   00000168   0060A0E1           MOV      R6,R0
   \   0000016C   0170A0E1           MOV      R7,R1
   \   00000170   0420A0E1           MOV      R2,R4
   \   00000174   0530A0E1           MOV      R3,R5
   \   00000178   0400A0E1           MOV      R0,R4
   \   0000017C   0510A0E1           MOV      R1,R5
   \   00000180   ........           _BLF     __dMul,??__dMul??rA
   \   00000184   0020A0E1           MOV      R2,R0
   \   00000188   ........           LDR      R0,??DataTable23  ;; 0x4aed641c
   \   0000018C   0130A0E1           MOV      R3,R1
   \   00000190   ........           LDR      R1,??DataTable24  ;; 0x3f700226
   \   00000194   ........           _BLF     __dMul,??__dMul??rA
   \   00000198   0020A0E1           MOV      R2,R0
   \   0000019C   ........           LDR      R0,??DataTable23  ;; 0x4aed641c
   \   000001A0   0130A0E1           MOV      R3,R1
   \   000001A4   ........           LDR      R1,??DataTable24  ;; 0x3f700226
   \   000001A8   ........           _BLF     __dMul,??__dMul??rA
   \   000001AC   0620A0E1           MOV      R2,R6
   \   000001B0   0730A0E1           MOV      R3,R7
   \   000001B4   ........           _BLF     __dAdd,??__dAdd??rA
   \   000001B8   ........           _BLF     sqrt,??sqrt??rA
   \   000001BC   0A20A0E1           MOV      R2,R10
   \   000001C0   0B30A0E1           MOV      R3,R11
   \   000001C4   ........           _BLF     __dSub,??__dSub??rA
   \   000001C8   0C00BDE8           POP      {R2,R3}
   \   000001CC   ........           _BLF     __dDiv,??__dDiv??rA
   \   000001D0   030089E8           STM      R9,{R0,R1}
    439                  }
    440              }
    441              return hasResult;
   \                     ??temp_PRTTemperatureValue_1:
   \   000001D4   0800A0E1           MOV      R0,R8
   \   000001D8   10D08DE2           ADD      SP,SP,#+16
   \   000001DC   F04FBDE8           POP      {R4-R11,LR}
   \   000001E0                      REQUIRE ?Subroutine25
   \   000001E0                      ;; // Fall through to label ?Subroutine25
    442          }
    443          
    444          //

   \                                 In segment CODE, align 4, keep-with-next
    445          float AITempSensor::GetTempFromR(double R) {
    446              const double C0 = -245.19;
    447              const double C1 = 2.5293;
    448              const double C2 = -0.066046;
    449              const double C3 = 4.0422e-3;
    450              const double C4 = -2.0697e-6;
    451              const double C5 = -0.025422;
    452              const double C6 = 1.6883e-3;
    453              const double C7 = -1.3601e-6;
    454              double Tmp = C0 + R * (C1 + R * (C2 + R * (C3 + C4 * R))) / (1 + R * (C5 + R * (C6 + C7 * R)));
    455              return Tmp;
   \                     ??GetTempFromR:
   \   00000000   E0009FE5           LDR      R0,??GetTempFromR_1  ;; 0xffffffffc3d2fc5c
   \   00000004   F0402DE9           PUSH     {R4-R7,LR}
   \   00000008   0140A0E1           MOV      R4,R1
   \   0000000C   D8109FE5           LDR      R1,??GetTempFromR_1+0x4  ;; 0xffffffffbeb6d195
   \   00000010   0250A0E1           MOV      R5,R2
   \   00000014   0420A0E1           MOV      R2,R4
   \   00000018   0530A0E1           MOV      R3,R5
   \   0000001C   ........           _BLF     __dMul,??__dMul??rA
   \   00000020   C8209FE5           LDR      R2,??GetTempFromR_1+0x8  ;; 0x524b266f
   \   00000024   C8309FE5           LDR      R3,??GetTempFromR_1+0xC  ;; 0x3f5ba93e
   \   00000028   ........           _BLF     __dAdd,??__dAdd??rA
   \   0000002C   0420A0E1           MOV      R2,R4
   \   00000030   0530A0E1           MOV      R3,R5
   \   00000034   ........           _BLF     __dMul,??__dMul??rA
   \   00000038   B8209FE5           LDR      R2,??GetTempFromR_1+0x10  ;; 0xffffffff8a654930
   \   0000003C   B8309FE5           LDR      R3,??GetTempFromR_1+0x14  ;; 0xffffffffbf9a0839
   \   00000040   ........           _BLF     __dAdd,??__dAdd??rA
   \   00000044   0420A0E1           MOV      R2,R4
   \   00000048   0530A0E1           MOV      R3,R5
   \   0000004C   ........           _BLF     __dMul,??__dMul??rA
   \   00000050   0020A0E3           MOV      R2,#+0
   \   00000054   C035A0E3           MOV      R3,#+805306368
   \   00000058   FF3683E3           ORR      R3,R3,#0xFF00000
   \   0000005C   ........           _BLF     __dAdd,??__dAdd??rA
   \   00000060   0060A0E1           MOV      R6,R0
   \   00000064   94009FE5           LDR      R0,??GetTempFromR_1+0x18  ;; 0xffffffff9ba62654
   \   00000068   0170A0E1           MOV      R7,R1
   \   0000006C   90109FE5           LDR      R1,??GetTempFromR_1+0x1C  ;; 0xffffffffbec15ca5
   \   00000070   0420A0E1           MOV      R2,R4
   \   00000074   0530A0E1           MOV      R3,R5
   \   00000078   ........           _BLF     __dMul,??__dMul??rA
   \   0000007C   84209FE5           LDR      R2,??GetTempFromR_1+0x20  ;; 0xffffffffccdcbd05
   \   00000080   84309FE5           LDR      R3,??GetTempFromR_1+0x24  ;; 0x3f708e8d
   \   00000084   ........           _BLF     __dAdd,??__dAdd??rA
   \   00000088   0420A0E1           MOV      R2,R4
   \   0000008C   0530A0E1           MOV      R3,R5
   \   00000090   ........           _BLF     __dMul,??__dMul??rA
   \   00000094   74209FE5           LDR      R2,??GetTempFromR_1+0x28  ;; 0x20817fc
   \   00000098   74309FE5           LDR      R3,??GetTempFromR_1+0x2C  ;; 0xffffffffbfb0e864
   \   0000009C   ........           _BLF     __dAdd,??__dAdd??rA
   \   000000A0   0420A0E1           MOV      R2,R4
   \   000000A4   0530A0E1           MOV      R3,R5
   \   000000A8   ........           _BLF     __dMul,??__dMul??rA
   \   000000AC   64209FE5           LDR      R2,??GetTempFromR_1+0x30  ;; 0xffffffffa36e2eb2
   \   000000B0   64309FE5           LDR      R3,??GetTempFromR_1+0x34  ;; 0x40043c01
   \   000000B4   ........           _BLF     __dAdd,??__dAdd??rA
   \   000000B8   0420A0E1           MOV      R2,R4
   \   000000BC   0530A0E1           MOV      R3,R5
   \   000000C0   ........           _BLF     __dMul,??__dMul??rA
   \   000000C4   0620A0E1           MOV      R2,R6
   \   000000C8   0730A0E1           MOV      R3,R7
   \   000000CC   ........           _BLF     __dDiv,??__dDiv??rA
   \   000000D0   48209FE5           LDR      R2,??GetTempFromR_1+0x38  ;; 0x7ae147ae
   \   000000D4   48309FE5           LDR      R3,??GetTempFromR_1+0x3C  ;; 0xffffffffc06ea614
   \   000000D8   ........           _BLF     __dAdd,??__dAdd??rA
   \   000000DC   ........           _BLF     __doubleToFloat,??__doubleToFloat??rA
   \   000000E0   F040BDE8           POP      {R4-R7,LR}
   \   000000E4   1EFF2FE1           BX       LR               ;; return
   \                     ??GetTempFromR_1:
   \   000000E8   5CFCD2C3           DC32     0xffffffffc3d2fc5c
   \   000000EC   95D1B6BE           DC32     0xffffffffbeb6d195
   \   000000F0   6F264B52           DC32     0x524b266f
   \   000000F4   3EA95B3F           DC32     0x3f5ba93e
   \   000000F8   3049658A           DC32     0xffffffff8a654930
   \   000000FC   39089ABF           DC32     0xffffffffbf9a0839
   \   00000100   5426A69B           DC32     0xffffffff9ba62654
   \   00000104   A55CC1BE           DC32     0xffffffffbec15ca5
   \   00000108   05BDDCCC           DC32     0xffffffffccdcbd05
   \   0000010C   8D8E703F           DC32     0x3f708e8d
   \   00000110   FC170802           DC32     0x20817fc
   \   00000114   64E8B0BF           DC32     0xffffffffbfb0e864
   \   00000118   B22E6EA3           DC32     0xffffffffa36e2eb2
   \   0000011C   013C0440           DC32     0x40043c01
   \   00000120   AE47E17A           DC32     0x7ae147ae
   \   00000124   14A66EC0           DC32     0xffffffffc06ea614
    456          }

   \                                 In segment DIFUNCT, align 4, keep-with-next, root
   \   00000000                      REQUIRE ?call_ctors
   \   00000000   ........           DC32    ??__sti__routine

   \                                 In segment DATA_C, align 4, align-sorted
   \                     `?<Constant "Temperature sensor">`:
   \   00000000   54656D706572       DC8 "Temperature sensor"
   \              617475726520
   \              73656E736F72
   \              00          
   \   00000013   00                 DC8 0
   \   00000014   2C20666F7220       DC8 ", for "
   \              00          
   \   0000001B   00                 DC8 0
   \   0000001C   20496E636F72       DC8 " Incorrect sensor cable length?"
   \              726563742073
   \              656E736F7220
   \              6361626C6520
   \              6C656E677468
   \              3F00        

   \                                 In segment DATA_C, align 1, align-sorted
   \   00000000   3A0A00             DC8 ":\012"

   \                                 In segment CODE, align 4, keep-with-next
   \   static __??Code32?? __intrinsic __code __interwork __atpcs void __sti__routine()
   \                     ??__sti__routine:
   \   00000000   1EFF2FE1           BX       LR               ;; return

   \                                 In segment CODE, align 4, keep-with-next
   \   __??Code32?? __code __interwork __atpcs AITempSensor &AITempSensor::new AITempSensor()
   \                     `??new AITempSensor`:
   \   00000000   00402DE9           PUSH     {LR}
   \   00000004   620FA0E3           MOV      R0,#+392
   \   00000008   ........           _BLF     `??operator new`,`??operator new??rA`
   \   0000000C   000050E3           CMP      R0,#+0
   \   00000010   0000000A           BEQ      `??new AITempSensor_2`
   \   00000014   ........           BL       ??AITempSensor
   \                     `??new AITempSensor_2`:
   \   00000018   ........           B        ?Subroutine21

   \                                 In segment CODE, align 4, keep-with-next
   \   __??Code32?? __code __interwork __atpcs AITempSensor &AITempSensor::new AITempSensor(int)
   \                     `??new AITempSensor_1`:
   \   00000000   10402DE9           PUSH     {R4,LR}
   \   00000004   0040A0E1           MOV      R4,R0
   \   00000008   620FA0E3           MOV      R0,#+392
   \   0000000C   ........           _BLF     `??operator new`,`??operator new??rA`
   \   00000010   000050E3           CMP      R0,#+0
   \   00000014   0100000A           BEQ      `??new AITempSensor_3`
   \   00000018   0410A0E1           MOV      R1,R4
   \   0000001C   ........           BL       ??AITempSensor_1
   \                     `??new AITempSensor_3`:
   \   00000020   ........           B        ?Subroutine22

   \                                 In segment CODE, align 4, keep-with-next
   \                     ??DataTable1:
   \   00000000   ........           DC32     ??__vtbl

   \                                 In segment CODE, align 4, keep-with-next
   \                     ??DataTable5:
   \   00000000   ........           DC32     ??npos

   \                                 In segment CODE, align 4, keep-with-next
   \                     ??DataTable6:
   \   00000000   008066C0           DC32     0xffffffffc0668000

   \                                 In segment CODE, align 4, keep-with-next
   \                     ??DataTable14:
   \   00000000   00908A40           DC32     0x408a9000

   \                                 In segment CODE, align 4, keep-with-next
   \                     ??DataTable19:
   \   00000000   88CE19EE           DC32     0xffffffffee19ce88

   \                                 In segment CODE, align 4, keep-with-next
   \                     ??DataTable20:
   \   00000000   AF60A3BE           DC32     0xffffffffbea360af

   \                                 In segment CODE, align 4, keep-with-next
   \                     ??DataTable23:
   \   00000000   1C64ED4A           DC32     0x4aed641c

   \                                 In segment CODE, align 4, keep-with-next
   \                     ??DataTable24:
   \   00000000   2602703F           DC32     0x3f700226

   Maximum stack usage in bytes:

     Function                       CSTACK
     --------                       ------
     AITempSensor::AITempSensor()       8
     AITempSensor::AITempSensor(int)
                                       12
     AITempSensor::Calculate()         24
     AITempSensor::CalculateCableCorrection()
                                        0
     AITempSensor::CheckInput(float, int &)
                                        0
     AITempSensor::GetCableCorrection()
                                        0
     AITempSensor::GetStringValue(int, int, AnsiString &)
                                       40
     AITempSensor::GetTempFromR(double)
                                       20
     AITempSensor::GetValue(int, int, float &, int &, int &)
                                       36
     AITempSensor::Init()               0
     AITempSensor::IsHWError()          0
     AITempSensor::LoadConfigString(TSNConfigString &)
                                      208
     AITempSensor::MakeConfigString(int)
                                      528
     AITempSensor::PutFloatValue(int, float)
                                        4
     AITempSensor::PutValue(int, int, AnsiString, bool, int *)
                                      140
     AITempSensor::new AITempSensor()
                                        4
     AITempSensor::new AITempSensor(int)
                                        8
     AITempSensor::temp_PRTResistanceValue(double, double, double &)
                                       28
     AITempSensor::temp_PRTTemperatureValue(double, double, double &)
                                       64
     AITempSensor::~AITempSensor()     12
     __sti__routine()                   0
     operator+(string const &, char const *)
                                       44
     operator+(string const &, string const &)
                                       40
     string::string(string const &)    12


   Segment part sizes:

     Function/Label                 Bytes
     --------------                 -----
     string::string(string const &)   64
     operator+(string const &, string const &)
                                      88
     operator+(string const &, char const *)
                                      92
     AITempSensor::AITempSensor()     32
     ?Subroutine22                     8
     AITempSensor::AITempSensor(int)
                                      44
     ?Subroutine23                     8
     AITempSensor::~AITempSensor()    44
     AITempSensor::Init()            112
     AITempSensor::MakeConfigString(int)
                                    1848
     ?Subroutine24                     8
     AITempSensor::LoadConfigString(TSNConfigString &)
                                    1120
     AITempSensor::PutValue(int, int, AnsiString, bool, int *)
                                     372
     AITempSensor::GetValue(int, int, float &, int &, int &)
                                     204
     AITempSensor::GetStringValue(int, int, AnsiString &)
                                     100
     AITempSensor::PutFloatValue(int, float)
                                       8
     ?Subroutine21                     8
     AITempSensor::CheckInput(float, int &)
                                      60
     AITempSensor::CalculateCableCorrection()
                                       4
     AITempSensor::GetCableCorrection()
                                       8
     AITempSensor::IsHWError()         8
     AITempSensor::Calculate()       188
     AITempSensor::temp_PRTResistanceValue(double, double, double &)
                                     316
     ?Subroutine25                     8
     AITempSensor::temp_PRTTemperatureValue(double, double, double &)
                                     480
     AITempSensor::GetTempFromR(double)
                                     296
     ?<Constant "Temperature sensor">
                                      60
     ?<Constant ":\n">                 3
     __sti__routine()                  4
     AITempSensor::new AITempSensor()
                                      28
     AITempSensor::new AITempSensor(int)
                                      36
     ??DataTable1                      4
     ??DataTable5                      4
     ??DataTable6                      4
     ??DataTable14                     4
     ??DataTable19                     4
     ??DataTable20                     4
     ??DataTable23                     4
     ??DataTable24                     4
      Others                         792

 
 6 276 bytes in segment CODE
   203 bytes in segment DATA_C
     4 bytes in segment DIFUNCT
 
 5 388 bytes of CODE  memory (+ 892 bytes shared)
   203 bytes of CONST memory

Errors: none
Warnings: none
