##############################################################################
#                                                                            #
# IAR ARM ANSI C/C++ Compiler V4.42A/W32               14/Sep/2022  15:12:50 #
# Copyright 1999-2005 IAR Systems. All rights reserved.                      #
#                                                                            #
#    Cpu mode        =  interwork                                            #
#    Endian          =  little                                               #
#    Stack alignment =  4                                                    #
#    Source file     =  D:\S2Prog\Shared\Src\AlarmLowPressure.Cpp            #
#    Command line    =  D:\S2Prog\Shared\Src\AlarmLowPressure.Cpp --fpu      #
#                       None -D OS_LIBMODE_SP -D CPU_S3C2410 -D              #
#                       OS_RAMVECT=0 -D OS_UART=-1 -D S2TXU -D USE_LZO=1 -D  #
#                       __ARM_LIBRARY__ -D WATCHDOG=1 -D NETWORK=1 -lCN      #
#                       D:\S2Prog\TXU\Debug\List\ -o                         #
#                       D:\S2Prog\TXU\Debug\Obj\ -z9 --debug --cpu_mode arm  #
#                       --endian little --cpu ARM920T --stack_align 4        #
#                       --interwork -e --enable_multibytes --eec++           #
#                       --dlib_config "C:\Program Files (x86)\IAR            #
#                       Systems\Embedded Workbench                           #
#                       4.0\arm\LIB\dl4tpainl8n.h" -I                        #
#                       D:\S2Prog\TXU\GUI\CORE\ -I D:\S2Prog\TXU\GUI\WM\ -I  #
#                       D:\S2Prog\TXU\GUI\WIDGET\ -I D:\S2Prog\TXU\CONFIG\   #
#                       -I D:\S2Prog\TXU\INC\ -I D:\S2Prog\TXU\..\SHARED\INC #
#                       \ -I D:\S2Prog\TXU\..\SHARED\SRC\ -I                 #
#                       D:\S2Prog\TXU\..\SHARED\LZO\minilzo.210\ -I          #
#                       D:\S2Prog\TXU\lwip-1.4.1\src\include\ -I             #
#                       D:\S2Prog\TXU\lwip-1.4.1\src\include\ipv4\ -I        #
#                       D:\S2Prog\TXU\lwip-1.4.1\src\ -I                     #
#                       D:\S2Prog\TXU\..\SHARED\Database\ -I                 #
#                       D:\S2Prog\TXU\src\ -I "C:\Program Files (x86)\IAR    #
#                       Systems\Embedded Workbench 4.0\arm\INC\"             #
#                       --inline_threshold=2                                 #
#    List file       =  D:\S2Prog\TXU\Debug\List\AlarmLowPressure.lst        #
#    Object file     =  D:\S2Prog\TXU\Debug\Obj\AlarmLowPressure.r79         #
#                                                                            #
#                                                                            #
##############################################################################

D:\S2Prog\Shared\Src\AlarmLowPressure.Cpp
      1          #include "TSNIncludes.h"

   \                                 In segment CODE, align 4, keep-with-next
   \   __??Code32?? __code __interwork __atpcs string::string(string const &)
   \                     ??string:
   \   00000000   30402DE9           PUSH     {R4,R5,LR}
   \   00000004   0040A0E1           MOV      R4,R0
   \   00000008   0150A0E1           MOV      R5,R1
   \   0000000C   0020A0E3           MOV      R2,#+0
   \   00000010   0010A0E3           MOV      R1,#+0
   \   00000014   ........           _BLF     ??_Tidy,??_Tidy??rA
   \   00000018   1C009FE5           LDR      R0,??string_1    ;; ??npos
   \   0000001C   0020A0E3           MOV      R2,#+0
   \   00000020   003090E5           LDR      R3,[R0, #+0]
   \   00000024   0510A0E1           MOV      R1,R5
   \   00000028   0400A0E1           MOV      R0,R4
   \   0000002C   ........           _BLF     ??assign,??assign??rA
   \   00000030   0400A0E1           MOV      R0,R4
   \   00000034   3040BDE8           POP      {R4,R5,LR}
   \   00000038   1EFF2FE1           BX       LR               ;; return
   \                     ??string_1:
   \   0000003C   ........           DC32     ??npos

   \                                 In segment CODE, align 4, keep-with-next
   \   __??Code32?? __code __interwork __atpcs void operator+(string const &, string const &)
   \                     `??operator+`:
   \   00000000   30402DE9           PUSH     {R4,R5,LR}
   \   00000004   1CD04DE2           SUB      SP,SP,#+28
   \   00000008   0040A0E1           MOV      R4,R0
   \   0000000C   0250A0E1           MOV      R5,R2
   \   00000010   0D00A0E1           MOV      R0,SP
   \   00000014   ........           _BLF     ??string,??string??rA
   \   00000018   34109FE5           LDR      R1,`??operator+_2`  ;; ??npos
   \   0000001C   0020A0E3           MOV      R2,#+0
   \   00000020   003091E5           LDR      R3,[R1, #+0]
   \   00000024   0510A0E1           MOV      R1,R5
   \   00000028   ........           _BLF     ??append,??append??rA
   \   0000002C   0010A0E1           MOV      R1,R0
   \   00000030   0400A0E1           MOV      R0,R4
   \   00000034   ........           _BLF     ??string,??string??rA
   \   00000038   0020A0E3           MOV      R2,#+0
   \   0000003C   0110A0E3           MOV      R1,#+1
   \   00000040   0D00A0E1           MOV      R0,SP
   \   00000044   ........           _BLF     ??_Tidy,??_Tidy??rA
   \   00000048   1CD08DE2           ADD      SP,SP,#+28
   \   0000004C   3040BDE8           POP      {R4,R5,LR}
   \   00000050   1EFF2FE1           BX       LR               ;; return
   \                     `??operator+_2`:
   \   00000054   ........           DC32     ??npos

   \                                 In segment CODE, align 4, keep-with-next
   \   __??Code32?? __code __interwork __atpcs void operator+(string const &, char const *)
   \                     `??operator+_1`:
   \   00000000   70402DE9           PUSH     {R4-R6,LR}
   \   00000004   1CD04DE2           SUB      SP,SP,#+28
   \   00000008   0040A0E1           MOV      R4,R0
   \   0000000C   0250A0E1           MOV      R5,R2
   \   00000010   0D00A0E1           MOV      R0,SP
   \   00000014   ........           _BLF     ??string,??string??rA
   \   00000018   0060A0E1           MOV      R6,R0
   \   0000001C   0500A0E1           MOV      R0,R5
   \   00000020   ........           _BLF     strlen,??strlen??rA
   \   00000024   0020A0E1           MOV      R2,R0
   \   00000028   0510A0E1           MOV      R1,R5
   \   0000002C   0600A0E1           MOV      R0,R6
   \   00000030   ........           _BLF     ??append_1,??append??rA_1
   \   00000034   0010A0E1           MOV      R1,R0
   \   00000038   0400A0E1           MOV      R0,R4
   \   0000003C   ........           _BLF     ??string,??string??rA
   \   00000040   0020A0E3           MOV      R2,#+0
   \   00000044   0110A0E3           MOV      R1,#+1
   \   00000048   0D00A0E1           MOV      R0,SP
   \   0000004C   ........           _BLF     ??_Tidy,??_Tidy??rA
   \   00000050   1CD08DE2           ADD      SP,SP,#+28
   \   00000054   7040BDE8           POP      {R4-R6,LR}
   \   00000058   1EFF2FE1           BX       LR               ;; return

   \                                 In segment CODE, align 4, keep-with-next
   \   __??Code32?? __code __interwork __atpcs AlarmLowPressure::~AlarmLowPressure()
   \                     `?~AlarmLowPressure`:
   \   00000000   30402DE9           PUSH     {R4,R5,LR}
   \   00000004   0040A0E1           MOV      R4,R0
   \   00000008   0150A0E1           MOV      R5,R1
   \   0000000C   000054E3           CMP      R4,#+0
   \   00000010   0600000A           BEQ      `?~AlarmLowPressure_1`
   \   00000014   0100000A           BEQ      `?~AlarmLowPressure_2`
   \   00000018   0010A0E3           MOV      R1,#+0
   \   0000001C   ........           _BLF     `?~PRogramObjectBase`,`?~PRogramObjectBase??rA`
   \                     `?~AlarmLowPressure_2`:
   \   00000020   010015E3           TST      R5,#0x1
   \   00000024   0100000A           BEQ      `?~AlarmLowPressure_1`
   \   00000028   0400A0E1           MOV      R0,R4
   \   0000002C   ........           _BLF     `??operator delete`,`??operator delete??rA`
   \                     `?~AlarmLowPressure_1`:
   \   00000030   3040BDE8           POP      {R4,R5,LR}
   \   00000034   1EFF2FE1           BX       LR               ;; return
      2          #pragma hdrstop
      3          #ifdef BORLAND
      4          #pragma package(smart_init)
      5          #endif
      6          
      7          //---------------------------------------------------------------------------
      8          

   \                                 In segment DATA_Z, align 4, align-sorted
      9          unsigned AlarmLowPressure::NumberOfAlarmSettings = 0;
   \                     ??NumberOfAlarmSettings:
   \   00000000                      DS8 4
     10          

   \                                 In segment CODE, align 4, keep-with-next
     11          AlarmLowPressure::AlarmLowPressure(void):AlarmBasic(NULL){
   \                     ??AlarmLowPressure:
   \   00000000   10402DE9           PUSH     {R4,LR}
   \   00000004   0040A0E1           MOV      R4,R0
   \   00000008   0010A0E3           MOV      R1,#+0
   \   0000000C   ........           _BLF     ??AlarmBasic,??AlarmBasic??rA
   \   00000010   ........           LDR      R0,??DataTable3  ;; ??__vtbl
   \   00000014   A40084E5           STR      R0,[R4, #+164]
     12              NumberOfAlarmSettings++; // Should not do this, but must maintain backward compatibility
   \   00000018   ........           LDR      R0,??DataTable4  ;; ??NumberOfAlarmSettings
   \   0000001C   001090E5           LDR      R1,[R0, #+0]
   \   00000020   011081E2           ADD      R1,R1,#+1
   \   00000024   001080E5           STR      R1,[R0, #+0]
     13              Deadband            = 5.0 / MH2O_TO_MBAR;
   \   00000028   ........           LDR      R0,??DataTable5  ;; 0x3d50d67f
   \   0000002C   BC0084E5           STR      R0,[R4, #+188]
     14          }
   \   00000030   0400A0E1           MOV      R0,R4
   \   00000034                      REQUIRE ?Subroutine13
   \   00000034                      ;; // Fall through to label ?Subroutine13

   \                                 In segment CODE, align 4, keep-with-next
   \                     ?Subroutine13:
   \   00000000   1040BDE8           POP      {R4,LR}
   \   00000004   1EFF2FE1           BX       LR               ;; return
     15          

   \                                 In segment CODE, align 4, keep-with-next
     16          AlarmLowPressure::AlarmLowPressure(PRogramObjectBase *PROPtr):AlarmBasic(PROPtr) {
   \                     ??AlarmLowPressure_1:
   \   00000000   70402DE9           PUSH     {R4-R6,LR}
   \   00000004   ........           LDR      R5,??DataTable3  ;; ??__vtbl
   \   00000008   88D04DE2           SUB      SP,SP,#+136
   \   0000000C   0040A0E1           MOV      R4,R0
   \   00000010   0160A0E1           MOV      R6,R1
   \   00000014   ........           _BLF     ??AlarmBasic,??AlarmBasic??rA
     17              NumberOfAlarmSettings++;
   \   00000018   ........           LDR      R0,??DataTable4  ;; ??NumberOfAlarmSettings
   \   0000001C   A45084E5           STR      R5,[R4, #+164]
   \   00000020   001090E5           LDR      R1,[R0, #+0]
   \   00000024   011081E2           ADD      R1,R1,#+1
   \   00000028   001080E5           STR      R1,[R0, #+0]
     18              PROPointer          = PROPtr;
   \   0000002C   C46084E5           STR      R6,[R4, #+196]
     19              PROTPressPtr        = (PROTankPressure *)PROPtr;
   \   00000030   EC6084E5           STR      R6,[R4, #+236]
     20              IDNumber            = (ID_AL_LOW_T_PRESS << 16) + NumberOfAlarmSettings;
   \   00000034   000090E5           LDR      R0,[R0, #+0]
   \   00000038   B016A0E3           MOV      R1,#+184549376
   \   0000003C   CF1881E3           ORR      R1,R1,#0xCF0000
   \   00000040   000081E0           ADD      R0,R1,R0
   \   00000044   9C0084E5           STR      R0,[R4, #+156]
     21              Type                = ID_AL_LOW_T_PRESS;
   \   00000048   2108A0E1           MOV      R0,R1, LSR #+16
   \   0000004C   A00084E5           STR      R0,[R4, #+160]
     22              Deadband            = 5.0 / MH2O_TO_MBAR;
   \   00000050   ........           LDR      R0,??DataTable5  ;; 0x3d50d67f
   \   00000054   BC0084E5           STR      R0,[R4, #+188]
     23              Locked              = PROTPressPtr->LowTankPressLocked;
   \   00000058   A501D6E5           LDRB     R0,[R6, #+421]
   \   0000005C   E800C4E5           STRB     R0,[R4, #+232]
     24              Limit               = PROTPressPtr->LowTankPressLimit;
   \   00000060   AC0196E5           LDR      R0,[R6, #+428]
   \   00000064   E40084E5           STR      R0,[R4, #+228]
     25              if (PROProjectInfo::IsInlandVessel) {
   \   00000068   ........           LDR      R0,??DataTable8  ;; ??IsInlandVessel
   \   0000006C   0000D0E5           LDRB     R0,[R0, #+0]
   \   00000070   000050E3           CMP      R0,#+0
   \   00000074   2600000A           BEQ      ??AlarmLowPressure_2
     26                  MessageKey      = L_WORD775;   // Low
   \   00000078   0710A0E3           MOV      R1,#+7
   \   0000007C   C01F81E3           ORR      R1,R1,#0x300
   \   00000080   B81084E5           STR      R1,[R4, #+184]
     27                  char Buf[BUF_SIZE];
     28                  sprintf(Buf, "%s %3.0fkPa", FindDictionaryWord(MessageKey).c_str(), Limit * MH2O_TO_KPA);
   \   00000084   0D00A0E1           MOV      R0,SP
   \   00000088   ........           _BLF     ??FindDictionaryWord,??FindDictionaryWord??rA
   \   0000008C   18009DE5           LDR      R0,[SP, #+24]
   \   00000090   100050E3           CMP      R0,#+16
   \   00000094   E40094E5           LDR      R0,[R4, #+228]
   \   00000098   04609D25           LDRCS    R6,[SP, #+4]
   \   0000009C   04608D32           ADDCC    R6,SP,#+4
   \   000000A0   ........           _BLF     __floatToDouble,??__floatToDouble??rA
   \   000000A4   90209FE5           LDR      R2,??AlarmLowPressure_3  ;; 0x3a92a305
   \   000000A8   90309FE5           LDR      R3,??AlarmLowPressure_3+0x4  ;; 0x40239d01
   \   000000AC   ........           _BLF     __dMul,??__dMul??rA
   \   000000B0   03002DE9           PUSH     {R0,R1}
   \   000000B4   24008DE2           ADD      R0,SP,#+36
   \   000000B8   0800BDE8           POP      {R3}
   \   000000BC   0620A0E1           MOV      R2,R6
   \   000000C0   741085E2           ADD      R1,R5,#+116
   \   000000C4   ........           _BLF     sprintf,??sprintf??rA
   \   000000C8   0020A0E3           MOV      R2,#+0
   \   000000CC   0110A0E3           MOV      R1,#+1
   \   000000D0   04008DE2           ADD      R0,SP,#+4
   \   000000D4   ........           _BLF     ??_Tidy,??_Tidy??rA
     29                  Description = AnsiString(Buf);
   \   000000D8   20108DE2           ADD      R1,SP,#+32
   \   000000DC   70008DE2           ADD      R0,SP,#+112
   \   000000E0   ........           _BLF     ??AnsiString,??AnsiString??rA
   \   000000E4   ........           LDR      R1,??DataTable12  ;; ??npos
   \   000000E8   0020A0E3           MOV      R2,#+0
   \   000000EC   003091E5           LDR      R3,[R1, #+0]
   \   000000F0   0010A0E1           MOV      R1,R0
   \   000000F4   7C0084E2           ADD      R0,R4,#+124
   \   000000F8   ........           _BLF     ??assign,??assign??rA
   \   000000FC   0020A0E3           MOV      R2,#+0
   \   00000100   0110A0E3           MOV      R1,#+1
   \   00000104   70008DE2           ADD      R0,SP,#+112
   \   00000108   ........           _BLF     ??_Tidy,??_Tidy??rA
   \   0000010C   04D08DE2           ADD      SP,SP,#+4
   \   00000110   020000EA           B        ??AlarmLowPressure_4
     30              } else {
     31                  MessageKey        = L_WORD522; // LowPressure
   \                     ??AlarmLowPressure_2:
   \   00000114   0A00A0E3           MOV      R0,#+10
   \   00000118   800F80E3           ORR      R0,R0,#0x200
   \   0000011C   B80084E5           STR      R0,[R4, #+184]
     32              }
     33              TPCMessageKey     = L_WORD523; // LPre
   \                     ??AlarmLowPressure_4:
   \   00000120   0B00A0E3           MOV      R0,#+11
   \   00000124   800F80E3           ORR      R0,R0,#0x200
   \   00000128   B40084E5           STR      R0,[R4, #+180]
     34          }
   \   0000012C   0400A0E1           MOV      R0,R4
   \   00000130   88D08DE2           ADD      SP,SP,#+136
   \   00000134   7040BDE8           POP      {R4-R6,LR}
   \   00000138   1EFF2FE1           BX       LR               ;; return
   \                     ??AlarmLowPressure_3:
   \   0000013C   05A3923A           DC32     0x3a92a305
   \   00000140   019D2340           DC32     0x40239d01
     35          

   \                                 In segment CODE, align 4, keep-with-next
     36          AnsiString AlarmLowPressure::Get_Message(void) {
   \                     ??Get_Message:
   \   00000000   0120A0E1           MOV      R2,R1
     37              if ( PROProjectInfo::IsInlandVessel ) {
   \   00000004   ........           LDR      R1,??DataTable8  ;; ??IsInlandVessel
   \   00000008   00402DE9           PUSH     {LR}
   \   0000000C   0010D1E5           LDRB     R1,[R1, #+0]
   \   00000010   000051E3           CMP      R1,#+0
   \   00000014   0300000A           BEQ      ??Get_Message_1
     38                  return (Description);
   \   00000018   7C1080E2           ADD      R1,R0,#+124
   \   0000001C   0200A0E1           MOV      R0,R2
   \   00000020   ........           _BLF     ??string,??string??rA
   \   00000024   020000EA           B        ??Get_Message_2
     39              } else {
     40                  return (FindDictionaryWord(MessageKey));
   \                     ??Get_Message_1:
   \   00000028   B81090E5           LDR      R1,[R0, #+184]
   \   0000002C   0200A0E1           MOV      R0,R2
   \   00000030   ........           _BLF     ??FindDictionaryWord,??FindDictionaryWord??rA
   \                     ??Get_Message_2:
   \   00000034                      REQUIRE ?Subroutine12
   \   00000034                      ;; // Fall through to label ?Subroutine12
     41              }
     42          }

   \                                 In segment CODE, align 4, keep-with-next
   \                     ?Subroutine12:
   \   00000000   0040BDE8           POP      {LR}
   \   00000004   1EFF2FE1           BX       LR               ;; return
     43          

   \                                 In segment CODE, align 4, keep-with-next
     44          void AlarmLowPressure::Check(void) {
   \                     ??Check:
   \   00000000   F0402DE9           PUSH     {R4-R7,LR}
   \   00000004   0040A0E1           MOV      R4,R0
     45              int Status = AL_STAT_IN_DEADBAND;
     46              if ( PROTPressPtr->HasPressure ) {
   \   00000008   EC0094E5           LDR      R0,[R4, #+236]
   \   0000000C   0250A0E3           MOV      R5,#+2
   \   00000010   5811D0E5           LDRB     R1,[R0, #+344]
   \   00000014   000051E3           CMP      R1,#+0
   \   00000018   0800000A           BEQ      ??Check_1
     47                  float Val = PROTPressPtr->Pressure;
   \   0000001C   6C6190E5           LDR      R6,[R0, #+364]
     48                  if (Val > Limit + Deadband) {
   \   00000020   E47094E5           LDR      R7,[R4, #+228]
   \   00000024   BC0094E5           LDR      R0,[R4, #+188]
   \   00000028   0710A0E1           MOV      R1,R7
   \   0000002C   ........           _BLF     __fAdd,??__fAdd??rA
   \   00000030   0610A0E1           MOV      R1,R6
   \   00000034   ........           _BLF     __fLess,??__fLess??rA
   \   00000038   000050E3           CMP      R0,#+0
   \   0000003C   0100000A           BEQ      ??Check_2
     49                      Status = AL_STAT_IN_NORMAL;
   \                     ??Check_1:
   \   00000040   0050A0E3           MOV      R5,#+0
   \   00000044   040000EA           B        ??Check_3
     50                  } else if (Val <= Limit) {
   \                     ??Check_2:
   \   00000048   0700A0E1           MOV      R0,R7
   \   0000004C   0610A0E1           MOV      R1,R6
   \   00000050   ........           _BLF     __fGreaterEqual,??__fGreaterEqual??rA
   \   00000054   000050E3           CMP      R0,#+0
     51                      Status = AL_STAT_IN_ALARM;
   \   00000058   0150A013           MOVNE    R5,#+1
     52                  }
     53              } else {
     54                  Status = AL_STAT_IN_NORMAL;
     55              }
     56              UpdateAlarm(Status);
   \                     ??Check_3:
   \   0000005C   0510A0E1           MOV      R1,R5
   \   00000060   0400A0E1           MOV      R0,R4
   \   00000064   ........           _BLF     ??UpdateAlarm,??UpdateAlarm??rA
     57          }
   \   00000068   F040BDE8           POP      {R4-R7,LR}
   \   0000006C   1EFF2FE1           BX       LR               ;; return
     58          
     59          
     60          ///////////////////////////////////////////////////////////////
     61          //
     62          // Routines for the librarian for input
     63          //
     64          ///////////////////////////////////////////////////////////////
     65          

   \                                 In segment CODE, align 4, keep-with-next
     66          int AlarmLowPressure::PutValue(int ValueId, int Index, AnsiString NewValue, bool Local, int *UnitId) {
   \                     ??PutValue:
   \   00000000   F04F2DE9           PUSH     {R4-R11,LR}
   \   00000004   64D04DE2           SUB      SP,SP,#+100
   \   00000008   0050A0E1           MOV      R5,R0
   \   0000000C   88A0DDE5           LDRB     R10,[SP, #+136]
   \   00000010   8C409DE5           LDR      R4,[SP, #+140]
   \   00000014   0170A0E1           MOV      R7,R1
     67              int Status = E_NO_ERR, ValUnitId = NO_UNIT;
   \   00000018   0010A0E3           MOV      R1,#+0
   \   0000001C   00108DE5           STR      R1,[SP, #+0]
   \   00000020   04108DE5           STR      R1,[SP, #+4]
     68              bool tmpLock = Locked;
     69              if (Locked) {
   \   00000024   E800D5E5           LDRB     R0,[R5, #+232]
   \   00000028   0290A0E1           MOV      R9,R2
   \   0000002C   0360A0E1           MOV      R6,R3
   \   00000030   000050E3           CMP      R0,#+0
     70                  Status = E_NO_INPUT_PERMISSION;
   \   00000034   2A10A013           MOVNE    R1,#+42
   \   00000038   00108D15           STRNE    R1,[SP, #+0]
   \   0000003C   8400001A           BNE      ??PutValue_3
     71              } else {
     72                  float OrgLimit = Limit;
   \   00000040   E48095E5           LDR      R8,[R5, #+228]
     73                  int Key = FindConfigKey(NewValue);
   \   00000044   0610A0E1           MOV      R1,R6
   \   00000048   2C008DE2           ADD      R0,SP,#+44
   \   0000004C   ........           _BLF     ??string,??string??rA
   \   00000050   2C008DE2           ADD      R0,SP,#+44
   \   00000054   ........           _BLF     ??FindConfigKey,??FindConfigKey??rA
   \   00000058   00B0A0E1           MOV      R11,R0
   \   0000005C   0020A0E3           MOV      R2,#+0
   \   00000060   0110A0E3           MOV      R1,#+1
   \   00000064   2C008DE2           ADD      R0,SP,#+44
   \   00000068   ........           _BLF     ??_Tidy,??_Tidy??rA
     74                  switch ( Key ) {
   \   0000006C   64B04BE2           SUB      R11,R11,#+100
   \   00000070   05005BE3           CMP      R11,#+5
   \   00000074   1100008A           BHI      ??PutValue_4
   \   00000078   010F8FE2           ADR      R0,??PutValue_1
   \   0000007C   0B00D0E7           LDRB     R0,[R0, R11]
   \   00000080   00F18FE0           ADD      PC,PC,R0, LSL #+2
   \                     ??PutValue_1:
   \   00000084   010C010C           DC8      +1,+12,+1,+12
   \   00000088   010C0000           DC8      +1,+12,+0,+0
     75                  case C_ON:
     76                  case C_OPEN:
     77                  case C_ENABLE:
     78                      SetEnable(EnableTrue);
   \                     ??PutValue_5:
   \   0000008C   0110A0E3           MOV      R1,#+1
   \                     ??PutValue_6:
   \   00000090   0500A0E1           MOV      R0,R5
   \   00000094   ........           _BLF     ??SetEnable,??SetEnable??rA
     79                      PROTPressPtr->SetState(tUndefined);
   \   00000098   EC2095E5           LDR      R2,[R5, #+236]
   \   0000009C   0410A0E3           MOV      R1,#+4
   \   000000A0   0200A0E1           MOV      R0,R2
   \   000000A4   A42092E5           LDR      R2,[R2, #+164]
   \   000000A8   7C2092E5           LDR      R2,[R2, #+124]
   \   000000AC   0FE0A0E1           MOV      LR,PC
   \   000000B0   12FF2FE1           BX       R2
   \   000000B4   4F0000EA           B        ??PutValue_7
     80                      break;
     81                  case C_OFF:
     82                  case C_CLOSE:
     83                  case C_DISABLE:
     84                      SetEnable(EnableFalse);
   \                     ??PutValue_8:
   \   000000B8   0010A0E3           MOV      R1,#+0
   \   000000BC   F3FFFFEA           B        ??PutValue_6
     85                      PROTPressPtr->SetState(tUndefined);
     86                      break;
     87                  default:
     88                      switch ( ValueId ) {
   \                     ??PutValue_4:
   \   000000C0   3210A0E3           MOV      R1,#+50
   \   000000C4   8C1D81E3           ORR      R1,R1,#0x2300
   \   000000C8   010057E1           CMP      R7,R1
   \   000000CC   3800001A           BNE      ??PutValue_9
     89                      case SVT_AL_LIMIT:
     90                          if ( PROTPressPtr->MaxPressureRange > 4.0 ) {
   \   000000D0   EC7095E5           LDR      R7,[R5, #+236]
   \   000000D4   E40197E5           LDR      R0,[R7, #+484]
   \   000000D8   ........           _BLF     __floatToDouble,??__floatToDouble??rA
   \   000000DC   0120A0E3           MOV      R2,#+1
   \   000000E0   4034A0E3           MOV      R3,#+1073741824
   \   000000E4   403983E3           ORR      R3,R3,#0x100000
   \   000000E8   ........           _BLF     __dGreaterEqual,??__dGreaterEqual??rA
   \   000000EC   000050E3           CMP      R0,#+0
   \   000000F0   1D00000A           BEQ      ??PutValue_10
     91                              float Value = ConvertToSi(NewValue, ValUnitId = PRESSURE_UNIT1, Status, 2 * LIMIT_LOW_LPG_PRESS, LIMIT_HIGH_LPG_PRESS, 0.0);
   \   000000F4   0610A0E3           MOV      R1,#+6
   \   000000F8   04108DE5           STR      R1,[SP, #+4]
   \   000000FC   0610A0E1           MOV      R1,R6
   \   00000100   10008DE2           ADD      R0,SP,#+16
   \   00000104   ........           _BLF     ??string,??string??rA
   \   00000108   0000A0E3           MOV      R0,#+0
   \   0000010C   0010A0E3           MOV      R1,#+0
   \   00000110   03002DE9           PUSH     {R0,R1}
   \   00000114   50019FE5           LDR      R0,??PutValue_11  ;; 0x485265a1
   \   00000118   ........           LDR      R1,??DataTable15  ;; 0x40631ea3
   \   0000011C   03002DE9           PUSH     {R0,R1}
   \   00000120   ........           LDR      R0,??DataTable13  ;; 0x6f46d2ce
   \   00000124   ........           LDR      R1,??DataTable14  ;; 0xffffffffc02464f2
   \                     ??PutValue_12:
   \   00000128   03002DE9           PUSH     {R0,R1}
   \   0000012C   18208DE2           ADD      R2,SP,#+24
   \   00000130   28008DE2           ADD      R0,SP,#+40
   \   00000134   0800BDE8           POP      {R3}
   \   00000138   0610A0E3           MOV      R1,#+6
   \   0000013C   ........           _BLF     ??ConvertToSi,??ConvertToSi??rA
   \   00000140   0060A0E1           MOV      R6,R0
   \   00000144   0020A0E3           MOV      R2,#+0
   \   00000148   0110A0E3           MOV      R1,#+1
   \   0000014C   24008DE2           ADD      R0,SP,#+36
   \   00000150   ........           _BLF     ??_Tidy,??_Tidy??rA
     92                              if ( Status == E_NO_ERR ) {
   \   00000154   14009DE5           LDR      R0,[SP, #+20]
   \   00000158   14D08DE2           ADD      SP,SP,#+20
   \   0000015C   000050E3           CMP      R0,#+0
   \   00000160   2400001A           BNE      ??PutValue_7
     93                                  Limit = Value;
   \   00000164   E46085E5           STR      R6,[R5, #+228]
   \   00000168   250000EA           B        ??PutValue_13
     94                              }
     95                          } else {
     96          					float MinInput, MaxInput;
     97          					PROTPressPtr->GetMaxPresureLimits(MinInput, MaxInput);
   \                     ??PutValue_10:
   \   0000016C   0C208DE2           ADD      R2,SP,#+12
   \   00000170   08108DE2           ADD      R1,SP,#+8
   \   00000174   0700A0E1           MOV      R0,R7
   \   00000178   ........           _BLF     ??GetMaxPresureLimits,??GetMaxPresureLimits??rA
     98                              float Value = ConvertToSi(NewValue, ValUnitId = PRESSURE_UNIT1, Status, MinInput, MaxInput, 0.0);
   \   0000017C   0610A0E3           MOV      R1,#+6
   \   00000180   04108DE5           STR      R1,[SP, #+4]
   \   00000184   0610A0E1           MOV      R1,R6
   \   00000188   10008DE2           ADD      R0,SP,#+16
   \   0000018C   ........           _BLF     ??string,??string??rA
   \   00000190   0000A0E3           MOV      R0,#+0
   \   00000194   0010A0E3           MOV      R1,#+0
   \   00000198   03002DE9           PUSH     {R0,R1}
   \   0000019C   14009DE5           LDR      R0,[SP, #+20]
   \   000001A0   ........           _BLF     __floatToDouble,??__floatToDouble??rA
   \   000001A4   03002DE9           PUSH     {R0,R1}
   \   000001A8   18009DE5           LDR      R0,[SP, #+24]
   \   000001AC   ........           _BLF     __floatToDouble,??__floatToDouble??rA
   \   000001B0   DCFFFFEA           B        ??PutValue_12
     99                              if ( Status == E_NO_ERR ) {
    100                                  Limit = Value;
    101                              }
    102                          }
    103                          break;
    104                      default:
    105                          Status = AlarmBasic::PutValue(ValueId, Index, NewValue, Local, &ValUnitId);
   \                     ??PutValue_9:
   \   000001B4   0610A0E1           MOV      R1,R6
   \   000001B8   48008DE2           ADD      R0,SP,#+72
   \   000001BC   ........           _BLF     ??string,??string??rA
   \   000001C0   04008DE2           ADD      R0,SP,#+4
   \   000001C4   01002DE9           PUSH     {R0}
   \   000001C8   00042DE9           PUSH     {R10}
   \   000001CC   50308DE2           ADD      R3,SP,#+80
   \   000001D0   0920A0E1           MOV      R2,R9
   \   000001D4   0710A0E1           MOV      R1,R7
   \   000001D8   0500A0E1           MOV      R0,R5
   \   000001DC   ........           _BLF     ??PutValue_2,??PutValue??rA
   \   000001E0   08008DE5           STR      R0,[SP, #+8]
   \   000001E4   0020A0E3           MOV      R2,#+0
   \   000001E8   0110A0E3           MOV      R1,#+1
   \   000001EC   50008DE2           ADD      R0,SP,#+80
   \   000001F0   ........           _BLF     ??_Tidy,??_Tidy??rA
   \   000001F4   08D08DE2           ADD      SP,SP,#+8
    106                          break;
    107                      }
    108                      break; // switch ( ValueId )
    109                  } //switch ( Key )
    110                  if ( Status == E_NO_ERR ) {
   \                     ??PutValue_7:
   \   000001F8   00009DE5           LDR      R0,[SP, #+0]
   \   000001FC   000050E3           CMP      R0,#+0
   \   00000200   1300001A           BNE      ??PutValue_3
    111          			SetModifiedFlag();
   \                     ??PutValue_13:
   \   00000204   A41095E5           LDR      R1,[R5, #+164]
   \   00000208   0500A0E1           MOV      R0,R5
   \   0000020C   541091E5           LDR      R1,[R1, #+84]
   \   00000210   0FE0A0E1           MOV      LR,PC
   \   00000214   11FF2FE1           BX       R1
    112          			if ( Limit != OrgLimit ) {
   \   00000218   E40095E5           LDR      R0,[R5, #+228]
   \   0000021C   0810A0E1           MOV      R1,R8
   \   00000220   ........           _BLF     __fNotEqual,??__fNotEqual??rA
   \   00000224   000050E3           CMP      R0,#+0
   \   00000228   0900000A           BEQ      ??PutValue_3
    113          				LogEvent("New limit");
   \   0000022C   3C109FE5           LDR      R1,??PutValue_11+0x4  ;; `?<Constant "New limit">`
   \   00000230   10008DE2           ADD      R0,SP,#+16
   \   00000234   ........           _BLF     ??AnsiString,??AnsiString??rA
   \   00000238   0010A0E1           MOV      R1,R0
   \   0000023C   0500A0E1           MOV      R0,R5
   \   00000240   ........           _BLF     ??LogEvent,??LogEvent??rA
   \   00000244   0020A0E3           MOV      R2,#+0
   \   00000248   0110A0E3           MOV      R1,#+1
   \   0000024C   10008DE2           ADD      R0,SP,#+16
   \   00000250   ........           _BLF     ??_Tidy,??_Tidy??rA
    114          			}
    115                  }
    116              } // if ( Locked ) else
    117              if ( UnitId ) {
   \                     ??PutValue_3:
   \   00000254   000054E3           CMP      R4,#+0
    118                  *UnitId = ValUnitId;
   \   00000258   04009D15           LDRNE    R0,[SP, #+4]
   \   0000025C   00008415           STRNE    R0,[R4, #+0]
    119              }
    120              return (Status);
   \   00000260   00009DE5           LDR      R0,[SP, #+0]
   \   00000264   64D08DE2           ADD      SP,SP,#+100
   \   00000268   ........           B        ?Subroutine14
   \                     ??PutValue_11:
   \   0000026C   A1655248           DC32     0x485265a1
   \   00000270   ........           DC32     `?<Constant "New limit">`
    121          }

   \                                 In segment CODE, align 4, keep-with-next
   \                     ?Subroutine14:
   \   00000000   F04FBDE8           POP      {R4-R11,LR}
   \   00000004   1EFF2FE1           BX       LR               ;; return
   \                     ??Subroutine14_0:
   \   00000008   3A0A0000           DC8      ":\n",+0
   \   0000000C   ........           DC32     `?<Constant "Alarm setting">`
   \   00000010   ........           DC32     NewLineStr
   \   00000014   A2655248           DC32     0x485265a2
    122          

   \                                 In segment CODE, align 4, keep-with-next
    123          int  AlarmLowPressure::GetValue(int ValueId, int Index, float &MyRetValue, int &DecPnt, int &Unit) {
   \                     ??GetValue:
   \   00000000   F0432DE9           PUSH     {R4-R9,LR}
   \   00000004   1C409DE5           LDR      R4,[SP, #+28]
   \   00000008   20509DE5           LDR      R5,[SP, #+32]
    124              int Status = GETVAL_NO_ERR;
   \   0000000C   00C0A0E3           MOV      R12,#+0
    125              switch ( ValueId ) {
   \   00000010   0660A0E3           MOV      R6,#+6
   \   00000014   0170A0E3           MOV      R7,#+1
   \   00000018   328041E2           SUB      R8,R1,#+50
   \   0000001C   8C8D48E2           SUB      R8,R8,#+8960
   \   00000020   010058E3           CMP      R8,#+1
   \   00000024   1200008A           BHI      ??GetValue_3
   \   00000028   019F8FE2           ADR      R9,??GetValue_1
   \   0000002C   0890D9E7           LDRB     R9,[R9, R8]
   \   00000030   09F18FE0           ADD      PC,PC,R9, LSL #+2
   \                     ??GetValue_1:
   \   00000034   00090000           DC8      +0,+9,+0,+0
    126              case SVT_AL_LIMIT:
    127                  MyRetValue = Limit;
   \                     ??GetValue_4:
   \   00000038   E41090E5           LDR      R1,[R0, #+228]
   \   0000003C   001083E5           STR      R1,[R3, #+0]
    128                  DecPnt     = 1;
   \   00000040   007084E5           STR      R7,[R4, #+0]
    129                  Unit       = PRESSURE_UNIT1;
   \   00000044   006085E5           STR      R6,[R5, #+0]
    130                  if ( !Enable ) {
   \   00000048   E200D0E5           LDRB     R0,[R0, #+226]
   \   0000004C   000050E3           CMP      R0,#+0
   \   00000050   0C00001A           BNE      ??GetValue_5
    131                      Status     = GETVAL_DISABLED;
   \   00000054   09C0A0E3           MOV      R12,#+9
   \   00000058   0A0000EA           B        ??GetValue_5
    132                  }
    133                  break;
    134              case SVT_AL_VALUE:
    135                  MyRetValue = PROTPressPtr->Pressure;
   \                     ??GetValue_6:
   \   0000005C   EC0090E5           LDR      R0,[R0, #+236]
   \   00000060   6C0190E5           LDR      R0,[R0, #+364]
   \   00000064   000083E5           STR      R0,[R3, #+0]
    136                  DecPnt     = 1;
   \   00000068   007084E5           STR      R7,[R4, #+0]
    137                  Unit       = PRESSURE_UNIT1;
   \   0000006C   006085E5           STR      R6,[R5, #+0]
   \   00000070   040000EA           B        ??GetValue_5
    138                  break;
    139              default:
    140                  Status = AlarmBasic::GetValue(ValueId, Index, MyRetValue, DecPnt, Unit);
   \                     ??GetValue_3:
   \   00000074   20002DE9           PUSH     {R5}
   \   00000078   10002DE9           PUSH     {R4}
   \   0000007C   ........           _BLF     ??GetValue_2,??GetValue??rA
   \   00000080   00C0A0E1           MOV      R12,R0
   \   00000084   08D08DE2           ADD      SP,SP,#+8
    141                  break;
    142              }
    143              return (Status);
   \                     ??GetValue_5:
   \   00000088   F043BDE8           POP      {R4-R9,LR}
   \   0000008C   0C00A0E1           MOV      R0,R12
   \   00000090   1EFF2FE1           BX       LR               ;; return
    144          }
    145          

   \                                 In segment CODE, align 4, keep-with-next
    146          int AlarmLowPressure::GetStringValue(int ValueId, int Index, AnsiString &MyString) {
   \                     ??GetStringValue:
   \   00000000   00402DE9           PUSH     {LR}
    147              int Status = GETVAL_NO_ERR;
    148              //switch ( ValueId ) {
    149              //	default:
    150              Status = AlarmBasic::GetStringValue(ValueId, Index, MyString);
    151              //		break;
    152              //}
    153              return (Status);
   \   00000004   ........           _BLF     ??GetStringValue_1,??GetStringValue??rA
   \   00000008   ........           B        ?Subroutine12
    154          }
    155          

   \                                 In segment CODE, align 4, keep-with-next
    156          int AlarmLowPressure::PutFloatValue(int ValueId, float NewValue) {
   \                     ??PutFloatValue:
   \   00000000   00402DE9           PUSH     {LR}
    157              int Status = E_NO_ERR;
    158              //switch ( ValueId ) {
    159              //   default:
    160              Status = AlarmBasic::PutFloatValue(ValueId, NewValue);
    161              //     break;
    162              //}
    163              return (Status);
   \   00000004   ........           _BLF     ??PutFloatValue_1,??PutFloatValue??rA
   \   00000008   ........           B        ?Subroutine12
    164          }
    165          //---------------------------------------------------------------------------
    166          

   \                                 In segment CODE, align 4, keep-with-next
    167          bool AlarmLowPressure::RestoreSettings(TSNConfigString *SettingsString) {
   \                     ??RestoreSettings:
   \   00000000   F24F2DE9           PUSH     {R1,R4-R11,LR}
   \   00000004   73DF4DE2           SUB      SP,SP,#+460
   \   00000008   0060A0E1           MOV      R6,R0
    168              bool NoError = true;
    169              if (!Locked) {
   \   0000000C   E800D6E5           LDRB     R0,[R6, #+232]
   \   00000010   01A0A0E3           MOV      R10,#+1
   \   00000014   000050E3           CMP      R0,#+0
   \   00000018   0701001A           BNE      ??RestoreSettings_1
    170                  int ErrorLine   = 0;
    171                  int Key         = C_UNDEFINED;
    172                  AnsiString PROName = "Alarm setting";
   \   0000001C   ........           LDR      R11,??Subroutine14_0+0x4  ;; `?<Constant "Alarm setting">`
   \   00000020   0010A0E3           MOV      R1,#+0
   \   00000024   00108DE5           STR      R1,[SP, #+0]
   \   00000028   0B10A0E1           MOV      R1,R11
   \   0000002C   44008DE2           ADD      R0,SP,#+68
   \   00000030   ........           _BLF     ??AnsiString,??AnsiString??rA
    173                  if (PROPointer)   PROName += (AnsiString)", for " + PROPointer->Name;
   \   00000034   C40096E5           LDR      R0,[R6, #+196]
   \   00000038   0090A0E3           MOV      R9,#+0
   \   0000003C   000050E3           CMP      R0,#+0
   \   00000040   1500000A           BEQ      ??RestoreSettings_2
   \   00000044   10108BE2           ADD      R1,R11,#+16
   \   00000048   0C008DE2           ADD      R0,SP,#+12
   \   0000004C   ........           _BLF     ??AnsiString,??AnsiString??rA
   \   00000050   0010A0E1           MOV      R1,R0
   \   00000054   C40096E5           LDR      R0,[R6, #+196]
   \   00000058   442080E2           ADD      R2,R0,#+68
   \   0000005C   28008DE2           ADD      R0,SP,#+40
   \   00000060   ........           _BLF     `??operator+`,`??operator+??rA`
   \   00000064   ........           LDR      R0,??DataTable12  ;; ??npos
   \   00000068   0020A0E3           MOV      R2,#+0
   \   0000006C   003090E5           LDR      R3,[R0, #+0]
   \   00000070   28108DE2           ADD      R1,SP,#+40
   \   00000074   44008DE2           ADD      R0,SP,#+68
   \   00000078   ........           _BLF     ??append,??append??rA
   \   0000007C   0920A0E1           MOV      R2,R9
   \   00000080   0A10A0E1           MOV      R1,R10
   \   00000084   28008DE2           ADD      R0,SP,#+40
   \   00000088   ........           _BLF     ??_Tidy,??_Tidy??rA
   \   0000008C   0920A0E1           MOV      R2,R9
   \   00000090   0A10A0E1           MOV      R1,R10
   \   00000094   0C008DE2           ADD      R0,SP,#+12
   \   00000098   ........           _BLF     ??_Tidy,??_Tidy??rA
    174                  PROName += ":\n";
   \                     ??RestoreSettings_2:
   \   0000009C   ........           ADR      R7,??Subroutine14_0  ;; ":\n"
   \   000000A0   0700A0E1           MOV      R0,R7
   \   000000A4   ........           _BLF     strlen,??strlen??rA
   \   000000A8   0020A0E1           MOV      R2,R0
   \   000000AC   0710A0E1           MOV      R1,R7
   \   000000B0   44008DE2           ADD      R0,SP,#+68
   \   000000B4   ........           _BLF     ??append_1,??append??rA_1
    175                  do {
    176                      AnsiString InputKeyWord = SettingsString->NextWord(ErrorLine);
   \                     ??RestoreSettings_3:
   \   000000B8   CC019DE5           LDR      R0,[SP, #+460]
   \   000000BC   0030A0E3           MOV      R3,#+0
   \   000000C0   0D20A0E1           MOV      R2,SP
    177                      if (ErrorLine) {
   \   000000C4   ........           LDR      R8,??Subroutine14_0+0x8  ;; NewLineStr
   \   000000C8   98108DE2           ADD      R1,SP,#+152
   \   000000CC   ........           _BLF     ??NextWord,??NextWord??rA
   \   000000D0   00009DE5           LDR      R0,[SP, #+0]
   \   000000D4   000050E3           CMP      R0,#+0
   \   000000D8   3100000A           BEQ      ??RestoreSettings_4
    178                          if (ErrorLine != EOF) {
   \   000000DC   010070E3           CMN      R0,#+1
   \   000000E0   C600000A           BEQ      ??RestoreSettings_5
    179                              RestoreSettingsWarning(PROName + (AnsiString)"Unknown error started at line:" + (AnsiString)ErrorLine + NewLineStr);
   \   000000E4   0010A0E1           MOV      R1,R0
   \   000000E8   D0008DE2           ADD      R0,SP,#+208
   \   000000EC   ........           _BLF     ??AnsiString_1,??AnsiString??rA_1
   \   000000F0   0070A0E1           MOV      R7,R0
   \   000000F4   18108BE2           ADD      R1,R11,#+24
   \   000000F8   B4008DE2           ADD      R0,SP,#+180
   \   000000FC   ........           _BLF     ??AnsiString,??AnsiString??rA
   \   00000100   0020A0E1           MOV      R2,R0
   \   00000104   44108DE2           ADD      R1,SP,#+68
   \   00000108   7C008DE2           ADD      R0,SP,#+124
   \   0000010C   ........           _BLF     `??operator+`,`??operator+??rA`
   \   00000110   0720A0E1           MOV      R2,R7
   \   00000114   7C108DE2           ADD      R1,SP,#+124
   \   00000118   60008DE2           ADD      R0,SP,#+96
   \   0000011C   ........           _BLF     `??operator+`,`??operator+??rA`
   \   00000120   0820A0E1           MOV      R2,R8
   \   00000124   60108DE2           ADD      R1,SP,#+96
   \   00000128   0C008DE2           ADD      R0,SP,#+12
   \   0000012C   ........           _BLF     `??operator+`,`??operator+??rA`
   \   00000130   0C108DE2           ADD      R1,SP,#+12
   \   00000134   28008DE2           ADD      R0,SP,#+40
   \   00000138   ........           _BLF     ??AnsiString_2,??AnsiString??rA_2
   \   0000013C   ........           _BLF     ??RestoreSettingsWarning,??RestoreSettingsWarning??rA
   \   00000140   0020A0E3           MOV      R2,#+0
   \   00000144   0110A0E3           MOV      R1,#+1
   \   00000148   28008DE2           ADD      R0,SP,#+40
   \   0000014C   ........           _BLF     ??_Tidy,??_Tidy??rA
   \   00000150   0020A0E3           MOV      R2,#+0
   \   00000154   0110A0E3           MOV      R1,#+1
   \   00000158   0C008DE2           ADD      R0,SP,#+12
   \   0000015C   ........           _BLF     ??_Tidy,??_Tidy??rA
   \   00000160   0020A0E3           MOV      R2,#+0
   \   00000164   0110A0E3           MOV      R1,#+1
   \   00000168   60008DE2           ADD      R0,SP,#+96
   \   0000016C   ........           _BLF     ??_Tidy,??_Tidy??rA
   \   00000170   0020A0E3           MOV      R2,#+0
   \   00000174   0110A0E3           MOV      R1,#+1
   \   00000178   D0008DE2           ADD      R0,SP,#+208
   \   0000017C   ........           _BLF     ??_Tidy,??_Tidy??rA
   \   00000180   0020A0E3           MOV      R2,#+0
   \   00000184   0110A0E3           MOV      R1,#+1
   \   00000188   7C008DE2           ADD      R0,SP,#+124
   \   0000018C   ........           _BLF     ??_Tidy,??_Tidy??rA
   \   00000190   0020A0E3           MOV      R2,#+0
   \   00000194   0110A0E3           MOV      R1,#+1
   \   00000198   B4008DE2           ADD      R0,SP,#+180
   \                     ??RestoreSettings_6:
   \   0000019C   ........           _BLF     ??_Tidy,??_Tidy??rA
   \   000001A0   960000EA           B        ??RestoreSettings_5
    180                          }
    181                      } else {
    182                          Key = FindConfigKey(InputKeyWord);
   \                     ??RestoreSettings_4:
   \   000001A4   98108DE2           ADD      R1,SP,#+152
   \   000001A8   0C008DE2           ADD      R0,SP,#+12
   \   000001AC   ........           _BLF     ??string,??string??rA
   \   000001B0   0C008DE2           ADD      R0,SP,#+12
   \   000001B4   ........           _BLF     ??FindConfigKey,??FindConfigKey??rA
   \   000001B8   0090A0E1           MOV      R9,R0
   \   000001BC   0020A0E3           MOV      R2,#+0
   \   000001C0   0110A0E3           MOV      R1,#+1
   \   000001C4   0C008DE2           ADD      R0,SP,#+12
   \   000001C8   ........           _BLF     ??_Tidy,??_Tidy??rA
    183                          switch (Key) {
   \   000001CC   0100A0E3           MOV      R0,#+1
   \   000001D0   640059E3           CMP      R9,#+100
   \   000001D4   8300000A           BEQ      ??RestoreSettings_7
   \   000001D8   650059E3           CMP      R9,#+101
   \   000001DC   8300000A           BEQ      ??RestoreSettings_8
   \   000001E0   6D0059E3           CMP      R9,#+109
   \   000001E4   8400000A           BEQ      ??RestoreSettings_9
   \   000001E8   6E0059E3           CMP      R9,#+110
   \   000001EC   8100000A           BEQ      ??RestoreSettings_10
   \   000001F0   B920A0E3           MOV      R2,#+185
   \   000001F4   B02E82E3           ORR      R2,R2,#0xB00
   \   000001F8   020059E1           CMP      R9,R2
   \   000001FC   7F00000A           BEQ      ??RestoreSettings_5
   \   00000200   012082E2           ADD      R2,R2,#+1
   \   00000204   020059E1           CMP      R9,R2
   \   00000208   4000000A           BEQ      ??RestoreSettings_11
    184                          default:
    185                              NoError = false;
    186                              RestoreSettingsWarning(PROName + (AnsiString)"The keyword " + InputKeyWord + " is not allowed here!! Line:" + (AnsiString)SettingsString->LineCount + NewLineStr);
   \   0000020C   CC019DE5           LDR      R0,[SP, #+460]
   \   00000210   00A0A0E3           MOV      R10,#+0
   \   00000214   1C1090E5           LDR      R1,[R0, #+28]
   \   00000218   6C0F8DE2           ADD      R0,SP,#+432
   \   0000021C   ........           _BLF     ??AnsiString_1,??AnsiString??rA_1
   \   00000220   0070A0E1           MOV      R7,R0
   \   00000224   38108BE2           ADD      R1,R11,#+56
   \   00000228   650F8DE2           ADD      R0,SP,#+404
   \   0000022C   ........           _BLF     ??AnsiString,??AnsiString??rA
   \   00000230   0020A0E1           MOV      R2,R0
   \   00000234   44108DE2           ADD      R1,SP,#+68
   \   00000238   5E0F8DE2           ADD      R0,SP,#+376
   \   0000023C   ........           _BLF     `??operator+`,`??operator+??rA`
   \   00000240   98208DE2           ADD      R2,SP,#+152
   \   00000244   5E1F8DE2           ADD      R1,SP,#+376
   \   00000248   570F8DE2           ADD      R0,SP,#+348
   \   0000024C   ........           _BLF     `??operator+`,`??operator+??rA`
   \   00000250   48208BE2           ADD      R2,R11,#+72
   \   00000254   571F8DE2           ADD      R1,SP,#+348
   \   00000258   500F8DE2           ADD      R0,SP,#+320
   \   0000025C   ........           _BLF     `??operator+_1`,`??operator+??rA_1`
   \   00000260   0720A0E1           MOV      R2,R7
   \   00000264   501F8DE2           ADD      R1,SP,#+320
   \   00000268   490F8DE2           ADD      R0,SP,#+292
   \   0000026C   ........           _BLF     `??operator+`,`??operator+??rA`
   \   00000270   0820A0E1           MOV      R2,R8
   \   00000274   491F8DE2           ADD      R1,SP,#+292
   \   00000278   420F8DE2           ADD      R0,SP,#+264
   \   0000027C   ........           _BLF     `??operator+`,`??operator+??rA`
   \   00000280   421F8DE2           ADD      R1,SP,#+264
   \   00000284   EC008DE2           ADD      R0,SP,#+236
   \   00000288   ........           _BLF     ??AnsiString_2,??AnsiString??rA_2
   \   0000028C   ........           _BLF     ??RestoreSettingsWarning,??RestoreSettingsWarning??rA
   \   00000290   0020A0E3           MOV      R2,#+0
   \   00000294   0110A0E3           MOV      R1,#+1
   \   00000298   EC008DE2           ADD      R0,SP,#+236
   \   0000029C   ........           _BLF     ??_Tidy,??_Tidy??rA
   \   000002A0   0A20A0E1           MOV      R2,R10
   \   000002A4   0110A0E3           MOV      R1,#+1
   \   000002A8   420F8DE2           ADD      R0,SP,#+264
   \   000002AC   ........           _BLF     ??_Tidy,??_Tidy??rA
   \   000002B0   0A20A0E1           MOV      R2,R10
   \   000002B4   0110A0E3           MOV      R1,#+1
   \   000002B8   490F8DE2           ADD      R0,SP,#+292
   \   000002BC   ........           _BLF     ??_Tidy,??_Tidy??rA
   \   000002C0   0A20A0E1           MOV      R2,R10
   \   000002C4   0110A0E3           MOV      R1,#+1
   \   000002C8   6C0F8DE2           ADD      R0,SP,#+432
   \   000002CC   ........           _BLF     ??_Tidy,??_Tidy??rA
   \   000002D0   0A20A0E1           MOV      R2,R10
   \   000002D4   0110A0E3           MOV      R1,#+1
   \   000002D8   500F8DE2           ADD      R0,SP,#+320
   \   000002DC   ........           _BLF     ??_Tidy,??_Tidy??rA
   \   000002E0   0A20A0E1           MOV      R2,R10
   \   000002E4   0110A0E3           MOV      R1,#+1
   \   000002E8   570F8DE2           ADD      R0,SP,#+348
   \   000002EC   ........           _BLF     ??_Tidy,??_Tidy??rA
   \   000002F0   0A20A0E1           MOV      R2,R10
   \   000002F4   0110A0E3           MOV      R1,#+1
   \   000002F8   5E0F8DE2           ADD      R0,SP,#+376
   \   000002FC   ........           _BLF     ??_Tidy,??_Tidy??rA
   \   00000300   0A20A0E1           MOV      R2,R10
   \   00000304   0110A0E3           MOV      R1,#+1
   \   00000308   650F8DE2           ADD      R0,SP,#+404
   \   0000030C   A2FFFFEA           B        ??RestoreSettings_6
    187                              break;
    188                          case C_AL_LIMIT:
    189                              {
    190                                  float NewLimit = SettingsString->ReadDouble(ErrorLine);
   \                     ??RestoreSettings_11:
   \   00000310   CC019DE5           LDR      R0,[SP, #+460]
   \   00000314   0020A0E3           MOV      R2,#+0
   \   00000318   0D10A0E1           MOV      R1,SP
   \   0000031C   ........           _BLF     ??ReadDouble,??ReadDouble??rA
   \   00000320   ........           _BLF     __doubleToFloat,??__doubleToFloat??rA
   \   00000324   0080A0E1           MOV      R8,R0
    191                                  if (NoError) {
   \   00000328   00005AE3           CMP      R10,#+0
   \   0000032C   2800000A           BEQ      ??RestoreSettings_12
    192                                      if ( PROTPressPtr->MaxPressureRange > 4.0 ) {
   \   00000330   ECA096E5           LDR      R10,[R6, #+236]
   \   00000334   ........           _BLF     __floatToDouble,??__floatToDouble??rA
   \   00000338   0040A0E1           MOV      R4,R0
   \   0000033C   E4019AE5           LDR      R0,[R10, #+484]
   \   00000340   0150A0E1           MOV      R5,R1
   \   00000344   ........           _BLF     __floatToDouble,??__floatToDouble??rA
   \   00000348   0120A0E3           MOV      R2,#+1
   \   0000034C   4034A0E3           MOV      R3,#+1073741824
   \   00000350   403983E3           ORR      R3,R3,#0x100000
   \   00000354   ........           _BLF     __dGreaterEqual,??__dGreaterEqual??rA
   \   00000358   000050E3           CMP      R0,#+0
   \   0000035C   0C00000A           BEQ      ??RestoreSettings_13
    193                                          if (NewLimit >= 2 * LIMIT_LOW_LPG_PRESS && NewLimit <= LIMIT_HIGH_LPG_PRESS ) {
   \   00000360   ........           LDR      R2,??DataTable13  ;; 0x6f46d2ce
   \   00000364   ........           LDR      R3,??DataTable14  ;; 0xffffffffc02464f2
   \   00000368   0400A0E1           MOV      R0,R4
   \   0000036C   0510A0E1           MOV      R1,R5
   \   00000370   ........           _BLF     __dGreaterEqual,??__dGreaterEqual??rA
   \   00000374   000050E3           CMP      R0,#+0
   \   00000378   1500000A           BEQ      ??RestoreSettings_12
   \   0000037C   ........           LDR      R2,??Subroutine14_0+0xC  ;; 0x485265a2
   \   00000380   ........           LDR      R3,??DataTable15  ;; 0x40631ea3
   \   00000384   0400A0E1           MOV      R0,R4
   \   00000388   0510A0E1           MOV      R1,R5
   \   0000038C   ........           _BLF     __dLess,??__dLess??rA
   \   00000390   0D0000EA           B        ??RestoreSettings_14
    194                                              Limit = NewLimit;
    195                                          }
    196                                      } else {
    197          								float MinInput, MaxInput;
    198          								PROTPressPtr->GetMaxPresureLimits(MinInput, MaxInput);
   \                     ??RestoreSettings_13:
   \   00000394   04208DE2           ADD      R2,SP,#+4
   \   00000398   08108DE2           ADD      R1,SP,#+8
   \   0000039C   0A00A0E1           MOV      R0,R10
   \   000003A0   ........           _BLF     ??GetMaxPresureLimits,??GetMaxPresureLimits??rA
    199          								if (NewLimit >= 0.0 && NewLimit <= MaxInput) {
   \   000003A4   0400A0E1           MOV      R0,R4
   \   000003A8   0510A0E1           MOV      R1,R5
   \   000003AC   0020A0E3           MOV      R2,#+0
   \   000003B0   0030A0E3           MOV      R3,#+0
   \   000003B4   ........           _BLF     __dGreaterEqual,??__dGreaterEqual??rA
   \   000003B8   000050E3           CMP      R0,#+0
   \   000003BC   0400000A           BEQ      ??RestoreSettings_12
   \   000003C0   04009DE5           LDR      R0,[SP, #+4]
   \   000003C4   0810A0E1           MOV      R1,R8
   \   000003C8   ........           _BLF     __fGreaterEqual,??__fGreaterEqual??rA
   \                     ??RestoreSettings_14:
   \   000003CC   000050E3           CMP      R0,#+0
    200                                              Limit = NewLimit;
   \   000003D0   E4808615           STRNE    R8,[R6, #+228]
    201                                          }
    202                                      }
    203                                  }
    204                              }
    205                              NoError = !ErrorLine;
   \                     ??RestoreSettings_12:
   \   000003D4   00009DE5           LDR      R0,[SP, #+0]
   \   000003D8   000050E3           CMP      R0,#+0
   \   000003DC   00A0A013           MOVNE    R10,#+0
   \   000003E0   01A0A003           MOVEQ    R10,#+1
   \   000003E4   050000EA           B        ??RestoreSettings_5
    206                              break;
    207                          case C_ENABLE:
    208                              Enable = true;
   \                     ??RestoreSettings_7:
   \   000003E8   E200C6E5           STRB     R0,[R6, #+226]
   \   000003EC   030000EA           B        ??RestoreSettings_5
    209                              break;
    210                          case C_DISABLE:
    211                              Enable = false;
   \                     ??RestoreSettings_8:
   \   000003F0   0000A0E3           MOV      R0,#+0
   \   000003F4   FBFFFFEA           B        ??RestoreSettings_7
    212                              break;
    213                          case C_PREVIOUS_ENABLE:
    214                              PreviousEnable = true;
    215                              break;
    216                          case C_PREVIOUS_DISABLE:
    217                              PreviousEnable = false;
   \                     ??RestoreSettings_10:
   \   000003F8   0000A0E3           MOV      R0,#+0
   \                     ??RestoreSettings_9:
   \   000003FC   CC00C6E5           STRB     R0,[R6, #+204]
    218                              break;
    219                          case C_AL_END:
    220                              break;
    221                          }
    222                      }
    223                  }while (NoError && (ErrorLine != EOF) && (Key != C_AL_END));
   \                     ??RestoreSettings_5:
   \   00000400   0020A0E3           MOV      R2,#+0
   \   00000404   0110A0E3           MOV      R1,#+1
   \   00000408   98008DE2           ADD      R0,SP,#+152
   \   0000040C   ........           _BLF     ??_Tidy,??_Tidy??rA
   \   00000410   00005AE3           CMP      R10,#+0
   \   00000414   00009D15           LDRNE    R0,[SP, #+0]
   \   00000418   01007013           CMNNE    R0,#+1
   \   0000041C   B900A013           MOVNE    R0,#+185
   \   00000420   B00E8013           ORRNE    R0,R0,#0xB00
   \   00000424   00005911           CMPNE    R9,R0
   \   00000428   22FFFF1A           BNE      ??RestoreSettings_3
    224              }
   \   0000042C   0020A0E3           MOV      R2,#+0
   \   00000430   0110A0E3           MOV      R1,#+1
   \   00000434   44008DE2           ADD      R0,SP,#+68
   \   00000438   ........           _BLF     ??_Tidy,??_Tidy??rA
    225              return (NoError);
   \                     ??RestoreSettings_1:
   \   0000043C   0A00A0E1           MOV      R0,R10
   \   00000440   74DF8DE2           ADD      SP,SP,#+464
   \   00000444                      REQUIRE ?Subroutine14
   \   00000444                      ;; // Fall through to label ?Subroutine14
    226          }

   \                                 In segment DIFUNCT, align 4, keep-with-next, root
   \   00000000                      REQUIRE ?call_ctors
   \   00000000   ........           DC32    ??__sti__routine

   \                                 In segment DATA_C, align 4, align-sorted
   \   __vtbl_entry const __data AlarmLowPressure::__vtbl[29]
   \                     ??__vtbl:
   \   00000000   ............       DC32 `?~AlarmLowPressure`, ??WriteConfigToFile, ??LoadConfigFromFile
   \              ............
   \   0000000C   ............       DC32 ??MakeConfigString, ??LoadConfigString, ??RestoreSettings
   \              ............
   \   00000018   ............       DC32 ??GetName, ??FindPROStatus, ??GetFloatValue, ??GetValue
   \              ............
   \              ........    
   \   00000028   ............       DC32 ??GetStringValue, ??GetBitValue, ??PutValue, ??PutFloatValue
   \              ............
   \              ........    
   \   00000038   ............       DC32 ??PutBitValue, ??ReceiveData, ??SendData, ??StartTimer
   \              ............
   \              ........    
   \   00000048   ............       DC32 ??InputTimeout, ??GetValueInfoTable, ??GetServiceValueInfoTable
   \              ............
   \   00000054   ............       DC32 ??SetModifiedFlag, ??IsAvailableNewData, ??Get_CompleteMessage
   \              ............
   \   00000060   ............       DC32 ??Get_Location, ??Check, ??Get_Message, ??AddAlarm, ??RemoveAlarm
   \              ............
   \              ............
   \              ....        
   \   00000074   25732025332E       DC8 "%s %3.0fkPa"
   \              30666B506100

   \                                 In segment DATA_C, align 4, align-sorted
   \                     `?<Constant "Alarm setting">`:
   \   00000000   416C61726D20       DC8 "Alarm setting"
   \              73657474696E
   \              6700        
   \   0000000E   0000               DC8 0, 0
   \   00000010   2C20666F7220       DC8 ", for "
   \              00          
   \   00000017   00                 DC8 0
   \   00000018   556E6B6E6F77       DC8 "Unknown error started at line:"
   \              6E206572726F
   \              722073746172
   \              746564206174
   \              206C696E653A
   \              00          
   \   00000037   00                 DC8 0
   \   00000038   546865206B65       DC8 "The keyword "
   \              79776F726420
   \              00          
   \   00000045   000000             DC8 0, 0, 0
   \   00000048   206973206E6F       DC8 " is not allowed here!! Line:"
   \              7420616C6C6F
   \              776564206865
   \              72652121204C
   \              696E653A00  
   \   00000065   000000             DC8 0, 0, 0

   \                                 In segment DATA_C, align 1, align-sorted
   \   00000000   3A0A00             DC8 ":\012"

   \                                 In segment DATA_C, align 4, align-sorted
   \                     `?<Constant "New limit">`:
   \   00000000   4E6577206C69       DC8 "New limit"
   \              6D697400    
   \   0000000A   0000               DC8 0, 0

   \                                 In segment CODE, align 4, keep-with-next
   \   static __??Code32?? __intrinsic __code __interwork __atpcs void __sti__routine()
   \                     ??__sti__routine:
   \   00000000   1EFF2FE1           BX       LR               ;; return

   \                                 In segment CODE, align 4, keep-with-next
   \   __??Code32?? __code __interwork __atpcs AlarmLowPressure &AlarmLowPressure::new AlarmLowPressure()
   \                     `??new AlarmLowPressure`:
   \   00000000   00402DE9           PUSH     {LR}
   \   00000004   F000A0E3           MOV      R0,#+240
   \   00000008   ........           _BLF     `??operator new`,`??operator new??rA`
   \   0000000C   000050E3           CMP      R0,#+0
   \   00000010   0000000A           BEQ      `??new AlarmLowPressure_2`
   \   00000014   ........           BL       ??AlarmLowPressure
   \                     `??new AlarmLowPressure_2`:
   \   00000018   ........           B        ?Subroutine12

   \                                 In segment CODE, align 4, keep-with-next
   \   __??Code32?? __code __interwork __atpcs AlarmLowPressure &AlarmLowPressure::new AlarmLowPressure(PRogramObjectBase *)
   \                     `??new AlarmLowPressure_1`:
   \   00000000   10402DE9           PUSH     {R4,LR}
   \   00000004   0040A0E1           MOV      R4,R0
   \   00000008   F000A0E3           MOV      R0,#+240
   \   0000000C   ........           _BLF     `??operator new`,`??operator new??rA`
   \   00000010   000050E3           CMP      R0,#+0
   \   00000014   0100000A           BEQ      `??new AlarmLowPressure_3`
   \   00000018   0410A0E1           MOV      R1,R4
   \   0000001C   ........           BL       ??AlarmLowPressure_1
   \                     `??new AlarmLowPressure_3`:
   \   00000020   ........           B        ?Subroutine13

   \                                 In segment CODE, align 4, keep-with-next
   \                     ??DataTable3:
   \   00000000   ........           DC32     ??__vtbl

   \                                 In segment CODE, align 4, keep-with-next
   \                     ??DataTable4:
   \   00000000   ........           DC32     ??NumberOfAlarmSettings

   \                                 In segment CODE, align 4, keep-with-next
   \                     ??DataTable5:
   \   00000000   7FD6503D           DC32     0x3d50d67f

   \                                 In segment CODE, align 4, keep-with-next
   \                     ??DataTable8:
   \   00000000   ........           DC32     ??IsInlandVessel

   \                                 In segment CODE, align 4, keep-with-next
   \                     ??DataTable12:
   \   00000000   ........           DC32     ??npos

   \                                 In segment CODE, align 4, keep-with-next
   \                     ??DataTable13:
   \   00000000   CED2466F           DC32     0x6f46d2ce

   \                                 In segment CODE, align 4, keep-with-next
   \                     ??DataTable14:
   \   00000000   F26424C0           DC32     0xffffffffc02464f2

   \                                 In segment CODE, align 4, keep-with-next
   \                     ??DataTable15:
   \   00000000   A31E6340           DC32     0x40631ea3
    227          
    228          

   Maximum stack usage in bytes:

     Function                       CSTACK
     --------                       ------
     AlarmLowPressure::AlarmLowPressure()
                                        8
     AlarmLowPressure::AlarmLowPressure(PRogramObjectBase *)
                                      160
     AlarmLowPressure::Check()         20
     AlarmLowPressure::GetStringValue(int, int, AnsiString &)
                                        4
     AlarmLowPressure::GetValue(int, int, float &, int &, int &)
                                       36
     AlarmLowPressure::Get_Message()
                                        4
     AlarmLowPressure::PutFloatValue(int, float)
                                        4
     AlarmLowPressure::PutValue(int, int, AnsiString, bool, int *)
                                      160
     AlarmLowPressure::RestoreSettings(TSNConfigString *)
                                      500
     AlarmLowPressure::new AlarmLowPressure()
                                        4
     AlarmLowPressure::new AlarmLowPressure(PRogramObjectBase *)
                                        8
     AlarmLowPressure::~AlarmLowPressure()
                                       12
     __sti__routine()                   0
     operator+(string const &, char const *)
                                       44
     operator+(string const &, string const &)
                                       40
     string::string(string const &)    12


   Segment part sizes:

     Function/Label                 Bytes
     --------------                 -----
     string::string(string const &)   64
     operator+(string const &, string const &)
                                      88
     operator+(string const &, char const *)
                                      92
     AlarmLowPressure::~AlarmLowPressure()
                                      56
     AlarmLowPressure::NumberOfAlarmSettings
                                       4
     AlarmLowPressure::AlarmLowPressure()
                                      52
     ?Subroutine13                     8
     AlarmLowPressure::AlarmLowPressure(PRogramObjectBase *)
                                     324
     AlarmLowPressure::Get_Message()
                                      52
     ?Subroutine12                     8
     AlarmLowPressure::Check()       112
     AlarmLowPressure::PutValue(int, int, AnsiString, bool, int *)
                                     628
     ?Subroutine14                    24
     AlarmLowPressure::GetValue(int, int, float &, int &, int &)
                                     148
     AlarmLowPressure::GetStringValue(int, int, AnsiString &)
                                      12
     AlarmLowPressure::PutFloatValue(int, float)
                                      12
     AlarmLowPressure::RestoreSettings(TSNConfigString *)
                                    1092
     AlarmLowPressure::__vtbl        128
     ?<Constant "Alarm setting">     104
     ?<Constant ":\n">                 3
     ?<Constant "New limit">          12
     __sti__routine()                  4
     AlarmLowPressure::new AlarmLowPressure()
                                      28
     AlarmLowPressure::new AlarmLowPressure(PRogramObjectBase *)
                                      36
     ??DataTable3                      4
     ??DataTable4                      4
     ??DataTable5                      4
     ??DataTable8                      4
     ??DataTable12                     4
     ??DataTable13                     4
     ??DataTable14                     4
     ??DataTable15                     4
      Others                         532

 
 3 388 bytes in segment CODE
   247 bytes in segment DATA_C
     4 bytes in segment DATA_Z
     4 bytes in segment DIFUNCT
    12 bytes in segment INITTAB
 
 2 576 bytes of CODE  memory (+ 828 bytes shared)
   247 bytes of CONST memory
     4 bytes of DATA  memory

Errors: none
Warnings: 1
