##############################################################################
#                                                                            #
# IAR ARM ANSI C/C++ Compiler V4.42A/W32               14/Sep/2022  15:12:56 #
# Copyright 1999-2005 IAR Systems. All rights reserved.                      #
#                                                                            #
#    Cpu mode        =  interwork                                            #
#    Endian          =  little                                               #
#    Stack alignment =  4                                                    #
#    Source file     =  D:\S2Prog\Shared\Src\AlarmModbusComFailure.cpp       #
#    Command line    =  D:\S2Prog\Shared\Src\AlarmModbusComFailure.cpp       #
#                       --fpu None -D OS_LIBMODE_SP -D CPU_S3C2410 -D        #
#                       OS_RAMVECT=0 -D OS_UART=-1 -D S2TXU -D USE_LZO=1 -D  #
#                       __ARM_LIBRARY__ -D WATCHDOG=1 -D NETWORK=1 -lCN      #
#                       D:\S2Prog\TXU\Debug\List\ -o                         #
#                       D:\S2Prog\TXU\Debug\Obj\ -z9 --debug --cpu_mode arm  #
#                       --endian little --cpu ARM920T --stack_align 4        #
#                       --interwork -e --enable_multibytes --eec++           #
#                       --dlib_config "C:\Program Files (x86)\IAR            #
#                       Systems\Embedded Workbench                           #
#                       4.0\arm\LIB\dl4tpainl8n.h" -I                        #
#                       D:\S2Prog\TXU\GUI\CORE\ -I D:\S2Prog\TXU\GUI\WM\ -I  #
#                       D:\S2Prog\TXU\GUI\WIDGET\ -I D:\S2Prog\TXU\CONFIG\   #
#                       -I D:\S2Prog\TXU\INC\ -I D:\S2Prog\TXU\..\SHARED\INC #
#                       \ -I D:\S2Prog\TXU\..\SHARED\SRC\ -I                 #
#                       D:\S2Prog\TXU\..\SHARED\LZO\minilzo.210\ -I          #
#                       D:\S2Prog\TXU\lwip-1.4.1\src\include\ -I             #
#                       D:\S2Prog\TXU\lwip-1.4.1\src\include\ipv4\ -I        #
#                       D:\S2Prog\TXU\lwip-1.4.1\src\ -I                     #
#                       D:\S2Prog\TXU\..\SHARED\Database\ -I                 #
#                       D:\S2Prog\TXU\src\ -I "C:\Program Files (x86)\IAR    #
#                       Systems\Embedded Workbench 4.0\arm\INC\"             #
#                       --inline_threshold=2                                 #
#    List file       =  D:\S2Prog\TXU\Debug\List\AlarmModbusComFailure.lst   #
#    Object file     =  D:\S2Prog\TXU\Debug\Obj\AlarmModbusComFailure.r79    #
#                                                                            #
#                                                                            #
##############################################################################

D:\S2Prog\Shared\Src\AlarmModbusComFailure.cpp
      1          #include "TSNIncludes.h"
      2          #pragma hdrstop
      3          #ifdef BORLAND
      4          #pragma package(smart_init)
      5          #endif
      6          
      7          //---------------------------------------------------------------------------
      8          

   \                                 In segment CODE, align 4, keep-with-next
      9          AlarmModbusComFailure::~AlarmModbusComFailure(void)
     10          {
   \                     `?~AlarmModbusComFailure`:
   \   00000000   30402DE9           PUSH     {R4,R5,LR}
   \   00000004   0040A0E1           MOV      R4,R0
   \   00000008   0150A0E1           MOV      R5,R1
   \   0000000C   000054E3           CMP      R4,#+0
   \   00000010   0600000A           BEQ      `?~AlarmModbusComFailure_1`
     11          }
   \   00000014   0100000A           BEQ      `?~AlarmModbusComFailure_2`
   \   00000018   0010A0E3           MOV      R1,#+0
   \   0000001C   ........           _BLF     `?~PRogramObjectBase`,`?~PRogramObjectBase??rA`
   \                     `?~AlarmModbusComFailure_2`:
   \   00000020   010015E3           TST      R5,#0x1
   \   00000024   0100000A           BEQ      `?~AlarmModbusComFailure_1`
   \   00000028   0400A0E1           MOV      R0,R4
   \   0000002C   ........           _BLF     `??operator delete`,`??operator delete??rA`
   \                     `?~AlarmModbusComFailure_1`:
   \   00000030                      REQUIRE ?Subroutine9
   \   00000030                      ;; // Fall through to label ?Subroutine9

   \                                 In segment CODE, align 4, keep-with-next
   \                     ?Subroutine9:
   \   00000000   3040BDE8           POP      {R4,R5,LR}
   \   00000004   1EFF2FE1           BX       LR               ;; return
     12          

   \                                 In segment DATA_Z, align 4, align-sorted
     13          unsigned AlarmModbusComFailure::NumberOfAlarmSettings=0;
   \                     ??NumberOfAlarmSettings:
   \   00000000                      DS8 4
     14          

   \                                 In segment CODE, align 4, keep-with-next
     15          AlarmModbusComFailure::AlarmModbusComFailure(PRogramObjectBase *PROPtr, float Lim):AlarmBasic(PROPtr,Lim)
   \                     ??AlarmModbusComFailure:
   \   00000000   10402DE9           PUSH     {R4,LR}
   \   00000004   0040A0E1           MOV      R4,R0
     16          {
   \   00000008   ........           _BLF     ??AlarmBasic,??AlarmBasic??rA
   \   0000000C   4C009FE5           LDR      R0,??AlarmModbusComFailure_1  ;; ??__vtbl
   \   00000010   A40084E5           STR      R0,[R4, #+164]
     17              NumberOfAlarmSettings++;
   \   00000014   48009FE5           LDR      R0,??AlarmModbusComFailure_1+0x4  ;; ??NumberOfAlarmSettings
   \   00000018   001090E5           LDR      R1,[R0, #+0]
   \   0000001C   011081E2           ADD      R1,R1,#+1
   \   00000020   001080E5           STR      R1,[R0, #+0]
     18              IDNumber        = (ID_AL_MODBUS_COM_ERROR << 16)+NumberOfAlarmSettings;
   \   00000024   C006A0E3           MOV      R0,#+201326592
   \   00000028   A10880E3           ORR      R0,R0,#0xA10000
   \   0000002C   010080E0           ADD      R0,R0,R1
   \   00000030   9C0084E5           STR      R0,[R4, #+156]
     19              Type            = ID_AL_MODBUS_COM_ERROR;
   \   00000034   A100A0E3           MOV      R0,#+161
   \   00000038   C00E80E3           ORR      R0,R0,#0xC00
   \   0000003C   A00084E5           STR      R0,[R4, #+160]
     20              MessageKey      = L_WORD516;    // ComFault
   \   00000040   810FA0E3           MOV      R0,#+516
   \   00000044   B80084E5           STR      R0,[R4, #+184]
     21              TPCMessageKey   = L_WORD517;    // IOErr
   \   00000048   010080E3           ORR      R0,R0,#0x1
   \   0000004C   B40084E5           STR      R0,[R4, #+180]
     22              IsHWAlarm       = true;
   \   00000050   0100A0E3           MOV      R0,#+1
   \   00000054   CE00C4E5           STRB     R0,[R4, #+206]
     23          }
   \   00000058   0400A0E1           MOV      R0,R4
   \   0000005C   ........           B        ?Subroutine10
   \                     ??AlarmModbusComFailure_1:
   \   00000060   ........           DC32     ??__vtbl
   \   00000064   ........           DC32     ??NumberOfAlarmSettings

   \                                 In segment CODE, align 4, keep-with-next
   \                     ?Subroutine10:
   \   00000000   1040BDE8           POP      {R4,LR}
   \   00000004   1EFF2FE1           BX       LR               ;; return
     24          

   \                                 In segment CODE, align 4, keep-with-next
     25          void AlarmModbusComFailure::Check(void)
     26          {
   \                     ??Check:
   \   00000000   10402DE9           PUSH     {R4,LR}
   \   00000004   0040A0E1           MOV      R4,R0
     27              int FailCnt = ((ModbusUnit*)PROPointer)->GetFailCount();
     28              int Status = AL_STAT_IN_DEADBAND;
     29              if ( FailCnt < Limit ) {
   \   00000008   C40094E5           LDR      R0,[R4, #+196]
   \   0000000C   ........           _BLF     ??GetFailCount,??GetFailCount??rA
   \   00000010   ........           _BLF     __longToFloat,??__longToFloat??rA
   \   00000014   E41094E5           LDR      R1,[R4, #+228]
   \   00000018   ........           _BLF     __fLess,??__fLess??rA
   \   0000001C   000050E3           CMP      R0,#+0
     30                  Status = AL_STAT_IN_NORMAL;
   \   00000020   0010A013           MOVNE    R1,#+0
     31              } else /*if ( FailCnt >= Limit ) */{
     32                  Status = AL_STAT_IN_ALARM;
   \   00000024   0110A003           MOVEQ    R1,#+1
     33              }
     34              UpdateAlarm(Status);
   \   00000028   0400A0E1           MOV      R0,R4
   \   0000002C   ........           _BLF     ??UpdateAlarm,??UpdateAlarm??rA
     35          }
   \   00000030                      REQUIRE ?Subroutine10
   \   00000030                      ;; // Fall through to label ?Subroutine10
     36          
     37          ///////////////////////////////////////////////////////////////
     38          //
     39          // Routines for the librarian for input
     40          //
     41          ///////////////////////////////////////////////////////////////
     42          

   \                                 In segment CODE, align 4, keep-with-next
     43          int AlarmModbusComFailure::PutValue( int ValueId, int Index, AnsiString NewValue,bool Local, int *UnitId)
     44          {
   \                     ??PutValue:
   \   00000000   F0432DE9           PUSH     {R4-R9,LR}
   \   00000004   20D04DE2           SUB      SP,SP,#+32
   \   00000008   3C80DDE5           LDRB     R8,[SP, #+60]
   \   0000000C   40909DE5           LDR      R9,[SP, #+64]
   \   00000010   0040A0E1           MOV      R4,R0
   \   00000014   0150A0E1           MOV      R5,R1
   \   00000018   0260A0E1           MOV      R6,R2
   \   0000001C   0370A0E1           MOV      R7,R3
     45              int Status = E_NO_ERR, ValUnitId = NO_UNIT;
   \   00000020   0010A0E3           MOV      R1,#+0
   \   00000024   00108DE5           STR      R1,[SP, #+0]
     46              switch ( ValueId ) {
   \   00000028   3210A0E3           MOV      R1,#+50
   \   0000002C   8C1D81E3           ORR      R1,R1,#0x2300
   \   00000030   010055E1           CMP      R5,R1
     47                  case SVT_AL_LIMIT:
     48                      Status = E_NOT_ADJUSTABLE;
   \   00000034   2950A003           MOVEQ    R5,#+41
   \   00000038   1E00000A           BEQ      ??PutValue_2
     49                      break;
     50                  default:
     51                      Status = AlarmBasic::PutValue(ValueId, Index,NewValue,Local,&ValUnitId);
   \   0000003C   0020A0E3           MOV      R2,#+0
   \   00000040   0010A0E3           MOV      R1,#+0
   \   00000044   04008DE2           ADD      R0,SP,#+4
   \   00000048   ........           _BLF     ??_Tidy,??_Tidy??rA
   \   0000004C   80009FE5           LDR      R0,??PutValue_3  ;; ??npos
   \   00000050   0020A0E3           MOV      R2,#+0
   \   00000054   003090E5           LDR      R3,[R0, #+0]
   \   00000058   0710A0E1           MOV      R1,R7
   \   0000005C   04008DE2           ADD      R0,SP,#+4
   \   00000060   ........           _BLF     ??assign,??assign??rA
   \   00000064   0D00A0E1           MOV      R0,SP
   \   00000068   01002DE9           PUSH     {R0}
   \   0000006C   00012DE9           PUSH     {R8}
   \   00000070   0C308DE2           ADD      R3,SP,#+12
   \   00000074   0620A0E1           MOV      R2,R6
   \   00000078   0510A0E1           MOV      R1,R5
   \   0000007C   0400A0E1           MOV      R0,R4
   \   00000080   ........           _BLF     ??PutValue_1,??PutValue??rA
   \   00000084   0050A0E1           MOV      R5,R0
   \   00000088   0020A0E3           MOV      R2,#+0
   \   0000008C   0110A0E3           MOV      R1,#+1
   \   00000090   0C008DE2           ADD      R0,SP,#+12
   \   00000094   ........           _BLF     ??_Tidy,??_Tidy??rA
     52                      break;
     53              }
     54              if ( Status==E_NO_ERR){
   \   00000098   000055E3           CMP      R5,#+0
   \   0000009C   08D08DE2           ADD      SP,SP,#+8
   \   000000A0   0400001A           BNE      ??PutValue_2
     55                      SetModifiedFlag();
   \   000000A4   A41094E5           LDR      R1,[R4, #+164]
   \   000000A8   0400A0E1           MOV      R0,R4
   \   000000AC   541091E5           LDR      R1,[R1, #+84]
   \   000000B0   0FE0A0E1           MOV      LR,PC
   \   000000B4   11FF2FE1           BX       R1
     56              }
     57              if (UnitId) {
   \                     ??PutValue_2:
   \   000000B8   000059E3           CMP      R9,#+0
     58                  *UnitId = ValUnitId;
   \   000000BC   00009D15           LDRNE    R0,[SP, #+0]
   \   000000C0   00008915           STRNE    R0,[R9, #+0]
     59              }
     60              return(Status);
   \   000000C4   0500A0E1           MOV      R0,R5
   \   000000C8   20D08DE2           ADD      SP,SP,#+32
   \   000000CC   F043BDE8           POP      {R4-R9,LR}
   \   000000D0   1EFF2FE1           BX       LR               ;; return
   \                     ??PutValue_3:
   \   000000D4   ........           DC32     ??npos
     61          }
     62          

   \                                 In segment CODE, align 4, keep-with-next
     63          int  AlarmModbusComFailure::GetValue(int ValueId, int Index, float &MyRetValue, int &DecPnt, int &Unit)
     64          {
   \                     ??GetValue:
   \   00000000   F0412DE9           PUSH     {R4-R8,LR}
   \   00000004   18509DE5           LDR      R5,[SP, #+24]
   \   00000008   1C609DE5           LDR      R6,[SP, #+28]
   \   0000000C   0340A0E1           MOV      R4,R3
     65              int Status = GETVAL_NO_ERR;
   \   00000010   0070A0E3           MOV      R7,#+0
     66              switch ( ValueId ) {
   \   00000014   0080A0E3           MOV      R8,#+0
   \   00000018   323041E2           SUB      R3,R1,#+50
   \   0000001C   8C3D43E2           SUB      R3,R3,#+8960
   \   00000020   010053E3           CMP      R3,#+1
   \   00000024   0C00008A           BHI      ??GetValue_3
   \   00000028   01CF8FE2           ADR      R12,??GetValue_1
   \   0000002C   03C0DCE7           LDRB     R12,[R12, R3]
   \   00000030   0CF18FE0           ADD      PC,PC,R12, LSL #+2
   \                     ??GetValue_1:
   \   00000034   00050000           DC8      +0,+5,+0,+0
     67                  case SVT_AL_LIMIT:
     68                      MyRetValue = (float)Limit;
   \                     ??GetValue_4:
   \   00000038   E40090E5           LDR      R0,[R0, #+228]
   \                     ??GetValue_5:
   \   0000003C   000084E5           STR      R0,[R4, #+0]
     69                      DecPnt     = 0;
   \   00000040   008085E5           STR      R8,[R5, #+0]
     70                      Unit       = NO_UNIT;
   \   00000044   008086E5           STR      R8,[R6, #+0]
   \   00000048   090000EA           B        ??GetValue_6
     71                      break;
     72                  case SVT_AL_VALUE:
     73          			MyRetValue = (float)((ModbusUnit *)PROPointer)->GetFailCount();
   \                     ??GetValue_7:
   \   0000004C   C40090E5           LDR      R0,[R0, #+196]
   \   00000050   ........           _BLF     ??GetFailCount,??GetFailCount??rA
   \   00000054   ........           _BLF     __longToFloat,??__longToFloat??rA
   \   00000058   F7FFFFEA           B        ??GetValue_5
     74                      DecPnt     = 0;
     75                      Unit       = NO_UNIT;
     76                      break;
     77                  default:
     78                      Status = AlarmBasic::GetValue(ValueId, Index, MyRetValue, DecPnt, Unit);
   \                     ??GetValue_3:
   \   0000005C   40002DE9           PUSH     {R6}
   \   00000060   20002DE9           PUSH     {R5}
   \   00000064   0430A0E1           MOV      R3,R4
   \   00000068   ........           _BLF     ??GetValue_2,??GetValue??rA
   \   0000006C   0070A0E1           MOV      R7,R0
   \   00000070   08D08DE2           ADD      SP,SP,#+8
     79                      break;
     80              }
     81              return(Status);
   \                     ??GetValue_6:
   \   00000074   0700A0E1           MOV      R0,R7
   \   00000078   F041BDE8           POP      {R4-R8,LR}
   \   0000007C   1EFF2FE1           BX       LR               ;; return
     82          }
     83          
     84          

   \                                 In segment CODE, align 4, keep-with-next
     85          int AlarmModbusComFailure::GetStringValue(int ValueId, int Index, AnsiString &MyString)
     86          {
   \                     ??GetStringValue:
   \   00000000   00402DE9           PUSH     {LR}
     87              int Status = GETVAL_NO_ERR;
     88              //switch ( ValueId ) {
     89              //  default:
     90              Status = AlarmBasic::GetStringValue(ValueId,Index, MyString);
     91              //      break;
     92              //}
     93              return(Status);
   \   00000004   ........           _BLF     ??GetStringValue_1,??GetStringValue??rA
   \   00000008   ........           B        ?Subroutine11
     94          }

   \                                 In segment CODE, align 4, keep-with-next
   \                     ?Subroutine11:
   \   00000000   0040BDE8           POP      {LR}
   \   00000004   1EFF2FE1           BX       LR               ;; return
     95          

   \                                 In segment CODE, align 4, keep-with-next
     96          int AlarmModbusComFailure::PutFloatValue( int ValueId, float NewValue)
     97          {
   \                     ??PutFloatValue:
   \   00000000   00402DE9           PUSH     {LR}
     98              int Status= E_NO_ERR;
     99              //switch ( ValueId ) {
    100              //   default:
    101              Status = AlarmBasic::PutFloatValue(ValueId, NewValue);
    102              //     break;
    103              //}
    104              return(Status);
   \   00000004   ........           _BLF     ??PutFloatValue_1,??PutFloatValue??rA
   \   00000008                      REQUIRE ?Subroutine11
   \   00000008                      ;; // Fall through to label ?Subroutine11
    105          }

   \                                 In segment DIFUNCT, align 4, keep-with-next, root
   \   00000000                      REQUIRE ?call_ctors
   \   00000000   ........           DC32    ??__sti__routine

   \                                 In segment CODE, align 4, keep-with-next
   \   __??Code32?? __code __interwork __atpcs AlarmModbusComFailure &AlarmModbusComFailure::new AlarmModbusComFailure(PRogramObjectBase *, float)
   \                     `??new AlarmModbusComFailure`:
   \   00000000   30402DE9           PUSH     {R4,R5,LR}
   \   00000004   0040A0E1           MOV      R4,R0
   \   00000008   0150A0E1           MOV      R5,R1
   \   0000000C   EC00A0E3           MOV      R0,#+236
   \   00000010   ........           _BLF     `??operator new`,`??operator new??rA`
   \   00000014   000050E3           CMP      R0,#+0
   \   00000018   0200000A           BEQ      `??new AlarmModbusComFailure_1`
   \   0000001C   0520A0E1           MOV      R2,R5
   \   00000020   0410A0E1           MOV      R1,R4
   \   00000024   ........           BL       ??AlarmModbusComFailure
   \                     `??new AlarmModbusComFailure_1`:
   \   00000028   ........           B        ?Subroutine9

   \                                 In segment CODE, align 4, keep-with-next
   \   static __??Code32?? __intrinsic __code __interwork __atpcs void __sti__routine()
   \                     ??__sti__routine:
   \   00000000   1EFF2FE1           BX       LR               ;; return
    106          
    107          

   Maximum stack usage in bytes:

     Function                       CSTACK
     --------                       ------
     AlarmModbusComFailure::AlarmModbusComFailure(PRogramObjectBase *, float)
                                        8
     AlarmModbusComFailure::Check()     8
     AlarmModbusComFailure::GetStringValue(int, int, AnsiString &)
                                        4
     AlarmModbusComFailure::GetValue(int, int, float &, int &, int &)
                                       32
     AlarmModbusComFailure::PutFloatValue(int, float)
                                        4
     AlarmModbusComFailure::PutValue(int, int, AnsiString, bool, int *)
                                       68
     AlarmModbusComFailure::new AlarmModbusComFailure(PRogramObjectBase *, float)
                                       12
     AlarmModbusComFailure::~AlarmModbusComFailure()
                                       12
     __sti__routine()                   0


   Segment part sizes:

     Function/Label                 Bytes
     --------------                 -----
     AlarmModbusComFailure::~AlarmModbusComFailure()
                                      48
     ?Subroutine9                      8
     AlarmModbusComFailure::NumberOfAlarmSettings
                                       4
     AlarmModbusComFailure::AlarmModbusComFailure(PRogramObjectBase *, float)
                                     104
     ?Subroutine10                     8
     AlarmModbusComFailure::Check()   48
     AlarmModbusComFailure::PutValue(int, int, AnsiString, bool, int *)
                                     216
     AlarmModbusComFailure::GetValue(int, int, float &, int &, int &)
                                     128
     AlarmModbusComFailure::GetStringValue(int, int, AnsiString &)
                                      12
     ?Subroutine11                     8
     AlarmModbusComFailure::PutFloatValue(int, float)
                                       8
     AlarmModbusComFailure::new AlarmModbusComFailure(PRogramObjectBase *, float)
                                      44
     __sti__routine()                  4
      Others                         336

 
 840 bytes in segment CODE
 116 bytes in segment DATA_C
   4 bytes in segment DATA_Z
   4 bytes in segment DIFUNCT
  12 bytes in segment INITTAB
 
 640 bytes of CODE  memory (+ 216 bytes shared)
 116 bytes of CONST memory
   4 bytes of DATA  memory

Errors: none
Warnings: none
