##############################################################################
#                                                                            #
# IAR ARM ANSI C/C++ Compiler V4.42A/W32               14/Sep/2022  15:12:51 #
# Copyright 1999-2005 IAR Systems. All rights reserved.                      #
#                                                                            #
#    Cpu mode        =  interwork                                            #
#    Endian          =  little                                               #
#    Stack alignment =  4                                                    #
#    Source file     =  D:\S2Prog\Shared\Src\AlarmLowTemp.Cpp                #
#    Command line    =  D:\S2Prog\Shared\Src\AlarmLowTemp.Cpp --fpu None -D  #
#                       OS_LIBMODE_SP -D CPU_S3C2410 -D OS_RAMVECT=0 -D      #
#                       OS_UART=-1 -D S2TXU -D USE_LZO=1 -D __ARM_LIBRARY__  #
#                       -D WATCHDOG=1 -D NETWORK=1 -lCN                      #
#                       D:\S2Prog\TXU\Debug\List\ -o                         #
#                       D:\S2Prog\TXU\Debug\Obj\ -z9 --debug --cpu_mode arm  #
#                       --endian little --cpu ARM920T --stack_align 4        #
#                       --interwork -e --enable_multibytes --eec++           #
#                       --dlib_config "C:\Program Files (x86)\IAR            #
#                       Systems\Embedded Workbench                           #
#                       4.0\arm\LIB\dl4tpainl8n.h" -I                        #
#                       D:\S2Prog\TXU\GUI\CORE\ -I D:\S2Prog\TXU\GUI\WM\ -I  #
#                       D:\S2Prog\TXU\GUI\WIDGET\ -I D:\S2Prog\TXU\CONFIG\   #
#                       -I D:\S2Prog\TXU\INC\ -I D:\S2Prog\TXU\..\SHARED\INC #
#                       \ -I D:\S2Prog\TXU\..\SHARED\SRC\ -I                 #
#                       D:\S2Prog\TXU\..\SHARED\LZO\minilzo.210\ -I          #
#                       D:\S2Prog\TXU\lwip-1.4.1\src\include\ -I             #
#                       D:\S2Prog\TXU\lwip-1.4.1\src\include\ipv4\ -I        #
#                       D:\S2Prog\TXU\lwip-1.4.1\src\ -I                     #
#                       D:\S2Prog\TXU\..\SHARED\Database\ -I                 #
#                       D:\S2Prog\TXU\src\ -I "C:\Program Files (x86)\IAR    #
#                       Systems\Embedded Workbench 4.0\arm\INC\"             #
#                       --inline_threshold=2                                 #
#    List file       =  D:\S2Prog\TXU\Debug\List\AlarmLowTemp.lst            #
#    Object file     =  D:\S2Prog\TXU\Debug\Obj\AlarmLowTemp.r79             #
#                                                                            #
#                                                                            #
##############################################################################

D:\S2Prog\Shared\Src\AlarmLowTemp.Cpp
      1          #include "TSNIncludes.h"

   \                                 In segment CODE, align 4, keep-with-next
   \   __??Code32?? __code __interwork __atpcs AlarmLowTemp::~AlarmLowTemp()
   \                     `?~AlarmLowTemp`:
   \   00000000   30402DE9           PUSH     {R4,R5,LR}
   \   00000004   0040A0E1           MOV      R4,R0
   \   00000008   0150A0E1           MOV      R5,R1
   \   0000000C   000054E3           CMP      R4,#+0
   \   00000010   0600000A           BEQ      `?~AlarmLowTemp_1`
   \   00000014   0100000A           BEQ      `?~AlarmLowTemp_2`
   \   00000018   0010A0E3           MOV      R1,#+0
   \   0000001C   ........           _BLF     `?~PRogramObjectBase`,`?~PRogramObjectBase??rA`
   \                     `?~AlarmLowTemp_2`:
   \   00000020   010015E3           TST      R5,#0x1
   \   00000024   0100000A           BEQ      `?~AlarmLowTemp_1`
   \   00000028   0400A0E1           MOV      R0,R4
   \   0000002C   ........           _BLF     `??operator delete`,`??operator delete??rA`
   \                     `?~AlarmLowTemp_1`:
   \   00000030   3040BDE8           POP      {R4,R5,LR}
   \   00000034   1EFF2FE1           BX       LR               ;; return
      2          #pragma hdrstop
      3          #ifdef BORLAND
      4          	#pragma package(smart_init)
      5          #endif
      6          
      7          //---------------------------------------------------------------------------
      8          

   \                                 In segment DATA_Z, align 4, align-sorted
      9          unsigned AlarmLowTemp::NumberOfAlarmSettings=0;
   \                     ??NumberOfAlarmSettings:
   \   00000000                      DS8 4
     10          

   \                                 In segment CODE, align 4, keep-with-next
     11          AlarmLowTemp::AlarmLowTemp(PRogramObjectBase *PROPtr):AlarmBasic(PROPtr)
   \                     ??AlarmLowTemp:
   \   00000000   30402DE9           PUSH     {R4,R5,LR}
   \   00000004   0040A0E1           MOV      R4,R0
   \   00000008   0150A0E1           MOV      R5,R1
     12          {
   \   0000000C   ........           _BLF     ??AlarmBasic,??AlarmBasic??rA
   \   00000010   78009FE5           LDR      R0,??AlarmLowTemp_1  ;; ??__vtbl
   \   00000014   A40084E5           STR      R0,[R4, #+164]
     13          	NumberOfAlarmSettings++;
   \   00000018   74009FE5           LDR      R0,??AlarmLowTemp_1+0x4  ;; ??NumberOfAlarmSettings
   \   0000001C   001090E5           LDR      R1,[R0, #+0]
   \   00000020   011081E2           ADD      R1,R1,#+1
   \   00000024   001080E5           STR      R1,[R0, #+0]
     14          	PROPointer          = PROPtr;
   \   00000028   C45084E5           STR      R5,[R4, #+196]
     15          	PROTmpPtr           = (PROTemperature*)PROPtr;
   \   0000002C   EC5084E5           STR      R5,[R4, #+236]
     16          	IDNumber            =  (ID_AL_LOW_TEMP << 16)+NumberOfAlarmSettings;
   \   00000030   000090E5           LDR      R0,[R0, #+0]
   \   00000034   B016A0E3           MOV      R1,#+184549376
   \   00000038   C71881E3           ORR      R1,R1,#0xC70000
   \   0000003C   000081E0           ADD      R0,R1,R0
   \   00000040   9C0084E5           STR      R0,[R4, #+156]
     17          	Type                = ID_AL_LOW_TEMP;
   \   00000044   2108A0E1           MOV      R0,R1, LSR #+16
   \   00000048   A00084E5           STR      R0,[R4, #+160]
     18          	Locked              = PROProjectInfo::LowTempLocked;
   \   0000004C   44009FE5           LDR      R0,??AlarmLowTemp_1+0x8  ;; ??LowTempLocked
   \   00000050   0000D0E5           LDRB     R0,[R0, #+0]
   \   00000054   E800C4E5           STRB     R0,[R4, #+232]
     19          	Limit               = PROProjectInfo::LowTempLimit;
   \   00000058   3C009FE5           LDR      R0,??AlarmLowTemp_1+0xC  ;; ??LowTempLimit
   \   0000005C   000090E5           LDR      R0,[R0, #+0]
   \   00000060   E40084E5           STR      R0,[R4, #+228]
     20          	Deadband            = 0.1;
   \   00000064   34009FE5           LDR      R0,??AlarmLowTemp_1+0x10  ;; 0x3dcccccd
   \   00000068   BC0084E5           STR      R0,[R4, #+188]
     21          	MessageKey          = L_WORD524;	// LowTemp
   \   0000006C   830FA0E3           MOV      R0,#+524
   \   00000070   B80084E5           STR      R0,[R4, #+184]
     22          	TPCMessageKey       = L_WORD525;	//	LTmp
   \   00000074   010080E3           ORR      R0,R0,#0x1
   \   00000078   B40084E5           STR      R0,[R4, #+180]
     23          	PreviousEnable      = Enable;
   \   0000007C   E200D4E5           LDRB     R0,[R4, #+226]
   \   00000080   CC00C4E5           STRB     R0,[R4, #+204]
     24          }
   \   00000084   0400A0E1           MOV      R0,R4
   \   00000088   3040BDE8           POP      {R4,R5,LR}
   \   0000008C   1EFF2FE1           BX       LR               ;; return
   \                     ??AlarmLowTemp_1:
   \   00000090   ........           DC32     ??__vtbl
   \   00000094   ........           DC32     ??NumberOfAlarmSettings
   \   00000098   ........           DC32     ??LowTempLocked
   \   0000009C   ........           DC32     ??LowTempLimit
   \   000000A0   CDCCCC3D           DC32     0x3dcccccd
     25          

   \                                 In segment CODE, align 4, keep-with-next
     26          void AlarmLowTemp::Check(void)
     27          {
   \                     ??Check:
   \   00000000   F0402DE9           PUSH     {R4-R7,LR}
   \   00000004   0040A0E1           MOV      R4,R0
     28          	float Val = PROTmpPtr->Temperature;
   \   00000008   EC0094E5           LDR      R0,[R4, #+236]
     29          	bool  HasTemp = PROTmpPtr->HasTemp;
     30          	int Status = AL_STAT_IN_DEADBAND;
   \   0000000C   0260A0E3           MOV      R6,#+2
   \   00000010   685190E5           LDR      R5,[R0, #+360]
     31          	if ( HasTemp ) {
   \   00000014   6001D0E5           LDRB     R0,[R0, #+352]
   \   00000018   000050E3           CMP      R0,#+0
   \   0000001C   0700000A           BEQ      ??Check_1
     32          		if ( Val > Limit + Deadband ) {
   \   00000020   E47094E5           LDR      R7,[R4, #+228]
   \   00000024   BC0094E5           LDR      R0,[R4, #+188]
   \   00000028   0710A0E1           MOV      R1,R7
   \   0000002C   ........           _BLF     __fAdd,??__fAdd??rA
   \   00000030   0510A0E1           MOV      R1,R5
   \   00000034   ........           _BLF     __fLess,??__fLess??rA
   \   00000038   000050E3           CMP      R0,#+0
   \   0000003C   0100000A           BEQ      ??Check_2
     33          			Status = AL_STAT_IN_NORMAL;
   \                     ??Check_1:
   \   00000040   0060A0E3           MOV      R6,#+0
   \   00000044   040000EA           B        ??Check_3
     34          		} else if ( Val <= Limit ) {
   \                     ??Check_2:
   \   00000048   0700A0E1           MOV      R0,R7
   \   0000004C   0510A0E1           MOV      R1,R5
   \   00000050   ........           _BLF     __fGreaterEqual,??__fGreaterEqual??rA
   \   00000054   000050E3           CMP      R0,#+0
     35          			Status = AL_STAT_IN_ALARM;
   \   00000058   0160A013           MOVNE    R6,#+1
     36          		}
     37          	} else {
     38          		Status = AL_STAT_IN_NORMAL;
     39          	}
     40          	UpdateAlarm(Status);
   \                     ??Check_3:
   \   0000005C   0610A0E1           MOV      R1,R6
   \   00000060   0400A0E1           MOV      R0,R4
   \   00000064   ........           _BLF     ??UpdateAlarm,??UpdateAlarm??rA
     41          }
   \   00000068   F040BDE8           POP      {R4-R7,LR}
   \   0000006C   1EFF2FE1           BX       LR               ;; return
     42          
     43          ///////////////////////////////////////////////////////////////
     44          //
     45          // Routines for the librarian for input
     46          //
     47          ///////////////////////////////////////////////////////////////
     48          

   \                                 In segment CODE, align 4, keep-with-next
     49          int AlarmLowTemp::PutValue( int ValueId, int Index, AnsiString NewValue,bool Local, int *UnitId)
     50          {
   \                     ??PutValue:
   \   00000000   F44F2DE9           PUSH     {R2,R4-R11,LR}
   \   00000004   5CD04DE2           SUB      SP,SP,#+92
   \   00000008   0050A0E1           MOV      R5,R0
   \   0000000C   8490DDE5           LDRB     R9,[SP, #+132]
   \   00000010   88409DE5           LDR      R4,[SP, #+136]
   \   00000014   0170A0E1           MOV      R7,R1
     51          	int Status = E_NO_ERR, ValUnitId = NO_UNIT;
   \   00000018   0010A0E3           MOV      R1,#+0
   \   0000001C   00108DE5           STR      R1,[SP, #+0]
   \   00000020   04108DE5           STR      R1,[SP, #+4]
     52          	if ( Locked ) {
   \   00000024   E800D5E5           LDRB     R0,[R5, #+232]
   \   00000028   0380A0E1           MOV      R8,R3
   \   0000002C   000050E3           CMP      R0,#+0
     53          		Status = E_NO_INPUT_PERMISSION;
   \   00000030   2A10A013           MOVNE    R1,#+42
   \   00000034   00108D15           STRNE    R1,[SP, #+0]
   \   00000038   7400001A           BNE      ??PutValue_3
     54          	} else {
     55                  float OrgLimit = Limit;
   \   0000003C   E46095E5           LDR      R6,[R5, #+228]
     56          		int Key = FindConfigKey(NewValue);
   \   00000040   0020A0E3           MOV      R2,#+0
   \   00000044   40008DE2           ADD      R0,SP,#+64
   \   00000048   ........           _BLF     ??_Tidy,??_Tidy??rA
   \   0000004C   D8019FE5           LDR      R0,??PutValue_4  ;; ??npos
   \   00000050   0020A0E3           MOV      R2,#+0
   \   00000054   00A090E5           LDR      R10,[R0, #+0]
   \   00000058   0810A0E1           MOV      R1,R8
   \   0000005C   0A30A0E1           MOV      R3,R10
   \   00000060   40008DE2           ADD      R0,SP,#+64
   \   00000064   ........           _BLF     ??assign,??assign??rA
   \   00000068   40008DE2           ADD      R0,SP,#+64
   \   0000006C   ........           _BLF     ??FindConfigKey,??FindConfigKey??rA
   \   00000070   00B0A0E1           MOV      R11,R0
   \   00000074   0020A0E3           MOV      R2,#+0
   \   00000078   0110A0E3           MOV      R1,#+1
   \   0000007C   40008DE2           ADD      R0,SP,#+64
   \   00000080   ........           _BLF     ??_Tidy,??_Tidy??rA
     57          		switch ( Key ) {
   \   00000084   64B04BE2           SUB      R11,R11,#+100
   \   00000088   05005BE3           CMP      R11,#+5
   \   0000008C   0A00008A           BHI      ??PutValue_5
   \   00000090   010F8FE2           ADR      R0,??PutValue_1
   \   00000094   0B00D0E7           LDRB     R0,[R0, R11]
   \   00000098   00F18FE0           ADD      PC,PC,R0, LSL #+2
   \                     ??PutValue_1:
   \   0000009C   01050105           DC8      +1,+5,+1,+5
   \   000000A0   01050000           DC8      +1,+5,+0,+0
     58          		case C_ON:
     59          		case C_OPEN:
     60          		case C_ENABLE:
     61                      SetEnable(EnableTrue);
   \                     ??PutValue_6:
   \   000000A4   0110A0E3           MOV      R1,#+1
   \                     ??PutValue_7:
   \   000000A8   0500A0E1           MOV      R0,R5
   \   000000AC   ........           _BLF     ??SetEnable,??SetEnable??rA
   \   000000B0   3F0000EA           B        ??PutValue_8
     62          			break;
     63          		case C_OFF:
     64          		case C_CLOSE:
     65          		case C_DISABLE:
     66                      SetEnable(EnableFalse);
   \                     ??PutValue_9:
   \   000000B4   0010A0E3           MOV      R1,#+0
   \   000000B8   FAFFFFEA           B        ??PutValue_7
     67          			break;
     68          		default:
     69          			switch ( ValueId ) {
   \                     ??PutValue_5:
   \   000000BC   3210A0E3           MOV      R1,#+50
   \   000000C0   8C1D81E3           ORR      R1,R1,#0x2300
   \   000000C4   010057E1           CMP      R7,R1
   \   000000C8   2200001A           BNE      ??PutValue_10
     70          			case SVT_AL_LIMIT:
     71          				{
     72          					float Value = ConvertToSi(NewValue, ValUnitId=TEMP_UNIT, Status,MIN_TEMP ,MAX_TEMP,0.0);
   \   000000CC   0510A0E3           MOV      R1,#+5
   \   000000D0   04108DE5           STR      R1,[SP, #+4]
   \   000000D4   0020A0E3           MOV      R2,#+0
   \   000000D8   0010A0E3           MOV      R1,#+0
   \   000000DC   24008DE2           ADD      R0,SP,#+36
   \   000000E0   ........           _BLF     ??_Tidy,??_Tidy??rA
   \   000000E4   0A30A0E1           MOV      R3,R10
   \   000000E8   0020A0E3           MOV      R2,#+0
   \   000000EC   0810A0E1           MOV      R1,R8
   \   000000F0   24008DE2           ADD      R0,SP,#+36
   \   000000F4   ........           _BLF     ??assign,??assign??rA
   \   000000F8   0000A0E3           MOV      R0,#+0
   \   000000FC   0010A0E1           MOV      R1,R0
   \   00000100   03002DE9           PUSH     {R0,R1}
   \   00000104   4014A0E3           MOV      R1,#+1073741824
   \   00000108   691881E3           ORR      R1,R1,#0x690000
   \   0000010C   03002DE9           PUSH     {R0,R1}
   \   00000110   18119FE5           LDR      R1,??PutValue_4+0x4  ;; 0xffffffffc0668000
   \   00000114   03002DE9           PUSH     {R0,R1}
   \   00000118   18208DE2           ADD      R2,SP,#+24
   \   0000011C   3C008DE2           ADD      R0,SP,#+60
   \   00000120   0800BDE8           POP      {R3}
   \   00000124   0510A0E3           MOV      R1,#+5
   \   00000128   ........           _BLF     ??ConvertToSi,??ConvertToSi??rA
   \   0000012C   0070A0E1           MOV      R7,R0
   \   00000130   0020A0E3           MOV      R2,#+0
   \   00000134   0110A0E3           MOV      R1,#+1
   \   00000138   38008DE2           ADD      R0,SP,#+56
   \   0000013C   ........           _BLF     ??_Tidy,??_Tidy??rA
     73          					if ( Status== E_NO_ERR ) {
   \   00000140   14009DE5           LDR      R0,[SP, #+20]
   \   00000144   14D08DE2           ADD      SP,SP,#+20
   \   00000148   000050E3           CMP      R0,#+0
   \   0000014C   1800001A           BNE      ??PutValue_8
     74          						Limit = Value;
   \   00000150   E47085E5           STR      R7,[R5, #+228]
   \   00000154   190000EA           B        ??PutValue_11
     75          					}
     76          				}
     77          				break;
     78          			default:
     79          				Status = AlarmBasic::PutValue(ValueId, Index,NewValue,Local,&ValUnitId);
   \                     ??PutValue_10:
   \   00000158   0020A0E3           MOV      R2,#+0
   \   0000015C   0010A0E3           MOV      R1,#+0
   \   00000160   08008DE2           ADD      R0,SP,#+8
   \   00000164   ........           _BLF     ??_Tidy,??_Tidy??rA
   \   00000168   0A30A0E1           MOV      R3,R10
   \   0000016C   0020A0E3           MOV      R2,#+0
   \   00000170   0810A0E1           MOV      R1,R8
   \   00000174   08008DE2           ADD      R0,SP,#+8
   \   00000178   ........           _BLF     ??assign,??assign??rA
   \   0000017C   04008DE2           ADD      R0,SP,#+4
   \   00000180   01002DE9           PUSH     {R0}
   \   00000184   00022DE9           PUSH     {R9}
   \   00000188   64209DE5           LDR      R2,[SP, #+100]
   \   0000018C   10308DE2           ADD      R3,SP,#+16
   \   00000190   0710A0E1           MOV      R1,R7
   \   00000194   0500A0E1           MOV      R0,R5
   \   00000198   ........           _BLF     ??PutValue_2,??PutValue??rA
   \   0000019C   08008DE5           STR      R0,[SP, #+8]
   \   000001A0   0020A0E3           MOV      R2,#+0
   \   000001A4   0110A0E3           MOV      R1,#+1
   \   000001A8   10008DE2           ADD      R0,SP,#+16
   \   000001AC   ........           _BLF     ??_Tidy,??_Tidy??rA
   \   000001B0   08D08DE2           ADD      SP,SP,#+8
     80          				break;
     81          			}
     82          			break; // switch ( ValueId )
     83          		}//switch ( Key )
     84          		if ( Status==E_NO_ERR ) {
   \                     ??PutValue_8:
   \   000001B4   00009DE5           LDR      R0,[SP, #+0]
   \   000001B8   000050E3           CMP      R0,#+0
   \   000001BC   1300001A           BNE      ??PutValue_3
     85          			SetModifiedFlag();
   \                     ??PutValue_11:
   \   000001C0   A41095E5           LDR      R1,[R5, #+164]
   \   000001C4   0500A0E1           MOV      R0,R5
   \   000001C8   541091E5           LDR      R1,[R1, #+84]
   \   000001CC   0FE0A0E1           MOV      LR,PC
   \   000001D0   11FF2FE1           BX       R1
     86          			if ( Limit != OrgLimit ) {
   \   000001D4   E40095E5           LDR      R0,[R5, #+228]
   \   000001D8   0610A0E1           MOV      R1,R6
   \   000001DC   ........           _BLF     __fNotEqual,??__fNotEqual??rA
   \   000001E0   000050E3           CMP      R0,#+0
   \   000001E4   0900000A           BEQ      ??PutValue_3
     87          				LogEvent("New limit");
   \   000001E8   44109FE5           LDR      R1,??PutValue_4+0x8  ;; `?<Constant "New limit">`
   \   000001EC   08008DE2           ADD      R0,SP,#+8
   \   000001F0   ........           _BLF     ??AnsiString,??AnsiString??rA
   \   000001F4   0010A0E1           MOV      R1,R0
   \   000001F8   0500A0E1           MOV      R0,R5
   \   000001FC   ........           _BLF     ??LogEvent,??LogEvent??rA
   \   00000200   0020A0E3           MOV      R2,#+0
   \   00000204   0110A0E3           MOV      R1,#+1
   \   00000208   08008DE2           ADD      R0,SP,#+8
   \   0000020C   ........           _BLF     ??_Tidy,??_Tidy??rA
     88          			}
     89          		}
     90          	}// if ( Locked ) else
     91          	if ( UnitId ) {
   \                     ??PutValue_3:
   \   00000210   000054E3           CMP      R4,#+0
     92          		*UnitId = ValUnitId;
   \   00000214   04009D15           LDRNE    R0,[SP, #+4]
   \   00000218   00008415           STRNE    R0,[R4, #+0]
     93          	}
     94          	return(Status);
   \   0000021C   00009DE5           LDR      R0,[SP, #+0]
   \   00000220   60D08DE2           ADD      SP,SP,#+96
   \   00000224   F04FBDE8           POP      {R4-R11,LR}
   \   00000228   1EFF2FE1           BX       LR               ;; return
   \                     ??PutValue_4:
   \   0000022C   ........           DC32     ??npos
   \   00000230   008066C0           DC32     0xffffffffc0668000
   \   00000234   ........           DC32     `?<Constant "New limit">`
     95          }
     96          

   \                                 In segment CODE, align 4, keep-with-next
     97          int  AlarmLowTemp::GetValue(int ValueId, int Index, float &MyRetValue, int &DecPnt, int &Unit)
     98          {
   \                     ??GetValue:
   \   00000000   F0432DE9           PUSH     {R4-R9,LR}
   \   00000004   1C409DE5           LDR      R4,[SP, #+28]
   \   00000008   20509DE5           LDR      R5,[SP, #+32]
     99          	int Status = GETVAL_NO_ERR;
   \   0000000C   00C0A0E3           MOV      R12,#+0
    100          	switch ( ValueId ) {
   \   00000010   0560A0E3           MOV      R6,#+5
   \   00000014   0170A0E3           MOV      R7,#+1
   \   00000018   328041E2           SUB      R8,R1,#+50
   \   0000001C   8C8D48E2           SUB      R8,R8,#+8960
   \   00000020   010058E3           CMP      R8,#+1
   \   00000024   1200008A           BHI      ??GetValue_3
   \   00000028   019F8FE2           ADR      R9,??GetValue_1
   \   0000002C   0890D9E7           LDRB     R9,[R9, R8]
   \   00000030   09F18FE0           ADD      PC,PC,R9, LSL #+2
   \                     ??GetValue_1:
   \   00000034   00090000           DC8      +0,+9,+0,+0
    101          	case SVT_AL_LIMIT:
    102          		MyRetValue = Limit;
   \                     ??GetValue_4:
   \   00000038   E41090E5           LDR      R1,[R0, #+228]
   \   0000003C   001083E5           STR      R1,[R3, #+0]
    103          		DecPnt     = 1;
   \   00000040   007084E5           STR      R7,[R4, #+0]
    104          		Unit       = TEMP_UNIT;
   \   00000044   006085E5           STR      R6,[R5, #+0]
    105          		if ( !Enable ) {
   \   00000048   E200D0E5           LDRB     R0,[R0, #+226]
   \   0000004C   000050E3           CMP      R0,#+0
   \   00000050   0C00001A           BNE      ??GetValue_5
    106          			Status     = GETVAL_DISABLED;
   \   00000054   09C0A0E3           MOV      R12,#+9
   \   00000058   0A0000EA           B        ??GetValue_5
    107          		}
    108          		break;
    109          	case SVT_AL_VALUE:
    110          		MyRetValue =((PROTemperature*)PROPointer)->Temperature;
   \                     ??GetValue_6:
   \   0000005C   C40090E5           LDR      R0,[R0, #+196]
   \   00000060   680190E5           LDR      R0,[R0, #+360]
   \   00000064   000083E5           STR      R0,[R3, #+0]
    111          		DecPnt     = 1;
   \   00000068   007084E5           STR      R7,[R4, #+0]
    112          		Unit       = TEMP_UNIT;
   \   0000006C   006085E5           STR      R6,[R5, #+0]
   \   00000070   040000EA           B        ??GetValue_5
    113          		break;
    114          	default:
    115          		Status = AlarmBasic::GetValue(ValueId, Index, MyRetValue, DecPnt, Unit);
   \                     ??GetValue_3:
   \   00000074   20002DE9           PUSH     {R5}
   \   00000078   10002DE9           PUSH     {R4}
   \   0000007C   ........           _BLF     ??GetValue_2,??GetValue??rA
   \   00000080   00C0A0E1           MOV      R12,R0
   \   00000084   08D08DE2           ADD      SP,SP,#+8
    116          		break;
    117          	}
    118          	return(Status);
   \                     ??GetValue_5:
   \   00000088   F043BDE8           POP      {R4-R9,LR}
   \   0000008C   0C00A0E1           MOV      R0,R12
   \   00000090   1EFF2FE1           BX       LR               ;; return
    119          }
    120          

   \                                 In segment CODE, align 4, keep-with-next
    121          int AlarmLowTemp::GetStringValue(int ValueId, int Index, AnsiString &MyString)
    122          {
   \                     ??GetStringValue:
   \   00000000   00402DE9           PUSH     {LR}
    123          	int Status = GETVAL_NO_ERR;
    124          	//switch ( ValueId ) {
    125          	//	default:
    126          	Status = AlarmBasic::GetStringValue(ValueId,Index, MyString);
    127          	//		break;
    128          	//}
    129          	return(Status);
   \   00000004   ........           _BLF     ??GetStringValue_1,??GetStringValue??rA
   \   00000008   ........           B        ?Subroutine8
    130          }

   \                                 In segment CODE, align 4, keep-with-next
   \                     ?Subroutine8:
   \   00000000   0040BDE8           POP      {LR}
   \   00000004   1EFF2FE1           BX       LR               ;; return
    131          

   \                                 In segment CODE, align 4, keep-with-next
    132          int AlarmLowTemp::PutFloatValue( int ValueId, float NewValue)
    133          {
   \                     ??PutFloatValue:
   \   00000000   00402DE9           PUSH     {LR}
    134          	int Status= E_NO_ERR;
    135          	//switch ( ValueId ) {
    136          	//   default:
    137          	Status = AlarmBasic::PutFloatValue(ValueId, NewValue);
    138          	//     break;
    139          	//}
    140          	return(Status);
   \   00000004   ........           _BLF     ??PutFloatValue_1,??PutFloatValue??rA
   \   00000008                      REQUIRE ?Subroutine8
   \   00000008                      ;; // Fall through to label ?Subroutine8
    141          }

   \                                 In segment DIFUNCT, align 4, keep-with-next, root
   \   00000000                      REQUIRE ?call_ctors
   \   00000000   ........           DC32    ??__sti__routine

   \                                 In segment DATA_C, align 4, align-sorted
   \                     `?<Constant "New limit">`:
   \   00000000   4E6577206C69       DC8 "New limit"
   \              6D697400    
   \   0000000A   0000               DC8 0, 0

   \                                 In segment CODE, align 4, keep-with-next
   \   __??Code32?? __code __interwork __atpcs AlarmLowTemp &AlarmLowTemp::new AlarmLowTemp(PRogramObjectBase *)
   \                     `??new AlarmLowTemp`:
   \   00000000   10402DE9           PUSH     {R4,LR}
   \   00000004   0040A0E1           MOV      R4,R0
   \   00000008   F000A0E3           MOV      R0,#+240
   \   0000000C   ........           _BLF     `??operator new`,`??operator new??rA`
   \   00000010   000050E3           CMP      R0,#+0
   \   00000014   0100000A           BEQ      `??new AlarmLowTemp_1`
   \   00000018   0410A0E1           MOV      R1,R4
   \   0000001C   ........           BL       ??AlarmLowTemp
   \                     `??new AlarmLowTemp_1`:
   \   00000020   1040BDE8           POP      {R4,LR}
   \   00000024   1EFF2FE1           BX       LR               ;; return

   \                                 In segment CODE, align 4, keep-with-next
   \   static __??Code32?? __intrinsic __code __interwork __atpcs void __sti__routine()
   \                     ??__sti__routine:
   \   00000000   1EFF2FE1           BX       LR               ;; return
    142          

   Maximum stack usage in bytes:

     Function                       CSTACK
     --------                       ------
     AlarmLowTemp::AlarmLowTemp(PRogramObjectBase *)
                                       12
     AlarmLowTemp::Check()             20
     AlarmLowTemp::GetStringValue(int, int, AnsiString &)
                                        4
     AlarmLowTemp::GetValue(int, int, float &, int &, int &)
                                       36
     AlarmLowTemp::PutFloatValue(int, float)
                                        4
     AlarmLowTemp::PutValue(int, int, AnsiString, bool, int *)
                                      156
     AlarmLowTemp::new AlarmLowTemp(PRogramObjectBase *)
                                        8
     AlarmLowTemp::~AlarmLowTemp()     12
     __sti__routine()                   0


   Segment part sizes:

     Function/Label                 Bytes
     --------------                 -----
     AlarmLowTemp::~AlarmLowTemp()    56
     AlarmLowTemp::NumberOfAlarmSettings
                                       4
     AlarmLowTemp::AlarmLowTemp(PRogramObjectBase *)
                                     164
     AlarmLowTemp::Check()           112
     AlarmLowTemp::PutValue(int, int, AnsiString, bool, int *)
                                     568
     AlarmLowTemp::GetValue(int, int, float &, int &, int &)
                                     148
     AlarmLowTemp::GetStringValue(int, int, AnsiString &)
                                      12
     ?Subroutine8                      8
     AlarmLowTemp::PutFloatValue(int, float)
                                       8
     ?<Constant "New limit">          12
     AlarmLowTemp::new AlarmLowTemp(PRogramObjectBase *)
                                      40
     __sti__routine()                  4
      Others                         404

 
 1 392 bytes in segment CODE
   128 bytes in segment DATA_C
     4 bytes in segment DATA_Z
     4 bytes in segment DIFUNCT
    12 bytes in segment INITTAB
 
 1 068 bytes of CODE  memory (+ 340 bytes shared)
   128 bytes of CONST memory
     4 bytes of DATA  memory

Errors: none
Warnings: none
