##############################################################################
#                                                                            #
# IAR ARM ANSI C/C++ Compiler V4.42A/W32               14/Sep/2022  15:13:02 #
# Copyright 1999-2005 IAR Systems. All rights reserved.                      #
#                                                                            #
#    Cpu mode        =  interwork                                            #
#    Endian          =  little                                               #
#    Stack alignment =  4                                                    #
#    Source file     =  D:\S2Prog\Shared\Src\AlarmSensorConCalError.cpp      #
#    Command line    =  D:\S2Prog\Shared\Src\AlarmSensorConCalError.cpp      #
#                       --fpu None -D OS_LIBMODE_SP -D CPU_S3C2410 -D        #
#                       OS_RAMVECT=0 -D OS_UART=-1 -D S2TXU -D USE_LZO=1 -D  #
#                       __ARM_LIBRARY__ -D WATCHDOG=1 -D NETWORK=1 -lCN      #
#                       D:\S2Prog\TXU\Debug\List\ -o                         #
#                       D:\S2Prog\TXU\Debug\Obj\ -z9 --debug --cpu_mode arm  #
#                       --endian little --cpu ARM920T --stack_align 4        #
#                       --interwork -e --enable_multibytes --eec++           #
#                       --dlib_config "C:\Program Files (x86)\IAR            #
#                       Systems\Embedded Workbench                           #
#                       4.0\arm\LIB\dl4tpainl8n.h" -I                        #
#                       D:\S2Prog\TXU\GUI\CORE\ -I D:\S2Prog\TXU\GUI\WM\ -I  #
#                       D:\S2Prog\TXU\GUI\WIDGET\ -I D:\S2Prog\TXU\CONFIG\   #
#                       -I D:\S2Prog\TXU\INC\ -I D:\S2Prog\TXU\..\SHARED\INC #
#                       \ -I D:\S2Prog\TXU\..\SHARED\SRC\ -I                 #
#                       D:\S2Prog\TXU\..\SHARED\LZO\minilzo.210\ -I          #
#                       D:\S2Prog\TXU\lwip-1.4.1\src\include\ -I             #
#                       D:\S2Prog\TXU\lwip-1.4.1\src\include\ipv4\ -I        #
#                       D:\S2Prog\TXU\lwip-1.4.1\src\ -I                     #
#                       D:\S2Prog\TXU\..\SHARED\Database\ -I                 #
#                       D:\S2Prog\TXU\src\ -I "C:\Program Files (x86)\IAR    #
#                       Systems\Embedded Workbench 4.0\arm\INC\"             #
#                       --inline_threshold=2                                 #
#    List file       =  D:\S2Prog\TXU\Debug\List\AlarmSensorConCalError.lst  #
#    Object file     =  D:\S2Prog\TXU\Debug\Obj\AlarmSensorConCalError.r79   #
#                                                                            #
#                                                                            #
##############################################################################

D:\S2Prog\Shared\Src\AlarmSensorConCalError.cpp
      1          #include "TSNIncludes.h"
      2          #pragma hdrstop
      3          #ifdef BORLAND
      4          	#pragma package(smart_init)
      5          #endif
      6          
      7          //---------------------------------------------------------------------------
      8          

   \                                 In segment CODE, align 4, keep-with-next
      9          AlarmSensorConCalError::~AlarmSensorConCalError(void)
     10          {
   \                     `?~AlarmSensorConCalError`:
   \   00000000   30402DE9           PUSH     {R4,R5,LR}
   \   00000004   0040A0E1           MOV      R4,R0
   \   00000008   0150A0E1           MOV      R5,R1
   \   0000000C   000054E3           CMP      R4,#+0
   \   00000010   0600000A           BEQ      `?~AlarmSensorConCalError_1`
     11          }
   \   00000014   0100000A           BEQ      `?~AlarmSensorConCalError_2`
   \   00000018   0010A0E3           MOV      R1,#+0
   \   0000001C   ........           _BLF     `?~PRogramObjectBase`,`?~PRogramObjectBase??rA`
   \                     `?~AlarmSensorConCalError_2`:
   \   00000020   010015E3           TST      R5,#0x1
   \   00000024   0100000A           BEQ      `?~AlarmSensorConCalError_1`
   \   00000028   0400A0E1           MOV      R0,R4
   \   0000002C   ........           _BLF     `??operator delete`,`??operator delete??rA`
   \                     `?~AlarmSensorConCalError_1`:
   \   00000030                      REQUIRE ?Subroutine9
   \   00000030                      ;; // Fall through to label ?Subroutine9

   \                                 In segment CODE, align 4, keep-with-next
   \                     ?Subroutine9:
   \   00000000   3040BDE8           POP      {R4,R5,LR}
   \   00000004   1EFF2FE1           BX       LR               ;; return
     12          

   \                                 In segment DATA_Z, align 4, align-sorted
     13          unsigned AlarmSensorConCalError::NumberOfAlarms=0;
   \                     ??NumberOfAlarms:
   \   00000000                      DS8 4
     14          

   \                                 In segment CODE, align 4, keep-with-next
     15          AlarmSensorConCalError::AlarmSensorConCalError(PRogramObjectBase *PROPtr,ConfigPacket *ADConfDataPtr):AlarmBasic(PROPtr)
   \                     ??AlarmSensorConCalError:
   \   00000000   70402DE9           PUSH     {R4-R6,LR}
   \   00000004   0040A0E1           MOV      R4,R0
   \   00000008   0150A0E1           MOV      R5,R1
   \   0000000C   0260A0E1           MOV      R6,R2
     16          {
   \   00000010   ........           _BLF     ??AlarmBasic,??AlarmBasic??rA
   \   00000014   78009FE5           LDR      R0,??AlarmSensorConCalError_1  ;; ??__vtbl
   \   00000018   A40084E5           STR      R0,[R4, #+164]
     17          	NumberOfAlarms++;
   \   0000001C   74009FE5           LDR      R0,??AlarmSensorConCalError_1+0x4  ;; ??NumberOfAlarms
   \   00000020   001090E5           LDR      R1,[R0, #+0]
   \   00000024   011081E2           ADD      R1,R1,#+1
   \   00000028   001080E5           STR      R1,[R0, #+0]
     18          	PROPointer      = PROPtr;
   \   0000002C   C45084E5           STR      R5,[R4, #+196]
     19          	ADConfigDataPtr = ADConfDataPtr;
   \   00000030   EC6084E5           STR      R6,[R4, #+236]
     20          	IDNumber        = (ID_AL_SNS_CONCAL_ERROR << 16)+NumberOfAlarms;
   \   00000034   C006A0E3           MOV      R0,#+201326592
   \   00000038   8F0880E3           ORR      R0,R0,#0x8F0000
   \   0000003C   010080E0           ADD      R0,R0,R1
   \   00000040   9C0084E5           STR      R0,[R4, #+156]
     21          	Type            = ID_AL_SNS_CONCAL_ERROR;
   \   00000044   8F00A0E3           MOV      R0,#+143
   \   00000048   C00E80E3           ORR      R0,R0,#0xC00
   \   0000004C   A00084E5           STR      R0,[R4, #+160]
     22          	Limit           = 1;
   \   00000050   FE05A0E3           MOV      R0,#+1065353216
   \   00000054   E40084E5           STR      R0,[R4, #+228]
     23          	Deadband        = 0;
   \   00000058   0000A0E3           MOV      R0,#+0
   \   0000005C   BC0084E5           STR      R0,[R4, #+188]
     24          	MessageKey      = L_WORD539;		// Cnv&Cal Error
   \   00000060   1B00A0E3           MOV      R0,#+27
   \   00000064   800F80E3           ORR      R0,R0,#0x200
   \   00000068   B80084E5           STR      R0,[R4, #+184]
     25          	TPCMessageKey   = L_WORD540;		// HWErr
   \   0000006C   870FA0E3           MOV      R0,#+540
   \   00000070   B40084E5           STR      R0,[R4, #+180]
     26          	AlarmDelay      = 30000;
   \   00000074   3000A0E3           MOV      R0,#+48
   \   00000078   750C80E3           ORR      R0,R0,#0x7500
   \   0000007C   A80084E5           STR      R0,[R4, #+168]
     27          	IsHWAlarm       = true;
   \   00000080   0100A0E3           MOV      R0,#+1
   \   00000084   CE00C4E5           STRB     R0,[R4, #+206]
     28          }
   \   00000088   0400A0E1           MOV      R0,R4
   \   0000008C   7040BDE8           POP      {R4-R6,LR}
   \   00000090   1EFF2FE1           BX       LR               ;; return
   \                     ??AlarmSensorConCalError_1:
   \   00000094   ........           DC32     ??__vtbl
   \   00000098   ........           DC32     ??NumberOfAlarms
     29          

   \                                 In segment CODE, align 4, keep-with-next
     30          void AlarmSensorConCalError::Check(void)
     31          {
   \                     ??Check:
   \   00000000   10402DE9           PUSH     {R4,LR}
   \   00000004   0040A0E1           MOV      R4,R0
     32          
     33          	int Status = AL_STAT_IN_DEADBAND;
     34          	if ( ADConfigDataPtr->CalError || ADConfigDataPtr->ConvError ) {
   \   00000008   EC0094E5           LDR      R0,[R4, #+236]
   \   0000000C   0010D0E5           LDRB     R1,[R0, #+0]
   \   00000010   020011E3           TST      R1,#0x2
   \   00000014   01001103           TSTEQ    R1,#0x1
   \   00000018   0600000A           BEQ      ??Check_1
     35          		if ( TSNElapsedTicks(LastInactiveTime) < AlarmDelay ) {
   \   0000001C   AC0094E5           LDR      R0,[R4, #+172]
   \   00000020   ........           _BLF     ??TSNElapsedTicks,??TSNElapsedTicks??rA
   \   00000024   A81094E5           LDR      R1,[R4, #+168]
   \   00000028   010050E1           CMP      R0,R1
   \   0000002C   030000BA           BLT      ??Check_2
     36          			Status = AL_STAT_IN_NORMAL;
     37          		}else{
     38          			Status = AL_STAT_IN_ALARM;
   \   00000030   0110A0E3           MOV      R1,#+1
   \   00000034   020000EA           B        ??Check_3
     39          		}
     40          	} else {
     41          		LastInactiveTime = clock();
   \                     ??Check_1:
   \   00000038   ........           _BLF     clock,??clock??rA
   \   0000003C   AC0084E5           STR      R0,[R4, #+172]
     42          		Status = AL_STAT_IN_NORMAL;
   \                     ??Check_2:
   \   00000040   0010A0E3           MOV      R1,#+0
     43          	}
     44          	UpdateAlarm(Status);
   \                     ??Check_3:
   \   00000044   0400A0E1           MOV      R0,R4
   \   00000048   ........           _BLF     ??UpdateAlarm,??UpdateAlarm??rA
     45          }
   \   0000004C   1040BDE8           POP      {R4,LR}
   \   00000050   1EFF2FE1           BX       LR               ;; return
     46          
     47          ///////////////////////////////////////////////////////////////
     48          //
     49          // Routines for the librarian for input
     50          //
     51          ///////////////////////////////////////////////////////////////
     52          

   \                                 In segment CODE, align 4, keep-with-next
     53          int AlarmSensorConCalError::PutValue( int ValueId, int Index, AnsiString NewValue,bool Local, int *UnitId)
     54          {
   \                     ??PutValue:
   \   00000000   F0432DE9           PUSH     {R4-R9,LR}
   \   00000004   20D04DE2           SUB      SP,SP,#+32
   \   00000008   3C80DDE5           LDRB     R8,[SP, #+60]
   \   0000000C   40909DE5           LDR      R9,[SP, #+64]
   \   00000010   0040A0E1           MOV      R4,R0
   \   00000014   0150A0E1           MOV      R5,R1
   \   00000018   0260A0E1           MOV      R6,R2
   \   0000001C   0370A0E1           MOV      R7,R3
     55          	int Status = E_NO_ERR, ValUnitId = NO_UNIT;
   \   00000020   0010A0E3           MOV      R1,#+0
   \   00000024   00108DE5           STR      R1,[SP, #+0]
     56          	switch ( ValueId ) {
   \   00000028   3210A0E3           MOV      R1,#+50
   \   0000002C   8C1D81E3           ORR      R1,R1,#0x2300
   \   00000030   010055E1           CMP      R5,R1
     57          		case SVT_AL_LIMIT:
     58          			Status = E_NO_INPUT_PERMISSION;
   \   00000034   2A50A003           MOVEQ    R5,#+42
   \   00000038   1E00000A           BEQ      ??PutValue_2
     59          			break;
     60          		default:
     61          			Status = AlarmBasic::PutValue(ValueId, Index,NewValue,Local,&ValUnitId);
   \   0000003C   0020A0E3           MOV      R2,#+0
   \   00000040   0010A0E3           MOV      R1,#+0
   \   00000044   04008DE2           ADD      R0,SP,#+4
   \   00000048   ........           _BLF     ??_Tidy,??_Tidy??rA
   \   0000004C   80009FE5           LDR      R0,??PutValue_3  ;; ??npos
   \   00000050   0020A0E3           MOV      R2,#+0
   \   00000054   003090E5           LDR      R3,[R0, #+0]
   \   00000058   0710A0E1           MOV      R1,R7
   \   0000005C   04008DE2           ADD      R0,SP,#+4
   \   00000060   ........           _BLF     ??assign,??assign??rA
   \   00000064   0D00A0E1           MOV      R0,SP
   \   00000068   01002DE9           PUSH     {R0}
   \   0000006C   00012DE9           PUSH     {R8}
   \   00000070   0C308DE2           ADD      R3,SP,#+12
   \   00000074   0620A0E1           MOV      R2,R6
   \   00000078   0510A0E1           MOV      R1,R5
   \   0000007C   0400A0E1           MOV      R0,R4
   \   00000080   ........           _BLF     ??PutValue_1,??PutValue??rA
   \   00000084   0050A0E1           MOV      R5,R0
   \   00000088   0020A0E3           MOV      R2,#+0
   \   0000008C   0110A0E3           MOV      R1,#+1
   \   00000090   0C008DE2           ADD      R0,SP,#+12
   \   00000094   ........           _BLF     ??_Tidy,??_Tidy??rA
     62          			break;
     63          	}
     64          	if ( Status==E_NO_ERR ) {
   \   00000098   000055E3           CMP      R5,#+0
   \   0000009C   08D08DE2           ADD      SP,SP,#+8
   \   000000A0   0400001A           BNE      ??PutValue_2
     65          		SetModifiedFlag();
   \   000000A4   A41094E5           LDR      R1,[R4, #+164]
   \   000000A8   0400A0E1           MOV      R0,R4
   \   000000AC   541091E5           LDR      R1,[R1, #+84]
   \   000000B0   0FE0A0E1           MOV      LR,PC
   \   000000B4   11FF2FE1           BX       R1
     66          	}
     67          	if (UnitId) {
   \                     ??PutValue_2:
   \   000000B8   000059E3           CMP      R9,#+0
     68          		*UnitId = ValUnitId;
   \   000000BC   00009D15           LDRNE    R0,[SP, #+0]
   \   000000C0   00008915           STRNE    R0,[R9, #+0]
     69          	}
     70          	return(Status);
   \   000000C4   0500A0E1           MOV      R0,R5
   \   000000C8   20D08DE2           ADD      SP,SP,#+32
   \   000000CC   F043BDE8           POP      {R4-R9,LR}
   \   000000D0   1EFF2FE1           BX       LR               ;; return
   \                     ??PutValue_3:
   \   000000D4   ........           DC32     ??npos
     71          }
     72          

   \                                 In segment CODE, align 4, keep-with-next
     73          int  AlarmSensorConCalError::GetValue(int ValueId, int Index, float &MyRetValue, int &DecPnt, int &Unit)
     74          {
   \                     ??GetValue:
   \   00000000   F0412DE9           PUSH     {R4-R8,LR}
   \   00000004   18509DE5           LDR      R5,[SP, #+24]
   \   00000008   1C609DE5           LDR      R6,[SP, #+28]
   \   0000000C   0340A0E1           MOV      R4,R3
     75          	int Status = GETVAL_NO_ERR;
   \   00000010   0070A0E3           MOV      R7,#+0
     76          	switch ( ValueId ) {
   \   00000014   0080A0E3           MOV      R8,#+0
   \   00000018   323041E2           SUB      R3,R1,#+50
   \   0000001C   8C3D43E2           SUB      R3,R3,#+8960
   \   00000020   010053E3           CMP      R3,#+1
   \   00000024   1000008A           BHI      ??GetValue_3
   \   00000028   01CF8FE2           ADR      R12,??GetValue_1
   \   0000002C   03C0DCE7           LDRB     R12,[R12, R3]
   \   00000030   0CF18FE0           ADD      PC,PC,R12, LSL #+2
   \                     ??GetValue_1:
   \   00000034   00050000           DC8      +0,+5,+0,+0
     77          		case SVT_AL_LIMIT:
     78          			MyRetValue = Limit;
   \                     ??GetValue_4:
   \   00000038   E40090E5           LDR      R0,[R0, #+228]
   \                     ??GetValue_5:
   \   0000003C   000084E5           STR      R0,[R4, #+0]
     79          			DecPnt     = 0;
   \   00000040   008085E5           STR      R8,[R5, #+0]
     80          			Unit       = NO_UNIT;
   \   00000044   008086E5           STR      R8,[R6, #+0]
   \   00000048   0D0000EA           B        ??GetValue_6
     81          			break;
     82          		case SVT_AL_VALUE:
     83          			MyRetValue = (float)(ADConfigDataPtr->CalError | ADConfigDataPtr->ConvError);
   \                     ??GetValue_7:
   \   0000004C   EC0090E5           LDR      R0,[R0, #+236]
   \   00000050   0010D0E5           LDRB     R1,[R0, #+0]
   \   00000054   0000D0E5           LDRB     R0,[R0, #+0]
   \   00000058   021001E2           AND      R1,R1,#0x2
   \   0000005C   010000E2           AND      R0,R0,#0x1
   \   00000060   A10080E1           ORR      R0,R0,R1, LSR #+1
   \   00000064   ........           _BLF     __ulongToFloat,??__ulongToFloat??rA
   \   00000068   F3FFFFEA           B        ??GetValue_5
     84          			DecPnt     = 0;
     85          			Unit       = NO_UNIT;
     86          			break;
     87          		default:
     88          			Status = AlarmBasic::GetValue(ValueId, Index, MyRetValue, DecPnt, Unit);
   \                     ??GetValue_3:
   \   0000006C   40002DE9           PUSH     {R6}
   \   00000070   20002DE9           PUSH     {R5}
   \   00000074   0430A0E1           MOV      R3,R4
   \   00000078   ........           _BLF     ??GetValue_2,??GetValue??rA
   \   0000007C   0070A0E1           MOV      R7,R0
   \   00000080   08D08DE2           ADD      SP,SP,#+8
     89          			break;
     90          	}
     91          	return(Status);
   \                     ??GetValue_6:
   \   00000084   0700A0E1           MOV      R0,R7
   \   00000088   F041BDE8           POP      {R4-R8,LR}
   \   0000008C   1EFF2FE1           BX       LR               ;; return
     92          }
     93          
     94          

   \                                 In segment CODE, align 4, keep-with-next
     95          int AlarmSensorConCalError::GetStringValue(int ValueId, int Index, AnsiString &MyString)
     96          {
   \                     ??GetStringValue:
   \   00000000   00402DE9           PUSH     {LR}
     97          	int Status = GETVAL_NO_ERR;
     98          	//switch ( ValueId ) {
     99          	//	default:
    100          	Status = AlarmBasic::GetStringValue(ValueId,Index, MyString);
    101          	//		break;
    102          	//}
    103          	return(Status);
   \   00000004   ........           _BLF     ??GetStringValue_1,??GetStringValue??rA
   \   00000008   ........           B        ?Subroutine10
    104          }

   \                                 In segment CODE, align 4, keep-with-next
   \                     ?Subroutine10:
   \   00000000   0040BDE8           POP      {LR}
   \   00000004   1EFF2FE1           BX       LR               ;; return
    105          

   \                                 In segment CODE, align 4, keep-with-next
    106          int AlarmSensorConCalError::PutFloatValue( int ValueId, float NewValue)
    107          {
   \                     ??PutFloatValue:
   \   00000000   00402DE9           PUSH     {LR}
    108          	int Status= E_NO_ERR;
    109          	//switch ( ValueId ) {
    110          	//   default:
    111          	Status = AlarmBasic::PutFloatValue(ValueId, NewValue);
    112          	//     break;
    113          	//}
    114          	return(Status);
   \   00000004   ........           _BLF     ??PutFloatValue_1,??PutFloatValue??rA
   \   00000008                      REQUIRE ?Subroutine10
   \   00000008                      ;; // Fall through to label ?Subroutine10
    115          }

   \                                 In segment DIFUNCT, align 4, keep-with-next, root
   \   00000000                      REQUIRE ?call_ctors
   \   00000000   ........           DC32    ??__sti__routine

   \                                 In segment CODE, align 4, keep-with-next
   \   __??Code32?? __code __interwork __atpcs AlarmSensorConCalError &AlarmSensorConCalError::new AlarmSensorConCalError(PRogramObjectBase *, ConfigPacket *)
   \                     `??new AlarmSensorConCalError`:
   \   00000000   30402DE9           PUSH     {R4,R5,LR}
   \   00000004   0040A0E1           MOV      R4,R0
   \   00000008   0150A0E1           MOV      R5,R1
   \   0000000C   F000A0E3           MOV      R0,#+240
   \   00000010   ........           _BLF     `??operator new`,`??operator new??rA`
   \   00000014   000050E3           CMP      R0,#+0
   \   00000018   0200000A           BEQ      `??new AlarmSensorConCalError_1`
   \   0000001C   0520A0E1           MOV      R2,R5
   \   00000020   0410A0E1           MOV      R1,R4
   \   00000024   ........           BL       ??AlarmSensorConCalError
   \                     `??new AlarmSensorConCalError_1`:
   \   00000028   ........           B        ?Subroutine9

   \                                 In segment CODE, align 4, keep-with-next
   \   static __??Code32?? __intrinsic __code __interwork __atpcs void __sti__routine()
   \                     ??__sti__routine:
   \   00000000   1EFF2FE1           BX       LR               ;; return
    116          
    117          

   Maximum stack usage in bytes:

     Function                       CSTACK
     --------                       ------
     AlarmSensorConCalError::AlarmSensorConCalError(PRogramObjectBase *, ConfigPacket *)
                                       16
     AlarmSensorConCalError::Check()
                                        8
     AlarmSensorConCalError::GetStringValue(int, int, AnsiString &)
                                        4
     AlarmSensorConCalError::GetValue(int, int, float &, int &, int &)
                                       32
     AlarmSensorConCalError::PutFloatValue(int, float)
                                        4
     AlarmSensorConCalError::PutValue(int, int, AnsiString, bool, int *)
                                       68
     AlarmSensorConCalError::new AlarmSensorConCalError(PRogramObjectBase *, ConfigPacket *)
                                       12
     AlarmSensorConCalError::~AlarmSensorConCalError()
                                       12
     __sti__routine()                   0


   Segment part sizes:

     Function/Label                 Bytes
     --------------                 -----
     AlarmSensorConCalError::~AlarmSensorConCalError()
                                      48
     ?Subroutine9                      8
     AlarmSensorConCalError::NumberOfAlarms
                                       4
     AlarmSensorConCalError::AlarmSensorConCalError(PRogramObjectBase *, ConfigPacket *)
                                     156
     AlarmSensorConCalError::Check()
                                      84
     AlarmSensorConCalError::PutValue(int, int, AnsiString, bool, int *)
                                     216
     AlarmSensorConCalError::GetValue(int, int, float &, int &, int &)
                                     144
     AlarmSensorConCalError::GetStringValue(int, int, AnsiString &)
                                      12
     ?Subroutine10                     8
     AlarmSensorConCalError::PutFloatValue(int, float)
                                       8
     AlarmSensorConCalError::new AlarmSensorConCalError(PRogramObjectBase *, ConfigPacket *)
                                      44
     __sti__routine()                  4
      Others                         336

 
 936 bytes in segment CODE
 116 bytes in segment DATA_C
   4 bytes in segment DATA_Z
   4 bytes in segment DIFUNCT
  12 bytes in segment INITTAB
 
 736 bytes of CODE  memory (+ 216 bytes shared)
 116 bytes of CONST memory
   4 bytes of DATA  memory

Errors: none
Warnings: none
