##############################################################################
#                                                                            #
# IAR ARM ANSI C/C++ Compiler V4.42A/W32               14/Sep/2022  15:13:06 #
# Copyright 1999-2005 IAR Systems. All rights reserved.                      #
#                                                                            #
#    Cpu mode        =  interwork                                            #
#    Endian          =  little                                               #
#    Stack alignment =  4                                                    #
#    Source file     =  D:\S2Prog\Shared\Src\AlarmTXUComFailure.cpp          #
#    Command line    =  D:\S2Prog\Shared\Src\AlarmTXUComFailure.cpp --fpu    #
#                       None -D OS_LIBMODE_SP -D CPU_S3C2410 -D              #
#                       OS_RAMVECT=0 -D OS_UART=-1 -D S2TXU -D USE_LZO=1 -D  #
#                       __ARM_LIBRARY__ -D WATCHDOG=1 -D NETWORK=1 -lCN      #
#                       D:\S2Prog\TXU\Debug\List\ -o                         #
#                       D:\S2Prog\TXU\Debug\Obj\ -z9 --debug --cpu_mode arm  #
#                       --endian little --cpu ARM920T --stack_align 4        #
#                       --interwork -e --enable_multibytes --eec++           #
#                       --dlib_config "C:\Program Files (x86)\IAR            #
#                       Systems\Embedded Workbench                           #
#                       4.0\arm\LIB\dl4tpainl8n.h" -I                        #
#                       D:\S2Prog\TXU\GUI\CORE\ -I D:\S2Prog\TXU\GUI\WM\ -I  #
#                       D:\S2Prog\TXU\GUI\WIDGET\ -I D:\S2Prog\TXU\CONFIG\   #
#                       -I D:\S2Prog\TXU\INC\ -I D:\S2Prog\TXU\..\SHARED\INC #
#                       \ -I D:\S2Prog\TXU\..\SHARED\SRC\ -I                 #
#                       D:\S2Prog\TXU\..\SHARED\LZO\minilzo.210\ -I          #
#                       D:\S2Prog\TXU\lwip-1.4.1\src\include\ -I             #
#                       D:\S2Prog\TXU\lwip-1.4.1\src\include\ipv4\ -I        #
#                       D:\S2Prog\TXU\lwip-1.4.1\src\ -I                     #
#                       D:\S2Prog\TXU\..\SHARED\Database\ -I                 #
#                       D:\S2Prog\TXU\src\ -I "C:\Program Files (x86)\IAR    #
#                       Systems\Embedded Workbench 4.0\arm\INC\"             #
#                       --inline_threshold=2                                 #
#    List file       =  D:\S2Prog\TXU\Debug\List\AlarmTXUComFailure.lst      #
#    Object file     =  D:\S2Prog\TXU\Debug\Obj\AlarmTXUComFailure.r79       #
#                                                                            #
#                                                                            #
##############################################################################

D:\S2Prog\Shared\Src\AlarmTXUComFailure.cpp
      1          #include "TSNIncludes.h"
      2          #pragma hdrstop
      3          #ifdef BORLAND
      4          #pragma package(smart_init)
      5          #endif
      6          
      7          //---------------------------------------------------------------------------
      8          

   \                                 In segment CODE, align 4, keep-with-next
      9          AlarmTXUComFailure::~AlarmTXUComFailure(void)
     10          {
   \                     `?~AlarmTXUComFailure`:
   \   00000000   30402DE9           PUSH     {R4,R5,LR}
   \   00000004   0040A0E1           MOV      R4,R0
   \   00000008   0150A0E1           MOV      R5,R1
   \   0000000C   000054E3           CMP      R4,#+0
   \   00000010   0600000A           BEQ      `?~AlarmTXUComFailure_1`
     11          }
   \   00000014   0100000A           BEQ      `?~AlarmTXUComFailure_2`
   \   00000018   0010A0E3           MOV      R1,#+0
   \   0000001C   ........           _BLF     `?~PRogramObjectBase`,`?~PRogramObjectBase??rA`
   \                     `?~AlarmTXUComFailure_2`:
   \   00000020   010015E3           TST      R5,#0x1
   \   00000024   0100000A           BEQ      `?~AlarmTXUComFailure_1`
   \   00000028   0400A0E1           MOV      R0,R4
   \   0000002C   ........           _BLF     `??operator delete`,`??operator delete??rA`
   \                     `?~AlarmTXUComFailure_1`:
   \   00000030                      REQUIRE ?Subroutine9
   \   00000030                      ;; // Fall through to label ?Subroutine9

   \                                 In segment CODE, align 4, keep-with-next
   \                     ?Subroutine9:
   \   00000000   3040BDE8           POP      {R4,R5,LR}
   \   00000004   1EFF2FE1           BX       LR               ;; return
     12          

   \                                 In segment DATA_Z, align 4, align-sorted
     13          unsigned AlarmTXUComFailure::NumberOfAlarmSettings=0;
   \                     ??NumberOfAlarmSettings:
   \   00000000                      DS8 4
     14          

   \                                 In segment CODE, align 4, keep-with-next
     15          AlarmTXUComFailure::AlarmTXUComFailure(PRogramObjectBase *PROPtr, float Lim):AlarmBasic(PROPtr)
   \                     ??AlarmTXUComFailure:
   \   00000000   F0402DE9           PUSH     {R4-R7,LR}
     16          {
     17              NumberOfAlarmSettings++;
   \   00000004   80709FE5           LDR      R7,??AlarmTXUComFailure_1  ;; ??NumberOfAlarmSettings
   \   00000008   0040A0E1           MOV      R4,R0
   \   0000000C   0160A0E1           MOV      R6,R1
   \   00000010   0250A0E1           MOV      R5,R2
   \   00000014   ........           _BLF     ??AlarmBasic,??AlarmBasic??rA
   \   00000018   70009FE5           LDR      R0,??AlarmTXUComFailure_1+0x4  ;; ??__vtbl
     18              PROPointer      = PROPtr;
     19              Name            = PROPointer->Name;
   \   0000001C   0020A0E3           MOV      R2,#+0
   \   00000020   A40084E5           STR      R0,[R4, #+164]
   \   00000024   000097E5           LDR      R0,[R7, #+0]
   \   00000028   441086E2           ADD      R1,R6,#+68
   \   0000002C   010080E2           ADD      R0,R0,#+1
   \   00000030   000087E5           STR      R0,[R7, #+0]
   \   00000034   ........           LDR      R0,??DataTable1  ;; ??npos
   \   00000038   C46084E5           STR      R6,[R4, #+196]
   \   0000003C   003090E5           LDR      R3,[R0, #+0]
   \   00000040   440084E2           ADD      R0,R4,#+68
   \   00000044   ........           _BLF     ??assign,??assign??rA
     20              IDNumber        = (ID_AL_TDU_COM_ERROR << 16)+NumberOfAlarmSettings;
   \   00000048   000097E5           LDR      R0,[R7, #+0]
   \   0000004C   C016A0E3           MOV      R1,#+201326592
   \   00000050   A41881E3           ORR      R1,R1,#0xA40000
   \   00000054   000081E0           ADD      R0,R1,R0
   \   00000058   9C0084E5           STR      R0,[R4, #+156]
     21              Type            = ID_AL_TDU_COM_ERROR;
   \   0000005C   2108A0E1           MOV      R0,R1, LSR #+16
   \   00000060   A00084E5           STR      R0,[R4, #+160]
     22              Limit           = Lim;
   \   00000064   E45084E5           STR      R5,[R4, #+228]
     23              MessageKey      = L_WORD516;    // ComFault
   \   00000068   810FA0E3           MOV      R0,#+516
   \   0000006C   B80084E5           STR      R0,[R4, #+184]
     24              TPCMessageKey   = L_WORD771;    // TDUce
   \   00000070   FF0080E2           ADD      R0,R0,#+255
   \   00000074   B40084E5           STR      R0,[R4, #+180]
     25              IsHWAlarm       = true;
   \   00000078   0100A0E3           MOV      R0,#+1
   \   0000007C   CE00C4E5           STRB     R0,[R4, #+206]
     26          }
   \   00000080   0400A0E1           MOV      R0,R4
   \   00000084   F040BDE8           POP      {R4-R7,LR}
   \   00000088   1EFF2FE1           BX       LR               ;; return
   \                     ??AlarmTXUComFailure_1:
   \   0000008C   ........           DC32     ??NumberOfAlarmSettings
   \   00000090   ........           DC32     ??__vtbl
     27          

   \                                 In segment CODE, align 4, keep-with-next
     28          void AlarmTXUComFailure::Check(void)
     29          {
   \                     ??Check:
   \   00000000   10402DE9           PUSH     {R4,LR}
   \   00000004   0040A0E1           MOV      R4,R0
     30              int FailCnt = ((PROTanksystemUnit *)PROPointer)->SysInfoRxFailCnt;
     31              int Status = AL_STAT_IN_DEADBAND;
     32              if ( FailCnt < Limit ) {
   \   00000008   C40094E5           LDR      R0,[R4, #+196]
   \   0000000C   580490E5           LDR      R0,[R0, #+1112]
   \   00000010   ........           _BLF     __longToFloat,??__longToFloat??rA
   \   00000014   E41094E5           LDR      R1,[R4, #+228]
   \   00000018   ........           _BLF     __fLess,??__fLess??rA
   \   0000001C   000050E3           CMP      R0,#+0
     33                  Status = AL_STAT_IN_NORMAL;
   \   00000020   0010A013           MOVNE    R1,#+0
     34              } else /*if ( FailCnt >= Limit ) */{
     35                  Status = AL_STAT_IN_ALARM;
   \   00000024   0110A003           MOVEQ    R1,#+1
     36              }
     37              UpdateAlarm(Status);
   \   00000028   0400A0E1           MOV      R0,R4
   \   0000002C   ........           _BLF     ??UpdateAlarm,??UpdateAlarm??rA
     38          
     39          }
   \   00000030   1040BDE8           POP      {R4,LR}
   \   00000034   1EFF2FE1           BX       LR               ;; return
     40          
     41          ///////////////////////////////////////////////////////////////
     42          //
     43          // Routines for the librarian for input
     44          //
     45          ///////////////////////////////////////////////////////////////
     46          

   \                                 In segment CODE, align 4, keep-with-next
     47          int AlarmTXUComFailure::PutValue( int ValueId, int Index, AnsiString NewValue,bool Local, int *UnitId)
     48          {
   \                     ??PutValue:
   \   00000000   F0432DE9           PUSH     {R4-R9,LR}
   \   00000004   20D04DE2           SUB      SP,SP,#+32
   \   00000008   3C80DDE5           LDRB     R8,[SP, #+60]
   \   0000000C   40909DE5           LDR      R9,[SP, #+64]
   \   00000010   0040A0E1           MOV      R4,R0
   \   00000014   0150A0E1           MOV      R5,R1
   \   00000018   0260A0E1           MOV      R6,R2
   \   0000001C   0370A0E1           MOV      R7,R3
     49              int Status = E_NO_ERR, ValUnitId = NO_UNIT;
   \   00000020   0010A0E3           MOV      R1,#+0
   \   00000024   00108DE5           STR      R1,[SP, #+0]
     50              switch ( ValueId ) {
   \   00000028   3210A0E3           MOV      R1,#+50
   \   0000002C   8C1D81E3           ORR      R1,R1,#0x2300
   \   00000030   010055E1           CMP      R5,R1
     51                  case SVT_AL_LIMIT:
     52                      Status = E_NOT_ADJUSTABLE;
   \   00000034   2950A003           MOVEQ    R5,#+41
   \   00000038   1E00000A           BEQ      ??PutValue_2
     53                      break;
     54                  default:
     55                      Status = AlarmBasic::PutValue(ValueId, Index,NewValue,Local,&ValUnitId);
   \   0000003C   0020A0E3           MOV      R2,#+0
   \   00000040   0010A0E3           MOV      R1,#+0
   \   00000044   04008DE2           ADD      R0,SP,#+4
   \   00000048   ........           _BLF     ??_Tidy,??_Tidy??rA
   \   0000004C   ........           LDR      R0,??DataTable1  ;; ??npos
   \   00000050   0020A0E3           MOV      R2,#+0
   \   00000054   003090E5           LDR      R3,[R0, #+0]
   \   00000058   0710A0E1           MOV      R1,R7
   \   0000005C   04008DE2           ADD      R0,SP,#+4
   \   00000060   ........           _BLF     ??assign,??assign??rA
   \   00000064   0D00A0E1           MOV      R0,SP
   \   00000068   01002DE9           PUSH     {R0}
   \   0000006C   00012DE9           PUSH     {R8}
   \   00000070   0C308DE2           ADD      R3,SP,#+12
   \   00000074   0620A0E1           MOV      R2,R6
   \   00000078   0510A0E1           MOV      R1,R5
   \   0000007C   0400A0E1           MOV      R0,R4
   \   00000080   ........           _BLF     ??PutValue_1,??PutValue??rA
   \   00000084   0050A0E1           MOV      R5,R0
   \   00000088   0020A0E3           MOV      R2,#+0
   \   0000008C   0110A0E3           MOV      R1,#+1
   \   00000090   0C008DE2           ADD      R0,SP,#+12
   \   00000094   ........           _BLF     ??_Tidy,??_Tidy??rA
     56                      break;
     57              }
     58              if ( Status==E_NO_ERR){
   \   00000098   000055E3           CMP      R5,#+0
   \   0000009C   08D08DE2           ADD      SP,SP,#+8
   \   000000A0   0400001A           BNE      ??PutValue_2
     59                      SetModifiedFlag();
   \   000000A4   A41094E5           LDR      R1,[R4, #+164]
   \   000000A8   0400A0E1           MOV      R0,R4
   \   000000AC   541091E5           LDR      R1,[R1, #+84]
   \   000000B0   0FE0A0E1           MOV      LR,PC
   \   000000B4   11FF2FE1           BX       R1
     60              }
     61              if (UnitId) {
   \                     ??PutValue_2:
   \   000000B8   000059E3           CMP      R9,#+0
     62                  *UnitId = ValUnitId;
   \   000000BC   00009D15           LDRNE    R0,[SP, #+0]
   \   000000C0   00008915           STRNE    R0,[R9, #+0]
     63              }
     64              return(Status);
   \   000000C4   0500A0E1           MOV      R0,R5
   \   000000C8   20D08DE2           ADD      SP,SP,#+32
   \   000000CC   F043BDE8           POP      {R4-R9,LR}
   \   000000D0   1EFF2FE1           BX       LR               ;; return
     65          }
     66          

   \                                 In segment CODE, align 4, keep-with-next
     67          int  AlarmTXUComFailure::GetValue(int ValueId, int Index, float &MyRetValue, int &DecPnt, int &Unit)
     68          {
   \                     ??GetValue:
   \   00000000   F0412DE9           PUSH     {R4-R8,LR}
   \   00000004   18509DE5           LDR      R5,[SP, #+24]
   \   00000008   1C609DE5           LDR      R6,[SP, #+28]
   \   0000000C   0340A0E1           MOV      R4,R3
     69              int Status = GETVAL_NO_ERR;
   \   00000010   0070A0E3           MOV      R7,#+0
     70              switch ( ValueId ) {
   \   00000014   0080A0E3           MOV      R8,#+0
   \   00000018   323041E2           SUB      R3,R1,#+50
   \   0000001C   8C3D43E2           SUB      R3,R3,#+8960
   \   00000020   010053E3           CMP      R3,#+1
   \   00000024   0C00008A           BHI      ??GetValue_3
   \   00000028   01CF8FE2           ADR      R12,??GetValue_1
   \   0000002C   03C0DCE7           LDRB     R12,[R12, R3]
   \   00000030   0CF18FE0           ADD      PC,PC,R12, LSL #+2
   \                     ??GetValue_1:
   \   00000034   00050000           DC8      +0,+5,+0,+0
     71                  case SVT_AL_LIMIT:
     72                      MyRetValue = (float)Limit;
   \                     ??GetValue_4:
   \   00000038   E40090E5           LDR      R0,[R0, #+228]
   \                     ??GetValue_5:
   \   0000003C   000084E5           STR      R0,[R4, #+0]
     73                      DecPnt     = 0;
   \   00000040   008085E5           STR      R8,[R5, #+0]
     74                      Unit       = NO_UNIT;
   \   00000044   008086E5           STR      R8,[R6, #+0]
   \   00000048   090000EA           B        ??GetValue_6
     75                      break;
     76              case SVT_AL_VALUE:
     77                      MyRetValue = (float)((PROTanksystemUnit *)PROPointer)->SysInfoRxFailCnt;
   \                     ??GetValue_7:
   \   0000004C   C40090E5           LDR      R0,[R0, #+196]
   \   00000050   580490E5           LDR      R0,[R0, #+1112]
   \   00000054   ........           _BLF     __ulongToFloat,??__ulongToFloat??rA
   \   00000058   F7FFFFEA           B        ??GetValue_5
     78                      DecPnt     = 0;
     79                      Unit       = NO_UNIT;
     80                      break;
     81                  default:
     82                      Status = AlarmBasic::GetValue(ValueId, Index, MyRetValue, DecPnt, Unit);
   \                     ??GetValue_3:
   \   0000005C   40002DE9           PUSH     {R6}
   \   00000060   20002DE9           PUSH     {R5}
   \   00000064   0430A0E1           MOV      R3,R4
   \   00000068   ........           _BLF     ??GetValue_2,??GetValue??rA
   \   0000006C   0070A0E1           MOV      R7,R0
   \   00000070   08D08DE2           ADD      SP,SP,#+8
     83                      break;
     84              }
     85              return(Status);
   \                     ??GetValue_6:
   \   00000074   0700A0E1           MOV      R0,R7
   \   00000078   F041BDE8           POP      {R4-R8,LR}
   \   0000007C   1EFF2FE1           BX       LR               ;; return
     86          }
     87          
     88          

   \                                 In segment CODE, align 4, keep-with-next
     89          int AlarmTXUComFailure::GetStringValue(int ValueId, int Index, AnsiString &MyString)
     90          {
   \                     ??GetStringValue:
   \   00000000   00402DE9           PUSH     {LR}
     91              int Status = GETVAL_NO_ERR;
     92              //switch ( ValueId ) {
     93              //  default:
     94              Status = AlarmBasic::GetStringValue(ValueId,Index, MyString);
     95              //      break;
     96              //}
     97              return(Status);
   \   00000004   ........           _BLF     ??GetStringValue_1,??GetStringValue??rA
   \   00000008   ........           B        ?Subroutine10
     98          }

   \                                 In segment CODE, align 4, keep-with-next
   \                     ?Subroutine10:
   \   00000000   0040BDE8           POP      {LR}
   \   00000004   1EFF2FE1           BX       LR               ;; return
     99          

   \                                 In segment CODE, align 4, keep-with-next
    100          int AlarmTXUComFailure::PutFloatValue( int ValueId, float NewValue)
    101          {
   \                     ??PutFloatValue:
   \   00000000   00402DE9           PUSH     {LR}
    102              int Status= E_NO_ERR;
    103              //switch ( ValueId ) {
    104              //   default:
    105              Status = AlarmBasic::PutFloatValue(ValueId, NewValue);
    106              //     break;
    107              //}
    108              return(Status);
   \   00000004   ........           _BLF     ??PutFloatValue_1,??PutFloatValue??rA
   \   00000008                      REQUIRE ?Subroutine10
   \   00000008                      ;; // Fall through to label ?Subroutine10
    109          }

   \                                 In segment DIFUNCT, align 4, keep-with-next, root
   \   00000000                      REQUIRE ?call_ctors
   \   00000000   ........           DC32    ??__sti__routine

   \                                 In segment CODE, align 4, keep-with-next
   \   __??Code32?? __code __interwork __atpcs AlarmTXUComFailure &AlarmTXUComFailure::new AlarmTXUComFailure(PRogramObjectBase *, float)
   \                     `??new AlarmTXUComFailure`:
   \   00000000   30402DE9           PUSH     {R4,R5,LR}
   \   00000004   0040A0E1           MOV      R4,R0
   \   00000008   0150A0E1           MOV      R5,R1
   \   0000000C   EC00A0E3           MOV      R0,#+236
   \   00000010   ........           _BLF     `??operator new`,`??operator new??rA`
   \   00000014   000050E3           CMP      R0,#+0
   \   00000018   0200000A           BEQ      `??new AlarmTXUComFailure_1`
   \   0000001C   0520A0E1           MOV      R2,R5
   \   00000020   0410A0E1           MOV      R1,R4
   \   00000024   ........           BL       ??AlarmTXUComFailure
   \                     `??new AlarmTXUComFailure_1`:
   \   00000028   ........           B        ?Subroutine9

   \                                 In segment CODE, align 4, keep-with-next
   \   static __??Code32?? __intrinsic __code __interwork __atpcs void __sti__routine()
   \                     ??__sti__routine:
   \   00000000   1EFF2FE1           BX       LR               ;; return

   \                                 In segment CODE, align 4, keep-with-next
   \                     ??DataTable1:
   \   00000000   ........           DC32     ??npos
    110          

   Maximum stack usage in bytes:

     Function                       CSTACK
     --------                       ------
     AlarmTXUComFailure::AlarmTXUComFailure(PRogramObjectBase *, float)
                                       20
     AlarmTXUComFailure::Check()        8
     AlarmTXUComFailure::GetStringValue(int, int, AnsiString &)
                                        4
     AlarmTXUComFailure::GetValue(int, int, float &, int &, int &)
                                       32
     AlarmTXUComFailure::PutFloatValue(int, float)
                                        4
     AlarmTXUComFailure::PutValue(int, int, AnsiString, bool, int *)
                                       68
     AlarmTXUComFailure::new AlarmTXUComFailure(PRogramObjectBase *, float)
                                       12
     AlarmTXUComFailure::~AlarmTXUComFailure()
                                       12
     __sti__routine()                   0


   Segment part sizes:

     Function/Label                 Bytes
     --------------                 -----
     AlarmTXUComFailure::~AlarmTXUComFailure()
                                      48
     ?Subroutine9                      8
     AlarmTXUComFailure::NumberOfAlarmSettings
                                       4
     AlarmTXUComFailure::AlarmTXUComFailure(PRogramObjectBase *, float)
                                     148
     AlarmTXUComFailure::Check()      56
     AlarmTXUComFailure::PutValue(int, int, AnsiString, bool, int *)
                                     212
     AlarmTXUComFailure::GetValue(int, int, float &, int &, int &)
                                     128
     AlarmTXUComFailure::GetStringValue(int, int, AnsiString &)
                                      12
     ?Subroutine10                     8
     AlarmTXUComFailure::PutFloatValue(int, float)
                                       8
     AlarmTXUComFailure::new AlarmTXUComFailure(PRogramObjectBase *, float)
                                      44
     __sti__routine()                  4
     ??DataTable1                      4
      Others                         336

 
 884 bytes in segment CODE
 116 bytes in segment DATA_C
   4 bytes in segment DATA_Z
   4 bytes in segment DIFUNCT
  12 bytes in segment INITTAB
 
 684 bytes of CODE  memory (+ 216 bytes shared)
 116 bytes of CONST memory
   4 bytes of DATA  memory

Errors: none
Warnings: none
