##############################################################################
#                                                                            #
# IAR ARM ANSI C/C++ Compiler V4.42A/W32               14/Sep/2022  15:12:22 #
# Copyright 1999-2005 IAR Systems. All rights reserved.                      #
#                                                                            #
#    Cpu mode        =  interwork                                            #
#    Endian          =  little                                               #
#    Stack alignment =  4                                                    #
#    Source file     =  D:\S2Prog\Shared\Src\AlarmHighVoltage.Cpp            #
#    Command line    =  D:\S2Prog\Shared\Src\AlarmHighVoltage.Cpp --fpu      #
#                       None -D OS_LIBMODE_SP -D CPU_S3C2410 -D              #
#                       OS_RAMVECT=0 -D OS_UART=-1 -D S2TXU -D USE_LZO=1 -D  #
#                       __ARM_LIBRARY__ -D WATCHDOG=1 -D NETWORK=1 -lCN      #
#                       D:\S2Prog\TXU\Debug\List\ -o                         #
#                       D:\S2Prog\TXU\Debug\Obj\ -z9 --debug --cpu_mode arm  #
#                       --endian little --cpu ARM920T --stack_align 4        #
#                       --interwork -e --enable_multibytes --eec++           #
#                       --dlib_config "C:\Program Files (x86)\IAR            #
#                       Systems\Embedded Workbench                           #
#                       4.0\arm\LIB\dl4tpainl8n.h" -I                        #
#                       D:\S2Prog\TXU\GUI\CORE\ -I D:\S2Prog\TXU\GUI\WM\ -I  #
#                       D:\S2Prog\TXU\GUI\WIDGET\ -I D:\S2Prog\TXU\CONFIG\   #
#                       -I D:\S2Prog\TXU\INC\ -I D:\S2Prog\TXU\..\SHARED\INC #
#                       \ -I D:\S2Prog\TXU\..\SHARED\SRC\ -I                 #
#                       D:\S2Prog\TXU\..\SHARED\LZO\minilzo.210\ -I          #
#                       D:\S2Prog\TXU\lwip-1.4.1\src\include\ -I             #
#                       D:\S2Prog\TXU\lwip-1.4.1\src\include\ipv4\ -I        #
#                       D:\S2Prog\TXU\lwip-1.4.1\src\ -I                     #
#                       D:\S2Prog\TXU\..\SHARED\Database\ -I                 #
#                       D:\S2Prog\TXU\src\ -I "C:\Program Files (x86)\IAR    #
#                       Systems\Embedded Workbench 4.0\arm\INC\"             #
#                       --inline_threshold=2                                 #
#    List file       =  D:\S2Prog\TXU\Debug\List\AlarmHighVoltage.lst        #
#    Object file     =  D:\S2Prog\TXU\Debug\Obj\AlarmHighVoltage.r79         #
#                                                                            #
#                                                                            #
##############################################################################

D:\S2Prog\Shared\Src\AlarmHighVoltage.Cpp
      1          #include "TSNIncludes.h"

   \                                 In segment CODE, align 4, keep-with-next
   \   __??Code32?? __code __interwork __atpcs AlarmHighVoltage::~AlarmHighVoltage()
   \                     `?~AlarmHighVoltage`:
   \   00000000   30402DE9           PUSH     {R4,R5,LR}
   \   00000004   0040A0E1           MOV      R4,R0
   \   00000008   0150A0E1           MOV      R5,R1
   \   0000000C   000054E3           CMP      R4,#+0
   \   00000010   0600000A           BEQ      `?~AlarmHighVoltage_1`
   \   00000014   0100000A           BEQ      `?~AlarmHighVoltage_2`
   \   00000018   0010A0E3           MOV      R1,#+0
   \   0000001C   ........           _BLF     `?~PRogramObjectBase`,`?~PRogramObjectBase??rA`
   \                     `?~AlarmHighVoltage_2`:
   \   00000020   010015E3           TST      R5,#0x1
   \   00000024   0100000A           BEQ      `?~AlarmHighVoltage_1`
   \   00000028   0400A0E1           MOV      R0,R4
   \   0000002C   ........           _BLF     `??operator delete`,`??operator delete??rA`
   \                     `?~AlarmHighVoltage_1`:
   \   00000030   3040BDE8           POP      {R4,R5,LR}
   \   00000034   1EFF2FE1           BX       LR               ;; return
      2          #pragma hdrstop
      3          #ifdef BORLAND
      4          #pragma package(smart_init)
      5          #endif
      6          
      7          //---------------------------------------------------------------------------
      8          

   \                                 In segment DATA_Z, align 4, align-sorted
      9          unsigned AlarmHighVoltage::NumberOfAlarmSettings=0;
   \                     ??NumberOfAlarmSettings:
   \   00000000                      DS8 4
     10          

   \                                 In segment CODE, align 4, keep-with-next
     11          AlarmHighVoltage::AlarmHighVoltage(PRogramObjectBase *PROPtr, float Lim):AlarmBasic(PROPtr)
   \                     ??AlarmHighVoltage:
   \   00000000   70402DE9           PUSH     {R4-R6,LR}
   \   00000004   0040A0E1           MOV      R4,R0
   \   00000008   0160A0E1           MOV      R6,R1
   \   0000000C   0250A0E1           MOV      R5,R2
     12          {
   \   00000010   ........           _BLF     ??AlarmBasic,??AlarmBasic??rA
   \   00000014   64009FE5           LDR      R0,??AlarmHighVoltage_1  ;; ??__vtbl
   \   00000018   A40084E5           STR      R0,[R4, #+164]
     13          	PROPointer = PROPtr;
     14          	NumberOfAlarmSettings++;
   \   0000001C   60009FE5           LDR      R0,??AlarmHighVoltage_1+0x4  ;; ??NumberOfAlarmSettings
   \   00000020   C46084E5           STR      R6,[R4, #+196]
   \   00000024   001090E5           LDR      R1,[R0, #+0]
   \   00000028   011081E2           ADD      R1,R1,#+1
   \   0000002C   001080E5           STR      R1,[R0, #+0]
     15          	IDNumber =  (ID_AL_HI_VOLTAGE << 16)+NumberOfAlarmSettings;
   \   00000030   B006A0E3           MOV      R0,#+184549376
   \   00000034   DF0880E3           ORR      R0,R0,#0xDF0000
   \   00000038   010080E0           ADD      R0,R0,R1
   \   0000003C   9C0084E5           STR      R0,[R4, #+156]
     16          	Type     = ID_AL_HI_VOLTAGE;
   \   00000040   DF00A0E3           MOV      R0,#+223
   \   00000044   B00E80E3           ORR      R0,R0,#0xB00
   \   00000048   A00084E5           STR      R0,[R4, #+160]
     17          	Limit    = Lim;
     18          	Deadband = 0.1;
   \   0000004C   34009FE5           LDR      R0,??AlarmHighVoltage_1+0x8  ;; 0x3dcccccd
   \   00000050   E45084E5           STR      R5,[R4, #+228]
   \   00000054   BC0084E5           STR      R0,[R4, #+188]
     19          	MessageKey		= L_WORD510;	// High Voltage
   \   00000058   FE00A0E3           MOV      R0,#+254
   \   0000005C   400F80E3           ORR      R0,R0,#0x100
   \   00000060   B80084E5           STR      R0,[R4, #+184]
     20          	TPCMessageKey	= L_WORD511;	// HVolt
   \   00000064   010080E3           ORR      R0,R0,#0x1
   \   00000068   B40084E5           STR      R0,[R4, #+180]
     21          	IsHWAlarm       = true;
   \   0000006C   0100A0E3           MOV      R0,#+1
   \   00000070   CE00C4E5           STRB     R0,[R4, #+206]
     22          }
   \   00000074   0400A0E1           MOV      R0,R4
   \   00000078   7040BDE8           POP      {R4-R6,LR}
   \   0000007C   1EFF2FE1           BX       LR               ;; return
   \                     ??AlarmHighVoltage_1:
   \   00000080   ........           DC32     ??__vtbl
   \   00000084   ........           DC32     ??NumberOfAlarmSettings
   \   00000088   CDCCCC3D           DC32     0x3dcccccd
     23          

   \                                 In segment CODE, align 4, keep-with-next
     24          void AlarmHighVoltage::Check(void)
     25          {
   \                     ??Check:
   \   00000000   F0412DE9           PUSH     {R4-R8,LR}
   \   00000004   0040A0E1           MOV      R4,R0
     26          	float Val = ((AIVoltageSensor*)PROPointer)->Calculate();
   \   00000008   C41094E5           LDR      R1,[R4, #+196]
     27          	int Status = AL_STAT_IN_DEADBAND;
   \   0000000C   0260A0E3           MOV      R6,#+2
   \   00000010   0100A0E1           MOV      R0,R1
   \   00000014   A41091E5           LDR      R1,[R1, #+164]
   \   00000018   601091E5           LDR      R1,[R1, #+96]
   \   0000001C   0FE0A0E1           MOV      LR,PC
   \   00000020   11FF2FE1           BX       R1
     28          	if ( Val < Limit - Deadband ) {
   \   00000024   E47094E5           LDR      R7,[R4, #+228]
   \   00000028   BC1094E5           LDR      R1,[R4, #+188]
   \   0000002C   0050A0E1           MOV      R5,R0
   \   00000030   0080A0E1           MOV      R8,R0
   \   00000034   0700A0E1           MOV      R0,R7
   \   00000038   ........           _BLF     __fSub,??__fSub??rA
   \   0000003C   0010A0E1           MOV      R1,R0
   \   00000040   0800A0E1           MOV      R0,R8
   \   00000044   ........           _BLF     __fLess,??__fLess??rA
   \   00000048   000050E3           CMP      R0,#+0
     29          		Status = AL_STAT_IN_NORMAL;
   \   0000004C   0060A013           MOVNE    R6,#+0
   \   00000050   0400001A           BNE      ??Check_1
     30          	} else if ( Val >= Limit ) {
   \   00000054   0500A0E1           MOV      R0,R5
   \   00000058   0710A0E1           MOV      R1,R7
   \   0000005C   ........           _BLF     __fGreaterEqual,??__fGreaterEqual??rA
   \   00000060   000050E3           CMP      R0,#+0
     31          		Status = AL_STAT_IN_ALARM;
   \   00000064   0160A013           MOVNE    R6,#+1
     32          	}
     33          	UpdateAlarm(Status);
   \                     ??Check_1:
   \   00000068   0610A0E1           MOV      R1,R6
   \   0000006C   0400A0E1           MOV      R0,R4
   \   00000070   ........           _BLF     ??UpdateAlarm,??UpdateAlarm??rA
     34          }
   \   00000074   F041BDE8           POP      {R4-R8,LR}
   \   00000078   1EFF2FE1           BX       LR               ;; return
     35          
     36          ///////////////////////////////////////////////////////////////
     37          //
     38          // Routines for the librarian
     39          //
     40          ///////////////////////////////////////////////////////////////
     41          

   \                                 In segment CODE, align 4, keep-with-next
     42          int AlarmHighVoltage::PutValue( int ValueId, int Index, AnsiString NewValue,bool Local, int *UnitId)
     43          {
   \                     ??PutValue:
   \   00000000   F0432DE9           PUSH     {R4-R9,LR}
   \   00000004   40D04DE2           SUB      SP,SP,#+64
   \   00000008   0050A0E1           MOV      R5,R0
   \   0000000C   5C90DDE5           LDRB     R9,[SP, #+92]
   \   00000010   60409DE5           LDR      R4,[SP, #+96]
   \   00000014   0170A0E1           MOV      R7,R1
     44          	int Status = E_NO_ERR, ValUnitId = NO_UNIT;
   \   00000018   0010A0E3           MOV      R1,#+0
   \   0000001C   00108DE5           STR      R1,[SP, #+0]
   \   00000020   04108DE5           STR      R1,[SP, #+4]
     45          	if (Locked) {
   \   00000024   E800D5E5           LDRB     R0,[R5, #+232]
   \   00000028   0280A0E1           MOV      R8,R2
   \   0000002C   0360A0E1           MOV      R6,R3
   \   00000030   000050E3           CMP      R0,#+0
     46          		Status = E_NO_INPUT_PERMISSION;
   \   00000034   2A10A013           MOVNE    R1,#+42
   \   00000038   00108D15           STRNE    R1,[SP, #+0]
   \   0000003C   4F00001A           BNE      ??PutValue_2
     47          	}else switch ( ValueId ) {
   \   00000040   3210A0E3           MOV      R1,#+50
   \   00000044   8C1D81E3           ORR      R1,R1,#0x2300
   \   00000048   010057E1           CMP      R7,R1
   \   0000004C   2B00001A           BNE      ??PutValue_3
     48          		case SVT_AL_LIMIT:
     49          		  {
     50                  float Value = ConvertToSi(NewValue, ValUnitId=VOLTAGE_UNIT, Status,0.0 ,((AIVoltageSensor*)PROPointer)->Calculate(),0.0);
   \   00000050   C41095E5           LDR      R1,[R5, #+196]
   \   00000054   0100A0E1           MOV      R0,R1
   \   00000058   A41091E5           LDR      R1,[R1, #+164]
   \   0000005C   601091E5           LDR      R1,[R1, #+96]
   \   00000060   0FE0A0E1           MOV      LR,PC
   \   00000064   11FF2FE1           BX       R1
   \   00000068   0070A0E1           MOV      R7,R0
   \   0000006C   1210A0E3           MOV      R1,#+18
   \   00000070   04108DE5           STR      R1,[SP, #+4]
   \   00000074   0020A0E3           MOV      R2,#+0
   \   00000078   0010A0E3           MOV      R1,#+0
   \   0000007C   08008DE2           ADD      R0,SP,#+8
   \   00000080   ........           _BLF     ??_Tidy,??_Tidy??rA
   \   00000084   0C019FE5           LDR      R0,??PutValue_4  ;; ??npos
   \   00000088   0020A0E3           MOV      R2,#+0
   \   0000008C   003090E5           LDR      R3,[R0, #+0]
   \   00000090   0610A0E1           MOV      R1,R6
   \   00000094   08008DE2           ADD      R0,SP,#+8
   \   00000098   ........           _BLF     ??assign,??assign??rA
   \   0000009C   0000A0E3           MOV      R0,#+0
   \   000000A0   0010A0E1           MOV      R1,R0
   \   000000A4   03002DE9           PUSH     {R0,R1}
   \   000000A8   0700A0E1           MOV      R0,R7
   \   000000AC   ........           _BLF     __floatToDouble,??__floatToDouble??rA
   \   000000B0   03002DE9           PUSH     {R0,R1}
   \   000000B4   0000A0E3           MOV      R0,#+0
   \   000000B8   0010A0E1           MOV      R1,R0
   \   000000BC   03002DE9           PUSH     {R0,R1}
   \   000000C0   18208DE2           ADD      R2,SP,#+24
   \   000000C4   20008DE2           ADD      R0,SP,#+32
   \   000000C8   0800BDE8           POP      {R3}
   \   000000CC   1210A0E3           MOV      R1,#+18
   \   000000D0   ........           _BLF     ??ConvertToSi,??ConvertToSi??rA
   \   000000D4   0060A0E1           MOV      R6,R0
   \   000000D8   0020A0E3           MOV      R2,#+0
   \   000000DC   0110A0E3           MOV      R1,#+1
   \   000000E0   1C008DE2           ADD      R0,SP,#+28
   \   000000E4   ........           _BLF     ??_Tidy,??_Tidy??rA
     51                  if ( Status== E_NO_ERR ) {
   \   000000E8   14009DE5           LDR      R0,[SP, #+20]
   \   000000EC   14D08DE2           ADD      SP,SP,#+20
   \   000000F0   000050E3           CMP      R0,#+0
   \   000000F4   1900001A           BNE      ??PutValue_5
     52                    Limit = Value;
   \   000000F8   E46085E5           STR      R6,[R5, #+228]
   \   000000FC   170000EA           B        ??PutValue_5
     53                  }
     54                }
     55          			break;
     56          		default:
     57          			Status = AlarmBasic::PutValue(ValueId, Index,NewValue,Local,&ValUnitId);
   \                     ??PutValue_3:
   \   00000100   0020A0E3           MOV      R2,#+0
   \   00000104   0010A0E3           MOV      R1,#+0
   \   00000108   24008DE2           ADD      R0,SP,#+36
   \   0000010C   ........           _BLF     ??_Tidy,??_Tidy??rA
   \   00000110   80009FE5           LDR      R0,??PutValue_4  ;; ??npos
   \   00000114   0020A0E3           MOV      R2,#+0
   \   00000118   003090E5           LDR      R3,[R0, #+0]
   \   0000011C   0610A0E1           MOV      R1,R6
   \   00000120   24008DE2           ADD      R0,SP,#+36
   \   00000124   ........           _BLF     ??assign,??assign??rA
   \   00000128   04008DE2           ADD      R0,SP,#+4
   \   0000012C   01002DE9           PUSH     {R0}
   \   00000130   00022DE9           PUSH     {R9}
   \   00000134   2C308DE2           ADD      R3,SP,#+44
   \   00000138   0820A0E1           MOV      R2,R8
   \   0000013C   0710A0E1           MOV      R1,R7
   \   00000140   0500A0E1           MOV      R0,R5
   \   00000144   ........           _BLF     ??PutValue_1,??PutValue??rA
   \   00000148   08008DE5           STR      R0,[SP, #+8]
   \   0000014C   0020A0E3           MOV      R2,#+0
   \   00000150   0110A0E3           MOV      R1,#+1
   \   00000154   2C008DE2           ADD      R0,SP,#+44
   \   00000158   ........           _BLF     ??_Tidy,??_Tidy??rA
   \   0000015C   08D08DE2           ADD      SP,SP,#+8
     58          			break;
     59          	}
     60          	if ( Status==E_NO_ERR){
   \                     ??PutValue_5:
   \   00000160   00009DE5           LDR      R0,[SP, #+0]
   \   00000164   000050E3           CMP      R0,#+0
   \   00000168   0400001A           BNE      ??PutValue_2
     61          			SetModifiedFlag();
   \   0000016C   A41095E5           LDR      R1,[R5, #+164]
   \   00000170   0500A0E1           MOV      R0,R5
   \   00000174   541091E5           LDR      R1,[R1, #+84]
   \   00000178   0FE0A0E1           MOV      LR,PC
   \   0000017C   11FF2FE1           BX       R1
     62          	}
     63          	if (UnitId) {
   \                     ??PutValue_2:
   \   00000180   000054E3           CMP      R4,#+0
     64          		*UnitId = ValUnitId;
   \   00000184   04009D15           LDRNE    R0,[SP, #+4]
   \   00000188   00008415           STRNE    R0,[R4, #+0]
     65          	}
     66          	return(Status);
   \   0000018C   00009DE5           LDR      R0,[SP, #+0]
   \   00000190   40D08DE2           ADD      SP,SP,#+64
   \   00000194   ........           B        ?Subroutine8
   \                     ??PutValue_4:
   \   00000198   ........           DC32     ??npos
     67          }

   \                                 In segment CODE, align 4, keep-with-next
   \                     ?Subroutine8:
   \   00000000   F043BDE8           POP      {R4-R9,LR}
   \   00000004   1EFF2FE1           BX       LR               ;; return
     68          

   \                                 In segment CODE, align 4, keep-with-next
     69          int  AlarmHighVoltage::GetValue(int ValueId, int Index, float &MyRetValue, int &DecPnt, int &Unit)
     70          {
   \                     ??GetValue:
   \   00000000   F0432DE9           PUSH     {R4-R9,LR}
   \   00000004   1C609DE5           LDR      R6,[SP, #+28]
   \   00000008   20709DE5           LDR      R7,[SP, #+32]
   \   0000000C   0350A0E1           MOV      R5,R3
     71          	int Status = GETVAL_NO_ERR;
   \   00000010   0040A0E3           MOV      R4,#+0
     72          	switch ( ValueId ) {
   \   00000014   1280A0E3           MOV      R8,#+18
   \   00000018   0190A0E3           MOV      R9,#+1
   \   0000001C   323041E2           SUB      R3,R1,#+50
   \   00000020   8C3D43E2           SUB      R3,R3,#+8960
   \   00000024   010053E3           CMP      R3,#+1
   \   00000028   0F00008A           BHI      ??GetValue_3
   \   0000002C   01CF8FE2           ADR      R12,??GetValue_1
   \   00000030   03C0DCE7           LDRB     R12,[R12, R3]
   \   00000034   0CF18FE0           ADD      PC,PC,R12, LSL #+2
   \                     ??GetValue_1:
   \   00000038   00050000           DC8      +0,+5,+0,+0
     73          		case SVT_AL_LIMIT:
     74          			MyRetValue = Limit;
   \                     ??GetValue_4:
   \   0000003C   E40090E5           LDR      R0,[R0, #+228]
   \                     ??GetValue_5:
   \   00000040   000085E5           STR      R0,[R5, #+0]
     75          			DecPnt     = 1;
   \   00000044   009086E5           STR      R9,[R6, #+0]
     76          			Unit       = VOLTAGE_UNIT;
   \   00000048   008087E5           STR      R8,[R7, #+0]
   \   0000004C   0C0000EA           B        ??GetValue_6
     77          			break;
     78          		case SVT_AL_VALUE:
     79          				MyRetValue = ((AIVoltageSensor*)PROPointer)->Calculate();
   \                     ??GetValue_7:
   \   00000050   C41090E5           LDR      R1,[R0, #+196]
   \   00000054   0100A0E1           MOV      R0,R1
   \   00000058   A41091E5           LDR      R1,[R1, #+164]
   \   0000005C   601091E5           LDR      R1,[R1, #+96]
   \   00000060   0FE0A0E1           MOV      LR,PC
   \   00000064   11FF2FE1           BX       R1
   \   00000068   F4FFFFEA           B        ??GetValue_5
     80          				DecPnt     = 1;
     81          				Unit       = VOLTAGE_UNIT;
     82          			break;
     83          		default:
     84          			Status = AlarmBasic::GetValue(ValueId, Index, MyRetValue, DecPnt, Unit);
   \                     ??GetValue_3:
   \   0000006C   80002DE9           PUSH     {R7}
   \   00000070   40002DE9           PUSH     {R6}
   \   00000074   0530A0E1           MOV      R3,R5
   \   00000078   ........           _BLF     ??GetValue_2,??GetValue??rA
   \   0000007C   0040A0E1           MOV      R4,R0
   \   00000080   08D08DE2           ADD      SP,SP,#+8
     85          			break;
     86          	}
     87          	return(Status);
   \                     ??GetValue_6:
   \   00000084   0400A0E1           MOV      R0,R4
   \   00000088                      REQUIRE ?Subroutine8
   \   00000088                      ;; // Fall through to label ?Subroutine8
     88          }
     89          

   \                                 In segment CODE, align 4, keep-with-next
     90          int AlarmHighVoltage::GetStringValue(int ValueId, int Index, AnsiString &MyString)
     91          {
   \                     ??GetStringValue:
   \   00000000   00402DE9           PUSH     {LR}
     92          	int Status = GETVAL_NO_ERR;
     93          	//switch ( ValueId ) {
     94          	//	default:
     95                Status = AlarmBasic::GetStringValue(ValueId,Index, MyString);
     96          	//		break;
     97          	//}
     98          	return(Status);
   \   00000004   ........           _BLF     ??GetStringValue_1,??GetStringValue??rA
   \   00000008   ........           B        ?Subroutine9
     99          }

   \                                 In segment CODE, align 4, keep-with-next
   \                     ?Subroutine9:
   \   00000000   0040BDE8           POP      {LR}
   \   00000004   1EFF2FE1           BX       LR               ;; return
    100          

   \                                 In segment CODE, align 4, keep-with-next
    101          int AlarmHighVoltage::PutFloatValue( int ValueId, float NewValue)
    102          {
   \                     ??PutFloatValue:
   \   00000000   00402DE9           PUSH     {LR}
    103          	int Status= E_NO_ERR;
    104          	//switch ( ValueId ) {
    105           //   default:
    106                Status = AlarmBasic::PutFloatValue(ValueId, NewValue);
    107           //     break;
    108          	//}
    109          	return (Status);
   \   00000004   ........           _BLF     ??PutFloatValue_1,??PutFloatValue??rA
   \   00000008                      REQUIRE ?Subroutine9
   \   00000008                      ;; // Fall through to label ?Subroutine9
    110          }

   \                                 In segment DIFUNCT, align 4, keep-with-next, root
   \   00000000                      REQUIRE ?call_ctors
   \   00000000   ........           DC32    ??__sti__routine

   \                                 In segment CODE, align 4, keep-with-next
   \   __??Code32?? __code __interwork __atpcs AlarmHighVoltage &AlarmHighVoltage::new AlarmHighVoltage(PRogramObjectBase *, float)
   \                     `??new AlarmHighVoltage`:
   \   00000000   30402DE9           PUSH     {R4,R5,LR}
   \   00000004   0040A0E1           MOV      R4,R0
   \   00000008   0150A0E1           MOV      R5,R1
   \   0000000C   EC00A0E3           MOV      R0,#+236
   \   00000010   ........           _BLF     `??operator new`,`??operator new??rA`
   \   00000014   000050E3           CMP      R0,#+0
   \   00000018   0200000A           BEQ      `??new AlarmHighVoltage_1`
   \   0000001C   0520A0E1           MOV      R2,R5
   \   00000020   0410A0E1           MOV      R1,R4
   \   00000024   ........           BL       ??AlarmHighVoltage
   \                     `??new AlarmHighVoltage_1`:
   \   00000028   3040BDE8           POP      {R4,R5,LR}
   \   0000002C   1EFF2FE1           BX       LR               ;; return

   \                                 In segment CODE, align 4, keep-with-next
   \   static __??Code32?? __intrinsic __code __interwork __atpcs void __sti__routine()
   \                     ??__sti__routine:
   \   00000000   1EFF2FE1           BX       LR               ;; return
    111          

   Maximum stack usage in bytes:

     Function                       CSTACK
     --------                       ------
     AlarmHighVoltage::AlarmHighVoltage(PRogramObjectBase *, float)
                                       16
     AlarmHighVoltage::Check()         24
     AlarmHighVoltage::GetStringValue(int, int, AnsiString &)
                                        4
     AlarmHighVoltage::GetValue(int, int, float &, int &, int &)
                                       36
     AlarmHighVoltage::PutFloatValue(int, float)
                                        4
     AlarmHighVoltage::PutValue(int, int, AnsiString, bool, int *)
                                      116
     AlarmHighVoltage::new AlarmHighVoltage(PRogramObjectBase *, float)
                                       12
     AlarmHighVoltage::~AlarmHighVoltage()
                                       12
     __sti__routine()                   0


   Segment part sizes:

     Function/Label                 Bytes
     --------------                 -----
     AlarmHighVoltage::~AlarmHighVoltage()
                                      56
     AlarmHighVoltage::NumberOfAlarmSettings
                                       4
     AlarmHighVoltage::AlarmHighVoltage(PRogramObjectBase *, float)
                                     140
     AlarmHighVoltage::Check()       124
     AlarmHighVoltage::PutValue(int, int, AnsiString, bool, int *)
                                     412
     ?Subroutine8                      8
     AlarmHighVoltage::GetValue(int, int, float &, int &, int &)
                                     136
     AlarmHighVoltage::GetStringValue(int, int, AnsiString &)
                                      12
     ?Subroutine9                      8
     AlarmHighVoltage::PutFloatValue(int, float)
                                       8
     AlarmHighVoltage::new AlarmHighVoltage(PRogramObjectBase *, float)
                                      48
     __sti__routine()                  4
      Others                         356

 
 1 180 bytes in segment CODE
   116 bytes in segment DATA_C
     4 bytes in segment DATA_Z
     4 bytes in segment DIFUNCT
    12 bytes in segment INITTAB
 
 904 bytes of CODE  memory (+ 292 bytes shared)
 116 bytes of CONST memory
   4 bytes of DATA  memory

Errors: none
Warnings: none
