##############################################################################
#                                                                            #
# IAR ARM ANSI C/C++ Compiler V4.42A/W32               14/Sep/2022  15:12:57 #
# Copyright 1999-2005 IAR Systems. All rights reserved.                      #
#                                                                            #
#    Cpu mode        =  interwork                                            #
#    Endian          =  little                                               #
#    Stack alignment =  4                                                    #
#    Source file     =  D:\S2Prog\Shared\Src\AlarmModbusInCoil.cpp           #
#    Command line    =  D:\S2Prog\Shared\Src\AlarmModbusInCoil.cpp --fpu     #
#                       None -D OS_LIBMODE_SP -D CPU_S3C2410 -D              #
#                       OS_RAMVECT=0 -D OS_UART=-1 -D S2TXU -D USE_LZO=1 -D  #
#                       __ARM_LIBRARY__ -D WATCHDOG=1 -D NETWORK=1 -lCN      #
#                       D:\S2Prog\TXU\Debug\List\ -o                         #
#                       D:\S2Prog\TXU\Debug\Obj\ -z9 --debug --cpu_mode arm  #
#                       --endian little --cpu ARM920T --stack_align 4        #
#                       --interwork -e --enable_multibytes --eec++           #
#                       --dlib_config "C:\Program Files (x86)\IAR            #
#                       Systems\Embedded Workbench                           #
#                       4.0\arm\LIB\dl4tpainl8n.h" -I                        #
#                       D:\S2Prog\TXU\GUI\CORE\ -I D:\S2Prog\TXU\GUI\WM\ -I  #
#                       D:\S2Prog\TXU\GUI\WIDGET\ -I D:\S2Prog\TXU\CONFIG\   #
#                       -I D:\S2Prog\TXU\INC\ -I D:\S2Prog\TXU\..\SHARED\INC #
#                       \ -I D:\S2Prog\TXU\..\SHARED\SRC\ -I                 #
#                       D:\S2Prog\TXU\..\SHARED\LZO\minilzo.210\ -I          #
#                       D:\S2Prog\TXU\lwip-1.4.1\src\include\ -I             #
#                       D:\S2Prog\TXU\lwip-1.4.1\src\include\ipv4\ -I        #
#                       D:\S2Prog\TXU\lwip-1.4.1\src\ -I                     #
#                       D:\S2Prog\TXU\..\SHARED\Database\ -I                 #
#                       D:\S2Prog\TXU\src\ -I "C:\Program Files (x86)\IAR    #
#                       Systems\Embedded Workbench 4.0\arm\INC\"             #
#                       --inline_threshold=2                                 #
#    List file       =  D:\S2Prog\TXU\Debug\List\AlarmModbusInCoil.lst       #
#    Object file     =  D:\S2Prog\TXU\Debug\Obj\AlarmModbusInCoil.r79        #
#                                                                            #
#                                                                            #
##############################################################################

D:\S2Prog\Shared\Src\AlarmModbusInCoil.cpp
      1          #include "TSNIncludes.h"

   \                                 In segment CODE, align 4, keep-with-next
   \   __??Code32?? __code __interwork __atpcs AlarmModbusInCoil::~AlarmModbusInCoil()
   \                     `?~AlarmModbusInCoil`:
   \   00000000   30402DE9           PUSH     {R4,R5,LR}
   \   00000004   0040A0E1           MOV      R4,R0
   \   00000008   0150A0E1           MOV      R5,R1
   \   0000000C   000054E3           CMP      R4,#+0
   \   00000010   0600000A           BEQ      `?~AlarmModbusInCoil_1`
   \   00000014   0100000A           BEQ      `?~AlarmModbusInCoil_2`
   \   00000018   0010A0E3           MOV      R1,#+0
   \   0000001C   ........           _BLF     `?~PRogramObjectBase`,`?~PRogramObjectBase??rA`
   \                     `?~AlarmModbusInCoil_2`:
   \   00000020   010015E3           TST      R5,#0x1
   \   00000024   0100000A           BEQ      `?~AlarmModbusInCoil_1`
   \   00000028   0400A0E1           MOV      R0,R4
   \   0000002C   ........           _BLF     `??operator delete`,`??operator delete??rA`
   \                     `?~AlarmModbusInCoil_1`:
   \   00000030   3040BDE8           POP      {R4,R5,LR}
   \   00000034   1EFF2FE1           BX       LR               ;; return
      2          #pragma hdrstop
      3          #ifdef BORLAND
      4          	#pragma package(smart_init)
      5          #endif
      6          
      7          //---------------------------------------------------------------------------
      8          

   \                                 In segment DATA_Z, align 4, align-sorted
      9          unsigned AlarmModbusInCoil::NumberOfAlarmSettings=0;
   \                     ??NumberOfAlarmSettings:
   \   00000000                      DS8 4
     10          

   \                                 In segment CODE, align 4, keep-with-next
     11          AlarmModbusInCoil::AlarmModbusInCoil(PRogramObjectBase *PROPtr, AnsiString LocName, AnsiString Descr):AlarmBasic(PROPtr)
   \                     ??AlarmModbusInCoil:
   \   00000000   F0402DE9           PUSH     {R4-R7,LR}
   \   00000004   0040A0E1           MOV      R4,R0
   \   00000008   0170A0E1           MOV      R7,R1
   \   0000000C   0250A0E1           MOV      R5,R2
   \   00000010   0360A0E1           MOV      R6,R3
     12          {
   \   00000014   ........           _BLF     ??AlarmBasic,??AlarmBasic??rA
   \   00000018   90009FE5           LDR      R0,??AlarmModbusInCoil_1  ;; ??__vtbl
   \   0000001C   A40084E5           STR      R0,[R4, #+164]
     13          	PROPointer  = PROPtr;
     14          	NumberOfAlarmSettings++;
   \   00000020   8C009FE5           LDR      R0,??AlarmModbusInCoil_1+0x4  ;; ??NumberOfAlarmSettings
   \   00000024   C47084E5           STR      R7,[R4, #+196]
   \   00000028   001090E5           LDR      R1,[R0, #+0]
   \   0000002C   011081E2           ADD      R1,R1,#+1
   \   00000030   001080E5           STR      R1,[R0, #+0]
     15          	IDNumber      = (ID_AL_MODBUS_INPUT_STATUS << 16)+NumberOfAlarmSettings;
   \   00000034   C006A0E3           MOV      R0,#+201326592
   \   00000038   A20880E3           ORR      R0,R0,#0xA20000
   \   0000003C   010080E0           ADD      R0,R0,R1
   \   00000040   9C0084E5           STR      R0,[R4, #+156]
     16          	Type          = ID_AL_MODBUS_INPUT_STATUS;
   \   00000044   A200A0E3           MOV      R0,#+162
   \   00000048   C00E80E3           ORR      R0,R0,#0xC00
   \   0000004C   A00084E5           STR      R0,[R4, #+160]
     17          	Limit         = 0.0;
   \   00000050   0000A0E3           MOV      R0,#+0
   \   00000054   E40084E5           STR      R0,[R4, #+228]
     18          	Deadband      = ((ModbusCoilIn*)PROPointer)->GetAlarmDelay();
   \   00000058   C40094E5           LDR      R0,[R4, #+196]
   \   0000005C   ........           _BLF     ??GetAlarmDelay,??GetAlarmDelay??rA
   \   00000060   ........           _BLF     __longToFloat,??__longToFloat??rA
   \   00000064   BC0084E5           STR      R0,[R4, #+188]
     19          	Name          = LocName;
   \   00000068   ........           LDR      R0,??DataTable2  ;; ??npos
   \   0000006C   0020A0E3           MOV      R2,#+0
   \   00000070   007090E5           LDR      R7,[R0, #+0]
   \   00000074   0510A0E1           MOV      R1,R5
   \   00000078   0730A0E1           MOV      R3,R7
   \   0000007C   440084E2           ADD      R0,R4,#+68
   \   00000080   ........           _BLF     ??assign,??assign??rA
     20          	Description   = Descr;
   \   00000084   0730A0E1           MOV      R3,R7
   \   00000088   0020A0E3           MOV      R2,#+0
   \   0000008C   0610A0E1           MOV      R1,R6
   \   00000090   7C0084E2           ADD      R0,R4,#+124
   \   00000094   ........           _BLF     ??assign,??assign??rA
     21          	MessageKey    = L_WORD237;	// Blank
   \   00000098   ED00A0E3           MOV      R0,#+237
   \   0000009C   B80084E5           STR      R0,[R4, #+184]
     22          	TPCMessageKey = L_WORD237;	// Blank
   \   000000A0   B40084E5           STR      R0,[R4, #+180]
     23          
     24          }
   \   000000A4   0400A0E1           MOV      R0,R4
   \   000000A8   F040BDE8           POP      {R4-R7,LR}
   \   000000AC   1EFF2FE1           BX       LR               ;; return
   \                     ??AlarmModbusInCoil_1:
   \   000000B0   ........           DC32     ??__vtbl
   \   000000B4   ........           DC32     ??NumberOfAlarmSettings
     25          

   \                                 In segment CODE, align 4, keep-with-next
     26          AnsiString AlarmModbusInCoil::Get_Message(void)
     27          {
   \                     ??Get_Message:
   \   00000000   30402DE9           PUSH     {R4,R5,LR}
   \   00000004   0040A0E1           MOV      R4,R0
   \   00000008   0150A0E1           MOV      R5,R1
     28          	return(Description);
   \   0000000C   0020A0E3           MOV      R2,#+0
   \   00000010   0010A0E3           MOV      R1,#+0
   \   00000014   0500A0E1           MOV      R0,R5
   \   00000018   ........           _BLF     ??_Tidy,??_Tidy??rA
   \   0000001C   ........           LDR      R0,??DataTable2  ;; ??npos
   \   00000020   0020A0E3           MOV      R2,#+0
   \   00000024   003090E5           LDR      R3,[R0, #+0]
   \   00000028   7C1084E2           ADD      R1,R4,#+124
   \   0000002C   0500A0E1           MOV      R0,R5
   \   00000030   ........           _BLF     ??assign,??assign??rA
   \   00000034   3040BDE8           POP      {R4,R5,LR}
   \   00000038   1EFF2FE1           BX       LR               ;; return
     29          }
     30          
     31          

   \                                 In segment CODE, align 4, keep-with-next
     32          void AlarmModbusInCoil::Check(void)
     33          {
   \                     ??Check:
   \   00000000   70402DE9           PUSH     {R4-R6,LR}
   \   00000004   0040A0E1           MOV      R4,R0
     34          	bool IsActive = ((ModbusObject*)PROPointer)->IsActive;
     35          
     36          	int Status = AL_STAT_IN_DEADBAND;
     37          	if ( IsActive ) {
   \   00000008   C40094E5           LDR      R0,[R4, #+196]
   \   0000000C   0250A0E3           MOV      R5,#+2
   \   00000010   7901D0E5           LDRB     R0,[R0, #+377]
   \   00000014   000050E3           CMP      R0,#+0
     38          		Status = AL_STAT_IN_ALARM;
   \   00000018   0150A013           MOVNE    R5,#+1
   \   0000001C   0800001A           BNE      ??Check_1
     39          	} else if (TSNElapsedTicks(LastActiveTime) > Deadband ) {
   \   00000020   BC6094E5           LDR      R6,[R4, #+188]
   \   00000024   C00094E5           LDR      R0,[R4, #+192]
   \   00000028   ........           _BLF     ??TSNElapsedTicks,??TSNElapsedTicks??rA
   \   0000002C   ........           _BLF     __longToFloat,??__longToFloat??rA
   \   00000030   0010A0E1           MOV      R1,R0
   \   00000034   0600A0E1           MOV      R0,R6
   \   00000038   ........           _BLF     __fLess,??__fLess??rA
   \   0000003C   000050E3           CMP      R0,#+0
     40          		Status = AL_STAT_IN_NORMAL;
   \   00000040   0050A013           MOVNE    R5,#+0
     41          	}
     42          	UpdateAlarm(Status);
   \                     ??Check_1:
   \   00000044   0510A0E1           MOV      R1,R5
   \   00000048   0400A0E1           MOV      R0,R4
   \   0000004C   ........           _BLF     ??UpdateAlarm,??UpdateAlarm??rA
     43          }
   \   00000050                      REQUIRE ?Subroutine9
   \   00000050                      ;; // Fall through to label ?Subroutine9

   \                                 In segment CODE, align 4, keep-with-next
   \                     ?Subroutine9:
   \   00000000   7040BDE8           POP      {R4-R6,LR}
   \   00000004   1EFF2FE1           BX       LR               ;; return
     44          
     45          ///////////////////////////////////////////////////////////////
     46          //
     47          // Routines for the librarian
     48          //
     49          ///////////////////////////////////////////////////////////////
     50          

   \                                 In segment CODE, align 4, keep-with-next
     51          int AlarmModbusInCoil::PutValue( int ValueId, int Index, AnsiString NewValue,bool Local, int *UnitId)
     52          {
   \                     ??PutValue:
   \   00000000   F0432DE9           PUSH     {R4-R9,LR}
   \   00000004   20D04DE2           SUB      SP,SP,#+32
   \   00000008   3C80DDE5           LDRB     R8,[SP, #+60]
   \   0000000C   40909DE5           LDR      R9,[SP, #+64]
   \   00000010   0040A0E1           MOV      R4,R0
   \   00000014   0150A0E1           MOV      R5,R1
   \   00000018   0260A0E1           MOV      R6,R2
   \   0000001C   0370A0E1           MOV      R7,R3
     53          	int Status = E_NO_ERR, ValUnitId = NO_UNIT;
   \   00000020   0010A0E3           MOV      R1,#+0
   \   00000024   00108DE5           STR      R1,[SP, #+0]
     54          	switch ( ValueId ) {
   \   00000028   3210A0E3           MOV      R1,#+50
   \   0000002C   8C1D81E3           ORR      R1,R1,#0x2300
   \   00000030   010055E1           CMP      R5,R1
     55          		case SVT_AL_LIMIT:
     56          			Status = E_NOT_ADJUSTABLE;
   \   00000034   2950A003           MOVEQ    R5,#+41
   \   00000038   1E00000A           BEQ      ??PutValue_2
     57          			break;
     58          		default:
     59          			Status = AlarmBasic::PutValue(ValueId, Index,NewValue,Local,&ValUnitId);
   \   0000003C   0020A0E3           MOV      R2,#+0
   \   00000040   0010A0E3           MOV      R1,#+0
   \   00000044   04008DE2           ADD      R0,SP,#+4
   \   00000048   ........           _BLF     ??_Tidy,??_Tidy??rA
   \   0000004C   ........           LDR      R0,??DataTable2  ;; ??npos
   \   00000050   0020A0E3           MOV      R2,#+0
   \   00000054   003090E5           LDR      R3,[R0, #+0]
   \   00000058   0710A0E1           MOV      R1,R7
   \   0000005C   04008DE2           ADD      R0,SP,#+4
   \   00000060   ........           _BLF     ??assign,??assign??rA
   \   00000064   0D00A0E1           MOV      R0,SP
   \   00000068   01002DE9           PUSH     {R0}
   \   0000006C   00012DE9           PUSH     {R8}
   \   00000070   0C308DE2           ADD      R3,SP,#+12
   \   00000074   0620A0E1           MOV      R2,R6
   \   00000078   0510A0E1           MOV      R1,R5
   \   0000007C   0400A0E1           MOV      R0,R4
   \   00000080   ........           _BLF     ??PutValue_1,??PutValue??rA
   \   00000084   0050A0E1           MOV      R5,R0
   \   00000088   0020A0E3           MOV      R2,#+0
   \   0000008C   0110A0E3           MOV      R1,#+1
   \   00000090   0C008DE2           ADD      R0,SP,#+12
   \   00000094   ........           _BLF     ??_Tidy,??_Tidy??rA
     60          			break;
     61          	}
     62          	if ( Status==E_NO_ERR ) {
   \   00000098   000055E3           CMP      R5,#+0
   \   0000009C   08D08DE2           ADD      SP,SP,#+8
   \   000000A0   0400001A           BNE      ??PutValue_2
     63          		SetModifiedFlag();
   \   000000A4   A41094E5           LDR      R1,[R4, #+164]
   \   000000A8   0400A0E1           MOV      R0,R4
   \   000000AC   541091E5           LDR      R1,[R1, #+84]
   \   000000B0   0FE0A0E1           MOV      LR,PC
   \   000000B4   11FF2FE1           BX       R1
     64          	}
     65          	if (UnitId) {
   \                     ??PutValue_2:
   \   000000B8   000059E3           CMP      R9,#+0
     66          		*UnitId = ValUnitId;
   \   000000BC   00009D15           LDRNE    R0,[SP, #+0]
   \   000000C0   00008915           STRNE    R0,[R9, #+0]
     67          	}
     68          	return(Status);
   \   000000C4   0500A0E1           MOV      R0,R5
   \   000000C8   20D08DE2           ADD      SP,SP,#+32
   \   000000CC   F043BDE8           POP      {R4-R9,LR}
   \   000000D0   1EFF2FE1           BX       LR               ;; return
     69          }
     70          

   \                                 In segment CODE, align 4, keep-with-next
     71          int  AlarmModbusInCoil::GetValue(int ValueId, int Index, float &MyRetValue, int &DecPnt, int &Unit)
     72          {
   \                     ??GetValue:
   \   00000000   F0412DE9           PUSH     {R4-R8,LR}
   \   00000004   18509DE5           LDR      R5,[SP, #+24]
   \   00000008   1C609DE5           LDR      R6,[SP, #+28]
   \   0000000C   0340A0E1           MOV      R4,R3
     73          	int Status = GETVAL_NO_ERR;
   \   00000010   0070A0E3           MOV      R7,#+0
     74          	switch ( ValueId ) {
   \   00000014   0080A0E3           MOV      R8,#+0
   \   00000018   323041E2           SUB      R3,R1,#+50
   \   0000001C   8C3D43E2           SUB      R3,R3,#+8960
   \   00000020   010053E3           CMP      R3,#+1
   \   00000024   0C00008A           BHI      ??GetValue_3
   \   00000028   01CF8FE2           ADR      R12,??GetValue_1
   \   0000002C   03C0DCE7           LDRB     R12,[R12, R3]
   \   00000030   0CF18FE0           ADD      PC,PC,R12, LSL #+2
   \                     ??GetValue_1:
   \   00000034   00050000           DC8      +0,+5,+0,+0
     75          		case SVT_AL_LIMIT:
     76          			MyRetValue = 1.0;
   \                     ??GetValue_4:
   \   00000038   FE05A0E3           MOV      R0,#+1065353216
   \                     ??GetValue_5:
   \   0000003C   000084E5           STR      R0,[R4, #+0]
     77          			DecPnt     = 0;
   \   00000040   008085E5           STR      R8,[R5, #+0]
     78          			Unit       = NO_UNIT;
   \   00000044   008086E5           STR      R8,[R6, #+0]
   \   00000048   090000EA           B        ??GetValue_6
     79          			break;
     80          		case SVT_AL_VALUE:
     81          			MyRetValue = (float)((ModbusCoilIn*)PROPointer)->IsActive;
   \                     ??GetValue_7:
   \   0000004C   C40090E5           LDR      R0,[R0, #+196]
   \   00000050   7901D0E5           LDRB     R0,[R0, #+377]
   \   00000054   ........           _BLF     __ulongToFloat,??__ulongToFloat??rA
   \   00000058   F7FFFFEA           B        ??GetValue_5
     82          			DecPnt     = 0;
     83          			Unit       = NO_UNIT;
     84          			break;
     85          		default:
     86          			Status = AlarmBasic::GetValue(ValueId, Index, MyRetValue, DecPnt, Unit);
   \                     ??GetValue_3:
   \   0000005C   40002DE9           PUSH     {R6}
   \   00000060   20002DE9           PUSH     {R5}
   \   00000064   0430A0E1           MOV      R3,R4
   \   00000068   ........           _BLF     ??GetValue_2,??GetValue??rA
   \   0000006C   0070A0E1           MOV      R7,R0
   \   00000070   08D08DE2           ADD      SP,SP,#+8
     87          			break;
     88          	}
     89          	return(Status);
   \                     ??GetValue_6:
   \   00000074   0700A0E1           MOV      R0,R7
   \   00000078   F041BDE8           POP      {R4-R8,LR}
   \   0000007C   1EFF2FE1           BX       LR               ;; return
     90          }
     91          

   \                                 In segment CODE, align 4, keep-with-next
     92          int AlarmModbusInCoil::GetStringValue(int ValueId, int Index, AnsiString &MyString)
     93          {
   \                     ??GetStringValue:
   \   00000000   00402DE9           PUSH     {LR}
     94          	int Status = GETVAL_NO_ERR;
     95          	//switch ( ValueId ) {
     96          	//	default:
     97          	Status = AlarmBasic::GetStringValue(ValueId,Index, MyString);
     98          	//		break;
     99          	//}
    100          	return(Status);
   \   00000004   ........           _BLF     ??GetStringValue_1,??GetStringValue??rA
   \   00000008   ........           B        ?Subroutine10
    101          }

   \                                 In segment CODE, align 4, keep-with-next
   \                     ?Subroutine10:
   \   00000000   0040BDE8           POP      {LR}
   \   00000004   1EFF2FE1           BX       LR               ;; return
    102          

   \                                 In segment CODE, align 4, keep-with-next
    103          int AlarmModbusInCoil::PutFloatValue( int ValueId, float NewValue)
    104          {
   \                     ??PutFloatValue:
   \   00000000   00402DE9           PUSH     {LR}
    105          	int Status= E_NO_ERR;
    106          	//switch ( ValueId ) {
    107          	//   default:
    108          	Status = AlarmBasic::PutFloatValue(ValueId, NewValue);
    109          	//     break;
    110          	//}
    111          	return(Status);
   \   00000004   ........           _BLF     ??PutFloatValue_1,??PutFloatValue??rA
   \   00000008                      REQUIRE ?Subroutine10
   \   00000008                      ;; // Fall through to label ?Subroutine10
    112          }

   \                                 In segment DIFUNCT, align 4, keep-with-next, root
   \   00000000                      REQUIRE ?call_ctors
   \   00000000   ........           DC32    ??__sti__routine

   \                                 In segment CODE, align 4, keep-with-next
   \   __??Code32?? __code __interwork __atpcs AlarmModbusInCoil &AlarmModbusInCoil::new AlarmModbusInCoil(PRogramObjectBase *, AnsiString, AnsiString)
   \                     `??new AlarmModbusInCoil`:
   \   00000000   70402DE9           PUSH     {R4-R6,LR}
   \   00000004   0040A0E1           MOV      R4,R0
   \   00000008   0150A0E1           MOV      R5,R1
   \   0000000C   0260A0E1           MOV      R6,R2
   \   00000010   EC00A0E3           MOV      R0,#+236
   \   00000014   ........           _BLF     `??operator new`,`??operator new??rA`
   \   00000018   000050E3           CMP      R0,#+0
   \   0000001C   0300000A           BEQ      `??new AlarmModbusInCoil_1`
   \   00000020   0630A0E1           MOV      R3,R6
   \   00000024   0520A0E1           MOV      R2,R5
   \   00000028   0410A0E1           MOV      R1,R4
   \   0000002C   ........           BL       ??AlarmModbusInCoil
   \                     `??new AlarmModbusInCoil_1`:
   \   00000030   ........           B        ?Subroutine9

   \                                 In segment CODE, align 4, keep-with-next
   \   static __??Code32?? __intrinsic __code __interwork __atpcs void __sti__routine()
   \                     ??__sti__routine:
   \   00000000   1EFF2FE1           BX       LR               ;; return

   \                                 In segment CODE, align 4, keep-with-next
   \                     ??DataTable2:
   \   00000000   ........           DC32     ??npos
    113          

   Maximum stack usage in bytes:

     Function                       CSTACK
     --------                       ------
     AlarmModbusInCoil::AlarmModbusInCoil(PRogramObjectBase *, AnsiString, AnsiString)
                                       20
     AlarmModbusInCoil::Check()        16
     AlarmModbusInCoil::GetStringValue(int, int, AnsiString &)
                                        4
     AlarmModbusInCoil::GetValue(int, int, float &, int &, int &)
                                       32
     AlarmModbusInCoil::Get_Message()
                                       12
     AlarmModbusInCoil::PutFloatValue(int, float)
                                        4
     AlarmModbusInCoil::PutValue(int, int, AnsiString, bool, int *)
                                       68
     AlarmModbusInCoil::new AlarmModbusInCoil(PRogramObjectBase *, AnsiString, AnsiString)
                                       16
     AlarmModbusInCoil::~AlarmModbusInCoil()
                                       12
     __sti__routine()                   0


   Segment part sizes:

     Function/Label                 Bytes
     --------------                 -----
     AlarmModbusInCoil::~AlarmModbusInCoil()
                                      56
     AlarmModbusInCoil::NumberOfAlarmSettings
                                       4
     AlarmModbusInCoil::AlarmModbusInCoil(PRogramObjectBase *, AnsiString, AnsiString)
                                     184
     AlarmModbusInCoil::Get_Message()
                                      60
     AlarmModbusInCoil::Check()       80
     ?Subroutine9                      8
     AlarmModbusInCoil::PutValue(int, int, AnsiString, bool, int *)
                                     212
     AlarmModbusInCoil::GetValue(int, int, float &, int &, int &)
                                     128
     AlarmModbusInCoil::GetStringValue(int, int, AnsiString &)
                                      12
     ?Subroutine10                     8
     AlarmModbusInCoil::PutFloatValue(int, float)
                                       8
     AlarmModbusInCoil::new AlarmModbusInCoil(PRogramObjectBase *, AnsiString, AnsiString)
                                      52
     __sti__routine()                  4
     ??DataTable2                      4
      Others                         360

 
 1 044 bytes in segment CODE
   116 bytes in segment DATA_C
     4 bytes in segment DATA_Z
     4 bytes in segment DIFUNCT
    12 bytes in segment INITTAB
 
 764 bytes of CODE  memory (+ 296 bytes shared)
 116 bytes of CONST memory
   4 bytes of DATA  memory

Errors: none
Warnings: none
