##############################################################################
#                                                                            #
# IAR ARM ANSI C/C++ Compiler V4.42A/W32               14/Sep/2022  15:13:05 #
# Copyright 1999-2005 IAR Systems. All rights reserved.                      #
#                                                                            #
#    Cpu mode        =  interwork                                            #
#    Endian          =  little                                               #
#    Stack alignment =  4                                                    #
#    Source file     =  D:\S2Prog\Shared\Src\AlarmTCMPresetTimePassed.cpp    #
#    Command line    =  D:\S2Prog\Shared\Src\AlarmTCMPresetTimePassed.cpp    #
#                       --fpu None -D OS_LIBMODE_SP -D CPU_S3C2410 -D        #
#                       OS_RAMVECT=0 -D OS_UART=-1 -D S2TXU -D USE_LZO=1 -D  #
#                       __ARM_LIBRARY__ -D WATCHDOG=1 -D NETWORK=1 -lCN      #
#                       D:\S2Prog\TXU\Debug\List\ -o                         #
#                       D:\S2Prog\TXU\Debug\Obj\ -z9 --debug --cpu_mode arm  #
#                       --endian little --cpu ARM920T --stack_align 4        #
#                       --interwork -e --enable_multibytes --eec++           #
#                       --dlib_config "C:\Program Files (x86)\IAR            #
#                       Systems\Embedded Workbench                           #
#                       4.0\arm\LIB\dl4tpainl8n.h" -I                        #
#                       D:\S2Prog\TXU\GUI\CORE\ -I D:\S2Prog\TXU\GUI\WM\ -I  #
#                       D:\S2Prog\TXU\GUI\WIDGET\ -I D:\S2Prog\TXU\CONFIG\   #
#                       -I D:\S2Prog\TXU\INC\ -I D:\S2Prog\TXU\..\SHARED\INC #
#                       \ -I D:\S2Prog\TXU\..\SHARED\SRC\ -I                 #
#                       D:\S2Prog\TXU\..\SHARED\LZO\minilzo.210\ -I          #
#                       D:\S2Prog\TXU\lwip-1.4.1\src\include\ -I             #
#                       D:\S2Prog\TXU\lwip-1.4.1\src\include\ipv4\ -I        #
#                       D:\S2Prog\TXU\lwip-1.4.1\src\ -I                     #
#                       D:\S2Prog\TXU\..\SHARED\Database\ -I                 #
#                       D:\S2Prog\TXU\src\ -I "C:\Program Files (x86)\IAR    #
#                       Systems\Embedded Workbench 4.0\arm\INC\"             #
#                       --inline_threshold=2                                 #
#    List file       =  D:\S2Prog\TXU\Debug\List\AlarmTCMPresetTimePassed.ls #
#                       t                                                    #
#    Object file     =  D:\S2Prog\TXU\Debug\Obj\AlarmTCMPresetTimePassed.r79 #
#                                                                            #
#                                                                            #
##############################################################################

D:\S2Prog\Shared\Src\AlarmTCMPresetTimePassed.cpp
      1          #include "TSNIncludes.h"

   \                                 In segment CODE, align 4, keep-with-next
   \   __??Code32?? __code __interwork __atpcs AlarmTCMPresetTimePassed::~AlarmTCMPresetTimePassed()
   \                     `?~AlarmTCMPresetTimePassed`:
   \   00000000   30402DE9           PUSH     {R4,R5,LR}
   \   00000004   0040A0E1           MOV      R4,R0
   \   00000008   0150A0E1           MOV      R5,R1
   \   0000000C   000054E3           CMP      R4,#+0
   \   00000010   0600000A           BEQ      `?~AlarmTCMPresetTimePassed_1`
   \   00000014   0100000A           BEQ      `?~AlarmTCMPresetTimePassed_2`
   \   00000018   0010A0E3           MOV      R1,#+0
   \   0000001C   ........           _BLF     `?~PRogramObjectBase`,`?~PRogramObjectBase??rA`
   \                     `?~AlarmTCMPresetTimePassed_2`:
   \   00000020   010015E3           TST      R5,#0x1
   \   00000024   0100000A           BEQ      `?~AlarmTCMPresetTimePassed_1`
   \   00000028   0400A0E1           MOV      R0,R4
   \   0000002C   ........           _BLF     `??operator delete`,`??operator delete??rA`
   \                     `?~AlarmTCMPresetTimePassed_1`:
   \   00000030   3040BDE8           POP      {R4,R5,LR}
   \   00000034   1EFF2FE1           BX       LR               ;; return
      2          #pragma hdrstop
      3          #ifdef BORLAND
      4              #pragma package(smart_init)
      5          #endif
      6          
      7          //---------------------------------------------------------------------------
      8          

   \                                 In segment DATA_Z, align 4, align-sorted
      9          unsigned AlarmTCMPresetTimePassed::NumberOfAlarmSettings = 0;
   \                     ??NumberOfAlarmSettings:
   \   00000000                      DS8 4
     10          

   \                                 In segment CODE, align 4, keep-with-next
     11          AlarmTCMPresetTimePassed::AlarmTCMPresetTimePassed(PRogramObjectBase *PROPtr) : AlarmBasic(PROPtr) {
   \                     ??AlarmTCMPresetTimePassed:
   \   00000000   30402DE9           PUSH     {R4,R5,LR}
   \   00000004   0040A0E1           MOV      R4,R0
   \   00000008   0150A0E1           MOV      R5,R1
   \   0000000C   ........           _BLF     ??AlarmBasic,??AlarmBasic??rA
   \   00000010   78009FE5           LDR      R0,??AlarmTCMPresetTimePassed_1  ;; ??__vtbl
   \   00000014   A40084E5           STR      R0,[R4, #+164]
     12              NumberOfAlarmSettings++;
   \   00000018   74009FE5           LDR      R0,??AlarmTCMPresetTimePassed_1+0x4  ;; ??NumberOfAlarmSettings
   \   0000001C   001090E5           LDR      R1,[R0, #+0]
   \   00000020   011081E2           ADD      R1,R1,#+1
   \   00000024   001080E5           STR      R1,[R0, #+0]
     13              PROPointer          = PROPtr;
   \   00000028   C45084E5           STR      R5,[R4, #+196]
     14              PROTCMPtr           = (PROTankWashingMachine *)PROPtr;
   \   0000002C   EC5084E5           STR      R5,[R4, #+236]
     15              IDNumber            = (ID_AL_TWM_ELAPSED_TIME << 16) + NumberOfAlarmSettings;
   \   00000030   000090E5           LDR      R0,[R0, #+0]
   \   00000034   B016A0E3           MOV      R1,#+184549376
   \   00000038   E91881E3           ORR      R1,R1,#0xE90000
   \   0000003C   000081E0           ADD      R0,R1,R0
   \   00000040   9C0084E5           STR      R0,[R4, #+156]
     16              Type                = ID_AL_TWM_ELAPSED_TIME;
   \   00000044   2108A0E1           MOV      R0,R1, LSR #+16
   \   00000048   A00084E5           STR      R0,[R4, #+160]
     17              Limit				= DEFAULT_TWM_PRESET_TIME * SEC_TO_HOURS;
   \   0000004C   4504A0E3           MOV      R0,#+1157627904
   \   00000050   E10880E3           ORR      R0,R0,#0xE10000
   \   00000054   E40084E5           STR      R0,[R4, #+228]
     18              Enable              = false;
   \   00000058   0000A0E3           MOV      R0,#+0
   \   0000005C   E200C4E5           STRB     R0,[R4, #+226]
     19              Locked              = false;
   \   00000060   E800C4E5           STRB     R0,[R4, #+232]
     20              Deadband            = 0.0;          // Not used for this type of alarm
   \   00000064   BC0084E5           STR      R0,[R4, #+188]
     21              MessageKey          = L_WORD1118;   // Preset time
   \   00000068   5E00A0E3           MOV      R0,#+94
   \   0000006C   400E80E3           ORR      R0,R0,#0x400
   \   00000070   B80084E5           STR      R0,[R4, #+184]
     22              TPCMessageKey       = L_WORD1119;   // PreTm
   \   00000074   010080E3           ORR      R0,R0,#0x1
   \   00000078   B40084E5           STR      R0,[R4, #+180]
     23              PreviousEnable      = Enable;
   \   0000007C   E200D4E5           LDRB     R0,[R4, #+226]
   \   00000080   CC00C4E5           STRB     R0,[R4, #+204]
     24          }
   \   00000084   0400A0E1           MOV      R0,R4
   \   00000088   3040BDE8           POP      {R4,R5,LR}
   \   0000008C   1EFF2FE1           BX       LR               ;; return
   \                     ??AlarmTCMPresetTimePassed_1:
   \   00000090   ........           DC32     ??__vtbl
   \   00000094   ........           DC32     ??NumberOfAlarmSettings
     25          

   \                                 In segment CODE, align 4, keep-with-next
     26          void AlarmTCMPresetTimePassed::Check(void) {
   \                     ??Check:
   \   00000000   F0402DE9           PUSH     {R4-R7,LR}
   \   00000004   0040A0E1           MOV      R4,R0
     27              float Speed       = PROTCMPtr->Speed;
   \   00000008   EC1094E5           LDR      R1,[R4, #+236]
     28              float RunningTime = PROTCMPtr->RunningTime;
     29              int Status        = AL_STAT_IN_DEADBAND;
   \   0000000C   0250A0E3           MOV      R5,#+2
   \   00000010   5C6191E5           LDR      R6,[R1, #+348]
     30              if ( PROTCMPtr->IsNewData ) {
   \   00000014   E000D1E5           LDRB     R0,[R1, #+224]
   \   00000018   000050E3           CMP      R0,#+0
   \   0000001C   0F00000A           BEQ      ??Check_1
     31                  if ( RunningTime > Limit ) {
   \   00000020   E47094E5           LDR      R7,[R4, #+228]
   \   00000024   600191E5           LDR      R0,[R1, #+352]
   \   00000028   ........           _BLF     __longToFloat,??__longToFloat??rA
   \   0000002C   0010A0E1           MOV      R1,R0
   \   00000030   0700A0E1           MOV      R0,R7
   \   00000034   ........           _BLF     __fLess,??__fLess??rA
   \   00000038   000050E3           CMP      R0,#+0
     32                      Status = AL_STAT_IN_ALARM;
   \   0000003C   0150A013           MOVNE    R5,#+1
   \   00000040   0700001A           BNE      ??Check_2
     33                  } else if ( Speed < MIN_TWM_SPEED ) {
   \   00000044   0600A0E1           MOV      R0,R6
   \   00000048   ........           _BLF     __floatToDouble,??__floatToDouble??rA
   \   0000004C   24209FE5           LDR      R2,??Check_3     ;; 0xffffffff9999999a
   \   00000050   24309FE5           LDR      R3,??Check_3+0x4  ;; 0x3fc99999
   \   00000054   ........           _BLF     __dLess,??__dLess??rA
   \   00000058   000050E3           CMP      R0,#+0
   \   0000005C   0000000A           BEQ      ??Check_2
     34                      Status = AL_STAT_IN_NORMAL;
     35                  }
     36              } else {
     37                  Status = AL_STAT_IN_NORMAL;
   \                     ??Check_1:
   \   00000060   0050A0E3           MOV      R5,#+0
     38              }
     39              UpdateAlarm(Status);
   \                     ??Check_2:
   \   00000064   0510A0E1           MOV      R1,R5
   \   00000068   0400A0E1           MOV      R0,R4
   \   0000006C   ........           _BLF     ??UpdateAlarm,??UpdateAlarm??rA
     40          }
   \   00000070   F040BDE8           POP      {R4-R7,LR}
   \   00000074   1EFF2FE1           BX       LR               ;; return
   \                     ??Check_3:
   \   00000078   9A999999           DC32     0xffffffff9999999a
   \   0000007C   9999C93F           DC32     0x3fc99999
     41          
     42          ///////////////////////////////////////////////////////////////
     43          //
     44          // Routines for the librarian for input
     45          //
     46          ///////////////////////////////////////////////////////////////
     47          

   \                                 In segment CODE, align 4, keep-with-next
     48          int AlarmTCMPresetTimePassed::PutValue(int ValueId, int Index, AnsiString NewValue, bool Local, int *UnitId) {
   \                     ??PutValue:
   \   00000000   F0432DE9           PUSH     {R4-R9,LR}
   \   00000004   5CD04DE2           SUB      SP,SP,#+92
   \   00000008   0050A0E1           MOV      R5,R0
   \   0000000C   7890DDE5           LDRB     R9,[SP, #+120]
   \   00000010   7C409DE5           LDR      R4,[SP, #+124]
   \   00000014   0170A0E1           MOV      R7,R1
     49              int Status = E_NO_ERR, ValUnitId = NO_UNIT;
   \   00000018   0010A0E3           MOV      R1,#+0
   \   0000001C   00108DE5           STR      R1,[SP, #+0]
   \   00000020   04108DE5           STR      R1,[SP, #+4]
     50              if ( Locked ) {
   \   00000024   E800D5E5           LDRB     R0,[R5, #+232]
   \   00000028   0280A0E1           MOV      R8,R2
   \   0000002C   0360A0E1           MOV      R6,R3
   \   00000030   000050E3           CMP      R0,#+0
     51                  Status = E_NO_INPUT_PERMISSION;
   \   00000034   2A10A013           MOVNE    R1,#+42
   \   00000038   00108D15           STRNE    R1,[SP, #+0]
   \   0000003C   7300001A           BNE      ??PutValue_3
     52              } else {
     53                  switch ( ValueId ) {
   \   00000040   3210A0E3           MOV      R1,#+50
   \   00000044   8C1D81E3           ORR      R1,R1,#0x2300
   \   00000048   010057E1           CMP      R7,R1
   \   0000004C   2100000A           BEQ      ??PutValue_4
   \   00000050   0C1081E3           ORR      R1,R1,#0xC
   \   00000054   010057E1           CMP      R7,R1
   \   00000058   0020A0E3           MOV      R2,#+0
   \   0000005C   0010A0E3           MOV      R1,#+0
   \   00000060   5400001A           BNE      ??PutValue_5
     54                  case SVT_AL_ENABLE:
     55                      {
     56                          int Key = FindConfigKey(NewValue);
   \   00000064   08008DE2           ADD      R0,SP,#+8
   \   00000068   ........           _BLF     ??_Tidy,??_Tidy??rA
   \   0000006C   B4019FE5           LDR      R0,??PutValue_6  ;; ??npos
   \   00000070   0020A0E3           MOV      R2,#+0
   \   00000074   003090E5           LDR      R3,[R0, #+0]
   \   00000078   0610A0E1           MOV      R1,R6
   \   0000007C   08008DE2           ADD      R0,SP,#+8
   \   00000080   ........           _BLF     ??assign,??assign??rA
   \   00000084   08008DE2           ADD      R0,SP,#+8
   \   00000088   ........           _BLF     ??FindConfigKey,??FindConfigKey??rA
   \   0000008C   0060A0E1           MOV      R6,R0
   \   00000090   0020A0E3           MOV      R2,#+0
   \   00000094   0110A0E3           MOV      R1,#+1
   \   00000098   08008DE2           ADD      R0,SP,#+8
   \   0000009C   ........           _BLF     ??_Tidy,??_Tidy??rA
     57                          switch ( Key ) {
   \   000000A0   646046E2           SUB      R6,R6,#+100
   \   000000A4   050056E3           CMP      R6,#+5
   \   000000A8   5800008A           BHI      ??PutValue_3
   \   000000AC   010F8FE2           ADR      R0,??PutValue_1
   \   000000B0   0600D0E7           LDRB     R0,[R0, R6]
   \   000000B4   00F18FE0           ADD      PC,PC,R0, LSL #+2
   \                     ??PutValue_1:
   \   000000B8   01050105           DC8      +1,+5,+1,+5
   \   000000BC   01050000           DC8      +1,+5,+0,+0
     58                          case C_ON		:
     59                          case C_OPEN		:
     60                          case C_ENABLE	:
     61                              SetEnable(EnableTrue);
   \                     ??PutValue_7:
   \   000000C0   0110A0E3           MOV      R1,#+1
   \                     ??PutValue_8:
   \   000000C4   0500A0E1           MOV      R0,R5
   \   000000C8   ........           _BLF     ??SetEnable,??SetEnable??rA
   \   000000CC   4F0000EA           B        ??PutValue_3
     62                              break;
     63                          case C_OFF		:
     64                          case C_CLOSE	:
     65                          case C_DISABLE	:
     66                              SetEnable(EnableFalse);
   \                     ??PutValue_9:
   \   000000D0   0010A0E3           MOV      R1,#+0
   \   000000D4   FAFFFFEA           B        ??PutValue_8
     67                          }//switch ( Key )
     68                      } 
     69                      break;
     70                  case SVT_AL_LIMIT:
     71                      {
     72                          float OrgLimit = Limit;
   \                     ??PutValue_4:
   \   000000D8   E47095E5           LDR      R7,[R5, #+228]
     73                          float Value = ConvertToSi(NewValue, ValUnitId = HOUR_UNIT, Status, 0/*MIN_TWM_PRESET_TIME * SEC_TO_HOURS*/, MAX_TWM_PRESET_TIME * SEC_TO_HOURS, DEFAULT_TWM_PRESET_TIME * SEC_TO_HOURS);
   \   000000DC   1810A0E3           MOV      R1,#+24
   \   000000E0   04108DE5           STR      R1,[SP, #+4]
   \   000000E4   0020A0E3           MOV      R2,#+0
   \   000000E8   0010A0E3           MOV      R1,#+0
   \   000000EC   08008DE2           ADD      R0,SP,#+8
   \   000000F0   ........           _BLF     ??_Tidy,??_Tidy??rA
   \   000000F4   2C019FE5           LDR      R0,??PutValue_6  ;; ??npos
   \   000000F8   0020A0E3           MOV      R2,#+0
   \   000000FC   003090E5           LDR      R3,[R0, #+0]
   \   00000100   0610A0E1           MOV      R1,R6
   \   00000104   08008DE2           ADD      R0,SP,#+8
   \   00000108   ........           _BLF     ??assign,??assign??rA
   \   0000010C   18119FE5           LDR      R1,??PutValue_6+0x4  ;; 0x40bc2000
   \   00000110   0000A0E3           MOV      R0,#+0
   \   00000114   03002DE9           PUSH     {R0,R1}
   \   00000118   10119FE5           LDR      R1,??PutValue_6+0x8  ;; 0x40f51800
   \   0000011C   03002DE9           PUSH     {R0,R1}
   \   00000120   0010A0E1           MOV      R1,R0
   \   00000124   03002DE9           PUSH     {R0,R1}
   \   00000128   18208DE2           ADD      R2,SP,#+24
   \   0000012C   20008DE2           ADD      R0,SP,#+32
   \   00000130   0800BDE8           POP      {R3}
   \   00000134   1810A0E3           MOV      R1,#+24
   \   00000138   ........           _BLF     ??ConvertToSi,??ConvertToSi??rA
   \   0000013C   0060A0E1           MOV      R6,R0
   \   00000140   0020A0E3           MOV      R2,#+0
   \   00000144   0110A0E3           MOV      R1,#+1
   \   00000148   1C008DE2           ADD      R0,SP,#+28
   \   0000014C   ........           _BLF     ??_Tidy,??_Tidy??rA
     74                          if ( Status == E_NO_ERR ) {
   \   00000150   14009DE5           LDR      R0,[SP, #+20]
   \   00000154   14D08DE2           ADD      SP,SP,#+20
   \   00000158   000050E3           CMP      R0,#+0
   \   0000015C   2B00001A           BNE      ??PutValue_3
     75                              Limit = Value;
   \   00000160   E46085E5           STR      R6,[R5, #+228]
     76                              SetModifiedFlag();
   \   00000164   A41095E5           LDR      R1,[R5, #+164]
   \   00000168   0500A0E1           MOV      R0,R5
   \   0000016C   541091E5           LDR      R1,[R1, #+84]
   \   00000170   0FE0A0E1           MOV      LR,PC
   \   00000174   11FF2FE1           BX       R1
     77                              if ( Limit != OrgLimit ) {
   \   00000178   E40095E5           LDR      R0,[R5, #+228]
   \   0000017C   0710A0E1           MOV      R1,R7
   \   00000180   ........           _BLF     __fNotEqual,??__fNotEqual??rA
   \   00000184   000050E3           CMP      R0,#+0
   \   00000188   2000000A           BEQ      ??PutValue_3
     78                                  LogEvent("New limit");
   \   0000018C   A0109FE5           LDR      R1,??PutValue_6+0xC  ;; `?<Constant "New limit">`
   \   00000190   40008DE2           ADD      R0,SP,#+64
   \   00000194   ........           _BLF     ??AnsiString,??AnsiString??rA
   \   00000198   0010A0E1           MOV      R1,R0
   \   0000019C   0500A0E1           MOV      R0,R5
   \   000001A0   ........           _BLF     ??LogEvent,??LogEvent??rA
   \   000001A4   0020A0E3           MOV      R2,#+0
   \   000001A8   0110A0E3           MOV      R1,#+1
   \   000001AC   40008DE2           ADD      R0,SP,#+64
   \   000001B0   ........           _BLF     ??_Tidy,??_Tidy??rA
   \   000001B4   150000EA           B        ??PutValue_3
     79                              }
     80                          }
     81                      }
     82                      break;
     83                  default:
     84                      Status = AlarmBasic::PutValue(ValueId, Index, NewValue, Local, &ValUnitId);
   \                     ??PutValue_5:
   \   000001B8   24008DE2           ADD      R0,SP,#+36
   \   000001BC   ........           _BLF     ??_Tidy,??_Tidy??rA
   \   000001C0   60009FE5           LDR      R0,??PutValue_6  ;; ??npos
   \   000001C4   0020A0E3           MOV      R2,#+0
   \   000001C8   003090E5           LDR      R3,[R0, #+0]
   \   000001CC   0610A0E1           MOV      R1,R6
   \   000001D0   24008DE2           ADD      R0,SP,#+36
   \   000001D4   ........           _BLF     ??assign,??assign??rA
   \   000001D8   04008DE2           ADD      R0,SP,#+4
   \   000001DC   01002DE9           PUSH     {R0}
   \   000001E0   00022DE9           PUSH     {R9}
   \   000001E4   2C308DE2           ADD      R3,SP,#+44
   \   000001E8   0820A0E1           MOV      R2,R8
   \   000001EC   0710A0E1           MOV      R1,R7
   \   000001F0   0500A0E1           MOV      R0,R5
   \   000001F4   ........           _BLF     ??PutValue_2,??PutValue??rA
   \   000001F8   08008DE5           STR      R0,[SP, #+8]
   \   000001FC   0020A0E3           MOV      R2,#+0
   \   00000200   0110A0E3           MOV      R1,#+1
   \   00000204   2C008DE2           ADD      R0,SP,#+44
   \   00000208   ........           _BLF     ??_Tidy,??_Tidy??rA
   \   0000020C   08D08DE2           ADD      SP,SP,#+8
     85                      break;
     86                  } // Switch ValueId
     87              } // if ( Locked ) else
     88              if ( UnitId ) {
   \                     ??PutValue_3:
   \   00000210   000054E3           CMP      R4,#+0
     89                  *UnitId = ValUnitId;
   \   00000214   04009D15           LDRNE    R0,[SP, #+4]
   \   00000218   00008415           STRNE    R0,[R4, #+0]
     90              }
     91              return (Status);
   \   0000021C   00009DE5           LDR      R0,[SP, #+0]
   \   00000220   5CD08DE2           ADD      SP,SP,#+92
   \   00000224   ........           B        ?Subroutine8
   \                     ??PutValue_6:
   \   00000228   ........           DC32     ??npos
   \   0000022C   0020BC40           DC32     0x40bc2000
   \   00000230   0018F540           DC32     0x40f51800
   \   00000234   ........           DC32     `?<Constant "New limit">`
     92          }

   \                                 In segment CODE, align 4, keep-with-next
   \                     ?Subroutine8:
   \   00000000   F043BDE8           POP      {R4-R9,LR}
   \   00000004   1EFF2FE1           BX       LR               ;; return
     93          

   \                                 In segment CODE, align 4, keep-with-next
     94          int  AlarmTCMPresetTimePassed::GetValue(int ValueId, int Index, float &MyRetValue, int &DecPnt, int &Unit) {
   \                     ??GetValue:
   \   00000000   F0432DE9           PUSH     {R4-R9,LR}
   \   00000004   1C509DE5           LDR      R5,[SP, #+28]
   \   00000008   20609DE5           LDR      R6,[SP, #+32]
   \   0000000C   0340A0E1           MOV      R4,R3
     95              int Status = GETVAL_NO_ERR;
   \   00000010   0070A0E3           MOV      R7,#+0
     96              switch ( ValueId ) {
   \   00000014   1880A0E3           MOV      R8,#+24
   \   00000018   0190A0E3           MOV      R9,#+1
   \   0000001C   323041E2           SUB      R3,R1,#+50
   \   00000020   8C3D43E2           SUB      R3,R3,#+8960
   \   00000024   010053E3           CMP      R3,#+1
   \   00000028   1300008A           BHI      ??GetValue_3
   \   0000002C   01CF8FE2           ADR      R12,??GetValue_1
   \   00000030   03C0DCE7           LDRB     R12,[R12, R3]
   \   00000034   0CF18FE0           ADD      PC,PC,R12, LSL #+2
   \                     ??GetValue_1:
   \   00000038   00090000           DC8      +0,+9,+0,+0
     97              case SVT_AL_LIMIT:
     98                  MyRetValue = Limit;
   \                     ??GetValue_4:
   \   0000003C   E41090E5           LDR      R1,[R0, #+228]
   \   00000040   001084E5           STR      R1,[R4, #+0]
     99                  DecPnt     = 1;
   \   00000044   009085E5           STR      R9,[R5, #+0]
    100                  Unit       = HOUR_UNIT;
   \   00000048   008086E5           STR      R8,[R6, #+0]
    101                  if ( !Enable ) {
   \   0000004C   E200D0E5           LDRB     R0,[R0, #+226]
   \   00000050   000050E3           CMP      R0,#+0
   \   00000054   0E00001A           BNE      ??GetValue_5
    102                      Status     = GETVAL_DISABLED;
   \   00000058   0970A0E3           MOV      R7,#+9
   \   0000005C   0C0000EA           B        ??GetValue_5
    103                  }
    104                  break;
    105              case SVT_AL_VALUE:
    106                  {
    107                      float RunningTime = PROTCMPtr->RunningTime;
    108                      MyRetValue = RunningTime;
   \                     ??GetValue_6:
   \   00000060   EC0090E5           LDR      R0,[R0, #+236]
   \   00000064   600190E5           LDR      R0,[R0, #+352]
   \   00000068   ........           _BLF     __longToFloat,??__longToFloat??rA
   \   0000006C   000084E5           STR      R0,[R4, #+0]
    109                      DecPnt     = 1;
   \   00000070   009085E5           STR      R9,[R5, #+0]
    110                      Unit       = HOUR_UNIT;
   \   00000074   008086E5           STR      R8,[R6, #+0]
   \   00000078   050000EA           B        ??GetValue_5
    111                  }
    112                  break;
    113              default:
    114                  Status = AlarmBasic::GetValue(ValueId, Index, MyRetValue, DecPnt, Unit);
   \                     ??GetValue_3:
   \   0000007C   40002DE9           PUSH     {R6}
   \   00000080   20002DE9           PUSH     {R5}
   \   00000084   0430A0E1           MOV      R3,R4
   \   00000088   ........           _BLF     ??GetValue_2,??GetValue??rA
   \   0000008C   0070A0E1           MOV      R7,R0
   \   00000090   08D08DE2           ADD      SP,SP,#+8
    115                  break;
    116              }
    117              return (Status);
   \                     ??GetValue_5:
   \   00000094   0700A0E1           MOV      R0,R7
   \   00000098                      REQUIRE ?Subroutine8
   \   00000098                      ;; // Fall through to label ?Subroutine8
    118          }
    119          

   \                                 In segment CODE, align 4, keep-with-next
    120          int AlarmTCMPresetTimePassed::GetStringValue(int ValueId, int Index, AnsiString &MyString) {
   \                     ??GetStringValue:
   \   00000000   00402DE9           PUSH     {LR}
    121              int Status = GETVAL_NO_ERR;
    122              //switch ( ValueId ) {
    123              //	default:
    124              Status = AlarmBasic::GetStringValue(ValueId, Index, MyString);
    125              //		break;
    126              //}
    127              return (Status);
   \   00000004   ........           _BLF     ??GetStringValue_1,??GetStringValue??rA
   \   00000008   ........           B        ?Subroutine9
    128          }

   \                                 In segment CODE, align 4, keep-with-next
   \                     ?Subroutine9:
   \   00000000   0040BDE8           POP      {LR}
   \   00000004   1EFF2FE1           BX       LR               ;; return
    129          

   \                                 In segment CODE, align 4, keep-with-next
    130          int AlarmTCMPresetTimePassed::PutFloatValue(int ValueId, float NewValue) {
   \                     ??PutFloatValue:
   \   00000000   00402DE9           PUSH     {LR}
    131              int Status = E_NO_ERR;
    132              //switch ( ValueId ) {
    133              //   default:
    134              Status = AlarmBasic::PutFloatValue(ValueId, NewValue);
    135              //     break;
    136              //}
    137              return (Status);
   \   00000004   ........           _BLF     ??PutFloatValue_1,??PutFloatValue??rA
   \   00000008                      REQUIRE ?Subroutine9
   \   00000008                      ;; // Fall through to label ?Subroutine9
    138          }

   \                                 In segment DIFUNCT, align 4, keep-with-next, root
   \   00000000                      REQUIRE ?call_ctors
   \   00000000   ........           DC32    ??__sti__routine

   \                                 In segment DATA_C, align 4, align-sorted
   \                     `?<Constant "New limit">`:
   \   00000000   4E6577206C69       DC8 "New limit"
   \              6D697400    
   \   0000000A   0000               DC8 0, 0

   \                                 In segment CODE, align 4, keep-with-next
   \   __??Code32?? __code __interwork __atpcs AlarmTCMPresetTimePassed &AlarmTCMPresetTimePassed::new AlarmTCMPresetTimePassed(PRogramObjectBase *)
   \                     `??new AlarmTCMPresetTimePassed`:
   \   00000000   10402DE9           PUSH     {R4,LR}
   \   00000004   0040A0E1           MOV      R4,R0
   \   00000008   F000A0E3           MOV      R0,#+240
   \   0000000C   ........           _BLF     `??operator new`,`??operator new??rA`
   \   00000010   000050E3           CMP      R0,#+0
   \   00000014   0100000A           BEQ      `??new AlarmTCMPresetTimePassed_1`
   \   00000018   0410A0E1           MOV      R1,R4
   \   0000001C   ........           BL       ??AlarmTCMPresetTimePassed
   \                     `??new AlarmTCMPresetTimePassed_1`:
   \   00000020   1040BDE8           POP      {R4,LR}
   \   00000024   1EFF2FE1           BX       LR               ;; return

   \                                 In segment CODE, align 4, keep-with-next
   \   static __??Code32?? __intrinsic __code __interwork __atpcs void __sti__routine()
   \                     ??__sti__routine:
   \   00000000   1EFF2FE1           BX       LR               ;; return
    139          

   Maximum stack usage in bytes:

     Function                       CSTACK
     --------                       ------
     AlarmTCMPresetTimePassed::AlarmTCMPresetTimePassed(PRogramObjectBase *)
                                       12
     AlarmTCMPresetTimePassed::Check()
                                       20
     AlarmTCMPresetTimePassed::GetStringValue(int, int, AnsiString &)
                                        4
     AlarmTCMPresetTimePassed::GetValue(int, int, float &, int &, int &)
                                       36
     AlarmTCMPresetTimePassed::PutFloatValue(int, float)
                                        4
     AlarmTCMPresetTimePassed::PutValue(int, int, AnsiString, bool, int *)
                                      144
     AlarmTCMPresetTimePassed::new AlarmTCMPresetTimePassed(PRogramObjectBase *)
                                        8
     AlarmTCMPresetTimePassed::~AlarmTCMPresetTimePassed()
                                       12
     __sti__routine()                   0


   Segment part sizes:

     Function/Label                 Bytes
     --------------                 -----
     AlarmTCMPresetTimePassed::~AlarmTCMPresetTimePassed()
                                      56
     AlarmTCMPresetTimePassed::NumberOfAlarmSettings
                                       4
     AlarmTCMPresetTimePassed::AlarmTCMPresetTimePassed(PRogramObjectBase *)
                                     152
     AlarmTCMPresetTimePassed::Check()
                                     128
     AlarmTCMPresetTimePassed::PutValue(int, int, AnsiString, bool, int *)
                                     568
     ?Subroutine8                      8
     AlarmTCMPresetTimePassed::GetValue(int, int, float &, int &, int &)
                                     152
     AlarmTCMPresetTimePassed::GetStringValue(int, int, AnsiString &)
                                      12
     ?Subroutine9                      8
     AlarmTCMPresetTimePassed::PutFloatValue(int, float)
                                       8
     ?<Constant "New limit">          12
     AlarmTCMPresetTimePassed::new AlarmTCMPresetTimePassed(PRogramObjectBase *)
                                      40
     __sti__routine()                  4
      Others                         416

 
 1 420 bytes in segment CODE
   128 bytes in segment DATA_C
     4 bytes in segment DATA_Z
     4 bytes in segment DIFUNCT
    12 bytes in segment INITTAB
 
 1 084 bytes of CODE  memory (+ 352 bytes shared)
   128 bytes of CONST memory
     4 bytes of DATA  memory

Errors: none
Warnings: none
