##############################################################################
#                                                                            #
# IAR ARM ANSI C/C++ Compiler V4.42A/W32               14/Sep/2022  15:12:15 #
# Copyright 1999-2005 IAR Systems. All rights reserved.                      #
#                                                                            #
#    Cpu mode        =  interwork                                            #
#    Endian          =  little                                               #
#    Stack alignment =  4                                                    #
#    Source file     =  D:\S2Prog\Shared\Src\AlarmHighLevel.Cpp              #
#    Command line    =  D:\S2Prog\Shared\Src\AlarmHighLevel.Cpp --fpu None   #
#                       -D OS_LIBMODE_SP -D CPU_S3C2410 -D OS_RAMVECT=0 -D   #
#                       OS_UART=-1 -D S2TXU -D USE_LZO=1 -D __ARM_LIBRARY__  #
#                       -D WATCHDOG=1 -D NETWORK=1 -lCN                      #
#                       D:\S2Prog\TXU\Debug\List\ -o                         #
#                       D:\S2Prog\TXU\Debug\Obj\ -z9 --debug --cpu_mode arm  #
#                       --endian little --cpu ARM920T --stack_align 4        #
#                       --interwork -e --enable_multibytes --eec++           #
#                       --dlib_config "C:\Program Files (x86)\IAR            #
#                       Systems\Embedded Workbench                           #
#                       4.0\arm\LIB\dl4tpainl8n.h" -I                        #
#                       D:\S2Prog\TXU\GUI\CORE\ -I D:\S2Prog\TXU\GUI\WM\ -I  #
#                       D:\S2Prog\TXU\GUI\WIDGET\ -I D:\S2Prog\TXU\CONFIG\   #
#                       -I D:\S2Prog\TXU\INC\ -I D:\S2Prog\TXU\..\SHARED\INC #
#                       \ -I D:\S2Prog\TXU\..\SHARED\SRC\ -I                 #
#                       D:\S2Prog\TXU\..\SHARED\LZO\minilzo.210\ -I          #
#                       D:\S2Prog\TXU\lwip-1.4.1\src\include\ -I             #
#                       D:\S2Prog\TXU\lwip-1.4.1\src\include\ipv4\ -I        #
#                       D:\S2Prog\TXU\lwip-1.4.1\src\ -I                     #
#                       D:\S2Prog\TXU\..\SHARED\Database\ -I                 #
#                       D:\S2Prog\TXU\src\ -I "C:\Program Files (x86)\IAR    #
#                       Systems\Embedded Workbench 4.0\arm\INC\"             #
#                       --inline_threshold=2                                 #
#    List file       =  D:\S2Prog\TXU\Debug\List\AlarmHighLevel.lst          #
#    Object file     =  D:\S2Prog\TXU\Debug\Obj\AlarmHighLevel.r79           #
#                                                                            #
#                                                                            #
##############################################################################

D:\S2Prog\Shared\Src\AlarmHighLevel.Cpp
      1          #include "TSNIncludes.h"

   \                                 In segment CODE, align 4, keep-with-next
   \   __??Code32?? __code __interwork __atpcs AnsiString::AnsiString(AnsiString const &)
   \                     ??AnsiString:
   \   00000000   30402DE9           PUSH     {R4,R5,LR}
   \   00000004   0040A0E1           MOV      R4,R0
   \   00000008   0150A0E1           MOV      R5,R1
   \   0000000C   0020A0E3           MOV      R2,#+0
   \   00000010   0010A0E3           MOV      R1,#+0
   \   00000014   ........           _BLF     ??_Tidy,??_Tidy??rA
   \   00000018   1C009FE5           LDR      R0,??AnsiString_2  ;; ??npos
   \   0000001C   0020A0E3           MOV      R2,#+0
   \   00000020   003090E5           LDR      R3,[R0, #+0]
   \   00000024   0510A0E1           MOV      R1,R5
   \   00000028   0400A0E1           MOV      R0,R4
   \   0000002C   ........           _BLF     ??assign,??assign??rA
   \   00000030   0400A0E1           MOV      R0,R4
   \   00000034   3040BDE8           POP      {R4,R5,LR}
   \   00000038   1EFF2FE1           BX       LR               ;; return
   \                     ??AnsiString_2:
   \   0000003C   ........           DC32     ??npos

   \                                 In segment CODE, align 4, keep-with-next
   \   __??Code32?? __code __interwork __atpcs AlarmHighLevel::~AlarmHighLevel()
   \                     `?~AlarmHighLevel`:
   \   00000000   30402DE9           PUSH     {R4,R5,LR}
   \   00000004   0040A0E1           MOV      R4,R0
   \   00000008   0150A0E1           MOV      R5,R1
   \   0000000C   000054E3           CMP      R4,#+0
   \   00000010   0600000A           BEQ      `?~AlarmHighLevel_1`
   \   00000014   0100000A           BEQ      `?~AlarmHighLevel_2`
   \   00000018   0010A0E3           MOV      R1,#+0
   \   0000001C   ........           _BLF     `?~PRogramObjectBase`,`?~PRogramObjectBase??rA`
   \                     `?~AlarmHighLevel_2`:
   \   00000020   010015E3           TST      R5,#0x1
   \   00000024   0100000A           BEQ      `?~AlarmHighLevel_1`
   \   00000028   0400A0E1           MOV      R0,R4
   \   0000002C   ........           _BLF     `??operator delete`,`??operator delete??rA`
   \                     `?~AlarmHighLevel_1`:
   \   00000030   3040BDE8           POP      {R4,R5,LR}
   \   00000034   1EFF2FE1           BX       LR               ;; return
      2          #pragma hdrstop
      3          #ifdef BORLAND
      4          #pragma package(smart_init)
      5          #endif
      6          
      7          //---------------------------------------------------------------------------
      8          

   \                                 In segment DATA_Z, align 4, align-sorted
      9          unsigned AlarmHighLevel::NumberOfAlarmSettings = 0;
   \                     ??NumberOfAlarmSettings:
   \   00000000                      DS8 4
     10          

   \                                 In segment CODE, align 4, keep-with-next
     11          AlarmHighLevel::AlarmHighLevel(PRogramObjectBase *PROPtr, float Lim, bool Lock):AlarmBasic(PROPtr) {
   \                     ??AlarmHighLevel:
   \   00000000   F0402DE9           PUSH     {R4-R7,LR}
   \   00000004   0040A0E1           MOV      R4,R0
   \   00000008   0150A0E1           MOV      R5,R1
   \   0000000C   0260A0E1           MOV      R6,R2
   \   00000010   0370A0E1           MOV      R7,R3
   \   00000014   ........           _BLF     ??AlarmBasic,??AlarmBasic??rA
   \   00000018   C0009FE5           LDR      R0,??AlarmHighLevel_1  ;; ??__vtbl
   \   0000001C   A40084E5           STR      R0,[R4, #+164]
     12              PROPointer  = PROPtr;
   \   00000020   C45084E5           STR      R5,[R4, #+196]
     13              PROTankPtr  = (PROTank *)PROPtr;
   \   00000024   EC5084E5           STR      R5,[R4, #+236]
     14              Locked      = Lock;
   \   00000028   E870C4E5           STRB     R7,[R4, #+232]
     15              Limit       = Lim;
   \   0000002C   E46084E5           STR      R6,[R4, #+228]
     16          
     17              if ( PROTankPtr->LevVolumeTab ) {
   \   00000030   901395E5           LDR      R1,[R5, #+912]
   \   00000034   000051E3           CMP      R1,#+0
     18                  LevVolumeTab = PROTankPtr->LevVolumeTab;
   \   00000038   0100A011           MOVNE    R0,R1
     19                  UllVolumeTab = NULL;
   \   0000003C   0010A013           MOVNE    R1,#+0
     20                  VolumeTab    = LevVolumeTab;
   \   00000040   0400001A           BNE      ??AlarmHighLevel_2
     21              } else if ( PROTankPtr->UllVolumeTab ) {
   \   00000044   941395E5           LDR      R1,[R5, #+916]
   \   00000048   0000A0E3           MOV      R0,#+0
   \   0000004C   000051E3           CMP      R1,#+0
     22                  UllVolumeTab = PROTankPtr->UllVolumeTab;
     23                  LevVolumeTab = NULL;
     24                  VolumeTab    = UllVolumeTab;
   \   00000050   0120A011           MOVNE    R2,R1
   \   00000054   0000001A           BNE      ??AlarmHighLevel_3
     25              } else {
     26                  UllVolumeTab = NULL;
     27                  LevVolumeTab = NULL;
     28                  VolumeTab    = NULL;
   \                     ??AlarmHighLevel_2:
   \   00000058   0020A0E1           MOV      R2,R0
   \                     ??AlarmHighLevel_3:
   \   0000005C   F81084E5           STR      R1,[R4, #+248]
   \   00000060   F40084E5           STR      R0,[R4, #+244]
   \   00000064   F02084E5           STR      R2,[R4, #+240]
     29              }
     30              if ( UllVolumeTab || LevVolumeTab ) {
   \   00000068   000051E3           CMP      R1,#+0
   \   0000006C   00005003           CMPEQ    R0,#+0
     31                  LimitType = AL_LIM_VOLPERCENT;
   \   00000070   B600A013           MOVNE    R0,#+182
   \   00000074   D00E8013           ORRNE    R0,R0,#0xD00
     32                  OnlyLevel = false;
   \   00000078   0010A013           MOVNE    R1,#+0
     33              } else {
     34                  LimitType = AL_LIM_LEVEL;
   \   0000007C   B700A003           MOVEQ    R0,#+183
   \   00000080   D00E8003           ORREQ    R0,R0,#0xD00
     35                  OnlyLevel = true;
   \   00000084   0110A003           MOVEQ    R1,#+1
   \   00000088   0011C4E5           STRB     R1,[R4, #+256]
   \   0000008C   FC0084E5           STR      R0,[R4, #+252]
     36              }
     37              NumberOfAlarmSettings++;
   \   00000090   4C009FE5           LDR      R0,??AlarmHighLevel_1+0x4  ;; ??NumberOfAlarmSettings
   \   00000094   001090E5           LDR      R1,[R0, #+0]
   \   00000098   011081E2           ADD      R1,R1,#+1
   \   0000009C   001080E5           STR      R1,[R0, #+0]
     38              IDNumber            =  (ID_AL_HIGH_LEVEL << 16) + NumberOfAlarmSettings;
   \   000000A0   B006A0E3           MOV      R0,#+184549376
   \   000000A4   C30880E3           ORR      R0,R0,#0xC30000
   \   000000A8   010080E0           ADD      R0,R0,R1
   \   000000AC   9C0084E5           STR      R0,[R4, #+156]
     39              Type                = ID_AL_HIGH_LEVEL;
   \   000000B0   C300A0E3           MOV      R0,#+195
   \   000000B4   B00E80E3           ORR      R0,R0,#0xB00
   \   000000B8   A00084E5           STR      R0,[R4, #+160]
     40              Deadband            = 0.1;
   \   000000BC   24009FE5           LDR      R0,??AlarmHighLevel_1+0x8  ;; 0x3dcccccd
   \   000000C0   BC0084E5           STR      R0,[R4, #+188]
     41              MessageKey          = L_WORD503; // HighLevel
   \   000000C4   F700A0E3           MOV      R0,#+247
   \   000000C8   400F80E3           ORR      R0,R0,#0x100
   \   000000CC   B80084E5           STR      R0,[R4, #+184]
     42              TPCMessageKey       = L_WORD502; // HLev
   \   000000D0   0100C0E3           BIC      R0,R0,#0x1
   \   000000D4   B40084E5           STR      R0,[R4, #+180]
     43          }
   \   000000D8   0400A0E1           MOV      R0,R4
   \   000000DC   ........           B        ?Subroutine8
   \                     ??AlarmHighLevel_1:
   \   000000E0   ........           DC32     ??__vtbl
   \   000000E4   ........           DC32     ??NumberOfAlarmSettings
   \   000000E8   CDCCCC3D           DC32     0x3dcccccd

   \                                 In segment CODE, align 4, keep-with-next
   \                     ?Subroutine8:
   \   00000000   F040BDE8           POP      {R4-R7,LR}
   \   00000004   1EFF2FE1           BX       LR               ;; return
     44          

   \                                 In segment CODE, align 4, keep-with-next
     45          void AlarmHighLevel::Check(void) {
   \                     ??Check:
   \   00000000   F0432DE9           PUSH     {R4-R9,LR}
     46              int Status = AL_STAT_IN_DEADBAND;
     47              if ( PROTankPtr->HasLevelSensors ) {
   \   00000004   98609FE5           LDR      R6,??Check_1     ;; ??AlarmOffDelay
   \   00000008   0040A0E1           MOV      R4,R0
   \   0000000C   EC0094E5           LDR      R0,[R4, #+236]
   \   00000010   C07094E5           LDR      R7,[R4, #+192]
   \   00000014   3212D0E5           LDRB     R1,[R0, #+562]
   \   00000018   0250A0E3           MOV      R5,#+2
   \   0000001C   000051E3           CMP      R1,#+0
   \   00000020   1500000A           BEQ      ??Check_2
     48                  float Val;
     49                  if ( LevVolumeTab || UllVolumeTab ) {
   \   00000024   F41094E5           LDR      R1,[R4, #+244]
     50                      Val = PROTankPtr->VolumePercent;
     51                  } else {
     52                      Val = PROTankPtr->Level;
     53                  }
     54                  if ( Val < Limit - Deadband ) {
   \   00000028   E49094E5           LDR      R9,[R4, #+228]
   \   0000002C   000051E3           CMP      R1,#+0
   \   00000030   F8109405           LDREQ    R1,[R4, #+248]
   \   00000034   00005103           CMPEQ    R1,#+0
   \   00000038   B8829015           LDRNE    R8,[R0, #+696]
   \   0000003C   BC1094E5           LDR      R1,[R4, #+188]
   \   00000040   A4829005           LDREQ    R8,[R0, #+676]
   \   00000044   0900A0E1           MOV      R0,R9
   \   00000048   ........           _BLF     __fSub,??__fSub??rA
   \   0000004C   0010A0E1           MOV      R1,R0
   \   00000050   0800A0E1           MOV      R0,R8
   \   00000054   ........           _BLF     __fLess,??__fLess??rA
   \   00000058   000050E3           CMP      R0,#+0
   \   0000005C   0600001A           BNE      ??Check_2
     55                      if ( TSNElapsedTicks(LastActiveTime) > PROSystemData::AlarmOffDelay ) {
     56                          Status = AL_STAT_IN_NORMAL;
     57                      }
     58                  } else if ( Val >= Limit ) {
   \   00000060   0800A0E1           MOV      R0,R8
   \   00000064   0910A0E1           MOV      R1,R9
   \   00000068   ........           _BLF     __fGreaterEqual,??__fGreaterEqual??rA
   \   0000006C   000050E3           CMP      R0,#+0
   \   00000070   0600000A           BEQ      ??Check_3
     59                      Status = AL_STAT_IN_ALARM;
   \   00000074   0150A0E3           MOV      R5,#+1
   \   00000078   040000EA           B        ??Check_3
     60                  }
     61              } else if ( TSNElapsedTicks(LastActiveTime) > PROSystemData::AlarmOffDelay ) {
   \                     ??Check_2:
   \   0000007C   0700A0E1           MOV      R0,R7
   \   00000080   ........           _BLF     ??TSNElapsedTicks,??TSNElapsedTicks??rA
   \   00000084   001096E5           LDR      R1,[R6, #+0]
   \   00000088   000051E1           CMP      R1,R0
     62                  Status = AL_STAT_IN_NORMAL;
   \   0000008C   0050A0B3           MOVLT    R5,#+0
     63              }
     64              UpdateAlarm(Status);
   \                     ??Check_3:
   \   00000090   0510A0E1           MOV      R1,R5
   \   00000094   0400A0E1           MOV      R0,R4
   \   00000098   ........           _BLF     ??UpdateAlarm,??UpdateAlarm??rA
     65          }
   \   0000009C   F043BDE8           POP      {R4-R9,LR}
   \   000000A0   1EFF2FE1           BX       LR               ;; return
   \                     ??Check_1:
   \   000000A4   ........           DC32     ??AlarmOffDelay
     66          
     67          ///////////////////////////////////////////////////////////////
     68          //
     69          // Routines for the librarian for input
     70          //
     71          ///////////////////////////////////////////////////////////////
     72          

   \                                 In segment CODE, align 4, keep-with-next
     73          int AlarmHighLevel::PutValue(int ValueId, int Index, AnsiString NewValue, bool Local, int *UnitId) {
   \                     ??PutValue:
   \   00000000   F04F2DE9           PUSH     {R4-R11,LR}
   \   00000004   94D04DE2           SUB      SP,SP,#+148
   \   00000008   0050A0E1           MOV      R5,R0
   \   0000000C   B8A0DDE5           LDRB     R10,[SP, #+184]
   \   00000010   BC409DE5           LDR      R4,[SP, #+188]
   \   00000014   0180A0E1           MOV      R8,R1
     74              int Status = E_NO_ERR, ValUnitId = NO_UNIT;
   \   00000018   0010A0E3           MOV      R1,#+0
   \   0000001C   00108DE5           STR      R1,[SP, #+0]
   \   00000020   04108DE5           STR      R1,[SP, #+4]
     75              if ( Locked ) {
   \   00000024   E800D5E5           LDRB     R0,[R5, #+232]
   \   00000028   0290A0E1           MOV      R9,R2
   \   0000002C   0370A0E1           MOV      R7,R3
   \   00000030   000050E3           CMP      R0,#+0
   \   00000034   0200000A           BEQ      ??PutValue_8
     76                  Status = E_NO_INPUT_PERMISSION;
   \   00000038   2A10A0E3           MOV      R1,#+42
   \                     ??PutValue_9:
   \   0000003C   00108DE5           STR      R1,[SP, #+0]
   \   00000040   AA0100EA           B        ??PutValue_10
     77              } else {
     78                  float OrgLimit = Limit;
   \                     ??PutValue_8:
   \   00000044   E46095E5           LDR      R6,[R5, #+228]
     79                  int Key = FindConfigKey(NewValue);
   \   00000048   0710A0E1           MOV      R1,R7
   \   0000004C   78008DE2           ADD      R0,SP,#+120
   \   00000050   ........           _BLF     ??AnsiString,??AnsiString??rA
   \   00000054   ........           _BLF     ??FindConfigKey,??FindConfigKey??rA
   \   00000058   00B0A0E1           MOV      R11,R0
   \   0000005C   0020A0E3           MOV      R2,#+0
   \   00000060   0110A0E3           MOV      R1,#+1
   \   00000064   78008DE2           ADD      R0,SP,#+120
   \   00000068   ........           _BLF     ??_Tidy,??_Tidy??rA
     80                  switch ( Key ) {
   \   0000006C   64B04BE2           SUB      R11,R11,#+100
   \   00000070   05005BE3           CMP      R11,#+5
   \   00000074   1100008A           BHI      ??PutValue_11
   \   00000078   010F8FE2           ADR      R0,??PutValue_1
   \   0000007C   0B00D0E7           LDRB     R0,[R0, R11]
   \   00000080   00F18FE0           ADD      PC,PC,R0, LSL #+2
   \                     ??PutValue_1:
   \   00000084   010C010C           DC8      +1,+12,+1,+12
   \   00000088   010C0000           DC8      +1,+12,+0,+0
     81                  case C_ON:
     82                  case C_OPEN:
     83                  case C_ENABLE:
     84                      SetEnable(EnableTrue);
   \                     ??PutValue_12:
   \   0000008C   0110A0E3           MOV      R1,#+1
   \                     ??PutValue_13:
   \   00000090   0500A0E1           MOV      R0,R5
   \   00000094   ........           _BLF     ??SetEnable,??SetEnable??rA
     85                      PROTankPtr->SetState(tUndefined);
   \   00000098   EC2095E5           LDR      R2,[R5, #+236]
   \   0000009C   0410A0E3           MOV      R1,#+4
   \   000000A0   0200A0E1           MOV      R0,R2
   \   000000A4   A42092E5           LDR      R2,[R2, #+164]
   \   000000A8   7C2092E5           LDR      R2,[R2, #+124]
   \   000000AC   0FE0A0E1           MOV      LR,PC
   \   000000B0   12FF2FE1           BX       R2
   \   000000B4   760100EA           B        ??PutValue_14
     86                      break;
     87                  case C_OFF:
     88                  case C_CLOSE:
     89                  case C_DISABLE:
     90                      SetEnable(EnableFalse);
   \                     ??PutValue_15:
   \   000000B8   0010A0E3           MOV      R1,#+0
   \   000000BC   F3FFFFEA           B        ??PutValue_13
     91                      PROTankPtr->SetState(tUndefined);
     92                      break;
     93                  default:
     94                      switch ( ValueId ) {
   \                     ??PutValue_11:
   \   000000C0   0011D5E5           LDRB     R1,[R5, #+256]
   \   000000C4   FC0095E5           LDR      R0,[R5, #+252]
   \   000000C8   3230A0E3           MOV      R3,#+50
   \   000000CC   8C3D83E3           ORR      R3,R3,#0x2300
   \   000000D0   030058E1           CMP      R8,R3
   \   000000D4   2500000A           BEQ      ??PutValue_16
   \   000000D8   913083E2           ADD      R3,R3,#+145
   \   000000DC   030058E1           CMP      R8,R3
   \   000000E0   0F00000A           BEQ      ??PutValue_17
   \   000000E4   303083E3           ORR      R3,R3,#0x30
   \   000000E8   030058E1           CMP      R8,R3
   \   000000EC   4F00000A           BEQ      ??PutValue_18
   \   000000F0   013083E2           ADD      R3,R3,#+1
   \   000000F4   030058E1           CMP      R8,R3
   \   000000F8   6E00000A           BEQ      ??PutValue_19
   \   000000FC   013083E3           ORR      R3,R3,#0x1
   \   00000100   030058E1           CMP      R8,R3
   \   00000104   9E00000A           BEQ      ??PutValue_20
   \   00000108   013083E2           ADD      R3,R3,#+1
   \   0000010C   030058E1           CMP      R8,R3
   \   00000110   CC00000A           BEQ      ??PutValue_21
   \   00000114   013083E3           ORR      R3,R3,#0x1
   \   00000118   030058E1           CMP      R8,R3
   \   0000011C   FE00000A           BEQ      ??PutValue_22
   \   00000120   4A0100EA           B        ??PutValue_23
     95                      case SVT_AL_LIMIT_TYPE_LEV:
     96                          if ( !OnlyLevel ) {
   \                     ??PutValue_17:
   \   00000124   000051E3           CMP      R1,#+0
   \   00000128   0E00001A           BNE      ??PutValue_24
     97                              int Value = GetInt(NewValue, Status);
   \   0000012C   0710A0E1           MOV      R1,R7
   \   00000130   08008DE2           ADD      R0,SP,#+8
   \   00000134   ........           _BLF     ??AnsiString,??AnsiString??rA
   \   00000138   0D10A0E1           MOV      R1,SP
   \   0000013C   ........           _BLF     ??GetInt,??GetInt??rA
   \   00000140   0070A0E1           MOV      R7,R0
   \   00000144   0020A0E3           MOV      R2,#+0
   \   00000148   0110A0E3           MOV      R1,#+1
   \   0000014C   08008DE2           ADD      R0,SP,#+8
   \   00000150   ........           _BLF     ??_Tidy,??_Tidy??rA
     98                              if ( Status == E_NO_ERR ) {
   \   00000154   00009DE5           LDR      R0,[SP, #+0]
   \   00000158   000050E3           CMP      R0,#+0
   \   0000015C   4C01001A           BNE      ??PutValue_14
     99                                  LimitType = Value;
   \   00000160   FC7085E5           STR      R7,[R5, #+252]
   \   00000164   4A0100EA           B        ??PutValue_14
    100                              }
    101                          } else {
    102                              Status = E_ILLEGAL;
   \                     ??PutValue_24:
   \   00000168   0C10A0E3           MOV      R1,#+12
   \   0000016C   B2FFFFEA           B        ??PutValue_9
    103                          }
    104                          break;
    105                      case SVT_AL_LIMIT:
    106                          if ( OnlyLevel ) {
   \                     ??PutValue_16:
   \   00000170   000051E3           CMP      R1,#+0
   \   00000174   1B00000A           BEQ      ??PutValue_25
    107                              Limit = ConvertToSi(NewValue, ValUnitId = LENGTH_UNIT, Status, 0.0, PROTankPtr->DBotUllRefPnt, Limit);
   \   00000178   0110A0E3           MOV      R1,#+1
   \   0000017C   04108DE5           STR      R1,[SP, #+4]
   \   00000180   0710A0E1           MOV      R1,R7
   \   00000184   08008DE2           ADD      R0,SP,#+8
   \   00000188   ........           _BLF     ??AnsiString,??AnsiString??rA
   \   0000018C   0070A0E1           MOV      R7,R0
   \   00000190   E40095E5           LDR      R0,[R5, #+228]
   \   00000194   ........           _BLF     __floatToDouble,??__floatToDouble??rA
   \   00000198   03002DE9           PUSH     {R0,R1}
   \   0000019C   EC0095E5           LDR      R0,[R5, #+236]
   \   000001A0   500290E5           LDR      R0,[R0, #+592]
   \   000001A4   ........           _BLF     __floatToDouble,??__floatToDouble??rA
   \   000001A8   03002DE9           PUSH     {R0,R1}
   \   000001AC   0000A0E3           MOV      R0,#+0
   \   000001B0   0010A0E3           MOV      R1,#+0
   \   000001B4   03002DE9           PUSH     {R0,R1}
   \   000001B8   18208DE2           ADD      R2,SP,#+24
   \   000001BC   0110A0E3           MOV      R1,#+1
   \                     ??PutValue_26:
   \   000001C0   0800BDE8           POP      {R3}
   \   000001C4   0700A0E1           MOV      R0,R7
   \   000001C8   ........           _BLF     ??ConvertToSi,??ConvertToSi??rA
   \   000001CC   E40085E5           STR      R0,[R5, #+228]
   \   000001D0   0020A0E3           MOV      R2,#+0
   \   000001D4   0110A0E3           MOV      R1,#+1
   \   000001D8   1C008DE2           ADD      R0,SP,#+28
   \                     ??PutValue_27:
   \   000001DC   ........           _BLF     ??_Tidy,??_Tidy??rA
   \   000001E0   14D08DE2           ADD      SP,SP,#+20
   \   000001E4   2A0100EA           B        ??PutValue_14
    108                          } else {
    109                              Limit = ConvertToSi(NewValue, ValUnitId = PERCENT_UNIT, Status, 0.0, 100.0, Limit);
   \                     ??PutValue_25:
   \   000001E8   1010A0E3           MOV      R1,#+16
   \   000001EC   04108DE5           STR      R1,[SP, #+4]
   \   000001F0   0710A0E1           MOV      R1,R7
   \   000001F4   08008DE2           ADD      R0,SP,#+8
   \   000001F8   ........           _BLF     ??AnsiString,??AnsiString??rA
   \   000001FC   0070A0E1           MOV      R7,R0
   \   00000200   E40095E5           LDR      R0,[R5, #+228]
   \   00000204   ........           _BLF     __floatToDouble,??__floatToDouble??rA
   \   00000208   03002DE9           PUSH     {R0,R1}
   \   0000020C   0000A0E3           MOV      R0,#+0
   \   00000210   4014A0E3           MOV      R1,#+1073741824
   \   00000214   591881E3           ORR      R1,R1,#0x590000
   \   00000218   03002DE9           PUSH     {R0,R1}
   \   0000021C   0010A0E3           MOV      R1,#+0
   \   00000220   03002DE9           PUSH     {R0,R1}
   \   00000224   18208DE2           ADD      R2,SP,#+24
   \   00000228   1010A0E3           MOV      R1,#+16
   \   0000022C   E3FFFFEA           B        ??PutValue_26
    110                          }
    111                          break;
    112                      case SVT_HI_VOLPCNT_LIM:
    113                          switch ( LimitType ) {
   \                     ??PutValue_18:
   \   00000230   B60040E2           SUB      R0,R0,#+182
   \   00000234   D00E40E2           SUB      R0,R0,#+3328
   \   00000238   010050E3           CMP      R0,#+1
   \   0000023C   1401008A           BHI      ??PutValue_14
   \   00000240   021F8FE2           ADR      R1,??PutValue_2
   \   00000244   8000A0E1           MOV      R0,R0, LSL #+1
   \   00000248   F01091E1           LDRSH    R1,[R1, R0]
   \   0000024C   01F18FE0           ADD      PC,PC,R1, LSL #+2
   \                     ??PutValue_2:
   \   00000250   0000C5FF           DC16     +0,+65477
    114                          case AL_LIM_VOLPERCENT:
    115                              Limit = ConvertToSi(NewValue, ValUnitId = PERCENT_UNIT, Status, 0.0, 100.0, Limit);
   \                     ??PutValue_28:
   \   00000254   1010A0E3           MOV      R1,#+16
   \   00000258   04108DE5           STR      R1,[SP, #+4]
   \   0000025C   0710A0E1           MOV      R1,R7
   \   00000260   24008DE2           ADD      R0,SP,#+36
   \   00000264   ........           _BLF     ??AnsiString,??AnsiString??rA
   \   00000268   0070A0E1           MOV      R7,R0
   \   0000026C   E40095E5           LDR      R0,[R5, #+228]
   \   00000270   ........           _BLF     __floatToDouble,??__floatToDouble??rA
   \   00000274   03002DE9           PUSH     {R0,R1}
   \   00000278   0000A0E3           MOV      R0,#+0
   \   0000027C   4014A0E3           MOV      R1,#+1073741824
   \   00000280   591881E3           ORR      R1,R1,#0x590000
   \   00000284   03002DE9           PUSH     {R0,R1}
   \   00000288   0010A0E3           MOV      R1,#+0
   \   0000028C   03002DE9           PUSH     {R0,R1}
   \   00000290   18208DE2           ADD      R2,SP,#+24
   \   00000294   0800BDE8           POP      {R3}
   \   00000298   1010A0E3           MOV      R1,#+16
   \   0000029C   0700A0E1           MOV      R0,R7
   \   000002A0   ........           _BLF     ??ConvertToSi,??ConvertToSi??rA
   \   000002A4   E40085E5           STR      R0,[R5, #+228]
   \   000002A8   0020A0E3           MOV      R2,#+0
   \   000002AC   0110A0E3           MOV      R1,#+1
   \   000002B0   38008DE2           ADD      R0,SP,#+56
   \   000002B4   C8FFFFEA           B        ??PutValue_27
    116                              break;
    117                          case AL_LIM_LEVEL     :
    118                              Status = E_ILLEGAL;
    119                              break;
    120                          }
    121                          break;
    122                      case SVT_HI_VOLUME_LIM :
    123                          switch ( LimitType ) {
   \                     ??PutValue_19:
   \   000002B8   B60040E2           SUB      R0,R0,#+182
   \   000002BC   D00E40E2           SUB      R0,R0,#+3328
   \   000002C0   010050E3           CMP      R0,#+1
   \   000002C4   F200008A           BHI      ??PutValue_14
   \   000002C8   021F8FE2           ADR      R1,??PutValue_3
   \   000002CC   8000A0E1           MOV      R0,R0, LSL #+1
   \   000002D0   F01091E1           LDRSH    R1,[R1, R0]
   \   000002D4   01F18FE0           ADD      PC,PC,R1, LSL #+2
   \                     ??PutValue_3:
   \   000002D8   0000A3FF           DC16     +0,+65443
    124                          case AL_LIM_VOLPERCENT:
    125                              {
    126                                  float MaxVolume = VolumeTab->MaxY;
   \                     ??PutValue_29:
   \   000002DC   F00095E5           LDR      R0,[R5, #+240]
    127                                  float NewLimit = ConvertToSi(NewValue, ValUnitId = VOLUME_UNIT, Status, 0.0, MaxVolume, 0.0);
   \   000002E0   0210A0E3           MOV      R1,#+2
   \   000002E4   188090E5           LDR      R8,[R0, #+24]
   \   000002E8   04108DE5           STR      R1,[SP, #+4]
   \   000002EC   0710A0E1           MOV      R1,R7
   \   000002F0   08008DE2           ADD      R0,SP,#+8
   \   000002F4   ........           _BLF     ??AnsiString,??AnsiString??rA
   \   000002F8   0070A0E1           MOV      R7,R0
   \   000002FC   0000A0E3           MOV      R0,#+0
   \   00000300   0010A0E3           MOV      R1,#+0
   \   00000304   03002DE9           PUSH     {R0,R1}
   \   00000308   0800A0E1           MOV      R0,R8
   \   0000030C   ........           _BLF     __floatToDouble,??__floatToDouble??rA
   \   00000310   03002DE9           PUSH     {R0,R1}
   \   00000314   0000A0E3           MOV      R0,#+0
   \   00000318   0010A0E1           MOV      R1,R0
   \   0000031C   03002DE9           PUSH     {R0,R1}
   \   00000320   18208DE2           ADD      R2,SP,#+24
   \   00000324   0800BDE8           POP      {R3}
   \   00000328   0210A0E3           MOV      R1,#+2
   \   0000032C   0700A0E1           MOV      R0,R7
   \   00000330   ........           _BLF     ??ConvertToSi,??ConvertToSi??rA
   \   00000334   0070A0E1           MOV      R7,R0
   \   00000338   0020A0E3           MOV      R2,#+0
   \   0000033C   0110A0E3           MOV      R1,#+1
   \   00000340   1C008DE2           ADD      R0,SP,#+28
   \   00000344   ........           _BLF     ??_Tidy,??_Tidy??rA
    128                                  if ( Status == E_NO_ERR ) {
   \   00000348   14009DE5           LDR      R0,[SP, #+20]
   \   0000034C   14D08DE2           ADD      SP,SP,#+20
   \   00000350   000050E3           CMP      R0,#+0
   \   00000354   CE00001A           BNE      ??PutValue_14
    129                                      Limit = NewLimit / MaxVolume * 100.0;
   \   00000358   0700A0E1           MOV      R0,R7
   \                     ??PutValue_30:
   \   0000035C   0810A0E1           MOV      R1,R8
   \   00000360   ........           _BLF     __fDiv,??__fDiv??rA
   \   00000364   ........           _BLF     __floatToDouble,??__floatToDouble??rA
   \   00000368   0020A0E3           MOV      R2,#+0
   \   0000036C   4034A0E3           MOV      R3,#+1073741824
   \   00000370   593883E3           ORR      R3,R3,#0x590000
   \   00000374   ........           _BLF     __dMul,??__dMul??rA
   \   00000378   ........           _BLF     __doubleToFloat,??__doubleToFloat??rA
   \   0000037C   E40085E5           STR      R0,[R5, #+228]
   \   00000380   C60000EA           B        ??PutValue_31
    130                                  }
    131                              }
    132                              break;
    133                          case AL_LIM_LEVEL     :
    134                              Status = E_ILLEGAL;
    135                              break;
    136                          }
    137                          break;
    138                      case SVT_HI_WEIGHT_LIM :
    139                          switch ( LimitType ) {
   \                     ??PutValue_20:
   \   00000384   B60040E2           SUB      R0,R0,#+182
   \   00000388   D00E40E2           SUB      R0,R0,#+3328
   \   0000038C   010050E3           CMP      R0,#+1
   \   00000390   BF00008A           BHI      ??PutValue_14
   \   00000394   021F8FE2           ADR      R1,??PutValue_4
   \   00000398   8000A0E1           MOV      R0,R0, LSL #+1
   \   0000039C   F01091E1           LDRSH    R1,[R1, R0]
   \   000003A0   01F18FE0           ADD      PC,PC,R1, LSL #+2
   \                     ??PutValue_4:
   \   000003A4   000070FF           DC16     +0,+65392
    140                          case AL_LIM_VOLPERCENT:
    141                              {
    142                                  float MaxWeight = VolumeTab->MaxY * PROTankPtr->Density;
   \                     ??PutValue_32:
   \   000003A8   F00095E5           LDR      R0,[R5, #+240]
   \   000003AC   181090E5           LDR      R1,[R0, #+24]
   \   000003B0   EC0095E5           LDR      R0,[R5, #+236]
   \   000003B4   940290E5           LDR      R0,[R0, #+660]
   \   000003B8   ........           _BLF     __fMul,??__fMul??rA
   \   000003BC   0080A0E1           MOV      R8,R0
    143                                  float NewLimit = ConvertToSi(NewValue, ValUnitId = WEIGHT_UNIT, Status, 0.0, MaxWeight, 0.0);
   \   000003C0   0310A0E3           MOV      R1,#+3
   \   000003C4   04108DE5           STR      R1,[SP, #+4]
   \   000003C8   0710A0E1           MOV      R1,R7
   \   000003CC   08008DE2           ADD      R0,SP,#+8
   \   000003D0   ........           _BLF     ??AnsiString,??AnsiString??rA
   \   000003D4   0070A0E1           MOV      R7,R0
   \   000003D8   0000A0E3           MOV      R0,#+0
   \   000003DC   0010A0E3           MOV      R1,#+0
   \   000003E0   03002DE9           PUSH     {R0,R1}
   \   000003E4   0800A0E1           MOV      R0,R8
   \   000003E8   ........           _BLF     __floatToDouble,??__floatToDouble??rA
   \   000003EC   03002DE9           PUSH     {R0,R1}
   \   000003F0   0000A0E3           MOV      R0,#+0
   \   000003F4   0010A0E1           MOV      R1,R0
   \   000003F8   03002DE9           PUSH     {R0,R1}
   \   000003FC   18208DE2           ADD      R2,SP,#+24
   \   00000400   0800BDE8           POP      {R3}
   \   00000404   0310A0E3           MOV      R1,#+3
   \   00000408   0700A0E1           MOV      R0,R7
   \   0000040C   ........           _BLF     ??ConvertToSi,??ConvertToSi??rA
   \   00000410   0070A0E1           MOV      R7,R0
   \   00000414   0020A0E3           MOV      R2,#+0
   \   00000418   0110A0E3           MOV      R1,#+1
   \   0000041C   1C008DE2           ADD      R0,SP,#+28
   \   00000420   ........           _BLF     ??_Tidy,??_Tidy??rA
    144                                  NewLimit = CorrectToWeightInVacuum(NewLimit, PROTankPtr->Density);
   \   00000424   EC0095E5           LDR      R0,[R5, #+236]
   \   00000428   941290E5           LDR      R1,[R0, #+660]
   \   0000042C   0700A0E1           MOV      R0,R7
   \   00000430   ........           _BLF     ??CorrectToWeightInVacuum,??CorrectToWeightInVacuum??rA
    145                                  if ( Status == E_NO_ERR ) {
   \   00000434   14109DE5           LDR      R1,[SP, #+20]
   \   00000438   14D08DE2           ADD      SP,SP,#+20
   \   0000043C   000051E3           CMP      R1,#+0
   \   00000440   9300001A           BNE      ??PutValue_14
    146                                      Limit = NewLimit / MaxWeight * 100.0;
   \   00000444   C4FFFFEA           B        ??PutValue_30
    147                                  }
    148                              }
    149                              break;
    150                          case AL_LIM_LEVEL     :
    151                              Status = E_ILLEGAL;
    152                              break;
    153                          }
    154                          break;
    155                      case SVT_HI_ULLAGE_LIM :
    156                          switch ( LimitType ) {
   \                     ??PutValue_21:
   \   00000448   B60040E2           SUB      R0,R0,#+182
   \   0000044C   D00E40E2           SUB      R0,R0,#+3328
   \   00000450   010050E3           CMP      R0,#+1
   \   00000454   8E00008A           BHI      ??PutValue_14
   \   00000458   021F8FE2           ADR      R1,??PutValue_5
   \   0000045C   8000A0E1           MOV      R0,R0, LSL #+1
   \   00000460   F01091E1           LDRSH    R1,[R1, R0]
   \   00000464   01F18FE0           ADD      PC,PC,R1, LSL #+2
   \                     ??PutValue_5:
   \   00000468   00003FFF           DC16     +0,+65343
    157                          case AL_LIM_VOLPERCENT:
    158                              {
    159                                  float NewLimit = ConvertToSi(NewValue, ValUnitId = LENGTH_UNIT, Status, 0.0, PROTankPtr->DBotUllRefPnt, 0.0);
   \                     ??PutValue_33:
   \   0000046C   0110A0E3           MOV      R1,#+1
   \   00000470   04108DE5           STR      R1,[SP, #+4]
   \   00000474   0710A0E1           MOV      R1,R7
   \   00000478   08008DE2           ADD      R0,SP,#+8
   \   0000047C   ........           _BLF     ??AnsiString,??AnsiString??rA
   \   00000480   0070A0E1           MOV      R7,R0
   \   00000484   0000A0E3           MOV      R0,#+0
   \   00000488   0010A0E3           MOV      R1,#+0
   \   0000048C   03002DE9           PUSH     {R0,R1}
   \   00000490   EC0095E5           LDR      R0,[R5, #+236]
   \   00000494   500290E5           LDR      R0,[R0, #+592]
   \   00000498   ........           _BLF     __floatToDouble,??__floatToDouble??rA
   \   0000049C   03002DE9           PUSH     {R0,R1}
   \   000004A0   0000A0E3           MOV      R0,#+0
   \   000004A4   0010A0E1           MOV      R1,R0
   \   000004A8   03002DE9           PUSH     {R0,R1}
   \   000004AC   18208DE2           ADD      R2,SP,#+24
   \   000004B0   0800BDE8           POP      {R3}
   \   000004B4   0110A0E3           MOV      R1,#+1
   \   000004B8   0700A0E1           MOV      R0,R7
   \   000004BC   ........           _BLF     ??ConvertToSi,??ConvertToSi??rA
   \   000004C0   0070A0E1           MOV      R7,R0
   \   000004C4   0020A0E3           MOV      R2,#+0
   \   000004C8   0110A0E3           MOV      R1,#+1
   \   000004CC   1C008DE2           ADD      R0,SP,#+28
   \   000004D0   ........           _BLF     ??_Tidy,??_Tidy??rA
    160                                  if ( Status == E_NO_ERR ) {
   \   000004D4   14009DE5           LDR      R0,[SP, #+20]
   \   000004D8   14D08DE2           ADD      SP,SP,#+20
   \   000004DC   000050E3           CMP      R0,#+0
   \   000004E0   6B00001A           BNE      ??PutValue_14
    161                                      if ( UllVolumeTab ) {
   \   000004E4   F80095E5           LDR      R0,[R5, #+248]
   \   000004E8   000050E3           CMP      R0,#+0
   \   000004EC   0300000A           BEQ      ??PutValue_34
    162                                          Limit = UllVolumeTab->Calc_YPercent(NewLimit);
   \   000004F0   0710A0E1           MOV      R1,R7
   \                     ??PutValue_35:
   \   000004F4   ........           _BLF     ??Calc_YPercent,??Calc_YPercent??rA
   \   000004F8   E40085E5           STR      R0,[R5, #+228]
   \   000004FC   640000EA           B        ??PutValue_14
    163                                      } else {
    164                                          float Level = PROTankPtr->DBotUllRefPnt - NewLimit;
    165                                          Limit = LevVolumeTab->Calc_YPercent(Level);
   \                     ??PutValue_34:
   \   00000500   EC0095E5           LDR      R0,[R5, #+236]
   \   00000504   0710A0E1           MOV      R1,R7
   \   00000508   500290E5           LDR      R0,[R0, #+592]
   \   0000050C   ........           _BLF     __fSub,??__fSub??rA
   \   00000510   0010A0E1           MOV      R1,R0
   \   00000514   F40095E5           LDR      R0,[R5, #+244]
   \   00000518   F5FFFFEA           B        ??PutValue_35
    166                                      }
    167                                  }
    168                              }
    169                              break;
    170                          case AL_LIM_LEVEL     :
    171                              Status = E_ILLEGAL;
    172                              break;
    173                          }
    174                          break;
    175                      case SVT_HI_LEVEL_LIM  :
    176                          switch ( LimitType ) {
   \                     ??PutValue_22:
   \   0000051C   B60040E2           SUB      R0,R0,#+182
   \   00000520   D00E40E2           SUB      R0,R0,#+3328
   \   00000524   010050E3           CMP      R0,#+1
   \   00000528   5900008A           BHI      ??PutValue_14
   \   0000052C   011F8FE2           ADR      R1,??PutValue_6
   \   00000530   0010D1E7           LDRB     R1,[R1, R0]
   \   00000534   01F18FE0           ADD      PC,PC,R1, LSL #+2
   \                     ??PutValue_6:
   \   00000538   002B0000           DC8      +0,+43,+0,+0
    177                          case AL_LIM_VOLPERCENT:
    178                              {
    179                                  float NewLimit = ConvertToSi(NewValue, ValUnitId = LENGTH_UNIT, Status, 0.0, PROTankPtr->DBotUllRefPnt, 0.0);
   \                     ??PutValue_36:
   \   0000053C   0110A0E3           MOV      R1,#+1
   \   00000540   04108DE5           STR      R1,[SP, #+4]
   \   00000544   0710A0E1           MOV      R1,R7
   \   00000548   08008DE2           ADD      R0,SP,#+8
   \   0000054C   ........           _BLF     ??AnsiString,??AnsiString??rA
   \   00000550   0070A0E1           MOV      R7,R0
   \   00000554   0000A0E3           MOV      R0,#+0
   \   00000558   0010A0E3           MOV      R1,#+0
   \   0000055C   03002DE9           PUSH     {R0,R1}
   \   00000560   EC0095E5           LDR      R0,[R5, #+236]
   \   00000564   500290E5           LDR      R0,[R0, #+592]
   \   00000568   ........           _BLF     __floatToDouble,??__floatToDouble??rA
   \   0000056C   03002DE9           PUSH     {R0,R1}
   \   00000570   0000A0E3           MOV      R0,#+0
   \   00000574   0010A0E1           MOV      R1,R0
   \   00000578   03002DE9           PUSH     {R0,R1}
   \   0000057C   18208DE2           ADD      R2,SP,#+24
   \   00000580   0800BDE8           POP      {R3}
   \   00000584   0110A0E3           MOV      R1,#+1
   \   00000588   0700A0E1           MOV      R0,R7
   \   0000058C   ........           _BLF     ??ConvertToSi,??ConvertToSi??rA
   \   00000590   0070A0E1           MOV      R7,R0
   \   00000594   0020A0E3           MOV      R2,#+0
   \   00000598   0110A0E3           MOV      R1,#+1
   \   0000059C   1C008DE2           ADD      R0,SP,#+28
   \   000005A0   ........           _BLF     ??_Tidy,??_Tidy??rA
    180                                  if ( Status == E_NO_ERR ) {
   \   000005A4   14009DE5           LDR      R0,[SP, #+20]
   \   000005A8   14D08DE2           ADD      SP,SP,#+20
   \   000005AC   000050E3           CMP      R0,#+0
   \   000005B0   3700001A           BNE      ??PutValue_14
    181                                      if ( UllVolumeTab ) {
   \   000005B4   F88095E5           LDR      R8,[R5, #+248]
   \   000005B8   000058E3           CMP      R8,#+0
   \   000005BC   0600000A           BEQ      ??PutValue_37
    182                                          float UllageRef = PROTankPtr->DBotUllRefPnt - NewLimit;
    183                                          Limit = UllVolumeTab->Calc_YPercent(UllageRef);
   \   000005C0   EC0095E5           LDR      R0,[R5, #+236]
   \   000005C4   0710A0E1           MOV      R1,R7
   \   000005C8   500290E5           LDR      R0,[R0, #+592]
   \   000005CC   ........           _BLF     __fSub,??__fSub??rA
   \   000005D0   0010A0E1           MOV      R1,R0
   \   000005D4   0800A0E1           MOV      R0,R8
   \   000005D8   C5FFFFEA           B        ??PutValue_35
    184                                      } else {
    185                                          Limit = LevVolumeTab->Calc_YPercent(NewLimit);
   \                     ??PutValue_37:
   \   000005DC   F40095E5           LDR      R0,[R5, #+244]
   \   000005E0   0710A0E1           MOV      R1,R7
   \   000005E4   C2FFFFEA           B        ??PutValue_35
    186                                      }
    187                                  }
    188                              }
    189                              break;
    190                          case AL_LIM_LEVEL     :
    191                              Limit = ConvertToSi(NewValue, ValUnitId = LENGTH_UNIT, Status, 0.0, PROTankPtr->DBotUllRefPnt, Limit);
   \                     ??PutValue_38:
   \   000005E8   0110A0E3           MOV      R1,#+1
   \   000005EC   04108DE5           STR      R1,[SP, #+4]
   \   000005F0   0710A0E1           MOV      R1,R7
   \   000005F4   40008DE2           ADD      R0,SP,#+64
   \   000005F8   ........           _BLF     ??AnsiString,??AnsiString??rA
   \   000005FC   0070A0E1           MOV      R7,R0
   \   00000600   E40095E5           LDR      R0,[R5, #+228]
   \   00000604   ........           _BLF     __floatToDouble,??__floatToDouble??rA
   \   00000608   03002DE9           PUSH     {R0,R1}
   \   0000060C   EC0095E5           LDR      R0,[R5, #+236]
   \   00000610   500290E5           LDR      R0,[R0, #+592]
   \   00000614   ........           _BLF     __floatToDouble,??__floatToDouble??rA
   \   00000618   03002DE9           PUSH     {R0,R1}
   \   0000061C   0000A0E3           MOV      R0,#+0
   \   00000620   0010A0E3           MOV      R1,#+0
   \   00000624   03002DE9           PUSH     {R0,R1}
   \   00000628   18208DE2           ADD      R2,SP,#+24
   \   0000062C   0800BDE8           POP      {R3}
   \   00000630   0110A0E3           MOV      R1,#+1
   \   00000634   0700A0E1           MOV      R0,R7
   \   00000638   ........           _BLF     ??ConvertToSi,??ConvertToSi??rA
   \   0000063C   E40085E5           STR      R0,[R5, #+228]
   \   00000640   0020A0E3           MOV      R2,#+0
   \   00000644   0110A0E3           MOV      R1,#+1
   \   00000648   54008DE2           ADD      R0,SP,#+84
   \   0000064C   E2FEFFEA           B        ??PutValue_27
    192                              break;
    193                          }
    194                          break;
    195                      default:
    196                          Status = AlarmBasic::PutValue(ValueId, Index, NewValue, Local, &ValUnitId);
   \                     ??PutValue_23:
   \   00000650   0710A0E1           MOV      R1,R7
   \   00000654   5C008DE2           ADD      R0,SP,#+92
   \   00000658   ........           _BLF     ??AnsiString,??AnsiString??rA
   \   0000065C   0030A0E1           MOV      R3,R0
   \   00000660   04008DE2           ADD      R0,SP,#+4
   \   00000664   01002DE9           PUSH     {R0}
   \   00000668   00042DE9           PUSH     {R10}
   \   0000066C   0920A0E1           MOV      R2,R9
   \   00000670   0810A0E1           MOV      R1,R8
   \   00000674   0500A0E1           MOV      R0,R5
   \   00000678   ........           _BLF     ??PutValue_7,??PutValue??rA
   \   0000067C   08008DE5           STR      R0,[SP, #+8]
   \   00000680   0020A0E3           MOV      R2,#+0
   \   00000684   0110A0E3           MOV      R1,#+1
   \   00000688   64008DE2           ADD      R0,SP,#+100
   \   0000068C   ........           _BLF     ??_Tidy,??_Tidy??rA
   \   00000690   08D08DE2           ADD      SP,SP,#+8
    197                          break;
    198                      }
    199                      break; // switch ( ValueId )
    200                  } //switch ( Key )
    201                  if ( Status == E_NO_ERR ) {
   \                     ??PutValue_14:
   \   00000694   00009DE5           LDR      R0,[SP, #+0]
   \   00000698   000050E3           CMP      R0,#+0
   \   0000069C   1300001A           BNE      ??PutValue_10
    202                      SetModifiedFlag();
   \                     ??PutValue_31:
   \   000006A0   A41095E5           LDR      R1,[R5, #+164]
   \   000006A4   0500A0E1           MOV      R0,R5
   \   000006A8   541091E5           LDR      R1,[R1, #+84]
   \   000006AC   0FE0A0E1           MOV      LR,PC
   \   000006B0   11FF2FE1           BX       R1
    203          			if ( Limit != OrgLimit ) {
   \   000006B4   E40095E5           LDR      R0,[R5, #+228]
   \   000006B8   0610A0E1           MOV      R1,R6
   \   000006BC   ........           _BLF     __fNotEqual,??__fNotEqual??rA
   \   000006C0   000050E3           CMP      R0,#+0
   \   000006C4   0900000A           BEQ      ??PutValue_10
    204          				LogEvent("New limit");
   \   000006C8   3C109FE5           LDR      R1,??PutValue_39  ;; `?<Constant "New limit">`
   \   000006CC   08008DE2           ADD      R0,SP,#+8
   \   000006D0   ........           _BLF     ??AnsiString_1,??AnsiString??rA_1
   \   000006D4   0010A0E1           MOV      R1,R0
   \   000006D8   0500A0E1           MOV      R0,R5
   \   000006DC   ........           _BLF     ??LogEvent,??LogEvent??rA
   \   000006E0   0020A0E3           MOV      R2,#+0
   \   000006E4   0110A0E3           MOV      R1,#+1
   \   000006E8   08008DE2           ADD      R0,SP,#+8
   \   000006EC   ........           _BLF     ??_Tidy,??_Tidy??rA
    205          			}
    206                  }
    207              } // if ( Locked ) else
    208              if ( UnitId ) {
   \                     ??PutValue_10:
   \   000006F0   000054E3           CMP      R4,#+0
    209                  *UnitId = ValUnitId;
   \   000006F4   04009D15           LDRNE    R0,[SP, #+4]
   \   000006F8   00008415           STRNE    R0,[R4, #+0]
    210              }
    211              return (Status);
   \   000006FC   00009DE5           LDR      R0,[SP, #+0]
   \   00000700   94D08DE2           ADD      SP,SP,#+148
   \   00000704   F04FBDE8           POP      {R4-R11,LR}
   \   00000708   1EFF2FE1           BX       LR               ;; return
   \                     ??PutValue_39:
   \   0000070C   ........           DC32     `?<Constant "New limit">`
    212          }
    213          

   \                                 In segment CODE, align 4, keep-with-next
    214          int  AlarmHighLevel::GetValue(int ValueId, int Index, float &MyRetValue, int &DecPnt, int &Unit) {
   \                     ??GetValue:
   \   00000000   F64F2DE9           PUSH     {R1,R2,R4-R11,LR}
    215              int Status = GETVAL_NO_ERR;
   \   00000004   00C09DE5           LDR      R12,[SP, #+0]
   \   00000008   2C809DE5           LDR      R8,[SP, #+44]
   \   0000000C   30709DE5           LDR      R7,[SP, #+48]
   \   00000010   0050A0E1           MOV      R5,R0
   \   00000014   F40095E5           LDR      R0,[R5, #+244]
   \   00000018   F82095E5           LDR      R2,[R5, #+248]
   \   0000001C   ECB095E5           LDR      R11,[R5, #+236]
   \   00000020   FC1095E5           LDR      R1,[R5, #+252]
   \   00000024   0360A0E1           MOV      R6,R3
   \   00000028   E43095E5           LDR      R3,[R5, #+228]
   \   0000002C   0040A0E3           MOV      R4,#+0
   \   00000030   0190A0E3           MOV      R9,#+1
   \   00000034   02A0A0E3           MOV      R10,#+2
   \   00000038   32E0A0E3           MOV      LR,#+50
   \   0000003C   8CED8EE3           ORR      LR,LR,#0x2300
   \   00000040   0E005CE1           CMP      R12,LR
   \   00000044   1C00000A           BEQ      ??GetValue_8
   \   00000048   01E08EE3           ORR      LR,LR,#0x1
   \   0000004C   0E005CE1           CMP      R12,LR
   \   00000050   A500000A           BEQ      ??GetValue_9
   \   00000054   90E08EE2           ADD      LR,LR,#+144
   \   00000058   0E005CE1           CMP      R12,LR
   \   0000005C   0F00000A           BEQ      ??GetValue_10
   \   00000060   30E08EE3           ORR      LR,LR,#0x30
   \   00000064   0E005CE1           CMP      R12,LR
   \   00000068   1A00000A           BEQ      ??GetValue_11
   \   0000006C   01E08EE2           ADD      LR,LR,#+1
   \   00000070   0E005CE1           CMP      R12,LR
   \   00000074   2800000A           BEQ      ??GetValue_12
   \   00000078   01E08EE3           ORR      LR,LR,#0x1
   \   0000007C   0E005CE1           CMP      R12,LR
   \   00000080   4100000A           BEQ      ??GetValue_13
   \   00000084   01E08EE2           ADD      LR,LR,#+1
   \   00000088   0E005CE1           CMP      R12,LR
   \   0000008C   6200000A           BEQ      ??GetValue_14
   \   00000090   01E08EE3           ORR      LR,LR,#0x1
   \   00000094   0E005CE1           CMP      R12,LR
   \   00000098   7D00000A           BEQ      ??GetValue_15
   \   0000009C   A50000EA           B        ??GetValue_16
    216              switch ( ValueId ) {
    217              case SVT_AL_LIMIT_TYPE_LEV:
    218                  MyRetValue = LimitType;
   \                     ??GetValue_10:
   \   000000A0   0100A0E1           MOV      R0,R1
   \   000000A4   ........           _BLF     __longToFloat,??__longToFloat??rA
   \   000000A8   000086E5           STR      R0,[R6, #+0]
    219                  DecPnt     = 0;
   \   000000AC   0000A0E3           MOV      R0,#+0
   \   000000B0   000088E5           STR      R0,[R8, #+0]
    220                  Unit       = NO_UNIT;
   \                     ??GetValue_17:
   \   000000B4   000087E5           STR      R0,[R7, #+0]
   \   000000B8   A70000EA           B        ??GetValue_18
    221                  break;
    222              case SVT_AL_LIMIT:
    223                  MyRetValue = Limit;
   \                     ??GetValue_8:
   \   000000BC   003086E5           STR      R3,[R6, #+0]
    224                  if ( OnlyLevel ) {
   \   000000C0   0001D5E5           LDRB     R0,[R5, #+256]
   \   000000C4   000050E3           CMP      R0,#+0
   \   000000C8   0E00000A           BEQ      ??GetValue_19
    225                      DecPnt     = 2;
   \   000000CC   00A088E5           STR      R10,[R8, #+0]
    226                      Unit       = LENGTH_UNIT;
   \   000000D0   009087E5           STR      R9,[R7, #+0]
   \   000000D4   A00000EA           B        ??GetValue_18
    227                  } else {
    228                      DecPnt     = 1;
    229                      Unit       = PERCENT_UNIT;
    230                  }
    231                  break;
    232              case SVT_HI_VOLPCNT_LIM:
    233                  switch ( LimitType ) {
   \                     ??GetValue_11:
   \   000000D8   B61041E2           SUB      R1,R1,#+182
   \   000000DC   D01E41E2           SUB      R1,R1,#+3328
   \   000000E0   010051E3           CMP      R1,#+1
   \   000000E4   0700008A           BHI      ??GetValue_19
   \   000000E8   010F8FE2           ADR      R0,??GetValue_1
   \   000000EC   0100D0E7           LDRB     R0,[R0, R1]
   \   000000F0   00F18FE0           ADD      PC,PC,R0, LSL #+2
   \                     ??GetValue_1:
   \   000000F4   00070000           DC8      +0,+7,+0,+0
    234                  case AL_LIM_VOLPERCENT:
    235                      MyRetValue = Limit;
   \                     ??GetValue_20:
   \   000000F8   003086E5           STR      R3,[R6, #+0]
    236                      if ( !Enable ) {
   \   000000FC   E200D5E5           LDRB     R0,[R5, #+226]
   \   00000100   000050E3           CMP      R0,#+0
    237                          Status     = GETVAL_DISABLED;
   \   00000104   0940A003           MOVEQ    R4,#+9
    238                      }
   \                     ??GetValue_19:
   \   00000108   009088E5           STR      R9,[R8, #+0]
   \   0000010C   1000A0E3           MOV      R0,#+16
   \   00000110   E7FFFFEA           B        ??GetValue_17
    239                      break;
    240                  case AL_LIM_LEVEL     :
    241                      Status = GETVAL_NOT_AVAILABLE;
   \                     ??GetValue_21:
   \   00000114   0140A0E3           MOV      R4,#+1
   \   00000118   FAFFFFEA           B        ??GetValue_19
    242                      break;
    243                  }
    244                  DecPnt     = 1;
    245                  Unit       = PERCENT_UNIT;
    246                  break;
    247              case SVT_HI_VOLUME_LIM :
    248                  switch ( LimitType ) {
   \                     ??GetValue_12:
   \   0000011C   B61041E2           SUB      R1,R1,#+182
   \   00000120   D01E41E2           SUB      R1,R1,#+3328
   \   00000124   010051E3           CMP      R1,#+1
   \   00000128   1400008A           BHI      ??GetValue_22
   \   0000012C   010F8FE2           ADR      R0,??GetValue_2
   \   00000130   0100D0E7           LDRB     R0,[R0, R1]
   \   00000134   00F18FE0           ADD      PC,PC,R0, LSL #+2
   \                     ??GetValue_2:
   \   00000138   00100000           DC8      +0,+16,+0,+0
    249                  case AL_LIM_VOLPERCENT:
    250                      MyRetValue = VolumeTab->MaxY * Limit / 100.0;
   \                     ??GetValue_23:
   \   0000013C   F00095E5           LDR      R0,[R5, #+240]
   \   00000140   0310A0E1           MOV      R1,R3
   \   00000144   180090E5           LDR      R0,[R0, #+24]
   \   00000148   ........           _BLF     __fMul,??__fMul??rA
   \   0000014C   ........           _BLF     __floatToDouble,??__floatToDouble??rA
   \   00000150   0020A0E3           MOV      R2,#+0
   \   00000154   4034A0E3           MOV      R3,#+1073741824
   \   00000158   593883E3           ORR      R3,R3,#0x590000
   \   0000015C   ........           _BLF     __dDiv,??__dDiv??rA
   \   00000160   ........           _BLF     __doubleToFloat,??__doubleToFloat??rA
   \   00000164   000086E5           STR      R0,[R6, #+0]
    251                      if ( !Enable ) {
   \   00000168   E200D5E5           LDRB     R0,[R5, #+226]
   \   0000016C   000050E3           CMP      R0,#+0
   \   00000170   0200001A           BNE      ??GetValue_22
    252                          Status     = GETVAL_DISABLED;
   \   00000174   0940A0E3           MOV      R4,#+9
   \   00000178   000000EA           B        ??GetValue_22
    253                      }
    254                      break;
    255                  case AL_LIM_LEVEL     :
    256                      Status = GETVAL_NOT_AVAILABLE;
   \                     ??GetValue_24:
   \   0000017C   0140A0E3           MOV      R4,#+1
    257                      break;
    258                  }
    259                  DecPnt     = 1;
   \                     ??GetValue_22:
   \   00000180   009088E5           STR      R9,[R8, #+0]
    260                  Unit       = VOLUME_UNIT;
   \   00000184   00A087E5           STR      R10,[R7, #+0]
   \   00000188   730000EA           B        ??GetValue_18
    261                  break;
    262              case SVT_HI_WEIGHT_LIM :
    263                  switch ( LimitType ) {
   \                     ??GetValue_13:
   \   0000018C   B61041E2           SUB      R1,R1,#+182
   \   00000190   D01E41E2           SUB      R1,R1,#+3328
   \   00000194   010051E3           CMP      R1,#+1
   \   00000198   1C00008A           BHI      ??GetValue_25
   \   0000019C   010F8FE2           ADR      R0,??GetValue_3
   \   000001A0   0100D0E7           LDRB     R0,[R0, R1]
   \   000001A4   00F18FE0           ADD      PC,PC,R0, LSL #+2
   \                     ??GetValue_3:
   \   000001A8   00180000           DC8      +0,+24,+0,+0
    264                  case AL_LIM_VOLPERCENT:
    265                      MyRetValue = GetCorrectedWeight(VolumeTab->MaxY * Limit / 100.0 * PROTankPtr->Density, PROTankPtr->Density);
   \                     ??GetValue_26:
   \   000001AC   F00095E5           LDR      R0,[R5, #+240]
   \   000001B0   94A29BE5           LDR      R10,[R11, #+660]
   \   000001B4   180090E5           LDR      R0,[R0, #+24]
   \   000001B8   0310A0E1           MOV      R1,R3
   \   000001BC   ........           _BLF     __fMul,??__fMul??rA
   \   000001C0   ........           _BLF     __floatToDouble,??__floatToDouble??rA
   \   000001C4   0020A0E3           MOV      R2,#+0
   \   000001C8   4034A0E3           MOV      R3,#+1073741824
   \   000001CC   593883E3           ORR      R3,R3,#0x590000
   \   000001D0   ........           _BLF     __dDiv,??__dDiv??rA
   \   000001D4   03002DE9           PUSH     {R0,R1}
   \   000001D8   94029BE5           LDR      R0,[R11, #+660]
   \   000001DC   ........           _BLF     __floatToDouble,??__floatToDouble??rA
   \   000001E0   0C00BDE8           POP      {R2,R3}
   \   000001E4   ........           _BLF     __dMul,??__dMul??rA
   \   000001E8   ........           _BLF     __doubleToFloat,??__doubleToFloat??rA
   \   000001EC   0A10A0E1           MOV      R1,R10
   \   000001F0   ........           _BLF     ??GetCorrectedWeight,??GetCorrectedWeight??rA
   \   000001F4   000086E5           STR      R0,[R6, #+0]
    266                      if ( !Enable ) {
   \   000001F8   E200D5E5           LDRB     R0,[R5, #+226]
   \   000001FC   000050E3           CMP      R0,#+0
   \   00000200   0200001A           BNE      ??GetValue_25
    267                          Status     = GETVAL_DISABLED;
   \   00000204   0940A0E3           MOV      R4,#+9
   \   00000208   000000EA           B        ??GetValue_25
    268                      }
    269                      break;
    270                  case AL_LIM_LEVEL     :
    271                      Status = GETVAL_NOT_AVAILABLE;
   \                     ??GetValue_27:
   \   0000020C   0140A0E3           MOV      R4,#+1
    272                      break;
    273                  }
    274                  DecPnt     = 1;
   \                     ??GetValue_25:
   \   00000210   009088E5           STR      R9,[R8, #+0]
    275                  Unit       = WEIGHT_UNIT;
   \   00000214   0300A0E3           MOV      R0,#+3
   \   00000218   A5FFFFEA           B        ??GetValue_17
    276                  break;
    277              case SVT_HI_ULLAGE_LIM :
    278                  switch ( LimitType ) {
   \                     ??GetValue_14:
   \   0000021C   B61041E2           SUB      R1,R1,#+182
   \   00000220   D01E41E2           SUB      R1,R1,#+3328
   \   00000224   010051E3           CMP      R1,#+1
   \   00000228   1200008A           BHI      ??GetValue_28
   \   0000022C   01CF8FE2           ADR      R12,??GetValue_4
   \   00000230   01C0DCE7           LDRB     R12,[R12, R1]
   \   00000234   0CF18FE0           ADD      PC,PC,R12, LSL #+2
   \                     ??GetValue_4:
   \   00000238   000B0000           DC8      +0,+11,+0,+0
    279                  case AL_LIM_VOLPERCENT:
    280                      if ( UllVolumeTab ) {
   \                     ??GetValue_29:
   \   0000023C   000052E3           CMP      R2,#+0
   \   00000240   0310A0E1           MOV      R1,R3
   \   00000244   0200000A           BEQ      ??GetValue_30
    281                          MyRetValue = UllVolumeTab->Calc_XPercent(Limit);
   \   00000248   0200A0E1           MOV      R0,R2
   \   0000024C   ........           _BLF     ??Calc_XPercent,??Calc_XPercent??rA
   \   00000250   070000EA           B        ??GetValue_31
    282                      } else {
    283                          float MyLevel = LevVolumeTab->Calc_XPercent(Limit);
   \                     ??GetValue_30:
   \   00000254   ........           _BLF     ??Calc_XPercent,??Calc_XPercent??rA
   \   00000258   0010A0E1           MOV      R1,R0
    284                          MyRetValue    = PROTankPtr->DBotUllRefPnt - MyLevel;
   \   0000025C   EC0095E5           LDR      R0,[R5, #+236]
   \   00000260   500290E5           LDR      R0,[R0, #+592]
   \   00000264   010000EA           B        ??GetValue_32
    285                      }
    286                      break;
    287                  case AL_LIM_LEVEL     :
    288                      MyRetValue = PROTankPtr->DBotUllRefPnt - Limit;
   \                     ??GetValue_33:
   \   00000268   50029BE5           LDR      R0,[R11, #+592]
   \   0000026C   0310A0E1           MOV      R1,R3
   \                     ??GetValue_32:
   \   00000270   ........           _BLF     __fSub,??__fSub??rA
   \                     ??GetValue_31:
   \   00000274   000086E5           STR      R0,[R6, #+0]
    289                      break;
    290                  }
    291                  DecPnt     = 2;
   \                     ??GetValue_28:
   \   00000278   00A088E5           STR      R10,[R8, #+0]
    292                  Unit       = LENGTH_UNIT;
   \   0000027C   009087E5           STR      R9,[R7, #+0]
    293                  if ( !Enable ) {
   \                     ??GetValue_34:
   \   00000280   E200D5E5           LDRB     R0,[R5, #+226]
   \   00000284   000050E3           CMP      R0,#+0
   \   00000288   3300001A           BNE      ??GetValue_18
    294                      Status     = GETVAL_DISABLED;
   \   0000028C   0940A0E3           MOV      R4,#+9
   \   00000290   310000EA           B        ??GetValue_18
    295                  }
    296                  break;
    297              case SVT_HI_LEVEL_LIM  :
    298                  switch ( LimitType ) {
   \                     ??GetValue_15:
   \   00000294   B61041E2           SUB      R1,R1,#+182
   \   00000298   D01E41E2           SUB      R1,R1,#+3328
   \   0000029C   010051E3           CMP      R1,#+1
   \   000002A0   F4FFFF8A           BHI      ??GetValue_28
   \   000002A4   01BF8FE2           ADR      R11,??GetValue_5
   \   000002A8   D1B09BE1           LDRSB    R11,[R11, R1]
   \   000002AC   0BF18FE0           ADD      PC,PC,R11, LSL #+2
   \                     ??GetValue_5:
   \   000002B0   000C0000           DC8      +0,+12,+0,+0
    299                  case AL_LIM_VOLPERCENT:
    300                      if ( UllVolumeTab ) {
   \                     ??GetValue_35:
   \   000002B4   000052E3           CMP      R2,#+0
   \   000002B8   0310A0E1           MOV      R1,R3
   \   000002BC   0600000A           BEQ      ??GetValue_36
    301                          float MyUllageRef = UllVolumeTab->Calc_XPercent(Limit);
   \   000002C0   0200A0E1           MOV      R0,R2
   \   000002C4   ........           _BLF     ??Calc_XPercent,??Calc_XPercent??rA
   \   000002C8   0010A0E1           MOV      R1,R0
    302                          MyRetValue    = PROTankPtr->DBotUllRefPnt - MyUllageRef;
   \   000002CC   EC0095E5           LDR      R0,[R5, #+236]
   \   000002D0   500290E5           LDR      R0,[R0, #+592]
   \   000002D4   ........           _BLF     __fSub,??__fSub??rA
   \                     ??GetValue_37:
   \   000002D8   E5FFFFEA           B        ??GetValue_31
    303                      } else {
    304                          MyRetValue = LevVolumeTab->Calc_XPercent(Limit);
   \                     ??GetValue_36:
   \   000002DC   ........           _BLF     ??Calc_XPercent,??Calc_XPercent??rA
   \   000002E0   E3FFFFEA           B        ??GetValue_31
    305                      }
    306                      break;
    307                  case AL_LIM_LEVEL     :
    308                      MyRetValue = Limit;
   \                     ??GetValue_38:
   \   000002E4   003086E5           STR      R3,[R6, #+0]
    309                      break;
    310                  }
    311                  DecPnt     = 2;
   \                     ??GetValue_39:
   \   000002E8   E2FFFFEA           B        ??GetValue_28
    312                  Unit       = LENGTH_UNIT;
    313                  if ( !Enable ) {
    314                      Status     = GETVAL_DISABLED;
    315                  }
    316                  break;
    317              case SVT_AL_VALUE:
    318                  switch ( LimitType ) {
   \                     ??GetValue_9:
   \   000002EC   B61041E2           SUB      R1,R1,#+182
   \   000002F0   D01E41E2           SUB      R1,R1,#+3328
   \   000002F4   010051E3           CMP      R1,#+1
   \   000002F8   E0FFFF8A           BHI      ??GetValue_34
   \   000002FC   010F8FE2           ADR      R0,??GetValue_6
   \   00000300   D10090E1           LDRSB    R0,[R0, R1]
   \   00000304   00F18FE0           ADD      PC,PC,R0, LSL #+2
   \                     ??GetValue_6:
   \   00000308   00060000           DC8      +0,+6,+0,+0
    319                  case AL_LIM_VOLPERCENT:
    320                      MyRetValue = PROTankPtr->VolumePercent;
   \                     ??GetValue_40:
   \   0000030C   B8029BE5           LDR      R0,[R11, #+696]
   \   00000310   000086E5           STR      R0,[R6, #+0]
    321                      DecPnt     = 1;
   \   00000314   009088E5           STR      R9,[R8, #+0]
    322                      Unit       = PERCENT_UNIT;
   \   00000318   1000A0E3           MOV      R0,#+16
   \   0000031C   000087E5           STR      R0,[R7, #+0]
   \   00000320   D6FFFFEA           B        ??GetValue_34
    323                      break;
    324                  case AL_LIM_LEVEL     :
    325                      MyRetValue = PROTankPtr->Level;
   \                     ??GetValue_41:
   \   00000324   A4029BE5           LDR      R0,[R11, #+676]
   \   00000328   000086E5           STR      R0,[R6, #+0]
    326                      DecPnt     = 2;
   \   0000032C   00A088E5           STR      R10,[R8, #+0]
    327                      Unit       = LENGTH_UNIT;
   \   00000330   009087E5           STR      R9,[R7, #+0]
    328                      break;
    329                  }
    330                  if ( !Enable ) {
   \                     ??GetValue_42:
   \   00000334   D1FFFFEA           B        ??GetValue_34
    331                      Status     = GETVAL_DISABLED;
    332                  }
    333                  break;
    334              default:
    335                  Status = AlarmBasic::GetValue(ValueId, Index, MyRetValue, DecPnt, Unit);
   \                     ??GetValue_16:
   \   00000338   80002DE9           PUSH     {R7}
   \   0000033C   00012DE9           PUSH     {R8}
   \   00000340   0C209DE5           LDR      R2,[SP, #+12]
   \   00000344   0630A0E1           MOV      R3,R6
   \   00000348   0C10A0E1           MOV      R1,R12
   \   0000034C   0500A0E1           MOV      R0,R5
   \   00000350   ........           _BLF     ??GetValue_7,??GetValue??rA
   \   00000354   0040A0E1           MOV      R4,R0
   \   00000358   08D08DE2           ADD      SP,SP,#+8
    336                  break;
    337              }
    338              return (Status);
   \                     ??GetValue_18:
   \   0000035C   0400A0E1           MOV      R0,R4
   \   00000360   F64FBDE8           POP      {R1,R2,R4-R11,LR}
   \   00000364   1EFF2FE1           BX       LR               ;; return
    339          }
    340          

   \                                 In segment CODE, align 4, keep-with-next
    341          int AlarmHighLevel::GetStringValue(int ValueId, int Index, AnsiString &MyString) {
   \                     ??GetStringValue:
   \   00000000   00402DE9           PUSH     {LR}
    342              int Status = GETVAL_NO_ERR;
    343              //switch ( ValueId ) {
    344              //	default:
    345              Status = AlarmBasic::GetStringValue(ValueId, Index, MyString);
    346              //		break;
    347              //}
    348              return (Status);
   \   00000004   ........           _BLF     ??GetStringValue_1,??GetStringValue??rA
   \   00000008   0040BDE8           POP      {LR}
   \   0000000C   1EFF2FE1           BX       LR               ;; return
    349          }
    350          

   \                                 In segment CODE, align 4, keep-with-next
    351          int AlarmHighLevel::PutFloatValue(int ValueId, float NewValue) {
   \                     ??PutFloatValue:
   \   00000000   F0402DE9           PUSH     {R4-R7,LR}
   \   00000004   0040A0E1           MOV      R4,R0
    352              int Status = E_NO_ERR;
    353              switch ( ValueId ) {
   \   00000008   EC0094E5           LDR      R0,[R4, #+236]
   \   0000000C   F46094E5           LDR      R6,[R4, #+244]
   \   00000010   F87094E5           LDR      R7,[R4, #+248]
   \   00000014   FC3094E5           LDR      R3,[R4, #+252]
   \   00000018   0050A0E3           MOV      R5,#+0
   \   0000001C   F6C041E2           SUB      R12,R1,#+246
   \   00000020   8CCD4CE2           SUB      R12,R12,#+8960
   \   00000024   01005CE3           CMP      R12,#+1
   \   00000028   3800008A           BHI      ??PutFloatValue_5
   \   0000002C   01EF8FE2           ADR      LR,??PutFloatValue_1
   \   00000030   0CE0DEE7           LDRB     LR,[LR, R12]
   \   00000034   0EF18FE0           ADD      PC,PC,LR, LSL #+2
   \                     ??PutFloatValue_1:
   \   00000038   00210000           DC8      +0,+33,+0,+0
    354              case SVT_HI_ULLAGE_LIM :
    355                  switch ( LimitType ) {
   \                     ??PutFloatValue_6:
   \   0000003C   B63043E2           SUB      R3,R3,#+182
   \   00000040   D03E43E2           SUB      R3,R3,#+3328
   \   00000044   010053E3           CMP      R3,#+1
   \   00000048   3300008A           BHI      ??PutFloatValue_7
   \   0000004C   011F8FE2           ADR      R1,??PutFloatValue_2
   \   00000050   0310D1E7           LDRB     R1,[R1, R3]
   \   00000054   01F18FE0           ADD      PC,PC,R1, LSL #+2
   \                     ??PutFloatValue_2:
   \   00000058   000D0000           DC8      +0,+13,+0,+0
    356                  case AL_LIM_VOLPERCENT:
    357                      if ( UllVolumeTab ) {
   \                     ??PutFloatValue_8:
   \   0000005C   000057E3           CMP      R7,#+0
   \   00000060   0400000A           BEQ      ??PutFloatValue_9
    358                          Limit = UllVolumeTab->Calc_YPercent(NewValue);
   \   00000064   0210A0E1           MOV      R1,R2
   \                     ??PutFloatValue_10:
   \   00000068   0700A0E1           MOV      R0,R7
   \                     ??PutFloatValue_11:
   \   0000006C   ........           _BLF     ??Calc_YPercent,??Calc_YPercent??rA
   \   00000070   E40084E5           STR      R0,[R4, #+228]
   \   00000074   280000EA           B        ??PutFloatValue_7
    359                      } else {
    360                          float Level = PROTankPtr->DBotUllRefPnt - NewValue;
    361                          Limit = LevVolumeTab->Calc_YPercent(Level);
   \                     ??PutFloatValue_9:
   \   00000078   500290E5           LDR      R0,[R0, #+592]
   \   0000007C   0210A0E1           MOV      R1,R2
   \   00000080   ........           _BLF     __fSub,??__fSub??rA
   \   00000084   0010A0E1           MOV      R1,R0
   \   00000088   0600A0E1           MOV      R0,R6
   \   0000008C   F6FFFFEA           B        ??PutFloatValue_11
    362                      }
    363                      break;
    364                  case AL_LIM_LEVEL     :
    365                      {
    366                          float Lim = PROTankPtr->DBotUllRefPnt - NewValue;
   \                     ??PutFloatValue_12:
   \   00000090   500290E5           LDR      R0,[R0, #+592]
   \   00000094   0210A0E1           MOV      R1,R2
   \   00000098   ........           _BLF     __fSub,??__fSub??rA
   \   0000009C   0060A0E1           MOV      R6,R0
    367                          if ( Lim < 0.0 ) {
   \   000000A0   ........           _BLF     __floatToDouble,??__floatToDouble??rA
   \   000000A4   0020A0E3           MOV      R2,#+0
   \   000000A8   0230A0E1           MOV      R3,R2
   \   000000AC   ........           _BLF     __dLess,??__dLess??rA
   \   000000B0   000050E3           CMP      R0,#+0
    368                              Lim = 0.0;
   \   000000B4   0060A013           MOVNE    R6,#+0
    369                          }
    370                          Limit = Lim;
   \   000000B8   E46084E5           STR      R6,[R4, #+228]
   \   000000BC   160000EA           B        ??PutFloatValue_7
    371                      }
    372                      break;
    373                  }
    374                  break;
    375              case SVT_HI_LEVEL_LIM  :
    376                  switch ( LimitType ) {
   \                     ??PutFloatValue_13:
   \   000000C0   B63043E2           SUB      R3,R3,#+182
   \   000000C4   D03E43E2           SUB      R3,R3,#+3328
   \   000000C8   010053E3           CMP      R3,#+1
   \   000000CC   1200008A           BHI      ??PutFloatValue_7
   \   000000D0   011F8FE2           ADR      R1,??PutFloatValue_3
   \   000000D4   0310D1E7           LDRB     R1,[R1, R3]
   \   000000D8   01F18FE0           ADD      PC,PC,R1, LSL #+2
   \                     ??PutFloatValue_3:
   \   000000DC   000A0000           DC8      +0,+10,+0,+0
    377                  case AL_LIM_VOLPERCENT:
    378                      if ( UllVolumeTab ) {
   \                     ??PutFloatValue_14:
   \   000000E0   000057E3           CMP      R7,#+0
   \   000000E4   0400000A           BEQ      ??PutFloatValue_15
    379                          float UllageRef = PROTankPtr->DBotUllRefPnt - NewValue;
    380                          Limit = UllVolumeTab->Calc_YPercent(UllageRef);
   \   000000E8   500290E5           LDR      R0,[R0, #+592]
   \   000000EC   0210A0E1           MOV      R1,R2
   \   000000F0   ........           _BLF     __fSub,??__fSub??rA
   \   000000F4   0010A0E1           MOV      R1,R0
   \   000000F8   DAFFFFEA           B        ??PutFloatValue_10
    381                      } else {
    382                          Limit = LevVolumeTab->Calc_YPercent(NewValue);
   \                     ??PutFloatValue_15:
   \   000000FC   0210A0E1           MOV      R1,R2
   \   00000100   0600A0E1           MOV      R0,R6
   \   00000104   D8FFFFEA           B        ??PutFloatValue_11
    383                      }
    384                      break;
    385                  case AL_LIM_LEVEL     :
    386                      Limit = NewValue;
   \                     ??PutFloatValue_16:
   \   00000108   E42084E5           STR      R2,[R4, #+228]
   \   0000010C   020000EA           B        ??PutFloatValue_7
    387                      break;
    388                  }
    389                  break;
    390              default:
    391                  Status = AlarmBasic::PutFloatValue(ValueId, NewValue);
   \                     ??PutFloatValue_5:
   \   00000110   0400A0E1           MOV      R0,R4
   \   00000114   ........           _BLF     ??PutFloatValue_4,??PutFloatValue??rA
   \   00000118   0050A0E1           MOV      R5,R0
    392                  break;
    393              }
    394              return (Status);
   \                     ??PutFloatValue_7:
   \   0000011C   0500A0E1           MOV      R0,R5
   \   00000120                      REQUIRE ?Subroutine8
   \   00000120                      ;; // Fall through to label ?Subroutine8
    395          }

   \                                 In segment DIFUNCT, align 4, keep-with-next, root
   \   00000000                      REQUIRE ?call_ctors
   \   00000000   ........           DC32    ??__sti__routine

   \                                 In segment DATA_C, align 4, align-sorted
   \                     `?<Constant "New limit">`:
   \   00000000   4E6577206C69       DC8 "New limit"
   \              6D697400    
   \   0000000A   0000               DC8 0, 0

   \                                 In segment CODE, align 4, keep-with-next
   \   __??Code32?? __code __interwork __atpcs AlarmHighLevel &AlarmHighLevel::new AlarmHighLevel(PRogramObjectBase *, float, bool)
   \                     `??new AlarmHighLevel`:
   \   00000000   70402DE9           PUSH     {R4-R6,LR}
   \   00000004   0040A0E1           MOV      R4,R0
   \   00000008   0150A0E1           MOV      R5,R1
   \   0000000C   0260A0E1           MOV      R6,R2
   \   00000010   410FA0E3           MOV      R0,#+260
   \   00000014   ........           _BLF     `??operator new`,`??operator new??rA`
   \   00000018   000050E3           CMP      R0,#+0
   \   0000001C   0300000A           BEQ      `??new AlarmHighLevel_1`
   \   00000020   0630A0E1           MOV      R3,R6
   \   00000024   0520A0E1           MOV      R2,R5
   \   00000028   0410A0E1           MOV      R1,R4
   \   0000002C   ........           BL       ??AlarmHighLevel
   \                     `??new AlarmHighLevel_1`:
   \   00000030   7040BDE8           POP      {R4-R6,LR}
   \   00000034   1EFF2FE1           BX       LR               ;; return

   \                                 In segment CODE, align 4, keep-with-next
   \   static __??Code32?? __intrinsic __code __interwork __atpcs void __sti__routine()
   \                     ??__sti__routine:
   \   00000000   1EFF2FE1           BX       LR               ;; return
    396          
    397          
    398          

   Maximum stack usage in bytes:

     Function                       CSTACK
     --------                       ------
     AlarmHighLevel::AlarmHighLevel(PRogramObjectBase *, float, bool)
                                       20
     AlarmHighLevel::Check()           32
     AlarmHighLevel::GetStringValue(int, int, AnsiString &)
                                        4
     AlarmHighLevel::GetValue(int, int, float &, int &, int &)
                                       52
     AlarmHighLevel::PutFloatValue(int, float)
                                       20
     AlarmHighLevel::PutValue(int, int, AnsiString, bool, int *)
                                      208
     AlarmHighLevel::new AlarmHighLevel(PRogramObjectBase *, float, bool)
                                       16
     AlarmHighLevel::~AlarmHighLevel()
                                       12
     AnsiString::AnsiString(AnsiString const &)
                                       12
     __sti__routine()                   0


   Segment part sizes:

     Function/Label                 Bytes
     --------------                 -----
     AnsiString::AnsiString(AnsiString const &)
                                      64
     AlarmHighLevel::~AlarmHighLevel()
                                      56
     AlarmHighLevel::NumberOfAlarmSettings
                                       4
     AlarmHighLevel::AlarmHighLevel(PRogramObjectBase *, float, bool)
                                     236
     ?Subroutine8                      8
     AlarmHighLevel::Check()         168
     AlarmHighLevel::PutValue(int, int, AnsiString, bool, int *)
                                    1808
     AlarmHighLevel::GetValue(int, int, float &, int &, int &)
                                     872
     AlarmHighLevel::GetStringValue(int, int, AnsiString &)
                                      16
     AlarmHighLevel::PutFloatValue(int, float)
                                     288
     ?<Constant "New limit">          12
     AlarmHighLevel::new AlarmHighLevel(PRogramObjectBase *, float, bool)
                                      56
     __sti__routine()                  4
      Others                         584

 
 4 028 bytes in segment CODE
   128 bytes in segment DATA_C
     4 bytes in segment DATA_Z
     4 bytes in segment DIFUNCT
    12 bytes in segment INITTAB
 
 3 460 bytes of CODE  memory (+ 584 bytes shared)
   128 bytes of CONST memory
     4 bytes of DATA  memory

Errors: none
Warnings: none
