##############################################################################
#                                                                            #
# IAR ARM ANSI C/C++ Compiler V4.42A/W32               14/Sep/2022  15:13:18 #
# Copyright 1999-2005 IAR Systems. All rights reserved.                      #
#                                                                            #
#    Cpu mode        =  interwork                                            #
#    Endian          =  little                                               #
#    Stack alignment =  4                                                    #
#    Source file     =  D:\S2Prog\Shared\Src\Anpro10.cpp                     #
#    Command line    =  D:\S2Prog\Shared\Src\Anpro10.cpp --fpu None -D       #
#                       OS_LIBMODE_SP -D CPU_S3C2410 -D OS_RAMVECT=0 -D      #
#                       OS_UART=-1 -D S2TXU -D USE_LZO=1 -D __ARM_LIBRARY__  #
#                       -D WATCHDOG=1 -D NETWORK=1 -lCN                      #
#                       D:\S2Prog\TXU\Debug\List\ -o                         #
#                       D:\S2Prog\TXU\Debug\Obj\ -z9 --debug --cpu_mode arm  #
#                       --endian little --cpu ARM920T --stack_align 4        #
#                       --interwork -e --enable_multibytes --eec++           #
#                       --dlib_config "C:\Program Files (x86)\IAR            #
#                       Systems\Embedded Workbench                           #
#                       4.0\arm\LIB\dl4tpainl8n.h" -I                        #
#                       D:\S2Prog\TXU\GUI\CORE\ -I D:\S2Prog\TXU\GUI\WM\ -I  #
#                       D:\S2Prog\TXU\GUI\WIDGET\ -I D:\S2Prog\TXU\CONFIG\   #
#                       -I D:\S2Prog\TXU\INC\ -I D:\S2Prog\TXU\..\SHARED\INC #
#                       \ -I D:\S2Prog\TXU\..\SHARED\SRC\ -I                 #
#                       D:\S2Prog\TXU\..\SHARED\LZO\minilzo.210\ -I          #
#                       D:\S2Prog\TXU\lwip-1.4.1\src\include\ -I             #
#                       D:\S2Prog\TXU\lwip-1.4.1\src\include\ipv4\ -I        #
#                       D:\S2Prog\TXU\lwip-1.4.1\src\ -I                     #
#                       D:\S2Prog\TXU\..\SHARED\Database\ -I                 #
#                       D:\S2Prog\TXU\src\ -I "C:\Program Files (x86)\IAR    #
#                       Systems\Embedded Workbench 4.0\arm\INC\"             #
#                       --inline_threshold=2                                 #
#    List file       =  D:\S2Prog\TXU\Debug\List\Anpro10.lst                 #
#    Object file     =  D:\S2Prog\TXU\Debug\Obj\Anpro10.r79                  #
#                                                                            #
#                                                                            #
##############################################################################

D:\S2Prog\Shared\Src\Anpro10.cpp
      1          #ifndef ANBOOTLOADER
      2          	#ifdef ANWIN
      3          		#include "ANWinInc.h"
      4          		#include "MainUnit.h"
      5          		#include "Anpro_Net.h"
      6          	#else
      7                  #include <set>

   \                                 In segment CODE, align 4, keep-with-next
   \   __??Code32?? __code __interwork __atpcs string::string(string const &)
   \                     ??string:
   \   00000000   30402DE9           PUSH     {R4,R5,LR}
   \   00000004   0040A0E1           MOV      R4,R0
   \   00000008   0150A0E1           MOV      R5,R1
   \   0000000C   0020A0E3           MOV      R2,#+0
   \   00000010   0010A0E3           MOV      R1,#+0
   \   00000014   ........           _BLF     ??_Tidy,??_Tidy??rA
   \   00000018   1C009FE5           LDR      R0,??string_1    ;; ??npos
   \   0000001C   0020A0E3           MOV      R2,#+0
   \   00000020   003090E5           LDR      R3,[R0, #+0]
   \   00000024   0510A0E1           MOV      R1,R5
   \   00000028   0400A0E1           MOV      R0,R4
   \   0000002C   ........           _BLF     ??assign,??assign??rA
   \   00000030   0400A0E1           MOV      R0,R4
   \   00000034   3040BDE8           POP      {R4,R5,LR}
   \   00000038   1EFF2FE1           BX       LR               ;; return
   \                     ??string_1:
   \   0000003C   ........           DC32     ??npos

   \                                 In segment CODE, align 4, keep-with-next
   \   __??Code32?? __code __interwork __atpcs char const *string::c_str() const
   \                     ??c_str:
   \   00000000   181090E5           LDR      R1,[R0, #+24]
   \   00000004   100051E3           CMP      R1,#+16
   \   00000008   04009025           LDRCS    R0,[R0, #+4]
   \   0000000C   1EFF2F21           BXCS     LR
   \   00000010   040080E2           ADD      R0,R0,#+4
   \   00000014   1EFF2FE1           BX       LR               ;; return

   \                                 In segment CODE, align 4, keep-with-next
   \   __??Code32?? __code __interwork __atpcs _Tree_algobase<allocator<void>>::_Genptr _Tree_algobase<allocator<void>>::_Max(_Tree_algobase<allocator<void>>::_Genptr)
   \                     ??_Max:
   \   00000000   000000EA           B        ??_Max_1
   \                     ??_Max_2:
   \   00000004   080090E5           LDR      R0,[R0, #+8]
   \                     ??_Max_1:
   \   00000008   081090E5           LDR      R1,[R0, #+8]
   \   0000000C   0D10D1E5           LDRB     R1,[R1, #+13]
   \   00000010   000051E3           CMP      R1,#+0
   \   00000014   FAFFFF0A           BEQ      ??_Max_2
   \   00000018   1EFF2FE1           BX       LR               ;; return

   \                                 In segment CODE, align 4, keep-with-next
   \   __??Code32?? __code __interwork __atpcs _Tree_algobase<allocator<void>>::_Genptr _Tree_algobase<allocator<void>>::_DecP(_Tree_algobase<allocator<void>>::_Genptr)
   \                     ??_DecP:
   \   00000000   00402DE9           PUSH     {LR}
   \   00000004   0D10D0E5           LDRB     R1,[R0, #+13]
   \   00000008   000051E3           CMP      R1,#+0
   \   0000000C   08009015           LDRNE    R0,[R0, #+8]
   \   00000010   0E00001A           BNE      ??_DecP_1
   \   00000014   001090E5           LDR      R1,[R0, #+0]
   \   00000018   0D20D1E5           LDRB     R2,[R1, #+13]
   \   0000001C   000052E3           CMP      R2,#+0
   \   00000020   0200001A           BNE      ??_DecP_2
   \   00000024   0100A0E1           MOV      R0,R1
   \   00000028   ........           _BLF     ??_Max,??_Max??rA
   \   0000002C   070000EA           B        ??_DecP_1
   \                     ??_DecP_2:
   \   00000030   041090E5           LDR      R1,[R0, #+4]
   \   00000034   0D20D1E5           LDRB     R2,[R1, #+13]
   \   00000038   000052E3           CMP      R2,#+0
   \   0000003C   0300001A           BNE      ??_DecP_1
   \   00000040   002091E5           LDR      R2,[R1, #+0]
   \   00000044   020050E1           CMP      R0,R2
   \   00000048   0100A0E1           MOV      R0,R1
   \   0000004C   F7FFFF0A           BEQ      ??_DecP_2
   \                     ??_DecP_1:
   \   00000050   0040BDE8           POP      {LR}
   \   00000054   1EFF2FE1           BX       LR               ;; return

   \                                 In segment CODE, align 4, keep-with-next
   \   __??Code32?? __code __interwork __atpcs _Tree_algobase<allocator<void>>::_Genptr _Tree_algobase<allocator<void>>::_IncP(_Tree_algobase<allocator<void>>::_Genptr)
   \                     ??_IncP:
   \   00000000   0D10D0E5           LDRB     R1,[R0, #+13]
   \   00000004   000051E3           CMP      R1,#+0
   \   00000008   1EFF2F11           BXNE     LR
   \   0000000C   081090E5           LDR      R1,[R0, #+8]
   \   00000010   0D20D1E5           LDRB     R2,[R1, #+13]
   \   00000014   000052E3           CMP      R2,#+0
   \   00000018   0700001A           BNE      ??_IncP_1
   \   0000001C   000000EA           B        ??_IncP_2
   \                     ??_IncP_3:
   \   00000020   0010A0E1           MOV      R1,R0
   \                     ??_IncP_2:
   \   00000024   000091E5           LDR      R0,[R1, #+0]
   \   00000028   0D20D0E5           LDRB     R2,[R0, #+13]
   \   0000002C   000052E3           CMP      R2,#+0
   \   00000030   FAFFFF0A           BEQ      ??_IncP_3
   \   00000034   060000EA           B        ??_IncP_4
   \                     ??_IncP_5:
   \   00000038   0100A0E1           MOV      R0,R1
   \                     ??_IncP_1:
   \   0000003C   041090E5           LDR      R1,[R0, #+4]
   \   00000040   0D20D1E5           LDRB     R2,[R1, #+13]
   \   00000044   000052E3           CMP      R2,#+0
   \   00000048   08209105           LDREQ    R2,[R1, #+8]
   \   0000004C   02005001           CMPEQ    R0,R2
   \   00000050   F8FFFF0A           BEQ      ??_IncP_5
   \                     ??_IncP_4:
   \   00000054   0100A0E1           MOV      R0,R1
   \   00000058   1EFF2FE1           BX       LR               ;; return

   \                                 In segment CODE, align 4, keep-with-next
   \   __??Code32?? __code __interwork __atpcs void _Tree_algobase<allocator<void>>::_Clear()
   \                     ??_Clear:
   \   00000000   040080E5           STR      R0,[R0, #+4]
   \   00000004   000080E5           STR      R0,[R0, #+0]
   \   00000008   080080E5           STR      R0,[R0, #+8]
   \   0000000C   0110A0E3           MOV      R1,#+1
   \   00000010   0D10C0E5           STRB     R1,[R0, #+13]
   \   00000014   0C10C0E5           STRB     R1,[R0, #+12]
   \   00000018   0010A0E3           MOV      R1,#+0
   \   0000001C   101080E5           STR      R1,[R0, #+16]
   \   00000020   1EFF2FE1           BX       LR               ;; return

   \                                 In segment CODE, align 4, keep-with-next
   \   __??Code32?? __code __interwork __atpcs void _Tree_algobase<allocator<void>>::_Rrotate(_Tree_algobase<allocator<void>>::_Genptr)
   \                     ??_Rrotate:
   \   00000000   002091E5           LDR      R2,[R1, #+0]
   \   00000004   083092E5           LDR      R3,[R2, #+8]
   \   00000008   003081E5           STR      R3,[R1, #+0]
   \   0000000C   083092E5           LDR      R3,[R2, #+8]
   \   00000010   0DC0D3E5           LDRB     R12,[R3, #+13]
   \   00000014   00005CE3           CMP      R12,#+0
   \   00000018   04108305           STREQ    R1,[R3, #+4]
   \   0000001C   043091E5           LDR      R3,[R1, #+4]
   \   00000020   043082E5           STR      R3,[R2, #+4]
   \   00000024   043090E5           LDR      R3,[R0, #+4]
   \   00000028   030051E1           CMP      R1,R3
   \   0000002C   04208005           STREQ    R2,[R0, #+4]
   \   00000030   0400000A           BEQ      ??_Rrotate_1
   \   00000034   040091E5           LDR      R0,[R1, #+4]
   \   00000038   083090E5           LDR      R3,[R0, #+8]
   \   0000003C   030051E1           CMP      R1,R3
   \   00000040   08208005           STREQ    R2,[R0, #+8]
   \   00000044   00208015           STRNE    R2,[R0, #+0]
   \                     ??_Rrotate_1:
   \   00000048   081082E5           STR      R1,[R2, #+8]
   \   0000004C   042081E5           STR      R2,[R1, #+4]
   \   00000050   1EFF2FE1           BX       LR               ;; return

   \                                 In segment CODE, align 4, keep-with-next
   \   __??Code32?? __code __interwork __atpcs void _Tree_algobase<allocator<void>>::_Lrotate(_Tree_algobase<allocator<void>>::_Genptr)
   \                     ??_Lrotate:
   \   00000000   082091E5           LDR      R2,[R1, #+8]
   \   00000004   003092E5           LDR      R3,[R2, #+0]
   \   00000008   083081E5           STR      R3,[R1, #+8]
   \   0000000C   003092E5           LDR      R3,[R2, #+0]
   \   00000010   0DC0D3E5           LDRB     R12,[R3, #+13]
   \   00000014   00005CE3           CMP      R12,#+0
   \   00000018   04108305           STREQ    R1,[R3, #+4]
   \   0000001C   043091E5           LDR      R3,[R1, #+4]
   \   00000020   043082E5           STR      R3,[R2, #+4]
   \   00000024   043090E5           LDR      R3,[R0, #+4]
   \   00000028   030051E1           CMP      R1,R3
   \   0000002C   04208005           STREQ    R2,[R0, #+4]
   \   00000030   0400000A           BEQ      ??_Lrotate_1
   \   00000034   040091E5           LDR      R0,[R1, #+4]
   \   00000038   003090E5           LDR      R3,[R0, #+0]
   \   0000003C   030051E1           CMP      R1,R3
   \   00000040   00208005           STREQ    R2,[R0, #+0]
   \   00000044   08208015           STRNE    R2,[R0, #+8]
   \                     ??_Lrotate_1:
   \   00000048   001082E5           STR      R1,[R2, #+0]
   \   0000004C   042081E5           STR      R2,[R1, #+4]
   \   00000050   1EFF2FE1           BX       LR               ;; return

   \                                 In segment CODE, align 4, keep-with-next
   \   __??Code32?? __code __interwork __atpcs _Tree_algobase<allocator<void>>::_Genptr _Tree_algobase<allocator<void>>::_Erase(_Tree_algobase<allocator<void>>::_Genptr)
   \                     ??_Erase:
   \   00000000   F0472DE9           PUSH     {R4-R10,LR}
   \   00000004   0040A0E1           MOV      R4,R0
   \   00000008   0160A0E1           MOV      R6,R1
   \   0000000C   0680A0E1           MOV      R8,R6
   \   00000010   0600A0E1           MOV      R0,R6
   \   00000014   ........           _BLF     ??_IncP,??_IncP??rA
   \   00000018   007098E5           LDR      R7,[R8, #+0]
   \   0000001C   0D10D7E5           LDRB     R1,[R7, #+13]
   \   00000020   000051E3           CMP      R1,#+0
   \   00000024   0400001A           BNE      ??_Erase_3
   \   00000028   081098E5           LDR      R1,[R8, #+8]
   \   0000002C   0D10D1E5           LDRB     R1,[R1, #+13]
   \   00000030   000051E3           CMP      R1,#+0
   \   00000034   0100001A           BNE      ??_Erase_4
   \   00000038   0080A0E1           MOV      R8,R0
   \                     ??_Erase_3:
   \   0000003C   087098E5           LDR      R7,[R8, #+8]
   \                     ??_Erase_4:
   \   00000040   060058E1           CMP      R8,R6
   \   00000044   2500001A           BNE      ??_Erase_5
   \   00000048   0D00D7E5           LDRB     R0,[R7, #+13]
   \   0000004C   045096E5           LDR      R5,[R6, #+4]
   \   00000050   000050E3           CMP      R0,#+0
   \   00000054   04508705           STREQ    R5,[R7, #+4]
   \   00000058   040094E5           LDR      R0,[R4, #+4]
   \   0000005C   060050E1           CMP      R0,R6
   \   00000060   04708405           STREQ    R7,[R4, #+4]
   \   00000064   0300000A           BEQ      ??_Erase_6
   \   00000068   000095E5           LDR      R0,[R5, #+0]
   \   0000006C   060050E1           CMP      R0,R6
   \   00000070   00708505           STREQ    R7,[R5, #+0]
   \   00000074   08708515           STRNE    R7,[R5, #+8]
   \                     ??_Erase_6:
   \   00000078   000094E5           LDR      R0,[R4, #+0]
   \   0000007C   060050E1           CMP      R0,R6
   \   00000080   0B00001A           BNE      ??_Erase_7
   \   00000084   0D00D7E5           LDRB     R0,[R7, #+13]
   \   00000088   000050E3           CMP      R0,#+0
   \   0000008C   0500A011           MOVNE    R0,R5
   \   00000090   0600001A           BNE      ??_Erase_8
   \   00000094   0700A0E1           MOV      R0,R7
   \   00000098   000000EA           B        ??_Erase_9
   \                     ??_Erase_10:
   \   0000009C   0100A0E1           MOV      R0,R1
   \                     ??_Erase_9:
   \   000000A0   001090E5           LDR      R1,[R0, #+0]
   \   000000A4   0D20D1E5           LDRB     R2,[R1, #+13]
   \   000000A8   000052E3           CMP      R2,#+0
   \   000000AC   FAFFFF0A           BEQ      ??_Erase_10
   \                     ??_Erase_8:
   \   000000B0   000084E5           STR      R0,[R4, #+0]
   \                     ??_Erase_7:
   \   000000B4   080094E5           LDR      R0,[R4, #+8]
   \   000000B8   060050E1           CMP      R0,R6
   \   000000BC   2900001A           BNE      ??_Erase_11
   \   000000C0   0D00D7E5           LDRB     R0,[R7, #+13]
   \   000000C4   000050E3           CMP      R0,#+0
   \   000000C8   0500A011           MOVNE    R0,R5
   \   000000CC   0100001A           BNE      ??_Erase_12
   \   000000D0   0700A0E1           MOV      R0,R7
   \   000000D4   ........           _BLF     ??_Max,??_Max??rA
   \                     ??_Erase_12:
   \   000000D8   080084E5           STR      R0,[R4, #+8]
   \   000000DC   210000EA           B        ??_Erase_11
   \                     ??_Erase_5:
   \   000000E0   000096E5           LDR      R0,[R6, #+0]
   \   000000E4   048080E5           STR      R8,[R0, #+4]
   \   000000E8   000096E5           LDR      R0,[R6, #+0]
   \   000000EC   000088E5           STR      R0,[R8, #+0]
   \   000000F0   080096E5           LDR      R0,[R6, #+8]
   \   000000F4   000058E1           CMP      R8,R0
   \   000000F8   0850A001           MOVEQ    R5,R8
   \   000000FC   0800000A           BEQ      ??_Erase_13
   \   00000100   0D00D7E5           LDRB     R0,[R7, #+13]
   \   00000104   045098E5           LDR      R5,[R8, #+4]
   \   00000108   000050E3           CMP      R0,#+0
   \   0000010C   04508705           STREQ    R5,[R7, #+4]
   \   00000110   007085E5           STR      R7,[R5, #+0]
   \   00000114   080096E5           LDR      R0,[R6, #+8]
   \   00000118   080088E5           STR      R0,[R8, #+8]
   \   0000011C   080096E5           LDR      R0,[R6, #+8]
   \   00000120   048080E5           STR      R8,[R0, #+4]
   \                     ??_Erase_13:
   \   00000124   040094E5           LDR      R0,[R4, #+4]
   \   00000128   060050E1           CMP      R0,R6
   \   0000012C   04808405           STREQ    R8,[R4, #+4]
   \   00000130   0400000A           BEQ      ??_Erase_14
   \   00000134   040096E5           LDR      R0,[R6, #+4]
   \   00000138   001090E5           LDR      R1,[R0, #+0]
   \   0000013C   060051E1           CMP      R1,R6
   \   00000140   00808005           STREQ    R8,[R0, #+0]
   \   00000144   08808015           STRNE    R8,[R0, #+8]
   \                     ??_Erase_14:
   \   00000148   040096E5           LDR      R0,[R6, #+4]
   \   0000014C   0C1088E2           ADD      R1,R8,#+12
   \   00000150   040088E5           STR      R0,[R8, #+4]
   \   00000154   0020D1E5           LDRB     R2,[R1, #+0]
   \   00000158   0C0086E2           ADD      R0,R6,#+12
   \   0000015C   0030D0E5           LDRB     R3,[R0, #+0]
   \   00000160   0030C1E5           STRB     R3,[R1, #+0]
   \   00000164   0020C0E5           STRB     R2,[R0, #+0]
   \                     ??_Erase_11:
   \   00000168   0C00D6E5           LDRB     R0,[R6, #+12]
   \   0000016C   010050E3           CMP      R0,#+1
   \   00000170   5E00001A           BNE      ??_Erase_15
   \   00000174   0090A0E3           MOV      R9,#+0
   \   00000178   01A0A0E3           MOV      R10,#+1
   \   0000017C   060000EA           B        ??_Erase_16
   \                     ??_Erase_17:
   \   00000180   080098E5           LDR      R0,[R8, #+8]
   \   00000184   0C00D0E5           LDRB     R0,[R0, #+12]
   \   00000188   010050E3           CMP      R0,#+1
   \   0000018C   1C00001A           BNE      ??_Erase_18
   \                     ??_Erase_19:
   \   00000190   0C90C8E5           STRB     R9,[R8, #+12]
   \                     ??_Erase_20:
   \   00000194   0570A0E1           MOV      R7,R5
   \   00000198   045097E5           LDR      R5,[R7, #+4]
   \                     ??_Erase_16:
   \   0000019C   040094E5           LDR      R0,[R4, #+4]
   \   000001A0   000057E1           CMP      R7,R0
   \   000001A4   5000000A           BEQ      ??_Erase_21
   \   000001A8   0C00D7E5           LDRB     R0,[R7, #+12]
   \   000001AC   010050E3           CMP      R0,#+1
   \   000001B0   4D00001A           BNE      ??_Erase_21
   \   000001B4   008095E5           LDR      R8,[R5, #+0]
   \   000001B8   080057E1           CMP      R7,R8
   \   000001BC   2400001A           BNE      ??_Erase_22
   \   000001C0   088095E5           LDR      R8,[R5, #+8]
   \   000001C4   0C00D8E5           LDRB     R0,[R8, #+12]
   \   000001C8   000050E3           CMP      R0,#+0
   \   000001CC   0500001A           BNE      ??_Erase_23
   \   000001D0   0CA0C8E5           STRB     R10,[R8, #+12]
   \   000001D4   0C90C5E5           STRB     R9,[R5, #+12]
   \   000001D8   0510A0E1           MOV      R1,R5
   \   000001DC   0400A0E1           MOV      R0,R4
   \   000001E0   ........           _BLF     ??_Lrotate,??_Lrotate??rA
   \   000001E4   088095E5           LDR      R8,[R5, #+8]
   \                     ??_Erase_23:
   \   000001E8   0D00D8E5           LDRB     R0,[R8, #+13]
   \   000001EC   000050E3           CMP      R0,#+0
   \   000001F0   E7FFFF1A           BNE      ??_Erase_20
   \   000001F4   000098E5           LDR      R0,[R8, #+0]
   \   000001F8   0C00D0E5           LDRB     R0,[R0, #+12]
   \   000001FC   010050E3           CMP      R0,#+1
   \   00000200   DEFFFF0A           BEQ      ??_Erase_17
   \                     ??_Erase_18:
   \   00000204   080098E5           LDR      R0,[R8, #+8]
   \   00000208   0C00D0E5           LDRB     R0,[R0, #+12]
   \   0000020C   010050E3           CMP      R0,#+1
   \   00000210   0600001A           BNE      ??_Erase_24
   \   00000214   000098E5           LDR      R0,[R8, #+0]
   \   00000218   0810A0E1           MOV      R1,R8
   \   0000021C   0CA0C0E5           STRB     R10,[R0, #+12]
   \   00000220   0C90C8E5           STRB     R9,[R8, #+12]
   \   00000224   0400A0E1           MOV      R0,R4
   \   00000228   ........           _BLF     ??_Rrotate,??_Rrotate??rA
   \   0000022C   088095E5           LDR      R8,[R5, #+8]
   \                     ??_Erase_24:
   \   00000230   0C00D5E5           LDRB     R0,[R5, #+12]
   \   00000234   0510A0E1           MOV      R1,R5
   \   00000238   0C00C8E5           STRB     R0,[R8, #+12]
   \   0000023C   0CA0C5E5           STRB     R10,[R5, #+12]
   \   00000240   080098E5           LDR      R0,[R8, #+8]
   \   00000244   0CA0C0E5           STRB     R10,[R0, #+12]
   \   00000248   0400A0E1           MOV      R0,R4
   \   0000024C   ........           _BLF     ??_Lrotate,??_Lrotate??rA
   \   00000250   250000EA           B        ??_Erase_21
   \                     ??_Erase_22:
   \   00000254   0C00D8E5           LDRB     R0,[R8, #+12]
   \   00000258   000050E3           CMP      R0,#+0
   \   0000025C   0500001A           BNE      ??_Erase_25
   \   00000260   0CA0C8E5           STRB     R10,[R8, #+12]
   \   00000264   0C90C5E5           STRB     R9,[R5, #+12]
   \   00000268   0510A0E1           MOV      R1,R5
   \   0000026C   0400A0E1           MOV      R0,R4
   \   00000270   ........           _BLF     ??_Rrotate,??_Rrotate??rA
   \   00000274   008095E5           LDR      R8,[R5, #+0]
   \                     ??_Erase_25:
   \   00000278   0D00D8E5           LDRB     R0,[R8, #+13]
   \   0000027C   000050E3           CMP      R0,#+0
   \   00000280   C3FFFF1A           BNE      ??_Erase_20
   \   00000284   080098E5           LDR      R0,[R8, #+8]
   \   00000288   0C00D0E5           LDRB     R0,[R0, #+12]
   \   0000028C   010050E3           CMP      R0,#+1
   \   00000290   00009805           LDREQ    R0,[R8, #+0]
   \   00000294   0C00D005           LDRBEQ   R0,[R0, #+12]
   \   00000298   01005003           CMPEQ    R0,#+1
   \   0000029C   BBFFFF0A           BEQ      ??_Erase_19
   \   000002A0   000098E5           LDR      R0,[R8, #+0]
   \   000002A4   0C00D0E5           LDRB     R0,[R0, #+12]
   \   000002A8   010050E3           CMP      R0,#+1
   \   000002AC   0600001A           BNE      ??_Erase_26
   \   000002B0   080098E5           LDR      R0,[R8, #+8]
   \   000002B4   0810A0E1           MOV      R1,R8
   \   000002B8   0CA0C0E5           STRB     R10,[R0, #+12]
   \   000002BC   0C90C8E5           STRB     R9,[R8, #+12]
   \   000002C0   0400A0E1           MOV      R0,R4
   \   000002C4   ........           _BLF     ??_Lrotate,??_Lrotate??rA
   \   000002C8   008095E5           LDR      R8,[R5, #+0]
   \                     ??_Erase_26:
   \   000002CC   0C00D5E5           LDRB     R0,[R5, #+12]
   \   000002D0   0510A0E1           MOV      R1,R5
   \   000002D4   0C00C8E5           STRB     R0,[R8, #+12]
   \   000002D8   0CA0C5E5           STRB     R10,[R5, #+12]
   \   000002DC   000098E5           LDR      R0,[R8, #+0]
   \   000002E0   0CA0C0E5           STRB     R10,[R0, #+12]
   \   000002E4   0400A0E1           MOV      R0,R4
   \   000002E8   ........           _BLF     ??_Rrotate,??_Rrotate??rA
   \                     ??_Erase_21:
   \   000002EC   0CA0C7E5           STRB     R10,[R7, #+12]
   \                     ??_Erase_15:
   \   000002F0   100094E5           LDR      R0,[R4, #+16]
   \   000002F4   000050E3           CMP      R0,#+0
   \   000002F8   01004012           SUBNE    R0,R0,#+1
   \   000002FC   10008415           STRNE    R0,[R4, #+16]
   \   00000300   0600A0E1           MOV      R0,R6
   \   00000304   F047BDE8           POP      {R4-R10,LR}
   \   00000308   1EFF2FE1           BX       LR               ;; return

   \                                 In segment CODE, align 4, keep-with-next
   \   __??Code32?? __code __interwork __atpcs void _Tree_algobase<allocator<void>>::_Insert(bool, _Tree_algobase<allocator<void>>::_Genptr, _Tree_algobase<allocator<void>>::_Genptr)
   \                     ??_Insert:
   \   00000000   F0402DE9           PUSH     {R4-R7,LR}
   \   00000004   0040A0E1           MOV      R4,R0
   \   00000008   100094E5           LDR      R0,[R4, #+16]
   \   0000000C   0350A0E1           MOV      R5,R3
   \   00000010   010080E2           ADD      R0,R0,#+1
   \   00000014   100084E5           STR      R0,[R4, #+16]
   \   00000018   040052E1           CMP      R2,R4
   \   0000001C   0300001A           BNE      ??_Insert_2
   \   00000020   045084E5           STR      R5,[R4, #+4]
   \   00000024   005084E5           STR      R5,[R4, #+0]
   \                     ??_Insert_3:
   \   00000028   085084E5           STR      R5,[R4, #+8]
   \   0000002C   130000EA           B        ??_Insert_4
   \                     ??_Insert_2:
   \   00000030   000051E3           CMP      R1,#+0
   \   00000034   0500000A           BEQ      ??_Insert_5
   \   00000038   005082E5           STR      R5,[R2, #+0]
   \   0000003C   000094E5           LDR      R0,[R4, #+0]
   \   00000040   000052E1           CMP      R2,R0
   \   00000044   0D00001A           BNE      ??_Insert_4
   \   00000048   005084E5           STR      R5,[R4, #+0]
   \   0000004C   0B0000EA           B        ??_Insert_4
   \                     ??_Insert_5:
   \   00000050   085082E5           STR      R5,[R2, #+8]
   \   00000054   080094E5           LDR      R0,[R4, #+8]
   \   00000058   000052E1           CMP      R2,R0
   \   0000005C   0700001A           BNE      ??_Insert_4
   \   00000060   F0FFFFEA           B        ??_Insert_3
   \                     ??_Insert_6:
   \   00000064   0C70C0E5           STRB     R7,[R0, #+12]
   \   00000068   0C70C2E5           STRB     R7,[R2, #+12]
   \   0000006C   040095E5           LDR      R0,[R5, #+4]
   \   00000070   040090E5           LDR      R0,[R0, #+4]
   \   00000074   0C60C0E5           STRB     R6,[R0, #+12]
   \   00000078   040095E5           LDR      R0,[R5, #+4]
   \   0000007C   045090E5           LDR      R5,[R0, #+4]
   \                     ??_Insert_4:
   \   00000080   0170A0E3           MOV      R7,#+1
   \   00000084   040095E5           LDR      R0,[R5, #+4]
   \   00000088   0C10D0E5           LDRB     R1,[R0, #+12]
   \   0000008C   000051E3           CMP      R1,#+0
   \   00000090   2F00001A           BNE      ??_Insert_7
   \   00000094   041090E5           LDR      R1,[R0, #+4]
   \   00000098   0060A0E3           MOV      R6,#+0
   \   0000009C   001091E5           LDR      R1,[R1, #+0]
   \   000000A0   010050E1           CMP      R0,R1
   \   000000A4   041090E5           LDR      R1,[R0, #+4]
   \   000000A8   1400001A           BNE      ??_Insert_8
   \   000000AC   082091E5           LDR      R2,[R1, #+8]
   \   000000B0   0C10D2E5           LDRB     R1,[R2, #+12]
   \   000000B4   000051E3           CMP      R1,#+0
   \   000000B8   E9FFFF0A           BEQ      ??_Insert_6
   \   000000BC   081090E5           LDR      R1,[R0, #+8]
   \   000000C0   010055E1           CMP      R5,R1
   \   000000C4   0300001A           BNE      ??_Insert_9
   \   000000C8   0050A0E1           MOV      R5,R0
   \   000000CC   0510A0E1           MOV      R1,R5
   \   000000D0   0400A0E1           MOV      R0,R4
   \   000000D4   ........           _BLF     ??_Lrotate,??_Lrotate??rA
   \                     ??_Insert_9:
   \   000000D8   040095E5           LDR      R0,[R5, #+4]
   \   000000DC   0C70C0E5           STRB     R7,[R0, #+12]
   \   000000E0   040095E5           LDR      R0,[R5, #+4]
   \   000000E4   040090E5           LDR      R0,[R0, #+4]
   \   000000E8   0C60C0E5           STRB     R6,[R0, #+12]
   \   000000EC   040095E5           LDR      R0,[R5, #+4]
   \   000000F0   041090E5           LDR      R1,[R0, #+4]
   \   000000F4   0400A0E1           MOV      R0,R4
   \   000000F8   ........           _BLF     ??_Rrotate,??_Rrotate??rA
   \   000000FC   DFFFFFEA           B        ??_Insert_4
   \                     ??_Insert_8:
   \   00000100   002091E5           LDR      R2,[R1, #+0]
   \   00000104   0C10D2E5           LDRB     R1,[R2, #+12]
   \   00000108   000051E3           CMP      R1,#+0
   \   0000010C   D4FFFF0A           BEQ      ??_Insert_6
   \   00000110   001090E5           LDR      R1,[R0, #+0]
   \   00000114   010055E1           CMP      R5,R1
   \   00000118   0300001A           BNE      ??_Insert_10
   \   0000011C   0050A0E1           MOV      R5,R0
   \   00000120   0510A0E1           MOV      R1,R5
   \   00000124   0400A0E1           MOV      R0,R4
   \   00000128   ........           _BLF     ??_Rrotate,??_Rrotate??rA
   \                     ??_Insert_10:
   \   0000012C   040095E5           LDR      R0,[R5, #+4]
   \   00000130   0C70C0E5           STRB     R7,[R0, #+12]
   \   00000134   040095E5           LDR      R0,[R5, #+4]
   \   00000138   040090E5           LDR      R0,[R0, #+4]
   \   0000013C   0C60C0E5           STRB     R6,[R0, #+12]
   \   00000140   040095E5           LDR      R0,[R5, #+4]
   \   00000144   041090E5           LDR      R1,[R0, #+4]
   \   00000148   0400A0E1           MOV      R0,R4
   \   0000014C   ........           _BLF     ??_Lrotate,??_Lrotate??rA
   \   00000150   CAFFFFEA           B        ??_Insert_4
   \                     ??_Insert_7:
   \   00000154   040094E5           LDR      R0,[R4, #+4]
   \   00000158   0C70C0E5           STRB     R7,[R0, #+12]
   \   0000015C   F040BDE8           POP      {R4-R7,LR}
   \   00000160   1EFF2FE1           BX       LR               ;; return

   \                                 In segment CODE, align 4, keep-with-next
   \   __??Code32?? __code __interwork __atpcs _Tree<_Tset_traits<unsigned int, less<unsigned int>, allocator<unsigned int>, false>>::_Pairib _Tree<_Tset_traits<unsigned int, less<unsigned int>, allocator<unsigned int>, false>>::insert(unsigned int)
   \                     ??insert:
   \   00000000   F3432DE9           PUSH     {R0,R1,R4-R9,LR}
   \   00000004   0040A0E1           MOV      R4,R0
   \   00000008   0160A0E1           MOV      R6,R1
   \   0000000C   040096E5           LDR      R0,[R6, #+4]
   \   00000010   0270A0E1           MOV      R7,R2
   \   00000014   0680A0E1           MOV      R8,R6
   \   00000018   0190A0E3           MOV      R9,#+1
   \                     ??insert_1:
   \   0000001C   0D10D0E5           LDRB     R1,[R0, #+13]
   \   00000020   000051E3           CMP      R1,#+0
   \   00000024   0700001A           BNE      ??insert_2
   \   00000028   101090E5           LDR      R1,[R0, #+16]
   \   0000002C   0080A0E1           MOV      R8,R0
   \   00000030   010057E1           CMP      R7,R1
   \   00000034   00009035           LDRCC    R0,[R0, #+0]
   \   00000038   0190A033           MOVCC    R9,#+1
   \   0000003C   08009025           LDRCS    R0,[R0, #+8]
   \   00000040   0090A023           MOVCS    R9,#+0
   \   00000044   F4FFFFEA           B        ??insert_1
   \                     ??insert_2:
   \   00000048   0800A0E1           MOV      R0,R8
   \   0000004C   0150A0E3           MOV      R5,#+1
   \   00000050   000059E3           CMP      R9,#+0
   \   00000054   0B00000A           BEQ      ??insert_3
   \   00000058   001096E5           LDR      R1,[R6, #+0]
   \   0000005C   010050E1           CMP      R0,R1
   \   00000060   0700001A           BNE      ??insert_4
   \   00000064   0730A0E1           MOV      R3,R7
   \   00000068   0820A0E1           MOV      R2,R8
   \   0000006C   0110A0E3           MOV      R1,#+1
   \                     ??insert_5:
   \   00000070   0600A0E1           MOV      R0,R6
   \   00000074   ........           _BLF     ??_Insert_1,??_Insert??rA
   \   00000078   00008DE5           STR      R0,[SP, #+0]
   \   0000007C   0450CDE5           STRB     R5,[SP, #+4]
   \   00000080   0A0000EA           B        ??insert_6
   \                     ??insert_4:
   \   00000084   ........           _BLF     ??_DecP,??_DecP??rA
   \                     ??insert_3:
   \   00000088   101090E5           LDR      R1,[R0, #+16]
   \   0000008C   070051E1           CMP      R1,R7
   \   00000090   0300002A           BCS      ??insert_7
   \   00000094   0730A0E1           MOV      R3,R7
   \   00000098   0820A0E1           MOV      R2,R8
   \   0000009C   0910A0E1           MOV      R1,R9
   \   000000A0   F2FFFFEA           B        ??insert_5
   \                     ??insert_7:
   \   000000A4   00008DE5           STR      R0,[SP, #+0]
   \   000000A8   0010A0E3           MOV      R1,#+0
   \   000000AC   0410CDE5           STRB     R1,[SP, #+4]
   \                     ??insert_6:
   \   000000B0   0D00A0E1           MOV      R0,SP
   \   000000B4   030090E8           LDM      R0,{R0,R1}
   \   000000B8   030084E8           STM      R4,{R0,R1}
   \   000000BC   0400A0E1           MOV      R0,R4
   \   000000C0   F643BDE8           POP      {R1,R2,R4-R9,LR}
   \   000000C4   1EFF2FE1           BX       LR               ;; return

   \                                 In segment CODE, align 4, keep-with-next
   \   __??Code32?? __code __interwork __atpcs _Tree<_Tset_traits<unsigned int, less<unsigned int>, allocator<unsigned int>, false>>::iterator _Tree<_Tset_traits<unsigned int, less<unsigned int>, allocator<unsigned int>, false>>::erase(_Tree<_Tset_traits<unsigned int, less<unsigned int>, allocator<unsigned int>, false>>::iterator, _Tree<_Tset_traits<unsigned int, less<unsigned int>, allocator<unsigned int>, false>>::iterator)
   \                     ??erase:
   \   00000000   F0402DE9           PUSH     {R4-R7,LR}
   \   00000004   0040A0E1           MOV      R4,R0
   \   00000008   000094E5           LDR      R0,[R4, #+0]
   \   0000000C   0150A0E1           MOV      R5,R1
   \   00000010   0260A0E1           MOV      R6,R2
   \   00000014   000055E1           CMP      R5,R0
   \   00000018   04005601           CMPEQ    R6,R4
   \   0000001C   0D00001A           BNE      ??erase_2
   \   00000020   0400A0E1           MOV      R0,R4
   \   00000024   ........           _BLF     ??clear,??clear??rA
   \   00000028   000094E5           LDR      R0,[R4, #+0]
   \   0000002C   0C0000EA           B        ??erase_3
   \                     ??erase_4:
   \   00000030   0570A0E1           MOV      R7,R5
   \   00000034   0500A0E1           MOV      R0,R5
   \   00000038   ........           _BLF     ??_IncP,??_IncP??rA
   \   0000003C   0050A0E1           MOV      R5,R0
   \   00000040   0700A0E1           MOV      R0,R7
   \   00000044   ........           _BLF     ??_IncP,??_IncP??rA
   \   00000048   0710A0E1           MOV      R1,R7
   \   0000004C   0400A0E1           MOV      R0,R4
   \   00000050   ........           _BLF     ??_Erase,??_Erase??rA
   \   00000054   ........           _BLF     `??operator delete`,`??operator delete??rA`
   \                     ??erase_2:
   \   00000058   060055E1           CMP      R5,R6
   \   0000005C   F3FFFF1A           BNE      ??erase_4
   \   00000060   0500A0E1           MOV      R0,R5
   \                     ??erase_3:
   \   00000064   F040BDE8           POP      {R4-R7,LR}
   \   00000068   1EFF2FE1           BX       LR               ;; return

   \                                 In segment CODE, align 4, keep-with-next
   \   __??Code32?? __code __interwork __atpcs unsigned int _Tree<_Tset_traits<unsigned int, less<unsigned int>, allocator<unsigned int>, false>>::erase(unsigned int)
   \                     ??erase_1:
   \   00000000   73402DE9           PUSH     {R0,R1,R4-R6,LR}
   \   00000004   0040A0E1           MOV      R4,R0
   \   00000008   0120A0E1           MOV      R2,R1
   \   0000000C   0410A0E1           MOV      R1,R4
   \   00000010   0D00A0E1           MOV      R0,SP
   \   00000014   ........           _BLF     ??equal_range,??equal_range??rA
   \   00000018   04509DE5           LDR      R5,[SP, #+4]
   \   0000001C   00009DE5           LDR      R0,[SP, #+0]
   \   00000020   0060A0E3           MOV      R6,#+0
   \   00000024   010000EA           B        ??erase_5
   \                     ??erase_6:
   \   00000028   016086E2           ADD      R6,R6,#+1
   \   0000002C   ........           _BLF     ??_IncP,??_IncP??rA
   \                     ??erase_5:
   \   00000030   050050E1           CMP      R0,R5
   \   00000034   FBFFFF1A           BNE      ??erase_6
   \   00000038   04209DE5           LDR      R2,[SP, #+4]
   \   0000003C   00109DE5           LDR      R1,[SP, #+0]
   \   00000040   0400A0E1           MOV      R0,R4
   \   00000044   ........           _BLF     ??erase,??erase??rA
   \   00000048   0600A0E1           MOV      R0,R6
   \   0000004C   7640BDE8           POP      {R1,R2,R4-R6,LR}
   \   00000050   1EFF2FE1           BX       LR               ;; return

   \                                 In segment CODE, align 4, keep-with-next
   \   __??Code32?? __code __interwork __atpcs void _Tree<_Tset_traits<unsigned int, less<unsigned int>, allocator<unsigned int>, false>>::clear()
   \                     ??clear:
   \   00000000   10402DE9           PUSH     {R4,LR}
   \   00000004   0040A0E1           MOV      R4,R0
   \   00000008   041094E5           LDR      R1,[R4, #+4]
   \   0000000C   ........           _BLF     ??_Erase_1,??_Erase??rA_1
   \   00000010   0400A0E1           MOV      R0,R4
   \   00000014   ........           _BLF     ??_Clear,??_Clear??rA
   \   00000018   1040BDE8           POP      {R4,LR}
   \   0000001C   1EFF2FE1           BX       LR               ;; return

   \                                 In segment CODE, align 4, keep-with-next
   \   __??Code32?? __code __interwork __atpcs _Tree<_Tset_traits<unsigned int, less<unsigned int>, allocator<unsigned int>, false>>::_Pairii _Tree<_Tset_traits<unsigned int, less<unsigned int>, allocator<unsigned int>, false>>::equal_range(unsigned int)
   \                     ??equal_range:
   \   00000000   F3402DE9           PUSH     {R0,R1,R4-R7,LR}
   \   00000004   0040A0E1           MOV      R4,R0
   \   00000008   0150A0E1           MOV      R5,R1
   \   0000000C   0260A0E1           MOV      R6,R2
   \   00000010   0610A0E1           MOV      R1,R6
   \   00000014   0500A0E1           MOV      R0,R5
   \   00000018   ........           _BLF     ??_Ubound,??_Ubound??rA
   \   0000001C   0070A0E1           MOV      R7,R0
   \   00000020   0610A0E1           MOV      R1,R6
   \   00000024   0500A0E1           MOV      R0,R5
   \   00000028   ........           _BLF     ??_Lbound,??_Lbound??rA
   \   0000002C   00008DE5           STR      R0,[SP, #+0]
   \   00000030   04708DE5           STR      R7,[SP, #+4]
   \   00000034   0D00A0E1           MOV      R0,SP
   \   00000038   030090E8           LDM      R0,{R0,R1}
   \   0000003C   030084E8           STM      R4,{R0,R1}
   \   00000040   0400A0E1           MOV      R0,R4
   \   00000044   F640BDE8           POP      {R1,R2,R4-R7,LR}
   \   00000048   1EFF2FE1           BX       LR               ;; return

   \                                 In segment CODE, align 4, keep-with-next
   \   __??Code32?? __code __interwork __atpcs void _Tree<_Tset_traits<PRogramObjectBase *, less<PRogramObjectBase *>, allocator<PRogramObjectBase *>, false>>::_Copy(_Tree<_Tset_traits<PRogramObjectBase *, less<PRogramObjectBase *>, allocator<PRogramObjectBase *>, false>> const &)
   \                     ??_Copy:
   \   00000000   30402DE9           PUSH     {R4,R5,LR}
   \   00000004   0150A0E1           MOV      R5,R1
   \   00000008   041095E5           LDR      R1,[R5, #+4]
   \   0000000C   0040A0E1           MOV      R4,R0
   \   00000010   0420A0E1           MOV      R2,R4
   \   00000014   ........           _BLF     ??_Copy_1,??_Copy??rA
   \   00000018   040084E5           STR      R0,[R4, #+4]
   \   0000001C   100095E5           LDR      R0,[R5, #+16]
   \   00000020   100084E5           STR      R0,[R4, #+16]
   \   00000024   040094E5           LDR      R0,[R4, #+4]
   \   00000028   0D10D0E5           LDRB     R1,[R0, #+13]
   \   0000002C   000051E3           CMP      R1,#+0
   \   00000030   0900001A           BNE      ??_Copy_2
   \   00000034   0010A0E1           MOV      R1,R0
   \   00000038   000000EA           B        ??_Copy_3
   \                     ??_Copy_4:
   \   0000003C   0210A0E1           MOV      R1,R2
   \                     ??_Copy_3:
   \   00000040   002091E5           LDR      R2,[R1, #+0]
   \   00000044   0D30D2E5           LDRB     R3,[R2, #+13]
   \   00000048   000053E3           CMP      R3,#+0
   \   0000004C   FAFFFF0A           BEQ      ??_Copy_4
   \   00000050   001084E5           STR      R1,[R4, #+0]
   \   00000054   ........           _BLF     ??_Max,??_Max??rA
   \   00000058   010000EA           B        ??_Copy_5
   \                     ??_Copy_2:
   \   0000005C   004084E5           STR      R4,[R4, #+0]
   \   00000060   0400A0E1           MOV      R0,R4
   \                     ??_Copy_5:
   \   00000064   080084E5           STR      R0,[R4, #+8]
   \   00000068   3040BDE8           POP      {R4,R5,LR}
   \   0000006C   1EFF2FE1           BX       LR               ;; return

   \                                 In segment CODE, align 4, keep-with-next
   \   __??Code32?? __code __interwork __atpcs _Tree<_Tset_traits<PRogramObjectBase *, less<PRogramObjectBase *>, allocator<PRogramObjectBase *>, false>>::_Nodeptr _Tree<_Tset_traits<PRogramObjectBase *, less<PRogramObjectBase *>, allocator<PRogramObjectBase *>, false>>::_Copy(_Tree<_Tset_traits<PRogramObjectBase *, less<PRogramObjectBase *>, allocator<PRogramObjectBase *>, false>>::_Nodeptr, _Tree<_Tset_traits<PRogramObjectBase *, less<PRogramObjectBase *>, allocator<PRogramObjectBase *>, false>>::_Nodeptr)
   \                     ??_Copy_1:
   \   00000000   F0472DE9           PUSH     {R4-R10,LR}
   \   00000004   0040A0E1           MOV      R4,R0
   \   00000008   0150A0E1           MOV      R5,R1
   \   0000000C   0D00D5E5           LDRB     R0,[R5, #+13]
   \   00000010   0280A0E1           MOV      R8,R2
   \   00000014   0460A0E1           MOV      R6,R4
   \   00000018   000050E3           CMP      R0,#+0
   \   0000001C   1900001A           BNE      ??_Copy_6
   \   00000020   0C90D5E5           LDRB     R9,[R5, #+12]
   \   00000024   10A095E5           LDR      R10,[R5, #+16]
   \   00000028   1400A0E3           MOV      R0,#+20
   \   0000002C   ........           _BLF     `??operator new`,`??operator new??rA`
   \   00000030   0070B0E1           MOVS     R7,R0
   \   00000034   0600000A           BEQ      ??_Copy_7
   \   00000038   004087E5           STR      R4,[R7, #+0]
   \   0000003C   048087E5           STR      R8,[R7, #+4]
   \   00000040   084087E5           STR      R4,[R7, #+8]
   \   00000044   0C90C7E5           STRB     R9,[R7, #+12]
   \   00000048   0000A0E3           MOV      R0,#+0
   \   0000004C   0D00C7E5           STRB     R0,[R7, #+13]
   \   00000050   10A087E5           STR      R10,[R7, #+16]
   \                     ??_Copy_7:
   \   00000054   0D00D6E5           LDRB     R0,[R6, #+13]
   \   00000058   001095E5           LDR      R1,[R5, #+0]
   \   0000005C   0720A0E1           MOV      R2,R7
   \   00000060   000050E3           CMP      R0,#+0
   \   00000064   0760A011           MOVNE    R6,R7
   \   00000068   0400A0E1           MOV      R0,R4
   \   0000006C   E3FFFFEB           BL       ??_Copy_1
   \   00000070   000087E5           STR      R0,[R7, #+0]
   \   00000074   081095E5           LDR      R1,[R5, #+8]
   \   00000078   0720A0E1           MOV      R2,R7
   \   0000007C   0400A0E1           MOV      R0,R4
   \   00000080   DEFFFFEB           BL       ??_Copy_1
   \   00000084   080087E5           STR      R0,[R7, #+8]
   \                     ??_Copy_6:
   \   00000088   0600A0E1           MOV      R0,R6
   \   0000008C   F047BDE8           POP      {R4-R10,LR}
   \   00000090   1EFF2FE1           BX       LR               ;; return

   \                                 In segment CODE, align 4, keep-with-next
   \   __??Code32?? __code __interwork __atpcs void _Tree<_Tset_traits<unsigned int, less<unsigned int>, allocator<unsigned int>, false>>::_Erase(_Tree<_Tset_traits<unsigned int, less<unsigned int>, allocator<unsigned int>, false>>::_Nodeptr)
   \                     ??_Erase_1:
   \   00000000   70402DE9           PUSH     {R4-R6,LR}
   \   00000004   0040A0E1           MOV      R4,R0
   \   00000008   0150A0E1           MOV      R5,R1
   \   0000000C   0560A0E1           MOV      R6,R5
   \   00000010   060000EA           B        ??_Erase_27
   \                     ??_Erase_28:
   \   00000014   081096E5           LDR      R1,[R6, #+8]
   \   00000018   0400A0E1           MOV      R0,R4
   \   0000001C   F7FFFFEB           BL       ??_Erase_1
   \   00000020   006096E5           LDR      R6,[R6, #+0]
   \   00000024   0500A0E1           MOV      R0,R5
   \   00000028   ........           _BLF     `??operator delete`,`??operator delete??rA`
   \   0000002C   0650A0E1           MOV      R5,R6
   \                     ??_Erase_27:
   \   00000030   0D00D6E5           LDRB     R0,[R6, #+13]
   \   00000034   000050E3           CMP      R0,#+0
   \   00000038   F5FFFF0A           BEQ      ??_Erase_28
   \   0000003C   7040BDE8           POP      {R4-R6,LR}
   \   00000040   1EFF2FE1           BX       LR               ;; return

   \                                 In segment CODE, align 4, keep-with-next
   \   __??Code32?? __code __interwork __atpcs void _Tree<_Tset_traits<PRogramObjectBase *, less<PRogramObjectBase *>, allocator<PRogramObjectBase *>, false>>::_Erase(_Tree<_Tset_traits<PRogramObjectBase *, less<PRogramObjectBase *>, allocator<PRogramObjectBase *>, false>>::_Nodeptr)
   \                     ??_Erase_2:
   \   00000000   70402DE9           PUSH     {R4-R6,LR}
   \   00000004   0040A0E1           MOV      R4,R0
   \   00000008   0150A0E1           MOV      R5,R1
   \   0000000C   0560A0E1           MOV      R6,R5
   \   00000010   060000EA           B        ??_Erase_29
   \                     ??_Erase_30:
   \   00000014   081096E5           LDR      R1,[R6, #+8]
   \   00000018   0400A0E1           MOV      R0,R4
   \   0000001C   F7FFFFEB           BL       ??_Erase_2
   \   00000020   006096E5           LDR      R6,[R6, #+0]
   \   00000024   0500A0E1           MOV      R0,R5
   \   00000028   ........           _BLF     `??operator delete`,`??operator delete??rA`
   \   0000002C   0650A0E1           MOV      R5,R6
   \                     ??_Erase_29:
   \   00000030   0D00D6E5           LDRB     R0,[R6, #+13]
   \   00000034   000050E3           CMP      R0,#+0
   \   00000038   F5FFFF0A           BEQ      ??_Erase_30
   \   0000003C   7040BDE8           POP      {R4-R6,LR}
   \   00000040   1EFF2FE1           BX       LR               ;; return

   \                                 In segment CODE, align 4, keep-with-next
   \   __??Code32?? __code __interwork __atpcs _Tree<_Tset_traits<unsigned int, less<unsigned int>, allocator<unsigned int>, false>>::iterator _Tree<_Tset_traits<unsigned int, less<unsigned int>, allocator<unsigned int>, false>>::_Insert(bool, _Tree<_Tset_traits<unsigned int, less<unsigned int>, allocator<unsigned int>, false>>::_Nodeptr, unsigned int)
   \                     ??_Insert_1:
   \   00000000   F0412DE9           PUSH     {R4-R8,LR}
   \   00000004   0040A0E1           MOV      R4,R0
   \   00000008   0150A0E1           MOV      R5,R1
   \   0000000C   0260A0E1           MOV      R6,R2
   \   00000010   0370A0E1           MOV      R7,R3
   \   00000014   1400A0E3           MOV      R0,#+20
   \   00000018   ........           _BLF     `??operator new`,`??operator new??rA`
   \   0000001C   0080B0E1           MOVS     R8,R0
   \   00000020   0600000A           BEQ      ??_Insert_11
   \   00000024   004088E5           STR      R4,[R8, #+0]
   \   00000028   046088E5           STR      R6,[R8, #+4]
   \   0000002C   084088E5           STR      R4,[R8, #+8]
   \   00000030   0000A0E3           MOV      R0,#+0
   \   00000034   0C00C8E5           STRB     R0,[R8, #+12]
   \   00000038   0D00C8E5           STRB     R0,[R8, #+13]
   \   0000003C   107088E5           STR      R7,[R8, #+16]
   \                     ??_Insert_11:
   \   00000040   0830A0E1           MOV      R3,R8
   \   00000044   0620A0E1           MOV      R2,R6
   \   00000048   0510A0E1           MOV      R1,R5
   \   0000004C   0400A0E1           MOV      R0,R4
   \   00000050   ........           _BLF     ??_Insert,??_Insert??rA_1
   \   00000054   0800A0E1           MOV      R0,R8
   \   00000058   F041BDE8           POP      {R4-R8,LR}
   \   0000005C   1EFF2FE1           BX       LR               ;; return

   \                                 In segment CODE, align 4, keep-with-next
   \   __??Code32?? __code __interwork __atpcs _Tree<_Tset_traits<unsigned int, less<unsigned int>, allocator<unsigned int>, false>>::_Nodeptr _Tree<_Tset_traits<unsigned int, less<unsigned int>, allocator<unsigned int>, false>>::_Lbound(unsigned int) const
   \                     ??_Lbound:
   \   00000000   042090E5           LDR      R2,[R0, #+4]
   \                     ??_Lbound_1:
   \   00000004   0D30D2E5           LDRB     R3,[R2, #+13]
   \   00000008   000053E3           CMP      R3,#+0
   \   0000000C   1EFF2F11           BXNE     LR
   \   00000010   103092E5           LDR      R3,[R2, #+16]
   \   00000014   010053E1           CMP      R3,R1
   \   00000018   08209235           LDRCC    R2,[R2, #+8]
   \   0000001C   0200A021           MOVCS    R0,R2
   \   00000020   00209225           LDRCS    R2,[R2, #+0]
   \   00000024   F6FFFFEA           B        ??_Lbound_1

   \                                 In segment CODE, align 4, keep-with-next
   \   __??Code32?? __code __interwork __atpcs _Tree<_Tset_traits<unsigned int, less<unsigned int>, allocator<unsigned int>, false>>::_Nodeptr _Tree<_Tset_traits<unsigned int, less<unsigned int>, allocator<unsigned int>, false>>::_Ubound(unsigned int) const
   \                     ??_Ubound:
   \   00000000   042090E5           LDR      R2,[R0, #+4]
   \                     ??_Ubound_1:
   \   00000004   0D30D2E5           LDRB     R3,[R2, #+13]
   \   00000008   000053E3           CMP      R3,#+0
   \   0000000C   1EFF2F11           BXNE     LR
   \   00000010   103092E5           LDR      R3,[R2, #+16]
   \   00000014   030051E1           CMP      R1,R3
   \   00000018   08209225           LDRCS    R2,[R2, #+8]
   \   0000001C   0200A031           MOVCC    R0,R2
   \   00000020   00209235           LDRCC    R2,[R2, #+0]
   \   00000024   F6FFFFEA           B        ??_Ubound_1

   \                                 In segment CODE, align 4, keep-with-next
   \   __??Code32?? __code __interwork __atpcs set<PRogramObjectBase *>::~set()
   \                     `?~set_1`:
   \   00000000   10402DE9           PUSH     {R4,LR}
   \   00000004   0040A0E1           MOV      R4,R0
   \   00000008   041094E5           LDR      R1,[R4, #+4]
   \   0000000C   ........           _BLF     ??_Erase_2,??_Erase??rA_2
   \   00000010   0400A0E1           MOV      R0,R4
   \   00000014   ........           _BLF     ??_Clear,??_Clear??rA
   \   00000018   1040BDE8           POP      {R4,LR}
   \   0000001C   1EFF2FE1           BX       LR               ;; return

   \                                 In segment CODE, align 4, keep-with-next
   \   __??Code32?? __code __interwork __atpcs set<PRogramObjectBase *>::set(set<PRogramObjectBase *> const &)
   \                     ??set:
   \   00000000   70402DE9           PUSH     {R4-R6,LR}
   \   00000004   0150A0E1           MOV      R5,R1
   \   00000008   1460D5E5           LDRB     R6,[R5, #+20]
   \   0000000C   0040A0E1           MOV      R4,R0
   \   00000010   ........           _BLF     ??_Clear,??_Clear??rA
   \   00000014   1460C4E5           STRB     R6,[R4, #+20]
   \   00000018   0510A0E1           MOV      R1,R5
   \   0000001C   0400A0E1           MOV      R0,R4
   \   00000020   ........           _BLF     ??_Copy,??_Copy??rA_1
   \   00000024   0400A0E1           MOV      R0,R4
   \   00000028   7040BDE8           POP      {R4-R6,LR}
   \   0000002C   1EFF2FE1           BX       LR               ;; return

   \                                 In segment CODE, align 4, keep-with-next
   \   __??Code32?? __code __interwork __atpcs set<unsigned int>::~set()
   \                     `?~set`:
   \   00000000   00402DE9           PUSH     {LR}
   \   00000004   ........           _BLF     ??clear,??clear??rA
   \   00000008   0040BDE8           POP      {LR}
   \   0000000C   1EFF2FE1           BX       LR               ;; return
      8                  #ifdef ANFLASH
      9                      #include "TXUFlashProgMain.h"
     10                  #endif
     11                  #include "TSNIncludes.h"

   \                                 In segment CODE, align 4, keep-with-next
   \   __??Code32?? __code __interwork __atpcs void operator+(string const &, string const &)
   \                     `??operator+`:
   \   00000000   30402DE9           PUSH     {R4,R5,LR}
   \   00000004   1CD04DE2           SUB      SP,SP,#+28
   \   00000008   0040A0E1           MOV      R4,R0
   \   0000000C   0250A0E1           MOV      R5,R2
   \   00000010   0D00A0E1           MOV      R0,SP
   \   00000014   ........           _BLF     ??string,??string??rA
   \   00000018   34109FE5           LDR      R1,`??operator+_2`  ;; ??npos
   \   0000001C   0020A0E3           MOV      R2,#+0
   \   00000020   003091E5           LDR      R3,[R1, #+0]
   \   00000024   0510A0E1           MOV      R1,R5
   \   00000028   ........           _BLF     ??append,??append??rA
   \   0000002C   0010A0E1           MOV      R1,R0
   \   00000030   0400A0E1           MOV      R0,R4
   \   00000034   ........           _BLF     ??string,??string??rA
   \   00000038   0020A0E3           MOV      R2,#+0
   \   0000003C   0110A0E3           MOV      R1,#+1
   \   00000040   0D00A0E1           MOV      R0,SP
   \   00000044   ........           _BLF     ??_Tidy,??_Tidy??rA
   \   00000048   1CD08DE2           ADD      SP,SP,#+28
   \   0000004C   3040BDE8           POP      {R4,R5,LR}
   \   00000050   1EFF2FE1           BX       LR               ;; return
   \                     `??operator+_2`:
   \   00000054   ........           DC32     ??npos

   \                                 In segment CODE, align 4, keep-with-next
   \   __??Code32?? __code __interwork __atpcs void operator+(string const &, char const *)
   \                     `??operator+_1`:
   \   00000000   70402DE9           PUSH     {R4-R6,LR}
   \   00000004   1CD04DE2           SUB      SP,SP,#+28
   \   00000008   0040A0E1           MOV      R4,R0
   \   0000000C   0250A0E1           MOV      R5,R2
   \   00000010   0D00A0E1           MOV      R0,SP
   \   00000014   ........           _BLF     ??string,??string??rA
   \   00000018   0060A0E1           MOV      R6,R0
   \   0000001C   0500A0E1           MOV      R0,R5
   \   00000020   ........           _BLF     strlen,??strlen??rA
   \   00000024   0020A0E1           MOV      R2,R0
   \   00000028   0510A0E1           MOV      R1,R5
   \   0000002C   0600A0E1           MOV      R0,R6
   \   00000030   ........           _BLF     ??append_1,??append??rA_1
   \   00000034   0010A0E1           MOV      R1,R0
   \   00000038   0400A0E1           MOV      R0,R4
   \   0000003C   ........           _BLF     ??string,??string??rA
   \   00000040   0020A0E3           MOV      R2,#+0
   \   00000044   0110A0E3           MOV      R1,#+1
   \   00000048   0D00A0E1           MOV      R0,SP
   \   0000004C   ........           _BLF     ??_Tidy,??_Tidy??rA
   \   00000050   1CD08DE2           ADD      SP,SP,#+28
   \   00000054   7040BDE8           POP      {R4-R6,LR}
   \   00000058   1EFF2FE1           BX       LR               ;; return

   \                                 In segment DATA_AN, at 0x31fff000
   \   ProgramVersionInfo __data BootVersion
   \                     BootVersion:
   \   00000000                      DS8 4

   \                                 In segment DATA_AN, at 0x31fff010
   \   unsigned int volatile __data LastOSError
   \                     LastOSError:
   \   00000000                      DS8 4

   \                                 In segment DATA_AN, at 0x31fff018
   \   unsigned int volatile __data FlashErrorStatus
   \                     FlashErrorStatus:
   \   00000000                      DS8 4

   \                                 In segment DATA_AN, at 0x31fff01c
   \   char __data LastOSErrorTask[32]
   \                     LastOSErrorTask:
   \   00000000                      DS8 32

   \                                 In segment DATA_AN, at 0x31fff048
   \   unsigned int volatile __data LastErrAddress
   \                     LastErrAddress:
   \   00000000                      DS8 4
     12              #endif
     13              #pragma hdrstop
     14              #ifdef BORLAND
     15                  #pragma package(smart_init)
     16              #endif
     17          
     18          //extern int  LibPutValue(int ValueId, PRogramObjectBase *ObjPtr, AnsiString InputValue, bool Local,bool NoErrorMessage);
     19              #ifndef S2TXU
     20          volatile unsigned  LastOSError;
     21          volatile unsigned  ProgProgress;
     22          volatile unsigned  FlashErrorStatus;
     23          volatile char      LastOSErrorTask[TASK_NAME_LENGTH];
     24          volatile time_t    LastStartTime;
     25          volatile int       RestartRetryCnt;
     26          volatile bool      IsPowerOn;
     27          volatile unsigned  LastErrAddress;
     28              #endif
     29          #else
     30              #include "RTOS.h"
     31              #include "ANPro10Inc.h"
     32              #include "mx29LV160TB.h"
     33              #include "2410addr.h"
     34          extern int LCDXSize;
     35          extern int LCDYSize;
     36          extern bool FlashRead(char *Destination, int &FlashSize);
     37              #if (WATCHDOG == 1)
     38          extern TSN_TASK WatchDogTaskHandle;
     39              #endif
     40          #endif
     41          #include "TSNVersion.h"
     42          #include "minilzo.h"
     43          #include "FixedVariables.h"
     44          #if defined(S2TXU) || defined(ANBOOTLOADER)
     45          extern OS_MEMF pUnPackMem;
     46          extern "C"
     47          {
     48          extern void RestartIncMsg(char *Message);
     49          }
     50          
     51          #endif
     52          
     53          
     54          TSNUart   *fake_uart_port_for_tcp_clientPtr = NULL;
     55          #if defined(S2TXU) || defined(ANBOOTLOADER)
     56          TSN_MAILBOX        UploadMessageBuf;
     57          #endif
     58          
     59          #ifdef ANFLASH
     60          char               FileBuf[2000*1024];
     61          volatile int       BytesInBufferFileBuf  = 0;
     62          volatile int       FlashSize             = 0;
     63          volatile int       CurrentOffset         = 0;
     64          #endif
     65          //---------------------------------------------------------------------------
     66          

   \                                 In segment DATA_C, align 4, align-sorted
     67          const U8           CRC[] =
   \                     CRC:
   \   00000000   005EBCE2613F       DC8 0, 94, 188, 226, 97, 63, 221, 131, 194, 156, 126, 32, 163, 253, 31
   \              DD83C29C7E20
   \              A3FD1F      
   \   0000000F   419DC3217FFC       DC8 65, 157, 195, 33, 127, 252, 162, 64, 30, 95, 1, 227, 189, 62, 96
   \              A2401E5F01E3
   \              BD3E60      
   \   0000001E   82DC237D9FC1       DC8 130, 220, 35, 125, 159, 193, 66, 28, 254, 160, 225, 191, 93, 3, 128
   \              421CFEA0E1BF
   \              5D0380      
   \   0000002D   DE3C62BEE002       DC8 222, 60, 98, 190, 224, 2, 92, 223, 129, 99, 61, 124, 34, 192, 158
   \              5CDF81633D7C
   \              22C09E      
   \   0000003C   1D43A1FF4618       DC8 29, 67, 161, 255, 70, 24, 250, 164, 39, 121, 155, 197, 132, 218, 56
   \              FAA427799BC5
   \              84DA38      
   \   0000004B   66E5BB5907DB       DC8 102, 229, 187, 89, 7, 219, 133, 103, 57, 186, 228, 6, 88, 25, 71
   \              856739BAE406
   \              581947      
   \   0000005A   A5FB7826C49A       DC8 165, 251, 120, 38, 196, 154, 101, 59, 217, 135, 4, 90, 184, 230
   \              653BD987045A
   \              B8E6        
   \   00000068   A7F91B45C698       DC8 167, 249, 27, 69, 198, 152, 122, 36, 248, 166, 68, 26, 153, 199, 37
   \              7A24F8A6441A
   \              99C725      
   \   00000077   7B3A6486D85B       DC8 123, 58, 100, 134, 216, 91, 5, 231, 185, 140, 210, 48, 110, 237
   \              05E7B98CD230
   \              6EED        
   \   00000085   B3510F4E10F2       DC8 179, 81, 15, 78, 16, 242, 172, 47, 113, 147, 205, 17, 79, 173, 243
   \              AC2F7193CD11
   \              4FADF3      
   \   00000094   702ECC92D38D       DC8 112, 46, 204, 146, 211, 141, 111, 49, 178, 236, 14, 80, 175, 241
   \              6F31B2EC0E50
   \              AFF1        
   \   000000A2   134DCE90722C       DC8 19, 77, 206, 144, 114, 44, 109, 51, 209, 143, 12, 82, 176, 238, 50
   \              6D33D18F0C52
   \              B0EE32      
   \   000000B1   6C8ED0530DEF       DC8 108, 142, 208, 83, 13, 239, 177, 240, 174, 76, 18, 145, 207, 45
   \              B1F0AE4C1291
   \              CF2D        
   \   000000BF   73CA947628AB       DC8 115, 202, 148, 118, 40, 171, 245, 23, 73, 8, 86, 180, 234, 105, 55
   \              F517490856B4
   \              EA6937      
   \   000000CE   D58B5709EBB5       DC8 213, 139, 87, 9, 235, 181, 54, 104, 138, 212, 149, 203, 41, 119
   \              36688AD495CB
   \              2977        
   \   000000DC   F4AA4816E9B7       DC8 244, 170, 72, 22, 233, 183, 85, 11, 136, 214, 52, 106, 43, 117, 151
   \              550B88D6346A
   \              2B7597      
   \   000000EB   C94A14F6A874       DC8 201, 74, 20, 246, 168, 116, 42, 200, 150, 21, 75, 169, 247, 182
   \              2AC896154BA9
   \              F7B6        
   \   000000F9   E80A54D7896B       DC8 232, 10, 84, 215, 137, 107, 53
   \              35          
     68          {                    /*Dallas Semiconductor one-wire CRC table */
     69              0, 94, 188, 226, 97, 63, 221, 131, 194, 156, 126, 32, 163, 253, 31, 65,
     70              157, 195, 33, 127, 252, 162, 64, 30, 95, 1, 227, 189, 62, 96, 130, 220,
     71              35, 125, 159, 193, 66, 28, 254, 160, 225, 191, 93, 3, 128, 222, 60, 98,
     72              190, 224, 2, 92, 223, 129, 99, 61, 124, 34, 192, 158, 29, 67, 161, 255,
     73              70, 24, 250, 164, 39, 121, 155, 197, 132, 218, 56, 102, 229, 187, 89, 7,
     74              219, 133, 103, 57, 186, 228, 6, 88, 25, 71, 165, 251, 120, 38, 196, 154,
     75              101, 59, 217, 135, 4, 90, 184, 230, 167, 249, 27, 69, 198, 152, 122, 36,
     76              248, 166, 68, 26, 153, 199, 37, 123, 58, 100, 134, 216, 91, 5, 231, 185,
     77              140, 210, 48, 110, 237, 179, 81, 15, 78, 16, 242, 172, 47, 113, 147, 205,
     78              17, 79, 173, 243, 112, 46, 204, 146, 211, 141, 111, 49, 178, 236, 14, 80,
     79              175, 241, 19, 77, 206, 144, 114, 44, 109, 51, 209, 143, 12, 82, 176, 238,
     80              50, 108, 142, 208, 83, 13, 239, 177, 240, 174, 76, 18, 145, 207, 45, 115,
     81              202, 148, 118, 40, 171, 245, 23, 73, 8, 86, 180, 234, 105, 55, 213, 139,
     82              87, 9, 235, 181, 54, 104, 138, 212, 149, 203, 41, 119, 244, 170, 72, 22,
     83              233, 183, 85, 11, 136, 214, 52, 106, 43, 117, 151, 201, 74, 20, 246, 168,
     84              116, 42, 200, 150, 21, 75, 169, 247, 182, 232, 10, 84, 215, 137, 107, 53
     85          };
     86          

   \                                 In segment DATA_Z, align 1, align-sorted
     87          volatile bool      SystemMatch           = false;   // This flag indicates that we are connected
   \                     SystemMatch:
   \   00000000                      DS8 1

   \                                 In segment DATA_Z, align 1, align-sorted
     88          volatile bool      Acknowledge           = false;
   \                     Acknowledge:
   \   00000000                      DS8 1

   \                                 In segment DATA_Z, align 1, align-sorted
     89          volatile bool      SysInfoAvailable      = false;
   \                     SysInfoAvailable:
   \   00000000                      DS8 1

   \                                 In segment DATA_I, align 4, align-sorted
   \                     fake_uart_port_for_tcp_clientPtr:
   \   00000000                      DS8 4
   \   00000004                      REQUIRE `?<Initializer for fake_uart_port_for_tcp_clien`
     90          #ifdef ANFLASH
     91          volatile bool      GetFlashDataCompleted = true;
     92          volatile int       GetFlashDataOffset    = 0;
     93          #endif
     94          
     95          #ifdef S2TXU
     96          ProgramVersionInfo MyProgramVersion      = { VERSION_PROD_NO, VERSION_PACKET, VERSION_TXU_NEW_FUNC, VERSION_TXU_BUILD_NO };
   \                     MyProgramVersion:
   \   00000004                      DS8 4
   \   00000008                      REQUIRE `?<Initializer for MyProgramVersion>`
     97          #elif defined(ANTDUSIM)
     98          ProgramVersionInfo MyProgramVersion      = { VERSION_PROD_NO, VERSION_PACKET, VERSION_TXU_NEW_FUNC, VERSION_TXU_BUILD_NO };
     99          ProgramVersionInfo BootVersion           = { 0, 0, 0, 0 };
    100          extern volatile unsigned ProgProgress;
    101          extern volatile time_t LastStartTime;
    102          #elif defined(ANWIN)
    103          ProgramVersionInfo MyProgramVersion      = { VERSION_PROD_NO, VERSION_PACKET, VERSION_WIN_NEW_FUNC, VERSION_WIN_BUG_FIX };
    104          ProgramVersionInfo BootVersion           = { 0, 0, 0, 0 };
    105          #elif defined(ANFLASH)
    106          ProgramVersionInfo MyProgramVersion      = { VERSION_PROD_NO, VERSION_PACKET, VERSION_FLASH_NEW_FUNC, VERSION_FLASH_BUG_FIX };
    107          ProgramVersionInfo BootVersion           = { 0, 0, 0, 0 };
    108          #elif defined(ANCONF)
    109          ProgramVersionInfo MyProgramVersion      = { VERSION_PROD_NO, VERSION_PACKET, VERSION_CONFIG_NEW_FUNC, VERSION_CONFIG_BUG_FIX };
    110          ProgramVersionInfo BootVersion           = { 0, 0, 0, 0 };
    111          #elif defined(ANBOOTLOADER)
    112          ProgramVersionInfo MyProgramVersion      = { VERSION_PROD_NO, VERSION_PACKET, VERSION_BOOT_NEW_FUNC, VERSION_BOOT_BUG_FIX };
    113          #endif
    114          
    115          #ifdef ANBOOTLOADER
    116          ANPRO10UnitInfo    UnitInformation[FIRST_ST16554_PORT];
    117          #endif
    118          volatile U8        DownloadAck           = FLASH_PROGRAM_TIMEOUT;
    119          volatile U16       RestartAck            = 0;
    120          #ifdef WIN32
    121          U8                 ExternDeviceId        = 0;
    122          U8                 ExternDeviceAddress   = 0;
    123          ProgramVersionInfo ExternProgramVersion;
    124          ProgramVersionInfo ExternBootVersion;
    125          AnsiString         ExternProjectId;
    126          U8                 ExternProgType        = 0;
    127          U16                ExternDataVersion     = 0;
    128          
    129          #else
    130          OS_EVENT AckFlashEvent;
    131          #endif
    132          #if defined(S2TXU) | defined(ANBOOTLOADER)
    133          extern TSN_TASK LogTaskHandle;
    134          #endif
    135          #if defined(ANWIN) || defined(ANFLASH)
    136          ANCriticalSection  ANPRO10Sema;
    137          #endif
    138          
    139          #define TX_MESSAGE_TIMEOUT 200  // Timeout for messages to tx-handel
    140          #define TX_TIMEOUT_DELAY  1000  // Transmit timeout and Send permission timeout.
    141          // Failure status if Tx not completed within this time
    142          
    143          

   \                                 In segment CODE, align 4, keep-with-next
    144          int BuildPacketHeading(NetHeading *HPtr, unsigned RxAddress, unsigned RxTypeId) {
    145          
    146              HPtr->RxTypeId  = RxTypeId;
   \                     ??BuildPacketHeading:
   \   00000000   0020C0E5           STRB     R2,[R0, #+0]
    147              HPtr->RxAddress = RxAddress;
   \   00000004   0110C0E5           STRB     R1,[R0, #+1]
    148          
    149              HPtr->TxTypeId  = CurrentDeviceId;
   \   00000008   ........           LDR      R1,??DataTable10  ;; CurrentDeviceId
   \   0000000C   F010D1E1           LDRSH    R1,[R1, #+0]
   \   00000010   0210C0E5           STRB     R1,[R0, #+2]
    150              HPtr->TxAddress = 0;    // EHSMark How to get the address??
   \   00000014   0010A0E3           MOV      R1,#+0
   \   00000018   ........           B        ?Subroutine45
    151          /*
    152              HPtr->TxTypeId  = PROSystemData::TXUSystemData->MyTypeId;
    153              HPtr->TxAddress = PROSystemData::TXUSystemData->MyAddress;
    154          */
    155              return (P_HEADING_SIZE);
    156          }

   \                                 In segment CODE, align 4, keep-with-next
   \                     ?Subroutine45:
   \   00000000   0310C0E5           STRB     R1,[R0, #+3]
   \   00000004   0700A0E3           MOV      R0,#+7
   \   00000008   1EFF2FE1           BX       LR               ;; return
    157          

   \                                 In segment CODE, align 4, keep-with-next
    158          int ANPRO10_AddPacketHeading(U8 *buf, unsigned RxAddress, unsigned RxTypeId) {
    159              volatile ANPRO10_PacketHeading *pPH = (ANPRO10_PacketHeading *)buf;
    160              pPH->rxtypeid  = RxTypeId;
   \                     ??ANPRO10_AddPacketHeading:
   \   00000000   0020C0E5           STRB     R2,[R0, #+0]
    161              pPH->rxadr = RxAddress;
   \   00000004   0110C0E5           STRB     R1,[R0, #+1]
    162          
    163              pPH->txtypeid  = CurrentDeviceId;
   \   00000008   ........           LDR      R1,??DataTable10  ;; CurrentDeviceId
   \   0000000C   F010D1E1           LDRSH    R1,[R1, #+0]
   \   00000010   0210C0E5           STRB     R1,[R0, #+2]
    164              pPH->txadr = CurrentDeviceAddress;
   \   00000014   ........           LDR      R1,??DataTable3  ;; CurrentDeviceAddress
   \   00000018   F010D1E1           LDRSH    R1,[R1, #+0]
   \   0000001C                      REQUIRE ?Subroutine45
   \   0000001C                      ;; // Fall through to label ?Subroutine45
    165              return (sizeof(ANPRO10_PacketHeading));
    166          }

   \                                 In segment CODE, align 4, keep-with-next
    167          int ANPRO10_AddPacketPreAmble(U8 *TX) {
    168              for (int i = 0; i < ANPRO10_NUM_SYNC; i++) TX[i] = ANPRO10_SYN;
   \                     ??ANPRO10_AddPacketPreAmble:
   \   00000000   0010A0E3           MOV      R1,#+0
   \   00000004   1620A0E3           MOV      R2,#+22
   \                     ??ANPRO10_AddPacketPreAmble_1:
   \   00000008   0020C1E7           STRB     R2,[R1, +R0]
   \   0000000C   011081E2           ADD      R1,R1,#+1
   \   00000010   030051E3           CMP      R1,#+3
   \   00000014   FBFFFFBA           BLT      ??ANPRO10_AddPacketPreAmble_1
    169              TX[ANPRO10_NUM_SYNC] = ANPRO10_SOH;
   \   00000018   0110A0E3           MOV      R1,#+1
   \   0000001C   0310C0E5           STRB     R1,[R0, #+3]
    170              return (ANPRO10_NUM_SYNC + 1);
   \   00000020   0400A0E3           MOV      R0,#+4
   \   00000024   1EFF2FE1           BX       LR               ;; return
    171          }
    172          
    173          

   \                                 In segment CODE, align 4, keep-with-next
    174          U16 AddData(U8 *TxBuf, U16 Command, U8 *MyData, U16 Size) {
   \                     ??AddData:
   \   00000000   38402DE9           PUSH     {R3-R5,LR}
   \   00000004   0040A0E1           MOV      R4,R0
   \   00000008   0250A0E1           MOV      R5,R2
    175              TxBuf[0] = Command;
   \   0000000C   0010C4E5           STRB     R1,[R4, #+0]
    176          #ifdef WIN32
    177              *((U16 *)&TxBuf[1]) = Size;
    178          #else
    179              memcpy(&TxBuf[1],(char*)&Size,sizeof(Size));
   \   00000010   0220A0E3           MOV      R2,#+2
   \   00000014   0D10A0E1           MOV      R1,SP
   \   00000018   010084E2           ADD      R0,R4,#+1
   \   0000001C   ........           _BLF     memcpy,??memcpy??rA
    180          #endif
    181              memcpy(&TxBuf[3], MyData, Size);
   \   00000020   B020DDE1           LDRH     R2,[SP, #+0]
   \   00000024   0510A0E1           MOV      R1,R5
   \   00000028   030084E2           ADD      R0,R4,#+3
   \   0000002C   ........           _BLF     memcpy,??memcpy??rA
    182              return (Size + 3);
   \   00000030   B000DDE1           LDRH     R0,[SP, #+0]
   \   00000034   3240BDE8           POP      {R1,R4,R5,LR}
   \   00000038   030080E2           ADD      R0,R0,#+3
   \   0000003C   0008A0E1           MOV      R0,R0, LSL #+16
   \   00000040   2008A0E1           MOV      R0,R0, LSR #+16
   \   00000044   1EFF2FE1           BX       LR               ;; return
    183          }
    184          
    185          

   \                                 In segment DATA_Z, align 1, align-sorted
    186          U8 Sequence = 0;
   \                     Sequence:
   \   00000000                      DS8 1
    187          
    188          /*
    189          Method used to add tail to ANPRO10 transmission packet, also adds chekksums to packet heading
    190          
    191              parameters:     Buf         - pointer to start of transmission packet, including preamble
    192                              Size        - Size of transmission packet including preamble, excluding tail
    193          
    194              return value:
    195                              number of tail octets added to transmission packet
    196          */

   \                                 In segment CODE, align 4, keep-with-next
    197          int ANPRO10_AddPacketTail(U8 *Buf, int Size, bool RequestAck) {
   \                     ??ANPRO10_AddPacketTail:
   \   00000000   F1002DE9           PUSH     {R0,R4-R7}
    198              ANPRO10_PacketHeading *pPH = (ANPRO10_PacketHeading *)&Buf[ANPRO10_PREAMBLE_SIZE];
   \   00000004   043080E2           ADD      R3,R0,#+4
    199              ANPRO10_PacketTail    *pPT = (ANPRO10_PacketTail *)&Buf[Size];
   \   00000008   000081E0           ADD      R0,R1,R0
    200              if (RequestAck) {
   \   0000000C   00C0A0E3           MOV      R12,#+0
   \   00000010   000052E3           CMP      R2,#+0
    201                  pPT->ecmd   = ECMD_NMDRQACK;
   \   00000014   0120A013           MOVNE    R2,#+1
   \   00000018   0020C015           STRBNE   R2,[R0, #+0]
    202                  pPT->edata  = 0;
    203              } else {
    204                  pPT->ecmd   = ECMD_NMDWOACK;
   \   0000001C   00C0C005           STRBEQ   R12,[R0, #+0]
   \   00000020   01C0C0E5           STRB     R12,[R0, #+1]
    205                  pPT->edata  = 0;
   \   00000024   02C0C0E5           STRB     R12,[R0, #+2]
    206              }
    207              Size += sizeof(ANPRO10_PacketTail);
    208              pPH->nob = Size - (ANPRO10_PREAMBLE_SIZE);
   \   00000028   021081E2           ADD      R1,R1,#+2
   \   0000002C   0410C3E5           STRB     R1,[R3, #+4]
   \   00000030   2114A0E1           LSR      R1,R1,#+8
   \   00000034   0510C3E5           STRB     R1,[R3, #+5]
    209              // Now we can calculate the packet header checksum
    210              {
    211                  U8          *TmpRxPtr = (U8 *)pPH;
    212                  volatile U8 HCSum     = 0;
    213                  for (unsigned i = 0; i < sizeof(ANPRO10_PacketHeading) - 1; i++) {
   \   00000038   ........           LDR      R1,??DataTable4  ;; CRC
   \   0000003C   0320A0E1           MOV      R2,R3
   \   00000040   00C0CDE5           STRB     R12,[SP, #+0]
   \   00000044   0040A0E3           MOV      R4,#+0
    214                      HCSum  = CRC[HCSum ^ *TmpRxPtr++];
   \                     ??ANPRO10_AddPacketTail_1:
   \   00000048   0060DDE5           LDRB     R6,[SP, #+0]
   \   0000004C   ........           LDRB     R7,[R2], #+1
    215                  }
   \   00000050   014084E2           ADD      R4,R4,#+1
   \   00000054   060054E3           CMP      R4,#+6
   \   00000058   066027E0           EOR      R6,R7,R6
   \   0000005C   0160D6E7           LDRB     R6,[R6, +R1]
   \   00000060   0060CDE5           STRB     R6,[SP, #+0]
   \   00000064   F7FFFF3A           BCC      ??ANPRO10_AddPacketTail_1
    216                  pPH->HCRC = HCSum;
   \   00000068   0020DDE5           LDRB     R2,[SP, #+0]
   \   0000006C   0620C3E5           STRB     R2,[R3, #+6]
    217              }
    218              pPT->SEQ = Sequence++;
   \   00000070   5C209FE5           LDR      R2,??ANPRO10_AddPacketTail_2  ;; Sequence
   \   00000074   0040D2E5           LDRB     R4,[R2, #+0]
   \   00000078   0340C0E5           STRB     R4,[R0, #+3]
   \   0000007C   0040D2E5           LDRB     R4,[R2, #+0]
   \   00000080   014084E2           ADD      R4,R4,#+1
   \   00000084   0040C2E5           STRB     R4,[R2, #+0]
    219          
    220              U8 CS      = 0;
    221              U8 *BufPtr = (U8 *)pPH;
   \   00000088   0320A0E1           MOV      R2,R3
    222          
    223              for (int Cnt = 0; Cnt < pPH->nob - 2; Cnt++) {
   \   0000008C   0040A0E3           MOV      R4,#+0
   \   00000090   030000EA           B        ??ANPRO10_AddPacketTail_3
    224                  CS = CRC[CS ^ *BufPtr++];
   \                     ??ANPRO10_AddPacketTail_4:
   \   00000094   ........           LDRB     R5,[R2], #+1
    225              }
   \   00000098   014084E2           ADD      R4,R4,#+1
   \   0000009C   0C5025E0           EOR      R5,R5,R12
   \   000000A0   01C0D5E7           LDRB     R12,[R5, +R1]
   \                     ??ANPRO10_AddPacketTail_3:
   \   000000A4   0550D3E5           LDRB     R5,[R3, #+5]
   \   000000A8   0460D3E5           LDRB     R6,[R3, #+4]
   \   000000AC   055486E1           ORR      R5,R6,R5, LSL #+8
   \   000000B0   025045E2           SUB      R5,R5,#+2
   \   000000B4   050054E1           CMP      R4,R5
   \   000000B8   F5FFFFBA           BLT      ??ANPRO10_AddPacketTail_4
    226              pPT->PCRC = CS;
   \   000000BC   04C0C0E5           STRB     R12,[R0, #+4]
    227              pPT->EOT    = ANPRO10_EOT;
   \   000000C0   0410A0E3           MOV      R1,#+4
   \   000000C4   0510C0E5           STRB     R1,[R0, #+5]
    228              return (sizeof(ANPRO10_PacketTail));
   \   000000C8   F200BDE8           POP      {R1,R4-R7}
   \   000000CC   0600A0E3           MOV      R0,#+6
   \   000000D0   1EFF2FE1           BX       LR               ;; return
   \                     ??ANPRO10_AddPacketTail_2:
   \   000000D4   ........           DC32     Sequence
    229          }
    230          
    231          

   \                                 In segment CODE, align 4, keep-with-next
    232          int AddPacket(U8 *TxBuf, NetPacket &Packet) {
   \                     ??AddPacket:
   \   00000000   11402DE9           PUSH     {R0,R4,LR}
   \   00000004   0140A0E1           MOV      R4,R1
    233          
    234          #ifndef S2TXU
    235              *((U16 *)&TxBuf[0]) = Packet.Command;
    236              *((U16 *)&TxBuf[2]) = Packet.Size;
    237          #else
    238              TxBuf[0] = (U8)(Packet.Command & 0xFF);
   \   00000008   0010D4E5           LDRB     R1,[R4, #+0]
   \   0000000C   0010C0E5           STRB     R1,[R0, #+0]
    239              TxBuf[1] = (U8)(Packet.Command >> 8);
   \   00000010   0110D4E5           LDRB     R1,[R4, #+1]
   \   00000014   0114A0E1           LSL      R1,R1,#+8
   \   00000018   2114A0E1           LSR      R1,R1,#+8
   \   0000001C   0110C0E5           STRB     R1,[R0, #+1]
    240              TxBuf[2] = (U8)(Packet.Size & 0xFF);
   \   00000020   0210D4E5           LDRB     R1,[R4, #+2]
   \   00000024   0210C0E5           STRB     R1,[R0, #+2]
    241              TxBuf[3] = (U8)(Packet.Size >> 8);
   \   00000028   0310D4E5           LDRB     R1,[R4, #+3]
   \   0000002C   0114A0E1           LSL      R1,R1,#+8
   \   00000030   2114A0E1           LSR      R1,R1,#+8
   \   00000034   0310C0E5           STRB     R1,[R0, #+3]
    242          #endif
    243              if (Packet.Size) memcpy(&TxBuf[P_COMMAND_SIZE], Packet.Data, Packet.Size);
   \   00000038   0310D4E5           LDRB     R1,[R4, #+3]
   \   0000003C   0220D4E5           LDRB     R2,[R4, #+2]
   \   00000040   011492E1           ORRS     R1,R2,R1, LSL #+8
   \   00000044   0D00000A           BEQ      ??AddPacket_1
   \   00000048   0210A0E1           MOV      R1,R2
   \   0000004C   0320D4E5           LDRB     R2,[R4, #+3]
   \   00000050   0030A0E3           MOV      R3,#+0
   \   00000054   0DC0A0E1           MOV      R12,SP
   \                     ??AddPacket_2:
   \   00000058   07E084E2           ADD      LR,R4,#+7
   \   0000005C   0EE0D3E7           LDRB     LR,[R3, +LR]
   \   00000060   0CE0C3E7           STRB     LR,[R3, +R12]
   \   00000064   013083E2           ADD      R3,R3,#+1
   \   00000068   040053E3           CMP      R3,#+4
   \   0000006C   F9FFFFBA           BLT      ??AddPacket_2
   \   00000070   022481E1           ORR      R2,R1,R2, LSL #+8
   \   00000074   00109DE5           LDR      R1,[SP, #+0]
   \   00000078   040080E2           ADD      R0,R0,#+4
   \   0000007C   ........           _BLF     memcpy,??memcpy??rA
    244              return (Packet.Size + P_COMMAND_SIZE);
   \                     ??AddPacket_1:
   \   00000080   0300D4E5           LDRB     R0,[R4, #+3]
   \   00000084   0210D4E5           LDRB     R1,[R4, #+2]
   \   00000088   000481E1           ORR      R0,R1,R0, LSL #+8
   \   0000008C   1240BDE8           POP      {R1,R4,LR}
   \   00000090   ........           B        ?Subroutine46
    245          }

   \                                 In segment CODE, align 4, keep-with-next
   \                     ?Subroutine46:
   \   00000000   040080E2           ADD      R0,R0,#+4
   \   00000004   1EFF2FE1           BX       LR               ;; return

   \                                 In segment CODE, align 4, keep-with-next
    246          int ANPRO10_AddCommand(U8 *packetbuf, U8 *commandbuf) {
   \                     ??ANPRO10_AddCommand:
   \   00000000   10402DE9           PUSH     {R4,LR}
   \   00000004   0140A0E1           MOV      R4,R1
    247              ANPRO10_CommandHeading *pCH = (ANPRO10_CommandHeading *)commandbuf;
    248          
    249              memcpy(packetbuf, commandbuf, pCH->ndb + sizeof(ANPRO10_CommandHeading));
   \   00000008   0310D4E5           LDRB     R1,[R4, #+3]
   \   0000000C   0220D4E5           LDRB     R2,[R4, #+2]
   \   00000010   011482E1           ORR      R1,R2,R1, LSL #+8
   \   00000014   042081E2           ADD      R2,R1,#+4
   \   00000018   0410A0E1           MOV      R1,R4
   \   0000001C   ........           _BLF     memcpy,??memcpy??rA
    250              return (pCH->ndb + sizeof(ANPRO10_CommandHeading));
   \   00000020   0300D4E5           LDRB     R0,[R4, #+3]
   \   00000024   0210D4E5           LDRB     R1,[R4, #+2]
   \   00000028   1040BDE8           POP      {R4,LR}
   \   0000002C   000481E1           ORR      R0,R1,R0, LSL #+8
   \   00000030                      REQUIRE ?Subroutine46
   \   00000030                      ;; // Fall through to label ?Subroutine46
    251          }
    252          
    253          
    254          
    255          // Protect the decompress with a resource semaphore ( mutex )
    256          //static int DecompMaxSize;

   \                                 In segment CODE, align 4, keep-with-next
    257          void ANPRO10Decompress(ANPRO10_PacketHeading *pHD, int OrgSize, U8 *Buf, TSNUart *Port) {
   \                     ??ANPRO10Decompress:
   \   00000000   F1432DE9           PUSH     {R0,R4-R9,LR}
    258              lzo_uint NewSize = 2 * MAX_ANPRO10_SIZE - sizeof(ANPRO10_PacketHeading);
    259          
    260          #ifdef WIN32
    261              U8       TmpBuf[2 * MAX_ANPRO10_SIZE + 256];
    262              int      r       = lzo1x_decompress_safe(Buf, OrgSize, &TmpBuf[sizeof(ANPRO10_PacketHeading)], &NewSize, NULL);
    263          #else
    264              U8 *TmpBuf = (U8*)OS_MEMF_Alloc(&pUnPackMem,PURPOSE_DECOMPRESS);
   \   00000004   8C809FE5           LDR      R8,??ANPRO10Decompress_1  ;; pUnPackMem
   \   00000008   0050A0E1           MOV      R5,R0
   \   0000000C   0160A0E1           MOV      R6,R1
   \   00000010   0270A0E1           MOV      R7,R2
   \   00000014   0340A0E1           MOV      R4,R3
   \   00000018   F910A0E3           MOV      R1,#+249
   \   0000001C   7C1C81E3           ORR      R1,R1,#0x7C00
   \   00000020   00108DE5           STR      R1,[SP, #+0]
   \   00000024   0110A0E3           MOV      R1,#+1
   \   00000028   0800A0E1           MOV      R0,R8
   \   0000002C   ........           _BLF     OS_MEMF_Alloc,??OS_MEMF_Alloc??rA
   \   00000030   0090A0E1           MOV      R9,R0
    265              int r = lzo1x_decompress_safe(Buf, OrgSize, &TmpBuf[sizeof(ANPRO10_PacketHeading)], &NewSize, NULL);
    266          #endif
    267              if (r == LZO_E_OK) {
   \   00000034   0000A0E3           MOV      R0,#+0
   \   00000038   01002DE9           PUSH     {R0}
   \   0000003C   04308DE2           ADD      R3,SP,#+4
   \   00000040   072089E2           ADD      R2,R9,#+7
   \   00000044   0610A0E1           MOV      R1,R6
   \   00000048   0700A0E1           MOV      R0,R7
   \   0000004C   ........           _BLF     lzo1x_decompress_safe,??lzo1x_decompress_safe??rA
   \   00000050   000050E3           CMP      R0,#+0
   \   00000054   04D08DE2           ADD      SP,SP,#+4
   \   00000058   0A00001A           BNE      ??ANPRO10Decompress_2
    268                  memcpy(TmpBuf, (U8 *)pHD, sizeof(ANPRO10_PacketHeading));
   \   0000005C   0720A0E3           MOV      R2,#+7
   \   00000060   0510A0E1           MOV      R1,R5
   \   00000064   0900A0E1           MOV      R0,R9
   \   00000068   ........           _BLF     memcpy,??memcpy??rA
    269                  pHD = (ANPRO10_PacketHeading *)TmpBuf;
    270                  pHD->nob = NewSize;
   \   0000006C   00009DE5           LDR      R0,[SP, #+0]
    271          //        DecompMaxSize  = MAX(DecompMaxSize,NewSize);
    272          #ifdef ANWIN
    273          		   if ( !Anpro_Net::apnet->_exit_flag ) ANPRO10_UnpackPacket(TmpBuf, Port); // Point to the first CMD
    274          #else                   
    275          		   ANPRO10_UnpackPacket(TmpBuf, Port); // Point to the first CMD
   \   00000070   0410A0E1           MOV      R1,R4
   \   00000074   0400C9E5           STRB     R0,[R9, #+4]
   \   00000078   2004A0E1           LSR      R0,R0,#+8
   \   0000007C   0500C9E5           STRB     R0,[R9, #+5]
   \   00000080   0900A0E1           MOV      R0,R9
   \   00000084   ........           BL       ??ANPRO10_UnpackPacket
    276          #endif                  
    277              }
    278          #ifdef WIN32
    279              //delete [] TmpBuf;
    280          #else
    281              OS_MEMF_Release(&pUnPackMem,TmpBuf);
   \                     ??ANPRO10Decompress_2:
   \   00000088   0910A0E1           MOV      R1,R9
   \   0000008C   0800A0E1           MOV      R0,R8
   \   00000090   ........           _BLF     OS_MEMF_Release,??OS_MEMF_Release??rA
    282          #endif
    283          }
   \   00000094   ........           B        ?Subroutine47
   \                     ??ANPRO10Decompress_1:
   \   00000098   ........           DC32     pUnPackMem

   \                                 In segment CODE, align 4, keep-with-next
   \                     ?Subroutine47:
   \   00000000   F143BDE8           POP      {R0,R4-R9,LR}
   \   00000004   1EFF2FE1           BX       LR               ;; return
   \                     ??Subroutine47_0:
   \   00000008   ........           DC32     fake_uart_port_for_tcp_client
   \   0000000C   ........           DC32     fake_uart_port_for_tcp_clientPtr + 4

   \                                 In segment DATA_Z, align 4, align-sorted
    284          int      PacketCnt  = 0;
   \                     PacketCnt:
   \   00000000                      DS8 4
    285          #if defined(S2TXU) || defined(ANBOOTLOADER)
    286          OS_RSEMA UnpackSema;
    287          #endif

   \                                 In segment CODE, align 4, keep-with-next
    288          void ANPRO10_UnpackPacket(U8 *Buf, TSNUart *Port) {
   \                     ??ANPRO10_UnpackPacket:
   \   00000000   F04F2DE9           PUSH     {R4-R11,LR}
    289          #ifdef S2TXU
    290              OS_Use(&UnpackSema);
   \   00000004   D05A9FE5           LDR      R5,??ANPRO10_UnpackPacket_1  ;; RestartAck
   \   00000008   30D04DE2           SUB      SP,SP,#+48
   \   0000000C   0060A0E1           MOV      R6,R0
   \   00000010   0140A0E1           MOV      R4,R1
   \   00000014   480085E2           ADD      R0,R5,#+72
   \   00000018   ........           _BLF     OS_Use,??OS_Use??rA
    291          #endif
    292          #if defined(ANWIN)
    293              MainForm->nrSemaphore1->Checked = true;
    294          #endif
    295          #ifdef ANFLASH
    296              TXUFlashProg->nrSemaphore1->Checked = true;
    297          #endif
    298              SyncReceived();
   \   0000001C   ........           BL       ??SyncReceived
    299              int                   Cnt          = 0;
    300              bool                  MoreCommands = true;
    301          	ANPRO10_PacketHeading *pPH         = (ANPRO10_PacketHeading *)Buf;
    302          
    303              U8                    *EndPtr      =  &Buf[pPH->nob];
   \   00000020   0510D6E5           LDRB     R1,[R6, #+5]
   \   00000024   0420D6E5           LDRB     R2,[R6, #+4]
    304              Buf += sizeof(ANPRO10_PacketHeading);
    305          
    306              volatile ANPRO10_CommandHeading *pCH;
    307          #if !defined(ANBOOTLOADER) && !defined(ANFLASH)
    308              if (AlarmCriticalComFailure::CriticalComAlarm) {
   \   00000028   ........           LDR      R0,??DataTable5  ;; ??CriticalComAlarm
   \   0000002C   07A086E2           ADD      R10,R6,#+7
   \   00000030   011482E1           ORR      R1,R2,R1, LSL #+8
   \   00000034   061081E0           ADD      R1,R1,R6
   \   00000038   10108DE5           STR      R1,[SP, #+16]
   \   0000003C   000090E5           LDR      R0,[R0, #+0]
   \   00000040   000050E3           CMP      R0,#+0
   \   00000044   0000000A           BEQ      ??ANPRO10_UnpackPacket_2
    309                  AlarmCriticalComFailure::CriticalComAlarm->SyncReceived();
   \   00000048   ........           _BLF     ??SyncReceived_1,??SyncReceived??rA
   \                     ??ANPRO10_UnpackPacket_2:
   \   0000004C   C200D4E5           LDRB     R0,[R4, #+194]
   \   00000050   ........           LDR      R7,??DataTable13  ;; Master
   \   00000054   0080A0E3           MOV      R8,#+0
   \   00000058   000050E3           CMP      R0,#+0
   \   0000005C   9400000A           BEQ      ??ANPRO10_UnpackPacket_3
    310              }
    311          #endif
    312          
    313              //Port->SystemMatch = true;//Debug
    314          	if (!Port->SystemMatch) {
    315          		do {
    316                      pCH = (ANPRO10_CommandHeading *)Buf;
    317                      Buf += sizeof(ANPRO10_CommandHeading);  // ??
    318                      switch (pCH->CommandNo) {
    319                      case CMD_TXU_COMPRESSED_PACKET:
    320                          ANPRO10Decompress(pPH, pCH->ndb, Buf, Port);
    321                          break;
    322                      case CMD_TXU_REP_SYSTEMINFO:
    323                          ANPRO10_ReceiveSysInfo((U8 *)pCH, Port);
    324                          switch (CurrentDeviceId) {
    325                          case DEVICE_PCSW:
    326                              ANPRO10_SendSysInfo(Port, pPH->txadr, pPH->txtypeid);
    327                              ANPRO10_SendTime();
    328                              break;
    329                          case DEVICE_TCU:
    330                          case DEVICE_TCU_R1:
    331                          case DEVICE_TCU_R2:
    332                              if (Master) {
    333                                  ANPRO10SendCommand(Port, pPH->txadr, pPH->txtypeid, CMD_TXU_ACK_SYSTEMINFO);
    334                                  break;
    335                              }
    336                          case DEVICE_TDU:
    337                          case DEVICE_TDU_R1:
    338                          case DEVICE_TDU_R2:
    339                              ANPRO10_SendSysInfo(Port, pPH->txadr, pPH->txtypeid);
    340                              break;
    341                          }
    342                          break;
    343                      case CMD_TXU_REQ_SYSTEMINFO:
    344                          ANPRO10_SendSysInfo(Port, pPH->txadr, pPH->txtypeid);
    345                          switch (CurrentDeviceId) {
    346                          case DEVICE_TCU:
    347                          case DEVICE_TCU_R1:
    348                          case DEVICE_TCU_R2:
    349                              break;
    350                          case DEVICE_TDU:
    351                          case DEVICE_TDU_R1:
    352                          case DEVICE_TDU_R2:
    353                          case DEVICE_PCSW:
    354                              break;
    355                          }
    356                          break;
    357                      case CMD_TXU_ACK_SYSTEMINFO:
    358                          switch (CurrentDeviceId) {
    359                          case DEVICE_TCU:
    360                          case DEVICE_TCU_R1:
    361                          case DEVICE_TCU_R2:
    362                              break;
    363                          case DEVICE_TDU:
    364                          case DEVICE_TDU_R1:
    365                          case DEVICE_TDU_R2:
    366                          case DEVICE_PCSW:
    367                              break;
    368                          case DEVICE_PC_FLASH_PROG:
    369                              DownloadAck = *Buf;
    370                              break;
    371                          }
    372                          break;
    373                      case CMD_ACK_CONFIG       :
    374                      case CMD_ACK_ERASE_FLASH  :
    375                      case CMD_ACK_FLASH_PROG :
    376                      case CMD_ACK_SETTINGS     :
    377                          DownloadAck = *Buf;
    378          #ifndef WIN32
    379                          OS_EVENT_Pulse(&AckFlashEvent);
    380          #endif
    381                          break;
    382                      case CMD_ALARM_SILENCE:
    383                          if (Master) {
    384                              ANPRO10_SendAlarmSilence();
    385                          }
    386                          break;
    387                      case CMD_TXU_STOP_TX:
    388                          SuspendIO(4*60 * 1000);
    389                          break;
    390                      case CMD_TXU_START_TX :
    391                          ResumeIO();
    392                          break;
    393                      case CMD_START_PROGRAM_ON_TXU:
    394          #ifndef ANFLASH
    395                          Restart(Port, pPH->txadr, pPH->txtypeid);
    396          #endif
    397                          break;
    398                      case CMD_START_PROGRAM_OK:
    399                          RestartAck = CMD_START_PROGRAM_OK;
    400                          break;
    401                      case CMD_START_PROGRAM_NO_PROGRAM:
    402                          RestartAck = CMD_START_PROGRAM_NO_PROGRAM;
    403                          break;
    404                      case CMD_START_PROGRAM_NO_CONFIG:
    405                          RestartAck = CMD_START_PROGRAM_NO_CONFIG;
    406                          break;
    407          #if defined(S2TXU) || defined(ANBOOTLOADER)
    408                      case CMD_REQ_FLASH_PRG_AND_CFG:
    409                          {
    410                              UploadMessageStruct MyMessage;
    411                              MyMessage.Port              = Port;
    412                              MyMessage.Cmd               = CMD_SEND_FLASH_PROG_NO_RESTART;
    413                              MyMessage.Address           = pPH->txadr;
    414                              MyMessage.UnitId            = pPH->txtypeid;
    415                              MyMessage.isVersionControl  = false;
    416                              //
    417                              // original code has a deadly side effect of putting
    418                              // communication tasks to suspended state if the mailbox
    419                              // is full because of any form of a fuck-up
    420                              // it's better to just lose a message in case of
    421                              // mailbox full.
    422                              // -hkim-
    423                              //OS_PutMail(&UploadMessageBuf, &MyMessage);
    424                              if (!OS_PutMailCond(&UploadMessageBuf, &MyMessage)) {
    425                                  MyMessage.Cmd     = CMD_SEND_CONFIG;
    426                                  OS_PutMailCond(&UploadMessageBuf, &MyMessage);
    427                              }
    428                          }
    429                          break;
    430                      case CMD_REQ_FLASH_PROG_BTL:
    431                          {
    432                              UploadMessageStruct MyMessage;
    433                              MyMessage.Port              = Port;
    434                              MyMessage.Cmd               = CMD_SEND_FLASH_PROG_NO_RESTART;
    435                              MyMessage.Address           = pPH->txadr;
    436                              MyMessage.UnitId            = pPH->txtypeid;
    437                              MyMessage.isVersionControl  = false;
    438                              //
    439                              // original code has a deadly side effect of putting
    440                              // communication tasks to suspended state if the mailbox
    441                              // is full because of any form of a fuck-up
    442                              // it's better to just lose a message in case of
    443                              // mailbox full.
    444                              // -hkim-
    445                              //OS_PutMail(&UploadMessageBuf, &MyMessage);
    446                              OS_PutMailCond(&UploadMessageBuf, &MyMessage);
    447                          }
    448                          break;
    449                      case CMD_REQ_FLASH_PROG_PRG:
    450                          {
    451                              UploadMessageStruct MyMessage;
    452                              MyMessage.Port              = Port;
    453                              MyMessage.Cmd               = CMD_SEND_FLASH_PROG;
    454                              MyMessage.Address           = pPH->txadr;
    455                              MyMessage.UnitId            = pPH->txtypeid;
    456                              MyMessage.isVersionControl  = false;
    457                              //
    458                              // original code has a deadly side effect of putting
    459                              // communication tasks to suspended state if the mailbox
    460                              // is full because of any form of a fuck-up
    461                              // it's better to just lose a message in case of
    462                              // mailbox full.
    463                              // -hkim-
    464                              //OS_PutMail(&UploadMessageBuf, &MyMessage);
    465                              OS_PutMailCond(&UploadMessageBuf, &MyMessage);
    466                          }
    467                          break;
    468                      case CMD_REQ_CONFIG:
    469                          {
    470                              UploadMessageStruct MyMessage;
    471                              MyMessage.Port              = Port;
    472                              MyMessage.Cmd               = CMD_SEND_CONFIG;
    473                              MyMessage.Address           = pPH->txadr;
    474                              MyMessage.UnitId            = pPH->txtypeid;
    475                              MyMessage.isVersionControl  = false;
    476                              //
    477                              // original code has a deadly side effect of putting
    478                              // communication tasks to suspended state if the mailbox
    479                              // is full because of any form of a fuck-up
    480                              // it's better to just lose a message in case of
    481                              // mailbox full.
    482                              // -hkim-
    483                              //OS_PutMail(&UploadMessageBuf, &MyMessage);
    484                              OS_PutMailCond(&UploadMessageBuf, &MyMessage);
    485                          }
    486                          break;
    487                      case CMD_REQ_SETTINGS:
    488                          {
    489                              UploadMessageStruct MyMessage;
    490                              MyMessage.Port              = Port;
    491                              MyMessage.Cmd               = CMD_SEND_SETTINGS;
    492                              MyMessage.Address           =  pPH->txadr;
    493                              MyMessage.UnitId            = pPH->txtypeid;
    494                              MyMessage.isVersionControl  = false;
    495                              //
    496                              // original code has a deadly side effect of putting
    497                              // communication tasks to suspended state if the mailbox
    498                              // is full because of any form of a fuck-up
    499                              // it's better to just lose a message in case of
    500                              // mailbox full.
    501                              // -hkim-
    502                              //OS_PutMail(&UploadMessageBuf, &MyMessage);
    503                              OS_PutMailCond(&UploadMessageBuf, &MyMessage);
    504                          }
    505                          break;
    506          #endif
    507                      case CMD_SEND_SETTINGS:
    508                          FlashErrorStatus = WD_SETTINGS_OK;
    509                      case CMD_SEND_FLASH_PROG:
    510                      case CMD_SEND_CONFIG:
    511                      case CMD_ERASE_FLASH:
    512                          ANPRO10_FlashHandler(Port, pPH, (U8 *)pCH);
    513                          break;
    514                      case ECMD_NMDWOACK:
    515                      case ECMD_NMDRQACK:
    516                          MoreCommands = false;
    517                          break;
    518                      default:
    519                          break;
    520                      }
    521                      if (MoreCommands) {
    522                          Buf += pCH->ndb;
    523          			}
    524          #ifdef ANWIN
    525          		} while (MoreCommands && (Buf < EndPtr) && !Anpro_Net::apnet->_exit_flag);
    526          #else
    527          		} while (MoreCommands && (Buf < EndPtr) );
    528          #endif
    529          	} else { // Unrestricted communication, system match
    530                  do {
    531                      Cnt++;
    532                      pCH = (ANPRO10_CommandHeading *)Buf;
   \                     ??ANPRO10_UnpackPacket_4:
   \   00000060   0A90A0E1           MOV      R9,R10
    533                      Buf += sizeof(ANPRO10_CommandHeading);  // ??
    534                      switch (pCH->CommandNo) {
   \   00000064   0100D9E5           LDRB     R0,[R9, #+1]
   \   00000068   0010D9E5           LDRB     R1,[R9, #+0]
   \   0000006C   04A08AE2           ADD      R10,R10,#+4
   \   00000070   000491E1           ORRS     R0,R1,R0, LSL #+8
   \   00000074   01005013           CMPNE    R0,#+1
   \   00000078   9302000A           BEQ      ??ANPRO10_UnpackPacket_5
   \   0000007C   650050E3           CMP      R0,#+101
   \   00000080   66005013           CMPNE    R0,#+102
   \   00000084   67005013           CMPNE    R0,#+103
   \   00000088   2D02000A           BEQ      ??ANPRO10_UnpackPacket_6
   \   0000008C   7D0E50E3           CMP      R0,#+2000
   \   00000090   6A01000A           BEQ      ??ANPRO10_UnpackPacket_7
   \   00000094   D110A0E3           MOV      R1,#+209
   \   00000098   701E81E3           ORR      R1,R1,#0x700
   \   0000009C   010050E1           CMP      R0,R1
   \   000000A0   4E01000A           BEQ      ??ANPRO10_UnpackPacket_8
   \   000000A4   011081E2           ADD      R1,R1,#+1
   \   000000A8   010050E1           CMP      R0,R1
   \   000000AC   8601000A           BEQ      ??ANPRO10_UnpackPacket_9
   \   000000B0   011081E3           ORR      R1,R1,#0x1
   \   000000B4   010050E1           CMP      R0,R1
   \   000000B8   6800000A           BEQ      ??ANPRO10_UnpackPacket_10
   \   000000BC   011081E2           ADD      R1,R1,#+1
   \   000000C0   010050E1           CMP      R0,R1
   \   000000C4   6901000A           BEQ      ??ANPRO10_UnpackPacket_11
   \   000000C8   011081E3           ORR      R1,R1,#0x1
   \   000000CC   010050E1           CMP      R0,R1
   \   000000D0   8101000A           BEQ      ??ANPRO10_UnpackPacket_12
   \   000000D4   051081E2           ADD      R1,R1,#+5
   \   000000D8   010050E1           CMP      R0,R1
   \   000000DC   BE01000A           BEQ      ??ANPRO10_UnpackPacket_13
   \   000000E0   011081E3           ORR      R1,R1,#0x1
   \   000000E4   010050E1           CMP      R0,R1
   \   000000E8   F101000A           BEQ      ??ANPRO10_UnpackPacket_14
   \   000000EC   091081E2           ADD      R1,R1,#+9
   \   000000F0   010050E1           CMP      R0,R1
   \   000000F4   6B02000A           BEQ      ??ANPRO10_UnpackPacket_15
   \   000000F8   6210A0E3           MOV      R1,#+98
   \   000000FC   901E81E3           ORR      R1,R1,#0x900
   \   00000100   010050E1           CMP      R0,R1
   \   00000104   6501000A           BEQ      ??ANPRO10_UnpackPacket_16
   \   00000108   B810A0E3           MOV      R1,#+184
   \   0000010C   B01E81E3           ORR      R1,R1,#0xB00
   \   00000110   010050E1           CMP      R0,R1
   \   00000114   01108113           ORRNE    R1,R1,#0x1
   \   00000118   01005011           CMPNE    R0,R1
   \   0000011C   0802000A           BEQ      ??ANPRO10_UnpackPacket_6
   \   00000120   011081E2           ADD      R1,R1,#+1
   \   00000124   010050E1           CMP      R0,R1
   \   00000128   F701000A           BEQ      ??ANPRO10_UnpackPacket_17
   \   0000012C   621081E2           ADD      R1,R1,#+98
   \   00000130   010050E1           CMP      R0,R1
   \   00000134   5F01000A           BEQ      ??ANPRO10_UnpackPacket_18
   \   00000138   0A1081E2           ADD      R1,R1,#+10
   \   0000013C   010050E1           CMP      R0,R1
   \   00000140   4E02000A           BEQ      ??ANPRO10_UnpackPacket_19
   \   00000144   C80E50E3           CMP      R0,#+3200
   \   00000148   5B108112           ADDNE    R1,R1,#+91
   \   0000014C   01005011           CMPNE    R0,R1
   \   00000150   09108112           ADDNE    R1,R1,#+9
   \   00000154   01005011           CMPNE    R0,R1
   \   00000158   01108113           ORRNE    R1,R1,#0x1
   \   0000015C   01005011           CMPNE    R0,R1
   \   00000160   09108112           ADDNE    R1,R1,#+9
   \   00000164   01005011           CMPNE    R0,R1
   \   00000168   01108113           ORRNE    R1,R1,#0x1
   \   0000016C   01005011           CMPNE    R0,R1
   \   00000170   09108112           ADDNE    R1,R1,#+9
   \   00000174   01005011           CMPNE    R0,R1
   \   00000178   0A108112           ADDNE    R1,R1,#+10
   \   0000017C   01005011           CMPNE    R0,R1
   \   00000180   0A108112           ADDNE    R1,R1,#+10
   \   00000184   01005011           CMPNE    R0,R1
   \   00000188   01108113           ORRNE    R1,R1,#0x1
   \   0000018C   01005011           CMPNE    R0,R1
   \   00000190   DF01000A           BEQ      ??ANPRO10_UnpackPacket_20
   \   00000194   F50E50E3           CMP      R0,#+3920
   \   00000198   5101000A           BEQ      ??ANPRO10_UnpackPacket_21
   \   0000019C   5110A0E3           MOV      R1,#+81
   \   000001A0   F01E81E3           ORR      R1,R1,#0xF00
   \   000001A4   010050E1           CMP      R0,R1
   \   000001A8   5201000A           BEQ      ??ANPRO10_UnpackPacket_22
   \   000001AC   011081E2           ADD      R1,R1,#+1
   \   000001B0   010050E1           CMP      R0,R1
   \   000001B4   4F01000A           BEQ      ??ANPRO10_UnpackPacket_22
   \   000001B8   011081E3           ORR      R1,R1,#0x1
   \   000001BC   010050E1           CMP      R0,R1
   \   000001C0   4C01000A           BEQ      ??ANPRO10_UnpackPacket_22
   \   000001C4   011081E2           ADD      R1,R1,#+1
   \   000001C8   010050E1           CMP      R0,R1
   \   000001CC   7D01000A           BEQ      ??ANPRO10_UnpackPacket_23
   \   000001D0   011081E3           ORR      R1,R1,#0x1
   \   000001D4   010050E1           CMP      R0,R1
   \   000001D8   2B01000A           BEQ      ??ANPRO10_UnpackPacket_24
   \   000001DC   051081E2           ADD      R1,R1,#+5
   \   000001E0   010050E1           CMP      R0,R1
   \   000001E4   7701000A           BEQ      ??ANPRO10_UnpackPacket_23
   \   000001E8   011081E3           ORR      R1,R1,#0x1
   \   000001EC   010050E1           CMP      R0,R1
   \   000001F0   2501000A           BEQ      ??ANPRO10_UnpackPacket_24
   \   000001F4   011081E2           ADD      R1,R1,#+1
   \   000001F8   010050E1           CMP      R0,R1
   \   000001FC   5501000A           BEQ      ??ANPRO10_UnpackPacket_25
   \   00000200   021081E3           ORR      R1,R1,#0x2
   \   00000204   010050E1           CMP      R0,R1
   \   00000208   3D01000A           BEQ      ??ANPRO10_UnpackPacket_26
   \   0000020C   011081E3           ORR      R1,R1,#0x1
   \   00000210   010050E1           CMP      R0,R1
   \   00000214   5901000A           BEQ      ??ANPRO10_UnpackPacket_27
   \   00000218   051081E2           ADD      R1,R1,#+5
   \   0000021C   010050E1           CMP      R0,R1
   \   00000220   6801000A           BEQ      ??ANPRO10_UnpackPacket_23
   \   00000224   011081E3           ORR      R1,R1,#0x1
   \   00000228   010050E1           CMP      R0,R1
   \   0000022C   1601000A           BEQ      ??ANPRO10_UnpackPacket_24
   \   00000230   011081E2           ADD      R1,R1,#+1
   \   00000234   010050E1           CMP      R0,R1
   \   00000238   5C01000A           BEQ      ??ANPRO10_UnpackPacket_28
   \   0000023C   081081E3           ORR      R1,R1,#0x8
   \   00000240   010050E1           CMP      R0,R1
   \   00000244   5F01000A           BEQ      ??ANPRO10_UnpackPacket_23
   \   00000248   011081E3           ORR      R1,R1,#0x1
   \   0000024C   010050E1           CMP      R0,R1
   \   00000250   0D01000A           BEQ      ??ANPRO10_UnpackPacket_24
   \   00000254   F70E50E3           CMP      R0,#+3952
   \   00000258   5701000A           BEQ      ??ANPRO10_UnpackPacket_29
   \   0000025C   130200EA           B        ??ANPRO10_UnpackPacket_30
    535                      case CMD_TXU_COMPRESSED_PACKET:
    536          #ifdef ANWIN              
    537          		if ( !Anpro_Net::apnet->_exit_flag ) ANPRO10Decompress(pPH, pCH->ndb, Buf, Port);
    538          #else                
    539          		ANPRO10Decompress(pPH, pCH->ndb, Buf, Port);
   \                     ??ANPRO10_UnpackPacket_10:
   \   00000260   0300D9E5           LDRB     R0,[R9, #+3]
   \   00000264   0210D9E5           LDRB     R1,[R9, #+2]
   \   00000268   0430A0E1           MOV      R3,R4
   \   0000026C   0A20A0E1           MOV      R2,R10
   \   00000270   001481E1           ORR      R1,R1,R0, LSL #+8
   \   00000274   0600A0E1           MOV      R0,R6
   \   00000278   ........           BL       ??ANPRO10Decompress
   \   0000027C   0B0200EA           B        ??ANPRO10_UnpackPacket_30
   \                     ??ANPRO10_UnpackPacket_31:
   \   00000280   58089FE5           LDR      R0,??ANPRO10_UnpackPacket_1+0x4  ;; 0x31fff018
   \   00000284   008080E5           STR      R8,[R0, #+0]
   \                     ??ANPRO10_UnpackPacket_32:
   \   00000288   0920A0E1           MOV      R2,R9
   \   0000028C   0610A0E1           MOV      R1,R6
   \   00000290   0400A0E1           MOV      R0,R4
   \   00000294   ........           BL       ??ANPRO10_FlashHandler
   \                     ??ANPRO10_UnpackPacket_33:
   \   00000298   0300D9E5           LDRB     R0,[R9, #+3]
   \   0000029C   0210D9E5           LDRB     R1,[R9, #+2]
   \   000002A0   000481E1           ORR      R0,R1,R0, LSL #+8
   \   000002A4   0AA080E0           ADD      R10,R0,R10
   \   000002A8   10009DE5           LDR      R0,[SP, #+16]
   \   000002AC   00005AE1           CMP      R10,R0
   \   000002B0   0502002A           BCS      ??ANPRO10_UnpackPacket_5
   \                     ??ANPRO10_UnpackPacket_3:
   \   000002B4   0A90A0E1           MOV      R9,R10
   \   000002B8   0100D9E5           LDRB     R0,[R9, #+1]
   \   000002BC   0010D9E5           LDRB     R1,[R9, #+0]
   \   000002C0   04A08AE2           ADD      R10,R10,#+4
   \   000002C4   000491E1           ORRS     R0,R1,R0, LSL #+8
   \   000002C8   01005013           CMPNE    R0,#+1
   \   000002CC   FE01000A           BEQ      ??ANPRO10_UnpackPacket_5
   \   000002D0   7D0E50E3           CMP      R0,#+2000
   \   000002D4   6C00000A           BEQ      ??ANPRO10_UnpackPacket_34
   \   000002D8   D110A0E3           MOV      R1,#+209
   \   000002DC   701E81E3           ORR      R1,R1,#0x700
   \   000002E0   010050E1           CMP      R0,R1
   \   000002E4   4A00000A           BEQ      ??ANPRO10_UnpackPacket_35
   \   000002E8   011081E2           ADD      R1,R1,#+1
   \   000002EC   010050E1           CMP      R0,R1
   \   000002F0   7B00000A           BEQ      ??ANPRO10_UnpackPacket_36
   \   000002F4   011081E3           ORR      R1,R1,#0x1
   \   000002F8   010050E1           CMP      R0,R1
   \   000002FC   3C00000A           BEQ      ??ANPRO10_UnpackPacket_37
   \   00000300   011081E2           ADD      R1,R1,#+1
   \   00000304   010050E1           CMP      R0,R1
   \   00000308   6400000A           BEQ      ??ANPRO10_UnpackPacket_38
   \   0000030C   011081E3           ORR      R1,R1,#0x1
   \   00000310   010050E1           CMP      R0,R1
   \   00000314   7600000A           BEQ      ??ANPRO10_UnpackPacket_39
   \   00000318   1C10A0E3           MOV      R1,#+28
   \   0000031C   C01E81E3           ORR      R1,R1,#0xC00
   \   00000320   010050E1           CMP      R0,R1
   \   00000324   6900000A           BEQ      ??ANPRO10_UnpackPacket_40
   \   00000328   F50E50E3           CMP      R0,#+3920
   \   0000032C   7200000A           BEQ      ??ANPRO10_UnpackPacket_41
   \   00000330   5110A0E3           MOV      R1,#+81
   \   00000334   F01E81E3           ORR      R1,R1,#0xF00
   \   00000338   010050E1           CMP      R0,R1
   \   0000033C   7300000A           BEQ      ??ANPRO10_UnpackPacket_42
   \   00000340   011081E2           ADD      R1,R1,#+1
   \   00000344   010050E1           CMP      R0,R1
   \   00000348   7000000A           BEQ      ??ANPRO10_UnpackPacket_42
   \   0000034C   011081E3           ORR      R1,R1,#0x1
   \   00000350   010050E1           CMP      R0,R1
   \   00000354   6D00000A           BEQ      ??ANPRO10_UnpackPacket_42
   \   00000358   011081E2           ADD      R1,R1,#+1
   \   0000035C   010050E1           CMP      R0,R1
   \   00000360   C8FFFF0A           BEQ      ??ANPRO10_UnpackPacket_32
   \   00000364   011081E3           ORR      R1,R1,#0x1
   \   00000368   010050E1           CMP      R0,R1
   \   0000036C   5200000A           BEQ      ??ANPRO10_UnpackPacket_43
   \   00000370   051081E2           ADD      R1,R1,#+5
   \   00000374   010050E1           CMP      R0,R1
   \   00000378   C2FFFF0A           BEQ      ??ANPRO10_UnpackPacket_32
   \   0000037C   011081E3           ORR      R1,R1,#0x1
   \   00000380   010050E1           CMP      R0,R1
   \   00000384   4C00000A           BEQ      ??ANPRO10_UnpackPacket_43
   \   00000388   011081E2           ADD      R1,R1,#+1
   \   0000038C   010050E1           CMP      R0,R1
   \   00000390   7600000A           BEQ      ??ANPRO10_UnpackPacket_44
   \   00000394   021081E3           ORR      R1,R1,#0x2
   \   00000398   010050E1           CMP      R0,R1
   \   0000039C   5E00000A           BEQ      ??ANPRO10_UnpackPacket_45
   \   000003A0   011081E3           ORR      R1,R1,#0x1
   \   000003A4   010050E1           CMP      R0,R1
   \   000003A8   7A00000A           BEQ      ??ANPRO10_UnpackPacket_46
   \   000003AC   051081E2           ADD      R1,R1,#+5
   \   000003B0   010050E1           CMP      R0,R1
   \   000003B4   B3FFFF0A           BEQ      ??ANPRO10_UnpackPacket_32
   \   000003B8   011081E3           ORR      R1,R1,#0x1
   \   000003BC   010050E1           CMP      R0,R1
   \   000003C0   3D00000A           BEQ      ??ANPRO10_UnpackPacket_43
   \   000003C4   011081E2           ADD      R1,R1,#+1
   \   000003C8   010050E1           CMP      R0,R1
   \   000003CC   7D00000A           BEQ      ??ANPRO10_UnpackPacket_47
   \   000003D0   081081E3           ORR      R1,R1,#0x8
   \   000003D4   010050E1           CMP      R0,R1
   \   000003D8   A8FFFF0A           BEQ      ??ANPRO10_UnpackPacket_31
   \   000003DC   011081E3           ORR      R1,R1,#0x1
   \   000003E0   010050E1           CMP      R0,R1
   \   000003E4   3400000A           BEQ      ??ANPRO10_UnpackPacket_43
   \   000003E8   F70E50E3           CMP      R0,#+3952
   \   000003EC   7800000A           BEQ      ??ANPRO10_UnpackPacket_48
   \   000003F0   A8FFFFEA           B        ??ANPRO10_UnpackPacket_33
   \                     ??ANPRO10_UnpackPacket_37:
   \   000003F4   0300D9E5           LDRB     R0,[R9, #+3]
   \   000003F8   0210D9E5           LDRB     R1,[R9, #+2]
   \   000003FC   0430A0E1           MOV      R3,R4
   \   00000400   0A20A0E1           MOV      R2,R10
   \   00000404   001481E1           ORR      R1,R1,R0, LSL #+8
   \   00000408   0600A0E1           MOV      R0,R6
   \   0000040C   ........           BL       ??ANPRO10Decompress
   \   00000410   A0FFFFEA           B        ??ANPRO10_UnpackPacket_33
   \                     ??ANPRO10_UnpackPacket_35:
   \   00000414   0410A0E1           MOV      R1,R4
   \   00000418   0900A0E1           MOV      R0,R9
   \   0000041C   ........           BL       ??ANPRO10_ReceiveSysInfo
   \   00000420   ........           LDR      R0,??DataTable10  ;; CurrentDeviceId
   \   00000424   F000D0E1           LDRSH    R0,[R0, #+0]
   \   00000428   200040E2           SUB      R0,R0,#+32
   \   0000042C   020050E3           CMP      R0,#+2
   \   00000430   0B00009A           BLS      ??ANPRO10_UnpackPacket_49
   \   00000434   100040E2           SUB      R0,R0,#+16
   \   00000438   020050E3           CMP      R0,#+2
   \   0000043C   1200009A           BLS      ??ANPRO10_UnpackPacket_34
   \   00000440   100050E2           SUBS     R0,R0,#+16
   \   00000444   93FFFF1A           BNE      ??ANPRO10_UnpackPacket_33
   \   00000448   0220D6E5           LDRB     R2,[R6, #+2]
   \   0000044C   0310D6E5           LDRB     R1,[R6, #+3]
   \   00000450   0400A0E1           MOV      R0,R4
   \   00000454   ........           BL       ??ANPRO10_SendSysInfo
   \   00000458   0100A0E3           MOV      R0,#+1
   \   0000045C   ........           BL       ??ANPRO10_SendTime
   \   00000460   8CFFFFEA           B        ??ANPRO10_UnpackPacket_33
   \                     ??ANPRO10_UnpackPacket_49:
   \   00000464   0000D7E5           LDRB     R0,[R7, #+0]
   \   00000468   000050E3           CMP      R0,#+0
   \   0000046C   0600000A           BEQ      ??ANPRO10_UnpackPacket_34
   \   00000470   0220D6E5           LDRB     R2,[R6, #+2]
   \   00000474   0310D6E5           LDRB     R1,[R6, #+3]
   \   00000478   D430A0E3           MOV      R3,#+212
   \   0000047C   703E83E3           ORR      R3,R3,#0x700
   \   00000480   0400A0E1           MOV      R0,R4
   \   00000484   ........           BL       ??ANPRO10SendCommand
   \   00000488   82FFFFEA           B        ??ANPRO10_UnpackPacket_33
   \                     ??ANPRO10_UnpackPacket_34:
   \   0000048C   0220D6E5           LDRB     R2,[R6, #+2]
   \   00000490   0310D6E5           LDRB     R1,[R6, #+3]
   \   00000494   0400A0E1           MOV      R0,R4
   \   00000498   ........           BL       ??ANPRO10_SendSysInfo
   \   0000049C   7DFFFFEA           B        ??ANPRO10_UnpackPacket_33
   \                     ??ANPRO10_UnpackPacket_38:
   \   000004A0   ........           LDR      R0,??DataTable10  ;; CurrentDeviceId
   \   000004A4   F000D0E1           LDRSH    R0,[R0, #+0]
   \   000004A8   550050E3           CMP      R0,#+85
   \   000004AC   79FFFF1A           BNE      ??ANPRO10_UnpackPacket_33
   \   000004B0   0000DAE5           LDRB     R0,[R10, #+0]
   \   000004B4   2400C5E5           STRB     R0,[R5, #+36]
   \   000004B8   76FFFFEA           B        ??ANPRO10_UnpackPacket_33
   \                     ??ANPRO10_UnpackPacket_43:
   \   000004BC   0000DAE5           LDRB     R0,[R10, #+0]
   \   000004C0   2400C5E5           STRB     R0,[R5, #+36]
   \   000004C4   400085E2           ADD      R0,R5,#+64
   \   000004C8   ........           _BLF     OS_EVENT_Pulse,??OS_EVENT_Pulse??rA
   \   000004CC   71FFFFEA           B        ??ANPRO10_UnpackPacket_33
   \                     ??ANPRO10_UnpackPacket_40:
   \   000004D0   0000D7E5           LDRB     R0,[R7, #+0]
   \   000004D4   000050E3           CMP      R0,#+0
   \   000004D8   6EFFFF0A           BEQ      ??ANPRO10_UnpackPacket_33
   \   000004DC   ........           BL       ??ANPRO10_SendAlarmSilence
   \   000004E0   6CFFFFEA           B        ??ANPRO10_UnpackPacket_33
   \                     ??ANPRO10_UnpackPacket_36:
   \   000004E4   E00BA0E3           MOV      R0,#+229376
   \   000004E8   A60D80E3           ORR      R0,R0,#0x2980
   \   000004EC   ........           BL       ??SuspendIO
   \   000004F0   68FFFFEA           B        ??ANPRO10_UnpackPacket_33
   \                     ??ANPRO10_UnpackPacket_39:
   \   000004F4   ........           BL       ??ResumeIO
   \   000004F8   66FFFFEA           B        ??ANPRO10_UnpackPacket_33
   \                     ??ANPRO10_UnpackPacket_41:
   \   000004FC   0220D6E5           LDRB     R2,[R6, #+2]
   \   00000500   0310D6E5           LDRB     R1,[R6, #+3]
   \   00000504   0400A0E1           MOV      R0,R4
   \   00000508   ........           BL       ??Restart
   \   0000050C   61FFFFEA           B        ??ANPRO10_UnpackPacket_33
   \                     ??ANPRO10_UnpackPacket_42:
   \   00000510   0100A0E1           MOV      R0,R1
   \   00000514   B000C5E1           STRH     R0,[R5, #+0]
   \   00000518   5EFFFFEA           B        ??ANPRO10_UnpackPacket_33
   \                     ??ANPRO10_UnpackPacket_45:
   \   0000051C   00408DE5           STR      R4,[SP, #+0]
   \   00000520   011041E2           SUB      R1,R1,#+1
   \   00000524   BC10CDE1           STRH     R1,[SP, #+12]
   \   00000528   0310D6E5           LDRB     R1,[R6, #+3]
   \   0000052C   280085E2           ADD      R0,R5,#+40
   \   00000530   04108DE5           STR      R1,[SP, #+4]
   \   00000534   0210D6E5           LDRB     R1,[R6, #+2]
   \   00000538   08108DE5           STR      R1,[SP, #+8]
   \   0000053C   0010A0E3           MOV      R1,#+0
   \   00000540   0E10CDE5           STRB     R1,[SP, #+14]
   \   00000544   0D10A0E1           MOV      R1,SP
   \   00000548   ........           _BLF     OS_PutMailCond,??OS_PutMailCond??rA
   \   0000054C   000050E3           CMP      R0,#+0
   \   00000550   50FFFF1A           BNE      ??ANPRO10_UnpackPacket_33
   \   00000554   6410A0E3           MOV      R1,#+100
   \   00000558   F01E81E3           ORR      R1,R1,#0xF00
   \   0000055C   BC10CDE1           STRH     R1,[SP, #+12]
   \                     ??ANPRO10_UnpackPacket_50:
   \   00000560   0D10A0E1           MOV      R1,SP
   \   00000564   280085E2           ADD      R0,R5,#+40
   \                     ??ANPRO10_UnpackPacket_51:
   \   00000568   ........           _BLF     OS_PutMailCond,??OS_PutMailCond??rA
   \   0000056C   49FFFFEA           B        ??ANPRO10_UnpackPacket_33
   \                     ??ANPRO10_UnpackPacket_44:
   \   00000570   00408DE5           STR      R4,[SP, #+0]
   \   00000574   011081E3           ORR      R1,R1,#0x1
   \                     ??ANPRO10_UnpackPacket_52:
   \   00000578   BC10CDE1           STRH     R1,[SP, #+12]
   \   0000057C   0310D6E5           LDRB     R1,[R6, #+3]
   \   00000580   04108DE5           STR      R1,[SP, #+4]
   \   00000584   0210D6E5           LDRB     R1,[R6, #+2]
   \   00000588   08108DE5           STR      R1,[SP, #+8]
   \   0000058C   0010A0E3           MOV      R1,#+0
   \   00000590   0E10CDE5           STRB     R1,[SP, #+14]
   \   00000594   F1FFFFEA           B        ??ANPRO10_UnpackPacket_50
   \                     ??ANPRO10_UnpackPacket_46:
   \   00000598   00408DE5           STR      R4,[SP, #+0]
   \   0000059C   0510C1E3           BIC      R1,R1,#0x5
   \                     ??ANPRO10_UnpackPacket_53:
   \   000005A0   BC10CDE1           STRH     R1,[SP, #+12]
   \   000005A4   0310D6E5           LDRB     R1,[R6, #+3]
   \   000005A8   280085E2           ADD      R0,R5,#+40
   \   000005AC   04108DE5           STR      R1,[SP, #+4]
   \   000005B0   0210D6E5           LDRB     R1,[R6, #+2]
   \   000005B4   08108DE5           STR      R1,[SP, #+8]
   \   000005B8   0010A0E3           MOV      R1,#+0
   \   000005BC   0E10CDE5           STRB     R1,[SP, #+14]
   \   000005C0   0D10A0E1           MOV      R1,SP
   \   000005C4   E7FFFFEA           B        ??ANPRO10_UnpackPacket_51
   \                     ??ANPRO10_UnpackPacket_47:
   \   000005C8   00408DE5           STR      R4,[SP, #+0]
   \   000005CC   0210C1E3           BIC      R1,R1,#0x2
   \   000005D0   E8FFFFEA           B        ??ANPRO10_UnpackPacket_52
   \                     ??ANPRO10_UnpackPacket_48:
   \   000005D4   00408DE5           STR      R4,[SP, #+0]
   \   000005D8   0110C1E3           BIC      R1,R1,#0x1
   \   000005DC   EFFFFFEA           B        ??ANPRO10_UnpackPacket_53
    540          #endif                
    541                          break;
    542                      case CMD_TXU_REP_SYSTEMINFO:
    543                          ANPRO10_ReceiveSysInfo((U8 *)pCH, Port);
   \                     ??ANPRO10_UnpackPacket_8:
   \   000005E0   0410A0E1           MOV      R1,R4
   \   000005E4   0900A0E1           MOV      R0,R9
   \   000005E8   ........           BL       ??ANPRO10_ReceiveSysInfo
    544                          switch (CurrentDeviceId) {
   \   000005EC   ........           LDR      R0,??DataTable10  ;; CurrentDeviceId
   \   000005F0   F000D0E1           LDRSH    R0,[R0, #+0]
   \   000005F4   200040E2           SUB      R0,R0,#+32
   \   000005F8   020050E3           CMP      R0,#+2
   \   000005FC   0500009A           BLS      ??ANPRO10_UnpackPacket_54
   \   00000600   100040E2           SUB      R0,R0,#+16
   \   00000604   020050E3           CMP      R0,#+2
   \   00000608   0C00009A           BLS      ??ANPRO10_UnpackPacket_7
   \   0000060C   100050E2           SUBS     R0,R0,#+16
   \   00000610   0F00000A           BEQ      ??ANPRO10_UnpackPacket_55
   \   00000614   250100EA           B        ??ANPRO10_UnpackPacket_30
    545                          case DEVICE_TCU:
    546                          case DEVICE_TCU_R1:
    547                          case DEVICE_TCU_R2:
    548                              if (Master) {
   \                     ??ANPRO10_UnpackPacket_54:
   \   00000618   0000D7E5           LDRB     R0,[R7, #+0]
   \   0000061C   000050E3           CMP      R0,#+0
   \   00000620   0600000A           BEQ      ??ANPRO10_UnpackPacket_7
    549                                  ANPRO10SendCommand(Port, pPH->txadr, pPH->txtypeid, CMD_TXU_ACK_SYSTEMINFO);
   \   00000624   0220D6E5           LDRB     R2,[R6, #+2]
   \   00000628   0310D6E5           LDRB     R1,[R6, #+3]
   \   0000062C   D430A0E3           MOV      R3,#+212
   \   00000630   703E83E3           ORR      R3,R3,#0x700
   \   00000634   0400A0E1           MOV      R0,R4
   \   00000638   ........           BL       ??ANPRO10SendCommand
    550                                  break;
   \   0000063C   1B0100EA           B        ??ANPRO10_UnpackPacket_30
    551                              }
    552                          case DEVICE_TDU:
    553                          case DEVICE_TDU_R1:
    554                          case DEVICE_TDU_R2:
    555                              ANPRO10_SendSysInfo(Port, pPH->txadr, pPH->txtypeid);
   \                     ??ANPRO10_UnpackPacket_7:
   \   00000640   0220D6E5           LDRB     R2,[R6, #+2]
   \   00000644   0310D6E5           LDRB     R1,[R6, #+3]
   \   00000648   0400A0E1           MOV      R0,R4
   \   0000064C   ........           BL       ??ANPRO10_SendSysInfo
   \   00000650   160100EA           B        ??ANPRO10_UnpackPacket_30
    556                              break;
    557                          case DEVICE_PCSW:
    558                              ANPRO10_SendSysInfo(Port, pPH->txadr, pPH->txtypeid);
   \                     ??ANPRO10_UnpackPacket_55:
   \   00000654   0220D6E5           LDRB     R2,[R6, #+2]
   \   00000658   0310D6E5           LDRB     R1,[R6, #+3]
   \   0000065C   0400A0E1           MOV      R0,R4
   \   00000660   ........           BL       ??ANPRO10_SendSysInfo
    559                              ANPRO10_SendTime();
   \   00000664   0100A0E3           MOV      R0,#+1
   \   00000668   ........           BL       ??ANPRO10_SendTime
   \   0000066C   0F0100EA           B        ??ANPRO10_UnpackPacket_30
    560                              break;
    561                          }
    562                          break;
    563                      case CMD_TXU_REQ_SYSTEMINFO:
    564                          ANPRO10_SendSysInfo(Port, pPH->txadr, pPH->txtypeid);
    565                          switch (CurrentDeviceId) {
    566                          case DEVICE_TCU:
    567                          case DEVICE_TCU_R1:
    568                          case DEVICE_TCU_R2:
    569                              break;
    570                          case DEVICE_TDU:
    571                          case DEVICE_TDU_R1:
    572                          case DEVICE_TDU_R2:
    573                          case DEVICE_PCSW:
    574                              break;
    575                          }
    576                          break;
    577                      case CMD_TXU_ACK_SYSTEMINFO:
    578                          switch (CurrentDeviceId) {
   \                     ??ANPRO10_UnpackPacket_11:
   \   00000670   ........           LDR      R0,??DataTable10  ;; CurrentDeviceId
   \   00000674   F000D0E1           LDRSH    R0,[R0, #+0]
   \   00000678   550050E3           CMP      R0,#+85
   \   0000067C   0B01001A           BNE      ??ANPRO10_UnpackPacket_30
    579                          case DEVICE_TCU:
    580                          case DEVICE_TCU_R1:
    581                          case DEVICE_TCU_R2:
    582                              break;
    583                          case DEVICE_TDU:
    584                          case DEVICE_TDU_R1:
    585                          case DEVICE_TDU_R2:
    586                          case DEVICE_PCSW:
    587                              break;
    588                          case DEVICE_PC_FLASH_PROG:
    589                              DownloadAck = *Buf;
   \   00000680   0000DAE5           LDRB     R0,[R10, #+0]
   \   00000684   2400C5E5           STRB     R0,[R5, #+36]
   \   00000688   080100EA           B        ??ANPRO10_UnpackPacket_30
    590                              break;
    591                          }
    592                          break;
    593                      case CMD_ACK_CONFIG       :
    594                      case CMD_ACK_ERASE_FLASH  :
    595                      case CMD_ACK_FLASH_PROG :
    596                      case CMD_ACK_SETTINGS     :
    597                          DownloadAck = *Buf;
   \                     ??ANPRO10_UnpackPacket_24:
   \   0000068C   0000DAE5           LDRB     R0,[R10, #+0]
   \   00000690   2400C5E5           STRB     R0,[R5, #+36]
    598          #ifndef WIN32
    599                          OS_EVENT_Pulse(&AckFlashEvent);
   \   00000694   400085E2           ADD      R0,R5,#+64
   \   00000698   ........           _BLF     OS_EVENT_Pulse,??OS_EVENT_Pulse??rA
   \   0000069C   030100EA           B        ??ANPRO10_UnpackPacket_30
    600          #endif
    601                          break;
    602                      case CMD_PRO_PRINT_OUT       :
    603                          ANPRO10_ReceiveReport(Port, pPH->txadr, pPH->txtypeid, (U8 *)pCH);
   \                     ??ANPRO10_UnpackPacket_16:
   \   000006A0   0220D6E5           LDRB     R2,[R6, #+2]
   \   000006A4   0310D6E5           LDRB     R1,[R6, #+3]
   \   000006A8   0930A0E1           MOV      R3,R9
   \   000006AC   0400A0E1           MOV      R0,R4
   \   000006B0   ........           BL       ??ANPRO10_ReceiveReport
   \   000006B4   FD0000EA           B        ??ANPRO10_UnpackPacket_30
    604                          break;
    605                      case CMD_PRO_PRINT_ACK       :
    606          #ifndef WIN32
    607                          //OS_SignalCSema(&PrnCSema);
    608                          //if ( TaskPtr ) {
    609                          //  OS_SignalEvent(PRINT_SEND_OK_EVENT,&LogTaskHandle);
    610                          //}
    611          #endif
    612                          break;
    613                      case CMD_ALARM_SILENCE:
    614                          if (Master) {
   \                     ??ANPRO10_UnpackPacket_18:
   \   000006B8   0000D7E5           LDRB     R0,[R7, #+0]
   \   000006BC   000050E3           CMP      R0,#+0
   \   000006C0   FA00000A           BEQ      ??ANPRO10_UnpackPacket_30
    615                              ANPRO10_SendAlarmSilence();
   \   000006C4   ........           BL       ??ANPRO10_SendAlarmSilence
   \   000006C8   F80000EA           B        ??ANPRO10_UnpackPacket_30
    616                          }
    617                          break;
    618                      case CMD_TXU_STOP_TX:
    619                          SuspendIO(4*60 * 1000);
   \                     ??ANPRO10_UnpackPacket_9:
   \   000006CC   E00BA0E3           MOV      R0,#+229376
   \   000006D0   A60D80E3           ORR      R0,R0,#0x2980
   \   000006D4   ........           BL       ??SuspendIO
   \   000006D8   F40000EA           B        ??ANPRO10_UnpackPacket_30
    620                          break;
    621                      case CMD_TXU_START_TX :
    622                          ResumeIO();
   \                     ??ANPRO10_UnpackPacket_12:
   \   000006DC   ........           BL       ??ResumeIO
   \   000006E0   F20000EA           B        ??ANPRO10_UnpackPacket_30
    623                          break;
    624                      case CMD_START_PROGRAM_ON_TXU:
    625          #ifndef ANFLASH
    626                          Restart(Port, pPH->txadr, pPH->txtypeid);
   \                     ??ANPRO10_UnpackPacket_21:
   \   000006E4   0220D6E5           LDRB     R2,[R6, #+2]
   \   000006E8   0310D6E5           LDRB     R1,[R6, #+3]
   \   000006EC   0400A0E1           MOV      R0,R4
   \   000006F0   ........           BL       ??Restart
   \   000006F4   ED0000EA           B        ??ANPRO10_UnpackPacket_30
    627          #endif
    628                          break;
    629                      case CMD_START_PROGRAM_OK:
    630                          RestartAck = CMD_START_PROGRAM_OK;
   \                     ??ANPRO10_UnpackPacket_22:
   \   000006F8   0100A0E1           MOV      R0,R1
   \   000006FC   B000C5E1           STRH     R0,[R5, #+0]
   \   00000700   EA0000EA           B        ??ANPRO10_UnpackPacket_30
    631                          break;
    632                      case CMD_START_PROGRAM_NO_PROGRAM:
    633                          RestartAck = CMD_START_PROGRAM_NO_PROGRAM;
    634                          break;
    635                      case CMD_START_PROGRAM_NO_CONFIG:
    636                          RestartAck = CMD_START_PROGRAM_NO_CONFIG;
    637                          break;
    638          #if defined(S2TXU) || defined(ANBOOTLOADER)
    639                      case CMD_REQ_FLASH_PRG_AND_CFG:
    640                          {
    641                              UploadMessageStruct MyMessage;
    642                              MyMessage.Port              = Port;
   \                     ??ANPRO10_UnpackPacket_26:
   \   00000704   00408DE5           STR      R4,[SP, #+0]
    643                              MyMessage.Cmd               = CMD_SEND_FLASH_PROG_NO_RESTART;
   \   00000708   011041E2           SUB      R1,R1,#+1
   \   0000070C   BC10CDE1           STRH     R1,[SP, #+12]
    644                              MyMessage.Address           = pPH->txadr;
   \   00000710   0310D6E5           LDRB     R1,[R6, #+3]
    645                              MyMessage.UnitId            = pPH->txtypeid;
    646                              MyMessage.isVersionControl  = false;
    647                              //
    648                              // original code has a deadly side effect of putting
    649                              // communication tasks to suspended state if the mailbox
    650                              // is full because of any form of a fuck-up
    651                              // it's better to just lose a message in case of
    652                              // mailbox full.
    653                              // -hkim-
    654                              //OS_PutMail(&UploadMessageBuf, &MyMessage);
    655                              if (!OS_PutMailCond(&UploadMessageBuf, &MyMessage)) {
   \   00000714   280085E2           ADD      R0,R5,#+40
   \   00000718   04108DE5           STR      R1,[SP, #+4]
   \   0000071C   0210D6E5           LDRB     R1,[R6, #+2]
   \   00000720   08108DE5           STR      R1,[SP, #+8]
   \   00000724   0010A0E3           MOV      R1,#+0
   \   00000728   0E10CDE5           STRB     R1,[SP, #+14]
   \   0000072C   0D10A0E1           MOV      R1,SP
   \   00000730   ........           _BLF     OS_PutMailCond,??OS_PutMailCond??rA
   \   00000734   000050E3           CMP      R0,#+0
   \   00000738   DC00001A           BNE      ??ANPRO10_UnpackPacket_30
    656                                  MyMessage.Cmd     = CMD_SEND_CONFIG;
   \   0000073C   6410A0E3           MOV      R1,#+100
   \   00000740   F01E81E3           ORR      R1,R1,#0xF00
   \   00000744   BC10CDE1           STRH     R1,[SP, #+12]
    657                                  OS_PutMailCond(&UploadMessageBuf, &MyMessage);
   \                     ??ANPRO10_UnpackPacket_56:
   \   00000748   0D10A0E1           MOV      R1,SP
   \   0000074C   280085E2           ADD      R0,R5,#+40
   \                     ??ANPRO10_UnpackPacket_57:
   \   00000750   ........           _BLF     OS_PutMailCond,??OS_PutMailCond??rA
   \   00000754   D50000EA           B        ??ANPRO10_UnpackPacket_30
    658                              }
    659                          }
    660                          break;
    661                      case CMD_REQ_FLASH_PROG_BTL:
    662                          {
    663                              UploadMessageStruct MyMessage;
    664                              MyMessage.Port              = Port;
   \                     ??ANPRO10_UnpackPacket_25:
   \   00000758   00408DE5           STR      R4,[SP, #+0]
    665                              MyMessage.Cmd               = CMD_SEND_FLASH_PROG_NO_RESTART;
   \   0000075C   011081E3           ORR      R1,R1,#0x1
   \                     ??ANPRO10_UnpackPacket_58:
   \   00000760   BC10CDE1           STRH     R1,[SP, #+12]
    666                              MyMessage.Address           = pPH->txadr;
   \   00000764   0310D6E5           LDRB     R1,[R6, #+3]
   \   00000768   04108DE5           STR      R1,[SP, #+4]
    667                              MyMessage.UnitId            = pPH->txtypeid;
   \   0000076C   0210D6E5           LDRB     R1,[R6, #+2]
   \   00000770   08108DE5           STR      R1,[SP, #+8]
    668                              MyMessage.isVersionControl  = false;
   \   00000774   0010A0E3           MOV      R1,#+0
   \   00000778   0E10CDE5           STRB     R1,[SP, #+14]
    669                              //
    670                              // original code has a deadly side effect of putting
    671                              // communication tasks to suspended state if the mailbox
    672                              // is full because of any form of a fuck-up
    673                              // it's better to just lose a message in case of
    674                              // mailbox full.
    675                              // -hkim-
    676                              //OS_PutMail(&UploadMessageBuf, &MyMessage);
    677                              OS_PutMailCond(&UploadMessageBuf, &MyMessage);
   \   0000077C   F1FFFFEA           B        ??ANPRO10_UnpackPacket_56
    678                          }
    679                          break;
    680                      case CMD_REQ_FLASH_PROG_PRG:
    681                          {
    682                              UploadMessageStruct MyMessage;
    683                              MyMessage.Port              = Port;
   \                     ??ANPRO10_UnpackPacket_27:
   \   00000780   00408DE5           STR      R4,[SP, #+0]
    684                              MyMessage.Cmd               = CMD_SEND_FLASH_PROG;
   \   00000784   0510C1E3           BIC      R1,R1,#0x5
   \                     ??ANPRO10_UnpackPacket_59:
   \   00000788   BC10CDE1           STRH     R1,[SP, #+12]
    685                              MyMessage.Address           = pPH->txadr;
   \   0000078C   0310D6E5           LDRB     R1,[R6, #+3]
    686                              MyMessage.UnitId            = pPH->txtypeid;
    687                              MyMessage.isVersionControl  = false;
    688                              //
    689                              // original code has a deadly side effect of putting
    690                              // communication tasks to suspended state if the mailbox
    691                              // is full because of any form of a fuck-up
    692                              // it's better to just lose a message in case of
    693                              // mailbox full.
    694                              // -hkim-
    695                              //OS_PutMail(&UploadMessageBuf, &MyMessage);
    696                              OS_PutMailCond(&UploadMessageBuf, &MyMessage);
   \   00000790   280085E2           ADD      R0,R5,#+40
   \   00000794   04108DE5           STR      R1,[SP, #+4]
   \   00000798   0210D6E5           LDRB     R1,[R6, #+2]
   \   0000079C   08108DE5           STR      R1,[SP, #+8]
   \   000007A0   0010A0E3           MOV      R1,#+0
   \   000007A4   0E10CDE5           STRB     R1,[SP, #+14]
   \   000007A8   0D10A0E1           MOV      R1,SP
   \   000007AC   E7FFFFEA           B        ??ANPRO10_UnpackPacket_57
    697                          }
    698                          break;
    699                      case CMD_REQ_CONFIG:
    700                          {
    701                              UploadMessageStruct MyMessage;
    702                              MyMessage.Port              = Port;
   \                     ??ANPRO10_UnpackPacket_28:
   \   000007B0   00408DE5           STR      R4,[SP, #+0]
    703                              MyMessage.Cmd               = CMD_SEND_CONFIG;
   \   000007B4   0210C1E3           BIC      R1,R1,#0x2
   \   000007B8   E8FFFFEA           B        ??ANPRO10_UnpackPacket_58
    704                              MyMessage.Address           = pPH->txadr;
    705                              MyMessage.UnitId            = pPH->txtypeid;
    706                              MyMessage.isVersionControl  = false;
    707                              //
    708                              // original code has a deadly side effect of putting
    709                              // communication tasks to suspended state if the mailbox
    710                              // is full because of any form of a fuck-up
    711                              // it's better to just lose a message in case of
    712                              // mailbox full.
    713                              // -hkim-
    714                              //OS_PutMail(&UploadMessageBuf, &MyMessage);
    715                              OS_PutMailCond(&UploadMessageBuf, &MyMessage);
    716                          }
    717                          break;
    718                      case CMD_REQ_SETTINGS:
    719                          {
    720                              UploadMessageStruct MyMessage;
    721                              MyMessage.Port              = Port;
   \                     ??ANPRO10_UnpackPacket_29:
   \   000007BC   00408DE5           STR      R4,[SP, #+0]
    722                              MyMessage.Cmd               = CMD_SEND_SETTINGS;
   \   000007C0   0110C1E3           BIC      R1,R1,#0x1
   \   000007C4   EFFFFFEA           B        ??ANPRO10_UnpackPacket_59
    723                              MyMessage.Address           = pPH->txadr;
    724                              MyMessage.UnitId            = pPH->txtypeid;
    725                              MyMessage.isVersionControl  = false;
    726                              //
    727                              // original code has a deadly side effect of putting
    728                              // communication tasks to suspended state if the mailbox
    729                              // is full because of any form of a fuck-up
    730                              // it's better to just lose a message in case of
    731                              // mailbox full.
    732                              // -hkim-
    733                              //OS_PutMail(&UploadMessageBuf, &MyMessage);
    734                              OS_PutMailCond(&UploadMessageBuf, &MyMessage);
    735                          }
    736                          break;
    737          #endif
    738                      case CMD_SEND_FLASH_PROG:
    739                      case CMD_SEND_CONFIG:
    740                      case CMD_SEND_SETTINGS:
    741                      case CMD_ERASE_FLASH:
    742                          ANPRO10_FlashHandler(Port, pPH, (U8 *)pCH);
   \                     ??ANPRO10_UnpackPacket_23:
   \   000007C8   0920A0E1           MOV      R2,R9
   \   000007CC   0610A0E1           MOV      R1,R6
   \   000007D0   0400A0E1           MOV      R0,R4
   \   000007D4   ........           BL       ??ANPRO10_FlashHandler
   \   000007D8   B40000EA           B        ??ANPRO10_UnpackPacket_30
    743                          break;
    744          #if defined(ANFLASH) || defined(ANBOOTLOADER)
    745          #else
    746                      case CMD_TXU_INPUT_PACKET:                  // 2010
    747                          {
    748                              // Call the librarian.
    749                              ANPRO10_COMMAND_201X *pCommand = (ANPRO10_COMMAND_201X *)pCH;
    750                              PRogramObjectBase    *ObjPtr   = PRogramObjectBase::FindObject(pCommand->ObjectId);
   \                     ??ANPRO10_UnpackPacket_13:
   \   000007DC   0700D9E5           LDRB     R0,[R9, #+7]
   \   000007E0   0610D9E5           LDRB     R1,[R9, #+6]
   \   000007E4   000481E1           ORR      R0,R1,R0, LSL #+8
   \   000007E8   0510D9E5           LDRB     R1,[R9, #+5]
   \   000007EC   000481E1           ORR      R0,R1,R0, LSL #+8
   \   000007F0   0410D9E5           LDRB     R1,[R9, #+4]
   \   000007F4   000481E1           ORR      R0,R1,R0, LSL #+8
   \   000007F8   ........           _BLF     ??FindObject,??FindObject??rA
   \   000007FC   00B0B0E1           MOVS     R11,R0
    751                              if (ObjPtr) {
   \   00000800   AA00000A           BEQ      ??ANPRO10_UnpackPacket_30
    752                                  LibPutValue(pCommand->ValueId, pCommand->Index, ObjPtr, AnsiString(pCommand->InputBuffer), false, true, 0, pCommand->UnitId, pCommand->CurrentUnit);
   \   00000804   101089E2           ADD      R1,R9,#+16
   \   00000808   14008DE2           ADD      R0,SP,#+20
   \   0000080C   ........           _BLF     ??AnsiString,??AnsiString??rA
   \   00000810   0E10D9E5           LDRB     R1,[R9, #+14]
   \   00000814   0030A0E1           MOV      R3,R0
   \   00000818   0F00D9E5           LDRB     R0,[R9, #+15]
   \   0000081C   000481E1           ORR      R0,R1,R0, LSL #+8
   \   00000820   0008A0E1           MOV      R0,R0, LSL #+16
   \   00000824   4008A0E1           MOV      R0,R0, ASR #+16
   \   00000828   01002DE9           PUSH     {R0}
   \   0000082C   0D00D9E5           LDRB     R0,[R9, #+13]
   \   00000830   0C10D9E5           LDRB     R1,[R9, #+12]
   \   00000834   000481E1           ORR      R0,R1,R0, LSL #+8
   \   00000838   0008A0E1           MOV      R0,R0, LSL #+16
   \   0000083C   4008A0E1           MOV      R0,R0, ASR #+16
   \   00000840   01002DE9           PUSH     {R0}
   \   00000844   0000A0E3           MOV      R0,#+0
   \   00000848   01002DE9           PUSH     {R0}
   \   0000084C   0100A0E3           MOV      R0,#+1
   \   00000850   01002DE9           PUSH     {R0}
   \   00000854   0800A0E1           MOV      R0,R8
   \   00000858   01002DE9           PUSH     {R0}
   \                     ??ANPRO10_UnpackPacket_60:
   \   0000085C   4300D9E5           LDRB     R0,[R9, #+67]
   \   00000860   4210D9E5           LDRB     R1,[R9, #+66]
   \   00000864   0B20A0E1           MOV      R2,R11
   \   00000868   0AB0D9E5           LDRB     R11,[R9, #+10]
   \   0000086C   000481E1           ORR      R0,R1,R0, LSL #+8
   \   00000870   4110D9E5           LDRB     R1,[R9, #+65]
   \   00000874   000481E1           ORR      R0,R1,R0, LSL #+8
   \   00000878   4010D9E5           LDRB     R1,[R9, #+64]
   \   0000087C   001481E1           ORR      R1,R1,R0, LSL #+8
   \   00000880   0B00D9E5           LDRB     R0,[R9, #+11]
   \   00000884   00048BE1           ORR      R0,R11,R0, LSL #+8
   \   00000888   09B0D9E5           LDRB     R11,[R9, #+9]
   \   0000088C   00048BE1           ORR      R0,R11,R0, LSL #+8
   \   00000890   08B0D9E5           LDRB     R11,[R9, #+8]
   \   00000894   00048BE1           ORR      R0,R11,R0, LSL #+8
   \   00000898   ........           _BLF     ??LibPutValue,??LibPutValue??rA
   \   0000089C   0020A0E3           MOV      R2,#+0
   \   000008A0   0110A0E3           MOV      R1,#+1
   \   000008A4   28008DE2           ADD      R0,SP,#+40
   \   000008A8   ........           _BLF     ??_Tidy,??_Tidy??rA
   \   000008AC   14D08DE2           ADD      SP,SP,#+20
   \   000008B0   7E0000EA           B        ??ANPRO10_UnpackPacket_30
    753                              } else {
    754                                  // System error object nonexitant
    755                              }
    756                          }
    757                          break;
    758                      case CMD_TXU_INPUT_PACKET_RES:          // 2011
    759                          {
    760                              // Call the librarian.
    761                              ANPRO10_COMMAND_201X *pCommand = (ANPRO10_COMMAND_201X *)pCH;
    762                              PRogramObjectBase    *ObjPtr   = PRogramObjectBase::FindObject(pCommand->ObjectId);
   \                     ??ANPRO10_UnpackPacket_14:
   \   000008B4   0700D9E5           LDRB     R0,[R9, #+7]
   \   000008B8   0610D9E5           LDRB     R1,[R9, #+6]
   \   000008BC   000481E1           ORR      R0,R1,R0, LSL #+8
   \   000008C0   0510D9E5           LDRB     R1,[R9, #+5]
   \   000008C4   000481E1           ORR      R0,R1,R0, LSL #+8
   \   000008C8   0410D9E5           LDRB     R1,[R9, #+4]
   \   000008CC   000481E1           ORR      R0,R1,R0, LSL #+8
   \   000008D0   ........           _BLF     ??FindObject,??FindObject??rA
   \   000008D4   00B0B0E1           MOVS     R11,R0
    763                              if (ObjPtr) {
   \   000008D8   7400000A           BEQ      ??ANPRO10_UnpackPacket_30
    764                                  LibPutValue(pCommand->ValueId, pCommand->Index, ObjPtr, AnsiString(pCommand->InputBuffer), false);
   \   000008DC   101089E2           ADD      R1,R9,#+16
   \   000008E0   14008DE2           ADD      R0,SP,#+20
   \   000008E4   ........           _BLF     ??AnsiString,??AnsiString??rA
   \   000008E8   0810E0E1           MVN      R1,R8
   \   000008EC   02002DE9           PUSH     {R1}
   \   000008F0   02002DE9           PUSH     {R1}
   \   000008F4   0010A0E3           MOV      R1,#+0
   \   000008F8   02002DE9           PUSH     {R1}
   \   000008FC   02002DE9           PUSH     {R1}
   \   00000900   02002DE9           PUSH     {R1}
   \   00000904   0030A0E1           MOV      R3,R0
   \   00000908   D3FFFFEA           B        ??ANPRO10_UnpackPacket_60
    765                              } else {
    766                                  // System error object nonexitant
    767                              }
    768                          }
    769                          break;
    770                      case CMD_PRO_ALARM_ACK_ALL:
    771                          AlarmBasic::AckAll();
   \                     ??ANPRO10_UnpackPacket_17:
   \   0000090C   ........           _BLF     ??AckAll,??AckAll??rA
   \   00000910   660000EA           B        ??ANPRO10_UnpackPacket_30
    772                          break;
    773                      case CMD_ZSET_ALL_CARGO_LEVEL     :
    774                      case CMD_ZSET_ALL_CARGO_TANK_PRESS  :
    775                      case CMD_ZSET_ALL_BALLAST_LEVEL   :
    776                      case CMD_ZSET_ALL_BALLAST_TANK_PRESS:
    777                      case CMD_ZSET_ALL_SERVICE_LEVEL   :
    778                      case CMD_ZSET_ALL_SERVICE_TANK_PRESS:
    779                      case CMD_ZSET_ALL_TANK_PRESS        :
    780                      case CMD_ZSET_ALL_LINE_PRESS        :
    781          			case CMD_ZSET_ALL_VOIDSPACE_LEVEL:
    782                      case CMD_ZSET_ALL_VOIDSPACE_PRESS:
    783                          ANPRO10_ReceiveZerosetAll(pCH->CommandNo);
   \                     ??ANPRO10_UnpackPacket_20:
   \   00000914   0100D9E5           LDRB     R0,[R9, #+1]
   \   00000918   0010D9E5           LDRB     R1,[R9, #+0]
   \   0000091C   000481E1           ORR      R0,R1,R0, LSL #+8
   \   00000920   ........           BL       ??ANPRO10_ReceiveZerosetAll
    784                          if (Master) {
   \   00000924   0000D7E5           LDRB     R0,[R7, #+0]
   \   00000928   000050E3           CMP      R0,#+0
   \   0000092C   5F00000A           BEQ      ??ANPRO10_UnpackPacket_30
    785                              ANPRO10_SendZerosetAll(pCH->CommandNo);
   \   00000930   0100D9E5           LDRB     R0,[R9, #+1]
   \   00000934   0010D9E5           LDRB     R1,[R9, #+0]
   \   00000938   000481E1           ORR      R0,R1,R0, LSL #+8
   \   0000093C   ........           BL       ??ANPRO10_SendZerosetAll
   \   00000940   5A0000EA           B        ??ANPRO10_UnpackPacket_30
    786                          }
    787                          break;
    788                      case CMD_GENERIC_REALTIME_DATA:         // 101
    789          			case CMD_GENERIC_STATIC_DATA  :         // 102
    790                      case CMD_GENERIC_MODBUS_RT_DATA:        // 103
    791          
    792                      case CMD_PRO_ALARM_STATUS       :       // 3000
    793                      case CMD_PRO_ALARM_ACK          :       // 3001
    794          				{
    795                              // Call receive packet on the right object.
    796          					ANPRO10_COMMAND_OBJ_PACKET *pCommand = (ANPRO10_COMMAND_OBJ_PACKET *)pCH;
    797          					PRogramObjectBase          *ObjPtr   = PRogramObjectBase::FindObject(pCommand->ObjectId);
   \                     ??ANPRO10_UnpackPacket_6:
   \   00000944   0700D9E5           LDRB     R0,[R9, #+7]
   \   00000948   0610D9E5           LDRB     R1,[R9, #+6]
    798          					if (ObjPtr) {
   \   0000094C   90B19FE5           LDR      R11,??ANPRO10_UnpackPacket_1+0x8  ;; ??MySelf
   \   00000950   000481E1           ORR      R0,R1,R0, LSL #+8
   \   00000954   0510D9E5           LDRB     R1,[R9, #+5]
   \   00000958   000481E1           ORR      R0,R1,R0, LSL #+8
   \   0000095C   0410D9E5           LDRB     R1,[R9, #+4]
   \   00000960   000481E1           ORR      R0,R1,R0, LSL #+8
   \   00000964   ........           _BLF     ??FindObject,??FindObject??rA
   \   00000968   0020B0E1           MOVS     R2,R0
   \   0000096C   1F00000A           BEQ      ??ANPRO10_UnpackPacket_61
    799          						#if defined(ANWIN)
    800          						int MapSize = PRogramObjectBase::DataTransferSet.size();
    801          						if (PRogramObjectBase::DataTransferSet.empty() && MainForm->StaticDataAdvProgress->Visible ) {
    802          								MainForm->StaticDataAdvProgress->Visible= false;
    803          								MainForm->UpdatingDatabaseLabel->Visible= false;
    804          								MainForm->ComStatusPanel->Width 		= 30;
    805          						}else{
    806          							if (MapSize <= 13) {
    807          								set<PRogramObjectBase *>::iterator pBIt;
    808          								for ( pBIt = PRogramObjectBase::DataTransferSet.begin(); pBIt != PRogramObjectBase::DataTransferSet.end(); pBIt++ ) {
    809          									PRogramObjectBase *ObjPtr2   = *pBIt;
    810          									AnsiString Name = ObjPtr2->Name;
    811          								}
    812          							}
    813          							PRogramObjectBase::DataTransferSet.erase(ObjPtr);
    814          							MainForm->StaticDataAdvProgress->Position = MainForm->StaticDataAdvProgress->Max - PRogramObjectBase::DataTransferSet.size();
    815          						}
    816          						#endif
    817          						int ErrorStatus = ObjPtr->ReceiveData((U8 *)pCommand);
   \   00000970   A42090E5           LDR      R2,[R0, #+164]
   \   00000974   0910A0E1           MOV      R1,R9
   \   00000978   3C2092E5           LDR      R2,[R2, #+60]
   \   0000097C   0FE0A0E1           MOV      LR,PC
   \   00000980   12FF2FE1           BX       R2
    818                                  if (ErrorStatus != E_OK) {
   \   00000984   000050E3           CMP      R0,#+0
   \   00000988   4800000A           BEQ      ??ANPRO10_UnpackPacket_30
    819          							PROTanksystemUnit::MySelf->RxErrId    = pCommand->ObjectId;
   \   0000098C   0720D9E5           LDRB     R2,[R9, #+7]
   \   00000990   0630D9E5           LDRB     R3,[R9, #+6]
   \   00000994   00109BE5           LDR      R1,[R11, #+0]
   \   00000998   022483E1           ORR      R2,R3,R2, LSL #+8
   \   0000099C   0530D9E5           LDRB     R3,[R9, #+5]
   \   000009A0   022483E1           ORR      R2,R3,R2, LSL #+8
   \   000009A4   0430D9E5           LDRB     R3,[R9, #+4]
   \   000009A8   022483E1           ORR      R2,R3,R2, LSL #+8
   \   000009AC   442481E5           STR      R2,[R1, #+1092]
    820                                      PROTanksystemUnit::MySelf->RxErrCmd   = pCH->CommandNo;
   \   000009B0   00109BE5           LDR      R1,[R11, #+0]
   \   000009B4   0120D9E5           LDRB     R2,[R9, #+1]
   \   000009B8   0030D9E5           LDRB     R3,[R9, #+0]
   \   000009BC   022483E1           ORR      R2,R3,R2, LSL #+8
   \   000009C0   482481E5           STR      R2,[R1, #+1096]
    821                                      PROTanksystemUnit::MySelf->RxErrMsg   = ErrorStatus;
   \   000009C4   00109BE5           LDR      R1,[R11, #+0]
   \   000009C8   4C0481E5           STR      R0,[R1, #+1100]
    822                                      PROTanksystemUnit::MySelf->RxErrCnt++;
   \   000009CC   00009BE5           LDR      R0,[R11, #+0]
   \   000009D0   501490E5           LDR      R1,[R0, #+1104]
   \   000009D4   011081E2           ADD      R1,R1,#+1
   \   000009D8   501480E5           STR      R1,[R0, #+1104]
    823                                      PROTanksystemUnit::MySelf->RxErrTime  = time(NULL);
   \   000009DC   0000A0E3           MOV      R0,#+0
   \   000009E0   ........           _BLF     time,??time??rA
   \   000009E4   00109BE5           LDR      R1,[R11, #+0]
   \   000009E8   540481E5           STR      R0,[R1, #+1108]
    824                                      //TSN_Delay(10);
    825                                      switch (CurrentDeviceId) {
   \   000009EC   2F0000EA           B        ??ANPRO10_UnpackPacket_30
    826                                      case DEVICE_TCU:    // TCU
    827                                          break;
    828                                      case DEVICE_TDU:    // TDU
    829                                          /*
    830                                              {
    831                                                  char Buf[BUF_SIZE];
    832                                                  sprintf(Buf,"ANPRO10 Object %0X unknown",ObjectIndex);
    833                                                  GUI_SetColor(GUI_BLACK);
    834                                                  GUI_SetBkColor(GUI_LIGHTGRAY);
    835                                                  GUI_SetFont(&GUI_Font16B_ASCII);
    836                                                  GUI_DispStringHCenterAt(Buf,LCDXSize/2,160);
    837                                              }
    838                                              */
    839                                          break;
    840                                      }
    841                                  }
    842                              } else {
    843                                  // System error object nonexitent
    844                                  if (PROTanksystemUnit::MySelf) {
   \                     ??ANPRO10_UnpackPacket_61:
   \   000009F0   00009BE5           LDR      R0,[R11, #+0]
   \   000009F4   000050E3           CMP      R0,#+0
   \   000009F8   2C00000A           BEQ      ??ANPRO10_UnpackPacket_30
    845                                      PROTanksystemUnit::MySelf->RxErrId    = pCommand->ObjectId;
   \   000009FC   0710D9E5           LDRB     R1,[R9, #+7]
   \   00000A00   0620D9E5           LDRB     R2,[R9, #+6]
   \   00000A04   011482E1           ORR      R1,R2,R1, LSL #+8
   \   00000A08   0520D9E5           LDRB     R2,[R9, #+5]
   \   00000A0C   011482E1           ORR      R1,R2,R1, LSL #+8
   \   00000A10   0420D9E5           LDRB     R2,[R9, #+4]
   \   00000A14   011482E1           ORR      R1,R2,R1, LSL #+8
   \   00000A18   441480E5           STR      R1,[R0, #+1092]
    846                                      PROTanksystemUnit::MySelf->RxErrCmd   = pCH->CommandNo;
   \   00000A1C   00009BE5           LDR      R0,[R11, #+0]
   \   00000A20   0110D9E5           LDRB     R1,[R9, #+1]
   \   00000A24   0020D9E5           LDRB     R2,[R9, #+0]
   \   00000A28   011482E1           ORR      R1,R2,R1, LSL #+8
   \   00000A2C   481480E5           STR      R1,[R0, #+1096]
    847                                      PROTanksystemUnit::MySelf->RxErrMsg   = E_UNKNOWN_OBJECT;
   \   00000A30   00009BE5           LDR      R0,[R11, #+0]
   \   00000A34   0210A0E3           MOV      R1,#+2
   \   00000A38   4C1480E5           STR      R1,[R0, #+1100]
    848                                      PROTanksystemUnit::MySelf->RxErrCnt++;
   \   00000A3C   00009BE5           LDR      R0,[R11, #+0]
   \   00000A40   501490E5           LDR      R1,[R0, #+1104]
   \   00000A44   011081E2           ADD      R1,R1,#+1
   \   00000A48   501480E5           STR      R1,[R0, #+1104]
    849                                      PROTanksystemUnit::MySelf->RxErrTime  = time(NULL);
   \   00000A4C   0000A0E3           MOV      R0,#+0
   \   00000A50   ........           _BLF     time,??time??rA
   \   00000A54   00109BE5           LDR      R1,[R11, #+0]
   \   00000A58   540481E5           STR      R0,[R1, #+1108]
    850                                      ObjPtr = PRogramObjectBase::FindObject(pCommand->ObjectId);
   \   00000A5C   0700D9E5           LDRB     R0,[R9, #+7]
   \   00000A60   0610D9E5           LDRB     R1,[R9, #+6]
   \   00000A64   000481E1           ORR      R0,R1,R0, LSL #+8
   \   00000A68   0510D9E5           LDRB     R1,[R9, #+5]
   \   00000A6C   000481E1           ORR      R0,R1,R0, LSL #+8
   \   00000A70   0410D9E5           LDRB     R1,[R9, #+4]
   \   00000A74   000481E1           ORR      R0,R1,R0, LSL #+8
   \   00000A78   ........           _BLF     ??FindObject,??FindObject??rA
   \   00000A7C   0B0000EA           B        ??ANPRO10_UnpackPacket_30
    851                                  }
    852                              }
    853          
    854                          }
    855                          break;
    856                      case CMD_BUZZER_TEST:
    857          #ifdef S2TXU
    858                          {
    859                              char TestMode = *Buf;
   \                     ??ANPRO10_UnpackPacket_19:
   \   00000A80   00B0DAE5           LDRB     R11,[R10, #+0]
    860                              OS_SignalEvent(TestMode, &ControllerTaskHandle);
   \   00000A84   5C109FE5           LDR      R1,??ANPRO10_UnpackPacket_1+0xC  ;; ControllerTaskHandle
   \   00000A88   0B00A0E1           MOV      R0,R11
   \   00000A8C   ........           _BLF     OS_SignalEvent,??OS_SignalEvent??rA
    861                              if (Master) {
   \   00000A90   0000D7E5           LDRB     R0,[R7, #+0]
   \   00000A94   000050E3           CMP      R0,#+0
   \   00000A98   0400000A           BEQ      ??ANPRO10_UnpackPacket_30
    862                                  ANPRO10_SendBuzzerTest(TestMode);
   \   00000A9C   0B00A0E1           MOV      R0,R11
   \   00000AA0   ........           BL       ??ANPRO10_SendBuzzerTest
   \   00000AA4   010000EA           B        ??ANPRO10_UnpackPacket_30
    863                              }
    864                          }
    865          #endif
    866                          break;
    867                      case CMD_TXU_TIME:
    868          #ifdef S2TXU
    869                          ANPRO10_ReceiveTime((ANPRO10_CommandHeading *)pCH);
   \                     ??ANPRO10_UnpackPacket_15:
   \   00000AA8   0900A0E1           MOV      R0,R9
   \   00000AAC   ........           BL       ??ANPRO10_ReceiveTime
    870          #endif
    871                          break;
    872          #endif  // ANFLASH and ANBOOLOADER
    873                      case ECMD_NMDWOACK:
    874                      case ECMD_NMDRQACK:
    875                          MoreCommands = false;
    876                          break;
    877                      default:
    878                          break;
    879          
    880                      }
    881                      if (MoreCommands) {
    882                          Buf += pCH->ndb;
   \                     ??ANPRO10_UnpackPacket_30:
   \   00000AB0   0300D9E5           LDRB     R0,[R9, #+3]
   \   00000AB4   0210D9E5           LDRB     R1,[R9, #+2]
   \   00000AB8   000481E1           ORR      R0,R1,R0, LSL #+8
   \   00000ABC   0AA080E0           ADD      R10,R0,R10
   \   00000AC0   10009DE5           LDR      R0,[SP, #+16]
   \   00000AC4   00005AE1           CMP      R10,R0
   \   00000AC8   64FDFF3A           BCC      ??ANPRO10_UnpackPacket_4
    883                      }
    884          #ifdef ANWIN
    885          		} while (MoreCommands && (Buf < EndPtr) && !Anpro_Net::apnet->_exit_flag);
    886          #else
    887          		} while (MoreCommands && (Buf < EndPtr));
    888          #endif
    889          	}
    890          #ifdef S2TXU
    891              OS_Unuse(&UnpackSema);
   \                     ??ANPRO10_UnpackPacket_5:
   \   00000ACC   480085E2           ADD      R0,R5,#+72
   \   00000AD0   ........           _BLF     OS_Unuse,??OS_Unuse??rA
    892          #endif
    893          }
   \   00000AD4   30D08DE2           ADD      SP,SP,#+48
   \   00000AD8   ........           B        ?Subroutine48
   \                     ??ANPRO10_UnpackPacket_1:
   \   00000ADC   ........           DC32     RestartAck
   \   00000AE0   18F0FF31           DC32     0x31fff018
   \   00000AE4   ........           DC32     ??MySelf
   \   00000AE8   ........           DC32     ControllerTaskHandle

   \                                 In segment CODE, align 4, keep-with-next
   \                     ?Subroutine48:
   \   00000000   F04FBDE8           POP      {R4-R11,LR}
   \   00000004   1EFF2FE1           BX       LR               ;; return
   \                     ??Subroutine48_0:
   \   00000008   3A200000           DC8      ": ",+0
   \   0000000C   25000000           DC8      "%",+0,+0
   \   00000010   ........           DC32     ??npos
   \   00000014   ........           DC32     ??npos
   \   00000018   ........           DC32     ??npos
   \   0000001C   ........           DC32     ??npos
   \   00000020   ........           DC32     CrLfStr
   \   00000024   ........           DC32     ??npos
    894          

   \                                 In segment DATA_Z, align 4, align-sorted
    895          U8          SequenceNumber;
    896          #ifdef WIN32
    897          static bool LZONotInit     = true;
    898          
    899          void ANPRO10_UDP_Receive(U8 *RxBuf) {
    900          #ifdef ANWIN
    901              if (LZONotInit) {
    902                  LZONotInit = false;
    903                  if (lzo_init() != LZO_E_OK) {
    904                      //MsgStr("lzo_init() failed !!!");
    905                      Sleep(unsigned(0));
    906                  }
    907          
    908              }
    909              if (!RxBuf) return;
    910              if (MainForm) {
    911                  MainForm->SyncReceived();
    912              }
    913          
    914              ANPRO10_PacketHeading *pPH =  (ANPRO10_PacketHeading *)RxBuf;
    915              switch (pPH->rxtypeid) {
    916              case DEVICE_BROADCAST_TXU :
    917              case DEVICE_PCSW      :
    918              case DEVICE_PC_FLASH_PROG:
    919                  if ((pPH->txadr == CurrentDeviceAddress)
    920                      && (pPH->txtypeid == CurrentDeviceId)) {
    921                      // This is the ecco
    922                      Sleep(unsigned(0));
    923          
    924                  } else {
    925                      if (((pPH->rxadr == CurrentDeviceAddress) && ((pPH->rxtypeid == CurrentDeviceId) || (pPH->rxtypeid == DEVICE_BROADCAST)))
    926                          || (pPH->rxadr == DEVICE_BROADCAST_ADDR)
    927                          || (Master && (pPH->rxadr == DEVICE_MASTER))) {
    928                             if ( !Anpro_Net::apnet->_exit_flag ) ANPRO10_UnpackPacket((U8 *)RxBuf, MainForm->WinUartPtr);
    929                      } else {
    930                          Sleep(unsigned(0));
    931                          //Ignore = true;
    932                      }
    933                  }
    934          
    935                  break;
    936              default:
    937                  Sleep(unsigned(0));
    938                  break;
    939              }
    940          #endif
    941          }
    942          
    943          void SendUDP(U8 *Buf, int Size, int Cnt) {
    944          #ifdef ANWIN
    945              if (UseANWinNetwork) {  // hkim
    946                  return;
    947              }
    948          
    949              try {
    950                  if (MainForm && MainForm->IsServer) {
    951                      if (Size <= MAX_UDP_SIZE) {
    952                          int      PacketInfo[3] = { 0, 1, Cnt };
    953                          TIdBytes TxBuf;
    954                          TxBuf.Length = Size;
    955                          RawToBytesF(TxBuf, Buf, Size);
    956                          AppendBytes(TxBuf, RawToBytes(PacketInfo, PACKET_INFO_SIZE));
    957                          MainForm->IdUDPClient1->Broadcast(TxBuf, MainForm->IdUDPClient1->Port, "");
    958                          //MainForm->IdUDPClient1->SendBuffer(TxBuf);
    959                      } else {
    960                          int  NumberOfFullParts = Size / MAX_UDP_SIZE;
    961                          int  Remaining         = Size % MAX_UDP_SIZE;
    962                          int  NumberOfParts     = NumberOfFullParts;
    963                          char *Ptr              = Buf;
    964                          if (Remaining) NumberOfParts += 1;
    965                          for (int i = 0; i < NumberOfParts; i++) {
    966                              int PSize;
    967                              if (i < NumberOfFullParts) {
    968                                  PSize = MAX_UDP_SIZE;
    969                              } else {
    970                                  PSize = Remaining;
    971                              }
    972                              int      PacketInfo[3] = { i, NumberOfParts, Cnt };
    973          
    974                              TIdBytes TxBuf;
    975                              TxBuf.Length = PSize;
    976                              RawToBytesF(TxBuf, Ptr, PSize);
    977                              Ptr += PSize;
    978                              AppendBytes(TxBuf, RawToBytes(PacketInfo, PACKET_INFO_SIZE));
    979                              MainForm->IdUDPClient1->Broadcast(TxBuf, MainForm->IdUDPClient1->Port, "");
    980                              //MainForm->IdUDPClient1->SendBuffer(TxBuf);
    981                          }
    982                      }
    983                  }
    984              } catch (...) {
    985                  Sleep(0);
    986              }
    987          #endif
    988          }
    989          #ifdef BORLAND
    990          #pragma warn -8004
    991          #endif
    992          static int TxCnt = 0;
    993          void ANPRO10_Receive(TSNUart *Port, U8 *RxBuf) {
    994              if (LZONotInit) {
    995                  LZONotInit = false;
    996                  if (lzo_init() != LZO_E_OK) {
    997                      //MsgStr("lzo_init() failed !!!");
    998                  }
    999          
   1000              }
   1001              ANPRO10_PacketHeading *pPH     =  (ANPRO10_PacketHeading *)RxBuf;
   1002              U8                    *RxPtr   = RxBuf + sizeof(NetHeading);
   1003              U16                   DataSize = pPH->nob;
   1004              RxPtr = RxBuf;
   1005              U8 CSum = 0;
   1006          
   1007              for (int i = 0; i < DataSize - 2; i++) {
   1008                  CSum     = CRC[CSum ^ *RxPtr++];
   1009              }
   1010              U8  PacketCheckSum = *((U8 *)&RxBuf[DataSize - 2]);
   1011              if (PacketCheckSum == CSum) {
   1012                  SequenceNumber = RxBuf[DataSize - 3];
   1013                  Port->RxCnt++;
   1014                  //U16 EndCommand = *((U16*)&RxBuf[DataSize-6]);
   1015          		U8 EndData = *((U8 *)&RxBuf[DataSize - 4]);
   1016                  U8 EOTByte = *((U8 *)&RxBuf[DataSize - 1]);
   1017                  if (EOTByte == ANPRO10_EOT) {
   1018          #ifdef ANWIN
   1019          
   1020                      if (MainForm) {
   1021                          MainForm->SyncReceived();
   1022                      }
   1023          #endif
   1024                      switch (pPH->rxtypeid) {
   1025                      case DEVICE_BROADCAST_TXU :
   1026                      case DEVICE_PCSW      :
   1027                      case DEVICE_PC_FLASH_PROG:
   1028                          if ((pPH->txadr == CurrentDeviceAddress)
   1029                              && (pPH->txtypeid == CurrentDeviceId)) {
   1030                              // This is the ecco
   1031          
   1032                          } else {
   1033                              // Must not activate after the ecco on RS485 but after other packet
   1034                              Port->ActivateIfTxRequest();
   1035                              SendUDP(RxBuf, DataSize, ++TxCnt);
   1036                              if (((pPH->rxadr == CurrentDeviceAddress) && ((pPH->rxtypeid == CurrentDeviceId) || (pPH->rxtypeid == DEVICE_BROADCAST)))
   1037                                  || (pPH->rxadr == DEVICE_BROADCAST_ADDR)
   1038                                  || (Master && (pPH->rxadr == DEVICE_MASTER))) {
   1039                                  ANPRO10_UnpackPacket((U8 *)RxBuf, Port);
   1040                                  //Send incoming data to UDP port
   1041                              } else {
   1042                                  //Ignore = true;
   1043                              }
   1044                          }
   1045                          break;
   1046                      default:
   1047                          break;
   1048                      }
   1049                  }
   1050          	}
   1051          }
   1052          #else
   1053          static int RxCnt = 0;
   \                     RxCnt:
   \   00000000                      DS8 4
   \                     SequenceNumber:
   \   00000004                      DS8 1
   1054          

   \                                 In segment CODE, align 4, keep-with-next
   1055          void ANPRO10_Receive(TSNUart *Port, int TimeOut, U8 *RxBuf){
   \                     ??ANPRO10_Receive:
   \   00000000   F14F2DE9           PUSH     {R0,R4-R11,LR}
   \   00000004   0040A0E1           MOV      R4,R0
   \   00000008   0150A0E1           MOV      R5,R1
   \   0000000C   0260B0E1           MOVS     R6,R2
   1056              if ( !RxBuf )   RxBuf = new U8[2*MAX_ANPRO10_SIZE+P_START_SIZE+sizeof(ANPRO10_PacketTail)+P_COMMAND_SIZE];
   \   00000010   4600001A           BNE      ??ANPRO10_Receive_1
   \   00000014   1500A0E3           MOV      R0,#+21
   \   00000018   7D0C80E3           ORR      R0,R0,#0x7D00
   \   0000001C   ........           _BLF     `??operator new[]`,`??operator new[]??rA`
   \   00000020   0060A0E1           MOV      R6,R0
   \   00000024   410000EA           B        ??ANPRO10_Receive_1
   1057              //U8 *RxBuf = StaticRxBuf;
   1058              ANPRO10_PacketHeading *pPH =  (ANPRO10_PacketHeading*)RxBuf;
   1059          
   1060              while ( true ) {
   1061                  U8 Data;
   1062                  int SyncCnt;
   1063                  bool dataAvailable = false;
   1064                  do {
   1065                      Port->SetProtocolState(pNew_Sync);
   1066                      do {
   1067                          dataAvailable = Port->Receive(&Data,sizeof(Data),TimeOut);
   1068                          if (dataAvailable ) RxCnt++;
   1069                      }  while ( !(dataAvailable || Data == ANPRO10_SYN) );
   1070                      //     MainForm->SyncReceived();
   1071                      // A minimum of 2 SYN to accept start
   1072                      //Message("First SYN");
   1073                      SyncCnt = 0;
   1074                      do {
   1075                          dataAvailable = Port->Receive(&Data,sizeof(Data),200);
   1076                          if ( dataAvailable && (Data == ANPRO10_SYN) ) {
   1077                              SyncCnt++;
   1078                              Port->SetProtocolState(pSync);
   1079                              if (dataAvailable ) RxCnt++;
   1080          
   1081                          }
   1082                      } while ( dataAvailable && (Data == ANPRO10_SYN) );
   1083                  }
   1084                  while ( (!SyncCnt || Data != ANPRO10_SOH) );
   1085                  Port->SetProtocolState(pHeading);
   1086          
   1087                  U8 *RxPtr = (U8*)RxBuf;
   1088                  //memset(RxPtr,0,2*MAX_ANPRO10_SIZE+P_START_SIZE+sizeof(ANPRO10_PacketTail)+P_COMMAND_SIZE);
   1089                  /*
   1090                  for ( int i=0; dataAvailable && i < sizeof(NetHeading); i++ ) {
   1091                      dataAvailable = Port->Receive(RxPtr++,sizeof(Data),200);
   1092          
   1093                  }
   1094                  */
   1095                  dataAvailable = Port->Receive(RxPtr,sizeof(NetHeading),200);
   1096                  if ( dataAvailable ) {
   1097                      if (dataAvailable ) RxCnt++;
   1098          
   1099                      RxPtr += sizeof(NetHeading);
   1100                      volatile U8 HCSum = 0;
   1101                      {
   1102                          U8 *TmpRxPtr = (U8*)RxBuf;
   1103                          for ( int i=0; i < sizeof(ANPRO10_PacketHeading)-1; i++ ) {
   1104                              HCSum     = CRC[HCSum ^ *TmpRxPtr++];
   1105                          }
   1106          
   1107                      }
   1108          //MainForm->SyncReceived();
   1109                      if ( HCSum == pPH->HCRC ) {
   1110                          Port->SetProtocolState(pData);
   1111          
   1112                          //OS_Delay(1000);
   1113                          U16 DataSize = pPH->nob;
   1114                          U16 NetSize = DataSize-sizeof(ANPRO10_PacketHeading);
   1115                          if ( (NetSize > 3 )&& (DataSize < 2*MAX_ANPRO10_SIZE ) ) {
   1116                              dataAvailable = Port->Receive(RxPtr,NetSize,200);
   1117                              if (dataAvailable ) RxCnt++;
   1118          
   1119                              /*
   1120                              int Cnt=0;
   1121                              for ( U16 i=0; dataAvailable && i < DataSize-sizeof(ANPRO10_PacketHeading); i++ ) {
   1122                                  dataAvailable = Port->Receive(RxPtr++,sizeof(Data),200);
   1123                                  Cnt++;
   1124                              }
   1125                              */
   1126                              Port->SetProtocolState(pNew_Sync);
   1127                              if ( dataAvailable ) {
   1128                                  RxPtr = (U8*)RxBuf;
   1129                                  volatile U8 CSum = 0;
   1130          
   1131                                  for ( int i=0; i < DataSize-2; i++ ) {
   1132                                      CSum     = CRC[CSum ^ *RxPtr++];
   \                     ??ANPRO10_Receive_2:
   \   00000028   0220DDE5           LDRB     R2,[SP, #+2]
   \   0000002C   ........           LDRB     R3,[R11], #+1
   1133                                  }
   \   00000030   010080E2           ADD      R0,R0,#+1
   \   00000034   022023E0           EOR      R2,R3,R2
   \   00000038   0720D2E7           LDRB     R2,[R2, +R7]
   \   0000003C   0220CDE5           STRB     R2,[SP, #+2]
   \                     ??ANPRO10_Receive_3:
   \   00000040   02104AE2           SUB      R1,R10,#+2
   \   00000044   010050E1           CMP      R0,R1
   \   00000048   F6FFFFBA           BLT      ??ANPRO10_Receive_2
   1134                                  U8  PacketCheckSum = *((U8*)&RxBuf[DataSize-2]);
   1135                                  if ( PacketCheckSum == CSum ) {
   \   0000004C   06008AE0           ADD      R0,R10,R6
   \   00000050   030040E2           SUB      R0,R0,#+3
   \   00000054   0110D0E5           LDRB     R1,[R0, #+1]
   \   00000058   0220DDE5           LDRB     R2,[SP, #+2]
   \   0000005C   020051E1           CMP      R1,R2
   \   00000060   3200001A           BNE      ??ANPRO10_Receive_1
   1136                                      SequenceNumber = RxBuf[DataSize-3];
   \   00000064   0010D0E5           LDRB     R1,[R0, #+0]
   \   00000068   0410C8E5           STRB     R1,[R8, #+4]
   1137                                      Port->RxCnt++;
   \   0000006C   BC1094E5           LDR      R1,[R4, #+188]
   \   00000070   011081E2           ADD      R1,R1,#+1
   \   00000074   BC1084E5           STR      R1,[R4, #+188]
   1138                                      //U16 EndCommand = *((U16*)&RxBuf[DataSize-6]);
   1139                                      //U8 EndData = *((U8*)&RxBuf[DataSize-4]);
   1140                                      U8 EOTByte = *((U8*)&RxBuf[DataSize-1]);
   1141          
   1142                                      if ( EOTByte == ANPRO10_EOT ) {
   \   00000078   0200D0E5           LDRB     R0,[R0, #+2]
   \   0000007C   040050E3           CMP      R0,#+4
   \   00000080   2A00001A           BNE      ??ANPRO10_Receive_1
   1143                                          //bool Ignore = false;
   1144                                          switch ( pPH->rxtypeid ) {
   \   00000084   0000D6E5           LDRB     R0,[R6, #+0]
   \   00000088   0E0050E2           SUBS     R0,R0,#+14
   \   0000008C   0600000A           BEQ      ??ANPRO10_Receive_4
   \   00000090   120040E2           SUB      R0,R0,#+18
   \   00000094   020050E3           CMP      R0,#+2
   \   00000098   10004082           SUBHI    R0,R0,#+16
   \   0000009C   02005083           CMPHI    R0,#+2
   \   000000A0   0100009A           BLS      ??ANPRO10_Receive_4
   \   000000A4   100050E2           SUBS     R0,R0,#+16
   \   000000A8   2000001A           BNE      ??ANPRO10_Receive_1
   1145                                              case DEVICE_BROADCAST_TXU :
   1146                                              case DEVICE_TCU       :
   1147                                              case DEVICE_TCU_R1    :
   1148                                              case DEVICE_TCU_R2    :
   1149                                              case DEVICE_TDU       :
   1150                                              case DEVICE_TDU_R1    :
   1151                                              case DEVICE_TDU_R2    :
   1152                                              case DEVICE_PCSW      :
   1153                                              if ( (pPH->txadr == CurrentDeviceAddress )
   1154                                                  &&(pPH->txtypeid == CurrentDeviceId ) ) {
   \                     ??ANPRO10_Receive_4:
   \   000000AC   ........           LDR      R8,??DataTable16  ;; CurrentDeviceAddress
   \   000000B0   0300D6E5           LDRB     R0,[R6, #+3]
   \   000000B4   F010D8E1           LDRSH    R1,[R8, #+0]
   \   000000B8   ........           LDR      R7,??DataTable39  ;; CurrentDeviceId
   \   000000BC   010050E1           CMP      R0,R1
   \   000000C0   0200D605           LDRBEQ   R0,[R6, #+2]
   \   000000C4   F010D701           LDRSHEQ  R1,[R7, #+0]
   \   000000C8   01005001           CMPEQ    R0,R1
   \   000000CC   1700000A           BEQ      ??ANPRO10_Receive_1
   1155                                                  // This is the ecco
   1156          
   1157                                              } else {
   1158                                                  // Must not activate after the ecco on RS485 but after other packet
   1159                                                  Port->ActivateIfTxRequest();
   \   000000D0   0400A0E1           MOV      R0,R4
   \   000000D4   ........           _BLF     ??ActivateIfTxRequest,??ActivateIfTxRequest??rA
   1160                                                  if ( ( ( pPH->rxadr == CurrentDeviceAddress )&&((pPH->rxtypeid == CurrentDeviceId )||(pPH->rxtypeid == DEVICE_BROADCAST )))
   1161                                                      ||( pPH->rxadr ==DEVICE_BROADCAST_ADDR  )
   1162                                                      ||( Master && (pPH->rxadr == DEVICE_MASTER )) ) {
   \   000000D8   0100D6E5           LDRB     R0,[R6, #+1]
   \   000000DC   F010D8E1           LDRSH    R1,[R8, #+0]
   \   000000E0   010050E1           CMP      R0,R1
   \   000000E4   0400001A           BNE      ??ANPRO10_Receive_5
   \   000000E8   0000D6E5           LDRB     R0,[R6, #+0]
   \   000000EC   F010D7E1           LDRSH    R1,[R7, #+0]
   \   000000F0   010050E1           CMP      R0,R1
   \   000000F4   0D005013           CMPNE    R0,#+13
   \   000000F8   0900000A           BEQ      ??ANPRO10_Receive_6
   \                     ??ANPRO10_Receive_5:
   \   000000FC   0100D6E5           LDRB     R0,[R6, #+1]
   \   00000100   FF0050E3           CMP      R0,#+255
   \   00000104   0600000A           BEQ      ??ANPRO10_Receive_6
   \   00000108   ........           LDR      R0,??DataTable13  ;; Master
   \   0000010C   0000D0E5           LDRB     R0,[R0, #+0]
   \   00000110   000050E3           CMP      R0,#+0
   \   00000114   0500000A           BEQ      ??ANPRO10_Receive_1
   \   00000118   0100D6E5           LDRB     R0,[R6, #+1]
   \   0000011C   FE0050E3           CMP      R0,#+254
   \   00000120   0200001A           BNE      ??ANPRO10_Receive_1
   1163                                                      ANPRO10_UnpackPacket((U8*)RxBuf,Port);
   \                     ??ANPRO10_Receive_6:
   \   00000124   0410A0E1           MOV      R1,R4
   \   00000128   0600A0E1           MOV      R0,R6
   \   0000012C   ........           BL       ??ANPRO10_UnpackPacket
   1164                                                  } else {
   1165                                                      //Ignore = true;
   1166                                                  }
   1167                                              }
   1168                                              break;
   1169                                              default:
   1170                                              //Ignore = true;
   1171                                              break;
   1172                                          }
   1173                                      }
   1174                                  } else {
   \                     ??ANPRO10_Receive_1:
   \   00000130   0410A0E3           MOV      R1,#+4
   \   00000134   0400A0E1           MOV      R0,R4
   \   00000138   ........           _BLF     ??SetProtocolState,??SetProtocolState??rA
   \                     ??ANPRO10_Receive_7:
   \   0000013C   DC7094E5           LDR      R7,[R4, #+220]
   \   00000140   C4819FE5           LDR      R8,??ANPRO10_Receive_8  ;; RxCnt
   \   00000144   087097E5           LDR      R7,[R7, #+8]
   \   00000148   0530A0E1           MOV      R3,R5
   \   0000014C   0120A0E3           MOV      R2,#+1
   \   00000150   0D10A0E1           MOV      R1,SP
   \   00000154   0400A0E1           MOV      R0,R4
   \   00000158   0FE0A0E1           MOV      LR,PC
   \   0000015C   17FF2FE1           BX       R7
   \   00000160   00B0B0E1           MOVS     R11,R0
   \   00000164   00009815           LDRNE    R0,[R8, #+0]
   \   00000168   01008012           ADDNE    R0,R0,#+1
   \   0000016C   00008815           STRNE    R0,[R8, #+0]
   \   00000170   0200001A           BNE      ??ANPRO10_Receive_9
   \   00000174   0000DDE5           LDRB     R0,[SP, #+0]
   \   00000178   160050E3           CMP      R0,#+22
   \   0000017C   EEFFFF1A           BNE      ??ANPRO10_Receive_7
   \                     ??ANPRO10_Receive_9:
   \   00000180   0070A0E3           MOV      R7,#+0
   \                     ??ANPRO10_Receive_10:
   \   00000184   DC9094E5           LDR      R9,[R4, #+220]
   \   00000188   C830A0E3           MOV      R3,#+200
   \   0000018C   089099E5           LDR      R9,[R9, #+8]
   \   00000190   0120A0E3           MOV      R2,#+1
   \   00000194   0D10A0E1           MOV      R1,SP
   \   00000198   0400A0E1           MOV      R0,R4
   \   0000019C   0FE0A0E1           MOV      LR,PC
   \   000001A0   19FF2FE1           BX       R9
   \   000001A4   00B0B0E1           MOVS     R11,R0
   \   000001A8   0C00000A           BEQ      ??ANPRO10_Receive_11
   \   000001AC   0000DDE5           LDRB     R0,[SP, #+0]
   \   000001B0   160050E3           CMP      R0,#+22
   \   000001B4   0600001A           BNE      ??ANPRO10_Receive_12
   \   000001B8   0510A0E3           MOV      R1,#+5
   \   000001BC   0400A0E1           MOV      R0,R4
   \   000001C0   ........           _BLF     ??SetProtocolState,??SetProtocolState??rA
   \   000001C4   000098E5           LDR      R0,[R8, #+0]
   \   000001C8   017087E2           ADD      R7,R7,#+1
   \   000001CC   010080E2           ADD      R0,R0,#+1
   \   000001D0   000088E5           STR      R0,[R8, #+0]
   \                     ??ANPRO10_Receive_12:
   \   000001D4   0000DDE5           LDRB     R0,[SP, #+0]
   \   000001D8   160050E3           CMP      R0,#+22
   \   000001DC   E8FFFF0A           BEQ      ??ANPRO10_Receive_10
   \                     ??ANPRO10_Receive_11:
   \   000001E0   000057E3           CMP      R7,#+0
   \   000001E4   D1FFFF0A           BEQ      ??ANPRO10_Receive_1
   \   000001E8   0000DDE5           LDRB     R0,[SP, #+0]
   \   000001EC   010050E3           CMP      R0,#+1
   \   000001F0   CEFFFF1A           BNE      ??ANPRO10_Receive_1
   \   000001F4   0610A0E3           MOV      R1,#+6
   \   000001F8   0400A0E1           MOV      R0,R4
   \   000001FC   ........           _BLF     ??SetProtocolState,??SetProtocolState??rA
   \   00000200   DC7094E5           LDR      R7,[R4, #+220]
   \   00000204   C830A0E3           MOV      R3,#+200
   \   00000208   087097E5           LDR      R7,[R7, #+8]
   \   0000020C   0720A0E3           MOV      R2,#+7
   \   00000210   0610A0E1           MOV      R1,R6
   \   00000214   0400A0E1           MOV      R0,R4
   \   00000218   0FE0A0E1           MOV      LR,PC
   \   0000021C   17FF2FE1           BX       R7
   \   00000220   00B0B0E1           MOVS     R11,R0
   \   00000224   C1FFFF0A           BEQ      ??ANPRO10_Receive_1
   \   00000228   000098E5           LDR      R0,[R8, #+0]
   \   0000022C   07B086E2           ADD      R11,R6,#+7
   \   00000230   010080E2           ADD      R0,R0,#+1
   \   00000234   000088E5           STR      R0,[R8, #+0]
   \   00000238   0090A0E3           MOV      R9,#+0
   \   0000023C   0190CDE5           STRB     R9,[SP, #+1]
   \   00000240   0600A0E1           MOV      R0,R6
   \   00000244   0010A0E3           MOV      R1,#+0
   \   00000248   050000EA           B        ??ANPRO10_Receive_13
   \                     ??ANPRO10_Receive_14:
   \   0000024C   0130DDE5           LDRB     R3,[SP, #+1]
   \   00000250   ........           LDRB     R10,[R0], #+1
   \   00000254   011081E2           ADD      R1,R1,#+1
   \   00000258   03302AE0           EOR      R3,R10,R3
   \   0000025C   0730D3E7           LDRB     R3,[R3, +R7]
   \   00000260   0130CDE5           STRB     R3,[SP, #+1]
   \                     ??ANPRO10_Receive_13:
   \   00000264   ........           LDR      R7,??DataTable14  ;; CRC
   \   00000268   060051E3           CMP      R1,#+6
   \   0000026C   F6FFFF3A           BCC      ??ANPRO10_Receive_14
   \   00000270   0100DDE5           LDRB     R0,[SP, #+1]
   \   00000274   0610D6E5           LDRB     R1,[R6, #+6]
   \   00000278   010050E1           CMP      R0,R1
   \   0000027C   ABFFFF1A           BNE      ??ANPRO10_Receive_1
   \   00000280   0710A0E3           MOV      R1,#+7
   \   00000284   0400A0E1           MOV      R0,R4
   \   00000288   ........           _BLF     ??SetProtocolState,??SetProtocolState??rA
   \   0000028C   0500D6E5           LDRB     R0,[R6, #+5]
   \   00000290   0410D6E5           LDRB     R1,[R6, #+4]
   \   00000294   00A481E1           ORR      R10,R1,R0, LSL #+8
   \   00000298   F910A0E3           MOV      R1,#+249
   \   0000029C   FF1C81E3           ORR      R1,R1,#0xFF00
   \   000002A0   0A2081E0           ADD      R2,R1,R10
   \   000002A4   0228A0E1           MOV      R2,R2, LSL #+16
   \   000002A8   2228A0E1           MOV      R2,R2, LSR #+16
   \   000002AC   040052E3           CMP      R2,#+4
   \   000002B0   9EFFFF3A           BCC      ??ANPRO10_Receive_1
   \   000002B4   7D0C5AE3           CMP      R10,#+32000
   \   000002B8   9CFFFF2A           BCS      ??ANPRO10_Receive_1
   \   000002BC   0B10A0E1           MOV      R1,R11
   \   000002C0   DCB094E5           LDR      R11,[R4, #+220]
   \   000002C4   C830A0E3           MOV      R3,#+200
   \   000002C8   08B09BE5           LDR      R11,[R11, #+8]
   \   000002CC   0400A0E1           MOV      R0,R4
   \   000002D0   0FE0A0E1           MOV      LR,PC
   \   000002D4   1BFF2FE1           BX       R11
   \   000002D8   00B0B0E1           MOVS     R11,R0
   \   000002DC   00009815           LDRNE    R0,[R8, #+0]
   \   000002E0   0410A0E3           MOV      R1,#+4
   \   000002E4   01008012           ADDNE    R0,R0,#+1
   \   000002E8   00008815           STRNE    R0,[R8, #+0]
   \   000002EC   0400A0E1           MOV      R0,R4
   \   000002F0   ........           _BLF     ??SetProtocolState,??SetProtocolState??rA
   \   000002F4   00005BE3           CMP      R11,#+0
   \   000002F8   8CFFFF0A           BEQ      ??ANPRO10_Receive_1
   \   000002FC   06B0A0E1           MOV      R11,R6
   \   00000300   0290CDE5           STRB     R9,[SP, #+2]
   \   00000304   0000A0E3           MOV      R0,#+0
   \   00000308   4CFFFFEA           B        ??ANPRO10_Receive_3
   \                     ??ANPRO10_Receive_8:
   \   0000030C   ........           DC32     RxCnt
   1175                                      //Sleep(100);
   1176                                      // TODO or checksumErr
   1177                                  }
   1178                              }
   1179                          }
   1180                      }
   1181                  } else {
   1182                      //Sleep(100);
   1183                  }
   1184              }
   1185          }
   1186          #endif // ANFLASH
   1187          
   1188          /*************************************************************************************************
   1189          *
   1190          *
   1191          *     ANPRO10_SendCommand(U8 *Buf,TSNUart *port)
   1192          *
   1193          *
   1194          *************************************************************************************************/
   1195          #ifndef S2TXU
   1196          int CompressionRatio = 0;
   1197          bool ANPRO10_SendCommand(TSNUart *port, U8 *pCommand, unsigned RxAddress, unsigned RxTypeId) {
   1198          #ifndef ANTDUSIM
   1199              ANPRO10Sema.Acquire();
   1200          #endif
   1201              static U8              WrkMem[LZO1X_1_MEM_COMPRESS];
   1202              static U8              TxBuf[MAX_ANPRO10_SIZE];
   1203              U8                     *Currentpos         = TxBuf;
   1204              static U8              CompressBuf[MAX_ANPRO10_SIZE + 100];   // Add a few bytes in case we can not compress
   1205              const U8               *CompressBufHeading = CompressBuf;
   1206              const U8               *CompressBufData    = CompressBuf + sizeof(ANPRO10_CommandHeading);
   1207          	ANPRO10_CommandHeading *pCH          = (ANPRO10_CommandHeading *)CompressBufHeading;
   1208          
   1209              Currentpos += ANPRO10_AddPacketPreAmble(Currentpos);
   1210              Currentpos += ANPRO10_AddPacketHeading(Currentpos, RxAddress, RxTypeId);
   1211              const U8 *FirstBlock =  Currentpos;
   1212              Currentpos += ANPRO10_AddCommand(Currentpos, pCommand);
   1213          //#if (USE_LZO == 1)
   1214              {
   1215                  PutU16(Currentpos, ECMD_NMDWOACK);
   1216                  lzo_uint NewSize, OrgSize    = Currentpos + sizeof(U16) - TxBuf;
   1217                  // OS_Use(&UnpackSema);
   1218                  int      r          = lzo1x_1_compress((const U8 *)FirstBlock, OrgSize, (U8 *)CompressBufData, &NewSize, WrkMem);
   1219                  int      SizeChange = NewSize - OrgSize - sizeof(U16);
   1220                  CompressionRatio = NewSize * 100 / OrgSize;
   1221                  //if ( r == LZO_E_OK && LZOControlOK && ( SizeChange < 0) ) {
   1222                  if (r == LZO_E_OK && (SizeChange < 0)) {
   1223          			pCH->CommandNo = CMD_TXU_COMPRESSED_PACKET;
   1224                      pCH->ndb       = NewSize;
   1225                      Currentpos = (U8 *)FirstBlock + ANPRO10_AddCommand((U8 *)FirstBlock, (U8 *)CompressBufHeading);
   1226                  } else {
   1227                      // No compression, no reason to add END_OF_DATA
   1228                      //Ptr--;
   1229                  }
   1230          
   1231          
   1232              }
   1233          //#endif
   1234              Currentpos += ANPRO10_AddPacketTail(TxBuf, Currentpos - TxBuf, false);
   1235          
   1236          #ifdef ANFLASH  // hkim. for anflash over net
   1237              {
   1238                  extern volatile bool __anflash_use_anpro_net;
   1239                  extern void          txuflash_prog_send_cmd(U8 * pCommand, int size);
   1240          
   1241                  if (__anflash_use_anpro_net) {
   1242                      txuflash_prog_send_cmd((U8 *)TxBuf, Currentpos - TxBuf);
   1243          #ifndef ANTDUSIM
   1244                      ANPRO10Sema.Release();
   1245          #endif
   1246                      return true;
   1247                  }
   1248              }
   1249          #endif  // end of hkim
   1250          
   1251              bool ret = port->Send(TxBuf, Currentpos - TxBuf, 2);
   1252          #ifndef ANTDUSIM
   1253              ANPRO10Sema.Release();
   1254          #endif
   1255              return (ret);
   1256          
   1257          }
   1258          #endif
   1259          ////////////////////////////////////////////////////////////////////////////////////////
   1260          //
   1261          // Message procedures
   1262          //
   1263          ////////////////////////////////////////////////////////////////////////////////////////
   1264          /*************************************************************************************************
   1265          *
   1266          *
   1267          *     ANPRO10_SendSysInfo(U8 *Buf,TSNUart *port)
   1268          *
   1269          *
   1270          *************************************************************************************************/

   \                                 In segment CODE, align 4, keep-with-next
   1271          void ANPRO10_SendSysInfo(TSNUart *port, unsigned RxAddress, unsigned RxTypeId) {
   \                     ??ANPRO10_SendSysInfo:
   \   00000000   10402DE9           PUSH     {R4,LR}
   1272          #ifdef S2TXU
   1273              fake_uart_port_for_tcp_clientPtr = port;
   \   00000004   8C419FE5           LDR      R4,??ANPRO10_SendSysInfo_1  ;; fake_uart_port_for_tcp_clientPtr
   \   00000008   5CD04DE2           SUB      SP,SP,#+92
   1274          #endif
   1275              QueueANPRO10_COMMAND_2001 Cmd;
   1276              Cmd.TxInfo.Port      = port;
   1277              Cmd.TxInfo.rxAddr    = RxAddress;
   1278              Cmd.TxInfo.rxId      = RxTypeId;
   \   0000000C   0520CDE5           STRB     R2,[SP, #+5]
   1279              Cmd.Data.CommandNo   = CMD_TXU_REP_SYSTEMINFO;
   \   00000010   D120A0E3           MOV      R2,#+209
   \   00000014   702E82E3           ORR      R2,R2,#0x700
   \   00000018   B620CDE1           STRH     R2,[SP, #+6]
   1280              Cmd.Data.ndb         = sizeof(Cmd) - sizeof(QueueANPRO10_CommandHeading);
   \   0000001C   5220A0E3           MOV      R2,#+82
   \   00000020   B820CDE1           STRH     R2,[SP, #+8]
   1281              Cmd.Data.UnitID      = CurrentDeviceId;
   \   00000024   ........           LDR      R2,??DataTable39  ;; CurrentDeviceId
   \   00000028   000084E5           STR      R0,[R4, #+0]
   \   0000002C   F020D2E1           LDRSH    R2,[R2, #+0]
   \   00000030   00008DE5           STR      R0,[SP, #+0]
   \   00000034   0410CDE5           STRB     R1,[SP, #+4]
   \   00000038   0A20CDE5           STRB     R2,[SP, #+10]
   1282              Cmd.Data.UnitAdress  = CurrentDeviceAddress;
   \   0000003C   ........           LDR      R2,??DataTable16  ;; CurrentDeviceAddress
   \   00000040   F020D2E1           LDRSH    R2,[R2, #+0]
   \   00000044   0B20CDE5           STRB     R2,[SP, #+11]
   1283              Cmd.Data.ComPortNo   = port->PortNumber;
   \   00000048   800090E5           LDR      R0,[R0, #+128]
   \   0000004C   5B00CDE5           STRB     R0,[SP, #+91]
   1284          #if defined(ANBOOTLOADER) || defined(ANFLASH)
   1285              strcpy((char *)Cmd.Data.SystemID, "UNKNOWN");
   1286              Cmd.Data.ProgramType = 0;
   1287              Cmd.Data.DataVersion = 0;
   1288          #else
   1289              if (PROProjectInfo::PROProjectInfoPtr) {
   \   00000050   44019FE5           LDR      R0,??ANPRO10_SendSysInfo_1+0x4  ;; ??PROProjectInfoPtr
   \   00000054   000090E5           LDR      R0,[R0, #+0]
   \   00000058   000050E3           CMP      R0,#+0
   \   0000005C   0600000A           BEQ      ??ANPRO10_SendSysInfo_2
   1290                  strncpy((char *)Cmd.Data.SystemID, PROProjectInfo::PROProjectInfoPtr->ProjectName.c_str(), ANPRO10_ID_LENGTH);
   \   00000060   ........           LDR      R0,??DataTable24  ;; ??ProjectName
   \   00000064   ........           _BLF     ??c_str,??c_str??rA
   \   00000068   1420A0E3           MOV      R2,#+20
   \   0000006C   0010A0E1           MOV      R1,R0
   \   00000070   0D008DE2           ADD      R0,SP,#+13
   \   00000074   ........           _BLF     strncpy,??strncpy??rA
   \   00000078   020000EA           B        ??ANPRO10_SendSysInfo_3
   1291              } else {
   1292                  strcpy((char *)Cmd.Data.SystemID, "UNKNOWN");
   \                     ??ANPRO10_SendSysInfo_2:
   \   0000007C   1C119FE5           LDR      R1,??ANPRO10_SendSysInfo_1+0x8  ;; `?<Constant "UNKNOWN">`
   \   00000080   0D008DE2           ADD      R0,SP,#+13
   \   00000084   ........           _BLF     strcpy,??strcpy??rA
   1293              }
   1294              if (TSNConfigInfo::ConfigInfoPtr) {
   \                     ??ANPRO10_SendSysInfo_3:
   \   00000088   ........           LDR      R0,??DataTable25  ;; ??ConfigInfoPtr
   1295                  Cmd.Data.DataVersion = TSNConfigInfo::ConfigInfoPtr->PrevConfigDataRevision;
   1296              } else {
   1297                  Cmd.Data.DataVersion = 0;
   1298              }
   1299          #ifdef ANWIN
   1300              Cmd.Data.ProgramType = 2;
   1301          #else
   1302              Cmd.Data.ProgramType = 1;
   \   0000008C   0110A0E3           MOV      R1,#+1
   \   00000090   000090E5           LDR      R0,[R0, #+0]
   \   00000094   000050E3           CMP      R0,#+0
   \   00000098   3C019015           LDRNE    R0,[R0, #+316]
   \   0000009C   2100CD15           STRBNE   R0,[SP, #+33]
   \   000000A0   2004A011           LSRNE    R0,R0,#+8
   \   000000A4   2100CD05           STRBEQ   R0,[SP, #+33]
   \   000000A8   2200CDE5           STRB     R0,[SP, #+34]
   \   000000AC   0C10CDE5           STRB     R1,[SP, #+12]
   1303          #endif
   1304          #endif
   1305              Cmd.Data.ProgramVersion.Build         = MyProgramVersion.Build;
   \   000000B0   0710D4E5           LDRB     R1,[R4, #+7]
   1306              Cmd.Data.ProgramVersion.NewFunctions  = MyProgramVersion.NewFunctions;
   1307              Cmd.Data.ProgramVersion.PacketFormat  = MyProgramVersion.PacketFormat;
   1308              Cmd.Data.ProgramVersion.ProdNo        = MyProgramVersion.ProdNo;
   1309              Cmd.Data.BootVersion.Build            = BootVersion.Build;
   1310              Cmd.Data.BootVersion.NewFunctions     = BootVersion.NewFunctions;
   1311              Cmd.Data.BootVersion.PacketFormat     = BootVersion.PacketFormat;
   1312              Cmd.Data.BootVersion.ProdNo           = BootVersion.ProdNo;
   1313              Cmd.Data.ProgrDate                    = time(NULL); // EHSMark
   \   000000B4   0000A0E3           MOV      R0,#+0
   \   000000B8   2610CDE5           STRB     R1,[SP, #+38]
   \   000000BC   0610D4E5           LDRB     R1,[R4, #+6]
   \   000000C0   2510CDE5           STRB     R1,[SP, #+37]
   \   000000C4   0510D4E5           LDRB     R1,[R4, #+5]
   \   000000C8   2410CDE5           STRB     R1,[SP, #+36]
   \   000000CC   0410D4E5           LDRB     R1,[R4, #+4]
   \   000000D0   CC409FE5           LDR      R4,??ANPRO10_SendSysInfo_1+0xC  ;; 0x31fff000
   \   000000D4   2310CDE5           STRB     R1,[SP, #+35]
   \   000000D8   0310D4E5           LDRB     R1,[R4, #+3]
   \   000000DC   2A10CDE5           STRB     R1,[SP, #+42]
   \   000000E0   0210D4E5           LDRB     R1,[R4, #+2]
   \   000000E4   2910CDE5           STRB     R1,[SP, #+41]
   \   000000E8   0110D4E5           LDRB     R1,[R4, #+1]
   \   000000EC   2810CDE5           STRB     R1,[SP, #+40]
   \   000000F0   0010D4E5           LDRB     R1,[R4, #+0]
   \   000000F4   2710CDE5           STRB     R1,[SP, #+39]
   \   000000F8   ........           _BLF     time,??time??rA
   \   000000FC   2B00CDE5           STRB     R0,[SP, #+43]
   \   00000100   2004A0E1           LSR      R0,R0,#+8
   \   00000104   2C00CDE5           STRB     R0,[SP, #+44]
   \   00000108   2004A0E1           LSR      R0,R0,#+8
   \   0000010C   2D00CDE5           STRB     R0,[SP, #+45]
   \   00000110   2004A0E1           LSR      R0,R0,#+8
   \   00000114   2E00CDE5           STRB     R0,[SP, #+46]
   1314              Cmd.Data.LastOSError                  = LastOSError;
   \   00000118   100094E5           LDR      R0,[R4, #+16]
   1315              Cmd.Data.LastErrAddress               = LastErrAddress;
   1316              Cmd.Data.FlashErrorStatus             = FlashErrorStatus;
   1317              strncpy(Cmd.Data.LastOSErrorTask, (const char *)LastOSErrorTask, TASK_NAME_LENGTH);
   \   0000011C   2020A0E3           MOV      R2,#+32
   \   00000120   2F00CDE5           STRB     R0,[SP, #+47]
   \   00000124   2004A0E1           LSR      R0,R0,#+8
   \   00000128   3000CDE5           STRB     R0,[SP, #+48]
   \   0000012C   2004A0E1           LSR      R0,R0,#+8
   \   00000130   3100CDE5           STRB     R0,[SP, #+49]
   \   00000134   2004A0E1           LSR      R0,R0,#+8
   \   00000138   3200CDE5           STRB     R0,[SP, #+50]
   \   0000013C   480094E5           LDR      R0,[R4, #+72]
   \   00000140   1C1084E2           ADD      R1,R4,#+28
   \   00000144   3300CDE5           STRB     R0,[SP, #+51]
   \   00000148   2004A0E1           LSR      R0,R0,#+8
   \   0000014C   3400CDE5           STRB     R0,[SP, #+52]
   \   00000150   2004A0E1           LSR      R0,R0,#+8
   \   00000154   3500CDE5           STRB     R0,[SP, #+53]
   \   00000158   2004A0E1           LSR      R0,R0,#+8
   \   0000015C   3600CDE5           STRB     R0,[SP, #+54]
   \   00000160   180094E5           LDR      R0,[R4, #+24]
   \   00000164   3700CDE5           STRB     R0,[SP, #+55]
   \   00000168   2004A0E1           LSR      R0,R0,#+8
   \   0000016C   3800CDE5           STRB     R0,[SP, #+56]
   \   00000170   2004A0E1           LSR      R0,R0,#+8
   \   00000174   3900CDE5           STRB     R0,[SP, #+57]
   \   00000178   2004A0E1           LSR      R0,R0,#+8
   \   0000017C   3A00CDE5           STRB     R0,[SP, #+58]
   \   00000180   3B008DE2           ADD      R0,SP,#+59
   \   00000184   ........           _BLF     strncpy,??strncpy??rA
   1318          
   1319          
   1320              // Send the Data On the UrgentQueue
   1321              ANPRO10SendUrgent(&Cmd);    // TODO what if this fails
   \   00000188   0D00A0E1           MOV      R0,SP
   \   0000018C   ........           BL       ??ANPRO10SendUrgent
   1322          }
   \   00000190   5CD08DE2           ADD      SP,SP,#+92
   \   00000194   ........           B        ?Subroutine49
   \                     ??ANPRO10_SendSysInfo_1:
   \   00000198   ........           DC32     fake_uart_port_for_tcp_clientPtr
   \   0000019C   ........           DC32     ??PROProjectInfoPtr
   \   000001A0   ........           DC32     `?<Constant "UNKNOWN">`
   \   000001A4   00F0FF31           DC32     0x31fff000

   \                                 In segment CODE, align 4, keep-with-next
   \                     ?Subroutine49:
   \   00000000   1040BDE8           POP      {R4,LR}
   \   00000004   1EFF2FE1           BX       LR               ;; return
   \                     ??Subroutine49_0:
   \   00000008   ........           DC32     ??DaylightSaving
   1323          
   1324          

   \                                 In segment CODE, align 4, keep-with-next
   1325          void ANPRO10_SendAlarmSilence(void) {
   \                     ??ANPRO10_SendAlarmSilence:
   \   00000000   07402DE9           PUSH     {R0-R2,LR}
   1326          #if defined(ANFLASH) || defined(ANBOOTLOADER)
   1327          #else
   1328              QueueANPRO10_CommandHeading Command;
   1329              if (Master) {
   \   00000004   ........           LDR      R0,??DataTable47  ;; Master
   \   00000008   0010A0E3           MOV      R1,#+0
   \   0000000C   0000D0E5           LDRB     R0,[R0, #+0]
   \   00000010   00108DE5           STR      R1,[SP, #+0]
   \   00000014   000050E3           CMP      R0,#+0
   1330                  Command.TxInfo.Port        = NULL;
   1331                  Command.TxInfo.rxAddr      = DEVICE_BROADCAST_ADDR;
   \   00000018   FF10A013           MOVNE    R1,#+255
   \   0000001C   0410CD15           STRBNE   R1,[SP, #+4]
   1332                  Command.TxInfo.rxId        = DEVICE_BROADCAST_TXU;
   \   00000020   0E10A013           MOVNE    R1,#+14
   1333              } else {
   1334                  Command.TxInfo.Port        = NULL;
   1335                  Command.TxInfo.rxAddr      = DEVICE_MASTER;
   \   00000024   FE10A003           MOVEQ    R1,#+254
   \   00000028   0410CD05           STRBEQ   R1,[SP, #+4]
   1336                  Command.TxInfo.rxId        = DEVICE_TCU;
   \   0000002C   2010A003           MOVEQ    R1,#+32
   \   00000030   0510CDE5           STRB     R1,[SP, #+5]
   1337              }
   1338              Command.Data.CommandNo           = CMD_ALARM_SILENCE;
   \   00000034   1C10A0E3           MOV      R1,#+28
   \   00000038   C01E81E3           ORR      R1,R1,#0xC00
   \   0000003C   B610CDE1           STRH     R1,[SP, #+6]
   1339              Command.Data.ndb                 = 0;
   \   00000040   0010A0E3           MOV      R1,#+0
   \   00000044   B810CDE1           STRH     R1,[SP, #+8]
   1340              ANPRO10SendUrgent(&Command);
   \   00000048   0D00A0E1           MOV      R0,SP
   \   0000004C   ........           BL       ??ANPRO10SendUrgent
   1341              AlarmBasic::AlarmSilence     = true;
   \   00000050   08009FE5           LDR      R0,??ANPRO10_SendAlarmSilence_1  ;; ??AlarmSilence
   \   00000054   0110A0E3           MOV      R1,#+1
   \   00000058   0010C0E5           STRB     R1,[R0, #+0]
   1342          #endif
   1343          }
   \   0000005C   ........           B        ??Subroutine43_0
   \                     ??ANPRO10_SendAlarmSilence_1:
   \   00000060   ........           DC32     ??AlarmSilence

   \                                 In segment CODE, align 4, keep-with-next
   \                     ?Subroutine43:
   \   00000000   0D00A0E1           MOV      R0,SP
   \   00000004   ........           BL       ??ANPRO10SendUrgent
   \                     ??Subroutine43_0:
   \   00000008   0740BDE8           POP      {R0-R2,LR}
   \   0000000C   1EFF2FE1           BX       LR               ;; return
   1344          

   \                                 In segment CODE, align 4, keep-with-next
   1345          void ANPRO10_SendBuzzerTest(char TestMode) {
   \                     ??ANPRO10_SendBuzzerTest:
   \   00000000   07402DE9           PUSH     {R0-R2,LR}
   1346          #if defined(ANFLASH) || defined(ANBOOTLOADER)
   1347          #else
   1348              QueueANPRO10_COMMAND_3110 Command;
   1349              if (Master) {
   \   00000004   ........           LDR      R1,??DataTable47  ;; Master
   \   00000008   0020A0E3           MOV      R2,#+0
   \   0000000C   0010D1E5           LDRB     R1,[R1, #+0]
   \   00000010   00208DE5           STR      R2,[SP, #+0]
   1350                  Command.TxInfo.Port      = NULL;
   1351                  Command.TxInfo.rxAddr    = DEVICE_BROADCAST_ADDR;
   1352                  Command.TxInfo.rxId      = DEVICE_BROADCAST_TXU;
   1353              } else {
   1354                  Command.TxInfo.Port      = NULL;
   1355                  Command.TxInfo.rxAddr    = DEVICE_MASTER;
   1356                  Command.TxInfo.rxId      = DEVICE_TCU;
   1357              }
   1358              Command.Data.CommandNo = CMD_BUZZER_TEST;
   1359              Command.Data.ndb       = 1;
   1360              Command.Data.TestMode  = TestMode;
   \   00000014   0A00CDE5           STRB     R0,[SP, #+10]
   \   00000018   000051E3           CMP      R1,#+0
   \   0000001C   FF20A013           MOVNE    R2,#+255
   \   00000020   0420CD15           STRBNE   R2,[SP, #+4]
   \   00000024   0E20A013           MOVNE    R2,#+14
   \   00000028   FE20A003           MOVEQ    R2,#+254
   \   0000002C   0420CD05           STRBEQ   R2,[SP, #+4]
   \   00000030   2020A003           MOVEQ    R2,#+32
   \   00000034   0520CDE5           STRB     R2,[SP, #+5]
   \   00000038   2620A0E3           MOV      R2,#+38
   \   0000003C   C02E82E3           ORR      R2,R2,#0xC00
   \   00000040   B620CDE1           STRH     R2,[SP, #+6]
   \   00000044   0120A0E3           MOV      R2,#+1
   \   00000048   B820CDE1           STRH     R2,[SP, #+8]
   1361              ANPRO10SendUrgent(&Command);
   \   0000004C   ........           B        ?Subroutine43
   1362          #endif
   1363          }
   1364          

   \                                 In segment CODE, align 4, keep-with-next
   1365          void ANPRO10_SendZerosetAll(U16 CommandNo) {
   \                     ??ANPRO10_SendZerosetAll:
   \   00000000   07402DE9           PUSH     {R0-R2,LR}
   1366          #if defined(ANFLASH) || defined(ANBOOTLOADER)
   1367          #else
   1368              QueueANPRO10_CommandHeading Command;
   1369              if (Master) {
   \   00000004   ........           LDR      R1,??DataTable47  ;; Master
   \   00000008   0020A0E3           MOV      R2,#+0
   \   0000000C   0010D1E5           LDRB     R1,[R1, #+0]
   \   00000010   00208DE5           STR      R2,[SP, #+0]
   1370                  Command.TxInfo.Port      = NULL;
   1371                  Command.TxInfo.rxAddr    = DEVICE_BROADCAST_ADDR;
   1372                  Command.TxInfo.rxId      = DEVICE_BROADCAST_TXU;
   1373              } else {
   1374                  Command.TxInfo.Port      = NULL;
   1375                  Command.TxInfo.rxAddr    = DEVICE_MASTER;
   1376                  Command.TxInfo.rxId      = DEVICE_TCU;
   1377              }
   1378              Command.Data.CommandNo = CommandNo;
   \   00000014   B600CDE1           STRH     R0,[SP, #+6]
   \   00000018   000051E3           CMP      R1,#+0
   \   0000001C   FF20A013           MOVNE    R2,#+255
   \   00000020   0420CD15           STRBNE   R2,[SP, #+4]
   \   00000024   0E20A013           MOVNE    R2,#+14
   \   00000028   FE20A003           MOVEQ    R2,#+254
   \   0000002C   0420CD05           STRBEQ   R2,[SP, #+4]
   \   00000030   2020A003           MOVEQ    R2,#+32
   \   00000034   0520CDE5           STRB     R2,[SP, #+5]
   1379              Command.Data.ndb       = 0;
   \   00000038   0010A0E3           MOV      R1,#+0
   \   0000003C   B810CDE1           STRH     R1,[SP, #+8]
   1380              ANPRO10SendUrgent(&Command);
   \   00000040                      REQUIRE ?Subroutine43
   \   00000040                      ;; // Fall through to label ?Subroutine43
   1381          #endif
   1382          }
   1383          

   \                                 In segment CODE, align 4, keep-with-next
   1384          void ANPRO10_ReceiveZerosetAll(U16 CommandNo) {
   1385          #if defined(ANFLASH) || defined(ANBOOTLOADER)
   1386          #else
   1387              switch (CommandNo) {
   \                     ??ANPRO10_ReceiveZerosetAll:
   \   00000000   40129FE5           LDR      R1,??ANPRO10_ReceiveZerosetAll_1  ;; ??ObjectSet
   \   00000004   40C29FE5           LDR      R12,??ANPRO10_ReceiveZerosetAll_1+0x4  ;; ??ObjectSet_1
   \   00000008   40329FE5           LDR      R3,??ANPRO10_ReceiveZerosetAll_1+0x8  ;; ??ObjectSet_2
   \   0000000C   40229FE5           LDR      R2,??ANPRO10_ReceiveZerosetAll_1+0xC  ;; ??ObjectSet_3
   \   00000010   00402DE9           PUSH     {LR}
   \   00000014   76DF4DE2           SUB      SP,SP,#+472
   \   00000018   C80E50E2           SUBS     R0,R0,#+3200
   \   0000001C   1200000A           BEQ      ??ANPRO10_ReceiveZerosetAll_2
   \   00000020   010050E2           SUBS     R0,R0,#+1
   \   00000024   1C00000A           BEQ      ??ANPRO10_ReceiveZerosetAll_3
   \   00000028   090050E2           SUBS     R0,R0,#+9
   \   0000002C   2600000A           BEQ      ??ANPRO10_ReceiveZerosetAll_4
   \   00000030   010050E2           SUBS     R0,R0,#+1
   \   00000034   3100000A           BEQ      ??ANPRO10_ReceiveZerosetAll_5
   \   00000038   090050E2           SUBS     R0,R0,#+9
   \   0000003C   3C00000A           BEQ      ??ANPRO10_ReceiveZerosetAll_6
   \   00000040   010050E2           SUBS     R0,R0,#+1
   \   00000044   4700000A           BEQ      ??ANPRO10_ReceiveZerosetAll_7
   \   00000048   090050E2           SUBS     R0,R0,#+9
   \   0000004C   5200000A           BEQ      ??ANPRO10_ReceiveZerosetAll_8
   \   00000050   0A0050E2           SUBS     R0,R0,#+10
   \   00000054   5800000A           BEQ      ??ANPRO10_ReceiveZerosetAll_9
   \   00000058   0A0050E2           SUBS     R0,R0,#+10
   \   0000005C   5D00000A           BEQ      ??ANPRO10_ReceiveZerosetAll_10
   \   00000060   010050E2           SUBS     R0,R0,#+1
   \   00000064   6800000A           BEQ      ??ANPRO10_ReceiveZerosetAll_11
   \   00000068   740000EA           B        ??ANPRO10_ReceiveZerosetAll_12
   1388              case CMD_ZSET_ALL_CARGO_LEVEL      :
   1389                  PROTank::ZeroSetAllLevelSensors(PROCargoTank::ObjectSet, false);
   \                     ??ANPRO10_ReceiveZerosetAll_2:
   \   0000006C   460F8DE2           ADD      R0,SP,#+280
   \   00000070   ........           _BLF     ??set,??set??rA
   \   00000074   0020A0E3           MOV      R2,#+0
   \   00000078   0010A0E1           MOV      R1,R0
   \   0000007C   0D00A0E1           MOV      R0,SP
   \   00000080   ........           _BLF     ??ZeroSetAllLevelSensors,??ZeroSetAllLevelSensors??rA
   \   00000084   0020A0E3           MOV      R2,#+0
   \   00000088   0110A0E3           MOV      R1,#+1
   \   0000008C   0D00A0E1           MOV      R0,SP
   \   00000090   ........           _BLF     ??_Tidy,??_Tidy??rA
   \   00000094   460F8DE2           ADD      R0,SP,#+280
   \   00000098   670000EA           B        ??ANPRO10_ReceiveZerosetAll_13
   1390                  break;
   1391              case CMD_ZSET_ALL_CARGO_TANK_PRESS      :
   1392                  PROTank::ZeroSetAllTankPressureSensor(PROCargoTank::ObjectSet, false);
   \                     ??ANPRO10_ReceiveZerosetAll_3:
   \   0000009C   4C0F8DE2           ADD      R0,SP,#+304
   \   000000A0   ........           _BLF     ??set,??set??rA
   \   000000A4   0020A0E3           MOV      R2,#+0
   \   000000A8   0010A0E1           MOV      R1,R0
   \   000000AC   1C008DE2           ADD      R0,SP,#+28
   \   000000B0   ........           _BLF     ??ZeroSetAllTankPressureSensor,??ZeroSetAllTankPressureSensor??rA
   \   000000B4   0020A0E3           MOV      R2,#+0
   \   000000B8   0110A0E3           MOV      R1,#+1
   \   000000BC   1C008DE2           ADD      R0,SP,#+28
   \   000000C0   ........           _BLF     ??_Tidy,??_Tidy??rA
   \   000000C4   4C0F8DE2           ADD      R0,SP,#+304
   \   000000C8   5B0000EA           B        ??ANPRO10_ReceiveZerosetAll_13
   1393                  break;
   1394              case CMD_ZSET_ALL_BALLAST_LEVEL    :
   1395                  PROTank::ZeroSetAllLevelSensors(PROBallastTank::ObjectSet, false);
   \                     ??ANPRO10_ReceiveZerosetAll_4:
   \   000000CC   0C10A0E1           MOV      R1,R12
   \   000000D0   520F8DE2           ADD      R0,SP,#+328
   \   000000D4   ........           _BLF     ??set,??set??rA
   \   000000D8   0020A0E3           MOV      R2,#+0
   \   000000DC   0010A0E1           MOV      R1,R0
   \   000000E0   38008DE2           ADD      R0,SP,#+56
   \   000000E4   ........           _BLF     ??ZeroSetAllLevelSensors,??ZeroSetAllLevelSensors??rA
   \   000000E8   0020A0E3           MOV      R2,#+0
   \   000000EC   0110A0E3           MOV      R1,#+1
   \   000000F0   38008DE2           ADD      R0,SP,#+56
   \   000000F4   ........           _BLF     ??_Tidy,??_Tidy??rA
   \   000000F8   520F8DE2           ADD      R0,SP,#+328
   \   000000FC   4E0000EA           B        ??ANPRO10_ReceiveZerosetAll_13
   1396                  break;
   1397              case CMD_ZSET_ALL_BALLAST_TANK_PRESS    :
   1398                  PROTank::ZeroSetAllTankPressureSensor(PROBallastTank::ObjectSet, false);
   \                     ??ANPRO10_ReceiveZerosetAll_5:
   \   00000100   0C10A0E1           MOV      R1,R12
   \   00000104   580F8DE2           ADD      R0,SP,#+352
   \   00000108   ........           _BLF     ??set,??set??rA
   \   0000010C   0020A0E3           MOV      R2,#+0
   \   00000110   0010A0E1           MOV      R1,R0
   \   00000114   54008DE2           ADD      R0,SP,#+84
   \   00000118   ........           _BLF     ??ZeroSetAllTankPressureSensor,??ZeroSetAllTankPressureSensor??rA
   \   0000011C   0020A0E3           MOV      R2,#+0
   \   00000120   0110A0E3           MOV      R1,#+1
   \   00000124   54008DE2           ADD      R0,SP,#+84
   \   00000128   ........           _BLF     ??_Tidy,??_Tidy??rA
   \   0000012C   580F8DE2           ADD      R0,SP,#+352
   \   00000130   410000EA           B        ??ANPRO10_ReceiveZerosetAll_13
   1399                  break;
   1400              case CMD_ZSET_ALL_SERVICE_LEVEL    :
   1401                  PROTank::ZeroSetAllLevelSensors(PROServiceTank::ObjectSet, false);
   \                     ??ANPRO10_ReceiveZerosetAll_6:
   \   00000134   0310A0E1           MOV      R1,R3
   \   00000138   5E0F8DE2           ADD      R0,SP,#+376
   \   0000013C   ........           _BLF     ??set,??set??rA
   \   00000140   0020A0E3           MOV      R2,#+0
   \   00000144   0010A0E1           MOV      R1,R0
   \   00000148   70008DE2           ADD      R0,SP,#+112
   \   0000014C   ........           _BLF     ??ZeroSetAllLevelSensors,??ZeroSetAllLevelSensors??rA
   \   00000150   0020A0E3           MOV      R2,#+0
   \   00000154   0110A0E3           MOV      R1,#+1
   \   00000158   70008DE2           ADD      R0,SP,#+112
   \   0000015C   ........           _BLF     ??_Tidy,??_Tidy??rA
   \   00000160   5E0F8DE2           ADD      R0,SP,#+376
   \   00000164   340000EA           B        ??ANPRO10_ReceiveZerosetAll_13
   1402                  break;
   1403              case CMD_ZSET_ALL_SERVICE_TANK_PRESS    :
   1404                  PROTank::ZeroSetAllTankPressureSensor(PROServiceTank::ObjectSet, false);
   \                     ??ANPRO10_ReceiveZerosetAll_7:
   \   00000168   0310A0E1           MOV      R1,R3
   \   0000016C   640F8DE2           ADD      R0,SP,#+400
   \   00000170   ........           _BLF     ??set,??set??rA
   \   00000174   0020A0E3           MOV      R2,#+0
   \   00000178   0010A0E1           MOV      R1,R0
   \   0000017C   8C008DE2           ADD      R0,SP,#+140
   \   00000180   ........           _BLF     ??ZeroSetAllTankPressureSensor,??ZeroSetAllTankPressureSensor??rA
   \   00000184   0020A0E3           MOV      R2,#+0
   \   00000188   0110A0E3           MOV      R1,#+1
   \   0000018C   8C008DE2           ADD      R0,SP,#+140
   \   00000190   ........           _BLF     ??_Tidy,??_Tidy??rA
   \   00000194   640F8DE2           ADD      R0,SP,#+400
   \   00000198   270000EA           B        ??ANPRO10_ReceiveZerosetAll_13
   1405                  break;
   1406              case CMD_ZSET_ALL_TANK_PRESS  :
   1407                  PROTankPressure::ZeroSetAllTankPressureSensors(false);
   \                     ??ANPRO10_ReceiveZerosetAll_8:
   \   0000019C   0010A0E3           MOV      R1,#+0
   \   000001A0   A8008DE2           ADD      R0,SP,#+168
   \   000001A4   ........           _BLF     ??ZeroSetAllTankPressureSensors,??ZeroSetAllTankPressureSensors??rA
   \   000001A8   0020A0E3           MOV      R2,#+0
   \   000001AC   0110A0E3           MOV      R1,#+1
   \   000001B0   A8008DE2           ADD      R0,SP,#+168
   \                     ??ANPRO10_ReceiveZerosetAll_14:
   \   000001B4   ........           _BLF     ??_Tidy,??_Tidy??rA
   \   000001B8   200000EA           B        ??ANPRO10_ReceiveZerosetAll_12
   1408                  break;
   1409              case CMD_ZSET_ALL_LINE_PRESS  :
   1410                  PROLinePressure::ZeroSetAllLinePressureSensors(false);
   \                     ??ANPRO10_ReceiveZerosetAll_9:
   \   000001BC   0010A0E3           MOV      R1,#+0
   \   000001C0   C4008DE2           ADD      R0,SP,#+196
   \   000001C4   ........           _BLF     ??ZeroSetAllLinePressureSensors,??ZeroSetAllLinePressureSensors??rA
   \   000001C8   0020A0E3           MOV      R2,#+0
   \   000001CC   0110A0E3           MOV      R1,#+1
   \   000001D0   C4008DE2           ADD      R0,SP,#+196
   \   000001D4   F6FFFFEA           B        ??ANPRO10_ReceiveZerosetAll_14
   1411                  break;
   1412              case CMD_ZSET_ALL_VOIDSPACE_LEVEL:
   1413                  PROTank::ZeroSetAllLevelSensors(PROVoidSpace::ObjectSet, false);
   \                     ??ANPRO10_ReceiveZerosetAll_10:
   \   000001D8   0210A0E1           MOV      R1,R2
   \   000001DC   6A0F8DE2           ADD      R0,SP,#+424
   \   000001E0   ........           _BLF     ??set,??set??rA
   \   000001E4   0020A0E3           MOV      R2,#+0
   \   000001E8   0010A0E1           MOV      R1,R0
   \   000001EC   E0008DE2           ADD      R0,SP,#+224
   \   000001F0   ........           _BLF     ??ZeroSetAllLevelSensors,??ZeroSetAllLevelSensors??rA
   \   000001F4   0020A0E3           MOV      R2,#+0
   \   000001F8   0110A0E3           MOV      R1,#+1
   \   000001FC   E0008DE2           ADD      R0,SP,#+224
   \   00000200   ........           _BLF     ??_Tidy,??_Tidy??rA
   \   00000204   6A0F8DE2           ADD      R0,SP,#+424
   \   00000208   0B0000EA           B        ??ANPRO10_ReceiveZerosetAll_13
   1414                  break;
   1415              case CMD_ZSET_ALL_VOIDSPACE_PRESS:
   1416                  PROTank::ZeroSetAllTankPressureSensor(PROVoidSpace::ObjectSet, false);
   \                     ??ANPRO10_ReceiveZerosetAll_11:
   \   0000020C   0210A0E1           MOV      R1,R2
   \   00000210   700F8DE2           ADD      R0,SP,#+448
   \   00000214   ........           _BLF     ??set,??set??rA
   \   00000218   0020A0E3           MOV      R2,#+0
   \   0000021C   0010A0E1           MOV      R1,R0
   \   00000220   FC008DE2           ADD      R0,SP,#+252
   \   00000224   ........           _BLF     ??ZeroSetAllTankPressureSensor,??ZeroSetAllTankPressureSensor??rA
   \   00000228   0020A0E3           MOV      R2,#+0
   \   0000022C   0110A0E3           MOV      R1,#+1
   \   00000230   FC008DE2           ADD      R0,SP,#+252
   \   00000234   ........           _BLF     ??_Tidy,??_Tidy??rA
   \   00000238   700F8DE2           ADD      R0,SP,#+448
   \                     ??ANPRO10_ReceiveZerosetAll_13:
   \   0000023C   ........           _BLF     `?~set_1`,`?~set??rA`
   1417                  break;
   1418              }
   1419          #endif
   1420          }
   \                     ??ANPRO10_ReceiveZerosetAll_12:
   \   00000240   76DF8DE2           ADD      SP,SP,#+472
   \   00000244   ........           B        ??Subroutine44_1
   \                     ??ANPRO10_ReceiveZerosetAll_1:
   \   00000248   ........           DC32     ??ObjectSet
   \   0000024C   ........           DC32     ??ObjectSet_1
   \   00000250   ........           DC32     ??ObjectSet_2
   \   00000254   ........           DC32     ??ObjectSet_3

   \                                 In segment CODE, align 4, keep-with-next
   \                     ?Subroutine44:
   \   00000000   703E83E3           ORR      R3,R3,#0x700
   \                     ??Subroutine44_0:
   \   00000004   ........           BL       ??ANPRO10SendCommand
   \                     ??Subroutine44_1:
   \   00000008   0040BDE8           POP      {LR}
   \   0000000C   1EFF2FE1           BX       LR               ;; return
   1421          

   \                                 In segment CODE, align 4, keep-with-next
   1422          void ANPRO10_SendTime(bool Fast) {
   \                     ??ANPRO10_SendTime:
   \   00000000   10402DE9           PUSH     {R4,LR}
   \   00000004   0040A0E1           MOV      R4,R0
   1423          #if defined(ANFLASH) || defined(ANBOOTLOADER)
   1424          #else
   1425              QueueANPRO10_COMMAND_2020 Command;
   1426              if (Master) {
   \   00000008   ........           LDR      R0,??DataTable47  ;; Master
   \   0000000C   18D04DE2           SUB      SP,SP,#+24
   \   00000010   0000D0E5           LDRB     R0,[R0, #+0]
   \   00000014   0010A0E3           MOV      R1,#+0
   \   00000018   00108DE5           STR      R1,[SP, #+0]
   \   0000001C   000050E3           CMP      R0,#+0
   1427                  Command.TxInfo.Port       = NULL;
   1428                  Command.TxInfo.rxAddr     = DEVICE_BROADCAST_ADDR;
   \   00000020   FF10A013           MOVNE    R1,#+255
   \   00000024   0410CD15           STRBNE   R1,[SP, #+4]
   1429                  Command.TxInfo.rxId       = DEVICE_BROADCAST_TXU;
   \   00000028   0E10A013           MOVNE    R1,#+14
   1430              } else {
   1431                  Command.TxInfo.Port       = NULL;
   1432                  Command.TxInfo.rxAddr     = DEVICE_MASTER;
   \   0000002C   FE10A003           MOVEQ    R1,#+254
   \   00000030   0410CD05           STRBEQ   R1,[SP, #+4]
   1433                  Command.TxInfo.rxId       = DEVICE_TCU;
   \   00000034   2010A003           MOVEQ    R1,#+32
   \   00000038   0510CDE5           STRB     R1,[SP, #+5]
   1434              }
   1435              Command.Data.CommandNo        = CMD_TXU_TIME;
   \   0000003C   E410A0E3           MOV      R1,#+228
   \   00000040   701E81E3           ORR      R1,R1,#0x700
   \   00000044   B610CDE1           STRH     R1,[SP, #+6]
   1436              Command.Data.ndb              = sizeof(Command) - sizeof(QueueANPRO10_CommandHeading);
   \   00000048   0C10A0E3           MOV      R1,#+12
   \   0000004C   B810CDE1           STRH     R1,[SP, #+8]
   1437              Command.Data.NewTime          = time(NULL);
   \   00000050   0000A0E3           MOV      R0,#+0
   \   00000054   ........           _BLF     time,??time??rA
   \   00000058   0A00CDE5           STRB     R0,[SP, #+10]
   \   0000005C   2004A0E1           LSR      R0,R0,#+8
   \   00000060   0B00CDE5           STRB     R0,[SP, #+11]
   \   00000064   2004A0E1           LSR      R0,R0,#+8
   \   00000068   0C00CDE5           STRB     R0,[SP, #+12]
   \   0000006C   2004A0E1           LSR      R0,R0,#+8
   \   00000070   0D00CDE5           STRB     R0,[SP, #+13]
   1438              Command.Data.TimeZone         = TSNTimeZone();
   \   00000074   ........           _BLF     ??TSNTimeZone,??TSNTimeZone??rA
   \   00000078   0E00CDE5           STRB     R0,[SP, #+14]
   \   0000007C   2004A0E1           LSR      R0,R0,#+8
   \   00000080   0F00CDE5           STRB     R0,[SP, #+15]
   \   00000084   2004A0E1           LSR      R0,R0,#+8
   \   00000088   1000CDE5           STRB     R0,[SP, #+16]
   \   0000008C   2004A0E1           LSR      R0,R0,#+8
   \   00000090   1100CDE5           STRB     R0,[SP, #+17]
   1439              Command.Data.DaylightSaving   = PROSystemData::DaylightSaving;
   \   00000094   ........           LDR      R0,??Subroutine49_0  ;; ??DaylightSaving
   1440              if (Fast) {
   \   00000098   000054E3           CMP      R4,#+0
   \   0000009C   000090E5           LDR      R0,[R0, #+0]
   \   000000A0   1200CDE5           STRB     R0,[SP, #+18]
   \   000000A4   2004A0E1           LSR      R0,R0,#+8
   \   000000A8   1300CDE5           STRB     R0,[SP, #+19]
   \   000000AC   2004A0E1           LSR      R0,R0,#+8
   \   000000B0   1400CDE5           STRB     R0,[SP, #+20]
   \   000000B4   2004A0E1           LSR      R0,R0,#+8
   \   000000B8   1500CDE5           STRB     R0,[SP, #+21]
   \   000000BC   0D00A0E1           MOV      R0,SP
   \   000000C0   0100000A           BEQ      ??ANPRO10_SendTime_1
   1441                  ANPRO10SendUrgent(&Command);
   \   000000C4   ........           BL       ??ANPRO10SendUrgent
   \   000000C8   000000EA           B        ??ANPRO10_SendTime_2
   1442              } else {
   1443                  ANPRO10SendNormal(&Command);
   \                     ??ANPRO10_SendTime_1:
   \   000000CC   ........           BL       ??ANPRO10SendNormal
   1444              }
   1445          #endif
   1446          }
   \                     ??ANPRO10_SendTime_2:
   \   000000D0   18D08DE2           ADD      SP,SP,#+24
   \   000000D4                      REQUIRE ?Subroutine49
   \   000000D4                      ;; // Fall through to label ?Subroutine49
   1447          
   1448          

   \                                 In segment CODE, align 4, keep-with-next
   1449          void ANPRO10_ReceiveTime(ANPRO10_CommandHeading *pCH) {
   \                     ??ANPRO10_ReceiveTime:
   \   00000000   10402DE9           PUSH     {R4,LR}
   \   00000004   0040A0E1           MOV      R4,R0
   1450          #if defined(ANFLASH)// || defined(ANBOOTLOADER)
   1451          #else
   1452              ANPRO10_COMMAND_2020 *Command = (ANPRO10_COMMAND_2020 *)pCH;
   1453          #ifdef S2TXU
   1454              if (Command->NewTime < 0x7f000000) {
   \   00000008   0700D4E5           LDRB     R0,[R4, #+7]
   \   0000000C   0610D4E5           LDRB     R1,[R4, #+6]
   \   00000010   000481E1           ORR      R0,R1,R0, LSL #+8
   \   00000014   0510D4E5           LDRB     R1,[R4, #+5]
   \   00000018   000481E1           ORR      R0,R1,R0, LSL #+8
   \   0000001C   0410D4E5           LDRB     R1,[R4, #+4]
   \   00000020   000481E1           ORR      R0,R1,R0, LSL #+8
   \   00000024   7F0450E3           CMP      R0,#+2130706432
   \   00000028   1D0000AA           BGE      ??ANPRO10_ReceiveTime_1
   1455                  TSNSetTimeZone(Command->TimeZone);
   \   0000002C   0B00D4E5           LDRB     R0,[R4, #+11]
   \   00000030   0A10D4E5           LDRB     R1,[R4, #+10]
   \   00000034   000481E1           ORR      R0,R1,R0, LSL #+8
   \   00000038   0910D4E5           LDRB     R1,[R4, #+9]
   \   0000003C   000481E1           ORR      R0,R1,R0, LSL #+8
   \   00000040   0810D4E5           LDRB     R1,[R4, #+8]
   \   00000044   000481E1           ORR      R0,R1,R0, LSL #+8
   \   00000048   ........           _BLF     ??TSNSetTimeZone,??TSNSetTimeZone??rA
   1456                  PROSystemData::SetDST(Command->DaylightSaving);
   \   0000004C   0F00D4E5           LDRB     R0,[R4, #+15]
   \   00000050   0E10D4E5           LDRB     R1,[R4, #+14]
   \   00000054   000481E1           ORR      R0,R1,R0, LSL #+8
   \   00000058   0D10D4E5           LDRB     R1,[R4, #+13]
   \   0000005C   000481E1           ORR      R0,R1,R0, LSL #+8
   \   00000060   0C10D4E5           LDRB     R1,[R4, #+12]
   \   00000064   000481E1           ORR      R0,R1,R0, LSL #+8
   \   00000068   ........           _BLF     ??SetDST,??SetDST??rA
   1457                  SetRTC(Command->NewTime);
   \   0000006C   0700D4E5           LDRB     R0,[R4, #+7]
   \   00000070   0610D4E5           LDRB     R1,[R4, #+6]
   \   00000074   000481E1           ORR      R0,R1,R0, LSL #+8
   \   00000078   0510D4E5           LDRB     R1,[R4, #+5]
   \   0000007C   000481E1           ORR      R0,R1,R0, LSL #+8
   \   00000080   0410D4E5           LDRB     R1,[R4, #+4]
   \   00000084   000481E1           ORR      R0,R1,R0, LSL #+8
   \   00000088   ........           _BLF     ??SetRTC,??SetRTC??rA
   1458                  if (Master) {
   \   0000008C   ........           LDR      R0,??DataTable47  ;; Master
   \   00000090   0000D0E5           LDRB     R0,[R0, #+0]
   \   00000094   000050E3           CMP      R0,#+0
   \   00000098   0100000A           BEQ      ??ANPRO10_ReceiveTime_1
   1459                      ANPRO10_SendTime();
   \   0000009C   0100A0E3           MOV      R0,#+1
   \   000000A0   ........           BL       ??ANPRO10_SendTime
   1460                  }
   1461              }
   1462          #endif
   1463          #endif
   1464          }
   \                     ??ANPRO10_ReceiveTime_1:
   \   000000A4   ........           B        ?Subroutine49
   1465          
   1466          
   1467          /*************************************************************************************************
   1468          *
   1469          *
   1470          *     ANPRO10_SendRestartTXU(TSNUart *port)
   1471          *
   1472          *
   1473          *************************************************************************************************/

   \                                 In segment CODE, align 4, keep-with-next
   1474          void ANPRO10_SendRestartTXU(TSNUart *port, unsigned RxAddress, unsigned RxTypeId) {
   \                     ??ANPRO10_SendRestartTXU:
   \   00000000   00402DE9           PUSH     {LR}
   1475              ANPRO10SendCommand(port, RxAddress, RxTypeId, CMD_START_PROGRAM_ON_TXU);
   \   00000004   F53EA0E3           MOV      R3,#+3920
   \   00000008   ........           B        ??Subroutine44_0
   1476          }
   1477          
   1478          /*************************************************************************************************
   1479          *
   1480          *
   1481          *     ANPRO10_SendSuspendIO(TSNUart *port)
   1482          *
   1483          *
   1484          *************************************************************************************************/

   \                                 In segment CODE, align 4, keep-with-next
   1485          void ANPRO10_SendSuspendIO(TSNUart *port, unsigned RxAddress, unsigned RxTypeId) {
   \                     ??ANPRO10_SendSuspendIO:
   \   00000000   00402DE9           PUSH     {LR}
   1486              ANPRO10SendCommand(port, RxAddress, RxTypeId, CMD_TXU_STOP_TX);
   \   00000004   D230A0E3           MOV      R3,#+210
   \   00000008   ........           B        ?Subroutine44
   1487          }
   1488          /*************************************************************************************************
   1489          *
   1490          *
   1491          *     ANPRO10_SendResumeIO(TSNUart *port)
   1492          *
   1493          *
   1494          *************************************************************************************************/

   \                                 In segment CODE, align 4, keep-with-next
   1495          void ANPRO10_SendResumeIO(TSNUart *port, unsigned RxAddress, unsigned RxTypeId) {
   \                     ??ANPRO10_SendResumeIO:
   \   00000000   00402DE9           PUSH     {LR}
   1496              ANPRO10SendCommand(port, RxAddress, RxTypeId, CMD_TXU_START_TX);
   \   00000004   D530A0E3           MOV      R3,#+213
   \   00000008                      REQUIRE ?Subroutine44
   \   00000008                      ;; // Fall through to label ?Subroutine44
   1497          }
   1498          
   1499          /*************************************************************************************************
   1500          *
   1501          *
   1502          *     ANPRO10_SenReqSysInfo(TSNUart *port)
   1503          *
   1504          *
   1505          *************************************************************************************************/
   1506          #ifndef ANFLASH

   \                                 In segment CODE, align 4, keep-with-next
   1507          static bool
   1508          anpro_net_check_project_config_against_master(ANPRO10_COMMAND_2001 *masterSysInfo) {
   \                     ??anpro_net_check_project_config_against_master_1:
   \   00000000   10402DE9           PUSH     {R4,LR}
   \   00000004   14D04DE2           SUB      SP,SP,#+20
   \   00000008   0040A0E1           MOV      R4,R0
   1509              char master_system_id[ANPRO10_ID_LENGTH];
   1510              U16  master_data_version;
   1511          
   1512              strcpy(master_system_id, masterSysInfo->SystemID);
   \   0000000C   071084E2           ADD      R1,R4,#+7
   \   00000010   0D00A0E1           MOV      R0,SP
   \   00000014   ........           _BLF     strcpy,??strcpy??rA
   1513              master_data_version = masterSysInfo->DataVersion;
   \   00000018   1C00D4E5           LDRB     R0,[R4, #+28]
   \   0000001C   1B10D4E5           LDRB     R1,[R4, #+27]
   \   00000020   004481E1           ORR      R4,R1,R0, LSL #+8
   1514          
   1515              if (strncmp(master_system_id, PROProjectInfo::PROProjectInfoPtr->ProjectName.c_str(), ANPRO10_ID_LENGTH - 1) ||
   1516                  master_data_version != TSNConfigInfo::ConfigInfoPtr->PrevConfigDataRevision) {
   \   00000024   ........           LDR      R0,??DataTable24  ;; ??ProjectName
   \   00000028   ........           _BLF     ??c_str,??c_str??rA
   \   0000002C   1320A0E3           MOV      R2,#+19
   \   00000030   0010A0E1           MOV      R1,R0
   \   00000034   0D00A0E1           MOV      R0,SP
   \   00000038   ........           _BLF     strncmp,??strncmp??rA
   \   0000003C   000050E3           CMP      R0,#+0
   \   00000040   ........           LDREQ    R0,??DataTable25  ;; ??ConfigInfoPtr
   \   00000044   00009005           LDREQ    R0,[R0, #+0]
   \   00000048   3C019005           LDREQ    R0,[R0, #+316]
   1517                  return false;
   1518              }
   1519              return true;
   \   0000004C   14D08DE2           ADD      SP,SP,#+20
   \   00000050   00005401           CMPEQ    R4,R0
   \   00000054   1040BDE8           POP      {R4,LR}
   \   00000058   0000A013           MOVNE    R0,#+0
   \   0000005C   0100A003           MOVEQ    R0,#+1
   \   00000060   1EFF2FE1           BX       LR               ;; return
   1520          }
   1521          
   1522          static bool
   1523          anpro_net_check_program_version_against_master(ANPRO10_COMMAND_2001 *masterSysInfo) {
   1524              ProgramVersionInfo  master_version;
   1525          
   1526              master_version.Build          = masterSysInfo->ProgramVersion.Build;
   1527              master_version.NewFunctions   = masterSysInfo->ProgramVersion.NewFunctions;
   1528              master_version.PacketFormat   = masterSysInfo->ProgramVersion.PacketFormat;
   1529              master_version.ProdNo         = masterSysInfo->ProgramVersion.ProdNo;
   1530          
   1531              if (memcmp(&MyProgramVersion, &master_version, sizeof(ProgramVersionInfo)) != 0) {
   1532                  return false;
   1533              }
   1534              return true;
   1535          }
   1536          
   1537          static void
   1538          anpro_net_check_sysinfo(TSNUart *port, ANPRO10_COMMAND_2001 *sysInfo) {
   1539              //
   1540              // only for PC, TDU, and slave TCU
   1541              // for master TCU, it shouldn't be executed.
   1542              //
   1543              if (Master) {
   1544                  return;
   1545              }
   1546          
   1547              // XXX
   1548              // at the momemnt, we handle only normal program cases.
   1549              // upgrade in bootloader is not handled yet.
   1550              //
   1551              switch (CurrentDeviceId) {
   1552              case DEVICE_TCU:
   1553              case DEVICE_TDU:
   1554                  //
   1555                  // check flash program version and project configuration version.
   1556                  //
   1557                  {
   1558                      bool SendPrg = !anpro_net_check_program_version_against_master(sysInfo);
   1559                      bool SendCfg = !anpro_net_check_project_config_against_master(sysInfo);
   1560                      if (SendPrg && SendCfg) {
   1561                          ANPRO10SendCommand(port, 0, DEVICE_TCU, CMD_REQ_FLASH_PRG_AND_CFG);
   1562                      } else if (SendPrg) {
   1563                          //
   1564                          // initiate flash image download
   1565                          // each request will be queued in on master TCU's mailbox.
   1566                          //
   1567                          ANPRO10SendCommand(port, 0, DEVICE_TCU, CMD_REQ_FLASH_PROG_PRG);
   1568                          // ANPRO10SendCommand( NULL, 0, DEVICE_TCU, CMD_REQ_CONFIG );
   1569                      } else if (SendCfg) {
   1570                          // initiate project config download
   1571                          ANPRO10SendCommand(port, 0, DEVICE_TCU, CMD_REQ_CONFIG);
   1572                      }
   1573                  }
   1574                  break;
   1575          
   1576              case DEVICE_PCSW:
   1577                  //
   1578                  // XXX
   1579                  // for PCSW, check project configuration only for now
   1580                  //
   1581                  if (anpro_net_check_project_config_against_master(sysInfo) == false) {
   1582                      // initialite configuration download
   1583                      ANPRO10SendCommand(port, 0, DEVICE_TCU, CMD_REQ_CONFIG);
   1584                  }
   1585                  break;
   1586              }
   1587          }
   1588          #endif
   1589          

   \                                 In segment CODE, align 4, keep-with-next
   1590          void ANPRO10_SendReqSysInfo(TSNUart *port, unsigned RxAddress, unsigned RxTypeId) {
   \                     ??ANPRO10_SendReqSysInfo:
   \   00000000   00402DE9           PUSH     {LR}
   1591              ANPRO10SendCommand(port, RxAddress, RxTypeId, CMD_TXU_REQ_SYSTEMINFO);
   \   00000004   7D3EA0E3           MOV      R3,#+2000
   \   00000008   ........           B        ??Subroutine44_0
   1592          }
   1593          

   \                                 In segment CODE, align 4, keep-with-next
   1594          void ANPRO10_ReceiveSysInfo(U8 *Buf, TSNUart *port) {
   \                     ??ANPRO10_ReceiveSysInfo:
   \   00000000   F1432DE9           PUSH     {R0,R4-R9,LR}
   \   00000004   0040A0E1           MOV      R4,R0
   \   00000008   0150A0E1           MOV      R5,R1
   1595              ANPRO10_COMMAND_2001 *SysInfo = (ANPRO10_COMMAND_2001 *)Buf;
   1596          #ifdef WIN32
   1597              SysInfoAvailable                  = true;   // Hva med denne EHSMark????
   1598              ExternDeviceId                    = SysInfo->UnitID;
   1599              ExternDeviceAddress               = SysInfo->UnitAdress;
   1600              ExternProgramVersion.ProdNo       = SysInfo->ProgramVersion.ProdNo;
   1601              ExternProgramVersion.PacketFormat = SysInfo->ProgramVersion.PacketFormat;
   1602              ExternProgramVersion.NewFunctions = SysInfo->ProgramVersion.NewFunctions;
   1603              ExternProgramVersion.Build        = SysInfo->ProgramVersion.Build;
   1604              ExternBootVersion.Build           = SysInfo->BootVersion.Build;
   1605              ExternBootVersion.NewFunctions    = SysInfo->BootVersion.NewFunctions;
   1606              ExternBootVersion.PacketFormat    = SysInfo->BootVersion.PacketFormat;
   1607              ExternBootVersion.ProdNo          = SysInfo->BootVersion.ProdNo;
   1608              ExternProjectId                   = SysInfo->SystemID;
   1609              ExternDataVersion                 = SysInfo->DataVersion;
   1610              ExternProgType                    = SysInfo->ProgramType;
   1611          
   1612          #if !defined(ANFLASH) && !defined(ANTDUSIM)
   1613              if (UseANWinNetwork) {   // hkim
   1614                                       //
   1615                  // check TCU version against mine.
   1616                  // if there is any mismatch, initiate
   1617                  // configuration download
   1618                  //
   1619                  anpro_net_check_sysinfo(port, SysInfo);
   1620              }
   1621          #endif
   1622          #elif defined(ANBOOTLOADER)
   1623              UnitInformation[port->PortNumber].Update_Unit_Info(SysInfo);
   1624          #else
   1625          
   1626              PROTanksystemUnit::Update_Unit_Info(port,SysInfo);
   \   0000000C   0410A0E1           MOV      R1,R4
   \   00000010   0500A0E1           MOV      R0,R5
   \   00000014   ........           _BLF     ??Update_Unit_Info,??Update_Unit_Info??rA
   1627          #if (NETWORK == 1)
   1628              //
   1629              // In case of slave TCU and TDU using network connection,
   1630              // the same configuration download mechanism should apply
   1631              //
   1632              {
   1633                  extern TSNUart fake_uart_port_for_tcp_client;
   1634          
   1635                  if(port == &fake_uart_port_for_tcp_client)
   \   00000018   ........           LDR      R0,??Subroutine47_0  ;; fake_uart_port_for_tcp_client
   \   0000001C   0160A0E3           MOV      R6,#+1
   \   00000020   000055E1           CMP      R5,R0
   1636                  anpro_net_check_sysinfo(port, SysInfo);
   \   00000024   ........           LDREQ    R0,??DataTable47  ;; Master
   \   00000028   0000D005           LDRBEQ   R0,[R0, #+0]
   \   0000002C   00005003           CMPEQ    R0,#+0
   \   00000030   2F00001A           BNE      ??ANPRO10_ReceiveSysInfo_1
   \   00000034   ........           LDR      R0,??DataTable39  ;; CurrentDeviceId
   \   00000038   6680A0E3           MOV      R8,#+102
   \   0000003C   F000D0E1           LDRSH    R0,[R0, #+0]
   \   00000040   F08E88E3           ORR      R8,R8,#0xF00
   \   00000044   200050E2           SUBS     R0,R0,#+32
   \   00000048   10005012           SUBSNE   R0,R0,#+16
   \   0000004C   0200000A           BEQ      ??ANPRO10_ReceiveSysInfo_2
   \   00000050   100050E2           SUBS     R0,R0,#+16
   \   00000054   1D00000A           BEQ      ??ANPRO10_ReceiveSysInfo_3
   \   00000058   250000EA           B        ??ANPRO10_ReceiveSysInfo_1
   \                     ??ANPRO10_ReceiveSysInfo_2:
   \   0000005C   2010D4E5           LDRB     R1,[R4, #+32]
   \   00000060   ........           LDR      R0,??Subroutine47_0+0x4  ;; fake_uart_port_for_tcp_clientPtr + 4
   \   00000064   0420A0E3           MOV      R2,#+4
   \   00000068   0310CDE5           STRB     R1,[SP, #+3]
   \   0000006C   1F10D4E5           LDRB     R1,[R4, #+31]
   \   00000070   0210CDE5           STRB     R1,[SP, #+2]
   \   00000074   1E10D4E5           LDRB     R1,[R4, #+30]
   \   00000078   0110CDE5           STRB     R1,[SP, #+1]
   \   0000007C   1D10D4E5           LDRB     R1,[R4, #+29]
   \   00000080   0010CDE5           STRB     R1,[SP, #+0]
   \   00000084   0D10A0E1           MOV      R1,SP
   \   00000088   ........           _BLF     memcmp,??memcmp??rA
   \   0000008C   000050E3           CMP      R0,#+0
   \   00000090   0000A013           MOVNE    R0,#+0
   \   00000094   0100A003           MOVEQ    R0,#+1
   \   00000098   019020E2           EOR      R9,R0,#0x1
   \   0000009C   0400A0E1           MOV      R0,R4
   \   000000A0   ........           BL       ??anpro_net_check_project_config_against_master_1
   \   000000A4   010000E2           AND      R0,R0,#0x1
   \   000000A8   010020E2           EOR      R0,R0,#0x1
   \   000000AC   090010E1           TST      R0,R9
   \   000000B0   08304812           SUBNE    R3,R8,#+8
   \   000000B4   0A00001A           BNE      ??ANPRO10_ReceiveSysInfo_4
   \   000000B8   099CB0E1           LSLS     R9,R9,#+24
   \   000000BC   07304812           SUBNE    R3,R8,#+7
   \   000000C0   0700001A           BNE      ??ANPRO10_ReceiveSysInfo_4
   \   000000C4   000CB0E1           LSLS     R0,R0,#+24
   \   000000C8   0900000A           BEQ      ??ANPRO10_ReceiveSysInfo_1
   \   000000CC   030000EA           B        ??ANPRO10_ReceiveSysInfo_5
   \                     ??ANPRO10_ReceiveSysInfo_3:
   \   000000D0   0400A0E1           MOV      R0,R4
   \   000000D4   ........           BL       ??anpro_net_check_project_config_against_master_1
   \   000000D8   000050E3           CMP      R0,#+0
   \   000000DC   0400001A           BNE      ??ANPRO10_ReceiveSysInfo_1
   \                     ??ANPRO10_ReceiveSysInfo_5:
   \   000000E0   0830A0E1           MOV      R3,R8
   \                     ??ANPRO10_ReceiveSysInfo_4:
   \   000000E4   2020A0E3           MOV      R2,#+32
   \   000000E8   0010A0E3           MOV      R1,#+0
   \   000000EC   0500A0E1           MOV      R0,R5
   \   000000F0   ........           BL       ??ANPRO10SendCommand
   1637              }
   1638          #endif // !NETWORK
   1639          
   1640          #endif
   1641              if (SysInfo->ProgramVersion.PacketFormat == VERSION_PACKET) {
   \                     ??ANPRO10_ReceiveSysInfo_1:
   \   000000F4   1E00D4E5           LDRB     R0,[R4, #+30]
   \   000000F8   0E0050E3           CMP      R0,#+14
   1642                  port->SystemMatch = true;
   1643              } else {
   1644                  port->SystemMatch = false;
   \   000000FC   0060A013           MOVNE    R6,#+0
   \   00000100   C260C5E5           STRB     R6,[R5, #+194]
   1645              }
   1646          }
   \   00000104                      REQUIRE ?Subroutine47
   \   00000104                      ;; // Fall through to label ?Subroutine47
   1647          
   1648          
   1649          
   1650          /*************************************************************************************************
   1651          *
   1652          *
   1653          *     EraseFlash(U8 *Buf)
   1654          *
   1655          *
   1656          *************************************************************************************************/

   \                                 In segment CODE, align 4, keep-with-next
   1657          int EraseFlash(U8 Command) {
   \                     ??EraseFlash:
   \   00000000   30402DE9           PUSH     {R4,R5,LR}
   \   00000004   0040A0E1           MOV      R4,R0
   1658              int ErrorStatus = FLASH_ERASE_UNKNOWN_COMMAND;
   \   00000008   0350A0E3           MOV      R5,#+3
   1659          #ifndef WIN32
   1660              SetFlashSectorTable(); // EHSMark
   \   0000000C   ........           _BLF     ??SetFlashSectorTable,??SetFlashSectorTable??rA
   1661              int FirstSector=-1,LastSector=-1;
   1662              switch ( Command ) {
   \   00000010   014044E2           SUB      R4,R4,#+1
   \   00000014   060054E3           CMP      R4,#+6
   \   00000018   1300008A           BHI      ??EraseFlash_2
   \   0000001C   010F8FE2           ADR      R0,??EraseFlash_1
   \   00000020   0400D0E7           LDRB     R0,[R0, R4]
   \   00000024   00F18FE0           ADD      PC,PC,R0, LSL #+2
   \                     ??EraseFlash_1:
   \   00000028   0F0F0F0F           DC8      +15,+15,+15,+15
   \   0000002C   01040700           DC8      +1,+4,+7,+0
   1663                  case FLASH_ERASE_BOOTLOADER   :
   1664                  //FirstSector = SectorBootStart;
   1665                  //LastSector  = SectorBootEnd;
   1666                  //ErrorStatus = 0;
   1667                  break;
   1668                  case FLASH_ERASE_UNUSED       :
   1669                  //FirstSector = SECTOR_UNUSED_START;
   1670                  //LastSector  = SECTOR_UNUSED_END;
   1671                  ErrorStatus = FLASH_ERASE_FAILURE;
   1672                  break;
   1673                  case FLASH_ERASE_PROGRAM      :
   1674                  //FirstSector = SectorProgStart;
   1675                  //LastSector  = SectorProgEnd;
   1676                  //ErrorStatus = 0;
   1677                  ErrorStatus = FLASH_ERASE_FAILURE;
   1678                  break;
   1679                  case FLASH_ERASE_CONFIG       :
   1680                  //FirstSector = SectorConfigStart;
   1681                  //LastSector  = SectorConfigEnd;
   1682                  //ErrorStatus = 0;
   1683                  ErrorStatus = FLASH_ERASE_FAILURE;
   1684                  break;
   1685                  case FLASH_ERASE_CONFIG_BACKUP:
   1686                  //FirstSector = SectorConfigBakStart;
   1687                  //LastSector  = SectorConfigBakEnd;
   1688                  //ErrorStatus = 0;
   1689                  ErrorStatus = FLASH_ERASE_FAILURE;
   1690                  break;
   1691                  case FLASH_ERASE_APP_DATA     :
   1692                  FirstSector = SectorSettings1Start;
   \                     ??EraseFlash_3:
   \   00000030   ........           LDR      R0,??DataTable37  ;; SectorSettings1Start
   1693                  LastSector  = SectorSettings1End;
   \   00000034   ........           LDR      R1,??DataTable36  ;; SectorSettings1End
   \   00000038   040000EA           B        ??EraseFlash_4
   1694                  ErrorStatus = 0;
   1695                  break;
   1696                  case FLASH_ERASE_APP_DATA_BACKUP  :
   1697                  FirstSector = SectorSettings2Start;
   \                     ??EraseFlash_5:
   \   0000003C   30009FE5           LDR      R0,??EraseFlash_6  ;; SectorSettings2Start
   1698                  LastSector  = SectorSettings2End;
   \   00000040   30109FE5           LDR      R1,??EraseFlash_6+0x4  ;; SectorSettings2End
   \   00000044   010000EA           B        ??EraseFlash_4
   1699                  ErrorStatus = 0;
   1700                  break;
   1701                  case FLASH_ERASE_ALL_APP_DATA  :
   1702                  FirstSector = SectorSettings1Start;
   \                     ??EraseFlash_7:
   \   00000048   ........           LDR      R0,??DataTable37  ;; SectorSettings1Start
   1703                  LastSector  = SectorSettings2End;
   \   0000004C   24109FE5           LDR      R1,??EraseFlash_6+0x4  ;; SectorSettings2End
   \                     ??EraseFlash_4:
   \   00000050   000090E5           LDR      R0,[R0, #+0]
   \   00000054   001091E5           LDR      R1,[R1, #+0]
   1704                  ErrorStatus = 0;
   \   00000058   0050A0E3           MOV      R5,#+0
   \   0000005C   ........           _BLF     ??MX29LV_EraseSectors,??MX29LV_EraseSectors??rA
   \   00000060   000050E3           CMP      R0,#+0
   \   00000064   0000001A           BNE      ??EraseFlash_2
   1705                  break;
   1706              }
   1707              if ( !ErrorStatus && !MX29LV_EraseSectors(FirstSector,LastSector) ) {
   1708                  ErrorStatus = FLASH_ERASE_FAILURE;
   \                     ??EraseFlash_8:
   \   00000068   0150A0E3           MOV      R5,#+1
   1709              }
   1710          #endif
   1711              return (ErrorStatus);
   \                     ??EraseFlash_2:
   \   0000006C   0500A0E1           MOV      R0,R5
   \   00000070   ........           B        ?Subroutine50
   \                     ??EraseFlash_6:
   \   00000074   ........           DC32     SectorSettings2Start
   \   00000078   ........           DC32     SectorSettings2End
   1712          }

   \                                 In segment CODE, align 4, keep-with-next
   \                     ?Subroutine50:
   \   00000000   3040BDE8           POP      {R4,R5,LR}
   \   00000004   1EFF2FE1           BX       LR               ;; return
   \                     ??Subroutine50_0:
   \   00000008   ........           DC32     ??TaskHandle
   1713          
   1714          /*************************************************************************************************
   1715          *************************************************************************************************/
   1716          volatile U8      SendFlashDataInProgress = FLASH_IDLE;
   1717          volatile TSNUart *SendFlashDataTSNUart   = NULL;;
   1718          volatile U8      SendFlashDataAddress    = DEVICE_BROADCAST_ADDR;
   1719          volatile U8      SendFlashDataDeviceId   = DEVICE_BROADCAST_TXU;
   1720          
   1721          

   \                                 In segment CODE, align 4, keep-with-next
   1722          void ANPRO10_FlashHandler(TSNUart *port, ANPRO10_PacketHeading *pPH, U8 *Buf) {
   \                     ??ANPRO10_FlashHandler:
   \   00000000   F0402DE9           PUSH     {R4-R7,LR}
   \   00000004   0040A0E1           MOV      R4,R0
   1723              if (SendFlashDataInProgress == FLASH_BUSY_SEND) {
   \   00000008   ........           LDR      R0,??DataTable56  ;; RestartAck
   \   0000000C   0150A0E1           MOV      R5,R1
   \   00000010   2510D0E5           LDRB     R1,[R0, #+37]
   \   00000014   0270A0E1           MOV      R7,R2
   \   00000018   5B60A0E3           MOV      R6,#+91
   \   0000001C   F06E86E3           ORR      R6,R6,#0xF00
   \   00000020   020051E3           CMP      R1,#+2
   \   00000024   0300001A           BNE      ??ANPRO10_FlashHandler_1
   1724                  ANPRO10SendCommand(port, pPH->txadr, pPH->txtypeid, CMD_ACK_FLASH_PROG, FLASH_BUSY);
   \   00000028   0700A0E3           MOV      R0,#+7
   \   0000002C   01002DE9           PUSH     {R0}
   \                     ??ANPRO10_FlashHandler_2:
   \   00000030   0630A0E1           MOV      R3,R6
   \   00000034   450000EA           B        ??ANPRO10_FlashHandler_3
   1725              } else {
   1726                  SendFlashDataInProgress = FLASH_BUSY_RECEIVE;
   \                     ??ANPRO10_FlashHandler_1:
   \   00000038   0110A0E3           MOV      R1,#+1
   \   0000003C   2510C0E5           STRB     R1,[R0, #+37]
   1727                  ANPRO10_CommandHeading *rCommand = (ANPRO10_CommandHeading *)Buf;
   1728                  //Buf += sizeof(ANPRO10_FLASH_DATA_STATUS);  // ??
   1729                  switch (rCommand->CommandNo) {
   \   00000040   0100D7E5           LDRB     R0,[R7, #+1]
   \   00000044   0010D7E5           LDRB     R1,[R7, #+0]
   \   00000048   000481E1           ORR      R0,R1,R0, LSL #+8
   \   0000004C   071046E2           SUB      R1,R6,#+7
   \   00000050   010050E1           CMP      R0,R1
   \   00000054   2C00000A           BEQ      ??ANPRO10_FlashHandler_4
   \   00000058   061081E2           ADD      R1,R1,#+6
   \   0000005C   010050E1           CMP      R0,R1
   \   00000060   0600000A           BEQ      ??ANPRO10_FlashHandler_5
   \   00000064   0A1081E2           ADD      R1,R1,#+10
   \   00000068   010050E1           CMP      R0,R1
   \   0000006C   0E00000A           BEQ      ??ANPRO10_FlashHandler_6
   \   00000070   0A1081E3           ORR      R1,R1,#0xA
   \   00000074   010050E1           CMP      R0,R1
   \   00000078   1700000A           BEQ      ??ANPRO10_FlashHandler_7
   \   0000007C   380000EA           B        ??ANPRO10_FlashHandler_8
   1730                  case CMD_SEND_FLASH_PROG:
   1731                      {
   1732          #if defined(ANWIN) || defined(ANTDUSIM) || defined(ANFLASH) || defined(ANCONF)
   1733                          U8 RequestStatus = ANPRO10_ReceiveFlashData((ANPRO10_FLASH_DATA *)Buf);
   1734          #else
   1735                          U8 RequestStatus = ANPRO10_ReceiveFlashData(Buf, SectorProgStart, SectorProgEnd);
   \                     ??ANPRO10_FlashHandler_5:
   \   00000080   ........           LDR      R0,??DataTable32  ;; SectorProgEnd
   \   00000084   002090E5           LDR      R2,[R0, #+0]
   \   00000088   ........           LDR      R0,??DataTable33  ;; SectorProgStart
   \   0000008C   001090E5           LDR      R1,[R0, #+0]
   \   00000090   0700A0E1           MOV      R0,R7
   \   00000094   ........           BL       ??ANPRO10_ReceiveFlashData
   \   00000098   0070A0E1           MOV      R7,R0
   1736          #endif
   1737                          TSN_Delay(50);
   \   0000009C   3200A0E3           MOV      R0,#+50
   \   000000A0   ........           _BLF     OS_Delay,??OS_Delay??rA
   1738                          ANPRO10SendCommand(port, pPH->txadr, pPH->txtypeid, CMD_ACK_FLASH_PROG, RequestStatus);
   \   000000A4   80002DE9           PUSH     {R7}
   \   000000A8   E0FFFFEA           B        ??ANPRO10_FlashHandler_2
   1739          
   1740                          ANPRO10_FLASH_DATA *pCommand      = (ANPRO10_FLASH_DATA *)Buf;
   1741                      }
   1742                      break;
   1743                  case CMD_SEND_CONFIG:
   1744                      {
   1745          #if defined(ANWIN) || defined(ANTDUSIM) || defined(ANFLASH) || defined(ANCONF)
   1746                          U8 RequestStatus = ANPRO10_ReceiveFlashData((ANPRO10_FLASH_DATA *)Buf);
   1747          #else
   1748                          /*
   1749                          int ErrorStatus =  EraseFlash(FLASH_ERASE_ALL_APP_DATA);
   1750                          if ( ErrorStatus == FLASH_NO_ERROR ){
   1751                              ErrorStatus = ANPRO10_ReceiveFlashData(Buf,SectorConfigStart,SectorConfigEnd);
   1752                          }
   1753                          Command.Data.RequestStatus = ErrorStatus;
   1754                          */
   1755                          U8 RequestStatus = ANPRO10_ReceiveFlashData(Buf, SectorConfigStart, SectorConfigEnd);
   \                     ??ANPRO10_FlashHandler_6:
   \   000000AC   ........           LDR      R0,??DataTable34  ;; SectorConfigEnd
   \   000000B0   002090E5           LDR      R2,[R0, #+0]
   \   000000B4   ........           LDR      R0,??DataTable35  ;; SectorConfigStart
   \   000000B8   001090E5           LDR      R1,[R0, #+0]
   \   000000BC   0700A0E1           MOV      R0,R7
   \   000000C0   ........           BL       ??ANPRO10_ReceiveFlashData
   \   000000C4   0060A0E1           MOV      R6,R0
   1756          #endif
   1757                          TSN_Delay(10);
   \   000000C8   0A00A0E3           MOV      R0,#+10
   \   000000CC   ........           _BLF     OS_Delay,??OS_Delay??rA
   1758                          ANPRO10SendCommand(port, pPH->txadr, pPH->txtypeid, CMD_ACK_CONFIG, RequestStatus);
   \   000000D0   40002DE9           PUSH     {R6}
   \   000000D4   6530A0E3           MOV      R3,#+101
   \   000000D8   1B0000EA           B        ??ANPRO10_FlashHandler_9
   1759                          ANPRO10_FLASH_DATA *pCommand      = (ANPRO10_FLASH_DATA *)Buf;
   1760                      }
   1761                      break;
   1762                  case CMD_SEND_SETTINGS:
   1763                      {
   1764          #if defined(ANWIN) || defined(ANTDUSIM) || defined(ANFLASH) || defined(ANCONF)
   1765                          U8 RequestStatus = ANPRO10_ReceiveFlashData((ANPRO10_FLASH_DATA *)Buf);
   1766          #else
   1767                          // Alsways put received settings in the first area and erase the other
   1768                          U8 RequestStatus = ANPRO10_ReceiveFlashData(Buf, SectorSettings1Start, SectorSettings1End);
   \                     ??ANPRO10_FlashHandler_7:
   \   000000DC   ........           LDR      R0,??DataTable36  ;; SectorSettings1End
   \   000000E0   002090E5           LDR      R2,[R0, #+0]
   \   000000E4   ........           LDR      R0,??DataTable37  ;; SectorSettings1Start
   \   000000E8   001090E5           LDR      R1,[R0, #+0]
   \   000000EC   0700A0E1           MOV      R0,R7
   \   000000F0   ........           BL       ??ANPRO10_ReceiveFlashData
   \   000000F4   0060A0E1           MOV      R6,R0
   1769          #endif
   1770                          TSN_Delay(50);
   \   000000F8   3200A0E3           MOV      R0,#+50
   \   000000FC   ........           _BLF     OS_Delay,??OS_Delay??rA
   1771                          ANPRO10SendCommand(port, pPH->txadr, pPH->txtypeid, CMD_ACK_SETTINGS, RequestStatus);
   \   00000100   40002DE9           PUSH     {R6}
   \   00000104   6F30A0E3           MOV      R3,#+111
   \   00000108   0F0000EA           B        ??ANPRO10_FlashHandler_9
   1772                          ANPRO10_FLASH_DATA *pCommand      = (ANPRO10_FLASH_DATA *)Buf;
   1773                      }
   1774                      break;
   1775          
   1776                  case CMD_ERASE_FLASH:
   1777                      {
   1778                          ANPRO10_FLASH_ERASE *fCommand     = (ANPRO10_FLASH_ERASE *)Buf;
   1779          #if defined(ANWIN) || defined(ANTDUSIM) || defined(ANFLASH)
   1780                          U8                  RequestStatus = FLASH_ERASE_UNKNOWN_COMMAND;
   1781          #else
   1782                          U8                  RequestStatus = (U8)EraseFlash(fCommand->EraseCommand);
   \                     ??ANPRO10_FlashHandler_4:
   \   0000010C   0400D7E5           LDRB     R0,[R7, #+4]
   \   00000110   ........           BL       ??EraseFlash
   \   00000114   FF6000E2           AND      R6,R0,#0xFF
   1783                          if (Master) {
   \   00000118   ........           LDR      R0,??DataTable47  ;; Master
   \   0000011C   0000D0E5           LDRB     R0,[R0, #+0]
   \   00000120   000050E3           CMP      R0,#+0
   \   00000124   0400000A           BEQ      ??ANPRO10_FlashHandler_10
   1784                              ANPRO10_SendEraseCommand(NULL, DEVICE_BROADCAST_ADDR, DEVICE_BROADCAST_TXU, fCommand->EraseCommand);
   \   00000128   0430D7E5           LDRB     R3,[R7, #+4]
   \   0000012C   0E20A0E3           MOV      R2,#+14
   \   00000130   FF10A0E3           MOV      R1,#+255
   \   00000134   0000A0E3           MOV      R0,#+0
   \   00000138   ........           BL       ??ANPRO10_SendEraseCommand
   1785                          }
   1786          #endif
   1787                          TSN_Delay(2);
   \                     ??ANPRO10_FlashHandler_10:
   \   0000013C   0200A0E3           MOV      R0,#+2
   \   00000140   ........           _BLF     OS_Delay,??OS_Delay??rA
   1788                          ANPRO10SendCommand(port, pPH->txadr, pPH->txtypeid, CMD_ACK_ERASE_FLASH, RequestStatus);
   \   00000144   40002DE9           PUSH     {R6}
   \   00000148   5530A0E3           MOV      R3,#+85
   \                     ??ANPRO10_FlashHandler_9:
   \   0000014C   F03E83E3           ORR      R3,R3,#0xF00
   \                     ??ANPRO10_FlashHandler_3:
   \   00000150   0220D5E5           LDRB     R2,[R5, #+2]
   \   00000154   0310D5E5           LDRB     R1,[R5, #+3]
   \   00000158   0400A0E1           MOV      R0,R4
   \   0000015C   ........           BL       ??ANPRO10SendCommand_1
   \   00000160   04D08DE2           ADD      SP,SP,#+4
   1789                      }
   1790                      break;
   1791                  default:
   1792                      break;
   1793                      //TODO: runtimewarning helvete skulle ikke ende her
   1794                  }
   1795              }
   1796          }
   \                     ??ANPRO10_FlashHandler_8:
   \   00000164   F040BDE8           POP      {R4-R7,LR}
   \   00000168   1EFF2FE1           BX       LR               ;; return
   1797          /*************************************************************************************************
   1798          *
   1799          *
   1800          *     ANPRO10_ReceiveFlashData(U8* Buf, U32 FirstSector, U32 LastSector)
   1801          *
   1802          *
   1803          *************************************************************************************************/
   1804          #ifdef S2TXU

   \                                 In segment DATA_Z, align 4, align-sorted
   1805          OS_TIMER ReceiveFlashTimer;
   \                     ReceiveFlashTimer:
   \   00000000                      DS8 20
   1806          #endif

   \                                 In segment CODE, align 4, keep-with-next
   1807          void ResumeIO(void) {
   1808          #ifdef S2TXU
   1809              switch (CurrentDeviceId) {
   \                     ??ResumeIO:
   \   00000000   ........           LDR      R0,??DataTable39  ;; CurrentDeviceId
   \   00000004   30402DE9           PUSH     {R4,R5,LR}
   \   00000008   F000D0E1           LDRSH    R0,[R0, #+0]
   \   0000000C   200050E3           CMP      R0,#+32
   \   00000010   5D00001A           BNE      ??ResumeIO_1
   1810              case DEVICE_TCU:    // TCU
   1811                  if (OS_IsTask(ANPRO10IOTask)) {
   \   00000014   ........           LDR      R4,??DataTable48  ;; ANPRO10IOTask
   \   00000018   000094E5           LDR      R0,[R4, #+0]
   \   0000001C   ........           _BLF     OS_IsTask,??OS_IsTask??rA
   \   00000020   000050E3           CMP      R0,#+0
   \   00000024   0200001A           BNE      ??ResumeIO_2
   \   00000028   050000EA           B        ??ResumeIO_3
   1812                      while (OS_GetSuspendCnt(ANPRO10IOTask)) OS_Resume(ANPRO10IOTask);
   \                     ??ResumeIO_4:
   \   0000002C   000094E5           LDR      R0,[R4, #+0]
   \   00000030   ........           _BLF     OS_Resume,??OS_Resume??rA
   \                     ??ResumeIO_2:
   \   00000034   000094E5           LDR      R0,[R4, #+0]
   \   00000038   ........           _BLF     OS_GetSuspendCnt,??OS_GetSuspendCnt??rA
   \   0000003C   000050E3           CMP      R0,#+0
   \   00000040   F9FFFF1A           BNE      ??ResumeIO_4
   1813                  }
   1814                  if (OS_IsTask(&SendStaticDataTaskHandle)) {
   \                     ??ResumeIO_3:
   \   00000044   ........           LDR      R4,??DataTable49  ;; SendStaticDataTaskHandle
   \   00000048   0400A0E1           MOV      R0,R4
   \   0000004C   ........           _BLF     OS_IsTask,??OS_IsTask??rA
   \   00000050   000050E3           CMP      R0,#+0
   \   00000054   0200001A           BNE      ??ResumeIO_5
   \   00000058   050000EA           B        ??ResumeIO_6
   1815                      while (OS_GetSuspendCnt(&SendStaticDataTaskHandle)) OS_Resume(&SendStaticDataTaskHandle);
   \                     ??ResumeIO_7:
   \   0000005C   0400A0E1           MOV      R0,R4
   \   00000060   ........           _BLF     OS_Resume,??OS_Resume??rA
   \                     ??ResumeIO_5:
   \   00000064   0400A0E1           MOV      R0,R4
   \   00000068   ........           _BLF     OS_GetSuspendCnt,??OS_GetSuspendCnt??rA
   \   0000006C   000050E3           CMP      R0,#+0
   \   00000070   F9FFFF1A           BNE      ??ResumeIO_7
   1816                  }
   1817                  if (OS_IsTask(&CalcMiscObjectsHandle)) {
   \                     ??ResumeIO_6:
   \   00000074   ........           LDR      R4,??DataTable50  ;; CalcMiscObjectsHandle
   \   00000078   0400A0E1           MOV      R0,R4
   \   0000007C   ........           _BLF     OS_IsTask,??OS_IsTask??rA
   \   00000080   000050E3           CMP      R0,#+0
   \   00000084   0200001A           BNE      ??ResumeIO_8
   \   00000088   050000EA           B        ??ResumeIO_9
   1818                      while (OS_GetSuspendCnt(&CalcMiscObjectsHandle)) OS_Resume(&CalcMiscObjectsHandle);
   \                     ??ResumeIO_10:
   \   0000008C   0400A0E1           MOV      R0,R4
   \   00000090   ........           _BLF     OS_Resume,??OS_Resume??rA
   \                     ??ResumeIO_8:
   \   00000094   0400A0E1           MOV      R0,R4
   \   00000098   ........           _BLF     OS_GetSuspendCnt,??OS_GetSuspendCnt??rA
   \   0000009C   000050E3           CMP      R0,#+0
   \   000000A0   F9FFFF1A           BNE      ??ResumeIO_10
   1819                  }
   1820                  if (OS_IsTask(&InclinometerHandle)) {
   \                     ??ResumeIO_9:
   \   000000A4   ........           LDR      R4,??DataTable51  ;; InclinometerHandle
   \   000000A8   0400A0E1           MOV      R0,R4
   \   000000AC   ........           _BLF     OS_IsTask,??OS_IsTask??rA
   \   000000B0   000050E3           CMP      R0,#+0
   \   000000B4   0200001A           BNE      ??ResumeIO_11
   \   000000B8   050000EA           B        ??ResumeIO_12
   1821                      while (OS_GetSuspendCnt(&InclinometerHandle)) OS_Resume(&InclinometerHandle);
   \                     ??ResumeIO_13:
   \   000000BC   0400A0E1           MOV      R0,R4
   \   000000C0   ........           _BLF     OS_Resume,??OS_Resume??rA
   \                     ??ResumeIO_11:
   \   000000C4   0400A0E1           MOV      R0,R4
   \   000000C8   ........           _BLF     OS_GetSuspendCnt,??OS_GetSuspendCnt??rA
   \   000000CC   000050E3           CMP      R0,#+0
   \   000000D0   F9FFFF1A           BNE      ??ResumeIO_13
   1822                  }
   1823                  if (OS_IsTask(&ModbusObject::ExchangeDataTask)) {
   \                     ??ResumeIO_12:
   \   000000D4   ........           LDR      R4,??DataTable52  ;; ??ExchangeDataTask
   \   000000D8   0400A0E1           MOV      R0,R4
   \   000000DC   ........           _BLF     OS_IsTask,??OS_IsTask??rA
   \   000000E0   000050E3           CMP      R0,#+0
   \   000000E4   0200001A           BNE      ??ResumeIO_14
   \   000000E8   050000EA           B        ??ResumeIO_15
   1824                      while (OS_GetSuspendCnt(&ModbusObject::ExchangeDataTask)) OS_Resume(&ModbusObject::ExchangeDataTask);
   \                     ??ResumeIO_16:
   \   000000EC   0400A0E1           MOV      R0,R4
   \   000000F0   ........           _BLF     OS_Resume,??OS_Resume??rA
   \                     ??ResumeIO_14:
   \   000000F4   0400A0E1           MOV      R0,R4
   \   000000F8   ........           _BLF     OS_GetSuspendCnt,??OS_GetSuspendCnt??rA
   \   000000FC   000050E3           CMP      R0,#+0
   \   00000100   F9FFFF1A           BNE      ??ResumeIO_16
   1825                  }
   1826                  for (int i = 0; i < ModbusObject::ModbusTaskVector.size(); i++) {
   \                     ??ResumeIO_15:
   \   00000104   ........           LDR      R5,??DataTable53  ;; ??ModbusTaskVector
   \   00000108   0040A0E3           MOV      R4,#+0
   \   0000010C   080000EA           B        ??ResumeIO_17
   1827                      if (OS_IsTask(ModbusObject::ModbusTaskVector[i])) {
   1828                          while (OS_GetSuspendCnt(ModbusObject::ModbusTaskVector[i])) OS_Resume(ModbusObject::ModbusTaskVector[i]);
   \                     ??ResumeIO_18:
   \   00000110   000095E5           LDR      R0,[R5, #+0]
   \   00000114   040190E7           LDR      R0,[R0, +R4, LSL #+2]
   \   00000118   ........           _BLF     OS_Resume,??OS_Resume??rA
   \                     ??ResumeIO_19:
   \   0000011C   000095E5           LDR      R0,[R5, #+0]
   \   00000120   040190E7           LDR      R0,[R0, +R4, LSL #+2]
   \   00000124   ........           _BLF     OS_GetSuspendCnt,??OS_GetSuspendCnt??rA
   \   00000128   000050E3           CMP      R0,#+0
   \   0000012C   F7FFFF1A           BNE      ??ResumeIO_18
   1829                      }
   \                     ??ResumeIO_20:
   \   00000130   014084E2           ADD      R4,R4,#+1
   \                     ??ResumeIO_17:
   \   00000134   000095E5           LDR      R0,[R5, #+0]
   \   00000138   041095E5           LDR      R1,[R5, #+4]
   \   0000013C   001041E0           SUB      R1,R1,R0
   \   00000140   210154E1           CMP      R4,R1, LSR #+2
   \   00000144   0400002A           BCS      ??ResumeIO_21
   \   00000148   040190E7           LDR      R0,[R0, +R4, LSL #+2]
   \   0000014C   ........           _BLF     OS_IsTask,??OS_IsTask??rA
   \   00000150   000050E3           CMP      R0,#+0
   \   00000154   F0FFFF1A           BNE      ??ResumeIO_19
   \   00000158   F4FFFFEA           B        ??ResumeIO_20
   1830                  }
   1831                  if (OS_IsTask(&PROTanksystemUnit::TaskHandle)) {
   \                     ??ResumeIO_21:
   \   0000015C   ........           LDR      R4,??Subroutine50_0  ;; ??TaskHandle
   \   00000160   0400A0E1           MOV      R0,R4
   \   00000164   ........           _BLF     OS_IsTask,??OS_IsTask??rA
   \   00000168   000050E3           CMP      R0,#+0
   \   0000016C   0200001A           BNE      ??ResumeIO_22
   \   00000170   050000EA           B        ??ResumeIO_1
   1832                      while (OS_GetSuspendCnt(&PROTanksystemUnit::TaskHandle)) OS_Resume(&PROTanksystemUnit::TaskHandle);
   \                     ??ResumeIO_23:
   \   00000174   0400A0E1           MOV      R0,R4
   \   00000178   ........           _BLF     OS_Resume,??OS_Resume??rA
   \                     ??ResumeIO_22:
   \   0000017C   0400A0E1           MOV      R0,R4
   \   00000180   ........           _BLF     OS_GetSuspendCnt,??OS_GetSuspendCnt??rA
   \   00000184   000050E3           CMP      R0,#+0
   \   00000188   F9FFFF1A           BNE      ??ResumeIO_23
   1833                  }
   1834                  break;
   1835              case DEVICE_TDU:    // TDU
   1836                  break;
   1837              }
   1838          #endif
   1839          }
   \                     ??ResumeIO_1:
   \   0000018C                      REQUIRE ?Subroutine50
   \   0000018C                      ;; // Fall through to label ?Subroutine50
   1840          #ifdef S2TXU

   \                                 In segment CODE, align 4, keep-with-next
   1841          void ReceiveFlashTimeOut(void) {
   1842              OS_EnterRegion();
   \                     ??ReceiveFlashTimeOut:
   \   00000000   18009FE5           LDR      R0,??ReceiveFlashTimeOut_1  ;; OS_Counters
   \   00000004   00402DE9           PUSH     {LR}
   \   00000008   0010D0E5           LDRB     R1,[R0, #+0]
   \   0000000C   011081E2           ADD      R1,R1,#+1
   \   00000010   0010C0E5           STRB     R1,[R0, #+0]
   1843              ResumeIO();
   \   00000014   ........           BL       ??ResumeIO
   1844              OS_LeaveRegion();
   \   00000018   ........           _BLF     OS_LeaveRegion,??OS_LeaveRegion??rA
   1845          }
   \   0000001C   ........           B        ??Subroutine44_1
   \                     ??ReceiveFlashTimeOut_1:
   \   00000020   ........           DC32     OS_Counters
   1846          #endif

   \                                 In segment CODE, align 4, keep-with-next
   1847          void SuspendIO(int TimeOut) {
   \                     ??SuspendIO:
   \   00000000   70402DE9           PUSH     {R4-R6,LR}
   \   00000004   0040A0E1           MOV      R4,R0
   1848          #ifdef S2TXU
   1849              switch (CurrentDeviceId) {
   \   00000008   ........           LDR      R0,??DataTable55  ;; CurrentDeviceId
   \   0000000C   F000D0E1           LDRSH    R0,[R0, #+0]
   \   00000010   200050E3           CMP      R0,#+32
   \   00000014   5900001A           BNE      ??SuspendIO_1
   1850              case DEVICE_TCU:    // TCU
   1851                  if (Master) {
   \   00000018   ........           LDR      R0,??DataTable47  ;; Master
   \   0000001C   0000D0E5           LDRB     R0,[R0, #+0]
   \   00000020   000050E3           CMP      R0,#+0
   \   00000024   0300000A           BEQ      ??SuspendIO_2
   1852                      ANPRO10_SendSuspendIO(NULL, DEVICE_BROADCAST_ADDR, DEVICE_BROADCAST_TXU);
   \   00000028   0E20A0E3           MOV      R2,#+14
   \   0000002C   FF10A0E3           MOV      R1,#+255
   \   00000030   0000A0E3           MOV      R0,#+0
   \   00000034   ........           BL       ??ANPRO10_SendSuspendIO
   1853                  }
   1854                  if (OS_IsTask(ANPRO10IOTask) && !OS_GetSuspendCnt(ANPRO10IOTask)) {
   \                     ??SuspendIO_2:
   \   00000038   ........           LDR      R5,??DataTable48  ;; ANPRO10IOTask
   \   0000003C   000095E5           LDR      R0,[R5, #+0]
   \   00000040   ........           _BLF     OS_IsTask,??OS_IsTask??rA
   \   00000044   000050E3           CMP      R0,#+0
   \   00000048   0500000A           BEQ      ??SuspendIO_3
   \   0000004C   000095E5           LDR      R0,[R5, #+0]
   \   00000050   ........           _BLF     OS_GetSuspendCnt,??OS_GetSuspendCnt??rA
   \   00000054   000050E3           CMP      R0,#+0
   \   00000058   0100001A           BNE      ??SuspendIO_3
   1855                      OS_Suspend(ANPRO10IOTask);
   \   0000005C   000095E5           LDR      R0,[R5, #+0]
   \   00000060   ........           _BLF     OS_Suspend,??OS_Suspend??rA
   1856                  }
   1857                  if (OS_IsTask(&SendStaticDataTaskHandle) && !OS_GetSuspendCnt(&SendStaticDataTaskHandle)) {
   \                     ??SuspendIO_3:
   \   00000064   ........           LDR      R5,??DataTable49  ;; SendStaticDataTaskHandle
   \   00000068   0500A0E1           MOV      R0,R5
   \   0000006C   ........           _BLF     OS_IsTask,??OS_IsTask??rA
   \   00000070   000050E3           CMP      R0,#+0
   \   00000074   0500000A           BEQ      ??SuspendIO_4
   \   00000078   0500A0E1           MOV      R0,R5
   \   0000007C   ........           _BLF     OS_GetSuspendCnt,??OS_GetSuspendCnt??rA
   \   00000080   000050E3           CMP      R0,#+0
   \   00000084   0100001A           BNE      ??SuspendIO_4
   1858                      OS_Suspend(&SendStaticDataTaskHandle);
   \   00000088   0500A0E1           MOV      R0,R5
   \   0000008C   ........           _BLF     OS_Suspend,??OS_Suspend??rA
   1859                  }
   1860                  if (OS_IsTask(&CalcMiscObjectsHandle) && !OS_GetSuspendCnt(&CalcMiscObjectsHandle)) {
   \                     ??SuspendIO_4:
   \   00000090   ........           LDR      R5,??DataTable50  ;; CalcMiscObjectsHandle
   \   00000094   0500A0E1           MOV      R0,R5
   \   00000098   ........           _BLF     OS_IsTask,??OS_IsTask??rA
   \   0000009C   000050E3           CMP      R0,#+0
   \   000000A0   0500000A           BEQ      ??SuspendIO_5
   \   000000A4   0500A0E1           MOV      R0,R5
   \   000000A8   ........           _BLF     OS_GetSuspendCnt,??OS_GetSuspendCnt??rA
   \   000000AC   000050E3           CMP      R0,#+0
   \   000000B0   0100001A           BNE      ??SuspendIO_5
   1861                      OS_Suspend(&CalcMiscObjectsHandle);
   \   000000B4   0500A0E1           MOV      R0,R5
   \   000000B8   ........           _BLF     OS_Suspend,??OS_Suspend??rA
   1862                  }
   1863                  if (OS_IsTask(&InclinometerHandle) && !OS_GetSuspendCnt(&InclinometerHandle)) {
   \                     ??SuspendIO_5:
   \   000000BC   ........           LDR      R5,??DataTable51  ;; InclinometerHandle
   \   000000C0   0500A0E1           MOV      R0,R5
   \   000000C4   ........           _BLF     OS_IsTask,??OS_IsTask??rA
   \   000000C8   000050E3           CMP      R0,#+0
   \   000000CC   0500000A           BEQ      ??SuspendIO_6
   \   000000D0   0500A0E1           MOV      R0,R5
   \   000000D4   ........           _BLF     OS_GetSuspendCnt,??OS_GetSuspendCnt??rA
   \   000000D8   000050E3           CMP      R0,#+0
   \   000000DC   0100001A           BNE      ??SuspendIO_6
   1864                      OS_Suspend(&InclinometerHandle);
   \   000000E0   0500A0E1           MOV      R0,R5
   \   000000E4   ........           _BLF     OS_Suspend,??OS_Suspend??rA
   1865                  }
   1866                  if (OS_IsTask(&ModbusObject::ExchangeDataTask) && !OS_GetSuspendCnt(&ModbusObject::ExchangeDataTask)) {
   \                     ??SuspendIO_6:
   \   000000E8   ........           LDR      R5,??DataTable52  ;; ??ExchangeDataTask
   \   000000EC   0500A0E1           MOV      R0,R5
   \   000000F0   ........           _BLF     OS_IsTask,??OS_IsTask??rA
   \   000000F4   000050E3           CMP      R0,#+0
   \   000000F8   0500000A           BEQ      ??SuspendIO_7
   \   000000FC   0500A0E1           MOV      R0,R5
   \   00000100   ........           _BLF     OS_GetSuspendCnt,??OS_GetSuspendCnt??rA
   \   00000104   000050E3           CMP      R0,#+0
   \   00000108   0100001A           BNE      ??SuspendIO_7
   1867                      OS_Suspend(&ModbusObject::ExchangeDataTask);
   \   0000010C   0500A0E1           MOV      R0,R5
   \   00000110   ........           _BLF     OS_Suspend,??OS_Suspend??rA
   1868                  }
   1869                  for (int i = 0; i < ModbusObject::ModbusTaskVector.size(); i++) {
   \                     ??SuspendIO_7:
   \   00000114   ........           LDR      R6,??DataTable53  ;; ??ModbusTaskVector
   \   00000118   0050A0E3           MOV      R5,#+0
   \   0000011C   0C0000EA           B        ??SuspendIO_8
   1870                      if (OS_IsTask(ModbusObject::ModbusTaskVector[i]) && !OS_GetSuspendCnt(ModbusObject::ModbusTaskVector[i])) {
   \                     ??SuspendIO_9:
   \   00000120   050190E7           LDR      R0,[R0, +R5, LSL #+2]
   \   00000124   ........           _BLF     OS_IsTask,??OS_IsTask??rA
   \   00000128   000050E3           CMP      R0,#+0
   \   0000012C   0700000A           BEQ      ??SuspendIO_10
   \   00000130   000096E5           LDR      R0,[R6, #+0]
   \   00000134   050190E7           LDR      R0,[R0, +R5, LSL #+2]
   \   00000138   ........           _BLF     OS_GetSuspendCnt,??OS_GetSuspendCnt??rA
   \   0000013C   000050E3           CMP      R0,#+0
   \   00000140   0200001A           BNE      ??SuspendIO_10
   1871                          OS_Suspend(ModbusObject::ModbusTaskVector[i]);
   \   00000144   000096E5           LDR      R0,[R6, #+0]
   \   00000148   050190E7           LDR      R0,[R0, +R5, LSL #+2]
   \   0000014C   ........           _BLF     OS_Suspend,??OS_Suspend??rA
   1872                      }
   1873                  }
   \                     ??SuspendIO_10:
   \   00000150   015085E2           ADD      R5,R5,#+1
   \                     ??SuspendIO_8:
   \   00000154   000096E5           LDR      R0,[R6, #+0]
   \   00000158   041096E5           LDR      R1,[R6, #+4]
   \   0000015C   001041E0           SUB      R1,R1,R0
   \   00000160   210155E1           CMP      R5,R1, LSR #+2
   \   00000164   EDFFFF3A           BCC      ??SuspendIO_9
   1874                  OS_SetTimerPeriod(&ReceiveFlashTimer, TimeOut);
   \   00000168   14509FE5           LDR      R5,??SuspendIO_11  ;; ReceiveFlashTimer
   \   0000016C   0410A0E1           MOV      R1,R4
   \   00000170   0500A0E1           MOV      R0,R5
   \   00000174   ........           _BLF     OS_SetTimerPeriod,??OS_SetTimerPeriod??rA
   1875                  OS_RetriggerTimer(&ReceiveFlashTimer);
   \   00000178   0500A0E1           MOV      R0,R5
   \   0000017C   ........           _BLF     OS_RetriggerTimer,??OS_RetriggerTimer??rA
   1876                  break;
   1877              case DEVICE_TDU:    // TDU
   1878                  break;
   1879              }
   1880          #endif
   1881          }
   \                     ??SuspendIO_1:
   \   00000180   ........           B        ?Subroutine51
   \                     ??SuspendIO_11:
   \   00000184   ........           DC32     ReceiveFlashTimer

   \                                 In segment CODE, align 4, keep-with-next
   \                     ?Subroutine51:
   \   00000000   7040BDE8           POP      {R4-R6,LR}
   \   00000004   1EFF2FE1           BX       LR               ;; return
   \                     ??Subroutine51_0:
   \   00000008   ........           DC32     ??UrgentCommandQ

   \                                 In segment CODE, align 4, keep-with-next
   1882          U8 ANPRO10_ReceiveFlashData(U8 *Buf, U32 FirstSector, U32 LastSector) {
   \                     ??ANPRO10_ReceiveFlashData:
   \   00000000   F44F2DE9           PUSH     {R2,R4-R11,LR}
   \   00000004   47DF4DE2           SUB      SP,SP,#+284
   \   00000008   0040A0E1           MOV      R4,R0
   \   0000000C   0150A0E1           MOV      R5,R1
   1883              SuspendIO(4*60 * 1000);
   1884              static int Size;
   1885              U8         ErrorStatus = 0;
   1886          #ifndef WIN32
   1887              ANPRO10_FLASH_DATA *pCommand = (ANPRO10_FLASH_DATA*)Buf;
   1888          #ifndef ANBOOTLOADER
   1889              static WM_HWIN MsgBoxHandle;
   1890          #endif
   1891              if ( !pCommand->Offset ) {
   \   00000010   ........           LDR      R6,??DataTable56  ;; RestartAck
   \   00000014   ........           LDR      R10,??DataTable55  ;; CurrentDeviceId
   \   00000018   E00BA0E3           MOV      R0,#+229376
   \   0000001C   A60D80E3           ORR      R0,R0,#0x2980
   \   00000020   ........           BL       ??SuspendIO
   \   00000024   0700D4E5           LDRB     R0,[R4, #+7]
   \   00000028   0610D4E5           LDRB     R1,[R4, #+6]
   \   0000002C   0070A0E3           MOV      R7,#+0
   \   00000030   3990A0E3           MOV      R9,#+57
   \   00000034   000481E1           ORR      R0,R1,R0, LSL #+8
   \   00000038   0510D4E5           LDRB     R1,[R4, #+5]
   \   0000003C   809F89E3           ORR      R9,R9,#0x200
   \   00000040   028049E2           SUB      R8,R9,#+2
   \   00000044   000481E1           ORR      R0,R1,R0, LSL #+8
   \   00000048   0410D4E5           LDRB     R1,[R4, #+4]
   \   0000004C   000491E1           ORRS     R0,R1,R0, LSL #+8
   \   00000050   7500001A           BNE      ??ANPRO10_ReceiveFlashData_1
   1892                  switch ( CurrentDeviceId ) {
   \   00000054   F000DAE1           LDRSH    R0,[R10, #+0]
   \   00000058   300050E3           CMP      R0,#+48
   \   0000005C   1E00001A           BNE      ??ANPRO10_ReceiveFlashData_2
   1893                      case DEVICE_TCU:    // TCU
   1894                      break;
   1895                      case DEVICE_TDU:    // TDU
   1896                      Size = pCommand->LastPacket;
   \   00000060   0B00D4E5           LDRB     R0,[R4, #+11]
   \   00000064   0A10D4E5           LDRB     R1,[R4, #+10]
   \   00000068   000481E1           ORR      R0,R1,R0, LSL #+8
   \   0000006C   0910D4E5           LDRB     R1,[R4, #+9]
   \   00000070   000481E1           ORR      R0,R1,R0, LSL #+8
   \   00000074   0810D4E5           LDRB     R1,[R4, #+8]
   \   00000078   000481E1           ORR      R0,R1,R0, LSL #+8
   \   0000007C   200086E5           STR      R0,[R6, #+32]
   1897          #ifdef ANBOOTLOADER
   1898                      GUI_SetColor(GUI_BLACK);
   1899                      GUI_SetBkColor(GUI_LIGHTGRAY);
   1900                      GUI_SetFont(&GUI_Font16B_ASCII);
   1901                      GUI_DispStringAtCEOL("Erasing FLASH",1,150);  // Don't include dictionary
   1902          #else
   1903                      MsgBoxHandle      = MESSAGEBOX_Create(FindDictionaryWord(L_WORD566).c_str(),FindDictionaryWord(L_WORD567).c_str(), 0);
   \   00000080   0810A0E1           MOV      R1,R8
   \   00000084   04008DE2           ADD      R0,SP,#+4
   \   00000088   ........           _BLF     ??FindDictionaryWord,??FindDictionaryWord??rA
   \   0000008C   04008DE2           ADD      R0,SP,#+4
   \   00000090   ........           _BLF     ??c_str,??c_str??rA
   \   00000094   00B0A0E1           MOV      R11,R0
   \   00000098   0110C8E3           BIC      R1,R8,#0x1
   \   0000009C   20008DE2           ADD      R0,SP,#+32
   \   000000A0   ........           _BLF     ??FindDictionaryWord,??FindDictionaryWord??rA
   \   000000A4   20008DE2           ADD      R0,SP,#+32
   \   000000A8   ........           _BLF     ??c_str,??c_str??rA
   \   000000AC   0020A0E3           MOV      R2,#+0
   \   000000B0   0B10A0E1           MOV      R1,R11
   \   000000B4   ........           _BLF     MESSAGEBOX_Create,??MESSAGEBOX_Create??rA
   \   000000B8   B200C6E1           STRH     R0,[R6, #+2]
   \   000000BC   0720A0E1           MOV      R2,R7
   \   000000C0   0110A0E3           MOV      R1,#+1
   \   000000C4   04008DE2           ADD      R0,SP,#+4
   \   000000C8   ........           _BLF     ??_Tidy,??_Tidy??rA
   \   000000CC   0720A0E1           MOV      R2,R7
   \   000000D0   0110A0E3           MOV      R1,#+1
   \   000000D4   20008DE2           ADD      R0,SP,#+32
   \   000000D8   ........           _BLF     ??_Tidy,??_Tidy??rA
   1904          #endif
   1905                      break;
   1906                  }
   1907                  if ( !MX29LV_EraseSectors(FirstSector,LastSector) ) {
   \                     ??ANPRO10_ReceiveFlashData_2:
   \   000000DC   1C119DE5           LDR      R1,[SP, #+284]
   \   000000E0   0500A0E1           MOV      R0,R5
   \   000000E4   ........           _BLF     ??MX29LV_EraseSectors,??MX29LV_EraseSectors??rA
   \   000000E8   000050E3           CMP      R0,#+0
   1908                      ErrorStatus = FLASH_ERASE_FAILURE;
   1909                  }
   1910                  switch ( CurrentDeviceId ) {
   \   000000EC   F000DAE1           LDRSH    R0,[R10, #+0]
   \   000000F0   0170A003           MOVEQ    R7,#+1
   \   000000F4   300050E3           CMP      R0,#+48
   \   000000F8   4900001A           BNE      ??ANPRO10_ReceiveFlashData_3
   1911                      case DEVICE_TCU:    // TCU
   1912                      break;
   1913                      case DEVICE_TDU:    // TDU
   1914          #ifndef ANBOOTLOADER
   1915                      if ( MsgBoxHandle > 0 ) {
   \   000000FC   F200D6E1           LDRSH    R0,[R6, #+2]
   \   00000100   010050E3           CMP      R0,#+1
   \   00000104   030000BA           BLT      ??ANPRO10_ReceiveFlashData_4
   1916                          GUI_EndDialog(MsgBoxHandle,0);
   \   00000108   0010A0E3           MOV      R1,#+0
   \   0000010C   ........           _BLF     GUI_EndDialog,??GUI_EndDialog??rA
   1917                          MsgBoxHandle = 0;
   \   00000110   0000A0E3           MOV      R0,#+0
   \   00000114   B200C6E1           STRH     R0,[R6, #+2]
   1918                      }
   1919          #endif
   1920                      if ( ErrorStatus == FLASH_ERASE_FAILURE ) {
   \                     ??ANPRO10_ReceiveFlashData_4:
   \   00000118   010057E3           CMP      R7,#+1
   \   0000011C   0900001A           BNE      ??ANPRO10_ReceiveFlashData_5
   1921          #ifdef ANBOOTLOADER
   1922                          GUI_SetColor(GUI_BLACK);
   1923                          GUI_SetBkColor(GUI_LIGHTGRAY);
   1924                          GUI_SetFont(&GUI_Font16B_ASCII);
   1925                          GUI_DispStringAtCEOL("Erasing Failure",1,150); // Erasing Failure
   1926          #else
   1927                          MsgBoxHandle = MESSAGEBOX_Create(FindDictionaryWord(L_WORD568).c_str(),FindDictionaryWord(L_WORD153).c_str(), 0); // Erasing Failure  Warning
   \   00000120   9910A0E3           MOV      R1,#+153
   \   00000124   20008DE2           ADD      R0,SP,#+32
   \   00000128   ........           _BLF     ??FindDictionaryWord,??FindDictionaryWord??rA
   \   0000012C   20008DE2           ADD      R0,SP,#+32
   \   00000130   ........           _BLF     ??c_str,??c_str??rA
   \   00000134   00B0A0E1           MOV      R11,R0
   \   00000138   8E1FA0E3           MOV      R1,#+568
   \   0000013C   04008DE2           ADD      R0,SP,#+4
   \   00000140   ........           _BLF     ??FindDictionaryWord,??FindDictionaryWord??rA
   \   00000144   280000EA           B        ??ANPRO10_ReceiveFlashData_6
   1928          #endif
   1929                      } else {
   1930          #ifdef ANBOOTLOADER
   1931                          GUI_SetColor(GUI_BLACK);
   1932                          GUI_SetBkColor(GUI_LIGHTGRAY);
   1933                          GUI_SetFont(&GUI_Font16B_ASCII);
   1934                          char *MsgPtr = "Updating program,please wait...";
   1935                          switch ( pCommand->CommandNo ) {
   1936                              default:
   1937                              case CMD_SEND_FLASH_PROG:
   1938                              break;
   1939                              case CMD_SEND_CONFIG    :
   1940                              MsgPtr = "Updating configuration,please wait...";
   1941                              break;
   1942                          }
   1943                          GUI_ClearRect(1,160,300,190);
   1944                          GUI_DispStringAtCEOL(MsgPtr,1,150); //Updating program,please wait...
   1945          #else
   1946                          AnsiString MsgStr;
   \                     ??ANPRO10_ReceiveFlashData_5:
   \   00000148   04008DE2           ADD      R0,SP,#+4
   \   0000014C   ........           _BLF     ??AnsiString_1,??AnsiString??rA_1
   1947                          switch ( pCommand->CommandNo ) {
   \   00000150   0100D4E5           LDRB     R0,[R4, #+1]
   \   00000154   0010D4E5           LDRB     R1,[R4, #+0]
   \   00000158   000481E1           ORR      R0,R1,R0, LSL #+8
   \   0000015C   6410A0E3           MOV      R1,#+100
   \   00000160   F01E81E3           ORR      R1,R1,#0xF00
   \   00000164   010050E1           CMP      R0,R1
   \   00000168   0C00000A           BEQ      ??ANPRO10_ReceiveFlashData_7
   1948                              default:
   1949                              case CMD_SEND_FLASH_PROG:
   1950                              MsgStr = FindDictionaryWord(L_WORD569);
   \   0000016C   0910A0E1           MOV      R1,R9
   \   00000170   58008DE2           ADD      R0,SP,#+88
   \   00000174   ........           _BLF     ??FindDictionaryWord,??FindDictionaryWord??rA
   \   00000178   ........           LDR      R0,??Subroutine48_0+0x8  ;; ??npos
   \   0000017C   0020A0E3           MOV      R2,#+0
   \   00000180   003090E5           LDR      R3,[R0, #+0]
   \   00000184   58108DE2           ADD      R1,SP,#+88
   \   00000188   04008DE2           ADD      R0,SP,#+4
   \   0000018C   ........           _BLF     ??assign,??assign??rA
   \   00000190   0020A0E3           MOV      R2,#+0
   \   00000194   0110A0E3           MOV      R1,#+1
   \   00000198   58008DE2           ADD      R0,SP,#+88
   \   0000019C   0B0000EA           B        ??ANPRO10_ReceiveFlashData_8
   1951                              break;
   1952                              case CMD_SEND_CONFIG    :
   1953                              MsgStr = FindDictionaryWord(L_WORD772);
   \                     ??ANPRO10_ReceiveFlashData_7:
   \   000001A0   C11FA0E3           MOV      R1,#+772
   \   000001A4   3C008DE2           ADD      R0,SP,#+60
   \   000001A8   ........           _BLF     ??FindDictionaryWord,??FindDictionaryWord??rA
   \   000001AC   ........           LDR      R0,??Subroutine48_0+0xC  ;; ??npos
   \   000001B0   0020A0E3           MOV      R2,#+0
   \   000001B4   003090E5           LDR      R3,[R0, #+0]
   \   000001B8   3C108DE2           ADD      R1,SP,#+60
   \   000001BC   04008DE2           ADD      R0,SP,#+4
   \   000001C0   ........           _BLF     ??assign,??assign??rA
   \   000001C4   0020A0E3           MOV      R2,#+0
   \   000001C8   0110A0E3           MOV      R1,#+1
   \   000001CC   3C008DE2           ADD      R0,SP,#+60
   \                     ??ANPRO10_ReceiveFlashData_8:
   \   000001D0   ........           _BLF     ??_Tidy,??_Tidy??rA
   1954                              break;
   1955                          }
   1956                          MsgBoxHandle = MESSAGEBOX_Create(MsgStr.c_str(),FindDictionaryWord(L_WORD567).c_str(), 0);
   \   000001D4   0810A0E1           MOV      R1,R8
   \   000001D8   20008DE2           ADD      R0,SP,#+32
   \   000001DC   ........           _BLF     ??FindDictionaryWord,??FindDictionaryWord??rA
   \   000001E0   20008DE2           ADD      R0,SP,#+32
   \   000001E4   ........           _BLF     ??c_str,??c_str??rA
   \   000001E8   00B0A0E1           MOV      R11,R0
   \                     ??ANPRO10_ReceiveFlashData_6:
   \   000001EC   04008DE2           ADD      R0,SP,#+4
   \   000001F0   ........           _BLF     ??c_str,??c_str??rA
   \   000001F4   0020A0E3           MOV      R2,#+0
   \   000001F8   0B10A0E1           MOV      R1,R11
   \   000001FC   ........           _BLF     MESSAGEBOX_Create,??MESSAGEBOX_Create??rA
   \   00000200   B200C6E1           STRH     R0,[R6, #+2]
   \   00000204   0020A0E3           MOV      R2,#+0
   \   00000208   0110A0E3           MOV      R1,#+1
   \   0000020C   20008DE2           ADD      R0,SP,#+32
   \   00000210   ........           _BLF     ??_Tidy,??_Tidy??rA
   1957          #endif
   1958                      }
   \   00000214   0020A0E3           MOV      R2,#+0
   \   00000218   0110A0E3           MOV      R1,#+1
   \   0000021C   04008DE2           ADD      R0,SP,#+4
   \   00000220   ........           _BLF     ??_Tidy,??_Tidy??rA
   1959                      break;
   1960                  }
   1961              }
   1962              if ( !ErrorStatus ) {
   \                     ??ANPRO10_ReceiveFlashData_3:
   \   00000224   0700B0E1           MOVS     R0,R7
   \   00000228   1301001A           BNE      ??ANPRO10_ReceiveFlashData_9
   1963          
   1964                  switch ( CurrentDeviceId ) {
   \                     ??ANPRO10_ReceiveFlashData_1:
   \   0000022C   F000DAE1           LDRSH    R0,[R10, #+0]
   \   00000230   300050E3           CMP      R0,#+48
   \   00000234   9400001A           BNE      ??ANPRO10_ReceiveFlashData_10
   1965                      case DEVICE_TCU:    // TCU
   1966                      break;
   1967                      case DEVICE_TDU:    // TDU
   1968          #ifdef ANBOOTLOADER
   1969                      {
   1970                          if ( Size ) {
   1971                              int x     = (248*pCommand->Offset)/Size;
   1972                              int xp    = (100*pCommand->Offset)/Size;
   1973                              int xText = (2+250)/2;
   1974                              int yText = (170+190)/2;
   1975                              GUI_SetColor(GUI_BLACK);
   1976                              GUI_SetBkColor(GUI_LIGHTGRAY);
   1977                              GUI_DrawRect(1, 170, 250, 190);
   1978                              GUI_SetColor(GUI_BLUE);
   1979                              GUI_FillRect(2, 171, x+2, 189);
   1980                              GUI_SetColor(GUI_LIGHTGRAY);
   1981                              GUI_FillRect(x+3, 171, 249, 189);
   1982                              GUI_SetColor(GUI_BLACK);
   1983                              //GUI_SetBkColor(GUI_BLUE);
   1984                              GUI_SetTextMode(GUI_TM_TRANS);
   1985                              GUI_GotoXY(xText,171); GUI_DispDecMin(xp); GUI_DispChar('%');
   1986                              GUI_SetTextMode(GUI_TM_NORMAL);
   1987          
   1988                          }
   1989                      }
   1990          #else
   1991                      {
   1992                          // For later use PROGBAR_Handle ahProgBar = PROGBAR_Create(1, 180, 200, 20, WM_CF_SHOW);
   1993                          if ( MsgBoxHandle > 0 ) {
   \   00000238   F200D6E1           LDRSH    R0,[R6, #+2]
   \   0000023C   010050E3           CMP      R0,#+1
   \   00000240   030000BA           BLT      ??ANPRO10_ReceiveFlashData_11
   1994                              GUI_EndDialog(MsgBoxHandle,0);
   \   00000244   0010A0E3           MOV      R1,#+0
   \   00000248   ........           _BLF     GUI_EndDialog,??GUI_EndDialog??rA
   1995                              MsgBoxHandle = 0;
   \   0000024C   0000A0E3           MOV      R0,#+0
   \   00000250   B200C6E1           STRH     R0,[R6, #+2]
   1996                          }
   1997                          U32 Offset = pCommand->Offset;
   1998                          U32 Percent;
   1999                          if ( Size ) {
   \                     ??ANPRO10_ReceiveFlashData_11:
   \   00000254   20A096E5           LDR      R10,[R6, #+32]
   \   00000258   00005AE3           CMP      R10,#+0
   \   0000025C   1D00000A           BEQ      ??ANPRO10_ReceiveFlashData_12
   2000                              Percent = int(float(Offset)/float(Size)*100.0+0.5);
   \   00000260   0700D4E5           LDRB     R0,[R4, #+7]
   \   00000264   0610D4E5           LDRB     R1,[R4, #+6]
   \   00000268   000481E1           ORR      R0,R1,R0, LSL #+8
   \   0000026C   0510D4E5           LDRB     R1,[R4, #+5]
   \   00000270   000481E1           ORR      R0,R1,R0, LSL #+8
   \   00000274   0410D4E5           LDRB     R1,[R4, #+4]
   \   00000278   000481E1           ORR      R0,R1,R0, LSL #+8
   \   0000027C   ........           _BLF     __ulongToFloat,??__ulongToFloat??rA
   \   00000280   00B0A0E1           MOV      R11,R0
   \   00000284   0A00A0E1           MOV      R0,R10
   \   00000288   ........           _BLF     __longToFloat,??__longToFloat??rA
   \   0000028C   0010A0E1           MOV      R1,R0
   \   00000290   0B00A0E1           MOV      R0,R11
   \   00000294   ........           _BLF     __fDiv,??__fDiv??rA
   \   00000298   ........           _BLF     __floatToDouble,??__floatToDouble??rA
   \   0000029C   0020A0E1           MOV      R2,R0
   \   000002A0   0130A0E1           MOV      R3,R1
   \   000002A4   0000A0E3           MOV      R0,#+0
   \   000002A8   4014A0E3           MOV      R1,#+1073741824
   \   000002AC   591881E3           ORR      R1,R1,#0x590000
   \   000002B0   ........           _BLF     __dMul,??__dMul??rA
   \   000002B4   0020A0E1           MOV      R2,R0
   \   000002B8   0130A0E1           MOV      R3,R1
   \   000002BC   0000A0E3           MOV      R0,#+0
   \   000002C0   C015A0E3           MOV      R1,#+805306368
   \   000002C4   FE1681E3           ORR      R1,R1,#0xFE00000
   \   000002C8   ........           _BLF     __dAdd,??__dAdd??rA
   \   000002CC   ........           _BLF     __doubleToLong,??__doubleToLong??rA
   \   000002D0   00A0A0E1           MOV      R10,R0
   \   000002D4   000000EA           B        ??ANPRO10_ReceiveFlashData_13
   2001                          } else {
   2002                              Percent = 100;
   \                     ??ANPRO10_ReceiveFlashData_12:
   \   000002D8   64A0A0E3           MOV      R10,#+100
   2003                          }
   2004                          AnsiString MsgStr;
   \                     ??ANPRO10_ReceiveFlashData_13:
   \   000002DC   74008DE2           ADD      R0,SP,#+116
   \   000002E0   ........           _BLF     ??AnsiString_1,??AnsiString??rA_1
   2005                          switch ( pCommand->CommandNo ) {
   \   000002E4   0100D4E5           LDRB     R0,[R4, #+1]
   \   000002E8   0010D4E5           LDRB     R1,[R4, #+0]
   \   000002EC   000481E1           ORR      R0,R1,R0, LSL #+8
   \   000002F0   6410A0E3           MOV      R1,#+100
   \   000002F4   F01E81E3           ORR      R1,R1,#0xF00
   \   000002F8   010050E1           CMP      R0,R1
   \   000002FC   0C00000A           BEQ      ??ANPRO10_ReceiveFlashData_14
   2006                              default:
   2007                              case CMD_SEND_FLASH_PROG:
   2008                              MsgStr = FindDictionaryWord(L_WORD569);
   \   00000300   0910A0E1           MOV      R1,R9
   \   00000304   C8008DE2           ADD      R0,SP,#+200
   \   00000308   ........           _BLF     ??FindDictionaryWord,??FindDictionaryWord??rA
   \   0000030C   ........           LDR      R0,??Subroutine48_0+0x10  ;; ??npos
   \   00000310   0020A0E3           MOV      R2,#+0
   \   00000314   003090E5           LDR      R3,[R0, #+0]
   \   00000318   C8108DE2           ADD      R1,SP,#+200
   \   0000031C   74008DE2           ADD      R0,SP,#+116
   \   00000320   ........           _BLF     ??assign,??assign??rA
   \   00000324   0020A0E3           MOV      R2,#+0
   \   00000328   0110A0E3           MOV      R1,#+1
   \   0000032C   C8008DE2           ADD      R0,SP,#+200
   \   00000330   0B0000EA           B        ??ANPRO10_ReceiveFlashData_15
   2009                              break;
   2010                              case CMD_SEND_CONFIG    :
   2011                              MsgStr = FindDictionaryWord(L_WORD772);
   \                     ??ANPRO10_ReceiveFlashData_14:
   \   00000334   C11FA0E3           MOV      R1,#+772
   \   00000338   E4008DE2           ADD      R0,SP,#+228
   \   0000033C   ........           _BLF     ??FindDictionaryWord,??FindDictionaryWord??rA
   \   00000340   ........           LDR      R0,??Subroutine48_0+0x14  ;; ??npos
   \   00000344   0020A0E3           MOV      R2,#+0
   \   00000348   003090E5           LDR      R3,[R0, #+0]
   \   0000034C   E4108DE2           ADD      R1,SP,#+228
   \   00000350   74008DE2           ADD      R0,SP,#+116
   \   00000354   ........           _BLF     ??assign,??assign??rA
   \   00000358   0020A0E3           MOV      R2,#+0
   \   0000035C   0110A0E3           MOV      R1,#+1
   \   00000360   E4008DE2           ADD      R0,SP,#+228
   \                     ??ANPRO10_ReceiveFlashData_15:
   \   00000364   ........           _BLF     ??_Tidy,??_Tidy??rA
   2012                              break;
   2013                          }
   2014                          MsgStr += CrLfStr+FindDictionaryWord(L_WORD773)+": "+(AnsiString)Percent+"%";
   \   00000368   0A10A0E1           MOV      R1,R10
   \   0000036C   400F8DE2           ADD      R0,SP,#+256
   \   00000370   ........           _BLF     ??AnsiString_2,??AnsiString??rA_2
   \   00000374   0090A0E1           MOV      R9,R0
   \   00000378   CE1088E2           ADD      R1,R8,#+206
   \   0000037C   90008DE2           ADD      R0,SP,#+144
   \   00000380   ........           _BLF     ??FindDictionaryWord,??FindDictionaryWord??rA
   \   00000384   ........           LDR      R1,??Subroutine48_0+0x18  ;; CrLfStr
   \   00000388   90208DE2           ADD      R2,SP,#+144
   \   0000038C   58008DE2           ADD      R0,SP,#+88
   \   00000390   ........           _BLF     `??operator+`,`??operator+??rA`
   \   00000394   ........           ADR      R2,??Subroutine48_0  ;; ": "
   \   00000398   58108DE2           ADD      R1,SP,#+88
   \   0000039C   3C008DE2           ADD      R0,SP,#+60
   \   000003A0   ........           _BLF     `??operator+_1`,`??operator+??rA_1`
   \   000003A4   0920A0E1           MOV      R2,R9
   \   000003A8   3C108DE2           ADD      R1,SP,#+60
   \   000003AC   20008DE2           ADD      R0,SP,#+32
   \   000003B0   ........           _BLF     `??operator+`,`??operator+??rA`
   \   000003B4   ........           ADR      R2,??Subroutine48_0+0x4  ;; "%"
   \   000003B8   20108DE2           ADD      R1,SP,#+32
   \   000003BC   04008DE2           ADD      R0,SP,#+4
   \   000003C0   ........           _BLF     `??operator+_1`,`??operator+??rA_1`
   \   000003C4   ........           LDR      R0,??Subroutine48_0+0x1C  ;; ??npos
   \   000003C8   0020A0E3           MOV      R2,#+0
   \   000003CC   003090E5           LDR      R3,[R0, #+0]
   \   000003D0   04108DE2           ADD      R1,SP,#+4
   \   000003D4   74008DE2           ADD      R0,SP,#+116
   \   000003D8   ........           _BLF     ??append,??append??rA
   \   000003DC   0020A0E3           MOV      R2,#+0
   \   000003E0   0110A0E3           MOV      R1,#+1
   \   000003E4   04008DE2           ADD      R0,SP,#+4
   \   000003E8   ........           _BLF     ??_Tidy,??_Tidy??rA
   \   000003EC   0020A0E3           MOV      R2,#+0
   \   000003F0   0110A0E3           MOV      R1,#+1
   \   000003F4   20008DE2           ADD      R0,SP,#+32
   \   000003F8   ........           _BLF     ??_Tidy,??_Tidy??rA
   \   000003FC   0020A0E3           MOV      R2,#+0
   \   00000400   0110A0E3           MOV      R1,#+1
   \   00000404   400F8DE2           ADD      R0,SP,#+256
   \   00000408   ........           _BLF     ??_Tidy,??_Tidy??rA
   \   0000040C   0020A0E3           MOV      R2,#+0
   \   00000410   0110A0E3           MOV      R1,#+1
   \   00000414   3C008DE2           ADD      R0,SP,#+60
   \   00000418   ........           _BLF     ??_Tidy,??_Tidy??rA
   \   0000041C   0020A0E3           MOV      R2,#+0
   \   00000420   0110A0E3           MOV      R1,#+1
   \   00000424   58008DE2           ADD      R0,SP,#+88
   \   00000428   ........           _BLF     ??_Tidy,??_Tidy??rA
   \   0000042C   0020A0E3           MOV      R2,#+0
   \   00000430   0110A0E3           MOV      R1,#+1
   \   00000434   90008DE2           ADD      R0,SP,#+144
   \   00000438   ........           _BLF     ??_Tidy,??_Tidy??rA
   2015                          MsgBoxHandle = MESSAGEBOX_Create(MsgStr.c_str(),FindDictionaryWord(L_WORD567).c_str(), 0);
   \   0000043C   0810A0E1           MOV      R1,R8
   \   00000440   AC008DE2           ADD      R0,SP,#+172
   \   00000444   ........           _BLF     ??FindDictionaryWord,??FindDictionaryWord??rA
   \   00000448   AC008DE2           ADD      R0,SP,#+172
   \   0000044C   ........           _BLF     ??c_str,??c_str??rA
   \   00000450   0080A0E1           MOV      R8,R0
   \   00000454   74008DE2           ADD      R0,SP,#+116
   \   00000458   ........           _BLF     ??c_str,??c_str??rA
   \   0000045C   0020A0E3           MOV      R2,#+0
   \   00000460   0810A0E1           MOV      R1,R8
   \   00000464   ........           _BLF     MESSAGEBOX_Create,??MESSAGEBOX_Create??rA
   \   00000468   B200C6E1           STRH     R0,[R6, #+2]
   \   0000046C   0020A0E3           MOV      R2,#+0
   \   00000470   0110A0E3           MOV      R1,#+1
   \   00000474   AC008DE2           ADD      R0,SP,#+172
   \   00000478   ........           _BLF     ??_Tidy,??_Tidy??rA
   2016                      }
   \   0000047C   0020A0E3           MOV      R2,#+0
   \   00000480   0110A0E3           MOV      R1,#+1
   \   00000484   74008DE2           ADD      R0,SP,#+116
   \   00000488   ........           _BLF     ??_Tidy,??_Tidy??rA
   2017          #endif
   2018                  }
   2019                  switch ( pCommand->CommandNo ) {
   \                     ??ANPRO10_ReceiveFlashData_10:
   \   0000048C   0100D4E5           LDRB     R0,[R4, #+1]
   \   00000490   0010D4E5           LDRB     R1,[R4, #+0]
   \   00000494   0CB084E2           ADD      R11,R4,#+12
   \   00000498   000481E1           ORR      R0,R1,R0, LSL #+8
   \   0000049C   5A10A0E3           MOV      R1,#+90
   \   000004A0   F01E81E3           ORR      R1,R1,#0xF00
   \   000004A4   010050E1           CMP      R0,R1
   \   000004A8   0A108112           ADDNE    R1,R1,#+10
   \   000004AC   01005011           CMPNE    R0,R1
   \   000004B0   0300000A           BEQ      ??ANPRO10_ReceiveFlashData_16
   \   000004B4   0A1081E3           ORR      R1,R1,#0xA
   \   000004B8   010050E1           CMP      R0,R1
   \   000004BC   3200000A           BEQ      ??ANPRO10_ReceiveFlashData_17
   \   000004C0   6D0000EA           B        ??ANPRO10_ReceiveFlashData_9
   2020                      case CMD_SEND_FLASH_PROG:
   2021                      case CMD_SEND_CONFIG    :
   2022                      {
   2023                          U32 Size = pCommand->ndb-ANPRO10_FLASH_DATA_HSIZE;
   \                     ??ANPRO10_ReceiveFlashData_16:
   \   000004C4   0300D4E5           LDRB     R0,[R4, #+3]
   \   000004C8   0210D4E5           LDRB     R1,[R4, #+2]
   2024                          if ( !ProgramMX29LV(FirstSector,pCommand->Offset,(U32)pCommand->Data,Size) ) {
   \   000004CC   0B20A0E1           MOV      R2,R11
   \   000004D0   000481E1           ORR      R0,R1,R0, LSL #+8
   \   000004D4   0610D4E5           LDRB     R1,[R4, #+6]
   \   000004D8   08A040E2           SUB      R10,R0,#+8
   \   000004DC   0700D4E5           LDRB     R0,[R4, #+7]
   \   000004E0   0A30A0E1           MOV      R3,R10
   \   000004E4   000481E1           ORR      R0,R1,R0, LSL #+8
   \   000004E8   0510D4E5           LDRB     R1,[R4, #+5]
   \   000004EC   000481E1           ORR      R0,R1,R0, LSL #+8
   \   000004F0   0410D4E5           LDRB     R1,[R4, #+4]
   \   000004F4   001481E1           ORR      R1,R1,R0, LSL #+8
   \   000004F8   0500A0E1           MOV      R0,R5
   \   000004FC   ........           _BLF     ??ProgramMX29LV,??ProgramMX29LV??rA
   \   00000500   000050E3           CMP      R0,#+0
   \   00000504   0100A013           MOVNE    R0,#+1
   \   00000508   000050E3           CMP      R0,#+0
   2025                              ErrorStatus = FLASH_PROGRAM_FAILURE;
   \   0000050C   0470A003           MOVEQ    R7,#+4
   2026                          }
   2027                          if ( !ErrorStatus && pCommand->LastPacket==0xffffffff ) {
   \   00000510   0700B0E1           MOVS     R0,R7
   \   00000514   1900001A           BNE      ??ANPRO10_ReceiveFlashData_18
   \   00000518   0B00D4E5           LDRB     R0,[R4, #+11]
   \   0000051C   0A10D4E5           LDRB     R1,[R4, #+10]
   \   00000520   000481E1           ORR      R0,R1,R0, LSL #+8
   \   00000524   0910D4E5           LDRB     R1,[R4, #+9]
   \   00000528   000481E1           ORR      R0,R1,R0, LSL #+8
   \   0000052C   0810D4E5           LDRB     R1,[R4, #+8]
   \   00000530   000481E1           ORR      R0,R1,R0, LSL #+8
   \   00000534   010070E3           CMN      R0,#+1
   \   00000538   1000001A           BNE      ??ANPRO10_ReceiveFlashData_18
   2028                              if ( !MarkCompletedMX29LV(LastSector,pCommand->Offset+Size) ) {
   \   0000053C   0700D4E5           LDRB     R0,[R4, #+7]
   \   00000540   0610D4E5           LDRB     R1,[R4, #+6]
   \   00000544   000481E1           ORR      R0,R1,R0, LSL #+8
   \   00000548   0510D4E5           LDRB     R1,[R4, #+5]
   \   0000054C   000481E1           ORR      R0,R1,R0, LSL #+8
   \   00000550   0410D4E5           LDRB     R1,[R4, #+4]
   \   00000554   000481E1           ORR      R0,R1,R0, LSL #+8
   \   00000558   00108AE0           ADD      R1,R10,R0
   \   0000055C   1C019DE5           LDR      R0,[SP, #+284]
   \   00000560   ........           _BLF     ??MarkCompletedMX29LV,??MarkCompletedMX29LV??rA
   \   00000564   000050E3           CMP      R0,#+0
   \   00000568   0100A013           MOVNE    R0,#+1
   \                     ??ANPRO10_ReceiveFlashData_19:
   \   0000056C   000050E3           CMP      R0,#+0
   2029                                  ErrorStatus = FLASH_MARK_COMPLETE_FAILURE;
   \   00000570   0270A003           MOVEQ    R7,#+2
   2030                              } else {}
   2031                              SendFlashDataInProgress = FLASH_IDLE;
   \   00000574   0000A0E3           MOV      R0,#+0
   \   00000578   2500C6E5           STRB     R0,[R6, #+37]
   2032                              ResumeIO();
   \   0000057C   3D0000EA           B        ??ANPRO10_ReceiveFlashData_20
   2033                          } else if ( ErrorStatus ) {
   \                     ??ANPRO10_ReceiveFlashData_18:
   \   00000580   0700B0E1           MOVS     R0,R7
   \   00000584   3C00000A           BEQ      ??ANPRO10_ReceiveFlashData_9
   2034                              ResumeIO();
   \   00000588   3A0000EA           B        ??ANPRO10_ReceiveFlashData_20
   2035                          }
   2036                      }
   2037                      break;
   2038                      case CMD_SEND_SETTINGS  :
   2039                      {
   2040                          if ( !pCommand->Offset ) {
   \                     ??ANPRO10_ReceiveFlashData_17:
   \   0000058C   0700D4E5           LDRB     R0,[R4, #+7]
   \   00000590   0610D4E5           LDRB     R1,[R4, #+6]
   \   00000594   000481E1           ORR      R0,R1,R0, LSL #+8
   \   00000598   0510D4E5           LDRB     R1,[R4, #+5]
   \   0000059C   000481E1           ORR      R0,R1,R0, LSL #+8
   \   000005A0   0410D4E5           LDRB     R1,[R4, #+4]
   \   000005A4   000491E1           ORRS     R0,R1,R0, LSL #+8
   \   000005A8   0800001A           BNE      ??ANPRO10_ReceiveFlashData_21
   2041                              U32 MarkReserved = BLOCK_IS_RESERVED;
   \   000005AC   0110E0E3           MVN      R1,#+1
   \   000005B0   00108DE5           STR      R1,[SP, #+0]
   2042                              if ( !ProgramMX29LV(FirstSector,0,(U32)&MarkReserved,sizeof(U32)) ) {
   \   000005B4   0430A0E3           MOV      R3,#+4
   \   000005B8   0D20A0E1           MOV      R2,SP
   \   000005BC   0010A0E3           MOV      R1,#+0
   \   000005C0   0500A0E1           MOV      R0,R5
   \   000005C4   ........           _BLF     ??ProgramMX29LV,??ProgramMX29LV??rA
   \   000005C8   000050E3           CMP      R0,#+0
   2043                                  ErrorStatus = FLASH_PROGRAM_FAILURE;
   \   000005CC   0470A003           MOVEQ    R7,#+4
   2044                              }
   2045                          }
   2046                          if ( !ErrorStatus ) {
   \                     ??ANPRO10_ReceiveFlashData_21:
   \   000005D0   0700B0E1           MOVS     R0,R7
   \   000005D4   2800001A           BNE      ??ANPRO10_ReceiveFlashData_9
   2047                              U32 Size = pCommand->ndb-ANPRO10_FLASH_DATA_HSIZE;
   2048                              if ( !ProgramMX29LV(FirstSector,pCommand->Offset+sizeof(U32),(U32)pCommand->Data,Size) ) {
   \   000005D8   0300D4E5           LDRB     R0,[R4, #+3]
   \   000005DC   0210D4E5           LDRB     R1,[R4, #+2]
   \   000005E0   0B20A0E1           MOV      R2,R11
   \   000005E4   000481E1           ORR      R0,R1,R0, LSL #+8
   \   000005E8   0610D4E5           LDRB     R1,[R4, #+6]
   \   000005EC   083040E2           SUB      R3,R0,#+8
   \   000005F0   0700D4E5           LDRB     R0,[R4, #+7]
   \   000005F4   000481E1           ORR      R0,R1,R0, LSL #+8
   \   000005F8   0510D4E5           LDRB     R1,[R4, #+5]
   \   000005FC   000481E1           ORR      R0,R1,R0, LSL #+8
   \   00000600   0410D4E5           LDRB     R1,[R4, #+4]
   \   00000604   000481E1           ORR      R0,R1,R0, LSL #+8
   \   00000608   041080E2           ADD      R1,R0,#+4
   \   0000060C   0500A0E1           MOV      R0,R5
   \   00000610   ........           _BLF     ??ProgramMX29LV,??ProgramMX29LV??rA
   \   00000614   000050E3           CMP      R0,#+0
   \   00000618   0100A013           MOVNE    R0,#+1
   \   0000061C   000050E3           CMP      R0,#+0
   2049                                  ErrorStatus = FLASH_PROGRAM_FAILURE;
   \   00000620   0470A003           MOVEQ    R7,#+4
   2050                              }
   2051                              if ( !ErrorStatus && pCommand->LastPacket==0xffffffff ) {
   \   00000624   0700B0E1           MOVS     R0,R7
   \   00000628   1000001A           BNE      ??ANPRO10_ReceiveFlashData_22
   \   0000062C   0B00D4E5           LDRB     R0,[R4, #+11]
   \   00000630   0A10D4E5           LDRB     R1,[R4, #+10]
   \   00000634   000481E1           ORR      R0,R1,R0, LSL #+8
   \   00000638   0910D4E5           LDRB     R1,[R4, #+9]
   \   0000063C   000481E1           ORR      R0,R1,R0, LSL #+8
   \   00000640   0810D4E5           LDRB     R1,[R4, #+8]
   \   00000644   000481E1           ORR      R0,R1,R0, LSL #+8
   \   00000648   010070E3           CMN      R0,#+1
   \   0000064C   0700001A           BNE      ??ANPRO10_ReceiveFlashData_22
   2052                                  U32 MarkOK = BLOCK_IS_OK;
   \   00000650   0310E0E3           MVN      R1,#+3
   \   00000654   00108DE5           STR      R1,[SP, #+0]
   2053                                  if ( ! ProgramMX29LV(FirstSector,0,(U32)&MarkOK,sizeof(U32)) ) {
   \   00000658   0430A0E3           MOV      R3,#+4
   \   0000065C   0D20A0E1           MOV      R2,SP
   \   00000660   0010A0E3           MOV      R1,#+0
   \   00000664   0500A0E1           MOV      R0,R5
   \   00000668   ........           _BLF     ??ProgramMX29LV,??ProgramMX29LV??rA
   \   0000066C   BEFFFFEA           B        ??ANPRO10_ReceiveFlashData_19
   2054                                      ErrorStatus = FLASH_MARK_COMPLETE_FAILURE;
   2055                                  }
   2056                                  SendFlashDataInProgress = FLASH_IDLE;
   2057                                  ResumeIO();
   2058                              } else if ( ErrorStatus ) {
   \                     ??ANPRO10_ReceiveFlashData_22:
   \   00000670   0700B0E1           MOVS     R0,R7
   \   00000674   0000000A           BEQ      ??ANPRO10_ReceiveFlashData_9
   2059                                  ResumeIO();
   \                     ??ANPRO10_ReceiveFlashData_20:
   \   00000678   ........           BL       ??ResumeIO
   2060                              }
   2061                          }
   2062                      }
   2063                      break;
   2064                  }
   2065              }
   2066          #endif
   2067              return (ErrorStatus);
   \                     ??ANPRO10_ReceiveFlashData_9:
   \   0000067C   0700A0E1           MOV      R0,R7
   \   00000680   48DF8DE2           ADD      SP,SP,#+288
   \   00000684                      REQUIRE ?Subroutine48
   \   00000684                      ;; // Fall through to label ?Subroutine48
   2068          }
   2069          
   2070          
   2071          /*************************************************************************************************
   2072          *
   2073          *
   2074          *     ANPRO10_ReceiveFlashData(ANPRO10_FLASH_DATA Cmd)
   2075          *
   2076          *
   2077          *************************************************************************************************/
   2078          #if defined(ANWIN)
   2079          char *ConfigBlock = NULL;
   2080          U8 ANPRO10_ReceiveFlashData(ANPRO10_FLASH_DATA *Cmd) {
   2081              U8 ErrorStatus = 0;
   2082              switch (Cmd->CommandNo) {
   2083              case CMD_ERASE_FLASH     :
   2084                  break;
   2085              case CMD_SEND_CONFIG     :
   2086                  {
   2087                      if (!ConfigBlock) {
   2088                          ConfigBlock = new char[CONFIG_FILE_SIZE];
   2089                      }
   2090                      U32 Size = Cmd->ndb - ANPRO10_FLASH_DATA_HSIZE;
   2091                      if (ConfigBlock) {
   2092                          if (Cmd->Offset + Size < CONFIG_FILE_SIZE) {
   2093                              memcpy(&ConfigBlock[Cmd->Offset], Cmd->Data, Size);
   2094                          } else {
   2095                              ErrorStatus = FLASH_PROGRAM_FAILURE;
   2096                          }
   2097                      }
   2098                      if (Cmd->LastPacket == 0xffffffff) {
   2099                          if (ConfigBlock) {
   2100                              if (!MainForm->HaveNewConfig) {
   2101                                  try {
   2102                                      ChDir(AnsiString(SurveyorDirPath));
   2103                                      AnsiString FName     = ExternProjectId + ".S2C";
   2104                                      FILE       *FHandler = fopen(FName.c_str(), "wb");
   2105                                      if (FHandler) {
   2106                                          U32 TotalSize = Cmd->Offset + Size;
   2107                                          U32 Cnt       = fwrite(ConfigBlock, 1, TotalSize, FHandler);
   2108                                          if (TotalSize != Cnt) {
   2109                                              ErrorStatus = FLASH_PROGRAM_FAILURE;
   2110                                          }
   2111                                          fclose(FHandler);
   2112                                      }
   2113                                  } catch (...) {}
   2114                              }
   2115                              delete[] ConfigBlock;
   2116                              ConfigBlock = NULL;
   2117                          }
   2118                          // Give restart message only once
   2119                          if (!MainForm->HaveNewConfig) {
   2120                              MainForm->UpdateCalDataTimer->Enabled = true;
   2121                              MainForm->HaveNewConfig = true;
   2122                              ProjectFileName = ExternProjectId;
   2123                          }
   2124                      }
   2125                  }
   2126                  break;
   2127              case CMD_SEND_FLASH_PROG :
   2128                  break;
   2129              default:
   2130                  break;
   2131              }
   2132              return (ErrorStatus);
   2133          }
   2134          #elif defined(ANFLASH)
   2135          U8 ANPRO10_ReceiveFlashData(ANPRO10_FLASH_DATA *Cmd) {
   2136              U8 ErrorStatus = 0;
   2137              switch (Cmd->CommandNo) {
   2138              case CMD_ERASE_FLASH     :
   2139                  break;
   2140              case CMD_SEND_SETTINGS   :
   2141              case CMD_SEND_CONFIG     :
   2142              case CMD_SEND_FLASH_PROG :
   2143                  {
   2144                      GetFlashDataOffset = Cmd->Offset;
   2145                      U32 Size = Cmd->ndb - ANPRO10_FLASH_DATA_HSIZE;
   2146                      memcpy(&FileBuf[Cmd->Offset], Cmd->Data, Size);
   2147                      BytesInBufferFileBuf = Cmd->Offset + Size;
   2148                      if (Cmd->LastPacket == 0xffffffff) {
   2149                          GetFlashDataCompleted = true;
   2150                          // Give restart message
   2151                      } else {
   2152                          FlashSize     = Cmd->LastPacket;
   2153                          CurrentOffset = Cmd->Offset;
   2154                      }
   2155                  }
   2156                  break;
   2157              default:
   2158                  break;
   2159              }
   2160              return (ErrorStatus);
   2161          }
   2162          #elif defined(ANTDUSIM)
   2163          U8 ANPRO10_ReceiveFlashData(ANPRO10_FLASH_DATA *Cmd) {
   2164              U8 ErrorStatus = 0;
   2165              switch (Cmd->CommandNo) {
   2166              case CMD_ERASE_FLASH     :
   2167                  break;
   2168              case CMD_SEND_CONFIG     :
   2169                  {
   2170                      AnsiString FName       = ExternProjectId + ".S2C";
   2171                      char       *FAttribute;
   2172                      if (Cmd->Offset) {
   2173                          FAttribute = "ab";
   2174                      } else {
   2175                          FAttribute = "wb";
   2176                      }
   2177                      FILE *FHandler = fopen(FName.c_str(), FAttribute);
   2178                      if (FHandler) {
   2179                          U32 Size = Cmd->ndb - ANPRO10_FLASH_DATA_HSIZE;
   2180                          U32 Cnt  = fwrite(Cmd->Data, 1, Size, FHandler);
   2181                          if (Size != Cnt) {
   2182                              ErrorStatus = FLASH_PROGRAM_FAILURE;
   2183                          }
   2184                          fclose(FHandler);
   2185                      }
   2186                      if (Cmd->LastPacket == 0xffffffff) {
   2187                          // Give restart message
   2188                      }
   2189                  }
   2190                  break;
   2191              case CMD_SEND_FLASH_PROG :
   2192                  break;
   2193              default:
   2194                  break;
   2195              }
   2196              return (ErrorStatus);
   2197          }
   2198          #endif
   2199          
   2200          /*************************************************************************************************
   2201          *
   2202          *
   2203          *     ANPRO10_SendFlashData
   2204          *
   2205          *
   2206          *************************************************************************************************/
   2207          

   \                                 In segment CODE, align 4, keep-with-next
   2208          int ANPRO10_SendFlashData(TSNUart *port, U32 Address, U32 DeviceId, U16 CmdNo, U32 FirstSector, U32 LastSector) {
   \                     ??ANPRO10_SendFlashData:
   \   00000000   FF4F2DE9           PUSH     {R0-R11,LR}
   2209              SuspendIO(4*60 * 1000);
   \   00000004   ........           LDR      R7,??DataTable56  ;; RestartAck
   \   00000008   08D04DE2           SUB      SP,SP,#+8
   \   0000000C   3C409DE5           LDR      R4,[SP, #+60]
   \   00000010   40809DE5           LDR      R8,[SP, #+64]
   \   00000014   E00BA0E3           MOV      R0,#+229376
   \   00000018   A60D80E3           ORR      R0,R0,#0x2980
   \   0000001C   ........           BL       ??SuspendIO
   \   00000020   2500D7E5           LDRB     R0,[R7, #+37]
   \   00000024   0050A0E3           MOV      R5,#+0
   \   00000028   FF60A0E3           MOV      R6,#+255
   \   0000002C   000050E3           CMP      R0,#+0
   \   00000030   7600001A           BNE      ??ANPRO10_SendFlashData_1
   2210              int ErrorStatus = FLASH_NO_ERROR;
   2211          #ifndef WIN32
   2212              if ( SendFlashDataInProgress == FLASH_IDLE ) {
   2213                  SendFlashDataInProgress = FLASH_BUSY_SEND;
   \   00000034   0200A0E3           MOV      R0,#+2
   \   00000038   2500C7E5           STRB     R0,[R7, #+37]
   2214                  SendFlashDataTSNUart    = port;
   \   0000003C   08009DE5           LDR      R0,[SP, #+8]
   2215                  SendFlashDataAddress    = Address;
   2216                  SendFlashDataDeviceId   = DeviceId;
   2217          
   2218                  U8 *BlockStart;
   2219                  U32 BlockSize;
   2220                  if ( GetBlockInfoMX29LV(FirstSector,LastSector,&BlockStart,&BlockSize) ) {
   \   00000040   0D30A0E1           MOV      R3,SP
   \   00000044   1C0087E5           STR      R0,[R7, #+28]
   \   00000048   0C009DE5           LDR      R0,[SP, #+12]
   \   0000004C   04208DE2           ADD      R2,SP,#+4
   \   00000050   2600C7E5           STRB     R0,[R7, #+38]
   \   00000054   10009DE5           LDR      R0,[SP, #+16]
   \   00000058   0810A0E1           MOV      R1,R8
   \   0000005C   2700C7E5           STRB     R0,[R7, #+39]
   \   00000060   0400A0E1           MOV      R0,R4
   \   00000064   ........           _BLF     ??GetBlockInfoMX29LV,??GetBlockInfoMX29LV??rA
   \   00000068   000050E3           CMP      R0,#+0
   \   0000006C   6500000A           BEQ      ??ANPRO10_SendFlashData_2
   2221                      int PosCnt = 0;
   \   00000070   0040A0E3           MOV      R4,#+0
   2222                      DownloadAck     = FLASH_NO_ERROR;
   \   00000074   2450C7E5           STRB     R5,[R7, #+36]
   2223                      bool NoError = true;
   \                     ??ANPRO10_SendFlashData_3:
   \   00000078   00009DE5           LDR      R0,[SP, #+0]
   \   0000007C   000054E1           CMP      R4,R0
   \   00000080   5A00002A           BCS      ??ANPRO10_SendFlashData_4
   \   00000084   2400D7E5           LDRB     R0,[R7, #+36]
   \   00000088   000050E3           CMP      R0,#+0
   \   0000008C   5700001A           BNE      ??ANPRO10_SendFlashData_4
   2224                      while ( NoError && (PosCnt<BlockSize) && (DownloadAck==FLASH_NO_ERROR) ) {
   2225                          DownloadAck = FLASH_PROGRAM_TIMEOUT;     // No answer
   \   00000090   0300A0E3           MOV      R0,#+3
   \   00000094   2400C7E5           STRB     R0,[R7, #+36]
   2226                          int NewPosCnt = PosCnt+ANPRO10_MAX_DATA_SIZE;
   2227                          int PacketSize;
   2228                          U32 LastPacket;
   2229                          // Full packet
   2230                          if ( NewPosCnt<BlockSize ) {
   \   00000098   00009DE5           LDR      R0,[SP, #+0]
   \   0000009C   58B0A0E3           MOV      R11,#+88
   \   000000A0   F8BD8BE3           ORR      R11,R11,#0x3E00
   \   000000A4   04808BE0           ADD      R8,R11,R4
   \   000000A8   000058E1           CMP      R8,R0
   2231                              PacketSize = ANPRO10_MAX_DATA_SIZE;
   2232                              LastPacket = BlockSize;
   2233                          } else {
   2234                              PacketSize = BlockSize - PosCnt;
   \   000000AC   00009D25           LDRCS    R0,[SP, #+0]
   \   000000B0   00A09D35           LDRCC    R10,[SP, #+0]
   \   000000B4   04B04020           SUBCS    R11,R0,R4
   2235                              LastPacket = 0xffffffff;
   \   000000B8   05A0E021           MVNCS    R10,R5
   2236                          }
   2237                          {
   2238                              QueueANPRO10_FLASH_DATA *Command = new QueueANPRO10_FLASH_DATA;
   \   000000BC   6A00A0E3           MOV      R0,#+106
   \   000000C0   F80D80E3           ORR      R0,R0,#0x3E00
   \   000000C4   ........           _BLF     `??operator new`,`??operator new??rA`
   \   000000C8   0090A0E1           MOV      R9,R0
   2239                              Command->TxInfo.Port     = port;
   \   000000CC   0000A0E3           MOV      R0,#+0
   \                     ??ANPRO10_SendFlashData_5:
   \   000000D0   08108DE2           ADD      R1,SP,#+8
   \   000000D4   0110D0E7           LDRB     R1,[R0, +R1]
   \   000000D8   0910C0E7           STRB     R1,[R0, +R9]
   \   000000DC   010080E2           ADD      R0,R0,#+1
   \   000000E0   040050E3           CMP      R0,#+4
   \   000000E4   F9FFFFBA           BLT      ??ANPRO10_SendFlashData_5
   2240                              Command->TxInfo.rxAddr   = Address;
   \   000000E8   0C009DE5           LDR      R0,[SP, #+12]
   2241                              Command->TxInfo.rxId     = DeviceId;
   2242                              Command->Data.CommandNo  = CmdNo;
   2243                              memcpy(Command->Data.Data,&BlockStart[PosCnt],PacketSize);
   \   000000EC   0B20A0E1           MOV      R2,R11
   \   000000F0   0400C9E5           STRB     R0,[R9, #+4]
   \   000000F4   10009DE5           LDR      R0,[SP, #+16]
   \   000000F8   0500C9E5           STRB     R0,[R9, #+5]
   \   000000FC   B401DDE1           LDRH     R0,[SP, #+20]
   \   00000100   0600C9E5           STRB     R0,[R9, #+6]
   \   00000104   B401DDE1           LDRH     R0,[SP, #+20]
   \   00000108   2004A0E1           LSR      R0,R0,#+8
   \   0000010C   0700C9E5           STRB     R0,[R9, #+7]
   \   00000110   04009DE5           LDR      R0,[SP, #+4]
   \   00000114   001084E0           ADD      R1,R4,R0
   \   00000118   120089E2           ADD      R0,R9,#+18
   \   0000011C   ........           _BLF     memcpy,??memcpy??rA
   2244                              Command->Data.ndb        = sizeof(QueueANPRO10_FLASH_DATA)-sizeof(QueueANPRO10_CommandHeading)-ANPRO10_MAX_DATA_SIZE+PacketSize;
   \   00000120   08008BE2           ADD      R0,R11,#+8
   \   00000124   0800C9E5           STRB     R0,[R9, #+8]
   \   00000128   2004A0E1           LSR      R0,R0,#+8
   \   0000012C   0900C9E5           STRB     R0,[R9, #+9]
   2245                              Command->Data.Offset     = PosCnt;
   \   00000130   0A40C9E5           STRB     R4,[R9, #+10]
   \   00000134   2404A0E1           LSR      R0,R4,#+8
   \   00000138   0B00C9E5           STRB     R0,[R9, #+11]
   \   0000013C   2004A0E1           LSR      R0,R0,#+8
   \   00000140   0C00C9E5           STRB     R0,[R9, #+12]
   \   00000144   2004A0E1           LSR      R0,R0,#+8
   \   00000148   0D00C9E5           STRB     R0,[R9, #+13]
   2246                              Command->Data.LastPacket = LastPacket;
   \   0000014C   0EA0C9E5           STRB     R10,[R9, #+14]
   \   00000150   2A04A0E1           LSR      R0,R10,#+8
   \   00000154   0F00C9E5           STRB     R0,[R9, #+15]
   \   00000158   2004A0E1           LSR      R0,R0,#+8
   \   0000015C   1000C9E5           STRB     R0,[R9, #+16]
   \   00000160   2004A0E1           LSR      R0,R0,#+8
   \   00000164   1100C9E5           STRB     R0,[R9, #+17]
   2247                              int WaitTime;
   2248                              if ( Command->Data.Offset ) {
   \   00000168   0D00D9E5           LDRB     R0,[R9, #+13]
   \   0000016C   0C10D9E5           LDRB     R1,[R9, #+12]
   2249                                  WaitTime = 5000;
   2250                              } else {
   2251                                  WaitTime = 10000;
   2252                              }
   2253                              int RetryCnt    = 0;
   \   00000170   00B0A0E3           MOV      R11,#+0
   \   00000174   000481E1           ORR      R0,R1,R0, LSL #+8
   \   00000178   0B10D9E5           LDRB     R1,[R9, #+11]
   \   0000017C   000481E1           ORR      R0,R1,R0, LSL #+8
   \   00000180   0A10D9E5           LDRB     R1,[R9, #+10]
   \   00000184   000491E1           ORRS     R0,R1,R0, LSL #+8
   \   00000188   8840A013           MOVNE    R4,#+136
   \   0000018C   4C4D8413           ORRNE    R4,R4,#0x1300
   \   00000190   1040A003           MOVEQ    R4,#+16
   \   00000194   9C4D8403           ORREQ    R4,R4,#0x2700
   2254                              int AckReceived = 0;
   2255                              OS_EVENT_Reset(&AckFlashEvent);
   \   00000198   400087E2           ADD      R0,R7,#+64
   \   0000019C   ........           _BLF     OS_EVENT_Reset,??OS_EVENT_Reset??rA
   2256                              do {
   2257          
   2258                                  NoError = ANPRO10SendUrgent(Command);
   \                     ??ANPRO10_SendFlashData_6:
   \   000001A0   0900A0E1           MOV      R0,R9
   \   000001A4   ........           BL       ??ANPRO10SendUrgent
   \   000001A8   00A0B0E1           MOVS     R10,R0
   2259                                  if ( NoError ) {
   \   000001AC   1200000A           BEQ      ??ANPRO10_SendFlashData_7
   2260                                      AckReceived = !OS_EVENT_WaitTimed(&AckFlashEvent, WaitTime);
   \   000001B0   0410A0E1           MOV      R1,R4
   \   000001B4   400087E2           ADD      R0,R7,#+64
   \   000001B8   ........           _BLF     OS_EVENT_WaitTimed,??OS_EVENT_WaitTimed??rA
   \   000001BC   000050E3           CMP      R0,#+0
   \   000001C0   0000A013           MOVNE    R0,#+0
   \   000001C4   0100A003           MOVEQ    R0,#+1
   \   000001C8   01B08BE2           ADD      R11,R11,#+1
   \   000001CC   06005BE3           CMP      R11,#+6
   \   000001D0   010000AA           BGE      ??ANPRO10_SendFlashData_8
   \   000001D4   000050E3           CMP      R0,#+0
   \   000001D8   F0FFFF0A           BEQ      ??ANPRO10_SendFlashData_6
   2261                                  } else {
   2262                                      DownloadAck = FLASH_SEND_FAILURE;
   2263                                  }
   2264                              }while ( NoError && (++RetryCnt < 6) && !AckReceived );
   2265                              PosCnt = NewPosCnt;
   \                     ??ANPRO10_SendFlashData_8:
   \   000001DC   0840A0E1           MOV      R4,R8
   2266                              delete Command;
   \   000001E0   0900A0E1           MOV      R0,R9
   \   000001E4   ........           _BLF     `??operator delete`,`??operator delete??rA`
   \   000001E8   00005AE3           CMP      R10,#+0
   \   000001EC   A1FFFF1A           BNE      ??ANPRO10_SendFlashData_3
   2267                          }
   2268                      }
   2269                      switch ( DownloadAck ) {
   \                     ??ANPRO10_SendFlashData_4:
   \   000001F0   2400D7E5           LDRB     R0,[R7, #+36]
   2270                          case FLASH_SEND_FAILURE:
   2271                          case FLASH_NO_ERROR:
   2272                          break;
   2273                          case FLASH_MARK_COMPLETE_FAILURE:
   2274                          case FLASH_PROGRAM_FAILURE:
   2275                          break;
   2276                          case FLASH_ERASE_FAILURE:
   2277                          break;
   2278                          case FLASH_PROGRAM_TIMEOUT:
   2279                          break;
   2280                      }
   2281                      ErrorStatus = DownloadAck;
   \   000001F4   2440D7E5           LDRB     R4,[R7, #+36]
   2282                      SendFlashDataInProgress = FLASH_IDLE;
   \   000001F8   050000EA           B        ??ANPRO10_SendFlashData_9
   \                     ??ANPRO10_SendFlashData_7:
   \   000001FC   0600A0E3           MOV      R0,#+6
   \   00000200   2400C7E5           STRB     R0,[R7, #+36]
   \   00000204   F4FFFFEA           B        ??ANPRO10_SendFlashData_8
   2283                      SendFlashDataTSNUart    = NULL;
   2284                      SendFlashDataAddress  = DEVICE_BROADCAST_ADDR;
   2285                      SendFlashDataDeviceId   = DEVICE_BROADCAST_TXU;
   2286                  } else {
   2287                      ErrorStatus = FLASH_GET_BLOCK_INFO_ERROR;
   \                     ??ANPRO10_SendFlashData_2:
   \   00000208   0840A0E3           MOV      R4,#+8
   2288                      SendFlashDataInProgress = FLASH_IDLE;
   \   0000020C   000000EA           B        ??ANPRO10_SendFlashData_9
   2289                      SendFlashDataTSNUart    = NULL;
   2290                      SendFlashDataAddress  = DEVICE_BROADCAST_ADDR;
   2291                      SendFlashDataDeviceId   = DEVICE_BROADCAST_TXU;
   2292          
   2293                  }
   2294              } else {
   2295                  ErrorStatus = FLASH_BUSY;
   \                     ??ANPRO10_SendFlashData_1:
   \   00000210   0740A0E3           MOV      R4,#+7
   2296                  SendFlashDataInProgress = FLASH_IDLE;
   \                     ??ANPRO10_SendFlashData_9:
   \   00000214   2550C7E5           STRB     R5,[R7, #+37]
   2297                  SendFlashDataTSNUart    = NULL;
   2298                  SendFlashDataAddress  = DEVICE_BROADCAST_ADDR;
   \   00000218   2660C7E5           STRB     R6,[R7, #+38]
   2299                  SendFlashDataDeviceId   = DEVICE_BROADCAST_TXU;
   \   0000021C   0E00A0E3           MOV      R0,#+14
   \   00000220   2700C7E5           STRB     R0,[R7, #+39]
   \   00000224   1C5087E5           STR      R5,[R7, #+28]
   2300              }
   2301          #else
   2302              ErrorStatus = FLASH_MARK_COMPLETE_FAILURE;
   2303          #endif
   2304              ResumeIO();
   \   00000228   ........           BL       ??ResumeIO
   2305              return (ErrorStatus);
   \   0000022C   0400A0E1           MOV      R0,R4
   \   00000230   18D08DE2           ADD      SP,SP,#+24
   \   00000234   ........           B        ?Subroutine48
   2306          }
   2307          
   2308          /*************************************************************************************************
   2309          *
   2310          *
   2311          *     ANPRO10_SendSettings
   2312          *
   2313          *
   2314          *************************************************************************************************/
   2315          

   \                                 In segment CODE, align 4, keep-with-next
   2316          int ANPRO10_SendSettings(TSNUart *port, U32 Address, U32 DeviceId) {
   \                     ??ANPRO10_SendSettings:
   \   00000000   F74F2DE9           PUSH     {R0-R2,R4-R11,LR}
   2317              SuspendIO(4*60 * 1000);
   \   00000004   ........           LDR      R6,??DataTable72  ;; RestartAck
   \   00000008   04D04DE2           SUB      SP,SP,#+4
   \   0000000C   E00BA0E3           MOV      R0,#+229376
   \   00000010   A60D80E3           ORR      R0,R0,#0x2980
   \   00000014   ........           BL       ??SuspendIO
   \   00000018   2500D6E5           LDRB     R0,[R6, #+37]
   \   0000001C   0050A0E3           MOV      R5,#+0
   \   00000020   000050E3           CMP      R0,#+0
   \   00000024   7200001A           BNE      ??ANPRO10_SendSettings_1
   2318              int ErrorStatus = FLASH_NO_ERROR;
   2319          #ifndef WIN32
   2320              if ( SendFlashDataInProgress == FLASH_IDLE ) {
   2321                  SendFlashDataInProgress = FLASH_BUSY_SEND;
   \   00000028   0200A0E3           MOV      R0,#+2
   \   0000002C   2500C6E5           STRB     R0,[R6, #+37]
   2322                  SendFlashDataTSNUart    = port;
   \   00000030   04009DE5           LDR      R0,[SP, #+4]
   2323                  SendFlashDataAddress    = Address;
   2324                  SendFlashDataDeviceId   = DeviceId;
   2325                  char *DataPtr = new char[FLASH_FILE_SIZE];
   2326                  int NumberOfBytes;
   2327                  bool Success = FlashRead(DataPtr,NumberOfBytes);
   2328          
   2329                  int PosCnt = 0;
   \   00000034   0040A0E3           MOV      R4,#+0
   \   00000038   1C0086E5           STR      R0,[R6, #+28]
   \   0000003C   08009DE5           LDR      R0,[SP, #+8]
   \   00000040   2600C6E5           STRB     R0,[R6, #+38]
   \   00000044   0C009DE5           LDR      R0,[SP, #+12]
   \   00000048   2700C6E5           STRB     R0,[R6, #+39]
   \   0000004C   CC019FE5           LDR      R0,??ANPRO10_SendSettings_2  ;; 0x3fffb
   \   00000050   ........           _BLF     `??operator new[]`,`??operator new[]??rA`
   \   00000054   0070A0E1           MOV      R7,R0
   \   00000058   0D10A0E1           MOV      R1,SP
   \   0000005C   ........           _BLF     ??FlashRead,??FlashRead??rA
   2330                  DownloadAck     = FLASH_NO_ERROR;
   \   00000060   2450C6E5           STRB     R5,[R6, #+36]
   2331                  int AckReceived = SEND_FLASH_OK_EVENT;
   2332                  bool NoError = true;
   \                     ??ANPRO10_SendSettings_3:
   \   00000064   00009DE5           LDR      R0,[SP, #+0]
   \   00000068   000054E1           CMP      R4,R0
   \   0000006C   580000AA           BGE      ??ANPRO10_SendSettings_4
   \   00000070   2400D6E5           LDRB     R0,[R6, #+36]
   \   00000074   000050E3           CMP      R0,#+0
   \   00000078   5500001A           BNE      ??ANPRO10_SendSettings_4
   2333                  while ( NoError && (PosCnt<NumberOfBytes) && (DownloadAck==FLASH_NO_ERROR) ) {
   2334                      DownloadAck = FLASH_PROGRAM_TIMEOUT;     // No answer
   \   0000007C   0300A0E3           MOV      R0,#+3
   \   00000080   2400C6E5           STRB     R0,[R6, #+36]
   2335                      int NewPosCnt = PosCnt+ANPRO10_MAX_DATA_SIZE;
   2336                      int PacketSize;
   2337                      U32 LastPacket;
   2338                      // Full packet
   2339                      if ( NewPosCnt<NumberOfBytes ) {
   \   00000084   00009DE5           LDR      R0,[SP, #+0]
   \   00000088   58B0A0E3           MOV      R11,#+88
   \   0000008C   F8BD8BE3           ORR      R11,R11,#0x3E00
   \   00000090   04808BE0           ADD      R8,R11,R4
   \   00000094   000058E1           CMP      R8,R0
   2340                          PacketSize = ANPRO10_MAX_DATA_SIZE;
   2341                          LastPacket = NumberOfBytes;
   2342                      } else {
   2343                          PacketSize = NumberOfBytes - PosCnt;
   \   00000098   00009DA5           LDRGE    R0,[SP, #+0]
   \   0000009C   00A09DB5           LDRLT    R10,[SP, #+0]
   \   000000A0   04B040A0           SUBGE    R11,R0,R4
   2344                          LastPacket = 0xffffffff;
   \   000000A4   05A0E0A1           MVNGE    R10,R5
   2345                      }
   2346                      {
   2347                          QueueANPRO10_FLASH_DATA *Command = new QueueANPRO10_FLASH_DATA;
   \   000000A8   6A00A0E3           MOV      R0,#+106
   \   000000AC   F80D80E3           ORR      R0,R0,#0x3E00
   \   000000B0   ........           _BLF     `??operator new`,`??operator new??rA`
   \   000000B4   0090A0E1           MOV      R9,R0
   2348                          Command->TxInfo.Port     = port;
   \   000000B8   0000A0E3           MOV      R0,#+0
   \                     ??ANPRO10_SendSettings_5:
   \   000000BC   04108DE2           ADD      R1,SP,#+4
   \   000000C0   0110D0E7           LDRB     R1,[R0, +R1]
   \   000000C4   0910C0E7           STRB     R1,[R0, +R9]
   \   000000C8   010080E2           ADD      R0,R0,#+1
   \   000000CC   040050E3           CMP      R0,#+4
   \   000000D0   F9FFFFBA           BLT      ??ANPRO10_SendSettings_5
   2349                          Command->TxInfo.rxAddr   = Address;
   \   000000D4   08009DE5           LDR      R0,[SP, #+8]
   2350                          Command->TxInfo.rxId     = DeviceId;
   2351                          Command->Data.CommandNo  = CMD_SEND_SETTINGS;
   2352                          memcpy(Command->Data.Data,&DataPtr[PosCnt],PacketSize);
   \   000000D8   0B20A0E1           MOV      R2,R11
   \   000000DC   0400C9E5           STRB     R0,[R9, #+4]
   \   000000E0   0C009DE5           LDR      R0,[SP, #+12]
   \   000000E4   071084E0           ADD      R1,R4,R7
   \   000000E8   0500C9E5           STRB     R0,[R9, #+5]
   \   000000EC   6E00A0E3           MOV      R0,#+110
   \   000000F0   0600C9E5           STRB     R0,[R9, #+6]
   \   000000F4   0F00A0E3           MOV      R0,#+15
   \   000000F8   0700C9E5           STRB     R0,[R9, #+7]
   \   000000FC   120089E2           ADD      R0,R9,#+18
   \   00000100   ........           _BLF     memcpy,??memcpy??rA
   2353                          Command->Data.ndb        = sizeof(QueueANPRO10_FLASH_DATA)-sizeof(QueueANPRO10_CommandHeading)-ANPRO10_MAX_DATA_SIZE+PacketSize;
   \   00000104   08008BE2           ADD      R0,R11,#+8
   \   00000108   0800C9E5           STRB     R0,[R9, #+8]
   \   0000010C   2004A0E1           LSR      R0,R0,#+8
   \   00000110   0900C9E5           STRB     R0,[R9, #+9]
   2354                          Command->Data.Offset     = PosCnt;
   \   00000114   0A40C9E5           STRB     R4,[R9, #+10]
   \   00000118   2404A0E1           LSR      R0,R4,#+8
   \   0000011C   0B00C9E5           STRB     R0,[R9, #+11]
   \   00000120   2004A0E1           LSR      R0,R0,#+8
   \   00000124   0C00C9E5           STRB     R0,[R9, #+12]
   \   00000128   2004A0E1           LSR      R0,R0,#+8
   \   0000012C   0D00C9E5           STRB     R0,[R9, #+13]
   2355                          Command->Data.LastPacket = LastPacket;
   \   00000130   0EA0C9E5           STRB     R10,[R9, #+14]
   \   00000134   2A04A0E1           LSR      R0,R10,#+8
   \   00000138   0F00C9E5           STRB     R0,[R9, #+15]
   \   0000013C   2004A0E1           LSR      R0,R0,#+8
   \   00000140   1000C9E5           STRB     R0,[R9, #+16]
   \   00000144   2004A0E1           LSR      R0,R0,#+8
   \   00000148   1100C9E5           STRB     R0,[R9, #+17]
   2356                          int WaitTime;
   2357                          if ( Command->Data.Offset ) {
   \   0000014C   0D00D9E5           LDRB     R0,[R9, #+13]
   \   00000150   0C10D9E5           LDRB     R1,[R9, #+12]
   2358                              WaitTime = 5000;
   2359                          } else {
   2360                              WaitTime = 10000;
   2361                          }
   2362                          int RetryCnt = 0;
   \   00000154   00B0A0E3           MOV      R11,#+0
   \   00000158   000481E1           ORR      R0,R1,R0, LSL #+8
   \   0000015C   0B10D9E5           LDRB     R1,[R9, #+11]
   \   00000160   000481E1           ORR      R0,R1,R0, LSL #+8
   \   00000164   0A10D9E5           LDRB     R1,[R9, #+10]
   \   00000168   000491E1           ORRS     R0,R1,R0, LSL #+8
   \   0000016C   8840A013           MOVNE    R4,#+136
   \   00000170   4C4D8413           ORRNE    R4,R4,#0x1300
   \   00000174   1040A003           MOVEQ    R4,#+16
   \   00000178   9C4D8403           ORREQ    R4,R4,#0x2700
   2363                          OS_EVENT_Reset(&AckFlashEvent);
   \   0000017C   400086E2           ADD      R0,R6,#+64
   \   00000180   ........           _BLF     OS_EVENT_Reset,??OS_EVENT_Reset??rA
   2364                          do {
   2365                              NoError = ANPRO10SendUrgent(Command);
   \                     ??ANPRO10_SendSettings_6:
   \   00000184   0900A0E1           MOV      R0,R9
   \   00000188   ........           BL       ??ANPRO10SendUrgent
   \   0000018C   00A0B0E1           MOVS     R10,R0
   2366                              if ( NoError ) {
   \   00000190   1400000A           BEQ      ??ANPRO10_SendSettings_7
   2367                                  AckReceived = !OS_EVENT_WaitTimed(&AckFlashEvent, WaitTime);
   \   00000194   0410A0E1           MOV      R1,R4
   \   00000198   400086E2           ADD      R0,R6,#+64
   \   0000019C   ........           _BLF     OS_EVENT_WaitTimed,??OS_EVENT_WaitTimed??rA
   \   000001A0   000050E3           CMP      R0,#+0
   \   000001A4   0000A013           MOVNE    R0,#+0
   \   000001A8   0100A003           MOVEQ    R0,#+1
   \   000001AC   01B08BE2           ADD      R11,R11,#+1
   \   000001B0   06005BE3           CMP      R11,#+6
   \   000001B4   010000AA           BGE      ??ANPRO10_SendSettings_8
   \   000001B8   000050E3           CMP      R0,#+0
   \   000001BC   F0FFFF0A           BEQ      ??ANPRO10_SendSettings_6
   2368                              } else {
   2369                                  DownloadAck = FLASH_SEND_FAILURE;
   2370                              }
   2371                          }while ( NoError && (++RetryCnt < 6) && !AckReceived );
   2372                          PosCnt = NewPosCnt;
   \                     ??ANPRO10_SendSettings_8:
   \   000001C0   0840A0E1           MOV      R4,R8
   2373                          delete Command;
   \   000001C4   0900A0E1           MOV      R0,R9
   \   000001C8   ........           _BLF     `??operator delete`,`??operator delete??rA`
   \   000001CC   00005AE3           CMP      R10,#+0
   \   000001D0   A3FFFF1A           BNE      ??ANPRO10_SendSettings_3
   2374                      }
   2375                  }
   2376                  delete [] DataPtr;
   \                     ??ANPRO10_SendSettings_4:
   \   000001D4   0700A0E1           MOV      R0,R7
   \   000001D8   ........           _BLF     `??operator delete[]`,`??operator delete[]??rA`
   2377                  switch ( DownloadAck ) {
   \   000001DC   2400D6E5           LDRB     R0,[R6, #+36]
   2378                      case FLASH_SEND_FAILURE:
   2379                      case FLASH_NO_ERROR:
   2380                      break;
   2381                      case FLASH_MARK_COMPLETE_FAILURE:
   2382                      case FLASH_PROGRAM_FAILURE:
   2383                      break;
   2384                      case FLASH_ERASE_FAILURE:
   2385                      break;
   2386                      case FLASH_PROGRAM_TIMEOUT:
   2387                      break;
   2388                  }
   2389                  ErrorStatus = DownloadAck;
   \   000001E0   2440D6E5           LDRB     R4,[R6, #+36]
   2390                  SendFlashDataInProgress = FLASH_IDLE;
   \   000001E4   030000EA           B        ??ANPRO10_SendSettings_9
   \                     ??ANPRO10_SendSettings_7:
   \   000001E8   0600A0E3           MOV      R0,#+6
   \   000001EC   2400C6E5           STRB     R0,[R6, #+36]
   \   000001F0   F2FFFFEA           B        ??ANPRO10_SendSettings_8
   2391                  SendFlashDataTSNUart    = NULL;
   2392                  SendFlashDataAddress    = DEVICE_BROADCAST_ADDR;
   2393                  SendFlashDataDeviceId   = DEVICE_BROADCAST_TXU;
   2394              } else {
   2395                  ErrorStatus = FLASH_BUSY;
   \                     ??ANPRO10_SendSettings_1:
   \   000001F4   0740A0E3           MOV      R4,#+7
   2396                  SendFlashDataInProgress = FLASH_IDLE;
   \                     ??ANPRO10_SendSettings_9:
   \   000001F8   2550C6E5           STRB     R5,[R6, #+37]
   2397                  SendFlashDataTSNUart    = NULL;
   2398                  SendFlashDataAddress    = DEVICE_BROADCAST_ADDR;
   \   000001FC   FF00A0E3           MOV      R0,#+255
   \   00000200   2600C6E5           STRB     R0,[R6, #+38]
   2399                  SendFlashDataDeviceId   = DEVICE_BROADCAST_TXU;
   \   00000204   0E00A0E3           MOV      R0,#+14
   \   00000208   2700C6E5           STRB     R0,[R6, #+39]
   \   0000020C   1C5086E5           STR      R5,[R6, #+28]
   2400              }
   2401          #else
   2402              ErrorStatus = FLASH_MARK_COMPLETE_FAILURE;
   2403          #endif
   2404              ResumeIO();
   \   00000210   ........           BL       ??ResumeIO
   2405          
   2406              return (ErrorStatus);
   \   00000214   0400A0E1           MOV      R0,R4
   \   00000218   10D08DE2           ADD      SP,SP,#+16
   \   0000021C   ........           B        ?Subroutine48
   \                     ??ANPRO10_SendSettings_2:
   \   00000220   FBFF0300           DC32     0x3fffb
   2407          }
   2408          
   2409          
   2410          /*************************************************************************************************
   2411          *
   2412          *
   2413          *     ANPRO10_SendEraseCommand
   2414          *
   2415          *
   2416          *************************************************************************************************/
   2417          

   \                                 In segment CODE, align 4, keep-with-next
   2418          bool ANPRO10_SendEraseCommand(TSNUart *port, U32 Address, U32 DeviceId, int EraseCommand) {
   \                     ??ANPRO10_SendEraseCommand:
   \   00000000   00402DE9           PUSH     {LR}
   2419              return (ANPRO10SendCommand(port, Address, DeviceId, CMD_ERASE_FLASH, EraseCommand));
   \   00000004   FF3003E2           AND      R3,R3,#0xFF
   \   00000008   08002DE9           PUSH     {R3}
   \   0000000C   5430A0E3           MOV      R3,#+84
   \   00000010   F03E83E3           ORR      R3,R3,#0xF00
   \   00000014   ........           BL       ??ANPRO10SendCommand_1
   \   00000018   0240BDE8           POP      {R1,LR}
   \   0000001C   1EFF2FE1           BX       LR               ;; return
   2420          }
   2421          
   2422          
   2423          #ifdef WIN32
   2424          static TSNUart *DefaultPort = NULL;
   2425          
   2426          void ANPRO10SetDefaultPort(TSNUart *DefPort) {
   2427              DefaultPort = DefPort;
   2428          }
   2429          #endif
   2430          
   2431          

   \                                 In segment CODE, align 4, keep-with-next
   2432          bool ANPRO10SendCommand(TSNUart *port, U32 Address, U32 DeviceId, U16 Cmd) {
   \                     ??ANPRO10SendCommand:
   \   00000000   07402DE9           PUSH     {R0-R2,LR}
   2433              QueueANPRO10_CommandHeading Command;
   2434              Command.TxInfo.Port    = port;
   \   00000004   00008DE5           STR      R0,[SP, #+0]
   2435              Command.TxInfo.rxAddr  = Address;
   \   00000008   0410CDE5           STRB     R1,[SP, #+4]
   2436              Command.TxInfo.rxId    = DeviceId;
   \   0000000C   0520CDE5           STRB     R2,[SP, #+5]
   2437              Command.Data.CommandNo = Cmd;
   \   00000010   B630CDE1           STRH     R3,[SP, #+6]
   2438              Command.Data.ndb       = 0;
   \   00000014   0010A0E3           MOV      R1,#+0
   \   00000018   B810CDE1           STRH     R1,[SP, #+8]
   2439              return (ANPRO10SendUrgent(&Command));
   \   0000001C   0D00A0E1           MOV      R0,SP
   \   00000020   ........           BL       ??ANPRO10SendUrgent
   \   00000024   0E40BDE8           POP      {R1-R3,LR}
   \   00000028   1EFF2FE1           BX       LR               ;; return
   2440          }
   2441          

   \                                 In segment CODE, align 4, keep-with-next
   2442          bool ANPRO10SendCommand(TSNUart *port, U32 Address, U32 DeviceId, U16 Cmd, U8 Data) {
   \                     ??ANPRO10SendCommand_1:
   \   00000000   17402DE9           PUSH     {R0-R2,R4,LR}
   \   00000004   14C0DDE5           LDRB     R12,[SP, #+20]
   2443              QueueANPRO10_COMMAND_OneByte Command;
   2444              Command.TxInfo.Port    = port;
   \   00000008   00008DE5           STR      R0,[SP, #+0]
   2445              Command.TxInfo.rxAddr  = Address;
   \   0000000C   0410CDE5           STRB     R1,[SP, #+4]
   2446              Command.TxInfo.rxId    = DeviceId;
   \   00000010   0520CDE5           STRB     R2,[SP, #+5]
   2447              Command.Data.CommandNo = Cmd;
   \   00000014   B630CDE1           STRH     R3,[SP, #+6]
   2448              Command.Data.ndb       = 1;
   \   00000018   0110A0E3           MOV      R1,#+1
   \   0000001C   B810CDE1           STRH     R1,[SP, #+8]
   2449              Command.Data.Data      = Data;
   \   00000020   0AC0CDE5           STRB     R12,[SP, #+10]
   2450              return (ANPRO10SendUrgent(&Command));
   \   00000024   0D00A0E1           MOV      R0,SP
   \   00000028   ........           BL       ??ANPRO10SendUrgent
   \   0000002C   1E40BDE8           POP      {R1-R4,LR}
   \   00000030   1EFF2FE1           BX       LR               ;; return
   2451          }
   2452          

   \                                 In segment CODE, align 4, keep-with-next
   2453          bool ANPRO10SendUrgent(void *Cmd) {
   \                     ??ANPRO10SendUrgent:
   \   00000000   70402DE9           PUSH     {R4-R6,LR}
   2454              QueueANPRO10_CommandHeading *Command  = (QueueANPRO10_CommandHeading *)Cmd;
   2455          #if defined(ANWIN)
   2456              if (UseANWinNetwork) {  // hkim
   2457                  Command->TxInfo.Port = NULL;
   2458                  int Size = Command->Data.ndb + sizeof(QueueANPRO10_CommandHeading);
   2459                  MainForm->anpro_net.send_urgent((char *)Cmd, Size);
   2460                  return (true);
   2461              }
   2462          
   2463              if (UseNetwork) {
   2464                  Command->TxInfo.Port = NULL;
   2465                  int Size = Command->Data.ndb + sizeof(QueueANPRO10_CommandHeading);
   2466                  if (Size < 1024) {
   2467                      MainForm->TCPClientSendToServer((char *)Cmd, Size);
   2468                  }
   2469              } else if (NetworkOK) {
   2470                  TSNUart *CurrentPort = Command->TxInfo.Port;
   2471                  if (!CurrentPort) CurrentPort = DefaultPort;
   2472                  ANPRO10_SendCommand(CurrentPort, (U8 *)&Command->Data, DEVICE_BROADCAST_ADDR, DEVICE_BROADCAST_TXU);
   2473              }
   2474              return (true);
   2475          #elif defined(ANFLASH)
   2476              ANPRO10_SendCommand(Command->TxInfo.Port, (U8 *)&Command->Data, DEVICE_BROADCAST_ADDR, DEVICE_BROADCAST_TXU);
   2477              return (true);
   2478          #else
   2479              // Send the Data On the UrgentQueue
   2480          #if (NETWORK != 1) // original code
   2481              bool        Status                                  =  TSNAsyncSender::UrgentCommandQ->PostMessage((U8 *)Command, Command->Data.ndb + sizeof(QueueANPRO10_CommandHeading));
   2482          #else // hkim
   2483              bool        Status                                  = true;
   2484              extern bool anpro_net_send_urgent(void *cmd);
   2485              extern bool anpro_net_is_this_cmd_for_net_interface(QueueANPRO10_CommandHeading * cmd);
   2486              //
   2487              // blind forward whether we use network or serial for TxU/PC interface
   2488              //
   2489              // a) if the message is broadcast, all right
   2490              // b) if the message is for a client connected via ethernet,
   2491              //    b.1) the message is forwarded for network
   2492              //    b.2) the message is forwarded to async sender and is dropped
   2493              // c) if the message is for a client connected via serial,
   2494              //    c.1) the message is forwarded for network
   2495              //         and is dropped by the network communication task
   2496              //    c.2) the message is forwarded to async sender and forwarded.
   2497              //
   2498              // So hopefully, everybody is happy with blind forwarding mechanism.
   2499              // -hkim-
   2500              //
   2501              if (Command->TxInfo.rxAddr == DEVICE_BROADCAST_ADDR || Command->TxInfo.rxId == DEVICE_BROADCAST_TXU) {
   \   00000004   ........           LDR      R5,??Subroutine51_0  ;; ??UrgentCommandQ
   \   00000008   0040A0E1           MOV      R4,R0
   \   0000000C   0400D4E5           LDRB     R0,[R4, #+4]
   \   00000010   0160A0E3           MOV      R6,#+1
   \   00000014   FF0050E3           CMP      R0,#+255
   \   00000018   0500D415           LDRBNE   R0,[R4, #+5]
   \   0000001C   0E005013           CMPNE    R0,#+14
   \   00000020   0200001A           BNE      ??ANPRO10SendUrgent_1
   2502                  anpro_net_send_urgent(Cmd);
   \   00000024   0400A0E1           MOV      R0,R4
   \   00000028   ........           _BLF     ??anpro_net_send_urgent,??anpro_net_send_urgent??rA
   2503                  Status = TSNAsyncSender::UrgentCommandQ->PostMessage((U8 *)Command, Command->Data.ndb + sizeof(QueueANPRO10_CommandHeading));
   \   0000002C   060000EA           B        ??ANPRO10SendUrgent_2
   2504              } else {
   2505                  if (anpro_net_is_this_cmd_for_net_interface(Command)) {
   \                     ??ANPRO10SendUrgent_1:
   \   00000030   0400A0E1           MOV      R0,R4
   \   00000034   ........           _BLF     ??anpro_net_is_this_cmd_for_net_interface,??anpro_net_is_this_cmd_for_net_interface??rA
   \   00000038   000050E3           CMP      R0,#+0
   \   0000003C   0200000A           BEQ      ??ANPRO10SendUrgent_2
   2506                      anpro_net_send_urgent(Cmd);
   \   00000040   0400A0E1           MOV      R0,R4
   \   00000044   ........           _BLF     ??anpro_net_send_urgent,??anpro_net_send_urgent??rA
   \   00000048   080000EA           B        ??ANPRO10SendUrgent_3
   2507                  } else {
   2508                      Status = TSNAsyncSender::UrgentCommandQ->PostMessage((U8 *)Command, Command->Data.ndb + sizeof(QueueANPRO10_CommandHeading));
   \                     ??ANPRO10SendUrgent_2:
   \   0000004C   0900D4E5           LDRB     R0,[R4, #+9]
   \   00000050   0810D4E5           LDRB     R1,[R4, #+8]
   \   00000054   000481E1           ORR      R0,R1,R0, LSL #+8
   \   00000058   0A2080E2           ADD      R2,R0,#+10
   \   0000005C   000095E5           LDR      R0,[R5, #+0]
   \   00000060   0410A0E1           MOV      R1,R4
   \   00000064   ........           _BLF     ??PostMessage,??PostMessage??rA
   \   00000068   000050E3           CMP      R0,#+0
   \   0000006C   0060A003           MOVEQ    R6,#+0
   2509                  }
   2510              }
   2511          #endif
   2512          #ifdef S2TXU
   2513          /*
   2514              if ( OS_IsTask(&aTCB[5]) ) {
   2515                  OS_WakeTask(&aTCB[5]);
   2516              }
   2517          */
   2518          #endif
   2519              return (Status);
   \                     ??ANPRO10SendUrgent_3:
   \   00000070   0600A0E1           MOV      R0,R6
   \   00000074                      REQUIRE ?Subroutine51
   \   00000074                      ;; // Fall through to label ?Subroutine51
   2520          #endif
   2521          }
   2522          

   \                                 In segment CODE, align 4, keep-with-next
   2523          bool ANPRO10SendNormal(void *Cmd) {
   \                     ??ANPRO10SendNormal:
   \   00000000   70402DE9           PUSH     {R4-R6,LR}
   2524              QueueANPRO10_CommandHeading *Command  = (QueueANPRO10_CommandHeading *)Cmd;
   2525          #if defined(ANWIN)
   2526              if (UseANWinNetwork) {  // hkim
   2527                  Command->TxInfo.Port = NULL;
   2528                  int Size = Command->Data.ndb + sizeof(QueueANPRO10_CommandHeading);
   2529                  MainForm->anpro_net.send_normal((char *)Cmd, Size);
   2530                  return (true);
   2531              }
   2532          
   2533              if (UseNetwork) {
   2534                  Command->TxInfo.Port = NULL;
   2535                  int Size = Command->Data.ndb + sizeof(QueueANPRO10_CommandHeading);
   2536                  if (Size < 1024) {
   2537                      MainForm->TCPClientSendToServer((char *)Cmd, Size);
   2538                  }
   2539              } else if (NetworkOK) {
   2540                  TSNUart *CurrentPort = Command->TxInfo.Port;
   2541                  if (!CurrentPort) CurrentPort = DefaultPort;
   2542                  ANPRO10_SendCommand(CurrentPort, (U8 *)&Command->Data, DEVICE_BROADCAST_ADDR, DEVICE_BROADCAST_TXU);
   2543              }
   2544              return (true);
   2545          #elif defined(ANFLASH)
   2546              ANPRO10_SendCommand(Command->TxInfo.Port, (U8 *)&Command->Data, DEVICE_BROADCAST_ADDR, DEVICE_BROADCAST_TXU);
   2547              return (true);
   2548          #else
   2549          #if (NETWORK != 1) // original code
   2550              bool        Status = TSNAsyncSender::NormalCommandQ->PostMessage((U8 *)Command, Command->Data.ndb + sizeof(QueueANPRO10_CommandHeading));
   2551          #else // hkim
   2552              bool        Status = true;
   2553              extern bool anpro_net_send_normal(void *cmd);
   2554              extern bool anpro_net_is_this_cmd_for_net_interface(QueueANPRO10_CommandHeading * cmd);
   2555              //
   2556              // blind forward whether we use network or serial for TxU/PC interface
   2557              //
   2558              // a) if the message is broadcast, all right
   2559              // b) if the message is for a client connected via ethernet,
   2560              //    b.1) the message is forwarded for network
   2561              //    b.2) the message is forwarded to async sender and is dropped
   2562              // c) if the message is for a client connected via serial,
   2563              //    c.1) the message is forwarded for network
   2564              //         and is dropped by the network communication task
   2565              //    c.2) the message is forwarded to async sender and forwarded.
   2566              //
   2567              // So hopefully, everybody is happy with blind forwarding mechanism.
   2568              // -hkim-
   2569              //
   2570              if (Command->TxInfo.rxAddr == DEVICE_BROADCAST_ADDR || Command->TxInfo.rxId == DEVICE_BROADCAST_TXU) {
   \   00000004   A4509FE5           LDR      R5,??ANPRO10SendNormal_1  ;; ??NormalCommandQ
   \   00000008   A4609FE5           LDR      R6,??ANPRO10SendNormal_1+0x4  ;; ??NormalCommandQ_1
   \   0000000C   0040A0E1           MOV      R4,R0
   \   00000010   0400D4E5           LDRB     R0,[R4, #+4]
   \   00000014   FF0050E3           CMP      R0,#+255
   \   00000018   0500D415           LDRBNE   R0,[R4, #+5]
   \   0000001C   0E005013           CMPNE    R0,#+14
   \   00000020   1400001A           BNE      ??ANPRO10SendNormal_2
   2571                  Status = AsyncsenderNetwork::NormalCommandQ->PostMessage((U8 *)Command, Command->Data.ndb + sizeof(QueueANPRO10_CommandHeading));
   \   00000024   0900D4E5           LDRB     R0,[R4, #+9]
   \   00000028   0810D4E5           LDRB     R1,[R4, #+8]
   \   0000002C   000481E1           ORR      R0,R1,R0, LSL #+8
   \   00000030   0A2080E2           ADD      R2,R0,#+10
   \   00000034   000096E5           LDR      R0,[R6, #+0]
   \   00000038   0410A0E1           MOV      R1,R4
   \   0000003C   ........           _BLF     ??PostMessage,??PostMessage??rA
   2572                  Status |= TSNAsyncSender::NormalCommandQ->PostMessage((U8 *)Command, Command->Data.ndb + sizeof(QueueANPRO10_CommandHeading));
   \   00000040   0810D4E5           LDRB     R1,[R4, #+8]
   \   00000044   000050E3           CMP      R0,#+0
   \   00000048   0900D4E5           LDRB     R0,[R4, #+9]
   \   0000004C   0160A013           MOVNE    R6,#+1
   \   00000050   0060A003           MOVEQ    R6,#+0
   \   00000054   000481E1           ORR      R0,R1,R0, LSL #+8
   \   00000058   0A2080E2           ADD      R2,R0,#+10
   \   0000005C   000095E5           LDR      R0,[R5, #+0]
   \   00000060   0410A0E1           MOV      R1,R4
   \   00000064   ........           _BLF     ??PostMessage,??PostMessage??rA
   \   00000068   000050E3           CMP      R0,#+0
   \   0000006C   0100A013           MOVNE    R0,#+1
   \   00000070   060080E1           ORR      R0,R0,R6
   \   00000074   0C0000EA           B        ??ANPRO10SendNormal_3
   2573              } else {
   2574                  if (anpro_net_is_this_cmd_for_net_interface(Command)) {
   \                     ??ANPRO10SendNormal_2:
   \   00000078   0400A0E1           MOV      R0,R4
   \   0000007C   ........           _BLF     ??anpro_net_is_this_cmd_for_net_interface,??anpro_net_is_this_cmd_for_net_interface??rA
   \   00000080   0810D4E5           LDRB     R1,[R4, #+8]
   \   00000084   000050E3           CMP      R0,#+0
   \   00000088   0900D4E5           LDRB     R0,[R4, #+9]
   \   0000008C   000481E1           ORR      R0,R1,R0, LSL #+8
   \   00000090   0A2080E2           ADD      R2,R0,#+10
   2575                      Status = AsyncsenderNetwork::NormalCommandQ->PostMessage((U8 *)Command, Command->Data.ndb + sizeof(QueueANPRO10_CommandHeading));
   \   00000094   00009615           LDRNE    R0,[R6, #+0]
   \   00000098   0410A0E1           MOV      R1,R4
   2576                  } else {
   2577                      //anpro_net_send_normal(Cmd);
   2578                      Status = TSNAsyncSender::NormalCommandQ->PostMessage((U8 *)Command, Command->Data.ndb + sizeof(QueueANPRO10_CommandHeading));
   \   0000009C   00009505           LDREQ    R0,[R5, #+0]
   \   000000A0   ........           _BLF     ??PostMessage,??PostMessage??rA
   \   000000A4   000050E3           CMP      R0,#+0
   \   000000A8   0100A013           MOVNE    R0,#+1
   2579                  }
   2580              }
   2581          #endif
   2582          #ifdef S2TXU
   2583          /*
   2584              if ( OS_IsTask(&aTCB[5]) ) {
   2585                  OS_WakeTask(&aTCB[5]);
   2586              }
   2587          */
   2588          #endif
   2589              return (Status);
   \                     ??ANPRO10SendNormal_3:
   \   000000AC   ........           B        ?Subroutine51
   \                     ??ANPRO10SendNormal_1:
   \   000000B0   ........           DC32     ??NormalCommandQ
   \   000000B4   ........           DC32     ??NormalCommandQ_1
   2590          #endif
   2591          }
   2592          

   \                                 In segment CODE, align 4, keep-with-next
   2593          void SyncReceived(void) {
   2594          #if defined(ANFLASH) || defined(ANBOOTLOADER)
   2595          #else
   2596          #ifdef ANWIN
   2597              if (MainForm) {
   2598                  MainForm->SyncReceived();
   2599              }
   2600          #else
   2601              if (AlarmCriticalComFailure::CriticalComAlarm) {
   \                     ??SyncReceived:
   \   00000000   ........           LDR      R0,??DataTable58  ;; ??CriticalComAlarm
   \   00000004   00402DE9           PUSH     {LR}
   \   00000008   000090E5           LDR      R0,[R0, #+0]
   \   0000000C   000050E3           CMP      R0,#+0
   \   00000010   0000000A           BEQ      ??SyncReceived_2
   2602                  AlarmCriticalComFailure::CriticalComAlarm->SyncReceived();
   \   00000014   ........           _BLF     ??SyncReceived_1,??SyncReceived??rA
   2603              }
   2604          #endif
   2605          #endif
   2606          }
   \                     ??SyncReceived_2:
   \   00000018   ........           B        ??Subroutine44_1
   2607          
   2608          

   \                                 In segment CODE, align 4, keep-with-next
   2609          void Restart(TSNUart *port, U32 Address, U32 DeviceId) {
   \                     ??Restart:
   \   00000000   7F402DE9           PUSH     {R0-R6,LR}
   \   00000004   0040A0E1           MOV      R4,R0
   2610              /*
   2611              OS_IncDI();
   2612              ProgProgress =WD_START_AGAIN;
   2613              rWTCON = 0x8021;
   2614              while(true);
   2615              */
   2616          #if defined(S2TXU) || defined(ANBOOTLOADER)
   2617              U8  *ConfigStartPtr;
   2618              U32 ConfigSize;
   2619              U8  *ProgramStartPtr;
   2620              U32 ProgramSize;
   2621          
   2622              if (GetBlockInfoMX29LV(SectorProgStart, SectorProgEnd, &ProgramStartPtr, &ProgramSize)) {
   \   00000008   ........           LDR      R0,??DataTable68  ;; SectorProgEnd
   \   0000000C   0150A0E1           MOV      R5,R1
   \   00000010   001090E5           LDR      R1,[R0, #+0]
   \   00000014   ........           LDR      R0,??DataTable69  ;; SectorProgStart
   \   00000018   0260A0E1           MOV      R6,R2
   \   0000001C   000090E5           LDR      R0,[R0, #+0]
   \   00000020   0C308DE2           ADD      R3,SP,#+12
   \   00000024   08208DE2           ADD      R2,SP,#+8
   \   00000028   ........           _BLF     ??GetBlockInfoMX29LV,??GetBlockInfoMX29LV??rA
   \   0000002C   000050E3           CMP      R0,#+0
   \   00000030   1C00000A           BEQ      ??Restart_1
   2623                  if (GetBlockInfoMX29LV(SectorConfigStart, SectorConfigEnd, &ConfigStartPtr, &ConfigSize)
   2624                      || GetBlockInfoMX29LV(SectorConfigBakStart, SectorConfigBakEnd, &ConfigStartPtr, &ConfigSize)) {
   \   00000034   ........           LDR      R0,??DataTable70  ;; SectorConfigEnd
   \   00000038   04308DE2           ADD      R3,SP,#+4
   \   0000003C   001090E5           LDR      R1,[R0, #+0]
   \   00000040   ........           LDR      R0,??DataTable71  ;; SectorConfigStart
   \   00000044   0D20A0E1           MOV      R2,SP
   \   00000048   000090E5           LDR      R0,[R0, #+0]
   \   0000004C   ........           _BLF     ??GetBlockInfoMX29LV,??GetBlockInfoMX29LV??rA
   \   00000050   000050E3           CMP      R0,#+0
   \   00000054   0800001A           BNE      ??Restart_2
   \   00000058   68009FE5           LDR      R0,??Restart_3   ;; SectorConfigBakEnd
   \   0000005C   04308DE2           ADD      R3,SP,#+4
   \   00000060   001090E5           LDR      R1,[R0, #+0]
   \   00000064   60009FE5           LDR      R0,??Restart_3+0x4  ;; SectorConfigBakStart
   \   00000068   0D20A0E1           MOV      R2,SP
   \   0000006C   000090E5           LDR      R0,[R0, #+0]
   \   00000070   ........           _BLF     ??GetBlockInfoMX29LV,??GetBlockInfoMX29LV??rA
   \   00000074   000050E3           CMP      R0,#+0
   \   00000078   0800000A           BEQ      ??Restart_4
   2625                      ANPRO10SendCommand(port, Address, DeviceId, CMD_START_PROGRAM_OK);
   \                     ??Restart_2:
   \   0000007C   5330A0E3           MOV      R3,#+83
   \   00000080   F03E83E3           ORR      R3,R3,#0xF00
   \   00000084   0620A0E1           MOV      R2,R6
   \   00000088   0510A0E1           MOV      R1,R5
   \   0000008C   0400A0E1           MOV      R0,R4
   \   00000090   ........           BL       ??ANPRO10SendCommand
   2626                      RestartIncMsg("FlashUp");
   \   00000094   34009FE5           LDR      R0,??Restart_3+0x8  ;; `?<Constant "FlashUp">`
   \   00000098   ........           _BLF     RestartIncMsg,??RestartIncMsg??rA
   \   0000009C   070000EA           B        ??Restart_5
   2627                  } else {
   2628                      ANPRO10SendCommand(port, Address, DeviceId, CMD_START_PROGRAM_NO_CONFIG);
   \                     ??Restart_4:
   \   000000A0   5230A0E3           MOV      R3,#+82
   \   000000A4   000000EA           B        ??Restart_6
   2629                  }
   2630              } else {
   2631                  ANPRO10SendCommand(port, Address, DeviceId, CMD_START_PROGRAM_NO_PROGRAM);
   \                     ??Restart_1:
   \   000000A8   5130A0E3           MOV      R3,#+81
   \                     ??Restart_6:
   \   000000AC   F03E83E3           ORR      R3,R3,#0xF00
   \   000000B0   0620A0E1           MOV      R2,R6
   \   000000B4   0510A0E1           MOV      R1,R5
   \   000000B8   0400A0E1           MOV      R0,R4
   \   000000BC   ........           BL       ??ANPRO10SendCommand
   2632              }
   2633          #endif
   2634          }
   \                     ??Restart_5:
   \   000000C0   7F40BDE8           POP      {R0-R6,LR}
   \   000000C4   1EFF2FE1           BX       LR               ;; return
   \                     ??Restart_3:
   \   000000C8   ........           DC32     SectorConfigBakEnd
   \   000000CC   ........           DC32     SectorConfigBakStart
   \   000000D0   ........           DC32     `?<Constant "FlashUp">`
   2635          
   2636          
   2637          /*************************************************************************************************
   2638          *
   2639          *
   2640          *     ANPRO10_SendPrint
   2641          *
   2642          *
   2643          *************************************************************************************************/

   \                                 In segment CODE, align 4, keep-with-next
   2644          void ANPRO10_SendReport(int PortId, int ReportId) {
   \                     ??ANPRO10_SendReport:
   \   00000000   0F402DE9           PUSH     {R0-R3,LR}
   2645          #if defined(ANFLASH) || defined(ANBOOTLOADER)
   2646          #else
   2647              QueueANPRO10_COMMAND_2402 Command;
   2648              if (Master) {
   \   00000004   ........           LDR      R2,??DataTable64  ;; Master
   \   00000008   0020D2E5           LDRB     R2,[R2, #+0]
   \   0000000C   000052E3           CMP      R2,#+0
   \   00000010   0500001A           BNE      ??ANPRO10_SendReport_1
   2649                  //Command.TxInfo.Port        = NULL;
   2650                  //Command.TxInfo.rxAddr      = DEVICE_BROADCAST_ADDR;
   2651                  //Command.TxInfo.rxId        = DEVICE_BROADCAST_TXU;
   2652              } else {
   2653                  Command.TxInfo.Port        = NULL;
   \   00000014   0030A0E3           MOV      R3,#+0
   \   00000018   00308DE5           STR      R3,[SP, #+0]
   2654                  Command.TxInfo.rxAddr      = DEVICE_MASTER;
   \   0000001C   FE30A0E3           MOV      R3,#+254
   \   00000020   0430CDE5           STRB     R3,[SP, #+4]
   2655                  Command.TxInfo.rxId        = DEVICE_TCU;
   \   00000024   2030A0E3           MOV      R3,#+32
   \   00000028   0530CDE5           STRB     R3,[SP, #+5]
   2656              }
   2657              Command.Data.CommandNo = CMD_PRO_PRINT_OUT;
   \                     ??ANPRO10_SendReport_1:
   \   0000002C   6230A0E3           MOV      R3,#+98
   \   00000030   903E83E3           ORR      R3,R3,#0x900
   \   00000034   B630CDE1           STRH     R3,[SP, #+6]
   2658              Command.Data.ndb = sizeof(QueueANPRO10_COMMAND_2402) - sizeof(QueueANPRO10_CommandHeading);
   \   00000038   0530A0E3           MOV      R3,#+5
   \   0000003C   B830CDE1           STRH     R3,[SP, #+8]
   2659              Command.Data.ReportId = ReportId;
   \   00000040   0A10CDE5           STRB     R1,[SP, #+10]
   2660              Command.Data.PortId   = PortId;
   \   00000044   0B00CDE5           STRB     R0,[SP, #+11]
   \   00000048   2004A0E1           LSR      R0,R0,#+8
   \   0000004C   0C00CDE5           STRB     R0,[SP, #+12]
   \   00000050   2004A0E1           LSR      R0,R0,#+8
   \   00000054   0D00CDE5           STRB     R0,[SP, #+13]
   \   00000058   2004A0E1           LSR      R0,R0,#+8
   \   0000005C   0E00CDE5           STRB     R0,[SP, #+14]
   2661              ANPRO10SendUrgent(&Command);
   \   00000060   0D00A0E1           MOV      R0,SP
   \   00000064   ........           BL       ??ANPRO10SendUrgent
   2662          #endif
   2663          }
   \   00000068   0F40BDE8           POP      {R0-R3,LR}
   \   0000006C   1EFF2FE1           BX       LR               ;; return
   2664          
   2665          /*************************************************************************************************
   2666          *
   2667          *
   2668          *     ANPRO10_ReceiveReport
   2669          *
   2670          *
   2671          *************************************************************************************************/
   2672          

   \                                 In segment CODE, align 4, keep-with-next
   2673          void ANPRO10_ReceiveReport(TSNUart *port, U32 Address, U32 DeviceId, U8 *Buf) {
   \                     ??ANPRO10_ReceiveReport:
   \   00000000   10402DE9           PUSH     {R4,LR}
   \   00000004   0340A0E1           MOV      R4,R3
   2674              ANPRO10_COMMAND_2402  *pData = (ANPRO10_COMMAND_2402 *)Buf;
   2675          
   2676          #if defined(S2TXU) || defined(ANWIN)
   2677              // Ignore this packet if to MySelf, because I know MySelf better!!
   2678              if (Master) {
   \   00000008   ........           LDR      R3,??DataTable64  ;; Master
   \   0000000C   1CD04DE2           SUB      SP,SP,#+28
   \   00000010   0030D3E5           LDRB     R3,[R3, #+0]
   \   00000014   000053E3           CMP      R3,#+0
   \   00000018   1A00000A           BEQ      ??ANPRO10_ReceiveReport_1
   2679                  ANPRO10SendCommand(port, Address, DeviceId, CMD_PRO_PRINT_ACK);
   \   0000001C   6330A0E3           MOV      R3,#+99
   \   00000020   903E83E3           ORR      R3,R3,#0x900
   \   00000024   ........           BL       ??ANPRO10SendCommand
   2680                  AnsiString Report;
   \   00000028   0D00A0E1           MOV      R0,SP
   \   0000002C   ........           _BLF     ??AnsiString_1,??AnsiString??rA_1
   2681                  MakeReport(pData->ReportId, Report);
   \   00000030   0400D4E5           LDRB     R0,[R4, #+4]
   \   00000034   0D10A0E1           MOV      R1,SP
   \   00000038   ........           _BLF     ??MakeReport,??MakeReport??rA
   2682                  if (!Report.IsEmpty()) {
   \   0000003C   0D00A0E1           MOV      R0,SP
   \   00000040   ........           _BLF     ??IsEmpty,??IsEmpty??rA
   \   00000044   000050E3           CMP      R0,#+0
   \   00000048   0A00001A           BNE      ??ANPRO10_ReceiveReport_2
   2683                      PROPrinter::Print(pData->PortId, (char *)Report.c_str());
   \   0000004C   0D00A0E1           MOV      R0,SP
   \   00000050   ........           _BLF     ??c_str,??c_str??rA
   \   00000054   0720D4E5           LDRB     R2,[R4, #+7]
   \   00000058   0010A0E1           MOV      R1,R0
   \   0000005C   0800D4E5           LDRB     R0,[R4, #+8]
   \   00000060   000482E1           ORR      R0,R2,R0, LSL #+8
   \   00000064   0620D4E5           LDRB     R2,[R4, #+6]
   \   00000068   000482E1           ORR      R0,R2,R0, LSL #+8
   \   0000006C   0520D4E5           LDRB     R2,[R4, #+5]
   \   00000070   000482E1           ORR      R0,R2,R0, LSL #+8
   \   00000074   ........           _BLF     ??Print,??Print??rA
   2684                  }
   2685              }
   \                     ??ANPRO10_ReceiveReport_2:
   \   00000078   0020A0E3           MOV      R2,#+0
   \   0000007C   0110A0E3           MOV      R1,#+1
   \   00000080   0D00A0E1           MOV      R0,SP
   \   00000084   ........           _BLF     ??_Tidy,??_Tidy??rA
   2686          #endif
   2687          }
   \                     ??ANPRO10_ReceiveReport_1:
   \   00000088   1CD08DE2           ADD      SP,SP,#+28
   \   0000008C   ........           B        ?Subroutine49
   2688          
   2689          
   2690          
   2691          
   2692          #if defined(S2TXU) || defined(ANBOOTLOADER)
   2693          /*******************************************************************
   2694          *       UploadTask
   2695          */
   2696          
   2697          
   2698          // From FlashFileSystem
   2699          extern int FlashActiveSector;
   2700          set<unsigned>Commands;

   \                                 In segment CODE, align 4, keep-with-next
   2701          static void UploadTask(void) {
   \                     ??UploadTask:
   \   00000000   70402DE9           PUSH     {R4-R6,LR}
   \   00000004   ........           LDR      R4,??DataTable72  ;; RestartAck
   \   00000008   98619FE5           LDR      R6,??UploadTask_2  ;; FlashSema
   \   0000000C   18D04DE2           SUB      SP,SP,#+24
   \   00000010   010000EA           B        ??UploadTask_3
   2702              while (true) {
   2703                  UploadMessageStruct MyMessage;
   2704                  if ( OS_GetMailTimed(&UploadMessageBuf, &MyMessage,60*1000) ){
   2705                      Commands.clear();
   \                     ??UploadTask_4:
   \   00000014   040084E2           ADD      R0,R4,#+4
   \   00000018   ........           _BLF     ??clear,??clear??rA
   2706                  }else{
   \                     ??UploadTask_3:
   \   0000001C   6020A0E3           MOV      R2,#+96
   \   00000020   EA2C82E3           ORR      R2,R2,#0xEA00
   \   00000024   0D10A0E1           MOV      R1,SP
   \   00000028   280084E2           ADD      R0,R4,#+40
   \   0000002C   ........           _BLF     OS_GetMailTimed,??OS_GetMailTimed??rA
   \   00000030   000050E3           CMP      R0,#+0
   \   00000034   F6FFFF1A           BNE      ??UploadTask_4
   2707                      unsigned tmpCmd = (MyMessage.Address << 24) | (MyMessage.UnitId << 16) | (MyMessage.Cmd);
   \   00000038   04009DE5           LDR      R0,[SP, #+4]
   \   0000003C   08109DE5           LDR      R1,[SP, #+8]
   \   00000040   0118A0E1           LSL      R1,R1,#+16
   \   00000044   000C81E1           ORR      R0,R1,R0, LSL #+24
   \   00000048   BC10DDE1           LDRH     R1,[SP, #+12]
   \   0000004C   005081E1           ORR      R5,R1,R0
   2708                      bool ignoreRequest = false;
   2709                     // if (MyMessage.isVersionControl) {
   2710                          pair<set<unsigned>::iterator, bool> Ret =  Commands.insert(tmpCmd);
   \   00000050   0520A0E1           MOV      R2,R5
   \   00000054   041084E2           ADD      R1,R4,#+4
   \   00000058   10008DE2           ADD      R0,SP,#+16
   \   0000005C   ........           _BLF     ??insert,??insert??rA
   2711                          ignoreRequest = !Ret.second;
   2712                     // }
   2713                      if (!ignoreRequest) {
   \   00000060   1400DDE5           LDRB     R0,[SP, #+20]
   \   00000064   000050E3           CMP      R0,#+0
   \   00000068   EBFFFF0A           BEQ      ??UploadTask_3
   2714                          OS_Use(&FlashSema);
   \   0000006C   0600A0E1           MOV      R0,R6
   \   00000070   ........           _BLF     OS_Use,??OS_Use??rA
   2715                          // Ignore errors
   2716                          switch (MyMessage.Cmd) {
   \   00000074   BC00DDE1           LDRH     R0,[SP, #+12]
   \   00000078   5A30A0E3           MOV      R3,#+90
   \   0000007C   F03E83E3           ORR      R3,R3,#0xF00
   \   00000080   5A0040E2           SUB      R0,R0,#+90
   \   00000084   F00E40E2           SUB      R0,R0,#+3840
   \   00000088   140050E3           CMP      R0,#+20
   \   0000008C   4200008A           BHI      ??UploadTask_5
   \   00000090   011F8FE2           ADR      R1,??UploadTask_1
   \   00000094   0010D1E7           LDRB     R1,[R1, R0]
   \   00000098   01F18FE0           ADD      PC,PC,R1, LSL #+2
   \                     ??UploadTask_1:
   \   0000009C   133F3F05           DC8      +19,+63,+63,+5
   \   000000A0   3F3F3F3F           DC8      +63,+63,+63,+63
   \   000000A4   3F3F273F           DC8      +63,+63,+39,+63
   \   000000A8   3F3F3F3F           DC8      +63,+63,+63,+63
   \   000000AC   3F3F3F3F           DC8      +63,+63,+63,+63
   \   000000B0   36000000           DC8      +54,+0,+0,+0
   2717                          case CMD_SEND_FLASH_PROG_NO_RESTART:
   2718                              {
   2719                                  int ErrorStatus = ANPRO10_SendFlashData(MyMessage.Port, MyMessage.Address, MyMessage.UnitId, CMD_SEND_FLASH_PROG, SectorProgStart, SectorProgEnd);
   2720                                  if (ErrorStatus != FLASH_NO_ERROR) {
   \                     ??UploadTask_6:
   \   000000B4   ........           LDR      R0,??DataTable68  ;; SectorProgEnd
   \   000000B8   000090E5           LDR      R0,[R0, #+0]
   \   000000BC   01002DE9           PUSH     {R0}
   \   000000C0   ........           LDR      R0,??DataTable69  ;; SectorProgStart
   \   000000C4   000090E5           LDR      R0,[R0, #+0]
   \   000000C8   01002DE9           PUSH     {R0}
   \   000000CC   10209DE5           LDR      R2,[SP, #+16]
   \   000000D0   0C109DE5           LDR      R1,[SP, #+12]
   \   000000D4   08009DE5           LDR      R0,[SP, #+8]
   \   000000D8   ........           BL       ??ANPRO10_SendFlashData
   \   000000DC   000050E3           CMP      R0,#+0
   \   000000E0   08D08DE2           ADD      SP,SP,#+8
   \   000000E4   2C00000A           BEQ      ??UploadTask_5
   2721                                      // Command failed, thus can allow retry
   2722                                      Commands.erase(tmpCmd);
   \   000000E8   280000EA           B        ??UploadTask_7
   2723                                  }
   2724                              }
   2725                              break;
   2726                          case CMD_SEND_FLASH_PROG:
   2727                              {
   2728                                  int ErrorStatus = ANPRO10_SendFlashData(MyMessage.Port, MyMessage.Address, MyMessage.UnitId, CMD_SEND_FLASH_PROG, SectorProgStart, SectorProgEnd);
   2729                                  if (ErrorStatus == FLASH_NO_ERROR) {
   \                     ??UploadTask_8:
   \   000000EC   ........           LDR      R0,??DataTable68  ;; SectorProgEnd
   \   000000F0   000090E5           LDR      R0,[R0, #+0]
   \   000000F4   01002DE9           PUSH     {R0}
   \   000000F8   ........           LDR      R0,??DataTable69  ;; SectorProgStart
   \   000000FC   000090E5           LDR      R0,[R0, #+0]
   \   00000100   01002DE9           PUSH     {R0}
   \   00000104   10209DE5           LDR      R2,[SP, #+16]
   \   00000108   0C109DE5           LDR      R1,[SP, #+12]
   \   0000010C   08009DE5           LDR      R0,[SP, #+8]
   \   00000110   ........           BL       ??ANPRO10_SendFlashData
   \   00000114   000050E3           CMP      R0,#+0
   \   00000118   08D08DE2           ADD      SP,SP,#+8
   \   0000011C   1B00001A           BNE      ??UploadTask_7
   2730                                      TSN_Delay(1000);
   \                     ??UploadTask_9:
   \   00000120   FA0FA0E3           MOV      R0,#+1000
   \   00000124   ........           _BLF     OS_Delay,??OS_Delay??rA
   2731                                      ANPRO10_SendRestartTXU(MyMessage.Port, MyMessage.Address, MyMessage.UnitId);
   \   00000128   08209DE5           LDR      R2,[SP, #+8]
   \   0000012C   04109DE5           LDR      R1,[SP, #+4]
   \   00000130   00009DE5           LDR      R0,[SP, #+0]
   \   00000134   ........           BL       ??ANPRO10_SendRestartTXU
   \   00000138   170000EA           B        ??UploadTask_5
   2732                                  } else if (ErrorStatus != FLASH_NO_ERROR) {
   2733                                      // Command failed, thus can allow retry
   2734                                      Commands.erase(tmpCmd);
   2735                                  }
   2736                              }
   2737                              break;
   2738                          case CMD_SEND_CONFIG:
   2739                              {
   2740                                  int ErrorStatus = ANPRO10_SendFlashData(MyMessage.Port, MyMessage.Address, MyMessage.UnitId, CMD_SEND_CONFIG, SectorConfigStart, SectorConfigEnd);
   2741                                  if (ErrorStatus == FLASH_NO_ERROR) {
   \                     ??UploadTask_10:
   \   0000013C   ........           LDR      R0,??DataTable70  ;; SectorConfigEnd
   \   00000140   0A3083E2           ADD      R3,R3,#+10
   \   00000144   000090E5           LDR      R0,[R0, #+0]
   \   00000148   01002DE9           PUSH     {R0}
   \   0000014C   ........           LDR      R0,??DataTable71  ;; SectorConfigStart
   \   00000150   000090E5           LDR      R0,[R0, #+0]
   \   00000154   01002DE9           PUSH     {R0}
   \   00000158   10209DE5           LDR      R2,[SP, #+16]
   \   0000015C   0C109DE5           LDR      R1,[SP, #+12]
   \   00000160   08009DE5           LDR      R0,[SP, #+8]
   \   00000164   ........           BL       ??ANPRO10_SendFlashData
   \   00000168   000050E3           CMP      R0,#+0
   \   0000016C   08D08DE2           ADD      SP,SP,#+8
   \   00000170   EAFFFF0A           BEQ      ??UploadTask_9
   2742                                      TSN_Delay(1000);
   2743                      //
   2744                      // whether it is flash -> config upgrade or config upgrade
   2745                      // at the end of config upgrade, TxU gotta restart
   2746                      // so kick it in.
   2747                      //
   2748                                      ANPRO10_SendRestartTXU(MyMessage.Port, MyMessage.Address, MyMessage.UnitId);
   2749                                  } else if (ErrorStatus != FLASH_NO_ERROR) {
   2750                                      // Command failed, thus can allow retry
   2751                                      Commands.erase(tmpCmd);
   \   00000174   050000EA           B        ??UploadTask_7
   2752                                  }
   2753                              }
   2754                              break;
   2755                          case CMD_SEND_SETTINGS:
   2756                              {
   2757                                  int ErrorStatus = ANPRO10_SendSettings(MyMessage.Port, MyMessage.Address, MyMessage.UnitId);
   2758                                  if (ErrorStatus == FLASH_NO_ERROR) {
   \                     ??UploadTask_11:
   \   00000178   08209DE5           LDR      R2,[SP, #+8]
   \   0000017C   04109DE5           LDR      R1,[SP, #+4]
   \   00000180   00009DE5           LDR      R0,[SP, #+0]
   \   00000184   ........           BL       ??ANPRO10_SendSettings
   \   00000188   000050E3           CMP      R0,#+0
   \   0000018C   E3FFFF0A           BEQ      ??UploadTask_9
   2759                                      TSN_Delay(1000);
   2760                                      ANPRO10_SendRestartTXU(MyMessage.Port, MyMessage.Address, MyMessage.UnitId);
   2761                                  } else if (ErrorStatus != FLASH_NO_ERROR) {
   2762                                      // Command failed, thus can allow retry
   2763                                      Commands.erase(tmpCmd);
   \                     ??UploadTask_7:
   \   00000190   0510A0E1           MOV      R1,R5
   \   00000194   040084E2           ADD      R0,R4,#+4
   \   00000198   ........           _BLF     ??erase_1,??erase??rA_1
   2764                                  }
   2765                              }
   2766                              break;
   2767                          }
   2768                          OS_Unuse(&FlashSema);
   \                     ??UploadTask_5:
   \   0000019C   0600A0E1           MOV      R0,R6
   \   000001A0   ........           _BLF     OS_Unuse,??OS_Unuse??rA
   \   000001A4   9CFFFFEA           B        ??UploadTask_3
   \                     ??UploadTask_2:
   \   000001A8   ........           DC32     FlashSema
   2769                      } // End if !ignoreRequest
   2770                  } // End else GetMailTimed
   2771              }
   2772          }

   \                                 In segment DATA_I, align 4, align-sorted
   \                     RestartAck:
   \   00000000                      DS8 2
   \   00000002                      REQUIRE `?<Initializer for RestartAck>`
   \   00000002                      DS8 2
   \   00000004                      REQUIRE `?<Initializer for MsgBoxHandle>`
   \                     Commands:
   \   00000004                      DS8 24
   \   0000001C                      REQUIRE `?<Initializer for Commands>`
   \                     SendFlashDataTSNUart:
   \   0000001C                      DS8 4
   \   00000020                      REQUIRE `?<Initializer for SendFlashDataTSNUart>`
   \   00000020                      DS8 4
   \   00000024                      REQUIRE `?<Initializer for Size>`
   \                     DownloadAck:
   \   00000024                      DS8 1
   \   00000025                      REQUIRE `?<Initializer for DownloadAck>`
   \                     SendFlashDataInProgress:
   \   00000025                      DS8 1
   \   00000026                      REQUIRE `?<Initializer for SendFlashDataInProgress>`
   \                     SendFlashDataAddress:
   \   00000026                      DS8 1
   \   00000027                      REQUIRE `?<Initializer for SendFlashDataAddress>`
   \                     SendFlashDataDeviceId:
   \   00000027                      DS8 1
   \   00000028                      REQUIRE `?<Initializer for SendFlashDataDeviceId>`
   \                     UploadMessageBuf:
   \   00000028                      DS8 24
   \   00000040                      REQUIRE `?<Initializer for UploadMessageBuf>`
   \                     AckFlashEvent:
   \   00000040                      DS8 8
   \   00000048                      REQUIRE `?<Initializer for AckFlashEvent>`
   \                     UnpackSema:
   \   00000048                      DS8 16
   \   00000058                      REQUIRE `?<Initializer for UnpackSema>`
   \   00000058                      DS8 64
   \   00000098                      REQUIRE `?<Initializer for UploadTaskHandle>`
   \   00000098                      DS8 8192
   \   00002098                      REQUIRE `?<Initializer for UploadTaskStack>`
   2773          
   2774          static TSN_TASK UploadTaskHandle;                                                    /* Task control blocks */
   2775          
   2776          static unsigned UploadTaskStack[2048];
   2777          

   \                                 In segment CODE, align 4, keep-with-next
   2778          void StartUploadTask(void) {
   \                     ??StartUploadTask:
   \   00000000   10402DE9           PUSH     {R4,LR}
   2779              char *MsgBufPtr = (char *)calloc(FLASH_UPLOAD_MAX_MSGS, sizeof(UploadMessageStruct));
   2780              OS_CreateMB(&UploadMessageBuf, sizeof(UploadMessageStruct), FLASH_UPLOAD_MAX_MSGS, MsgBufPtr);
   \   00000004   ........           LDR      R4,??DataTable72  ;; RestartAck
   \   00000008   1010A0E3           MOV      R1,#+16
   \   0000000C   0A00A0E3           MOV      R0,#+10
   \   00000010   ........           _BLF     __data_calloc,??__data_calloc??rA
   \   00000014   0030A0E1           MOV      R3,R0
   \   00000018   0A20A0E3           MOV      R2,#+10
   \   0000001C   1010A0E3           MOV      R1,#+16
   \   00000020   280084E2           ADD      R0,R4,#+40
   \   00000024   ........           _BLF     OS_CreateMB,??OS_CreateMB??rA
   2781              CREATE_TASK(&UploadTaskHandle, "UploadFlash", UploadTask,     100, UploadTaskStack);
   \   00000028   2C309FE5           LDR      R3,??StartUploadTask_1  ;; ??UploadTask
   \   0000002C   2C109FE5           LDR      R1,??StartUploadTask_1+0x4  ;; `?<Constant "UploadFlash">`
   \   00000030   0200A0E3           MOV      R0,#+2
   \   00000034   01002DE9           PUSH     {R0}
   \   00000038   800DA0E3           MOV      R0,#+8192
   \   0000003C   01002DE9           PUSH     {R0}
   \   00000040   980084E2           ADD      R0,R4,#+152
   \   00000044   01002DE9           PUSH     {R0}
   \   00000048   6420A0E3           MOV      R2,#+100
   \   0000004C   580084E2           ADD      R0,R4,#+88
   \   00000050   ........           _BLF     OS_CreateTask_SP,??OS_CreateTask_SP??rA
   2782          }
   \   00000054   1740BDE8           POP      {R0-R2,R4,LR}
   \   00000058   1EFF2FE1           BX       LR               ;; return
   \                     ??StartUploadTask_1:
   \   0000005C   ........           DC32     ??UploadTask
   \   00000060   ........           DC32     `?<Constant "UploadFlash">`

   \                                 In segment DATA_ID, align 4, align-sorted
   \                     `?<Initializer for fake_uart_port_for_tcp_clien`:
   \   00000000   00000000           DC32 0H
   \                     `?<Initializer for MyProgramVersion>`:
   \   00000004   020E0927           DC8 2, 14, 9, 39

   \                                 In segment DATA_ID, align 4, align-sorted
   \                     `?<Initializer for RestartAck>`:
   \   00000000   0000               DC16 0
   \                     `?<Initializer for MsgBoxHandle>`:
   \   00000002   0000               DC8 0, 0
   \                     `?<Initializer for Commands>`:
   \   00000004   000000000000       DC8 0, 0, 0, 0, 0, 0, 0, 0, 0, 0, 0, 0, 0, 0, 0, 0
   \              000000000000
   \              00000000    
   \   00000014   000000000000       DC8 0, 0, 0, 0, 0, 0, 0, 0
   \              0000        
   \                     `?<Initializer for SendFlashDataTSNUart>`:
   \   0000001C   00000000           DC32 0H
   \                     `?<Initializer for Size>`:
   \   00000020   00000000           DC8 0, 0, 0, 0
   \                     `?<Initializer for DownloadAck>`:
   \   00000024   03                 DC8 3
   \                     `?<Initializer for SendFlashDataInProgress>`:
   \   00000025   00                 DC8 0
   \                     `?<Initializer for SendFlashDataAddress>`:
   \   00000026   FF                 DC8 255
   \                     `?<Initializer for SendFlashDataDeviceId>`:
   \   00000027   0E                 DC8 14
   \                     `?<Initializer for UploadMessageBuf>`:
   \   00000028   000000000000       DC8 0, 0, 0, 0, 0, 0, 0, 0, 0, 0, 0, 0, 0, 0, 0, 0
   \              000000000000
   \              00000000    
   \   00000038   000000000000       DC8 0, 0, 0, 0, 0, 0, 0, 0
   \              0000        
   \                     `?<Initializer for AckFlashEvent>`:
   \   00000040   000000000000       DC8 0, 0, 0, 0, 0, 0, 0, 0
   \              0000        
   \                     `?<Initializer for UnpackSema>`:
   \   00000048   000000000000       DC8 0, 0, 0, 0, 0, 0, 0, 0, 0, 0, 0, 0, 0, 0, 0, 0
   \              000000000000
   \              00000000    
   \                     `?<Initializer for UploadTaskHandle>`:
   \   00000058   000000000000       DC8 0, 0, 0, 0, 0, 0, 0, 0, 0, 0, 0, 0, 0, 0, 0, 0
   \              000000000000
   \              00000000    
   \   00000068   000000000000       DC8 0, 0, 0, 0, 0, 0, 0, 0, 0, 0, 0, 0, 0, 0, 0, 0
   \              000000000000
   \              00000000    
   \   00000078   000000000000       DC8 0, 0, 0, 0, 0, 0, 0, 0, 0, 0, 0, 0, 0, 0, 0, 0
   \              000000000000
   \              00000000    
   \   00000088   000000000000       DC8 0, 0, 0, 0, 0, 0, 0, 0, 0, 0, 0, 0, 0, 0, 0, 0
   \              000000000000
   \              00000000    
   \                     `?<Initializer for UploadTaskStack>`:
   \   00000098   000000000000       DC8 0, 0, 0, 0, 0, 0, 0, 0, 0, 0, 0, 0, 0, 0, 0, 0
   \              000000000000
   \              00000000    
   \   000000A8   000000000000       DC8 0, 0, 0, 0, 0, 0, 0, 0, 0, 0, 0, 0, 0, 0, 0, 0
   \              000000000000
   \              00000000    
   \   000000B8   000000000000       DC8 0, 0, 0, 0, 0, 0, 0, 0, 0, 0, 0, 0, 0, 0, 0, 0
   \              000000000000
   \              00000000    
   \   000000C8   000000000000       DC8 0, 0, 0, 0, 0, 0, 0, 0, 0, 0, 0, 0, 0, 0, 0, 0
   \              000000000000
   \              00000000    
   \   000000D8   000000000000       DC8 0, 0, 0, 0, 0, 0, 0, 0, 0, 0, 0, 0, 0, 0, 0, 0
   \              000000000000
   \              00000000    
   \   000000E8   000000000000       DC8 0, 0, 0, 0, 0, 0, 0, 0, 0, 0, 0, 0, 0, 0, 0, 0
   \              000000000000
   \              00000000    
   \   000000F8   000000000000       DC8 0, 0, 0, 0, 0, 0, 0, 0, 0, 0, 0, 0, 0, 0, 0, 0
   \              000000000000
   \              00000000    
   \   00000108   000000000000       DC8 0, 0, 0, 0, 0, 0, 0, 0, 0, 0, 0, 0, 0, 0, 0, 0
   \              000000000000
   \              00000000    
   \   00000118   000000000000       DC8 0, 0, 0, 0, 0, 0, 0, 0, 0, 0, 0, 0, 0, 0, 0, 0
   \              000000000000
   \              00000000    
   \   00000128   000000000000       DC8 0, 0, 0, 0, 0, 0, 0, 0, 0, 0, 0, 0, 0, 0, 0, 0
   \              000000000000
   \              00000000    
   \   00000138   000000000000       DC8 0, 0, 0, 0, 0, 0, 0, 0, 0, 0, 0, 0, 0, 0, 0, 0
   \              000000000000
   \              00000000    
   \   00000148   000000000000       DC8 0, 0, 0, 0, 0, 0, 0, 0, 0, 0, 0, 0, 0, 0, 0, 0
   \              000000000000
   \              00000000    
   \   00000158   000000000000       DC8 0, 0, 0, 0, 0, 0, 0, 0, 0, 0, 0, 0, 0, 0, 0, 0
   \              000000000000
   \              00000000    
   \   00000168   000000000000       DC8 0, 0, 0, 0, 0, 0, 0, 0, 0, 0, 0, 0, 0, 0, 0, 0
   \              000000000000
   \              00000000    
   \   00000178   000000000000       DC8 0, 0, 0, 0, 0, 0, 0, 0, 0, 0, 0, 0, 0, 0, 0, 0
   \              000000000000
   \              00000000    
   \   00000188   000000000000       DC8 0, 0, 0, 0, 0, 0, 0, 0, 0, 0, 0, 0, 0, 0, 0, 0
   \              000000000000
   \              00000000    
   \   00000198   000000000000       DC8 0, 0, 0, 0, 0, 0, 0, 0, 0, 0, 0, 0, 0, 0, 0, 0
   \              000000000000
   \              00000000    
   \   000001A8   000000000000       DC8 0, 0, 0, 0, 0, 0, 0, 0, 0, 0, 0, 0, 0, 0, 0, 0
   \              000000000000
   \              00000000    
   \   000001B8   000000000000       DC8 0, 0, 0, 0, 0, 0, 0, 0, 0, 0, 0, 0, 0, 0, 0, 0
   \              000000000000
   \              00000000    
   \   000001C8   000000000000       DC8 0, 0, 0, 0, 0, 0, 0, 0, 0, 0, 0, 0, 0, 0, 0, 0
   \              000000000000
   \              00000000    
   \   000001D8   000000000000       DC8 0, 0, 0, 0, 0, 0, 0, 0, 0, 0, 0, 0, 0, 0, 0, 0
   \              000000000000
   \              00000000    
   \   000001E8   000000000000       DC8 0, 0, 0, 0, 0, 0, 0, 0, 0, 0, 0, 0, 0, 0, 0, 0
   \              000000000000
   \              00000000    
   \   000001F8   000000000000       DC8 0, 0, 0, 0, 0, 0, 0, 0, 0, 0, 0, 0, 0, 0, 0, 0
   \              000000000000
   \              00000000    
   \   00000208   000000000000       DC8 0, 0, 0, 0, 0, 0, 0, 0, 0, 0, 0, 0, 0, 0, 0, 0
   \              000000000000
   \              00000000    
   \   00000218   000000000000       DC8 0, 0, 0, 0, 0, 0, 0, 0, 0, 0, 0, 0, 0, 0, 0, 0
   \              000000000000
   \              00000000    
   \   00000228   000000000000       DC8 0, 0, 0, 0, 0, 0, 0, 0, 0, 0, 0, 0, 0, 0, 0, 0
   \              000000000000
   \              00000000    
   \   00000238   000000000000       DC8 0, 0, 0, 0, 0, 0, 0, 0, 0, 0, 0, 0, 0, 0, 0, 0
   \              000000000000
   \              00000000    
   \   00000248   000000000000       DC8 0, 0, 0, 0, 0, 0, 0, 0, 0, 0, 0, 0, 0, 0, 0, 0
   \              000000000000
   \              00000000    
   \   00000258   000000000000       DC8 0, 0, 0, 0, 0, 0, 0, 0, 0, 0, 0, 0, 0, 0, 0, 0
   \              000000000000
   \              00000000    
   \   00000268   000000000000       DC8 0, 0, 0, 0, 0, 0, 0, 0, 0, 0, 0, 0, 0, 0, 0, 0
   \              000000000000
   \              00000000    
   \   00000278   000000000000       DC8 0, 0, 0, 0, 0, 0, 0, 0, 0, 0, 0, 0, 0, 0, 0, 0
   \              000000000000
   \              00000000    
   \   00000288   000000000000       DC8 0, 0, 0, 0, 0, 0, 0, 0, 0, 0, 0, 0, 0, 0, 0, 0
   \              000000000000
   \              00000000    
   \   00000298   000000000000       DC8 0, 0, 0, 0, 0, 0, 0, 0, 0, 0, 0, 0, 0, 0, 0, 0
   \              000000000000
   \              00000000    
   \   000002A8   000000000000       DC8 0, 0, 0, 0, 0, 0, 0, 0, 0, 0, 0, 0, 0, 0, 0, 0
   \              000000000000
   \              00000000    
   \   000002B8   000000000000       DC8 0, 0, 0, 0, 0, 0, 0, 0, 0, 0, 0, 0, 0, 0, 0, 0
   \              000000000000
   \              00000000    
   \   000002C8   000000000000       DC8 0, 0, 0, 0, 0, 0, 0, 0, 0, 0, 0, 0, 0, 0, 0, 0
   \              000000000000
   \              00000000    
   \   000002D8   000000000000       DC8 0, 0, 0, 0, 0, 0, 0, 0, 0, 0, 0, 0, 0, 0, 0, 0
   \              000000000000
   \              00000000    
   \   000002E8   000000000000       DC8 0, 0, 0, 0, 0, 0, 0, 0, 0, 0, 0, 0, 0, 0, 0, 0
   \              000000000000
   \              00000000    
   \   000002F8   000000000000       DC8 0, 0, 0, 0, 0, 0, 0, 0, 0, 0, 0, 0, 0, 0, 0, 0
   \              000000000000
   \              00000000    
   \   00000308   000000000000       DC8 0, 0, 0, 0, 0, 0, 0, 0, 0, 0, 0, 0, 0, 0, 0, 0
   \              000000000000
   \              00000000    
   \   00000318   000000000000       DC8 0, 0, 0, 0, 0, 0, 0, 0, 0, 0, 0, 0, 0, 0, 0, 0
   \              000000000000
   \              00000000    
   \   00000328   000000000000       DC8 0, 0, 0, 0, 0, 0, 0, 0, 0, 0, 0, 0, 0, 0, 0, 0
   \              000000000000
   \              00000000    
   \   00000338   000000000000       DC8 0, 0, 0, 0, 0, 0, 0, 0, 0, 0, 0, 0, 0, 0, 0, 0
   \              000000000000
   \              00000000    
   \   00000348   000000000000       DC8 0, 0, 0, 0, 0, 0, 0, 0, 0, 0, 0, 0, 0, 0, 0, 0
   \              000000000000
   \              00000000    
   \   00000358   000000000000       DC8 0, 0, 0, 0, 0, 0, 0, 0, 0, 0, 0, 0, 0, 0, 0, 0
   \              000000000000
   \              00000000    
   \   00000368   000000000000       DC8 0, 0, 0, 0, 0, 0, 0, 0, 0, 0, 0, 0, 0, 0, 0, 0
   \              000000000000
   \              00000000    
   \   00000378   000000000000       DC8 0, 0, 0, 0, 0, 0, 0, 0, 0, 0, 0, 0, 0, 0, 0, 0
   \              000000000000
   \              00000000    
   \   00000388   000000000000       DC8 0, 0, 0, 0, 0, 0, 0, 0, 0, 0, 0, 0, 0, 0, 0, 0
   \              000000000000
   \              00000000    
   \   00000398   000000000000       DC8 0, 0, 0, 0, 0, 0, 0, 0, 0, 0, 0, 0, 0, 0, 0, 0
   \              000000000000
   \              00000000    
   \   000003A8   000000000000       DC8 0, 0, 0, 0, 0, 0, 0, 0, 0, 0, 0, 0, 0, 0, 0, 0
   \              000000000000
   \              00000000    
   \   000003B8   000000000000       DC8 0, 0, 0, 0, 0, 0, 0, 0, 0, 0, 0, 0, 0, 0, 0, 0
   \              000000000000
   \              00000000    
   \   000003C8   000000000000       DC8 0, 0, 0, 0, 0, 0, 0, 0, 0, 0, 0, 0, 0, 0, 0, 0
   \              000000000000
   \              00000000    
   \   000003D8   000000000000       DC8 0, 0, 0, 0, 0, 0, 0, 0, 0, 0, 0, 0, 0, 0, 0, 0
   \              000000000000
   \              00000000    
   \   000003E8   000000000000       DC8 0, 0, 0, 0, 0, 0, 0, 0, 0, 0, 0, 0, 0, 0, 0, 0
   \              000000000000
   \              00000000    
   \   000003F8   000000000000       DC8 0, 0, 0, 0, 0, 0, 0, 0, 0, 0, 0, 0, 0, 0, 0, 0
   \              000000000000
   \              00000000    
   \   00000408   000000000000       DC8 0, 0, 0, 0, 0, 0, 0, 0, 0, 0, 0, 0, 0, 0, 0, 0
   \              000000000000
   \              00000000    
   \   00000418   000000000000       DC8 0, 0, 0, 0, 0, 0, 0, 0, 0, 0, 0, 0, 0, 0, 0, 0
   \              000000000000
   \              00000000    
   \   00000428   000000000000       DC8 0, 0, 0, 0, 0, 0, 0, 0, 0, 0, 0, 0, 0, 0, 0, 0
   \              000000000000
   \              00000000    
   \   00000438   000000000000       DC8 0, 0, 0, 0, 0, 0, 0, 0, 0, 0, 0, 0, 0, 0, 0, 0
   \              000000000000
   \              00000000    
   \   00000448   000000000000       DC8 0, 0, 0, 0, 0, 0, 0, 0, 0, 0, 0, 0, 0, 0, 0, 0
   \              000000000000
   \              00000000    
   \   00000458   000000000000       DC8 0, 0, 0, 0, 0, 0, 0, 0, 0, 0, 0, 0, 0, 0, 0, 0
   \              000000000000
   \              00000000    
   \   00000468   000000000000       DC8 0, 0, 0, 0, 0, 0, 0, 0, 0, 0, 0, 0, 0, 0, 0, 0
   \              000000000000
   \              00000000    
   \   00000478   000000000000       DC8 0, 0, 0, 0, 0, 0, 0, 0, 0, 0, 0, 0, 0, 0, 0, 0
   \              000000000000
   \              00000000    
   \   00000488   000000000000       DC8 0, 0, 0, 0, 0, 0, 0, 0, 0, 0, 0, 0, 0, 0, 0, 0
   \              000000000000
   \              00000000    
   \   00000498   000000000000       DC8 0, 0, 0, 0, 0, 0, 0, 0, 0, 0, 0, 0, 0, 0, 0, 0
   \              000000000000
   \              00000000    
   \   000004A8   000000000000       DC8 0, 0, 0, 0, 0, 0, 0, 0, 0, 0, 0, 0, 0, 0, 0, 0
   \              000000000000
   \              00000000    
   \   000004B8   000000000000       DC8 0, 0, 0, 0, 0, 0, 0, 0, 0, 0, 0, 0, 0, 0, 0, 0
   \              000000000000
   \              00000000    
   \   000004C8   000000000000       DC8 0, 0, 0, 0, 0, 0, 0, 0, 0, 0, 0, 0, 0, 0, 0, 0
   \              000000000000
   \              00000000    
   \   000004D8   000000000000       DC8 0, 0, 0, 0, 0, 0, 0, 0, 0, 0, 0, 0, 0, 0, 0, 0
   \              000000000000
   \              00000000    
   \   000004E8   000000000000       DC8 0, 0, 0, 0, 0, 0, 0, 0, 0, 0, 0, 0, 0, 0, 0, 0
   \              000000000000
   \              00000000    
   \   000004F8   000000000000       DC8 0, 0, 0, 0, 0, 0, 0, 0, 0, 0, 0, 0, 0, 0, 0, 0
   \              000000000000
   \              00000000    
   \   00000508   000000000000       DC8 0, 0, 0, 0, 0, 0, 0, 0, 0, 0, 0, 0, 0, 0, 0, 0
   \              000000000000
   \              00000000    
   \   00000518   000000000000       DC8 0, 0, 0, 0, 0, 0, 0, 0, 0, 0, 0, 0, 0, 0, 0, 0
   \              000000000000
   \              00000000    
   \   00000528   000000000000       DC8 0, 0, 0, 0, 0, 0, 0, 0, 0, 0, 0, 0, 0, 0, 0, 0
   \              000000000000
   \              00000000    
   \   00000538   000000000000       DC8 0, 0, 0, 0, 0, 0, 0, 0, 0, 0, 0, 0, 0, 0, 0, 0
   \              000000000000
   \              00000000    
   \   00000548   000000000000       DC8 0, 0, 0, 0, 0, 0, 0, 0, 0, 0, 0, 0, 0, 0, 0, 0
   \              000000000000
   \              00000000    
   \   00000558   000000000000       DC8 0, 0, 0, 0, 0, 0, 0, 0, 0, 0, 0, 0, 0, 0, 0, 0
   \              000000000000
   \              00000000    
   \   00000568   000000000000       DC8 0, 0, 0, 0, 0, 0, 0, 0, 0, 0, 0, 0, 0, 0, 0, 0
   \              000000000000
   \              00000000    
   \   00000578   000000000000       DC8 0, 0, 0, 0, 0, 0, 0, 0, 0, 0, 0, 0, 0, 0, 0, 0
   \              000000000000
   \              00000000    
   \   00000588   000000000000       DC8 0, 0, 0, 0, 0, 0, 0, 0, 0, 0, 0, 0, 0, 0, 0, 0
   \              000000000000
   \              00000000    
   \   00000598   000000000000       DC8 0, 0, 0, 0, 0, 0, 0, 0, 0, 0, 0, 0, 0, 0, 0, 0
   \              000000000000
   \              00000000    
   \   000005A8   000000000000       DC8 0, 0, 0, 0, 0, 0, 0, 0, 0, 0, 0, 0, 0, 0, 0, 0
   \              000000000000
   \              00000000    
   \   000005B8   000000000000       DC8 0, 0, 0, 0, 0, 0, 0, 0, 0, 0, 0, 0, 0, 0, 0, 0
   \              000000000000
   \              00000000    
   \   000005C8   000000000000       DC8 0, 0, 0, 0, 0, 0, 0, 0, 0, 0, 0, 0, 0, 0, 0, 0
   \              000000000000
   \              00000000    
   \   000005D8   000000000000       DC8 0, 0, 0, 0, 0, 0, 0, 0, 0, 0, 0, 0, 0, 0, 0, 0
   \              000000000000
   \              00000000    
   \   000005E8   000000000000       DC8 0, 0, 0, 0, 0, 0, 0, 0, 0, 0, 0, 0, 0, 0, 0, 0
   \              000000000000
   \              00000000    
   \   000005F8   000000000000       DC8 0, 0, 0, 0, 0, 0, 0, 0, 0, 0, 0, 0, 0, 0, 0, 0
   \              000000000000
   \              00000000    
   \   00000608   000000000000       DC8 0, 0, 0, 0, 0, 0, 0, 0, 0, 0, 0, 0, 0, 0, 0, 0
   \              000000000000
   \              00000000    
   \   00000618   000000000000       DC8 0, 0, 0, 0, 0, 0, 0, 0, 0, 0, 0, 0, 0, 0, 0, 0
   \              000000000000
   \              00000000    
   \   00000628   000000000000       DC8 0, 0, 0, 0, 0, 0, 0, 0, 0, 0, 0, 0, 0, 0, 0, 0
   \              000000000000
   \              00000000    
   \   00000638   000000000000       DC8 0, 0, 0, 0, 0, 0, 0, 0, 0, 0, 0, 0, 0, 0, 0, 0
   \              000000000000
   \              00000000    
   \   00000648   000000000000       DC8 0, 0, 0, 0, 0, 0, 0, 0, 0, 0, 0, 0, 0, 0, 0, 0
   \              000000000000
   \              00000000    
   \   00000658   000000000000       DC8 0, 0, 0, 0, 0, 0, 0, 0, 0, 0, 0, 0, 0, 0, 0, 0
   \              000000000000
   \              00000000    
   \   00000668   000000000000       DC8 0, 0, 0, 0, 0, 0, 0, 0, 0, 0, 0, 0, 0, 0, 0, 0
   \              000000000000
   \              00000000    
   \   00000678   000000000000       DC8 0, 0, 0, 0, 0, 0, 0, 0, 0, 0, 0, 0, 0, 0, 0, 0
   \              000000000000
   \              00000000    
   \   00000688   000000000000       DC8 0, 0, 0, 0, 0, 0, 0, 0, 0, 0, 0, 0, 0, 0, 0, 0
   \              000000000000
   \              00000000    
   \   00000698   000000000000       DC8 0, 0, 0, 0, 0, 0, 0, 0, 0, 0, 0, 0, 0, 0, 0, 0
   \              000000000000
   \              00000000    
   \   000006A8   000000000000       DC8 0, 0, 0, 0, 0, 0, 0, 0, 0, 0, 0, 0, 0, 0, 0, 0
   \              000000000000
   \              00000000    
   \   000006B8   000000000000       DC8 0, 0, 0, 0, 0, 0, 0, 0, 0, 0, 0, 0, 0, 0, 0, 0
   \              000000000000
   \              00000000    
   \   000006C8   000000000000       DC8 0, 0, 0, 0, 0, 0, 0, 0, 0, 0, 0, 0, 0, 0, 0, 0
   \              000000000000
   \              00000000    
   \   000006D8   000000000000       DC8 0, 0, 0, 0, 0, 0, 0, 0, 0, 0, 0, 0, 0, 0, 0, 0
   \              000000000000
   \              00000000    
   \   000006E8   000000000000       DC8 0, 0, 0, 0, 0, 0, 0, 0, 0, 0, 0, 0, 0, 0, 0, 0
   \              000000000000
   \              00000000    
   \   000006F8   000000000000       DC8 0, 0, 0, 0, 0, 0, 0, 0, 0, 0, 0, 0, 0, 0, 0, 0
   \              000000000000
   \              00000000    
   \   00000708   000000000000       DC8 0, 0, 0, 0, 0, 0, 0, 0, 0, 0, 0, 0, 0, 0, 0, 0
   \              000000000000
   \              00000000    
   \   00000718   000000000000       DC8 0, 0, 0, 0, 0, 0, 0, 0, 0, 0, 0, 0, 0, 0, 0, 0
   \              000000000000
   \              00000000    
   \   00000728   000000000000       DC8 0, 0, 0, 0, 0, 0, 0, 0, 0, 0, 0, 0, 0, 0, 0, 0
   \              000000000000
   \              00000000    
   \   00000738   000000000000       DC8 0, 0, 0, 0, 0, 0, 0, 0, 0, 0, 0, 0, 0, 0, 0, 0
   \              000000000000
   \              00000000    
   \   00000748   000000000000       DC8 0, 0, 0, 0, 0, 0, 0, 0, 0, 0, 0, 0, 0, 0, 0, 0
   \              000000000000
   \              00000000    
   \   00000758   000000000000       DC8 0, 0, 0, 0, 0, 0, 0, 0, 0, 0, 0, 0, 0, 0, 0, 0
   \              000000000000
   \              00000000    
   \   00000768   000000000000       DC8 0, 0, 0, 0, 0, 0, 0, 0, 0, 0, 0, 0, 0, 0, 0, 0
   \              000000000000
   \              00000000    
   \   00000778   000000000000       DC8 0, 0, 0, 0, 0, 0, 0, 0, 0, 0, 0, 0, 0, 0, 0, 0
   \              000000000000
   \              00000000    
   \   00000788   000000000000       DC8 0, 0, 0, 0, 0, 0, 0, 0, 0, 0, 0, 0, 0, 0, 0, 0
   \              000000000000
   \              00000000    
   \   00000798   000000000000       DC8 0, 0, 0, 0, 0, 0, 0, 0, 0, 0, 0, 0, 0, 0, 0, 0
   \              000000000000
   \              00000000    
   \   000007A8   000000000000       DC8 0, 0, 0, 0, 0, 0, 0, 0, 0, 0, 0, 0, 0, 0, 0, 0
   \              000000000000
   \              00000000    
   \   000007B8   000000000000       DC8 0, 0, 0, 0, 0, 0, 0, 0, 0, 0, 0, 0, 0, 0, 0, 0
   \              000000000000
   \              00000000    
   \   000007C8   000000000000       DC8 0, 0, 0, 0, 0, 0, 0, 0, 0, 0, 0, 0, 0, 0, 0, 0
   \              000000000000
   \              00000000    
   \   000007D8   000000000000       DC8 0, 0, 0, 0, 0, 0, 0, 0, 0, 0, 0, 0, 0, 0, 0, 0
   \              000000000000
   \              00000000    
   \   000007E8   000000000000       DC8 0, 0, 0, 0, 0, 0, 0, 0, 0, 0, 0, 0, 0, 0, 0, 0
   \              000000000000
   \              00000000    
   \   000007F8   000000000000       DC8 0, 0, 0, 0, 0, 0, 0, 0, 0, 0, 0, 0, 0, 0, 0, 0
   \              000000000000
   \              00000000    
   \   00000808   000000000000       DC8 0, 0, 0, 0, 0, 0, 0, 0, 0, 0, 0, 0, 0, 0, 0, 0
   \              000000000000
   \              00000000    
   \   00000818   000000000000       DC8 0, 0, 0, 0, 0, 0, 0, 0, 0, 0, 0, 0, 0, 0, 0, 0
   \              000000000000
   \              00000000    
   \   00000828   000000000000       DC8 0, 0, 0, 0, 0, 0, 0, 0, 0, 0, 0, 0, 0, 0, 0, 0
   \              000000000000
   \              00000000    
   \   00000838   000000000000       DC8 0, 0, 0, 0, 0, 0, 0, 0, 0, 0, 0, 0, 0, 0, 0, 0
   \              000000000000
   \              00000000    
   \   00000848   000000000000       DC8 0, 0, 0, 0, 0, 0, 0, 0, 0, 0, 0, 0, 0, 0, 0, 0
   \              000000000000
   \              00000000    
   \   00000858   000000000000       DC8 0, 0, 0, 0, 0, 0, 0, 0, 0, 0, 0, 0, 0, 0, 0, 0
   \              000000000000
   \              00000000    
   \   00000868   000000000000       DC8 0, 0, 0, 0, 0, 0, 0, 0, 0, 0, 0, 0, 0, 0, 0, 0
   \              000000000000
   \              00000000    
   \   00000878   000000000000       DC8 0, 0, 0, 0, 0, 0, 0, 0, 0, 0, 0, 0, 0, 0, 0, 0
   \              000000000000
   \              00000000    
   \   00000888   000000000000       DC8 0, 0, 0, 0, 0, 0, 0, 0, 0, 0, 0, 0, 0, 0, 0, 0
   \              000000000000
   \              00000000    
   \   00000898   000000000000       DC8 0, 0, 0, 0, 0, 0, 0, 0, 0, 0, 0, 0, 0, 0, 0, 0
   \              000000000000
   \              00000000    
   \   000008A8   000000000000       DC8 0, 0, 0, 0, 0, 0, 0, 0, 0, 0, 0, 0, 0, 0, 0, 0
   \              000000000000
   \              00000000    
   \   000008B8   000000000000       DC8 0, 0, 0, 0, 0, 0, 0, 0, 0, 0, 0, 0, 0, 0, 0, 0
   \              000000000000
   \              00000000    
   \   000008C8   000000000000       DC8 0, 0, 0, 0, 0, 0, 0, 0, 0, 0, 0, 0, 0, 0, 0, 0
   \              000000000000
   \              00000000    
   \   000008D8   000000000000       DC8 0, 0, 0, 0, 0, 0, 0, 0, 0, 0, 0, 0, 0, 0, 0, 0
   \              000000000000
   \              00000000    
   \   000008E8   000000000000       DC8 0, 0, 0, 0, 0, 0, 0, 0, 0, 0, 0, 0, 0, 0, 0, 0
   \              000000000000
   \              00000000    
   \   000008F8   000000000000       DC8 0, 0, 0, 0, 0, 0, 0, 0, 0, 0, 0, 0, 0, 0, 0, 0
   \              000000000000
   \              00000000    
   \   00000908   000000000000       DC8 0, 0, 0, 0, 0, 0, 0, 0, 0, 0, 0, 0, 0, 0, 0, 0
   \              000000000000
   \              00000000    
   \   00000918   000000000000       DC8 0, 0, 0, 0, 0, 0, 0, 0, 0, 0, 0, 0, 0, 0, 0, 0
   \              000000000000
   \              00000000    
   \   00000928   000000000000       DC8 0, 0, 0, 0, 0, 0, 0, 0, 0, 0, 0, 0, 0, 0, 0, 0
   \              000000000000
   \              00000000    
   \   00000938   000000000000       DC8 0, 0, 0, 0, 0, 0, 0, 0, 0, 0, 0, 0, 0, 0, 0, 0
   \              000000000000
   \              00000000    
   \   00000948   000000000000       DC8 0, 0, 0, 0, 0, 0, 0, 0, 0, 0, 0, 0, 0, 0, 0, 0
   \              000000000000
   \              00000000    
   \   00000958   000000000000       DC8 0, 0, 0, 0, 0, 0, 0, 0, 0, 0, 0, 0, 0, 0, 0, 0
   \              000000000000
   \              00000000    
   \   00000968   000000000000       DC8 0, 0, 0, 0, 0, 0, 0, 0, 0, 0, 0, 0, 0, 0, 0, 0
   \              000000000000
   \              00000000    
   \   00000978   000000000000       DC8 0, 0, 0, 0, 0, 0, 0, 0, 0, 0, 0, 0, 0, 0, 0, 0
   \              000000000000
   \              00000000    
   \   00000988   000000000000       DC8 0, 0, 0, 0, 0, 0, 0, 0, 0, 0, 0, 0, 0, 0, 0, 0
   \              000000000000
   \              00000000    
   \   00000998   000000000000       DC8 0, 0, 0, 0, 0, 0, 0, 0, 0, 0, 0, 0, 0, 0, 0, 0
   \              000000000000
   \              00000000    
   \   000009A8   000000000000       DC8 0, 0, 0, 0, 0, 0, 0, 0, 0, 0, 0, 0, 0, 0, 0, 0
   \              000000000000
   \              00000000    
   \   000009B8   000000000000       DC8 0, 0, 0, 0, 0, 0, 0, 0, 0, 0, 0, 0, 0, 0, 0, 0
   \              000000000000
   \              00000000    
   \   000009C8   000000000000       DC8 0, 0, 0, 0, 0, 0, 0, 0, 0, 0, 0, 0, 0, 0, 0, 0
   \              000000000000
   \              00000000    
   \   000009D8   000000000000       DC8 0, 0, 0, 0, 0, 0, 0, 0, 0, 0, 0, 0, 0, 0, 0, 0
   \              000000000000
   \              00000000    
   \   000009E8   000000000000       DC8 0, 0, 0, 0, 0, 0, 0, 0, 0, 0, 0, 0, 0, 0, 0, 0
   \              000000000000
   \              00000000    
   \   000009F8   000000000000       DC8 0, 0, 0, 0, 0, 0, 0, 0, 0, 0, 0, 0, 0, 0, 0, 0
   \              000000000000
   \              00000000    
   \   00000A08   000000000000       DC8 0, 0, 0, 0, 0, 0, 0, 0, 0, 0, 0, 0, 0, 0, 0, 0
   \              000000000000
   \              00000000    
   \   00000A18   000000000000       DC8 0, 0, 0, 0, 0, 0, 0, 0, 0, 0, 0, 0, 0, 0, 0, 0
   \              000000000000
   \              00000000    
   \   00000A28   000000000000       DC8 0, 0, 0, 0, 0, 0, 0, 0, 0, 0, 0, 0, 0, 0, 0, 0
   \              000000000000
   \              00000000    
   \   00000A38   000000000000       DC8 0, 0, 0, 0, 0, 0, 0, 0, 0, 0, 0, 0, 0, 0, 0, 0
   \              000000000000
   \              00000000    
   \   00000A48   000000000000       DC8 0, 0, 0, 0, 0, 0, 0, 0, 0, 0, 0, 0, 0, 0, 0, 0
   \              000000000000
   \              00000000    
   \   00000A58   000000000000       DC8 0, 0, 0, 0, 0, 0, 0, 0, 0, 0, 0, 0, 0, 0, 0, 0
   \              000000000000
   \              00000000    
   \   00000A68   000000000000       DC8 0, 0, 0, 0, 0, 0, 0, 0, 0, 0, 0, 0, 0, 0, 0, 0
   \              000000000000
   \              00000000    
   \   00000A78   000000000000       DC8 0, 0, 0, 0, 0, 0, 0, 0, 0, 0, 0, 0, 0, 0, 0, 0
   \              000000000000
   \              00000000    
   \   00000A88   000000000000       DC8 0, 0, 0, 0, 0, 0, 0, 0, 0, 0, 0, 0, 0, 0, 0, 0
   \              000000000000
   \              00000000    
   \   00000A98   000000000000       DC8 0, 0, 0, 0, 0, 0, 0, 0, 0, 0, 0, 0, 0, 0, 0, 0
   \              000000000000
   \              00000000    
   \   00000AA8   000000000000       DC8 0, 0, 0, 0, 0, 0, 0, 0, 0, 0, 0, 0, 0, 0, 0, 0
   \              000000000000
   \              00000000    
   \   00000AB8   000000000000       DC8 0, 0, 0, 0, 0, 0, 0, 0, 0, 0, 0, 0, 0, 0, 0, 0
   \              000000000000
   \              00000000    
   \   00000AC8   000000000000       DC8 0, 0, 0, 0, 0, 0, 0, 0, 0, 0, 0, 0, 0, 0, 0, 0
   \              000000000000
   \              00000000    
   \   00000AD8   000000000000       DC8 0, 0, 0, 0, 0, 0, 0, 0, 0, 0, 0, 0, 0, 0, 0, 0
   \              000000000000
   \              00000000    
   \   00000AE8   000000000000       DC8 0, 0, 0, 0, 0, 0, 0, 0, 0, 0, 0, 0, 0, 0, 0, 0
   \              000000000000
   \              00000000    
   \   00000AF8   000000000000       DC8 0, 0, 0, 0, 0, 0, 0, 0, 0, 0, 0, 0, 0, 0, 0, 0
   \              000000000000
   \              00000000    
   \   00000B08   000000000000       DC8 0, 0, 0, 0, 0, 0, 0, 0, 0, 0, 0, 0, 0, 0, 0, 0
   \              000000000000
   \              00000000    
   \   00000B18   000000000000       DC8 0, 0, 0, 0, 0, 0, 0, 0, 0, 0, 0, 0, 0, 0, 0, 0
   \              000000000000
   \              00000000    
   \   00000B28   000000000000       DC8 0, 0, 0, 0, 0, 0, 0, 0, 0, 0, 0, 0, 0, 0, 0, 0
   \              000000000000
   \              00000000    
   \   00000B38   000000000000       DC8 0, 0, 0, 0, 0, 0, 0, 0, 0, 0, 0, 0, 0, 0, 0, 0
   \              000000000000
   \              00000000    
   \   00000B48   000000000000       DC8 0, 0, 0, 0, 0, 0, 0, 0, 0, 0, 0, 0, 0, 0, 0, 0
   \              000000000000
   \              00000000    
   \   00000B58   000000000000       DC8 0, 0, 0, 0, 0, 0, 0, 0, 0, 0, 0, 0, 0, 0, 0, 0
   \              000000000000
   \              00000000    
   \   00000B68   000000000000       DC8 0, 0, 0, 0, 0, 0, 0, 0, 0, 0, 0, 0, 0, 0, 0, 0
   \              000000000000
   \              00000000    
   \   00000B78   000000000000       DC8 0, 0, 0, 0, 0, 0, 0, 0, 0, 0, 0, 0, 0, 0, 0, 0
   \              000000000000
   \              00000000    
   \   00000B88   000000000000       DC8 0, 0, 0, 0, 0, 0, 0, 0, 0, 0, 0, 0, 0, 0, 0, 0
   \              000000000000
   \              00000000    
   \   00000B98   000000000000       DC8 0, 0, 0, 0, 0, 0, 0, 0, 0, 0, 0, 0, 0, 0, 0, 0
   \              000000000000
   \              00000000    
   \   00000BA8   000000000000       DC8 0, 0, 0, 0, 0, 0, 0, 0, 0, 0, 0, 0, 0, 0, 0, 0
   \              000000000000
   \              00000000    
   \   00000BB8   000000000000       DC8 0, 0, 0, 0, 0, 0, 0, 0, 0, 0, 0, 0, 0, 0, 0, 0
   \              000000000000
   \              00000000    
   \   00000BC8   000000000000       DC8 0, 0, 0, 0, 0, 0, 0, 0, 0, 0, 0, 0, 0, 0, 0, 0
   \              000000000000
   \              00000000    
   \   00000BD8   000000000000       DC8 0, 0, 0, 0, 0, 0, 0, 0, 0, 0, 0, 0, 0, 0, 0, 0
   \              000000000000
   \              00000000    
   \   00000BE8   000000000000       DC8 0, 0, 0, 0, 0, 0, 0, 0, 0, 0, 0, 0, 0, 0, 0, 0
   \              000000000000
   \              00000000    
   \   00000BF8   000000000000       DC8 0, 0, 0, 0, 0, 0, 0, 0, 0, 0, 0, 0, 0, 0, 0, 0
   \              000000000000
   \              00000000    
   \   00000C08   000000000000       DC8 0, 0, 0, 0, 0, 0, 0, 0, 0, 0, 0, 0, 0, 0, 0, 0
   \              000000000000
   \              00000000    
   \   00000C18   000000000000       DC8 0, 0, 0, 0, 0, 0, 0, 0, 0, 0, 0, 0, 0, 0, 0, 0
   \              000000000000
   \              00000000    
   \   00000C28   000000000000       DC8 0, 0, 0, 0, 0, 0, 0, 0, 0, 0, 0, 0, 0, 0, 0, 0
   \              000000000000
   \              00000000    
   \   00000C38   000000000000       DC8 0, 0, 0, 0, 0, 0, 0, 0, 0, 0, 0, 0, 0, 0, 0, 0
   \              000000000000
   \              00000000    
   \   00000C48   000000000000       DC8 0, 0, 0, 0, 0, 0, 0, 0, 0, 0, 0, 0, 0, 0, 0, 0
   \              000000000000
   \              00000000    
   \   00000C58   000000000000       DC8 0, 0, 0, 0, 0, 0, 0, 0, 0, 0, 0, 0, 0, 0, 0, 0
   \              000000000000
   \              00000000    
   \   00000C68   000000000000       DC8 0, 0, 0, 0, 0, 0, 0, 0, 0, 0, 0, 0, 0, 0, 0, 0
   \              000000000000
   \              00000000    
   \   00000C78   000000000000       DC8 0, 0, 0, 0, 0, 0, 0, 0, 0, 0, 0, 0, 0, 0, 0, 0
   \              000000000000
   \              00000000    
   \   00000C88   000000000000       DC8 0, 0, 0, 0, 0, 0, 0, 0, 0, 0, 0, 0, 0, 0, 0, 0
   \              000000000000
   \              00000000    
   \   00000C98   000000000000       DC8 0, 0, 0, 0, 0, 0, 0, 0, 0, 0, 0, 0, 0, 0, 0, 0
   \              000000000000
   \              00000000    
   \   00000CA8   000000000000       DC8 0, 0, 0, 0, 0, 0, 0, 0, 0, 0, 0, 0, 0, 0, 0, 0
   \              000000000000
   \              00000000    
   \   00000CB8   000000000000       DC8 0, 0, 0, 0, 0, 0, 0, 0, 0, 0, 0, 0, 0, 0, 0, 0
   \              000000000000
   \              00000000    
   \   00000CC8   000000000000       DC8 0, 0, 0, 0, 0, 0, 0, 0, 0, 0, 0, 0, 0, 0, 0, 0
   \              000000000000
   \              00000000    
   \   00000CD8   000000000000       DC8 0, 0, 0, 0, 0, 0, 0, 0, 0, 0, 0, 0, 0, 0, 0, 0
   \              000000000000
   \              00000000    
   \   00000CE8   000000000000       DC8 0, 0, 0, 0, 0, 0, 0, 0, 0, 0, 0, 0, 0, 0, 0, 0
   \              000000000000
   \              00000000    
   \   00000CF8   000000000000       DC8 0, 0, 0, 0, 0, 0, 0, 0, 0, 0, 0, 0, 0, 0, 0, 0
   \              000000000000
   \              00000000    
   \   00000D08   000000000000       DC8 0, 0, 0, 0, 0, 0, 0, 0, 0, 0, 0, 0, 0, 0, 0, 0
   \              000000000000
   \              00000000    
   \   00000D18   000000000000       DC8 0, 0, 0, 0, 0, 0, 0, 0, 0, 0, 0, 0, 0, 0, 0, 0
   \              000000000000
   \              00000000    
   \   00000D28   000000000000       DC8 0, 0, 0, 0, 0, 0, 0, 0, 0, 0, 0, 0, 0, 0, 0, 0
   \              000000000000
   \              00000000    
   \   00000D38   000000000000       DC8 0, 0, 0, 0, 0, 0, 0, 0, 0, 0, 0, 0, 0, 0, 0, 0
   \              000000000000
   \              00000000    
   \   00000D48   000000000000       DC8 0, 0, 0, 0, 0, 0, 0, 0, 0, 0, 0, 0, 0, 0, 0, 0
   \              000000000000
   \              00000000    
   \   00000D58   000000000000       DC8 0, 0, 0, 0, 0, 0, 0, 0, 0, 0, 0, 0, 0, 0, 0, 0
   \              000000000000
   \              00000000    
   \   00000D68   000000000000       DC8 0, 0, 0, 0, 0, 0, 0, 0, 0, 0, 0, 0, 0, 0, 0, 0
   \              000000000000
   \              00000000    
   \   00000D78   000000000000       DC8 0, 0, 0, 0, 0, 0, 0, 0, 0, 0, 0, 0, 0, 0, 0, 0
   \              000000000000
   \              00000000    
   \   00000D88   000000000000       DC8 0, 0, 0, 0, 0, 0, 0, 0, 0, 0, 0, 0, 0, 0, 0, 0
   \              000000000000
   \              00000000    
   \   00000D98   000000000000       DC8 0, 0, 0, 0, 0, 0, 0, 0, 0, 0, 0, 0, 0, 0, 0, 0
   \              000000000000
   \              00000000    
   \   00000DA8   000000000000       DC8 0, 0, 0, 0, 0, 0, 0, 0, 0, 0, 0, 0, 0, 0, 0, 0
   \              000000000000
   \              00000000    
   \   00000DB8   000000000000       DC8 0, 0, 0, 0, 0, 0, 0, 0, 0, 0, 0, 0, 0, 0, 0, 0
   \              000000000000
   \              00000000    
   \   00000DC8   000000000000       DC8 0, 0, 0, 0, 0, 0, 0, 0, 0, 0, 0, 0, 0, 0, 0, 0
   \              000000000000
   \              00000000    
   \   00000DD8   000000000000       DC8 0, 0, 0, 0, 0, 0, 0, 0, 0, 0, 0, 0, 0, 0, 0, 0
   \              000000000000
   \              00000000    
   \   00000DE8   000000000000       DC8 0, 0, 0, 0, 0, 0, 0, 0, 0, 0, 0, 0, 0, 0, 0, 0
   \              000000000000
   \              00000000    
   \   00000DF8   000000000000       DC8 0, 0, 0, 0, 0, 0, 0, 0, 0, 0, 0, 0, 0, 0, 0, 0
   \              000000000000
   \              00000000    
   \   00000E08   000000000000       DC8 0, 0, 0, 0, 0, 0, 0, 0, 0, 0, 0, 0, 0, 0, 0, 0
   \              000000000000
   \              00000000    
   \   00000E18   000000000000       DC8 0, 0, 0, 0, 0, 0, 0, 0, 0, 0, 0, 0, 0, 0, 0, 0
   \              000000000000
   \              00000000    
   \   00000E28   000000000000       DC8 0, 0, 0, 0, 0, 0, 0, 0, 0, 0, 0, 0, 0, 0, 0, 0
   \              000000000000
   \              00000000    
   \   00000E38   000000000000       DC8 0, 0, 0, 0, 0, 0, 0, 0, 0, 0, 0, 0, 0, 0, 0, 0
   \              000000000000
   \              00000000    
   \   00000E48   000000000000       DC8 0, 0, 0, 0, 0, 0, 0, 0, 0, 0, 0, 0, 0, 0, 0, 0
   \              000000000000
   \              00000000    
   \   00000E58   000000000000       DC8 0, 0, 0, 0, 0, 0, 0, 0, 0, 0, 0, 0, 0, 0, 0, 0
   \              000000000000
   \              00000000    
   \   00000E68   000000000000       DC8 0, 0, 0, 0, 0, 0, 0, 0, 0, 0, 0, 0, 0, 0, 0, 0
   \              000000000000
   \              00000000    
   \   00000E78   000000000000       DC8 0, 0, 0, 0, 0, 0, 0, 0, 0, 0, 0, 0, 0, 0, 0, 0
   \              000000000000
   \              00000000    
   \   00000E88   000000000000       DC8 0, 0, 0, 0, 0, 0, 0, 0, 0, 0, 0, 0, 0, 0, 0, 0
   \              000000000000
   \              00000000    
   \   00000E98   000000000000       DC8 0, 0, 0, 0, 0, 0, 0, 0, 0, 0, 0, 0, 0, 0, 0, 0
   \              000000000000
   \              00000000    
   \   00000EA8   000000000000       DC8 0, 0, 0, 0, 0, 0, 0, 0, 0, 0, 0, 0, 0, 0, 0, 0
   \              000000000000
   \              00000000    
   \   00000EB8   000000000000       DC8 0, 0, 0, 0, 0, 0, 0, 0, 0, 0, 0, 0, 0, 0, 0, 0
   \              000000000000
   \              00000000    
   \   00000EC8   000000000000       DC8 0, 0, 0, 0, 0, 0, 0, 0, 0, 0, 0, 0, 0, 0, 0, 0
   \              000000000000
   \              00000000    
   \   00000ED8   000000000000       DC8 0, 0, 0, 0, 0, 0, 0, 0, 0, 0, 0, 0, 0, 0, 0, 0
   \              000000000000
   \              00000000    
   \   00000EE8   000000000000       DC8 0, 0, 0, 0, 0, 0, 0, 0, 0, 0, 0, 0, 0, 0, 0, 0
   \              000000000000
   \              00000000    
   \   00000EF8   000000000000       DC8 0, 0, 0, 0, 0, 0, 0, 0, 0, 0, 0, 0, 0, 0, 0, 0
   \              000000000000
   \              00000000    
   \   00000F08   000000000000       DC8 0, 0, 0, 0, 0, 0, 0, 0, 0, 0, 0, 0, 0, 0, 0, 0
   \              000000000000
   \              00000000    
   \   00000F18   000000000000       DC8 0, 0, 0, 0, 0, 0, 0, 0, 0, 0, 0, 0, 0, 0, 0, 0
   \              000000000000
   \              00000000    
   \   00000F28   000000000000       DC8 0, 0, 0, 0, 0, 0, 0, 0, 0, 0, 0, 0, 0, 0, 0, 0
   \              000000000000
   \              00000000    
   \   00000F38   000000000000       DC8 0, 0, 0, 0, 0, 0, 0, 0, 0, 0, 0, 0, 0, 0, 0, 0
   \              000000000000
   \              00000000    
   \   00000F48   000000000000       DC8 0, 0, 0, 0, 0, 0, 0, 0, 0, 0, 0, 0, 0, 0, 0, 0
   \              000000000000
   \              00000000    
   \   00000F58   000000000000       DC8 0, 0, 0, 0, 0, 0, 0, 0, 0, 0, 0, 0, 0, 0, 0, 0
   \              000000000000
   \              00000000    
   \   00000F68   000000000000       DC8 0, 0, 0, 0, 0, 0, 0, 0, 0, 0, 0, 0, 0, 0, 0, 0
   \              000000000000
   \              00000000    
   \   00000F78   000000000000       DC8 0, 0, 0, 0, 0, 0, 0, 0, 0, 0, 0, 0, 0, 0, 0, 0
   \              000000000000
   \              00000000    
   \   00000F88   000000000000       DC8 0, 0, 0, 0, 0, 0, 0, 0, 0, 0, 0, 0, 0, 0, 0, 0
   \              000000000000
   \              00000000    
   \   00000F98   000000000000       DC8 0, 0, 0, 0, 0, 0, 0, 0, 0, 0, 0, 0, 0, 0, 0, 0
   \              000000000000
   \              00000000    
   \   00000FA8   000000000000       DC8 0, 0, 0, 0, 0, 0, 0, 0, 0, 0, 0, 0, 0, 0, 0, 0
   \              000000000000
   \              00000000    
   \   00000FB8   000000000000       DC8 0, 0, 0, 0, 0, 0, 0, 0, 0, 0, 0, 0, 0, 0, 0, 0
   \              000000000000
   \              00000000    
   \   00000FC8   000000000000       DC8 0, 0, 0, 0, 0, 0, 0, 0, 0, 0, 0, 0, 0, 0, 0, 0
   \              000000000000
   \              00000000    
   \   00000FD8   000000000000       DC8 0, 0, 0, 0, 0, 0, 0, 0, 0, 0, 0, 0, 0, 0, 0, 0
   \              000000000000
   \              00000000    
   \   00000FE8   000000000000       DC8 0, 0, 0, 0, 0, 0, 0, 0, 0, 0, 0, 0, 0, 0, 0, 0
   \              000000000000
   \              00000000    
   \   00000FF8   000000000000       DC8 0, 0, 0, 0, 0, 0, 0, 0, 0, 0, 0, 0, 0, 0, 0, 0
   \              000000000000
   \              00000000    
   \   00001008   000000000000       DC8 0, 0, 0, 0, 0, 0, 0, 0, 0, 0, 0, 0, 0, 0, 0, 0
   \              000000000000
   \              00000000    
   \   00001018   000000000000       DC8 0, 0, 0, 0, 0, 0, 0, 0, 0, 0, 0, 0, 0, 0, 0, 0
   \              000000000000
   \              00000000    
   \   00001028   000000000000       DC8 0, 0, 0, 0, 0, 0, 0, 0, 0, 0, 0, 0, 0, 0, 0, 0
   \              000000000000
   \              00000000    
   \   00001038   000000000000       DC8 0, 0, 0, 0, 0, 0, 0, 0, 0, 0, 0, 0, 0, 0, 0, 0
   \              000000000000
   \              00000000    
   \   00001048   000000000000       DC8 0, 0, 0, 0, 0, 0, 0, 0, 0, 0, 0, 0, 0, 0, 0, 0
   \              000000000000
   \              00000000    
   \   00001058   000000000000       DC8 0, 0, 0, 0, 0, 0, 0, 0, 0, 0, 0, 0, 0, 0, 0, 0
   \              000000000000
   \              00000000    
   \   00001068   000000000000       DC8 0, 0, 0, 0, 0, 0, 0, 0, 0, 0, 0, 0, 0, 0, 0, 0
   \              000000000000
   \              00000000    
   \   00001078   000000000000       DC8 0, 0, 0, 0, 0, 0, 0, 0, 0, 0, 0, 0, 0, 0, 0, 0
   \              000000000000
   \              00000000    
   \   00001088   000000000000       DC8 0, 0, 0, 0, 0, 0, 0, 0, 0, 0, 0, 0, 0, 0, 0, 0
   \              000000000000
   \              00000000    
   \   00001098   000000000000       DC8 0, 0, 0, 0, 0, 0, 0, 0, 0, 0, 0, 0, 0, 0, 0, 0
   \              000000000000
   \              00000000    
   \   000010A8   000000000000       DC8 0, 0, 0, 0, 0, 0, 0, 0, 0, 0, 0, 0, 0, 0, 0, 0
   \              000000000000
   \              00000000    
   \   000010B8   000000000000       DC8 0, 0, 0, 0, 0, 0, 0, 0, 0, 0, 0, 0, 0, 0, 0, 0
   \              000000000000
   \              00000000    
   \   000010C8   000000000000       DC8 0, 0, 0, 0, 0, 0, 0, 0, 0, 0, 0, 0, 0, 0, 0, 0
   \              000000000000
   \              00000000    
   \   000010D8   000000000000       DC8 0, 0, 0, 0, 0, 0, 0, 0, 0, 0, 0, 0, 0, 0, 0, 0
   \              000000000000
   \              00000000    
   \   000010E8   000000000000       DC8 0, 0, 0, 0, 0, 0, 0, 0, 0, 0, 0, 0, 0, 0, 0, 0
   \              000000000000
   \              00000000    
   \   000010F8   000000000000       DC8 0, 0, 0, 0, 0, 0, 0, 0, 0, 0, 0, 0, 0, 0, 0, 0
   \              000000000000
   \              00000000    
   \   00001108   000000000000       DC8 0, 0, 0, 0, 0, 0, 0, 0, 0, 0, 0, 0, 0, 0, 0, 0
   \              000000000000
   \              00000000    
   \   00001118   000000000000       DC8 0, 0, 0, 0, 0, 0, 0, 0, 0, 0, 0, 0, 0, 0, 0, 0
   \              000000000000
   \              00000000    
   \   00001128   000000000000       DC8 0, 0, 0, 0, 0, 0, 0, 0, 0, 0, 0, 0, 0, 0, 0, 0
   \              000000000000
   \              00000000    
   \   00001138   000000000000       DC8 0, 0, 0, 0, 0, 0, 0, 0, 0, 0, 0, 0, 0, 0, 0, 0
   \              000000000000
   \              00000000    
   \   00001148   000000000000       DC8 0, 0, 0, 0, 0, 0, 0, 0, 0, 0, 0, 0, 0, 0, 0, 0
   \              000000000000
   \              00000000    
   \   00001158   000000000000       DC8 0, 0, 0, 0, 0, 0, 0, 0, 0, 0, 0, 0, 0, 0, 0, 0
   \              000000000000
   \              00000000    
   \   00001168   000000000000       DC8 0, 0, 0, 0, 0, 0, 0, 0, 0, 0, 0, 0, 0, 0, 0, 0
   \              000000000000
   \              00000000    
   \   00001178   000000000000       DC8 0, 0, 0, 0, 0, 0, 0, 0, 0, 0, 0, 0, 0, 0, 0, 0
   \              000000000000
   \              00000000    
   \   00001188   000000000000       DC8 0, 0, 0, 0, 0, 0, 0, 0, 0, 0, 0, 0, 0, 0, 0, 0
   \              000000000000
   \              00000000    
   \   00001198   000000000000       DC8 0, 0, 0, 0, 0, 0, 0, 0, 0, 0, 0, 0, 0, 0, 0, 0
   \              000000000000
   \              00000000    
   \   000011A8   000000000000       DC8 0, 0, 0, 0, 0, 0, 0, 0, 0, 0, 0, 0, 0, 0, 0, 0
   \              000000000000
   \              00000000    
   \   000011B8   000000000000       DC8 0, 0, 0, 0, 0, 0, 0, 0, 0, 0, 0, 0, 0, 0, 0, 0
   \              000000000000
   \              00000000    
   \   000011C8   000000000000       DC8 0, 0, 0, 0, 0, 0, 0, 0, 0, 0, 0, 0, 0, 0, 0, 0
   \              000000000000
   \              00000000    
   \   000011D8   000000000000       DC8 0, 0, 0, 0, 0, 0, 0, 0, 0, 0, 0, 0, 0, 0, 0, 0
   \              000000000000
   \              00000000    
   \   000011E8   000000000000       DC8 0, 0, 0, 0, 0, 0, 0, 0, 0, 0, 0, 0, 0, 0, 0, 0
   \              000000000000
   \              00000000    
   \   000011F8   000000000000       DC8 0, 0, 0, 0, 0, 0, 0, 0, 0, 0, 0, 0, 0, 0, 0, 0
   \              000000000000
   \              00000000    
   \   00001208   000000000000       DC8 0, 0, 0, 0, 0, 0, 0, 0, 0, 0, 0, 0, 0, 0, 0, 0
   \              000000000000
   \              00000000    
   \   00001218   000000000000       DC8 0, 0, 0, 0, 0, 0, 0, 0, 0, 0, 0, 0, 0, 0, 0, 0
   \              000000000000
   \              00000000    
   \   00001228   000000000000       DC8 0, 0, 0, 0, 0, 0, 0, 0, 0, 0, 0, 0, 0, 0, 0, 0
   \              000000000000
   \              00000000    
   \   00001238   000000000000       DC8 0, 0, 0, 0, 0, 0, 0, 0, 0, 0, 0, 0, 0, 0, 0, 0
   \              000000000000
   \              00000000    
   \   00001248   000000000000       DC8 0, 0, 0, 0, 0, 0, 0, 0, 0, 0, 0, 0, 0, 0, 0, 0
   \              000000000000
   \              00000000    
   \   00001258   000000000000       DC8 0, 0, 0, 0, 0, 0, 0, 0, 0, 0, 0, 0, 0, 0, 0, 0
   \              000000000000
   \              00000000    
   \   00001268   000000000000       DC8 0, 0, 0, 0, 0, 0, 0, 0, 0, 0, 0, 0, 0, 0, 0, 0
   \              000000000000
   \              00000000    
   \   00001278   000000000000       DC8 0, 0, 0, 0, 0, 0, 0, 0, 0, 0, 0, 0, 0, 0, 0, 0
   \              000000000000
   \              00000000    
   \   00001288   000000000000       DC8 0, 0, 0, 0, 0, 0, 0, 0, 0, 0, 0, 0, 0, 0, 0, 0
   \              000000000000
   \              00000000    
   \   00001298   000000000000       DC8 0, 0, 0, 0, 0, 0, 0, 0, 0, 0, 0, 0, 0, 0, 0, 0
   \              000000000000
   \              00000000    
   \   000012A8   000000000000       DC8 0, 0, 0, 0, 0, 0, 0, 0, 0, 0, 0, 0, 0, 0, 0, 0
   \              000000000000
   \              00000000    
   \   000012B8   000000000000       DC8 0, 0, 0, 0, 0, 0, 0, 0, 0, 0, 0, 0, 0, 0, 0, 0
   \              000000000000
   \              00000000    
   \   000012C8   000000000000       DC8 0, 0, 0, 0, 0, 0, 0, 0, 0, 0, 0, 0, 0, 0, 0, 0
   \              000000000000
   \              00000000    
   \   000012D8   000000000000       DC8 0, 0, 0, 0, 0, 0, 0, 0, 0, 0, 0, 0, 0, 0, 0, 0
   \              000000000000
   \              00000000    
   \   000012E8   000000000000       DC8 0, 0, 0, 0, 0, 0, 0, 0, 0, 0, 0, 0, 0, 0, 0, 0
   \              000000000000
   \              00000000    
   \   000012F8   000000000000       DC8 0, 0, 0, 0, 0, 0, 0, 0, 0, 0, 0, 0, 0, 0, 0, 0
   \              000000000000
   \              00000000    
   \   00001308   000000000000       DC8 0, 0, 0, 0, 0, 0, 0, 0, 0, 0, 0, 0, 0, 0, 0, 0
   \              000000000000
   \              00000000    
   \   00001318   000000000000       DC8 0, 0, 0, 0, 0, 0, 0, 0, 0, 0, 0, 0, 0, 0, 0, 0
   \              000000000000
   \              00000000    
   \   00001328   000000000000       DC8 0, 0, 0, 0, 0, 0, 0, 0, 0, 0, 0, 0, 0, 0, 0, 0
   \              000000000000
   \              00000000    
   \   00001338   000000000000       DC8 0, 0, 0, 0, 0, 0, 0, 0, 0, 0, 0, 0, 0, 0, 0, 0
   \              000000000000
   \              00000000    
   \   00001348   000000000000       DC8 0, 0, 0, 0, 0, 0, 0, 0, 0, 0, 0, 0, 0, 0, 0, 0
   \              000000000000
   \              00000000    
   \   00001358   000000000000       DC8 0, 0, 0, 0, 0, 0, 0, 0, 0, 0, 0, 0, 0, 0, 0, 0
   \              000000000000
   \              00000000    
   \   00001368   000000000000       DC8 0, 0, 0, 0, 0, 0, 0, 0, 0, 0, 0, 0, 0, 0, 0, 0
   \              000000000000
   \              00000000    
   \   00001378   000000000000       DC8 0, 0, 0, 0, 0, 0, 0, 0, 0, 0, 0, 0, 0, 0, 0, 0
   \              000000000000
   \              00000000    
   \   00001388   000000000000       DC8 0, 0, 0, 0, 0, 0, 0, 0, 0, 0, 0, 0, 0, 0, 0, 0
   \              000000000000
   \              00000000    
   \   00001398   000000000000       DC8 0, 0, 0, 0, 0, 0, 0, 0, 0, 0, 0, 0, 0, 0, 0, 0
   \              000000000000
   \              00000000    
   \   000013A8   000000000000       DC8 0, 0, 0, 0, 0, 0, 0, 0, 0, 0, 0, 0, 0, 0, 0, 0
   \              000000000000
   \              00000000    
   \   000013B8   000000000000       DC8 0, 0, 0, 0, 0, 0, 0, 0, 0, 0, 0, 0, 0, 0, 0, 0
   \              000000000000
   \              00000000    
   \   000013C8   000000000000       DC8 0, 0, 0, 0, 0, 0, 0, 0, 0, 0, 0, 0, 0, 0, 0, 0
   \              000000000000
   \              00000000    
   \   000013D8   000000000000       DC8 0, 0, 0, 0, 0, 0, 0, 0, 0, 0, 0, 0, 0, 0, 0, 0
   \              000000000000
   \              00000000    
   \   000013E8   000000000000       DC8 0, 0, 0, 0, 0, 0, 0, 0, 0, 0, 0, 0, 0, 0, 0, 0
   \              000000000000
   \              00000000    
   \   000013F8   000000000000       DC8 0, 0, 0, 0, 0, 0, 0, 0, 0, 0, 0, 0, 0, 0, 0, 0
   \              000000000000
   \              00000000    
   \   00001408   000000000000       DC8 0, 0, 0, 0, 0, 0, 0, 0, 0, 0, 0, 0, 0, 0, 0, 0
   \              000000000000
   \              00000000    
   \   00001418   000000000000       DC8 0, 0, 0, 0, 0, 0, 0, 0, 0, 0, 0, 0, 0, 0, 0, 0
   \              000000000000
   \              00000000    
   \   00001428   000000000000       DC8 0, 0, 0, 0, 0, 0, 0, 0, 0, 0, 0, 0, 0, 0, 0, 0
   \              000000000000
   \              00000000    
   \   00001438   000000000000       DC8 0, 0, 0, 0, 0, 0, 0, 0, 0, 0, 0, 0, 0, 0, 0, 0
   \              000000000000
   \              00000000    
   \   00001448   000000000000       DC8 0, 0, 0, 0, 0, 0, 0, 0, 0, 0, 0, 0, 0, 0, 0, 0
   \              000000000000
   \              00000000    
   \   00001458   000000000000       DC8 0, 0, 0, 0, 0, 0, 0, 0, 0, 0, 0, 0, 0, 0, 0, 0
   \              000000000000
   \              00000000    
   \   00001468   000000000000       DC8 0, 0, 0, 0, 0, 0, 0, 0, 0, 0, 0, 0, 0, 0, 0, 0
   \              000000000000
   \              00000000    
   \   00001478   000000000000       DC8 0, 0, 0, 0, 0, 0, 0, 0, 0, 0, 0, 0, 0, 0, 0, 0
   \              000000000000
   \              00000000    
   \   00001488   000000000000       DC8 0, 0, 0, 0, 0, 0, 0, 0, 0, 0, 0, 0, 0, 0, 0, 0
   \              000000000000
   \              00000000    
   \   00001498   000000000000       DC8 0, 0, 0, 0, 0, 0, 0, 0, 0, 0, 0, 0, 0, 0, 0, 0
   \              000000000000
   \              00000000    
   \   000014A8   000000000000       DC8 0, 0, 0, 0, 0, 0, 0, 0, 0, 0, 0, 0, 0, 0, 0, 0
   \              000000000000
   \              00000000    
   \   000014B8   000000000000       DC8 0, 0, 0, 0, 0, 0, 0, 0, 0, 0, 0, 0, 0, 0, 0, 0
   \              000000000000
   \              00000000    
   \   000014C8   000000000000       DC8 0, 0, 0, 0, 0, 0, 0, 0, 0, 0, 0, 0, 0, 0, 0, 0
   \              000000000000
   \              00000000    
   \   000014D8   000000000000       DC8 0, 0, 0, 0, 0, 0, 0, 0, 0, 0, 0, 0, 0, 0, 0, 0
   \              000000000000
   \              00000000    
   \   000014E8   000000000000       DC8 0, 0, 0, 0, 0, 0, 0, 0, 0, 0, 0, 0, 0, 0, 0, 0
   \              000000000000
   \              00000000    
   \   000014F8   000000000000       DC8 0, 0, 0, 0, 0, 0, 0, 0, 0, 0, 0, 0, 0, 0, 0, 0
   \              000000000000
   \              00000000    
   \   00001508   000000000000       DC8 0, 0, 0, 0, 0, 0, 0, 0, 0, 0, 0, 0, 0, 0, 0, 0
   \              000000000000
   \              00000000    
   \   00001518   000000000000       DC8 0, 0, 0, 0, 0, 0, 0, 0, 0, 0, 0, 0, 0, 0, 0, 0
   \              000000000000
   \              00000000    
   \   00001528   000000000000       DC8 0, 0, 0, 0, 0, 0, 0, 0, 0, 0, 0, 0, 0, 0, 0, 0
   \              000000000000
   \              00000000    
   \   00001538   000000000000       DC8 0, 0, 0, 0, 0, 0, 0, 0, 0, 0, 0, 0, 0, 0, 0, 0
   \              000000000000
   \              00000000    
   \   00001548   000000000000       DC8 0, 0, 0, 0, 0, 0, 0, 0, 0, 0, 0, 0, 0, 0, 0, 0
   \              000000000000
   \              00000000    
   \   00001558   000000000000       DC8 0, 0, 0, 0, 0, 0, 0, 0, 0, 0, 0, 0, 0, 0, 0, 0
   \              000000000000
   \              00000000    
   \   00001568   000000000000       DC8 0, 0, 0, 0, 0, 0, 0, 0, 0, 0, 0, 0, 0, 0, 0, 0
   \              000000000000
   \              00000000    
   \   00001578   000000000000       DC8 0, 0, 0, 0, 0, 0, 0, 0, 0, 0, 0, 0, 0, 0, 0, 0
   \              000000000000
   \              00000000    
   \   00001588   000000000000       DC8 0, 0, 0, 0, 0, 0, 0, 0, 0, 0, 0, 0, 0, 0, 0, 0
   \              000000000000
   \              00000000    
   \   00001598   000000000000       DC8 0, 0, 0, 0, 0, 0, 0, 0, 0, 0, 0, 0, 0, 0, 0, 0
   \              000000000000
   \              00000000    
   \   000015A8   000000000000       DC8 0, 0, 0, 0, 0, 0, 0, 0, 0, 0, 0, 0, 0, 0, 0, 0
   \              000000000000
   \              00000000    
   \   000015B8   000000000000       DC8 0, 0, 0, 0, 0, 0, 0, 0, 0, 0, 0, 0, 0, 0, 0, 0
   \              000000000000
   \              00000000    
   \   000015C8   000000000000       DC8 0, 0, 0, 0, 0, 0, 0, 0, 0, 0, 0, 0, 0, 0, 0, 0
   \              000000000000
   \              00000000    
   \   000015D8   000000000000       DC8 0, 0, 0, 0, 0, 0, 0, 0, 0, 0, 0, 0, 0, 0, 0, 0
   \              000000000000
   \              00000000    
   \   000015E8   000000000000       DC8 0, 0, 0, 0, 0, 0, 0, 0, 0, 0, 0, 0, 0, 0, 0, 0
   \              000000000000
   \              00000000    
   \   000015F8   000000000000       DC8 0, 0, 0, 0, 0, 0, 0, 0, 0, 0, 0, 0, 0, 0, 0, 0
   \              000000000000
   \              00000000    
   \   00001608   000000000000       DC8 0, 0, 0, 0, 0, 0, 0, 0, 0, 0, 0, 0, 0, 0, 0, 0
   \              000000000000
   \              00000000    
   \   00001618   000000000000       DC8 0, 0, 0, 0, 0, 0, 0, 0, 0, 0, 0, 0, 0, 0, 0, 0
   \              000000000000
   \              00000000    
   \   00001628   000000000000       DC8 0, 0, 0, 0, 0, 0, 0, 0, 0, 0, 0, 0, 0, 0, 0, 0
   \              000000000000
   \              00000000    
   \   00001638   000000000000       DC8 0, 0, 0, 0, 0, 0, 0, 0, 0, 0, 0, 0, 0, 0, 0, 0
   \              000000000000
   \              00000000    
   \   00001648   000000000000       DC8 0, 0, 0, 0, 0, 0, 0, 0, 0, 0, 0, 0, 0, 0, 0, 0
   \              000000000000
   \              00000000    
   \   00001658   000000000000       DC8 0, 0, 0, 0, 0, 0, 0, 0, 0, 0, 0, 0, 0, 0, 0, 0
   \              000000000000
   \              00000000    
   \   00001668   000000000000       DC8 0, 0, 0, 0, 0, 0, 0, 0, 0, 0, 0, 0, 0, 0, 0, 0
   \              000000000000
   \              00000000    
   \   00001678   000000000000       DC8 0, 0, 0, 0, 0, 0, 0, 0, 0, 0, 0, 0, 0, 0, 0, 0
   \              000000000000
   \              00000000    
   \   00001688   000000000000       DC8 0, 0, 0, 0, 0, 0, 0, 0, 0, 0, 0, 0, 0, 0, 0, 0
   \              000000000000
   \              00000000    
   \   00001698   000000000000       DC8 0, 0, 0, 0, 0, 0, 0, 0, 0, 0, 0, 0, 0, 0, 0, 0
   \              000000000000
   \              00000000    
   \   000016A8   000000000000       DC8 0, 0, 0, 0, 0, 0, 0, 0, 0, 0, 0, 0, 0, 0, 0, 0
   \              000000000000
   \              00000000    
   \   000016B8   000000000000       DC8 0, 0, 0, 0, 0, 0, 0, 0, 0, 0, 0, 0, 0, 0, 0, 0
   \              000000000000
   \              00000000    
   \   000016C8   000000000000       DC8 0, 0, 0, 0, 0, 0, 0, 0, 0, 0, 0, 0, 0, 0, 0, 0
   \              000000000000
   \              00000000    
   \   000016D8   000000000000       DC8 0, 0, 0, 0, 0, 0, 0, 0, 0, 0, 0, 0, 0, 0, 0, 0
   \              000000000000
   \              00000000    
   \   000016E8   000000000000       DC8 0, 0, 0, 0, 0, 0, 0, 0, 0, 0, 0, 0, 0, 0, 0, 0
   \              000000000000
   \              00000000    
   \   000016F8   000000000000       DC8 0, 0, 0, 0, 0, 0, 0, 0, 0, 0, 0, 0, 0, 0, 0, 0
   \              000000000000
   \              00000000    
   \   00001708   000000000000       DC8 0, 0, 0, 0, 0, 0, 0, 0, 0, 0, 0, 0, 0, 0, 0, 0
   \              000000000000
   \              00000000    
   \   00001718   000000000000       DC8 0, 0, 0, 0, 0, 0, 0, 0, 0, 0, 0, 0, 0, 0, 0, 0
   \              000000000000
   \              00000000    
   \   00001728   000000000000       DC8 0, 0, 0, 0, 0, 0, 0, 0, 0, 0, 0, 0, 0, 0, 0, 0
   \              000000000000
   \              00000000    
   \   00001738   000000000000       DC8 0, 0, 0, 0, 0, 0, 0, 0, 0, 0, 0, 0, 0, 0, 0, 0
   \              000000000000
   \              00000000    
   \   00001748   000000000000       DC8 0, 0, 0, 0, 0, 0, 0, 0, 0, 0, 0, 0, 0, 0, 0, 0
   \              000000000000
   \              00000000    
   \   00001758   000000000000       DC8 0, 0, 0, 0, 0, 0, 0, 0, 0, 0, 0, 0, 0, 0, 0, 0
   \              000000000000
   \              00000000    
   \   00001768   000000000000       DC8 0, 0, 0, 0, 0, 0, 0, 0, 0, 0, 0, 0, 0, 0, 0, 0
   \              000000000000
   \              00000000    
   \   00001778   000000000000       DC8 0, 0, 0, 0, 0, 0, 0, 0, 0, 0, 0, 0, 0, 0, 0, 0
   \              000000000000
   \              00000000    
   \   00001788   000000000000       DC8 0, 0, 0, 0, 0, 0, 0, 0, 0, 0, 0, 0, 0, 0, 0, 0
   \              000000000000
   \              00000000    
   \   00001798   000000000000       DC8 0, 0, 0, 0, 0, 0, 0, 0, 0, 0, 0, 0, 0, 0, 0, 0
   \              000000000000
   \              00000000    
   \   000017A8   000000000000       DC8 0, 0, 0, 0, 0, 0, 0, 0, 0, 0, 0, 0, 0, 0, 0, 0
   \              000000000000
   \              00000000    
   \   000017B8   000000000000       DC8 0, 0, 0, 0, 0, 0, 0, 0, 0, 0, 0, 0, 0, 0, 0, 0
   \              000000000000
   \              00000000    
   \   000017C8   000000000000       DC8 0, 0, 0, 0, 0, 0, 0, 0, 0, 0, 0, 0, 0, 0, 0, 0
   \              000000000000
   \              00000000    
   \   000017D8   000000000000       DC8 0, 0, 0, 0, 0, 0, 0, 0, 0, 0, 0, 0, 0, 0, 0, 0
   \              000000000000
   \              00000000    
   \   000017E8   000000000000       DC8 0, 0, 0, 0, 0, 0, 0, 0, 0, 0, 0, 0, 0, 0, 0, 0
   \              000000000000
   \              00000000    
   \   000017F8   000000000000       DC8 0, 0, 0, 0, 0, 0, 0, 0, 0, 0, 0, 0, 0, 0, 0, 0
   \              000000000000
   \              00000000    
   \   00001808   000000000000       DC8 0, 0, 0, 0, 0, 0, 0, 0, 0, 0, 0, 0, 0, 0, 0, 0
   \              000000000000
   \              00000000    
   \   00001818   000000000000       DC8 0, 0, 0, 0, 0, 0, 0, 0, 0, 0, 0, 0, 0, 0, 0, 0
   \              000000000000
   \              00000000    
   \   00001828   000000000000       DC8 0, 0, 0, 0, 0, 0, 0, 0, 0, 0, 0, 0, 0, 0, 0, 0
   \              000000000000
   \              00000000    
   \   00001838   000000000000       DC8 0, 0, 0, 0, 0, 0, 0, 0, 0, 0, 0, 0, 0, 0, 0, 0
   \              000000000000
   \              00000000    
   \   00001848   000000000000       DC8 0, 0, 0, 0, 0, 0, 0, 0, 0, 0, 0, 0, 0, 0, 0, 0
   \              000000000000
   \              00000000    
   \   00001858   000000000000       DC8 0, 0, 0, 0, 0, 0, 0, 0, 0, 0, 0, 0, 0, 0, 0, 0
   \              000000000000
   \              00000000    
   \   00001868   000000000000       DC8 0, 0, 0, 0, 0, 0, 0, 0, 0, 0, 0, 0, 0, 0, 0, 0
   \              000000000000
   \              00000000    
   \   00001878   000000000000       DC8 0, 0, 0, 0, 0, 0, 0, 0, 0, 0, 0, 0, 0, 0, 0, 0
   \              000000000000
   \              00000000    
   \   00001888   000000000000       DC8 0, 0, 0, 0, 0, 0, 0, 0, 0, 0, 0, 0, 0, 0, 0, 0
   \              000000000000
   \              00000000    
   \   00001898   000000000000       DC8 0, 0, 0, 0, 0, 0, 0, 0, 0, 0, 0, 0, 0, 0, 0, 0
   \              000000000000
   \              00000000    
   \   000018A8   000000000000       DC8 0, 0, 0, 0, 0, 0, 0, 0, 0, 0, 0, 0, 0, 0, 0, 0
   \              000000000000
   \              00000000    
   \   000018B8   000000000000       DC8 0, 0, 0, 0, 0, 0, 0, 0, 0, 0, 0, 0, 0, 0, 0, 0
   \              000000000000
   \              00000000    
   \   000018C8   000000000000       DC8 0, 0, 0, 0, 0, 0, 0, 0, 0, 0, 0, 0, 0, 0, 0, 0
   \              000000000000
   \              00000000    
   \   000018D8   000000000000       DC8 0, 0, 0, 0, 0, 0, 0, 0, 0, 0, 0, 0, 0, 0, 0, 0
   \              000000000000
   \              00000000    
   \   000018E8   000000000000       DC8 0, 0, 0, 0, 0, 0, 0, 0, 0, 0, 0, 0, 0, 0, 0, 0
   \              000000000000
   \              00000000    
   \   000018F8   000000000000       DC8 0, 0, 0, 0, 0, 0, 0, 0, 0, 0, 0, 0, 0, 0, 0, 0
   \              000000000000
   \              00000000    
   \   00001908   000000000000       DC8 0, 0, 0, 0, 0, 0, 0, 0, 0, 0, 0, 0, 0, 0, 0, 0
   \              000000000000
   \              00000000    
   \   00001918   000000000000       DC8 0, 0, 0, 0, 0, 0, 0, 0, 0, 0, 0, 0, 0, 0, 0, 0
   \              000000000000
   \              00000000    
   \   00001928   000000000000       DC8 0, 0, 0, 0, 0, 0, 0, 0, 0, 0, 0, 0, 0, 0, 0, 0
   \              000000000000
   \              00000000    
   \   00001938   000000000000       DC8 0, 0, 0, 0, 0, 0, 0, 0, 0, 0, 0, 0, 0, 0, 0, 0
   \              000000000000
   \              00000000    
   \   00001948   000000000000       DC8 0, 0, 0, 0, 0, 0, 0, 0, 0, 0, 0, 0, 0, 0, 0, 0
   \              000000000000
   \              00000000    
   \   00001958   000000000000       DC8 0, 0, 0, 0, 0, 0, 0, 0, 0, 0, 0, 0, 0, 0, 0, 0
   \              000000000000
   \              00000000    
   \   00001968   000000000000       DC8 0, 0, 0, 0, 0, 0, 0, 0, 0, 0, 0, 0, 0, 0, 0, 0
   \              000000000000
   \              00000000    
   \   00001978   000000000000       DC8 0, 0, 0, 0, 0, 0, 0, 0, 0, 0, 0, 0, 0, 0, 0, 0
   \              000000000000
   \              00000000    
   \   00001988   000000000000       DC8 0, 0, 0, 0, 0, 0, 0, 0, 0, 0, 0, 0, 0, 0, 0, 0
   \              000000000000
   \              00000000    
   \   00001998   000000000000       DC8 0, 0, 0, 0, 0, 0, 0, 0, 0, 0, 0, 0, 0, 0, 0, 0
   \              000000000000
   \              00000000    
   \   000019A8   000000000000       DC8 0, 0, 0, 0, 0, 0, 0, 0, 0, 0, 0, 0, 0, 0, 0, 0
   \              000000000000
   \              00000000    
   \   000019B8   000000000000       DC8 0, 0, 0, 0, 0, 0, 0, 0, 0, 0, 0, 0, 0, 0, 0, 0
   \              000000000000
   \              00000000    
   \   000019C8   000000000000       DC8 0, 0, 0, 0, 0, 0, 0, 0, 0, 0, 0, 0, 0, 0, 0, 0
   \              000000000000
   \              00000000    
   \   000019D8   000000000000       DC8 0, 0, 0, 0, 0, 0, 0, 0, 0, 0, 0, 0, 0, 0, 0, 0
   \              000000000000
   \              00000000    
   \   000019E8   000000000000       DC8 0, 0, 0, 0, 0, 0, 0, 0, 0, 0, 0, 0, 0, 0, 0, 0
   \              000000000000
   \              00000000    
   \   000019F8   000000000000       DC8 0, 0, 0, 0, 0, 0, 0, 0, 0, 0, 0, 0, 0, 0, 0, 0
   \              000000000000
   \              00000000    
   \   00001A08   000000000000       DC8 0, 0, 0, 0, 0, 0, 0, 0, 0, 0, 0, 0, 0, 0, 0, 0
   \              000000000000
   \              00000000    
   \   00001A18   000000000000       DC8 0, 0, 0, 0, 0, 0, 0, 0, 0, 0, 0, 0, 0, 0, 0, 0
   \              000000000000
   \              00000000    
   \   00001A28   000000000000       DC8 0, 0, 0, 0, 0, 0, 0, 0, 0, 0, 0, 0, 0, 0, 0, 0
   \              000000000000
   \              00000000    
   \   00001A38   000000000000       DC8 0, 0, 0, 0, 0, 0, 0, 0, 0, 0, 0, 0, 0, 0, 0, 0
   \              000000000000
   \              00000000    
   \   00001A48   000000000000       DC8 0, 0, 0, 0, 0, 0, 0, 0, 0, 0, 0, 0, 0, 0, 0, 0
   \              000000000000
   \              00000000    
   \   00001A58   000000000000       DC8 0, 0, 0, 0, 0, 0, 0, 0, 0, 0, 0, 0, 0, 0, 0, 0
   \              000000000000
   \              00000000    
   \   00001A68   000000000000       DC8 0, 0, 0, 0, 0, 0, 0, 0, 0, 0, 0, 0, 0, 0, 0, 0
   \              000000000000
   \              00000000    
   \   00001A78   000000000000       DC8 0, 0, 0, 0, 0, 0, 0, 0, 0, 0, 0, 0, 0, 0, 0, 0
   \              000000000000
   \              00000000    
   \   00001A88   000000000000       DC8 0, 0, 0, 0, 0, 0, 0, 0, 0, 0, 0, 0, 0, 0, 0, 0
   \              000000000000
   \              00000000    
   \   00001A98   000000000000       DC8 0, 0, 0, 0, 0, 0, 0, 0, 0, 0, 0, 0, 0, 0, 0, 0
   \              000000000000
   \              00000000    
   \   00001AA8   000000000000       DC8 0, 0, 0, 0, 0, 0, 0, 0, 0, 0, 0, 0, 0, 0, 0, 0
   \              000000000000
   \              00000000    
   \   00001AB8   000000000000       DC8 0, 0, 0, 0, 0, 0, 0, 0, 0, 0, 0, 0, 0, 0, 0, 0
   \              000000000000
   \              00000000    
   \   00001AC8   000000000000       DC8 0, 0, 0, 0, 0, 0, 0, 0, 0, 0, 0, 0, 0, 0, 0, 0
   \              000000000000
   \              00000000    
   \   00001AD8   000000000000       DC8 0, 0, 0, 0, 0, 0, 0, 0, 0, 0, 0, 0, 0, 0, 0, 0
   \              000000000000
   \              00000000    
   \   00001AE8   000000000000       DC8 0, 0, 0, 0, 0, 0, 0, 0, 0, 0, 0, 0, 0, 0, 0, 0
   \              000000000000
   \              00000000    
   \   00001AF8   000000000000       DC8 0, 0, 0, 0, 0, 0, 0, 0, 0, 0, 0, 0, 0, 0, 0, 0
   \              000000000000
   \              00000000    
   \   00001B08   000000000000       DC8 0, 0, 0, 0, 0, 0, 0, 0, 0, 0, 0, 0, 0, 0, 0, 0
   \              000000000000
   \              00000000    
   \   00001B18   000000000000       DC8 0, 0, 0, 0, 0, 0, 0, 0, 0, 0, 0, 0, 0, 0, 0, 0
   \              000000000000
   \              00000000    
   \   00001B28   000000000000       DC8 0, 0, 0, 0, 0, 0, 0, 0, 0, 0, 0, 0, 0, 0, 0, 0
   \              000000000000
   \              00000000    
   \   00001B38   000000000000       DC8 0, 0, 0, 0, 0, 0, 0, 0, 0, 0, 0, 0, 0, 0, 0, 0
   \              000000000000
   \              00000000    
   \   00001B48   000000000000       DC8 0, 0, 0, 0, 0, 0, 0, 0, 0, 0, 0, 0, 0, 0, 0, 0
   \              000000000000
   \              00000000    
   \   00001B58   000000000000       DC8 0, 0, 0, 0, 0, 0, 0, 0, 0, 0, 0, 0, 0, 0, 0, 0
   \              000000000000
   \              00000000    
   \   00001B68   000000000000       DC8 0, 0, 0, 0, 0, 0, 0, 0, 0, 0, 0, 0, 0, 0, 0, 0
   \              000000000000
   \              00000000    
   \   00001B78   000000000000       DC8 0, 0, 0, 0, 0, 0, 0, 0, 0, 0, 0, 0, 0, 0, 0, 0
   \              000000000000
   \              00000000    
   \   00001B88   000000000000       DC8 0, 0, 0, 0, 0, 0, 0, 0, 0, 0, 0, 0, 0, 0, 0, 0
   \              000000000000
   \              00000000    
   \   00001B98   000000000000       DC8 0, 0, 0, 0, 0, 0, 0, 0, 0, 0, 0, 0, 0, 0, 0, 0
   \              000000000000
   \              00000000    
   \   00001BA8   000000000000       DC8 0, 0, 0, 0, 0, 0, 0, 0, 0, 0, 0, 0, 0, 0, 0, 0
   \              000000000000
   \              00000000    
   \   00001BB8   000000000000       DC8 0, 0, 0, 0, 0, 0, 0, 0, 0, 0, 0, 0, 0, 0, 0, 0
   \              000000000000
   \              00000000    
   \   00001BC8   000000000000       DC8 0, 0, 0, 0, 0, 0, 0, 0, 0, 0, 0, 0, 0, 0, 0, 0
   \              000000000000
   \              00000000    
   \   00001BD8   000000000000       DC8 0, 0, 0, 0, 0, 0, 0, 0, 0, 0, 0, 0, 0, 0, 0, 0
   \              000000000000
   \              00000000    
   \   00001BE8   000000000000       DC8 0, 0, 0, 0, 0, 0, 0, 0, 0, 0, 0, 0, 0, 0, 0, 0
   \              000000000000
   \              00000000    
   \   00001BF8   000000000000       DC8 0, 0, 0, 0, 0, 0, 0, 0, 0, 0, 0, 0, 0, 0, 0, 0
   \              000000000000
   \              00000000    
   \   00001C08   000000000000       DC8 0, 0, 0, 0, 0, 0, 0, 0, 0, 0, 0, 0, 0, 0, 0, 0
   \              000000000000
   \              00000000    
   \   00001C18   000000000000       DC8 0, 0, 0, 0, 0, 0, 0, 0, 0, 0, 0, 0, 0, 0, 0, 0
   \              000000000000
   \              00000000    
   \   00001C28   000000000000       DC8 0, 0, 0, 0, 0, 0, 0, 0, 0, 0, 0, 0, 0, 0, 0, 0
   \              000000000000
   \              00000000    
   \   00001C38   000000000000       DC8 0, 0, 0, 0, 0, 0, 0, 0, 0, 0, 0, 0, 0, 0, 0, 0
   \              000000000000
   \              00000000    
   \   00001C48   000000000000       DC8 0, 0, 0, 0, 0, 0, 0, 0, 0, 0, 0, 0, 0, 0, 0, 0
   \              000000000000
   \              00000000    
   \   00001C58   000000000000       DC8 0, 0, 0, 0, 0, 0, 0, 0, 0, 0, 0, 0, 0, 0, 0, 0
   \              000000000000
   \              00000000    
   \   00001C68   000000000000       DC8 0, 0, 0, 0, 0, 0, 0, 0, 0, 0, 0, 0, 0, 0, 0, 0
   \              000000000000
   \              00000000    
   \   00001C78   000000000000       DC8 0, 0, 0, 0, 0, 0, 0, 0, 0, 0, 0, 0, 0, 0, 0, 0
   \              000000000000
   \              00000000    
   \   00001C88   000000000000       DC8 0, 0, 0, 0, 0, 0, 0, 0, 0, 0, 0, 0, 0, 0, 0, 0
   \              000000000000
   \              00000000    
   \   00001C98   000000000000       DC8 0, 0, 0, 0, 0, 0, 0, 0, 0, 0, 0, 0, 0, 0, 0, 0
   \              000000000000
   \              00000000    
   \   00001CA8   000000000000       DC8 0, 0, 0, 0, 0, 0, 0, 0, 0, 0, 0, 0, 0, 0, 0, 0
   \              000000000000
   \              00000000    
   \   00001CB8   000000000000       DC8 0, 0, 0, 0, 0, 0, 0, 0, 0, 0, 0, 0, 0, 0, 0, 0
   \              000000000000
   \              00000000    
   \   00001CC8   000000000000       DC8 0, 0, 0, 0, 0, 0, 0, 0, 0, 0, 0, 0, 0, 0, 0, 0
   \              000000000000
   \              00000000    
   \   00001CD8   000000000000       DC8 0, 0, 0, 0, 0, 0, 0, 0, 0, 0, 0, 0, 0, 0, 0, 0
   \              000000000000
   \              00000000    
   \   00001CE8   000000000000       DC8 0, 0, 0, 0, 0, 0, 0, 0, 0, 0, 0, 0, 0, 0, 0, 0
   \              000000000000
   \              00000000    
   \   00001CF8   000000000000       DC8 0, 0, 0, 0, 0, 0, 0, 0, 0, 0, 0, 0, 0, 0, 0, 0
   \              000000000000
   \              00000000    
   \   00001D08   000000000000       DC8 0, 0, 0, 0, 0, 0, 0, 0, 0, 0, 0, 0, 0, 0, 0, 0
   \              000000000000
   \              00000000    
   \   00001D18   000000000000       DC8 0, 0, 0, 0, 0, 0, 0, 0, 0, 0, 0, 0, 0, 0, 0, 0
   \              000000000000
   \              00000000    
   \   00001D28   000000000000       DC8 0, 0, 0, 0, 0, 0, 0, 0, 0, 0, 0, 0, 0, 0, 0, 0
   \              000000000000
   \              00000000    
   \   00001D38   000000000000       DC8 0, 0, 0, 0, 0, 0, 0, 0, 0, 0, 0, 0, 0, 0, 0, 0
   \              000000000000
   \              00000000    
   \   00001D48   000000000000       DC8 0, 0, 0, 0, 0, 0, 0, 0, 0, 0, 0, 0, 0, 0, 0, 0
   \              000000000000
   \              00000000    
   \   00001D58   000000000000       DC8 0, 0, 0, 0, 0, 0, 0, 0, 0, 0, 0, 0, 0, 0, 0, 0
   \              000000000000
   \              00000000    
   \   00001D68   000000000000       DC8 0, 0, 0, 0, 0, 0, 0, 0, 0, 0, 0, 0, 0, 0, 0, 0
   \              000000000000
   \              00000000    
   \   00001D78   000000000000       DC8 0, 0, 0, 0, 0, 0, 0, 0, 0, 0, 0, 0, 0, 0, 0, 0
   \              000000000000
   \              00000000    
   \   00001D88   000000000000       DC8 0, 0, 0, 0, 0, 0, 0, 0, 0, 0, 0, 0, 0, 0, 0, 0
   \              000000000000
   \              00000000    
   \   00001D98   000000000000       DC8 0, 0, 0, 0, 0, 0, 0, 0, 0, 0, 0, 0, 0, 0, 0, 0
   \              000000000000
   \              00000000    
   \   00001DA8   000000000000       DC8 0, 0, 0, 0, 0, 0, 0, 0, 0, 0, 0, 0, 0, 0, 0, 0
   \              000000000000
   \              00000000    
   \   00001DB8   000000000000       DC8 0, 0, 0, 0, 0, 0, 0, 0, 0, 0, 0, 0, 0, 0, 0, 0
   \              000000000000
   \              00000000    
   \   00001DC8   000000000000       DC8 0, 0, 0, 0, 0, 0, 0, 0, 0, 0, 0, 0, 0, 0, 0, 0
   \              000000000000
   \              00000000    
   \   00001DD8   000000000000       DC8 0, 0, 0, 0, 0, 0, 0, 0, 0, 0, 0, 0, 0, 0, 0, 0
   \              000000000000
   \              00000000    
   \   00001DE8   000000000000       DC8 0, 0, 0, 0, 0, 0, 0, 0, 0, 0, 0, 0, 0, 0, 0, 0
   \              000000000000
   \              00000000    
   \   00001DF8   000000000000       DC8 0, 0, 0, 0, 0, 0, 0, 0, 0, 0, 0, 0, 0, 0, 0, 0
   \              000000000000
   \              00000000    
   \   00001E08   000000000000       DC8 0, 0, 0, 0, 0, 0, 0, 0, 0, 0, 0, 0, 0, 0, 0, 0
   \              000000000000
   \              00000000    
   \   00001E18   000000000000       DC8 0, 0, 0, 0, 0, 0, 0, 0, 0, 0, 0, 0, 0, 0, 0, 0
   \              000000000000
   \              00000000    
   \   00001E28   000000000000       DC8 0, 0, 0, 0, 0, 0, 0, 0, 0, 0, 0, 0, 0, 0, 0, 0
   \              000000000000
   \              00000000    
   \   00001E38   000000000000       DC8 0, 0, 0, 0, 0, 0, 0, 0, 0, 0, 0, 0, 0, 0, 0, 0
   \              000000000000
   \              00000000    
   \   00001E48   000000000000       DC8 0, 0, 0, 0, 0, 0, 0, 0, 0, 0, 0, 0, 0, 0, 0, 0
   \              000000000000
   \              00000000    
   \   00001E58   000000000000       DC8 0, 0, 0, 0, 0, 0, 0, 0, 0, 0, 0, 0, 0, 0, 0, 0
   \              000000000000
   \              00000000    
   \   00001E68   000000000000       DC8 0, 0, 0, 0, 0, 0, 0, 0, 0, 0, 0, 0, 0, 0, 0, 0
   \              000000000000
   \              00000000    
   \   00001E78   000000000000       DC8 0, 0, 0, 0, 0, 0, 0, 0, 0, 0, 0, 0, 0, 0, 0, 0
   \              000000000000
   \              00000000    
   \   00001E88   000000000000       DC8 0, 0, 0, 0, 0, 0, 0, 0, 0, 0, 0, 0, 0, 0, 0, 0
   \              000000000000
   \              00000000    
   \   00001E98   000000000000       DC8 0, 0, 0, 0, 0, 0, 0, 0, 0, 0, 0, 0, 0, 0, 0, 0
   \              000000000000
   \              00000000    
   \   00001EA8   000000000000       DC8 0, 0, 0, 0, 0, 0, 0, 0, 0, 0, 0, 0, 0, 0, 0, 0
   \              000000000000
   \              00000000    
   \   00001EB8   000000000000       DC8 0, 0, 0, 0, 0, 0, 0, 0, 0, 0, 0, 0, 0, 0, 0, 0
   \              000000000000
   \              00000000    
   \   00001EC8   000000000000       DC8 0, 0, 0, 0, 0, 0, 0, 0, 0, 0, 0, 0, 0, 0, 0, 0
   \              000000000000
   \              00000000    
   \   00001ED8   000000000000       DC8 0, 0, 0, 0, 0, 0, 0, 0, 0, 0, 0, 0, 0, 0, 0, 0
   \              000000000000
   \              00000000    
   \   00001EE8   000000000000       DC8 0, 0, 0, 0, 0, 0, 0, 0, 0, 0, 0, 0, 0, 0, 0, 0
   \              000000000000
   \              00000000    
   \   00001EF8   000000000000       DC8 0, 0, 0, 0, 0, 0, 0, 0, 0, 0, 0, 0, 0, 0, 0, 0
   \              000000000000
   \              00000000    
   \   00001F08   000000000000       DC8 0, 0, 0, 0, 0, 0, 0, 0, 0, 0, 0, 0, 0, 0, 0, 0
   \              000000000000
   \              00000000    
   \   00001F18   000000000000       DC8 0, 0, 0, 0, 0, 0, 0, 0, 0, 0, 0, 0, 0, 0, 0, 0
   \              000000000000
   \              00000000    
   \   00001F28   000000000000       DC8 0, 0, 0, 0, 0, 0, 0, 0, 0, 0, 0, 0, 0, 0, 0, 0
   \              000000000000
   \              00000000    
   \   00001F38   000000000000       DC8 0, 0, 0, 0, 0, 0, 0, 0, 0, 0, 0, 0, 0, 0, 0, 0
   \              000000000000
   \              00000000    
   \   00001F48   000000000000       DC8 0, 0, 0, 0, 0, 0, 0, 0, 0, 0, 0, 0, 0, 0, 0, 0
   \              000000000000
   \              00000000    
   \   00001F58   000000000000       DC8 0, 0, 0, 0, 0, 0, 0, 0, 0, 0, 0, 0, 0, 0, 0, 0
   \              000000000000
   \              00000000    
   \   00001F68   000000000000       DC8 0, 0, 0, 0, 0, 0, 0, 0, 0, 0, 0, 0, 0, 0, 0, 0
   \              000000000000
   \              00000000    
   \   00001F78   000000000000       DC8 0, 0, 0, 0, 0, 0, 0, 0, 0, 0, 0, 0, 0, 0, 0, 0
   \              000000000000
   \              00000000    
   \   00001F88   000000000000       DC8 0, 0, 0, 0, 0, 0, 0, 0, 0, 0, 0, 0, 0, 0, 0, 0
   \              000000000000
   \              00000000    
   \   00001F98   000000000000       DC8 0, 0, 0, 0, 0, 0, 0, 0, 0, 0, 0, 0, 0, 0, 0, 0
   \              000000000000
   \              00000000    
   \   00001FA8   000000000000       DC8 0, 0, 0, 0, 0, 0, 0, 0, 0, 0, 0, 0, 0, 0, 0, 0
   \              000000000000
   \              00000000    
   \   00001FB8   000000000000       DC8 0, 0, 0, 0, 0, 0, 0, 0, 0, 0, 0, 0, 0, 0, 0, 0
   \              000000000000
   \              00000000    
   \   00001FC8   000000000000       DC8 0, 0, 0, 0, 0, 0, 0, 0, 0, 0, 0, 0, 0, 0, 0, 0
   \              000000000000
   \              00000000    
   \   00001FD8   000000000000       DC8 0, 0, 0, 0, 0, 0, 0, 0, 0, 0, 0, 0, 0, 0, 0, 0
   \              000000000000
   \              00000000    
   \   00001FE8   000000000000       DC8 0, 0, 0, 0, 0, 0, 0, 0, 0, 0, 0, 0, 0, 0, 0, 0
   \              000000000000
   \              00000000    
   \   00001FF8   000000000000       DC8 0, 0, 0, 0, 0, 0, 0, 0, 0, 0, 0, 0, 0, 0, 0, 0
   \              000000000000
   \              00000000    
   \   00002008   000000000000       DC8 0, 0, 0, 0, 0, 0, 0, 0, 0, 0, 0, 0, 0, 0, 0, 0
   \              000000000000
   \              00000000    
   \   00002018   000000000000       DC8 0, 0, 0, 0, 0, 0, 0, 0, 0, 0, 0, 0, 0, 0, 0, 0
   \              000000000000
   \              00000000    
   \   00002028   000000000000       DC8 0, 0, 0, 0, 0, 0, 0, 0, 0, 0, 0, 0, 0, 0, 0, 0
   \              000000000000
   \              00000000    
   \   00002038   000000000000       DC8 0, 0, 0, 0, 0, 0, 0, 0, 0, 0, 0, 0, 0, 0, 0, 0
   \              000000000000
   \              00000000    
   \   00002048   000000000000       DC8 0, 0, 0, 0, 0, 0, 0, 0, 0, 0, 0, 0, 0, 0, 0, 0
   \              000000000000
   \              00000000    
   \   00002058   000000000000       DC8 0, 0, 0, 0, 0, 0, 0, 0, 0, 0, 0, 0, 0, 0, 0, 0
   \              000000000000
   \              00000000    
   \   00002068   000000000000       DC8 0, 0, 0, 0, 0, 0, 0, 0, 0, 0, 0, 0, 0, 0, 0, 0
   \              000000000000
   \              00000000    
   \   00002078   000000000000       DC8 0, 0, 0, 0, 0, 0, 0, 0, 0, 0, 0, 0, 0, 0, 0, 0
   \              000000000000
   \              00000000    
   \   00002088   000000000000       DC8 0, 0, 0, 0, 0, 0, 0, 0, 0, 0, 0, 0, 0, 0, 0, 0
   \              000000000000
   \              00000000    

   \                                 In segment DIFUNCT, align 4, keep-with-next, root
   \   00000000                      REQUIRE ?call_ctors
   \   00000000   ........           DC32    ??__sti__routine

   \                                 In segment DATA_C, align 1, align-sorted
   \   00000000   3A2000             DC8 ": "

   \                                 In segment DATA_C, align 4, align-sorted
   \                     `?<Constant "UNKNOWN">`:
   \   00000000   554E4B4E4F57       DC8 "UNKNOWN"
   \              4E00        

   \                                 In segment DATA_C, align 1, align-sorted
   \   00000000   2500               DC8 "%"

   \                                 In segment DATA_C, align 4, align-sorted
   \                     `?<Constant "FlashUp">`:
   \   00000000   466C61736855       DC8 "FlashUp"
   \              7000        

   \                                 In segment DATA_C, align 4, align-sorted
   \                     `?<Constant "UploadFlash">`:
   \   00000000   55706C6F6164       DC8 "UploadFlash"
   \              466C61736800

   \                                 In segment CODE, align 4, keep-with-next
   \   static __??Code32?? __intrinsic __code __interwork __atpcs void __sti__routine()
   \                     ??__sti__routine:
   \   00000000   11402DE9           PUSH     {R0,R4,LR}
   \   00000004   ........           LDR      R4,??DataTable0  ;; RestartAck
   \   00000008   0110A0E3           MOV      R1,#+1
   \   0000000C   0D00A0E1           MOV      R0,SP
   \   00000010   ........           _BLF     __data_memzero,??__data_memzero??rA
   \   00000014   040084E2           ADD      R0,R4,#+4
   \   00000018   ........           _BLF     ??_Clear,??_Clear??rA
   \   0000001C   0000DDE5           LDRB     R0,[SP, #+0]
   \   00000020   1800C4E5           STRB     R0,[R4, #+24]
   \   00000024   08009FE5           LDR      R0,??__sti__routine_1  ;; ?_1
   \   00000028   ........           _BLF     __record_needed_destruction,??__record_needed_destruction??rA
   \   0000002C   1140BDE8           POP      {R0,R4,LR}
   \   00000030   1EFF2FE1           BX       LR               ;; return
   \                     ??__sti__routine_1:
   \   00000034   ........           DC32     ?_1

   \                                 In segment CODE, align 4, keep-with-next
   \                     ??DataTable0:
   \   00000000   ........           DC32     RestartAck

   \                                 In segment CODE, align 4, keep-with-next
   \                     ??DataTable3:
   \   00000000   ........           DC32     CurrentDeviceAddress

   \                                 In segment CODE, align 4, keep-with-next
   \                     ??DataTable4:
   \   00000000   ........           DC32     CRC

   \                                 In segment CODE, align 4, keep-with-next
   \                     ??DataTable5:
   \   00000000   ........           DC32     ??CriticalComAlarm

   \                                 In segment CODE, align 4, keep-with-next
   \                     ??DataTable10:
   \   00000000   ........           DC32     CurrentDeviceId

   \                                 In segment CODE, align 4, keep-with-next
   \                     ??DataTable13:
   \   00000000   ........           DC32     Master

   \                                 In segment CODE, align 4, keep-with-next
   \                     ??DataTable14:
   \   00000000   ........           DC32     CRC

   \                                 In segment CODE, align 4, keep-with-next
   \                     ??DataTable16:
   \   00000000   ........           DC32     CurrentDeviceAddress

   \                                 In segment CODE, align 4, keep-with-next
   \                     ??DataTable24:
   \   00000000   ........           DC32     ??ProjectName

   \                                 In segment CODE, align 4, keep-with-next
   \                     ??DataTable25:
   \   00000000   ........           DC32     ??ConfigInfoPtr

   \                                 In segment CODE, align 4, keep-with-next
   \                     ??DataTable32:
   \   00000000   ........           DC32     SectorProgEnd

   \                                 In segment CODE, align 4, keep-with-next
   \                     ??DataTable33:
   \   00000000   ........           DC32     SectorProgStart

   \                                 In segment CODE, align 4, keep-with-next
   \                     ??DataTable34:
   \   00000000   ........           DC32     SectorConfigEnd

   \                                 In segment CODE, align 4, keep-with-next
   \                     ??DataTable35:
   \   00000000   ........           DC32     SectorConfigStart

   \                                 In segment CODE, align 4, keep-with-next
   \                     ??DataTable36:
   \   00000000   ........           DC32     SectorSettings1End

   \                                 In segment CODE, align 4, keep-with-next
   \                     ??DataTable37:
   \   00000000   ........           DC32     SectorSettings1Start

   \                                 In segment CODE, align 4, keep-with-next
   \                     ??DataTable39:
   \   00000000   ........           DC32     CurrentDeviceId

   \                                 In segment CODE, align 4, keep-with-next
   \                     ??DataTable47:
   \   00000000   ........           DC32     Master

   \                                 In segment CODE, align 4, keep-with-next
   \                     ??DataTable48:
   \   00000000   ........           DC32     ANPRO10IOTask

   \                                 In segment CODE, align 4, keep-with-next
   \                     ??DataTable49:
   \   00000000   ........           DC32     SendStaticDataTaskHandle

   \                                 In segment CODE, align 4, keep-with-next
   \                     ??DataTable50:
   \   00000000   ........           DC32     CalcMiscObjectsHandle

   \                                 In segment CODE, align 4, keep-with-next
   \                     ??DataTable51:
   \   00000000   ........           DC32     InclinometerHandle

   \                                 In segment CODE, align 4, keep-with-next
   \                     ??DataTable52:
   \   00000000   ........           DC32     ??ExchangeDataTask

   \                                 In segment CODE, align 4, keep-with-next
   \                     ??DataTable53:
   \   00000000   ........           DC32     ??ModbusTaskVector

   \                                 In segment CODE, align 4, keep-with-next
   \                     ??DataTable55:
   \   00000000   ........           DC32     CurrentDeviceId

   \                                 In segment CODE, align 4, keep-with-next
   \                     ??DataTable56:
   \   00000000   ........           DC32     RestartAck

   \                                 In segment CODE, align 4, keep-with-next
   \                     ??DataTable58:
   \   00000000   ........           DC32     ??CriticalComAlarm

   \                                 In segment CODE, align 4, keep-with-next
   \                     ??DataTable64:
   \   00000000   ........           DC32     Master

   \                                 In segment CODE, align 4, keep-with-next
   \                     ??DataTable68:
   \   00000000   ........           DC32     SectorProgEnd

   \                                 In segment CODE, align 4, keep-with-next
   \                     ??DataTable69:
   \   00000000   ........           DC32     SectorProgStart

   \                                 In segment CODE, align 4, keep-with-next
   \                     ??DataTable70:
   \   00000000   ........           DC32     SectorConfigEnd

   \                                 In segment CODE, align 4, keep-with-next
   \                     ??DataTable71:
   \   00000000   ........           DC32     SectorConfigStart

   \                                 In segment CODE, align 4, keep-with-next
   \                     ??DataTable72:
   \   00000000   ........           DC32     RestartAck
   2783          #endif
   2784          
   2785          

   Maximum stack usage in bytes:

     Function                       CSTACK
     --------                       ------
     ANPRO10Decompress(ANPRO10_PacketHeading *, int, unsigned char *, TSNUart *)
                                       36
     ANPRO10SendCommand(TSNUart *, unsigned long, unsigned long, unsigned short)
                                       16
     ANPRO10SendCommand(TSNUart *, unsigned long, unsigned long, unsigned short, unsigned char)
                                       20
     ANPRO10SendNormal(void *)         16
     ANPRO10SendUrgent(void *)         16
     ANPRO10_AddCommand(unsigned char *, unsigned char *)
                                        8
     ANPRO10_AddPacketHeading(unsigned char *, unsigned int, unsigned int)
                                        0
     ANPRO10_AddPacketPreAmble(unsigned char *)
                                        0
     ANPRO10_AddPacketTail(unsigned char *, int, bool)
                                       20
     ANPRO10_FlashHandler(TSNUart *, ANPRO10_PacketHeading *, unsigned char *)
                                       24
     ANPRO10_Receive(TSNUart *, int, unsigned char *)
                                       40
     ANPRO10_ReceiveFlashData(unsigned char *, unsigned long, unsigned long)
                                      324
     ANPRO10_ReceiveReport(TSNUart *, unsigned long, unsigned long, unsigned char *)
                                       36
     ANPRO10_ReceiveSysInfo(unsigned char *, TSNUart *)
                                       32
     ANPRO10_ReceiveTime(ANPRO10_CommandHeading *)
                                        8
     ANPRO10_ReceiveZerosetAll(unsigned short)
                                      476
     ANPRO10_SendAlarmSilence()        16
     ANPRO10_SendBuzzerTest(char)      16
     ANPRO10_SendEraseCommand(TSNUart *, unsigned long, unsigned long, int)
                                        8
     ANPRO10_SendFlashData(TSNUart *, unsigned long, unsigned long, unsigned short, unsigned long, unsigned long)
                                       60
     ANPRO10_SendReport(int, int)      20
     ANPRO10_SendReqSysInfo(TSNUart *, unsigned int, unsigned int)
                                        4
     ANPRO10_SendRestartTXU(TSNUart *, unsigned int, unsigned int)
                                        4
     ANPRO10_SendResumeIO(TSNUart *, unsigned int, unsigned int)
                                        4
     ANPRO10_SendSettings(TSNUart *, unsigned long, unsigned long)
                                       52
     ANPRO10_SendSuspendIO(TSNUart *, unsigned int, unsigned int)
                                        4
     ANPRO10_SendSysInfo(TSNUart *, unsigned int, unsigned int)
                                      100
     ANPRO10_SendTime(bool)            32
     ANPRO10_SendZerosetAll(unsigned short)
                                       16
     ANPRO10_UnpackPacket(unsigned char *, TSNUart *)
                                      104
     AddData(unsigned char *, unsigned short, unsigned char *, unsigned short)
                                       16
     AddPacket(unsigned char *, NetPacket &)
                                       12
     BuildPacketHeading(NetHeading *, unsigned int, unsigned int)
                                        0
     EraseFlash(unsigned char)         12
     ReceiveFlashTimeOut()              4
     Restart(TSNUart *, unsigned long, unsigned long)
                                       32
     ResumeIO()                        12
     StartUploadTask()                 20
     SuspendIO(int)                    16
     SyncReceived()                     4
     UploadTask()                      48
     _Tree<_Tset_traits<PRogramObjectBase *, less<PRogramObjectBase *>, allocator<PRogramObjectBase *>, false>>::_Copy(_Tree<_Tset_traits<PRogramObjectBase *, less<PRogramObjectBase *>, allocator<PRogramObjectBase *>, false>> const &)
                                       12
     _Tree<_Tset_traits<PRogramObjectBase *, less<PRogramObjectBase *>, allocator<PRogramObjectBase *>, false>>::_Copy(_Tree<_Tset_traits<PRogramObjectBase *, less<PRogramObjectBase *>, allocator<PRogramObjectBase *>, false>>::_Nodeptr, _Tree<_Tset_traits<PRogramObjectBase *, less<PRogramObjectBase *>, allocator<PRogramObjectBase *>, false>>::_Nodeptr)
                                       32
     _Tree<_Tset_traits<PRogramObjectBase *, less<PRogramObjectBase *>, allocator<PRogramObjectBase *>, false>>::_Erase(_Tree<_Tset_traits<PRogramObjectBase *, less<PRogramObjectBase *>, allocator<PRogramObjectBase *>, false>>::_Nodeptr)
                                       16
     _Tree<_Tset_traits<unsigned int, less<unsigned int>, allocator<unsigned int>, false>>::_Erase(_Tree<_Tset_traits<unsigned int, less<unsigned int>, allocator<unsigned int>, false>>::_Nodeptr)
                                       16
     _Tree<_Tset_traits<unsigned int, less<unsigned int>, allocator<unsigned int>, false>>::_Insert(bool, _Tree<_Tset_traits<unsigned int, less<unsigned int>, allocator<unsigned int>, false>>::_Nodeptr, unsigned int)
                                       24
     _Tree<_Tset_traits<unsigned int, less<unsigned int>, allocator<unsigned int>, false>>::_Lbound(unsigned int) const
                                        0
     _Tree<_Tset_traits<unsigned int, less<unsigned int>, allocator<unsigned int>, false>>::_Ubound(unsigned int) const
                                        0
     _Tree<_Tset_traits<unsigned int, less<unsigned int>, allocator<unsigned int>, false>>::clear()
                                        8
     _Tree<_Tset_traits<unsigned int, less<unsigned int>, allocator<unsigned int>, false>>::equal_range(unsigned int)
                                       28
     _Tree<_Tset_traits<unsigned int, less<unsigned int>, allocator<unsigned int>, false>>::erase(_Tree<_Tset_traits<unsigned int, less<unsigned int>, allocator<unsigned int>, false>>::iterator, _Tree<_Tset_traits<unsigned int, less<unsigned int>, allocator<unsigned int>, false>>::iterator)
                                       20
     _Tree<_Tset_traits<unsigned int, less<unsigned int>, allocator<unsigned int>, false>>::erase(unsigned int)
                                       24
     _Tree<_Tset_traits<unsigned int, less<unsigned int>, allocator<unsigned int>, false>>::insert(unsigned int)
                                       40
     _Tree_algobase<allocator<void>>::_Clear()
                                        0
     _Tree_algobase<allocator<void>>::_DecP(_Tree_algobase<allocator<void>>::_Genptr)
                                        4
     _Tree_algobase<allocator<void>>::_Erase(_Tree_algobase<allocator<void>>::_Genptr)
                                       32
     _Tree_algobase<allocator<void>>::_IncP(_Tree_algobase<allocator<void>>::_Genptr)
                                        0
     _Tree_algobase<allocator<void>>::_Insert(bool, _Tree_algobase<allocator<void>>::_Genptr, _Tree_algobase<allocator<void>>::_Genptr)
                                       20
     _Tree_algobase<allocator<void>>::_Lrotate(_Tree_algobase<allocator<void>>::_Genptr)
                                        0
     _Tree_algobase<allocator<void>>::_Max(_Tree_algobase<allocator<void>>::_Genptr)
                                        0
     _Tree_algobase<allocator<void>>::_Rrotate(_Tree_algobase<allocator<void>>::_Genptr)
                                        0
     __sti__routine()                  12
     anpro_net_check_project_config_against_master(ANPRO10_COMMAND_2001 *)
                                       28
     operator+(string const &, char const *)
                                       44
     operator+(string const &, string const &)
                                       40
     set<PRogramObjectBase *>::set(set<PRogramObjectBase *> const &)
                                       16
     set<PRogramObjectBase *>::~set()
                                        8
     set<unsigned int>::~set()          4
     string::c_str() const              0
     string::string(string const &)    12


   Segment part sizes:

     Function/Label                 Bytes
     --------------                 -----
     string::string(string const &)   64
     string::c_str() const            24
     _Tree_algobase<allocator<void>>::_Max(_Tree_algobase<allocator<void>>::_Genptr)
                                      28
     _Tree_algobase<allocator<void>>::_DecP(_Tree_algobase<allocator<void>>::_Genptr)
                                      88
     _Tree_algobase<allocator<void>>::_IncP(_Tree_algobase<allocator<void>>::_Genptr)
                                      92
     _Tree_algobase<allocator<void>>::_Clear()
                                      36
     _Tree_algobase<allocator<void>>::_Rrotate(_Tree_algobase<allocator<void>>::_Genptr)
                                      84
     _Tree_algobase<allocator<void>>::_Lrotate(_Tree_algobase<allocator<void>>::_Genptr)
                                      84
     _Tree_algobase<allocator<void>>::_Erase(_Tree_algobase<allocator<void>>::_Genptr)
                                     780
     _Tree_algobase<allocator<void>>::_Insert(bool, _Tree_algobase<allocator<void>>::_Genptr, _Tree_algobase<allocator<void>>::_Genptr)
                                     356
     _Tree<_Tset_traits<unsigned int, less<unsigned int>, allocator<unsigned int>, false>>::insert(unsigned int)
                                     200
     _Tree<_Tset_traits<unsigned int, less<unsigned int>, allocator<unsigned int>, false>>::erase(_Tree<_Tset_traits<unsigned int, less<unsigned int>, allocator<unsigned int>, false>>::iterator, _Tree<_Tset_traits<unsigned int, less<unsigned int>, allocator<unsigned int>, false>>::iterator)
                                     108
     _Tree<_Tset_traits<unsigned int, less<unsigned int>, allocator<unsigned int>, false>>::erase(unsigned int)
                                      84
     _Tree<_Tset_traits<unsigned int, less<unsigned int>, allocator<unsigned int>, false>>::clear()
                                      32
     _Tree<_Tset_traits<unsigned int, less<unsigned int>, allocator<unsigned int>, false>>::equal_range(unsigned int)
                                      76
     _Tree<_Tset_traits<PRogramObjectBase *, less<PRogramObjectBase *>, allocator<PRogramObjectBase *>, false>>::_Copy(_Tree<_Tset_traits<PRogramObjectBase *, less<PRogramObjectBase *>, allocator<PRogramObjectBase *>, false>> const &)
                                     112
     _Tree<_Tset_traits<PRogramObjectBase *, less<PRogramObjectBase *>, allocator<PRogramObjectBase *>, false>>::_Copy(_Tree<_Tset_traits<PRogramObjectBase *, less<PRogramObjectBase *>, allocator<PRogramObjectBase *>, false>>::_Nodeptr, _Tree<_Tset_traits<PRogramObjectBase *, less<PRogramObjectBase *>, allocator<PRogramObjectBase *>, false>>::_Nodeptr)
                                     148
     _Tree<_Tset_traits<unsigned int, less<unsigned int>, allocator<unsigned int>, false>>::_Erase(_Tree<_Tset_traits<unsigned int, less<unsigned int>, allocator<unsigned int>, false>>::_Nodeptr)
                                      68
     _Tree<_Tset_traits<PRogramObjectBase *, less<PRogramObjectBase *>, allocator<PRogramObjectBase *>, false>>::_Erase(_Tree<_Tset_traits<PRogramObjectBase *, less<PRogramObjectBase *>, allocator<PRogramObjectBase *>, false>>::_Nodeptr)
                                      68
     _Tree<_Tset_traits<unsigned int, less<unsigned int>, allocator<unsigned int>, false>>::_Insert(bool, _Tree<_Tset_traits<unsigned int, less<unsigned int>, allocator<unsigned int>, false>>::_Nodeptr, unsigned int)
                                      96
     _Tree<_Tset_traits<unsigned int, less<unsigned int>, allocator<unsigned int>, false>>::_Lbound(unsigned int) const
                                      40
     _Tree<_Tset_traits<unsigned int, less<unsigned int>, allocator<unsigned int>, false>>::_Ubound(unsigned int) const
                                      40
     set<PRogramObjectBase *>::~set()
                                      32
     set<PRogramObjectBase *>::set(set<PRogramObjectBase *> const &)
                                      48
     set<unsigned int>::~set()        16
     operator+(string const &, string const &)
                                      88
     operator+(string const &, char const *)
                                      92
     BootVersion                       4
     LastOSError                       4
     FlashErrorStatus                  4
     LastOSErrorTask                  32
     LastErrAddress                    4
     CRC                             256
     SystemMatch                       1
     Acknowledge                       1
     SysInfoAvailable                  1
     fake_uart_port_for_tcp_clientPtr
                                       8
     BuildPacketHeading(NetHeading *, unsigned int, unsigned int)
                                      28
     ?Subroutine45                    12
     ANPRO10_AddPacketHeading(unsigned char *, unsigned int, unsigned int)
                                      28
     ANPRO10_AddPacketPreAmble(unsigned char *)
                                      40
     AddData(unsigned char *, unsigned short, unsigned char *, unsigned short)
                                      72
     Sequence                          1
     ANPRO10_AddPacketTail(unsigned char *, int, bool)
                                     216
     AddPacket(unsigned char *, NetPacket &)
                                     148
     ?Subroutine46                     8
     ANPRO10_AddCommand(unsigned char *, unsigned char *)
                                      48
     ANPRO10Decompress(ANPRO10_PacketHeading *, int, unsigned char *, TSNUart *)
                                     156
     ?Subroutine47                    16
     PacketCnt                         4
     ANPRO10_UnpackPacket(unsigned char *, TSNUart *)
                                    2796
     ?Subroutine48                    40
     RxCnt                             5
     ANPRO10_Receive(TSNUart *, int, unsigned char *)
                                     784
     ANPRO10_SendSysInfo(TSNUart *, unsigned int, unsigned int)
                                     424
     ?Subroutine49                    12
     ANPRO10_SendAlarmSilence()      100
     ?Subroutine43                    16
     ANPRO10_SendBuzzerTest(char)     80
     ANPRO10_SendZerosetAll(unsigned short)
                                      64
     ANPRO10_ReceiveZerosetAll(unsigned short)
                                     600
     ?Subroutine44                    16
     ANPRO10_SendTime(bool)          212
     ANPRO10_ReceiveTime(ANPRO10_CommandHeading *)
                                     168
     ANPRO10_SendRestartTXU(TSNUart *, unsigned int, unsigned int)
                                      12
     ANPRO10_SendSuspendIO(TSNUart *, unsigned int, unsigned int)
                                      12
     ANPRO10_SendResumeIO(TSNUart *, unsigned int, unsigned int)
                                       8
     anpro_net_check_project_config_against_master(ANPRO10_COMMAND_2001 *)
                                     100
     ANPRO10_SendReqSysInfo(TSNUart *, unsigned int, unsigned int)
                                      12
     ANPRO10_ReceiveSysInfo(unsigned char *, TSNUart *)
                                     260
     EraseFlash(unsigned char)       124
     ?Subroutine50                    12
     ANPRO10_FlashHandler(TSNUart *, ANPRO10_PacketHeading *, unsigned char *)
                                     364
     ReceiveFlashTimer                20
     ResumeIO()                      396
     ReceiveFlashTimeOut()            36
     SuspendIO(int)                  392
     ?Subroutine51                    12
     ANPRO10_ReceiveFlashData(unsigned char *, unsigned long, unsigned long)
                                    1668
     ANPRO10_SendFlashData(TSNUart *, unsigned long, unsigned long, unsigned short, unsigned long, unsigned long)
                                     568
     ANPRO10_SendSettings(TSNUart *, unsigned long, unsigned long)
                                     548
     ANPRO10_SendEraseCommand(TSNUart *, unsigned long, unsigned long, int)
                                      32
     ANPRO10SendCommand(TSNUart *, unsigned long, unsigned long, unsigned short)
                                      44
     ANPRO10SendCommand(TSNUart *, unsigned long, unsigned long, unsigned short, unsigned char)
                                      52
     ANPRO10SendUrgent(void *)       116
     ANPRO10SendNormal(void *)       184
     SyncReceived()                   28
     Restart(TSNUart *, unsigned long, unsigned long)
                                     212
     ANPRO10_SendReport(int, int)    112
     ANPRO10_ReceiveReport(TSNUart *, unsigned long, unsigned long, unsigned char *)
                                     144
     UploadTask()                    428
     RestartAck                     8344
     StartUploadTask()               100
     ?<Initializer for fake_uart_port_for_tcp_clien
                                       8
     ?<Initializer for RestartAck>  8344
     ?<Constant ": ">                  3
     ?<Constant "UNKNOWN">             8
     ?<Constant "%">                   2
     ?<Constant "FlashUp">             8
     ?<Constant "UploadFlash">        12
     __sti__routine()                 56
     ??DataTable0                      4
     ??DataTable3                      4
     ??DataTable4                      4
     ??DataTable5                      4
     ??DataTable10                     4
     ??DataTable13                     4
     ??DataTable14                     4
     ??DataTable16                     4
     ??DataTable24                     4
     ??DataTable25                     4
     ??DataTable32                     4
     ??DataTable33                     4
     ??DataTable34                     4
     ??DataTable35                     4
     ??DataTable36                     4
     ??DataTable37                     4
     ??DataTable39                     4
     ??DataTable47                     4
     ??DataTable48                     4
     ??DataTable49                     4
     ??DataTable50                     4
     ??DataTable51                     4
     ??DataTable52                     4
     ??DataTable53                     4
     ??DataTable55                     4
     ??DataTable56                     4
     ??DataTable58                     4
     ??DataTable64                     4
     ??DataTable68                     4
     ??DataTable69                     4
     ??DataTable70                     4
     ??DataTable71                     4
     ??DataTable72                     4
      Others                        1488

 
 16 676 bytes in segment CODE
     48 bytes in segment DATA_AN
    301 bytes in segment DATA_C
  8 352 bytes in segment DATA_I
  8 352 bytes in segment DATA_ID
     37 bytes in segment DATA_Z
      4 bytes in segment DIFUNCT
     24 bytes in segment INITTAB
 
 12 252 bytes of CODE  memory (+ 4 452 bytes shared)
  8 653 bytes of CONST memory
  8 389 bytes of DATA  memory (+    48 bytes shared)

Errors: none
Warnings: 3
