##############################################################################
#                                                                            #
# IAR ARM ANSI C/C++ Compiler V4.42A/W32               14/Sep/2022  15:11:52 #
# Copyright 1999-2005 IAR Systems. All rights reserved.                      #
#                                                                            #
#    Cpu mode        =  interwork                                            #
#    Endian          =  little                                               #
#    Stack alignment =  4                                                    #
#    Source file     =  D:\S2Prog\Shared\Src\API.Cpp                         #
#    Command line    =  D:\S2Prog\Shared\Src\API.Cpp --fpu None -D           #
#                       OS_LIBMODE_SP -D CPU_S3C2410 -D OS_RAMVECT=0 -D      #
#                       OS_UART=-1 -D S2TXU -D USE_LZO=1 -D __ARM_LIBRARY__  #
#                       -D WATCHDOG=1 -D NETWORK=1 -lCN                      #
#                       D:\S2Prog\TXU\Debug\List\ -o                         #
#                       D:\S2Prog\TXU\Debug\Obj\ -z9 --debug --cpu_mode arm  #
#                       --endian little --cpu ARM920T --stack_align 4        #
#                       --interwork -e --enable_multibytes --eec++           #
#                       --dlib_config "C:\Program Files (x86)\IAR            #
#                       Systems\Embedded Workbench                           #
#                       4.0\arm\LIB\dl4tpainl8n.h" -I                        #
#                       D:\S2Prog\TXU\GUI\CORE\ -I D:\S2Prog\TXU\GUI\WM\ -I  #
#                       D:\S2Prog\TXU\GUI\WIDGET\ -I D:\S2Prog\TXU\CONFIG\   #
#                       -I D:\S2Prog\TXU\INC\ -I D:\S2Prog\TXU\..\SHARED\INC #
#                       \ -I D:\S2Prog\TXU\..\SHARED\SRC\ -I                 #
#                       D:\S2Prog\TXU\..\SHARED\LZO\minilzo.210\ -I          #
#                       D:\S2Prog\TXU\lwip-1.4.1\src\include\ -I             #
#                       D:\S2Prog\TXU\lwip-1.4.1\src\include\ipv4\ -I        #
#                       D:\S2Prog\TXU\lwip-1.4.1\src\ -I                     #
#                       D:\S2Prog\TXU\..\SHARED\Database\ -I                 #
#                       D:\S2Prog\TXU\src\ -I "C:\Program Files (x86)\IAR    #
#                       Systems\Embedded Workbench 4.0\arm\INC\"             #
#                       --inline_threshold=2                                 #
#    List file       =  D:\S2Prog\TXU\Debug\List\API.lst                     #
#    Object file     =  D:\S2Prog\TXU\Debug\Obj\API.r79                      #
#                                                                            #
#                                                                            #
##############################################################################

D:\S2Prog\Shared\Src\API.Cpp
      1          #include "TSNIncludes.h"

   \                                 In segment CODE, align 4, keep-with-next
   \   __??Code32?? __code __interwork __atpcs double pow(double, int)
   \                     ??pow:
   \   00000000   F0432DE9           PUSH     {R4-R9,LR}
   \   00000004   0040A0E1           MOV      R4,R0
   \   00000008   0150A0E1           MOV      R5,R1
   \   0000000C   0260A0E1           MOV      R6,R2
   \   00000010   0670B0E1           MOVS     R7,R6
   \   00000014   00706742           RSBMI    R7,R7,#+0
   \   00000018   0080A0E3           MOV      R8,#+0
   \   0000001C   C095A0E3           MOV      R9,#+805306368
   \   00000020   FF9689E3           ORR      R9,R9,#0xFF00000
   \   00000024   060000EA           B        ??pow_1
   \                     ??pow_2:
   \   00000028   0420A0E1           MOV      R2,R4
   \   0000002C   0530A0E1           MOV      R3,R5
   \   00000030   0400A0E1           MOV      R0,R4
   \   00000034   0510A0E1           MOV      R1,R5
   \   00000038   ........           _BLF     __dMul,??__dMul??rA
   \   0000003C   0040A0E1           MOV      R4,R0
   \   00000040   0150A0E1           MOV      R5,R1
   \                     ??pow_1:
   \   00000044   010017E3           TST      R7,#0x1
   \   00000048   0600000A           BEQ      ??pow_3
   \   0000004C   0420A0E1           MOV      R2,R4
   \   00000050   0530A0E1           MOV      R3,R5
   \   00000054   0800A0E1           MOV      R0,R8
   \   00000058   0910A0E1           MOV      R1,R9
   \   0000005C   ........           _BLF     __dMul,??__dMul??rA
   \   00000060   0080A0E1           MOV      R8,R0
   \   00000064   0190A0E1           MOV      R9,R1
   \                     ??pow_3:
   \   00000068   A770B0E1           LSRS     R7,R7,#+1
   \   0000006C   EDFFFF1A           BNE      ??pow_2
   \   00000070   000056E3           CMP      R6,#+0
   \   00000074   0700005A           BPL      ??pow_4
   \   00000078   0000A0E3           MOV      R0,#+0
   \   0000007C   C015A0E3           MOV      R1,#+805306368
   \   00000080   FF1681E3           ORR      R1,R1,#0xFF00000
   \   00000084   0820A0E1           MOV      R2,R8
   \   00000088   0930A0E1           MOV      R3,R9
   \   0000008C   ........           _BLF     __dDiv,??__dDiv??rA
   \   00000090   0080A0E1           MOV      R8,R0
   \   00000094   0190A0E1           MOV      R9,R1
   \                     ??pow_4:
   \   00000098   0800A0E1           MOV      R0,R8
   \   0000009C   0910A0E1           MOV      R1,R9
   \   000000A0   F043BDE8           POP      {R4-R9,LR}
   \   000000A4   1EFF2FE1           BX       LR               ;; return
      2          #pragma hdrstop
      3          /*
      4          *
      5          *   Copyright 1996-2012 Scanjet Ariston
      6          *
      7          */
      8          
      9          #ifdef ANTDUSIM
     10              #pragma warning( disable : 4244 4305)
     11          #endif
     12          
     13          
     14          

   \                                 In segment CODE, align 4, keep-with-next
     15          double APIRound(double Number, int Decimals)
     16          {
   \                     ??APIRound:
   \   00000000   F0402DE9           PUSH     {R4-R7,LR}
   \   00000004   0060A0E1           MOV      R6,R0
   \   00000008   0170A0E1           MOV      R7,R1
     17              double Factor = pow(10.0,Decimals);
   \   0000000C   0000A0E3           MOV      R0,#+0
   \   00000010   4014A0E3           MOV      R1,#+1073741824
   \   00000014   901981E3           ORR      R1,R1,#0x240000
   \   00000018   ........           _BLF     ??pow,??pow??rA
   \   0000001C   0040A0E1           MOV      R4,R0
   \   00000020   0150A0E1           MOV      R5,R1
     18              Number *= Factor;
   \   00000024   0420A0E1           MOV      R2,R4
   \   00000028   0530A0E1           MOV      R3,R5
   \   0000002C   0600A0E1           MOV      R0,R6
   \   00000030   0710A0E1           MOV      R1,R7
   \   00000034   ........           _BLF     __dMul,??__dMul??rA
   \   00000038   0060A0E1           MOV      R6,R0
   \   0000003C   0170A0E1           MOV      R7,R1
     19              if ( Number > 0.0 ) {
   \   00000040   0120A0E3           MOV      R2,#+1
   \   00000044   0030A0E3           MOV      R3,#+0
   \   00000048   ........           _BLF     __dGreaterEqual,??__dGreaterEqual??rA
   \   0000004C   000050E3           CMP      R0,#+0
   \   00000050   28009FE5           LDR      R0,??APIRound_1  ;; 0xfffffffff8b588e3
     20                  Number = int(Number+0.50001);
   \   00000054   28109F15           LDRNE    R1,??APIRound_1+0x4  ;; 0x3fe00014
     21              } else {
     22                  Number = int(Number-0.50001);
   \   00000058   0620A0E1           MOV      R2,R6
   \   0000005C   24109F05           LDREQ    R1,??APIRound_1+0x8  ;; 0xffffffffbfe00014
   \   00000060   0730A0E1           MOV      R3,R7
   \   00000064   ........           _BLF     __dAdd,??__dAdd??rA
   \   00000068   ........           _BLF     __doubleToLong,??__doubleToLong??rA
   \   0000006C   ........           _BLF     __longToDouble,??__longToDouble??rA
     23              }
     24              Number /= Factor;
     25          
     26              return Number;
   \   00000070   0420A0E1           MOV      R2,R4
   \   00000074   0530A0E1           MOV      R3,R5
   \   00000078   ........           _BLF     __dDiv,??__dDiv??rA
   \   0000007C   ........           B        ?Subroutine33
   \                     ??APIRound_1:
   \   00000080   E388B5F8           DC32     0xfffffffff8b588e3
   \   00000084   1400E03F           DC32     0x3fe00014
   \   00000088   1400E0BF           DC32     0xffffffffbfe00014
     27          }

   \                                 In segment CODE, align 4, keep-with-next
   \                     ?Subroutine33:
   \   00000000   F040BDE8           POP      {R4-R7,LR}
   \   00000004   1EFF2FE1           BX       LR               ;; return
   \                     ??Subroutine33_0:
   \   00000008   8E79553E           DC32     0x3e55798e
   \   0000000C   7B8505F7           DC32     0xfffffffff705857b
   \   00000010   031EF83E           DC32     0x3ef81e03
     28          

   \                                 In segment CODE, align 4, keep-with-next
     29          double APIRound5(double Number, int Decimals)
     30          {
   \                     ??APIRound5:
   \   00000000   F3412DE9           PUSH     {R0,R1,R4-R8,LR}
   \   00000004   0060A0E1           MOV      R6,R0
   \   00000008   0170A0E1           MOV      R7,R1
     31              double Factor = pow(10.0,Decimals-1);
   \   0000000C   012042E2           SUB      R2,R2,#+1
   \   00000010   0000A0E3           MOV      R0,#+0
   \   00000014   4014A0E3           MOV      R1,#+1073741824
   \   00000018   901981E3           ORR      R1,R1,#0x240000
   \   0000001C   ........           _BLF     ??pow,??pow??rA
   \   00000020   0040A0E1           MOV      R4,R0
   \   00000024   0150A0E1           MOV      R5,R1
     32              double Num;
     33              double Reminder = modf( Number*Factor, &Num );
   \   00000028   0D20A0E1           MOV      R2,SP
   \   0000002C   0280A0E1           MOV      R8,R2
   \   00000030   0420A0E1           MOV      R2,R4
   \   00000034   0530A0E1           MOV      R3,R5
   \   00000038   0600A0E1           MOV      R0,R6
   \   0000003C   0710A0E1           MOV      R1,R7
   \   00000040   ........           _BLF     __dMul,??__dMul??rA
   \   00000044   0820A0E1           MOV      R2,R8
   \   00000048   ........           _BLF     modf,??modf??rA
   \   0000004C   0060A0E1           MOV      R6,R0
   \   00000050   0170A0E1           MOV      R7,R1
     34              if ( Num > 0.0 ) {
   \   00000054   0D00A0E1           MOV      R0,SP
   \   00000058   030090E8           LDM      R0,{R0,R1}
   \   0000005C   0120A0E3           MOV      R2,#+1
   \   00000060   0030A0E3           MOV      R3,#+0
   \   00000064   ........           _BLF     __dGreaterEqual,??__dGreaterEqual??rA
   \   00000068   000050E3           CMP      R0,#+0
   \   0000006C   1C00000A           BEQ      ??APIRound5_1
     35                  if ( Reminder >= 0.75 ) {
   \   00000070   0600A0E1           MOV      R0,R6
   \   00000074   0710A0E1           MOV      R1,R7
   \   00000078   0020A0E3           MOV      R2,#+0
   \   0000007C   F035A0E3           MOV      R3,#+1006632960
   \   00000080   FA3783E3           ORR      R3,R3,#0x3E80000
   \   00000084   ........           _BLF     __dGreaterEqual,??__dGreaterEqual??rA
   \   00000088   000050E3           CMP      R0,#+0
   \   0000008C   0600000A           BEQ      ??APIRound5_2
     36                      Num += 1.0;
   \   00000090   0D80A0E1           MOV      R8,SP
   \   00000094   0D00A0E1           MOV      R0,SP
   \   00000098   0C0090E8           LDM      R0,{R2,R3}
   \   0000009C   0000A0E3           MOV      R0,#+0
   \   000000A0   C015A0E3           MOV      R1,#+805306368
   \                     ??APIRound5_3:
   \   000000A4   FF1681E3           ORR      R1,R1,#0xFF00000
   \   000000A8   2F0000EA           B        ??APIRound5_4
     37                  } else if ( Reminder >= 0.25 ) {
   \                     ??APIRound5_2:
   \   000000AC   0600A0E1           MOV      R0,R6
   \   000000B0   0710A0E1           MOV      R1,R7
   \   000000B4   0020A0E3           MOV      R2,#+0
   \   000000B8   C035A0E3           MOV      R3,#+805306368
   \   000000BC   FD3683E3           ORR      R3,R3,#0xFD00000
   \   000000C0   ........           _BLF     __dGreaterEqual,??__dGreaterEqual??rA
   \   000000C4   000050E3           CMP      R0,#+0
   \   000000C8   2900000A           BEQ      ??APIRound5_5
     38                      Num += 0.5;
   \   000000CC   0D80A0E1           MOV      R8,SP
   \   000000D0   0D00A0E1           MOV      R0,SP
   \   000000D4   0C0090E8           LDM      R0,{R2,R3}
   \   000000D8   0000A0E3           MOV      R0,#+0
   \   000000DC   C015A0E3           MOV      R1,#+805306368
   \   000000E0   200000EA           B        ??APIRound5_6
     39                  }
     40              } else if ( Reminder ) {
   \                     ??APIRound5_1:
   \   000000E4   0010A0E3           MOV      R1,#+0
   \   000000E8   0620A0E1           MOV      R2,R6
   \   000000EC   0730A0E1           MOV      R3,R7
   \   000000F0   ........           _BLF     __dNotEqual,??__dNotEqual??rA
   \   000000F4   000050E3           CMP      R0,#+0
   \   000000F8   1D00000A           BEQ      ??APIRound5_5
     41                  if ( Reminder <= -0.75 ) {
   \   000000FC   0600A0E1           MOV      R0,R6
   \   00000100   0710A0E1           MOV      R1,R7
   \   00000104   0020E0E3           MVN      R2,#+0
   \   00000108   4034E0E3           MVN      R3,#+1073741824
   \   0000010C   6039C3E3           BIC      R3,R3,#0x180000
   \   00000110   ........           _BLF     __dLess,??__dLess??rA
   \   00000114   000050E3           CMP      R0,#+0
   \   00000118   0500000A           BEQ      ??APIRound5_7
     42                      Num -= 1.0;
   \   0000011C   0D80A0E1           MOV      R8,SP
   \   00000120   0D00A0E1           MOV      R0,SP
   \   00000124   0C0090E8           LDM      R0,{R2,R3}
   \   00000128   0000A0E3           MOV      R0,#+0
   \   0000012C   B014A0E3           MOV      R1,#-1342177280
   \   00000130   DBFFFFEA           B        ??APIRound5_3
     43                  } else if ( Reminder <= -0.25 ) {
   \                     ??APIRound5_7:
   \   00000134   0600A0E1           MOV      R0,R6
   \   00000138   0710A0E1           MOV      R1,R7
   \   0000013C   0120E0E3           MVN      R2,#+1
   \   00000140   4034E0E3           MVN      R3,#+1073741824
   \   00000144   C039C3E3           BIC      R3,R3,#0x300000
   \   00000148   ........           _BLF     __dLess,??__dLess??rA
   \   0000014C   000050E3           CMP      R0,#+0
   \   00000150   0700000A           BEQ      ??APIRound5_5
     44                      Num -= 0.5;
   \   00000154   0D80A0E1           MOV      R8,SP
   \   00000158   0D00A0E1           MOV      R0,SP
   \   0000015C   0C0090E8           LDM      R0,{R2,R3}
   \   00000160   0000A0E3           MOV      R0,#+0
   \   00000164   B014A0E3           MOV      R1,#-1342177280
   \                     ??APIRound5_6:
   \   00000168   FE1681E3           ORR      R1,R1,#0xFE00000
   \                     ??APIRound5_4:
   \   0000016C   ........           _BLF     __dAdd,??__dAdd??rA
   \   00000170   030088E8           STM      R8,{R0,R1}
     45                  }
     46              }
     47              Number = Num/Factor;
     48          
     49              return Number;
   \                     ??APIRound5_5:
   \   00000174   0D00A0E1           MOV      R0,SP
   \   00000178   030090E8           LDM      R0,{R0,R1}
   \   0000017C   0420A0E1           MOV      R2,R4
   \   00000180   0530A0E1           MOV      R3,R5
   \   00000184   ........           _BLF     __dDiv,??__dDiv??rA
   \   00000188   FC41BDE8           POP      {R2-R8,LR}
   \   0000018C   1EFF2FE1           BX       LR               ;; return
     50          }
     51          

   \                                 In segment CODE, align 4, keep-with-next
     52          double APITruncate(double Number, int Decimals)
     53          {
   \                     ??APITruncate:
   \   00000000   F0432DE9           PUSH     {R4-R9,LR}
   \   00000004   0060A0E1           MOV      R6,R0
   \   00000008   0170A0E1           MOV      R7,R1
     54              Decimals--;
   \   0000000C   018042E2           SUB      R8,R2,#+1
     55              double Factor = 1;
   \   00000010   0040A0E3           MOV      R4,#+0
   \   00000014   C055A0E3           MOV      R5,#+805306368
   \   00000018   FF5685E3           ORR      R5,R5,#0xFF00000
     56              for ( int i=0; i <= Decimals; i++ ) {
   \   0000001C   0090A0E3           MOV      R9,#+0
   \   00000020   080000EA           B        ??APITruncate_1
     57                  Factor *= 10.0;
   \                     ??APITruncate_2:
   \   00000024   0000A0E3           MOV      R0,#+0
   \   00000028   4014A0E3           MOV      R1,#+1073741824
   \   0000002C   901981E3           ORR      R1,R1,#0x240000
   \   00000030   0420A0E1           MOV      R2,R4
   \   00000034   0530A0E1           MOV      R3,R5
   \   00000038   ........           _BLF     __dMul,??__dMul??rA
   \   0000003C   0040A0E1           MOV      R4,R0
   \   00000040   0150A0E1           MOV      R5,R1
     58              }
   \   00000044   019089E2           ADD      R9,R9,#+1
   \                     ??APITruncate_1:
   \   00000048   090058E1           CMP      R8,R9
   \   0000004C   F4FFFFAA           BGE      ??APITruncate_2
     59              Number *= Factor;
   \   00000050   0420A0E1           MOV      R2,R4
   \   00000054   0530A0E1           MOV      R3,R5
   \   00000058   0600A0E1           MOV      R0,R6
   \   0000005C   0710A0E1           MOV      R1,R7
   \   00000060   ........           _BLF     __dMul,??__dMul??rA
   \   00000064   0060A0E1           MOV      R6,R0
   \   00000068   0170A0E1           MOV      R7,R1
     60              if ( Number >= 0.0 ) {
   \   0000006C   0020A0E3           MOV      R2,#+0
   \   00000070   0030A0E3           MOV      R3,#+0
   \   00000074   ........           _BLF     __dGreaterEqual,??__dGreaterEqual??rA
   \   00000078   000050E3           CMP      R0,#+0
   \   0000007C   28009FE5           LDR      R0,??APITruncate_3  ;; 0xffffffffeb1c432d
     61                  Number = int(Number+0.0001);
   \   00000080   28109F15           LDRNE    R1,??APITruncate_3+0x4  ;; 0x3f1a36e2
     62              } else {
     63                  Number = int(Number-0.0001);
   \   00000084   0620A0E1           MOV      R2,R6
   \   00000088   24109F05           LDREQ    R1,??APITruncate_3+0x8  ;; 0xffffffffbf1a36e2
   \   0000008C   0730A0E1           MOV      R3,R7
   \   00000090   ........           _BLF     __dAdd,??__dAdd??rA
   \   00000094   ........           _BLF     __doubleToLong,??__doubleToLong??rA
   \   00000098   ........           _BLF     __longToDouble,??__longToDouble??rA
     64              }
     65              Number /= Factor;
     66          
     67              return Number;
   \   0000009C   0420A0E1           MOV      R2,R4
   \   000000A0   0530A0E1           MOV      R3,R5
   \   000000A4   ........           _BLF     __dDiv,??__dDiv??rA
   \   000000A8   ........           B        ?Subroutine34
   \                     ??APITruncate_3:
   \   000000AC   2D431CEB           DC32     0xffffffffeb1c432d
   \   000000B0   E2361A3F           DC32     0x3f1a36e2
   \   000000B4   E2361ABF           DC32     0xffffffffbf1a36e2
     68          }

   \                                 In segment CODE, align 4, keep-with-next
   \                     ?Subroutine34:
   \   00000000   F043BDE8           POP      {R4-R9,LR}
   \   00000004   1EFF2FE1           BX       LR               ;; return
     69          
     70          //////////////////////////////////////////////////////////////////
     71          //
     72          // NOTICE:
     73          // The densities are by default in vacuum.
     74          //
     75          // Constants are from API Chapter 11.1 Methods
     76          //
     77          //////////////////////////////////////////////////////////////////
     78          

   \                                 In segment CODE, align 4, keep-with-next
     79          float HydrometerCorrection(float dT)
     80          {
   \                     ??HydrometerCorrection:
   \   00000000   F0402DE9           PUSH     {R4-R7,LR}
     81              return(1.00 - 0.000023*dT - 0.00000002*dT*dT);
   \   00000004   ........           _BLF     __floatToDouble,??__floatToDouble??rA
   \   00000008   0040A0E1           MOV      R4,R0
   \   0000000C   ........           LDR      R0,??DataTable0  ;; 0xffffffffe2308c3a
   \   00000010   0150A0E1           MOV      R5,R1
   \   00000014   ........           LDR      R1,??Subroutine33_0  ;; 0x3e55798e
   \   00000018   0420A0E1           MOV      R2,R4
   \   0000001C   0530A0E1           MOV      R3,R5
   \   00000020   ........           _BLF     __dMul,??__dMul??rA
   \   00000024   0420A0E1           MOV      R2,R4
   \   00000028   0530A0E1           MOV      R3,R5
   \   0000002C   ........           _BLF     __dMul,??__dMul??rA
   \   00000030   0060A0E1           MOV      R6,R0
   \   00000034   ........           LDR      R0,??Subroutine33_0+0x4  ;; 0xfffffffff705857b
   \   00000038   0170A0E1           MOV      R7,R1
   \   0000003C   ........           LDR      R1,??Subroutine33_0+0x8  ;; 0x3ef81e03
   \   00000040   0420A0E1           MOV      R2,R4
   \   00000044   0530A0E1           MOV      R3,R5
   \   00000048   ........           _BLF     __dMul,??__dMul??rA
   \   0000004C   0020A0E1           MOV      R2,R0
   \   00000050   0130A0E1           MOV      R3,R1
   \   00000054   0000A0E3           MOV      R0,#+0
   \   00000058   C015A0E3           MOV      R1,#+805306368
   \   0000005C   FF1681E3           ORR      R1,R1,#0xFF00000
   \   00000060   ........           _BLF     __dSub,??__dSub??rA
   \   00000064   0620A0E1           MOV      R2,R6
   \   00000068   0730A0E1           MOV      R3,R7
   \   0000006C   ........           _BLF     __dSub,??__dSub??rA
   \   00000070   ........           _BLF     __doubleToFloat,??__doubleToFloat??rA
   \   00000074                      REQUIRE ?Subroutine33
   \   00000074                      ;; // Fall through to label ?Subroutine33
     82          }
     83          

   \                                 In segment CODE, align 4, keep-with-next
     84          float DnsInVac_to_DnsInAir(float Density)
     85          {
   \                     ??DnsInVac_to_DnsInAir:
   \   00000000   00402DE9           PUSH     {LR}
     86              return(Density - D_AIR_ADJ);
   \   00000004   ........           _BLF     __floatToDouble,??__floatToDouble??rA
   \   00000008   ........           LDR      R2,??DataTable2  ;; 0x1a36e2f
   \   0000000C   00309FE5           LDR      R3,??DnsInVac_to_DnsInAir_1  ;; 0xffffffffbf5205bc
   \   00000010   ........           B        ?Subroutine31
   \                     ??DnsInVac_to_DnsInAir_1:
   \   00000014   BC0552BF           DC32     0xffffffffbf5205bc
     87          }

   \                                 In segment CODE, align 4, keep-with-next
   \                     ?Subroutine31:
   \   00000000   ........           _BLF     __dAdd,??__dAdd??rA
   \                     ??Subroutine31_0:
   \   00000004   ........           _BLF     __doubleToFloat,??__doubleToFloat??rA
   \   00000008   0040BDE8           POP      {LR}
   \   0000000C   1EFF2FE1           BX       LR               ;; return
   \                     ??Subroutine31_1:
   \   00000010   BC05523F           DC32     0x3f5205bc
     88          

   \                                 In segment CODE, align 4, keep-with-next
     89          float DnsInAir_to_DnsInVac(float DnsVac)
     90          {
   \                     ??DnsInAir_to_DnsInVac:
   \   00000000   00402DE9           PUSH     {LR}
     91              return(DnsVac + D_AIR_ADJ);
   \   00000004   ........           _BLF     __floatToDouble,??__floatToDouble??rA
   \   00000008   ........           LDR      R2,??DataTable2  ;; 0x1a36e2f
   \   0000000C   ........           LDR      R3,??Subroutine31_1  ;; 0x3f5205bc
   \   00000010                      REQUIRE ?Subroutine31
   \   00000010                      ;; // Fall through to label ?Subroutine31
     92          }
     93          
     94          ///////////////////////////////////////////////////////////////////
     95          //
     96          // Methodes and constants from API Vol X, page 1
     97          //
     98          ///////////////////////////////////////////////////////////////////
     99          
    100          

   \                                 In segment CODE, align 4, keep-with-next
    101          double CalcAlpha(double a, double b, double Dns)
    102          {
   \                     ??CalcAlpha:
   \   00000000   F0432DE9           PUSH     {R4-R9,LR}
   \   00000004   0080A0E1           MOV      R8,R0
   \   00000008   1C008DE2           ADD      R0,SP,#+28
   \   0000000C   C00090E8           LDM      R0,{R6,R7}
   \   00000010   0190A0E1           MOV      R9,R1
   \   00000014   0240A0E1           MOV      R4,R2
   \   00000018   0350A0E1           MOV      R5,R3
    103              if ( !Dns ) Dns=1.0;
   \   0000001C   0000A0E3           MOV      R0,#+0
   \   00000020   0010A0E3           MOV      R1,#+0
   \   00000024   0620A0E1           MOV      R2,R6
   \   00000028   0730A0E1           MOV      R3,R7
   \   0000002C   ........           _BLF     __dNotEqual,??__dNotEqual??rA
   \   00000030   000050E3           CMP      R0,#+0
   \   00000034   0060A003           MOVEQ    R6,#+0
   \   00000038   C075A003           MOVEQ    R7,#+805306368
   \   0000003C   FF768703           ORREQ    R7,R7,#0xFF00000
    104              return(a/(Dns*Dns) + b/Dns);
   \   00000040   0400A0E1           MOV      R0,R4
   \   00000044   0510A0E1           MOV      R1,R5
   \   00000048   0620A0E1           MOV      R2,R6
   \   0000004C   0730A0E1           MOV      R3,R7
   \   00000050   ........           _BLF     __dDiv,??__dDiv??rA
   \   00000054   0040A0E1           MOV      R4,R0
   \   00000058   0150A0E1           MOV      R5,R1
   \   0000005C   0620A0E1           MOV      R2,R6
   \   00000060   0730A0E1           MOV      R3,R7
   \   00000064   0600A0E1           MOV      R0,R6
   \   00000068   0710A0E1           MOV      R1,R7
   \   0000006C   ........           _BLF     __dMul,??__dMul??rA
   \   00000070   0020A0E1           MOV      R2,R0
   \   00000074   0130A0E1           MOV      R3,R1
   \   00000078   0800A0E1           MOV      R0,R8
   \   0000007C   0910A0E1           MOV      R1,R9
   \   00000080   ........           _BLF     __dDiv,??__dDiv??rA
   \   00000084   0420A0E1           MOV      R2,R4
   \   00000088   0530A0E1           MOV      R3,R5
   \   0000008C   ........           _BLF     __dAdd,??__dAdd??rA
   \   00000090                      REQUIRE ?Subroutine34
   \   00000090                      ;; // Fall through to label ?Subroutine34
    105          }
    106          

   \                                 In segment CODE, align 4, keep-with-next
    107          double CalcAlpha15(double K0, double K1, double Dns15)
    108          {
   \                     ??CalcAlpha15:
   \   00000000   F0472DE9           PUSH     {R4-R10,LR}
   \   00000004   0060A0E1           MOV      R6,R0
   \   00000008   20008DE2           ADD      R0,SP,#+32
   \   0000000C   300090E8           LDM      R0,{R4,R5}
   \   00000010   0170A0E1           MOV      R7,R1
   \   00000014   0280A0E1           MOV      R8,R2
   \   00000018   0390A0E1           MOV      R9,R3
    109              if ( !Dns15 ) Dns15=1.0;
   \   0000001C   0000A0E3           MOV      R0,#+0
   \   00000020   0010A0E3           MOV      R1,#+0
   \   00000024   0420A0E1           MOV      R2,R4
   \   00000028   0530A0E1           MOV      R3,R5
   \   0000002C   ........           _BLF     __dNotEqual,??__dNotEqual??rA
   \   00000030   000050E3           CMP      R0,#+0
   \   00000034   0040A003           MOVEQ    R4,#+0
   \   00000038   C055A003           MOVEQ    R5,#+805306368
   \   0000003C   FF568503           ORREQ    R5,R5,#0xFF00000
    110              double Term1 = APITruncate(K0/Dns15,8);
   \   00000040   0600A0E1           MOV      R0,R6
   \   00000044   0710A0E1           MOV      R1,R7
   \   00000048   0420A0E1           MOV      R2,R4
   \   0000004C   0530A0E1           MOV      R3,R5
   \   00000050   ........           _BLF     __dDiv,??__dDiv??rA
   \   00000054   0820A0E3           MOV      R2,#+8
   \   00000058   ........           BL       ??APITruncate
    111              double Term2 = APITruncate(Term1 / Dns15,10);
   \   0000005C   0AA0A0E3           MOV      R10,#+10
   \   00000060   0420A0E1           MOV      R2,R4
   \   00000064   0530A0E1           MOV      R3,R5
   \   00000068   ........           _BLF     __dDiv,??__dDiv??rA
   \   0000006C   0A20A0E1           MOV      R2,R10
   \   00000070   ........           BL       ??APITruncate
   \   00000074   0060A0E1           MOV      R6,R0
   \   00000078   0170A0E1           MOV      R7,R1
    112              double Term3 = APITruncate(K1/Dns15,10);
   \   0000007C   0800A0E1           MOV      R0,R8
   \   00000080   0910A0E1           MOV      R1,R9
   \   00000084   0420A0E1           MOV      R2,R4
   \   00000088   0530A0E1           MOV      R3,R5
   \   0000008C   ........           _BLF     __dDiv,??__dDiv??rA
   \   00000090   0A20A0E1           MOV      R2,R10
   \   00000094   ........           BL       ??APITruncate
    113              double Alpha = APIRound(Term2 + Term3,7);
    114              return Alpha;
   \   00000098   0720A0E3           MOV      R2,#+7
   \   0000009C   02A0A0E1           MOV      R10,R2
   \   000000A0   0620A0E1           MOV      R2,R6
   \   000000A4   0730A0E1           MOV      R3,R7
   \   000000A8   ........           _BLF     __dAdd,??__dAdd??rA
   \   000000AC   0A20A0E1           MOV      R2,R10
   \   000000B0   ........           B        ?Subroutine32
    115          }

   \                                 In segment CODE, align 4, keep-with-next
   \                     ?Subroutine32:
   \   00000000   ........           BL       ??APIRound
   \   00000004   F047BDE8           POP      {R4-R10,LR}
   \   00000008   1EFF2FE1           BX       LR               ;; return
    116          

   \                                 In segment CODE, align 4, keep-with-next
    117          double API_vcf15(double Alpha, double dT)
    118          {
   \                     ??API_vcf15:
   \   00000000   70402DE9           PUSH     {R4-R6,LR}
    119              double Term1 = APITruncate(Alpha*dT,9);
   \   00000004   ........           _BLF     __dMul,??__dMul??rA
   \   00000008   0920A0E3           MOV      R2,#+9
   \   0000000C   ........           BL       ??APITruncate
   \   00000010   0040A0E1           MOV      R4,R0
    120              double Term2 = APITruncate(0.8*Term1,9);
   \   00000014   ........           LDR      R0,??DataTable5  ;; 0xffffffff9999999a
   \   00000018   0150A0E1           MOV      R5,R1
   \   0000001C   ........           LDR      R1,??DataTable6  ;; 0x3fe99999
   \   00000020   0960A0E3           MOV      R6,#+9
   \   00000024   0420A0E1           MOV      R2,R4
   \   00000028   0530A0E1           MOV      R3,R5
   \   0000002C   ........           _BLF     __dMul,??__dMul??rA
   \   00000030   0620A0E1           MOV      R2,R6
   \   00000034   ........           BL       ??APITruncate
    121              float  Term3 = APIRound(Term1*Term2,9);
   \   00000038   0420A0E1           MOV      R2,R4
   \   0000003C   0530A0E1           MOV      R3,R5
   \   00000040   ........           _BLF     __dMul,??__dMul??rA
   \   00000044   0620A0E1           MOV      R2,R6
   \   00000048   ........           BL       ??APIRound
   \   0000004C   ........           _BLF     __doubleToFloat,??__doubleToFloat??rA
    122              double Term4 = APITruncate(-Term1 - Term3,8);
   \   00000050   0820A0E3           MOV      R2,#+8
   \   00000054   0260A0E1           MOV      R6,R2
   \   00000058   805425E2           EOR      R5,R5,#0x80000000
   \   0000005C   ........           _BLF     __floatToDouble,??__floatToDouble??rA
   \   00000060   0020A0E1           MOV      R2,R0
   \   00000064   0130A0E1           MOV      R3,R1
   \   00000068   0400A0E1           MOV      R0,R4
   \   0000006C   0510A0E1           MOV      R1,R5
   \   00000070   ........           _BLF     __dSub,??__dSub??rA
   \   00000074   0620A0E1           MOV      R2,R6
   \   00000078   ........           BL       ??APITruncate
    123              double VCF   = APIRound(exp(Term4),6);
    124              return VCF;
   \   0000007C   ........           _BLF     exp,??exp??rA
   \   00000080   0620A0E3           MOV      R2,#+6
   \   00000084   ........           BL       ??APIRound
   \   00000088   ........           B        ?Subroutine35
    125          }

   \                                 In segment CODE, align 4, keep-with-next
   \                     ?Subroutine35:
   \   00000000   7040BDE8           POP      {R4-R6,LR}
   \   00000004   1EFF2FE1           BX       LR               ;; return
   \                     ??Subroutine35_0:
   \   00000008   007060C0           DC32     0xffffffffc0607000
    126          
    127          

   \                                 In segment CODE, align 4, keep-with-next
    128          double API_vcf20(double Alpha, double dT)
    129          {
   \                     ??API_vcf20:
   \   00000000   F0472DE9           PUSH     {R4-R10,LR}
   \   00000004   0060A0E1           MOV      R6,R0
   \   00000008   0170A0E1           MOV      R7,R1
   \   0000000C   0200A0E1           MOV      R0,R2
   \   00000010   0310A0E1           MOV      R1,R3
    130              double Term1 = APITruncate(Alpha*dT,9);
   \   00000014   09A0A0E3           MOV      R10,#+9
   \   00000018   0620A0E1           MOV      R2,R6
   \   0000001C   0730A0E1           MOV      R3,R7
   \   00000020   ........           _BLF     __dMul,??__dMul??rA
   \   00000024   0920A0E3           MOV      R2,#+9
   \   00000028   ........           BL       ??APITruncate
   \   0000002C   0040A0E1           MOV      R4,R0
   \   00000030   0150A0E1           MOV      R5,R1
    131              double Term2 = APITruncate(Alpha*Term1,9);
   \   00000034   0420A0E1           MOV      R2,R4
   \   00000038   0530A0E1           MOV      R3,R5
   \   0000003C   0600A0E1           MOV      R0,R6
   \   00000040   0710A0E1           MOV      R1,R7
   \   00000044   ........           _BLF     __dMul,??__dMul??rA
   \   00000048   0A20A0E1           MOV      R2,R10
   \   0000004C   ........           BL       ??APITruncate
    132              double Term3 = APIRound(8*Term2,9);
   \   00000050   0020A0E3           MOV      R2,#+0
   \   00000054   4034A0E3           MOV      R3,#+1073741824
   \   00000058   803983E3           ORR      R3,R3,#0x200000
   \   0000005C   ........           _BLF     __dMul,??__dMul??rA
   \   00000060   0A20A0E1           MOV      R2,R10
   \   00000064   ........           BL       ??APIRound
   \   00000068   0080A0E1           MOV      R8,R0
    133              double Term4 = APITruncate(0.8*Term1,9);
   \   0000006C   ........           LDR      R0,??DataTable5  ;; 0xffffffff9999999a
   \   00000070   0190A0E1           MOV      R9,R1
   \   00000074   ........           LDR      R1,??DataTable6  ;; 0x3fe99999
   \   00000078   0420A0E1           MOV      R2,R4
   \   0000007C   0530A0E1           MOV      R3,R5
   \   00000080   ........           _BLF     __dMul,??__dMul??rA
   \   00000084   0A20A0E1           MOV      R2,R10
   \   00000088   ........           BL       ??APITruncate
    134              double Term5 = APIRound(Term1*Term4,9);
   \   0000008C   0420A0E1           MOV      R2,R4
   \   00000090   0530A0E1           MOV      R3,R5
   \   00000094   ........           _BLF     __dMul,??__dMul??rA
   \   00000098   0A20A0E1           MOV      R2,R10
   \   0000009C   ........           BL       ??APIRound
   \   000000A0   0060A0E1           MOV      R6,R0
   \   000000A4   0170A0E1           MOV      R7,R1
    135              double Term6 = APITruncate(-Term1 - Term3 - Term5,8);
   \   000000A8   0820A0E3           MOV      R2,#+8
   \   000000AC   02A0A0E1           MOV      R10,R2
   \   000000B0   0400A0E1           MOV      R0,R4
   \   000000B4   801425E2           EOR      R1,R5,#0x80000000
   \   000000B8   0820A0E1           MOV      R2,R8
   \   000000BC   0930A0E1           MOV      R3,R9
   \   000000C0   ........           _BLF     __dSub,??__dSub??rA
   \   000000C4   0620A0E1           MOV      R2,R6
   \   000000C8   0730A0E1           MOV      R3,R7
   \   000000CC   ........           _BLF     __dSub,??__dSub??rA
   \   000000D0   0A20A0E1           MOV      R2,R10
   \   000000D4   ........           BL       ??APITruncate
    136              double VCF   = exp(Term6);
   \   000000D8   ........           _BLF     exp,??exp??rA
    137              VCF = APIRound(VCF,6);
    138              return VCF;
   \   000000DC   0620A0E3           MOV      R2,#+6
   \   000000E0                      REQUIRE ?Subroutine32
   \   000000E0                      ;; // Fall through to label ?Subroutine32
    139          }
    140          
    141          
    142          
    143          ////////////////////////////////////////////////////////////
    144          //
    145          // Based on API 54A. Works direCtly for 6A as well
    146          //
    147          ////////////////////////////////////////////////////////////
    148          
    149          
    150          
    151          

   \                                 In segment CODE, align 4, keep-with-next
    152          double Vcf_6_and_54A_Calc(double RefDns, double dT, int *CurveNo, bool FixedCurveNo)
    153          {
   \                     ??Vcf_6_and_54A_Calc:
   \   00000000   30402DE9           PUSH     {R4,R5,LR}
   \   00000004   0240A0E1           MOV      R4,R2
   \   00000008   0C209DE5           LDR      R2,[SP, #+12]
   \   0000000C   0350A0E1           MOV      R5,R3
    154              RefDns*= 1000.0;
    155              if ( CurveNo ) {
   \   00000010   000052E3           CMP      R2,#+0
    156                  *CurveNo = 1;
   \   00000014   0130A013           MOVNE    R3,#+1
   \   00000018   00308215           STRNE    R3,[R2, #+0]
    157              }
    158              return(API_vcf15(CalcAlpha15(613.9723,0.0,RefDns),dT));
   \   0000001C   ........           LDR      R3,??DataTable58  ;; 0x408f4000
   \   00000020   0020A013           MOVNE    R2,#+0
   \   00000024   ........           _BLF     __dMul,??__dMul??rA
   \   00000028   03002DE9           PUSH     {R0,R1}
   \   0000002C   ........           LDR      R0,??DataTable35  ;; 0x4538ef35
   \   00000030   ........           LDR      R1,??DataTable36  ;; 0x40832fc7
   \   00000034   0020A0E3           MOV      R2,#+0
   \   00000038   0030A0E3           MOV      R3,#+0
   \   0000003C   ........           B        ?Subroutine30
    159          }

   \                                 In segment CODE, align 4, keep-with-next
   \                     ?Subroutine30:
   \   00000000   ........           BL       ??CalcAlpha15
   \   00000004   0420A0E1           MOV      R2,R4
   \   00000008   0530A0E1           MOV      R3,R5
   \   0000000C   ........           BL       ??API_vcf15
   \                     ??Subroutine30_0:
   \   00000010   3C40BDE8           POP      {R2-R5,LR}
   \   00000014   1EFF2FE1           BX       LR               ;; return
    160          
    161          ////////////////////////////////////////////////////////////
    162          //
    163          // Based on API 54B. Works direCtly for 6B as well
    164          //
    165          ////////////////////////////////////////////////////////////
    166          

   \                                 In segment CODE, align 4, keep-with-next
    167          double Vcf_6_and_54B_Calc(double RefDns, double dT, int *CurveNo, bool FixedCurveNo)
    168          {
   \                     ??Vcf_6_and_54B_Calc:
   \   00000000   FC472DE9           PUSH     {R2-R10,LR}
    169              double Alpha15;
    170              int FoundCNo;
    171              if ( RefDns < A54B_DNS_RANGE1 ) {
   \   00000004   ........           LDR      R2,??DataTable37  ;; 0xa3d70a4
   \   00000008   ........           LDR      R3,??DataTable38  ;; 0x3fe8a3d7
   \   0000000C   28909DE5           LDR      R9,[SP, #+40]
   \   00000010   2CA0DDE5           LDRB     R10,[SP, #+44]
   \   00000014   0040A0E1           MOV      R4,R0
   \   00000018   0150A0E1           MOV      R5,R1
   \   0000001C   ........           _BLF     __dLess,??__dLess??rA
   \   00000020   000050E3           CMP      R0,#+0
    172                  FoundCNo = 1;
   \   00000024   0180A013           MOVNE    R8,#+1
   \   00000028   0F00001A           BNE      ??Vcf_6_and_54B_Calc_2
    173              } else if ( RefDns <= A54B_DNS_RANGE2 ) {
   \   0000002C   ........           LDR      R2,??DataTable39  ;; 0xffffffffc6a7ef9f
   \   00000030   ........           LDR      R3,??DataTable40  ;; 0x3fe9374b
   \   00000034   0400A0E1           MOV      R0,R4
   \   00000038   0510A0E1           MOV      R1,R5
   \   0000003C   ........           _BLF     __dLess,??__dLess??rA
   \   00000040   000050E3           CMP      R0,#+0
    174                  FoundCNo = 2;
   \   00000044   0280A013           MOVNE    R8,#+2
   \   00000048   0700001A           BNE      ??Vcf_6_and_54B_Calc_2
    175              } else if ( RefDns <= A54B_DNS_RANGE3 ) {
   \   0000004C   ........           LDR      R2,??DataTable41  ;; 0xffffffff872b020d
   \   00000050   ........           LDR      R3,??DataTable42  ;; 0x3fead916
   \   00000054   0400A0E1           MOV      R0,R4
   \   00000058   0510A0E1           MOV      R1,R5
   \   0000005C   ........           _BLF     __dLess,??__dLess??rA
   \   00000060   000050E3           CMP      R0,#+0
    176                  FoundCNo = 3;
   \   00000064   0380A013           MOVNE    R8,#+3
    177              } else {
    178                  FoundCNo = 4;
   \   00000068   0480A003           MOVEQ    R8,#+4
    179              }
    180              int CNo;
    181          
    182              if ( FixedCurveNo ) {
    183                  if ( CurveNo && *CurveNo ) {
    184                      CNo = *CurveNo;
    185                  } else {
    186                      CNo = FoundCNo;
    187                  }
    188              } else {
    189                  CNo = FoundCNo;
    190              }
    191          
    192              RefDns*= 1000.0;
   \                     ??Vcf_6_and_54B_Calc_2:
   \   0000006C   ........           LDR      R1,??DataTable58  ;; 0x408f4000
   \   00000070   00005AE3           CMP      R10,#+0
   \   00000074   00005913           CMPNE    R9,#+0
   \   00000078   00A09915           LDRNE    R10,[R9, #+0]
   \   0000007C   0000A0E3           MOV      R0,#+0
   \   00000080   00005A13           CMPNE    R10,#+0
   \   00000084   08A0A001           MOVEQ    R10,R8
   \   00000088   0420A0E1           MOV      R2,R4
   \   0000008C   0530A0E1           MOV      R3,R5
   \   00000090   ........           _BLF     __dMul,??__dMul??rA
   \   00000094   0040A0E1           MOV      R4,R0
   \   00000098   0150A0E1           MOV      R5,R1
    193              switch ( CNo ) {
   \   0000009C   01A04AE2           SUB      R10,R10,#+1
   \   000000A0   03005AE3           CMP      R10,#+3
   \   000000A4   2E00008A           BHI      ??Vcf_6_and_54B_Calc_3
   \   000000A8   010F8FE2           ADR      R0,??Vcf_6_and_54B_Calc_1
   \   000000AC   0A00D0E7           LDRB     R0,[R0, R10]
   \   000000B0   00F18FE0           ADD      PC,PC,R0, LSL #+2
   \                     ??Vcf_6_and_54B_Calc_1:
   \   000000B4   00051C22           DC8      +0,+5,+28,+34
    194              case 1:
    195                  Alpha15 = CalcAlpha15(346.4228,0.4388,RefDns);
   \                     ??Vcf_6_and_54B_Calc_4:
   \   000000B8   ........           LDR      R2,??DataTable44  ;; 0xffffffff985f06f7
   \   000000BC   ........           LDR      R3,??DataTable45  ;; 0x3fdc154c
   \   000000C0   ........           LDR      R0,??DataTable46  ;; 0xffffffffc9eecbfb
   \   000000C4   ........           LDR      R1,??DataTable47  ;; 0x4075a6c3
   \   000000C8   200000EA           B        ??Vcf_6_and_54B_Calc_5
    196                  break;
    197              case 2:
    198                  {
    199                      const double A = -0.00336312;
    200                      const double B = 2680.3206;
    201                      double Term1 = APITruncate(B/RefDns,6);
   \                     ??Vcf_6_and_54B_Calc_6:
   \   000000CC   ........           LDR      R0,??DataTable48  ;; 0x25aee632
   \   000000D0   ........           LDR      R1,??DataTable49  ;; 0x40a4f0a4
   \   000000D4   0420A0E1           MOV      R2,R4
   \   000000D8   0530A0E1           MOV      R3,R5
   \   000000DC   ........           _BLF     __dDiv,??__dDiv??rA
   \   000000E0   0620A0E3           MOV      R2,#+6
   \   000000E4   ........           BL       ??APITruncate
    202                      double Term2 = APIRound(Term1/RefDns,8);
   \   000000E8   08A0A0E3           MOV      R10,#+8
   \   000000EC   0420A0E1           MOV      R2,R4
   \   000000F0   0530A0E1           MOV      R3,R5
   \   000000F4   ........           _BLF     __dDiv,??__dDiv??rA
   \   000000F8   0A20A0E1           MOV      R2,R10
   \   000000FC   ........           BL       ??APIRound
    203                      Alpha15 = APIRound(A+Term2,7);
   \   00000100   ........           LDR      R3,??DataTable50  ;; 0xffffffffbf6b8cf9
   \   00000104   0720A0E3           MOV      R2,#+7
   \   00000108   02A0A0E1           MOV      R10,R2
   \   0000010C   ........           LDR      R2,??DataTable51  ;; 0x4d336486
   \   00000110   ........           _BLF     __dAdd,??__dAdd??rA
   \   00000114   0A20A0E1           MOV      R2,R10
   \   00000118   ........           BL       ??APIRound
   \   0000011C   0060A0E1           MOV      R6,R0
   \   00000120   0170A0E1           MOV      R7,R1
   \   00000124   0E0000EA           B        ??Vcf_6_and_54B_Calc_3
    204                  }
    205                  break;
    206              case 3:
    207                  Alpha15 = CalcAlpha15(594.5418,0.0,RefDns);
   \                     ??Vcf_6_and_54B_Calc_7:
   \   00000128   ........           LDR      R0,??DataTable52  ;; 0xffffffff9b3d07c8
   \   0000012C   ........           LDR      R1,??DataTable53  ;; 0x40829455
   \   00000130   30002DE9           PUSH     {R4,R5}
   \   00000134   0020A0E3           MOV      R2,#+0
   \   00000138   0030A0E3           MOV      R3,#+0
   \   0000013C   040000EA           B        ??Vcf_6_and_54B_Calc_8
    208                  break;
    209              case 4:
    210                  Alpha15  = CalcAlpha15(186.9696,0.4862,RefDns);
   \                     ??Vcf_6_and_54B_Calc_9:
   \   00000140   ........           LDR      R2,??DataTable54  ;; 0xffffffff9ad42c3d
   \   00000144   ........           LDR      R3,??DataTable55  ;; 0x3fdf1de6
   \   00000148   ........           LDR      R0,??DataTable56  ;; 0xfffffffff6944674
   \   0000014C   ........           LDR      R1,??DataTable57  ;; 0x40675f06
   \                     ??Vcf_6_and_54B_Calc_5:
   \   00000150   30002DE9           PUSH     {R4,R5}
   \                     ??Vcf_6_and_54B_Calc_8:
   \   00000154   ........           BL       ??CalcAlpha15
   \   00000158   0060A0E1           MOV      R6,R0
   \   0000015C   0170A0E1           MOV      R7,R1
   \   00000160   08D08DE2           ADD      SP,SP,#+8
    211                  break;
    212          
    213              }
    214              if ( CurveNo ) {
   \                     ??Vcf_6_and_54B_Calc_3:
   \   00000164   000059E3           CMP      R9,#+0
    215                  *CurveNo = FoundCNo;
   \   00000168   00808915           STRNE    R8,[R9, #+0]
    216              }
    217              return(API_vcf15(Alpha15,dT));
   \   0000016C   0D00A0E1           MOV      R0,SP
   \   00000170   0C0090E8           LDM      R0,{R2,R3}
   \   00000174   0600A0E1           MOV      R0,R6
   \   00000178   0710A0E1           MOV      R1,R7
   \   0000017C   ........           BL       ??API_vcf15
   \   00000180   ........           B        ?Subroutine36
    218          }

   \                                 In segment CODE, align 4, keep-with-next
   \                     ?Subroutine36:
   \   00000000   FC47BDE8           POP      {R2-R10,LR}
   \   00000004   1EFF2FE1           BX       LR               ;; return
    219          
    220          ////////////////////////////////////////////////////////////
    221          //
    222          // Based on API 54D. Works direCtly for 6D as well
    223          //
    224          ////////////////////////////////////////////////////////////

   \                                 In segment CODE, align 4, keep-with-next
    225          double Vcf_6_and_54D_Calc(double RefDns, double dT, int *CurveNo, bool FixedCurveNo)
    226          {
   \                     ??Vcf_6_and_54D_Calc:
   \   00000000   30402DE9           PUSH     {R4,R5,LR}
   \   00000004   0240A0E1           MOV      R4,R2
   \   00000008   0C209DE5           LDR      R2,[SP, #+12]
   \   0000000C   0350A0E1           MOV      R5,R3
    227              RefDns*= 1000.0;
    228              if ( CurveNo ) {
   \   00000010   000052E3           CMP      R2,#+0
    229                  *CurveNo = 1;
   \   00000014   0130A013           MOVNE    R3,#+1
   \   00000018   00308215           STRNE    R3,[R2, #+0]
    230              }
    231              return(API_vcf15(CalcAlpha15(0.0,0.62780,RefDns),dT));
   \   0000001C   ........           LDR      R3,??DataTable58  ;; 0x408f4000
   \   00000020   0020A013           MOVNE    R2,#+0
   \   00000024   ........           _BLF     __dMul,??__dMul??rA
   \   00000028   ........           LDR      R2,??DataTable59  ;; 0x68db8bb
   \   0000002C   ........           LDR      R3,??DataTable60  ;; 0x3fe416f0
   \   00000030   03002DE9           PUSH     {R0,R1}
   \   00000034   0000A0E3           MOV      R0,#+0
   \   00000038   0010A0E3           MOV      R1,#+0
   \   0000003C                      REQUIRE ?Subroutine30
   \   0000003C                      ;; // Fall through to label ?Subroutine30
    232          }
    233          
    234          
    235          ////////////////////////////////////////////////////////////
    236          //
    237          // Based on IP 59A and 60A.
    238          //
    239          ////////////////////////////////////////////////////////////
    240          
    241          
    242          
    243          

   \                                 In segment CODE, align 4, keep-with-next
    244          double Vcf_59A_and_60A_Calc(double RefDns, double dT, int *CurveNo, bool FixedCurveNo)
    245          {
   \                     ??Vcf_59A_and_60A_Calc:
   \   00000000   30402DE9           PUSH     {R4,R5,LR}
   \   00000004   0240A0E1           MOV      R4,R2
   \   00000008   0C209DE5           LDR      R2,[SP, #+12]
   \   0000000C   0350A0E1           MOV      R5,R3
    246              RefDns*= 1000.0;
    247              if ( CurveNo ) {
   \   00000010   000052E3           CMP      R2,#+0
    248                  *CurveNo = 1;
   \   00000014   0130A013           MOVNE    R3,#+1
   \   00000018   00308215           STRNE    R3,[R2, #+0]
    249              }
    250              return(API_vcf20(CalcAlpha15(613.9723,0.0,RefDns),dT));
   \   0000001C   ........           LDR      R3,??DataTable58  ;; 0x408f4000
   \   00000020   0020A013           MOVNE    R2,#+0
   \   00000024   ........           _BLF     __dMul,??__dMul??rA
   \   00000028   03002DE9           PUSH     {R0,R1}
   \   0000002C   ........           LDR      R0,??DataTable35  ;; 0x4538ef35
   \   00000030   ........           LDR      R1,??DataTable36  ;; 0x40832fc7
   \   00000034   0020A0E3           MOV      R2,#+0
   \   00000038   0030A0E3           MOV      R3,#+0
   \   0000003C   ........           BL       ??CalcAlpha15
   \   00000040   0420A0E1           MOV      R2,R4
   \   00000044   0530A0E1           MOV      R3,R5
   \   00000048   ........           BL       ??API_vcf20
   \   0000004C   ........           B        ??Subroutine30_0
    251          }
    252          
    253          ////////////////////////////////////////////////////////////
    254          //
    255          // Based on IP 59B and 60B.
    256          //
    257          ////////////////////////////////////////////////////////////
    258          

   \                                 In segment CODE, align 4, keep-with-next
    259          double Vcf_59B_and_60B_Calc(double RefDns, double dT, int *CurveNo, bool FixedCurveNo)
    260          {
   \                     ??Vcf_59B_and_60B_Calc:
   \   00000000   FC472DE9           PUSH     {R2-R10,LR}
    261              double Alpha15;
    262              int FoundCNo;
    263              if ( RefDns < A59B_DNS_RANGE1 ) {
   \   00000004   ........           LDR      R2,??DataTable37  ;; 0xa3d70a4
   \   00000008   ........           LDR      R3,??DataTable38  ;; 0x3fe8a3d7
   \   0000000C   28909DE5           LDR      R9,[SP, #+40]
   \   00000010   2CA0DDE5           LDRB     R10,[SP, #+44]
   \   00000014   0040A0E1           MOV      R4,R0
   \   00000018   0150A0E1           MOV      R5,R1
   \   0000001C   ........           _BLF     __dLess,??__dLess??rA
   \   00000020   000050E3           CMP      R0,#+0
    264                  FoundCNo = 1;
   \   00000024   0180A013           MOVNE    R8,#+1
   \   00000028   0F00001A           BNE      ??Vcf_59B_and_60B_Calc_2
    265              } else if ( RefDns <= A59B_DNS_RANGE2 ) {
   \   0000002C   ........           LDR      R2,??DataTable39  ;; 0xffffffffc6a7ef9f
   \   00000030   ........           LDR      R3,??DataTable40  ;; 0x3fe9374b
   \   00000034   0400A0E1           MOV      R0,R4
   \   00000038   0510A0E1           MOV      R1,R5
   \   0000003C   ........           _BLF     __dLess,??__dLess??rA
   \   00000040   000050E3           CMP      R0,#+0
    266                  FoundCNo = 2;
   \   00000044   0280A013           MOVNE    R8,#+2
   \   00000048   0700001A           BNE      ??Vcf_59B_and_60B_Calc_2
    267              } else if ( RefDns <= A59B_DNS_RANGE3 ) {
   \   0000004C   ........           LDR      R2,??DataTable41  ;; 0xffffffff872b020d
   \   00000050   ........           LDR      R3,??DataTable42  ;; 0x3fead916
   \   00000054   0400A0E1           MOV      R0,R4
   \   00000058   0510A0E1           MOV      R1,R5
   \   0000005C   ........           _BLF     __dLess,??__dLess??rA
   \   00000060   000050E3           CMP      R0,#+0
    268                  FoundCNo = 3;
   \   00000064   0380A013           MOVNE    R8,#+3
    269              } else {
    270                  FoundCNo = 4;
   \   00000068   0480A003           MOVEQ    R8,#+4
    271              }
    272              int CNo;
    273          
    274              if ( FixedCurveNo ) {
    275                  if ( CurveNo && *CurveNo ) {
    276                      CNo = *CurveNo;
    277                  } else {
    278                      CNo = FoundCNo;
    279                  }
    280              } else {
    281                  CNo = FoundCNo;
    282              }
    283              RefDns*= 1000.0;
   \                     ??Vcf_59B_and_60B_Calc_2:
   \   0000006C   ........           LDR      R1,??DataTable58  ;; 0x408f4000
   \   00000070   00005AE3           CMP      R10,#+0
   \   00000074   00005913           CMPNE    R9,#+0
   \   00000078   00A09915           LDRNE    R10,[R9, #+0]
   \   0000007C   0000A0E3           MOV      R0,#+0
   \   00000080   00005A13           CMPNE    R10,#+0
   \   00000084   08A0A001           MOVEQ    R10,R8
   \   00000088   0420A0E1           MOV      R2,R4
   \   0000008C   0530A0E1           MOV      R3,R5
   \   00000090   ........           _BLF     __dMul,??__dMul??rA
   \   00000094   0040A0E1           MOV      R4,R0
   \   00000098   0150A0E1           MOV      R5,R1
    284              switch ( CNo ) {
   \   0000009C   01A04AE2           SUB      R10,R10,#+1
   \   000000A0   03005AE3           CMP      R10,#+3
   \   000000A4   2E00008A           BHI      ??Vcf_59B_and_60B_Calc_3
   \   000000A8   010F8FE2           ADR      R0,??Vcf_59B_and_60B_Calc_1
   \   000000AC   0A00D0E7           LDRB     R0,[R0, R10]
   \   000000B0   00F18FE0           ADD      PC,PC,R0, LSL #+2
   \                     ??Vcf_59B_and_60B_Calc_1:
   \   000000B4   00051C22           DC8      +0,+5,+28,+34
    285              case 1:
    286                  Alpha15 = CalcAlpha15(346.4228,0.4388,RefDns);
   \                     ??Vcf_59B_and_60B_Calc_4:
   \   000000B8   ........           LDR      R2,??DataTable44  ;; 0xffffffff985f06f7
   \   000000BC   ........           LDR      R3,??DataTable45  ;; 0x3fdc154c
   \   000000C0   ........           LDR      R0,??DataTable46  ;; 0xffffffffc9eecbfb
   \   000000C4   ........           LDR      R1,??DataTable47  ;; 0x4075a6c3
   \   000000C8   200000EA           B        ??Vcf_59B_and_60B_Calc_5
    287                  break;
    288              case 2:
    289                  {
    290                      const double A = -0.00336312;
    291                      const double B = 2680.3206;
    292                      double Term1 = APITruncate(B/RefDns,6);
   \                     ??Vcf_59B_and_60B_Calc_6:
   \   000000CC   ........           LDR      R0,??DataTable48  ;; 0x25aee632
   \   000000D0   ........           LDR      R1,??DataTable49  ;; 0x40a4f0a4
   \   000000D4   0420A0E1           MOV      R2,R4
   \   000000D8   0530A0E1           MOV      R3,R5
   \   000000DC   ........           _BLF     __dDiv,??__dDiv??rA
   \   000000E0   0620A0E3           MOV      R2,#+6
   \   000000E4   ........           BL       ??APITruncate
    293                      double Term2 = APIRound(Term1/RefDns,8);
   \   000000E8   08A0A0E3           MOV      R10,#+8
   \   000000EC   0420A0E1           MOV      R2,R4
   \   000000F0   0530A0E1           MOV      R3,R5
   \   000000F4   ........           _BLF     __dDiv,??__dDiv??rA
   \   000000F8   0A20A0E1           MOV      R2,R10
   \   000000FC   ........           BL       ??APIRound
    294                      Alpha15 = APIRound(A+Term2,7);
   \   00000100   ........           LDR      R3,??DataTable50  ;; 0xffffffffbf6b8cf9
   \   00000104   0720A0E3           MOV      R2,#+7
   \   00000108   02A0A0E1           MOV      R10,R2
   \   0000010C   ........           LDR      R2,??DataTable51  ;; 0x4d336486
   \   00000110   ........           _BLF     __dAdd,??__dAdd??rA
   \   00000114   0A20A0E1           MOV      R2,R10
   \   00000118   ........           BL       ??APIRound
   \   0000011C   0060A0E1           MOV      R6,R0
   \   00000120   0170A0E1           MOV      R7,R1
   \   00000124   0E0000EA           B        ??Vcf_59B_and_60B_Calc_3
    295                  }
    296                  break;
    297              case 3:
    298                  Alpha15 = CalcAlpha15(594.5418,0.0,RefDns);
   \                     ??Vcf_59B_and_60B_Calc_7:
   \   00000128   ........           LDR      R0,??DataTable52  ;; 0xffffffff9b3d07c8
   \   0000012C   ........           LDR      R1,??DataTable53  ;; 0x40829455
   \   00000130   30002DE9           PUSH     {R4,R5}
   \   00000134   0020A0E3           MOV      R2,#+0
   \   00000138   0030A0E3           MOV      R3,#+0
   \   0000013C   040000EA           B        ??Vcf_59B_and_60B_Calc_8
    299                  break;
    300              case 4:
    301                  Alpha15  = CalcAlpha15(186.9696,0.4862,RefDns);
   \                     ??Vcf_59B_and_60B_Calc_9:
   \   00000140   ........           LDR      R2,??DataTable54  ;; 0xffffffff9ad42c3d
   \   00000144   ........           LDR      R3,??DataTable55  ;; 0x3fdf1de6
   \   00000148   ........           LDR      R0,??DataTable56  ;; 0xfffffffff6944674
   \   0000014C   ........           LDR      R1,??DataTable57  ;; 0x40675f06
   \                     ??Vcf_59B_and_60B_Calc_5:
   \   00000150   30002DE9           PUSH     {R4,R5}
   \                     ??Vcf_59B_and_60B_Calc_8:
   \   00000154   ........           BL       ??CalcAlpha15
   \   00000158   0060A0E1           MOV      R6,R0
   \   0000015C   0170A0E1           MOV      R7,R1
   \   00000160   08D08DE2           ADD      SP,SP,#+8
    302                  break;
    303          
    304              }
    305              if ( CurveNo ) {
   \                     ??Vcf_59B_and_60B_Calc_3:
   \   00000164   000059E3           CMP      R9,#+0
    306                  *CurveNo = FoundCNo;
   \   00000168   00808915           STRNE    R8,[R9, #+0]
    307              }
    308              return(API_vcf20(Alpha15,dT));
   \   0000016C   0D00A0E1           MOV      R0,SP
   \   00000170   0C0090E8           LDM      R0,{R2,R3}
   \   00000174   0600A0E1           MOV      R0,R6
   \   00000178   0710A0E1           MOV      R1,R7
   \   0000017C   ........           BL       ??API_vcf20
   \   00000180                      REQUIRE ?Subroutine36
   \   00000180                      ;; // Fall through to label ?Subroutine36
    309          }
    310          
    311          ////////////////////////////////////////////////////////////
    312          //
    313          // Based on IP 59D and 60D.
    314          //
    315          ////////////////////////////////////////////////////////////

   \                                 In segment CODE, align 4, keep-with-next
    316          double Vcf_59D_and_60D_Calc(double RefDns, double dT, int *CurveNo, bool FixedCurveNo)
    317          {
   \                     ??Vcf_59D_and_60D_Calc:
   \   00000000   30402DE9           PUSH     {R4,R5,LR}
   \   00000004   0240A0E1           MOV      R4,R2
   \   00000008   0C209DE5           LDR      R2,[SP, #+12]
   \   0000000C   0350A0E1           MOV      R5,R3
    318              RefDns*= 1000.0;
    319              if ( CurveNo ) {
   \   00000010   000052E3           CMP      R2,#+0
    320                  *CurveNo = 1;
   \   00000014   0130A013           MOVNE    R3,#+1
   \   00000018   00308215           STRNE    R3,[R2, #+0]
    321              }
    322              return(API_vcf20(CalcAlpha15(0.0,0.62780,RefDns),dT));
   \   0000001C   ........           LDR      R3,??DataTable58  ;; 0x408f4000
   \   00000020   0020A013           MOVNE    R2,#+0
   \   00000024   ........           _BLF     __dMul,??__dMul??rA
   \   00000028   ........           LDR      R2,??DataTable59  ;; 0x68db8bb
   \   0000002C   ........           LDR      R3,??DataTable60  ;; 0x3fe416f0
   \   00000030   03002DE9           PUSH     {R0,R1}
   \   00000034   0000A0E3           MOV      R0,#+0
   \   00000038   0010A0E3           MOV      R1,#+0
   \   0000003C   ........           BL       ??CalcAlpha15
   \   00000040   0420A0E1           MOV      R2,R4
   \   00000044   0530A0E1           MOV      R3,R5
   \   00000048   ........           BL       ??API_vcf20
   \   0000004C   ........           B        ??Subroutine30_0
    323          }
    324          
    325          /////////////////////////////////////////////////////
    326          //
    327          // Ref API Volume X, page X-5
    328          //
    329          /////////////////////////////////////////////////////
    330          

   \                                 In segment CODE, align 4, keep-with-next
    331          float Api_to_Density(float Api)
    332          {
   \                     ??Api_to_Density:
   \   00000000   00402DE9           PUSH     {LR}
    333              return(API_CONST/(API_CONST2 + Api));
   \   00000004   ........           _BLF     __floatToDouble,??__floatToDouble??rA
   \   00000008   1C309FE5           LDR      R3,??Api_to_Density_1  ;; 0x40607000
   \   0000000C   0020A0E3           MOV      R2,#+0
   \   00000010   ........           _BLF     __dAdd,??__dAdd??rA
   \   00000014   0020A0E1           MOV      R2,R0
   \   00000018   ........           LDR      R0,??DataTable64  ;; 0xffffffffbdf4c2b5
   \   0000001C   0130A0E1           MOV      R3,R1
   \   00000020   ........           LDR      R1,??DataTable63  ;; 0x4061ab86
   \   00000024   ........           _BLF     __dDiv,??__dDiv??rA
   \   00000028   ........           B        ??Subroutine31_0
   \                     ??Api_to_Density_1:
   \   0000002C   00706040           DC32     0x40607000
    334          }
    335          

   \                                 In segment CODE, align 4, keep-with-next
    336          float Density_to_API(float Density)
    337          {
   \                     ??Density_to_API:
   \   00000000   70402DE9           PUSH     {R4-R6,LR}
   \   00000004   0060A0E1           MOV      R6,R0
    338              if ( !Density ) Density = 1.0;
   \   00000008   0000A0E3           MOV      R0,#+0
   \   0000000C   0610A0E1           MOV      R1,R6
   \   00000010   ........           _BLF     __fNotEqual,??__fNotEqual??rA
    339              return(API_CONST/Density - API_CONST2);
   \   00000014   ........           LDR      R1,??DataTable63  ;; 0x4061ab86
   \   00000018   000050E3           CMP      R0,#+0
   \   0000001C   ........           LDR      R0,??DataTable64  ;; 0xffffffffbdf4c2b5
   \   00000020   FE65A003           MOVEQ    R6,#+1065353216
   \   00000024   0040A0E1           MOV      R4,R0
   \   00000028   0150A0E1           MOV      R5,R1
   \   0000002C   0600A0E1           MOV      R0,R6
   \   00000030   ........           _BLF     __floatToDouble,??__floatToDouble??rA
   \   00000034   0020A0E1           MOV      R2,R0
   \   00000038   0130A0E1           MOV      R3,R1
   \   0000003C   0400A0E1           MOV      R0,R4
   \   00000040   0510A0E1           MOV      R1,R5
   \   00000044   ........           _BLF     __dDiv,??__dDiv??rA
   \   00000048   ........           LDR      R3,??Subroutine35_0  ;; 0xffffffffc0607000
   \   0000004C   0020A0E3           MOV      R2,#+0
   \   00000050   ........           _BLF     __dAdd,??__dAdd??rA
   \   00000054   ........           _BLF     __doubleToFloat,??__doubleToFloat??rA
   \   00000058                      REQUIRE ?Subroutine35
   \   00000058                      ;; // Fall through to label ?Subroutine35
    340          }
    341          
    342          
    343          ////////////////////////////////////////////////////////////
    344          //
    345          // Based on ASTM Implemention Procedures
    346          //
    347          ////////////////////////////////////////////////////////////
    348          struct FluidParameters {
    349              char Name[15];
    350              double Lamda60;
    351              double Tc;
    352              double Zc;
    353              double RhoC;
    354              double K1;
    355              double K2;
    356              double K3;
    357              double K4;
    358          
    359          };

   \                                 In segment DATA_C, align 4, align-sorted
    360          const FluidParameters Fluids[] ={
   \                     Fluids:
   \   00000000   454520283638       DC8 "EE (68/32)"
   \              2F33322900  
   \   0000000B   0000000000         DC8 0, 0, 0, 0, 0
   \   00000010   B5C01E1329CD       DC32 131EC0B5H, 3FD4CD29H, 8F5C28F6H, 4072A1C2H, 3BE22E5EH, 3FD1EB31H
   \              D43FF6285C8F
   \              C2A172405E2E
   \              E23B31EBD13F
   \   00000028   000000000000       DC32 0H, 40190000H, 9E532FAFH, 40045E8DH, 4D458CEBH, 0BFADD22EH
   \              1940AF2F539E
   \              8D5E0440EB8C
   \              454D2ED2ADBF
   \   00000040   BAEAB5E96FB5       DC32 0E9B5EABAH, 3FE9B56FH, 0D925CCE5H, 0BFE7DCF0H
   \              E93FE5CC25D9
   \              F0DCE7BF    
   \   00000050   457468616E65       DC8 "Ethane"
   \              00          
   \   00000057   000000000000       DC8 0, 0, 0, 0, 0, 0, 0, 0, 0
   \              000000      
   \   00000060   519FE40E9BC8       DC32 0EE49F51H, 3FD6C89BH, 0AE147AE1H, 40731547H, 96BB98C8H, 3FD20F90H
   \              D63FE17A14AE
   \              47157340C898
   \              BB96900FD23F
   \   00000078   7B14AE47E17A       DC32 47AE147BH, 401B7AE1H, 0FA491EE7H, 3FFE4211H, 62CCDC5H, 0BFD7B317H
   \              1B40E71E49FA
   \              1142FE3FC5CD
   \              2C0617B3D7BF
   \   00000090   89CD36868D6F       DC32 8636CD89H, 0BFE16F8DH, 524CE341H, 3FD59FC5H
   \              E1BF41E34C52
   \              C59FD53F    
   \   000000A0   455020283635       DC8 "EP (65/35)"
   \              2F33352900  
   \   000000AB   0000000000         DC8 0, 0, 0, 0, 0
   \   000000B0   1233FB3C4679       DC32 3CFB3312H, 3FDB7946H, 51EB851FH, 4074DAB8H, 0B3D07C85H, 3FD1F559H
   \              DB3F1F85EB51
   \              B8DA7440857C
   \              D0B359F5D13F
   \   000000C8   F6285C8FC275       DC32 8F5C28F6H, 401675C2H, 9ADFCB72H, 4001AD77H, 8154D477H, 0BFD2D50DH
   \              164072CBDF9A
   \              77AD014077D4
   \              54810DD5D2BF
   \   000000E0   92D02163E1F7       DC32 6321D092H, 0BFD9F7E1H, 0DEDDC4FEH, 3FD471C2H
   \              D9BFFEC4DDDE
   \              C271D43F    
   \   000000F0   455020283335       DC8 "EP (35/65)"
   \              2F36352900  
   \   000000FB   0000000000         DC8 0, 0, 0, 0, 0
   \   00000100   C539EAE8B81A       DC32 0E8EA39C5H, 3FDE1AB8H, 28F5C28FH, 4076075CH, 1B71758EH, 3FD1E00DH
   \              DE3F8FC2F528
   \              5C0776408E75
   \              711B0DE0D13F
   \   00000118   713D0AD7A370       DC32 0D70A3D71H, 401470A3H, 0F78ED1C6H, 40020700H, 0C1746A77H
   \              1440C6D18EF7
   \              00070240776A
   \              74C1        
   \   0000012C   060FD1BFF60D       DC32 0BFD10F06H, 0F77B0DF6H, 0BFD7DB3EH, 22456645H, 3FD89F7CH
   \              7BF73EDBD7BF
   \              456645227C9F
   \              D83F        
   \   00000140   50726F70616E       DC8 "Propane"
   \              6500        
   \   00000148   000000000000       DC8 0, 0, 0, 0, 0, 0, 0, 0
   \              0000        
   \   00000150   0B24287E8C39       DC32 7E28240BH, 3FE0398CH, 0E147AE14H, 40771C7AH, 6C4C5975H, 3FD1AE3EH
   \              E03F14AE47E1
   \              7A1C77407559
   \              4C6C3EAED13F
   \   00000168   000000000000       DC32 0H, 40140000H, 0B820DBA9H, 3FFF7370H, 0DD31AEF3H, 0BFD4F86BH
   \              1440A9DB20B8
   \              7073FF3FF3AE
   \              31DD6BF8D4BF
   \   00000180   9EB832F02DC0       DC32 0F032B89EH, 0BFDAC02DH, 4BFDBCC3H, 3FD368CDH
   \              DABFC3BCFD4B
   \              CD68D33F    
   \   00000190   692D42757461       DC8 "i-Butane"
   \              6E6500      
   \   00000199   000000000000       DC8 0, 0, 0, 0, 0, 0, 0
   \              00          
   \   000001A0   0CC9C9C4AD02       DC32 0C4C9C90CH, 3FE202ADH, 9999999AH, 40797D99H, 8D10F51BH, 3FD220EEH
   \              E23F9A999999
   \              997D79401BF5
   \              108DEE20D23F
   \   000001B8   E17A14AE47E1       DC32 0AE147AE1H, 400EE147H, 5FE8E60BH, 4000613DH, 0FFDC0427H
   \              0E400BE6E85F
   \              3D6100402704
   \              DCFF        
   \   000001CC   018BD2BF3D51       DC32 0BFD28B01H, 81F8513DH, 0BFD5245FH, 0FC14F80AH, 3FD2AC25H
   \              F8815F24D5BF
   \              0AF814FC25AC
   \              D23F        
   \   000001E0   6E2D42757461       DC8 "n-Butane"
   \              6E6500      
   \   000001E9   000000000000       DC8 0, 0, 0, 0, 0, 0, 0
   \              00          
   \   000001F0   2BBD361B2BB1       DC32 1B36BD2BH, 3FE2B12BH, 5C28F5C3H, 407A928FH, 8CA8198FH, 3FD19F7FH
   \              E23FC3F5285C
   \              8F927A408F19
   \              A88C7F9FD13F
   \   00000208   5C8FC2F5285C       DC32 0F5C28F5CH, 400F5C28H, 0CF5C0FCBH, 40004C7CH, 0F8951A33H
   \              0F40CB0F5CCF
   \              7C4C0040331A
   \              95F8        
   \   0000021C   C823D3BF8E44       DC32 0BFD323C8H, 0B30448EH, 0BFDACEFBH, 0ED98128CH, 3FD857F1H
   \              300BFBCEDABF
   \              8C1298EDF157
   \              D83F        
   \   00000230   692D50656E74       DC8 "i-Pentane"
   \              616E6500    
   \   0000023A   000000000000       DC8 0, 0, 0, 0, 0, 0
   \   00000240   7C444C8924FA       DC32 894C447CH, 3FE3FA24H, 3D70A3D7H, 407CC70AH, 995AAF79H, 3FD14BF0H
   \              E33FD7A3703D
   \              0AC77C4079AF
   \              5A99F04BD13F
   \   00000258   60E5D022DBF9       DC32 22D0E560H, 4009F9DBH, 987E658H, 400085F9H, 0AFB83B2FH, 0BFCE82C8H
   \              094058E68709
   \              F98500402F3B
   \              B8AFC882CEBF
   \   00000270   95BA390115AA       DC32 139BA95H, 0BFC4AA15H, 23515509H, 3FD08E3DH
   \              C4BF09555123
   \              3D8ED03F    
   \   00000280   6E2D50656E74       DC8 "n-Pentane"
   \              616E6500    
   \   0000028A   000000000000       DC8 0, 0, 0, 0, 0, 0
   \   00000290   CA5180289831       DC32 288051CAH, 3FE43198H, 66666666H, 407D5A66H, 0B1C432CAH, 3FD16E2EH
   \              E43F66666666
   \              665A7D40CA32
   \              C4B12E6ED13F
   \   000002A8   9A9999999999       DC32 9999999AH, 40099999H, 0B8F48E9H, 4000E6ADH, 58ABDBF0H, 0BFD0B8A3H
   \              0940E9488F0B
   \              ADE60040F0DB
   \              AB58A3B8D0BF
   \   000002C0   061962ACDFAE       DC32 0AC621906H, 0BFD2AEDFH, 0B06201B5H, 3FD3BBE9H
   \              D2BFB50162B0
   \              E9BBD33F    
   \   000002D0   692D48657861       DC8 "i-Hexane"
   \              6E6500      
   \   000002D9   000000000000       DC8 0, 0, 0, 0, 0, 0, 0
   \              00          
   \   000002E0   7555A0168307       DC32 16A05575H, 3FE50783H, 0CCCCCCCDH, 407F20CCH, 0D38476F3H, 3FD11782H
   \              E53FCDCCCCCC
   \              CC207F40F376
   \              84D38217D13F
   \   000002F8   37894160E5D0       DC32 60418937H, 4005D0E5H, 93DBE238H, 400030C9H, 0D6438F45H, 0BFDB1B71H
   \              054038E2DB93
   \              C9300040458F
   \              43D6711BDBBF
   \   00000310   73B9C9EDE971       DC32 0EDC9B973H, 0BFF271E9H, 0E85B8E20H, 3FEE6789H
   \              F2BF208E5BE8
   \              8967EE3F    
   \   00000320   6E2D48657861       DC8 "n-Hexane"
   \              6E6500      
   \   00000329   000000000000       DC8 0, 0, 0, 0, 0, 0, 0
   \              00          
   \   00000330   226E4E250340       DC32 254E6E22H, 3FE54003H, 9999999AH, 407FB599H, 0A2F05A71H, 3FD120AFH
   \              E53F9A999999
   \              99B57F40715A
   \              F0A2AF20D13F
   \   00000348   6F1283C0CAA1       DC32 0C083126FH, 4005A1CAH, 60B957C0H, 40015EEAH, 2090AEE5H, 0BFCDD2DBH
   \              0540C057B960
   \              EA5E0140E5AE
   \              9020DBD2CDBF
   \   00000360   D13BB130DA16       DC32 30B13BD1H, 0BFD116DAH, 53D45C4EH, 3FD83B77H
   \              D1BF4E5CD453
   \              773BD83F    
   \   00000370   6E2D48657074       DC8 "n-Heptane"
   \              616E6500    
   \   0000037A   000000000000       DC8 0, 0, 0, 0, 0, 0
   \   00000380   E1EB6B5D6A04       DC32 5D6BEBE1H, 3FE6046AH, 33333333H, 4080E133H, 44BB1AF4H, 3FD0D6F5H
   \              E63F33333333
   \              33E18040F41A
   \              BB44F5D6D03F
   \   00000398   85EB51B81E85       DC32 0B851EB85H, 4002851EH, 4351B014H, 400194F6H, 0AFA3844EH
   \              024014B05143
   \              F69401404E84
   \              A3AF        
   \   000003AC   879AD1BFC8F0       DC32 0BFD19A87H, 442FF0C8H, 0BFDC9E02H, 0A9AAE23DH, 3FDF99F1H
   \              2F44029EDCBF
   \              3DE2AAA9F199
   \              DF3F        
    361              { "EE (68/32)"  , 0.325022,  298.11,     0.27998,    6.250,  2.54616855327,  -0.058244177754,     0.803398090807,    -0.745720314137},
    362              { "Ethane"      , 0.355994,  305.33,     0.28220,    6.870,  1.89113042610,  -0.370305782347,    -0.544867288720,     0.337876634952},
    363              { "EP (65/35)"  , 0.429277,  333.67,     0.28060,    5.615,  2.20970078464,  -0.294253708172,    -0.405754420098,     0.319443433421},
    364              { "EP (35/65)"  , 0.470381,  352.46,     0.27930,    5.110,  2.25341981320,  -0.266542138024,    -0.372756711655,     0.384734185665},
    365              { "Propane"     , 0.507025,  369.78,     0.27626,    5.000,  1.96568366933,  -0.327662435541,    -0.417979702538,     0.303271602831},
    366              { "i-Butane"    , 0.562827,  407.85,     0.28326,    3.860,  2.04748034410,  -0.289734363425,    -0.330345036434,     0.291757103132},
    367              { "n-Butane"    , 0.584127,  425.16,     0.27536,    3.920,  2.03734743118,  -0.299059145695,    -0.418883095671,     0.380367738748},
    368              { "i-Pentane"   , 0.624285,  460.44,     0.27026,    3.247,  2.06541640707,  -0.238366208840,    -0.161440492247,     0.258681568613},
    369              { "n-Pentane"   , 0.631054,  469.65,     0.27235,    3.200,  2.11263474494,  -0.261269413560,    -0.291923445075,     0.308344290017},
    370              { "i-Hexane"    , 0.657167,  498.05,     0.26706,    2.727,  2.02382197871,  -0.423550090067,    -1.152810982570,     0.950139001678},
    371              { "n-Hexane"    , 0.664064,  507.35,     0.26762,    2.704,  2.17134547773,  -0.232997313405,    -0.267019794036,     0.378629524102},
    372              { "n-Heptane"   , 0.688039,  540.15,     0.26312,    2.315,  2.19773533433,  -0.275056764147,    -0.447144095029,     0.493770995799},
    373          };
    374          

   \                                 In segment CODE, align 4, keep-with-next
    375          double Calc_RohSat(int i, double Tr)
    376          {
   \                     ??Calc_RohSat:
   \   00000000   F3472DE9           PUSH     {R0,R1,R4-R10,LR}
   \   00000004   00A0A0E1           MOV      R10,R0
   \   00000008   0140A0E1           MOV      R4,R1
   \   0000000C   0250A0E1           MOV      R5,R2
    377              // T24/10
    378              double t = 1 - Tr;
   \   00000010   0000A0E3           MOV      R0,#+0
   \   00000014   C015A0E3           MOV      R1,#+805306368
   \   00000018   FF1681E3           ORR      R1,R1,#0xFF00000
   \   0000001C   0420A0E1           MOV      R2,R4
   \   00000020   0530A0E1           MOV      R3,R5
   \   00000024   ........           _BLF     __dSub,??__dSub??rA
    379              double RhoSat = Fluids[i].RhoC*(1+((Fluids[i].K1*pow(t,double(0.35)))+(Fluids[i].K3*pow(t,double(2.0)))+(Fluids[i].K4*pow(t,double(3.0))))/(1+(Fluids[i].K2*pow(t,double(0.65)))));
   \   00000028   ........           LDR      R2,??DataTable75  ;; 0x66666666
   \   0000002C   ........           LDR      R3,??DataTable66  ;; 0x3fd66666
   \   00000030   0040A0E1           MOV      R4,R0
   \   00000034   0150A0E1           MOV      R5,R1
   \   00000038   ........           _BLF     pow,??pow??rA_1
   \   0000003C   0080A0E1           MOV      R8,R0
   \   00000040   0190A0E1           MOV      R9,R1
   \   00000044   0020A0E3           MOV      R2,#+0
   \   00000048   4034A0E3           MOV      R3,#+1073741824
   \   0000004C   0400A0E1           MOV      R0,R4
   \   00000050   0510A0E1           MOV      R1,R5
   \   00000054   ........           _BLF     pow,??pow??rA_1
   \   00000058   0060A0E1           MOV      R6,R0
   \   0000005C   0170A0E1           MOV      R7,R1
   \   00000060   0020A0E3           MOV      R2,#+0
   \   00000064   4034A0E3           MOV      R3,#+1073741824
   \   00000068   803A83E3           ORR      R3,R3,#0x80000
   \   0000006C   0400A0E1           MOV      R0,R4
   \   00000070   0510A0E1           MOV      R1,R5
   \   00000074   ........           _BLF     pow,??pow??rA_1
   \   00000078   CC309FE5           LDR      R3,??Calc_RohSat_1  ;; 0x3fe4cccc
   \   0000007C   0D20A0E1           MOV      R2,SP
   \   00000080   030082E8           STM      R2,{R0,R1}
   \   00000084   ........           LDR      R1,??DataTable89  ;; Fluids
   \   00000088   ........           LDR      R2,??DataTable90  ;; 0xffffffffcccccccd
   \   0000008C   5000A0E3           MOV      R0,#+80
   \   00000090   901A2AE0           MLA      R10,R0,R10,R1
   \   00000094   0400A0E1           MOV      R0,R4
   \   00000098   0510A0E1           MOV      R1,R5
   \   0000009C   ........           _BLF     pow,??pow??rA_1
   \   000000A0   38209AE5           LDR      R2,[R10, #+56]
   \   000000A4   3C309AE5           LDR      R3,[R10, #+60]
   \   000000A8   ........           _BLF     __dMul,??__dMul??rA
   \   000000AC   0020A0E3           MOV      R2,#+0
   \   000000B0   C035A0E3           MOV      R3,#+805306368
   \   000000B4   FF3683E3           ORR      R3,R3,#0xFF00000
   \   000000B8   ........           _BLF     __dAdd,??__dAdd??rA
   \   000000BC   0020A0E1           MOV      R2,R0
   \   000000C0   0130A0E1           MOV      R3,R1
   \   000000C4   0C002DE9           PUSH     {R2,R3}
   \   000000C8   48009AE5           LDR      R0,[R10, #+72]
   \   000000CC   4C109AE5           LDR      R1,[R10, #+76]
   \   000000D0   08208DE2           ADD      R2,SP,#+8
   \   000000D4   0C0092E8           LDM      R2,{R2,R3}
   \   000000D8   ........           _BLF     __dMul,??__dMul??rA
   \   000000DC   03002DE9           PUSH     {R0,R1}
   \   000000E0   40009AE5           LDR      R0,[R10, #+64]
   \   000000E4   44109AE5           LDR      R1,[R10, #+68]
   \   000000E8   0620A0E1           MOV      R2,R6
   \   000000EC   0730A0E1           MOV      R3,R7
   \   000000F0   ........           _BLF     __dMul,??__dMul??rA
   \   000000F4   0040A0E1           MOV      R4,R0
   \   000000F8   30009AE5           LDR      R0,[R10, #+48]
   \   000000FC   0150A0E1           MOV      R5,R1
   \   00000100   34109AE5           LDR      R1,[R10, #+52]
   \   00000104   0820A0E1           MOV      R2,R8
   \   00000108   0930A0E1           MOV      R3,R9
   \   0000010C   ........           _BLF     __dMul,??__dMul??rA
   \   00000110   0420A0E1           MOV      R2,R4
   \   00000114   0530A0E1           MOV      R3,R5
   \   00000118   ........           _BLF     __dAdd,??__dAdd??rA
   \   0000011C   0C00BDE8           POP      {R2,R3}
   \   00000120   ........           _BLF     __dAdd,??__dAdd??rA
   \   00000124   0C00BDE8           POP      {R2,R3}
   \   00000128   ........           _BLF     __dDiv,??__dDiv??rA
   \   0000012C   0020A0E3           MOV      R2,#+0
   \   00000130   C035A0E3           MOV      R3,#+805306368
   \   00000134   FF3683E3           ORR      R3,R3,#0xFF00000
   \   00000138   ........           _BLF     __dAdd,??__dAdd??rA
   \   0000013C   28209AE5           LDR      R2,[R10, #+40]
   \   00000140   2C309AE5           LDR      R3,[R10, #+44]
   \   00000144   ........           _BLF     __dMul,??__dMul??rA
    380              return RhoSat;
   \   00000148   ........           B        ?Subroutine36
   \                     ??Calc_RohSat_1:
   \   0000014C   CCCCE43F           DC32     0x3fe4cccc
    381          }

   \                                 In segment CODE, align 4, keep-with-next
    382          double Ctl_LPG_Calc_24E(double RefDns60, double TempC)
    383          {
   \                     ??Ctl_LPG_Calc_24E:
   \   00000000   F04F2DE9           PUSH     {R4-R11,LR}
   \   00000004   0080A0E1           MOV      R8,R0
   \   00000008   0190A0E1           MOV      R9,R1
   \   0000000C   0200A0E1           MOV      R0,R2
    384              // T24/1
    385              double TempF  = APIRound(C_TO_FAHRENHEIT(TempC) ,1);
   \   00000010   ........           LDR      R2,??DataTable90  ;; 0xffffffffcccccccd
   \   00000014   0310A0E1           MOV      R1,R3
   \   00000018   ........           LDR      R3,??DataTable91  ;; 0x3ffccccc
   \   0000001C   1CD04DE2           SUB      SP,SP,#+28
   \   00000020   ........           _BLF     __dMul,??__dMul??rA
   \   00000024   0020A0E3           MOV      R2,#+0
   \   00000028   4034A0E3           MOV      R3,#+1073741824
   \   0000002C   403883E3           ORR      R3,R3,#0x400000
   \   00000030   ........           _BLF     __dAdd,??__dAdd??rA
   \   00000034   0120A0E3           MOV      R2,#+1
   \   00000038   ........           BL       ??APIRound
   \   0000003C   0040A0E1           MOV      R4,R0
   \   00000040   0150A0E1           MOV      R5,R1
    386              double RDns60 = APIRound(RefDns60,4);
   \   00000044   0420A0E3           MOV      R2,#+4
   \   00000048   0800A0E1           MOV      R0,R8
   \   0000004C   0910A0E1           MOV      R1,R9
   \   00000050   ........           BL       ??APIRound
   \   00000054   0080A0E1           MOV      R8,R0
    387              double Tx     = (TempF+459.67)/1.8;
   \   00000058   ........           LDR      R0,??DataTable71  ;; 0x51eb851f
   \   0000005C   0190A0E1           MOV      R9,R1
   \   00000060   ........           LDR      R1,??DataTable72  ;; 0x407cbab8
   \   00000064   0D60A0E1           MOV      R6,SP
   \   00000068   0420A0E1           MOV      R2,R4
   \   0000006C   0530A0E1           MOV      R3,R5
   \   00000070   ........           _BLF     __dAdd,??__dAdd??rA
   \   00000074   ........           LDR      R2,??DataTable90  ;; 0xffffffffcccccccd
   \   00000078   ........           LDR      R3,??DataTable91  ;; 0x3ffccccc
   \   0000007C   ........           _BLF     __dDiv,??__dDiv??rA
    388              if ( ( TempF < -50.8 ) || ( TempF > 199.4 ) ) return -1.0; // Error, temp out of range
   \   00000080   ........           LDR      R2,??DataTable75  ;; 0x66666666
   \   00000084   ........           LDR      R3,??DataTable76  ;; 0xffffffffc0496666
   \   00000088   030086E8           STM      R6,{R0,R1}
   \   0000008C   0400A0E1           MOV      R0,R4
   \   00000090   0510A0E1           MOV      R1,R5
   \   00000094   ........           _BLF     __dLess,??__dLess??rA
   \   00000098   000050E3           CMP      R0,#+0
   \   0000009C   0600001A           BNE      ??Ctl_LPG_Calc_24E_1
   \   000000A0   ........           LDR      R2,??DataTable77  ;; 0xffffffffccccccce
   \   000000A4   ........           LDR      R3,??DataTable78  ;; 0x4068eccc
   \   000000A8   0400A0E1           MOV      R0,R4
   \   000000AC   0510A0E1           MOV      R1,R5
   \   000000B0   ........           _BLF     __dGreaterEqual,??__dGreaterEqual??rA
   \   000000B4   000050E3           CMP      R0,#+0
   \   000000B8   0300000A           BEQ      ??Ctl_LPG_Calc_24E_2
   \                     ??Ctl_LPG_Calc_24E_1:
   \   000000BC   0000A0E3           MOV      R0,#+0
   \   000000C0   B014A0E3           MOV      R1,#-1342177280
   \   000000C4   FF1681E3           ORR      R1,R1,#0xFF00000
   \   000000C8   B50000EA           B        ??Ctl_LPG_Calc_24E_3
    389              // T24/4
    390              unsigned Index = 0;
    391              for ( unsigned i=0; !Index && (i < NELEMENTS(Fluids)); i++ ) {
   \                     ??Ctl_LPG_Calc_24E_2:
   \   000000CC   ........           LDR      R10,??DataTable89  ;; Fluids
   \   000000D0   0060A0E3           MOV      R6,#+0
   \   000000D4   0070A0E3           MOV      R7,#+0
    392                  if ( Fluids[i].Lamda60 >= RDns60 ) {
   \                     ??Ctl_LPG_Calc_24E_4:
   \   000000D8   5000A0E3           MOV      R0,#+80
   \   000000DC   90A722E0           MLA      R2,R0,R7,R10
   \   000000E0   100092E5           LDR      R0,[R2, #+16]
   \   000000E4   141092E5           LDR      R1,[R2, #+20]
   \   000000E8   0820A0E1           MOV      R2,R8
   \   000000EC   0930A0E1           MOV      R3,R9
   \   000000F0   ........           _BLF     __dGreaterEqual,??__dGreaterEqual??rA
   \   000000F4   000050E3           CMP      R0,#+0
    393                      Index = i;
   \   000000F8   0760A011           MOVNE    R6,R7
    394                  }
    395              }
   \   000000FC   017087E2           ADD      R7,R7,#+1
   \   00000100   000056E3           CMP      R6,#+0
   \   00000104   0200001A           BNE      ??Ctl_LPG_Calc_24E_5
   \   00000108   0C0057E3           CMP      R7,#+12
   \   0000010C   F1FFFF3A           BCC      ??Ctl_LPG_Calc_24E_4
    396              if ( !Index ) {
    397                  return -1.0;
   \   00000110   E9FFFFEA           B        ??Ctl_LPG_Calc_24E_1
    398              }
    399              // T24/5
    400              double Rho  = ( RDns60 - Fluids[Index-1].Lamda60)/(Fluids[Index].Lamda60 - Fluids[Index-1].Lamda60);
   \                     ??Ctl_LPG_Calc_24E_5:
   \   00000114   5010A0E3           MOV      R1,#+80
   \   00000118   91A620E0           MLA      R0,R1,R6,R10
   \   0000011C   10A080E2           ADD      R10,R0,#+16
   \   00000120   407040E2           SUB      R7,R0,#+64
   \   00000124   03009AE8           LDM      R10,{R0,R1}
   \   00000128   0C0097E8           LDM      R7,{R2,R3}
   \   0000012C   08B08DE2           ADD      R11,SP,#+8
   \   00000130   ........           _BLF     __dSub,??__dSub??rA
   \   00000134   0C0097E8           LDM      R7,{R2,R3}
   \   00000138   0040A0E1           MOV      R4,R0
   \   0000013C   0150A0E1           MOV      R5,R1
   \   00000140   0800A0E1           MOV      R0,R8
   \   00000144   0910A0E1           MOV      R1,R9
   \   00000148   ........           _BLF     __dSub,??__dSub??rA
   \   0000014C   0420A0E1           MOV      R2,R4
   \   00000150   0530A0E1           MOV      R3,R5
   \   00000154   ........           _BLF     __dDiv,??__dDiv??rA
   \   00000158   03008BE8           STM      R11,{R0,R1}
    401              // T24/6
    402              double Tc   = Fluids[Index-1].Tc + Rho*(Fluids[Index].Tc - Fluids[Index-1].Tc);
   \   0000015C   08009AE5           LDR      R0,[R10, #+8]
   \   00000160   0C109AE5           LDR      R1,[R10, #+12]
   \   00000164   082097E5           LDR      R2,[R7, #+8]
   \   00000168   0C3097E5           LDR      R3,[R7, #+12]
   \   0000016C   ........           _BLF     __dSub,??__dSub??rA
   \   00000170   08208DE2           ADD      R2,SP,#+8
   \   00000174   0C0092E8           LDM      R2,{R2,R3}
   \   00000178   ........           _BLF     __dMul,??__dMul??rA
   \   0000017C   082097E5           LDR      R2,[R7, #+8]
   \   00000180   0C3097E5           LDR      R3,[R7, #+12]
   \   00000184   ........           _BLF     __dAdd,??__dAdd??rA
   \   00000188   0080A0E1           MOV      R8,R0
   \   0000018C   0190A0E1           MOV      R9,R1
    403              // T24/7
    404              double Trx  = Tx / Tc;
   \   00000190   0D00A0E1           MOV      R0,SP
   \   00000194   030090E8           LDM      R0,{R0,R1}
   \   00000198   0820A0E1           MOV      R2,R8
   \   0000019C   0930A0E1           MOV      R3,R9
   \   000001A0   ........           _BLF     __dDiv,??__dDiv??rA
   \   000001A4   0040A0E1           MOV      R4,R0
   \   000001A8   0150A0E1           MOV      R5,R1
    405              // If greater then 1.0, the gas is supercritical and cannot exist as liquid.
    406              if ( Trx >= 1.0 ) return -1.0;
   \   000001AC   0020A0E3           MOV      R2,#+0
   \   000001B0   C035A0E3           MOV      R3,#+805306368
   \   000001B4   FF3683E3           ORR      R3,R3,#0xFF00000
   \   000001B8   ........           _BLF     __dGreaterEqual,??__dGreaterEqual??rA
   \   000001BC   000050E3           CMP      R0,#+0
   \   000001C0   0000A013           MOVNE    R0,#+0
   \   000001C4   B014A013           MOVNE    R1,#-1342177280
   \   000001C8   FF168113           ORRNE    R1,R1,#0xFF00000
   \   000001CC   7400001A           BNE      ??Ctl_LPG_Calc_24E_3
    407              //T24/8
    408              double Tr60 = 519.67/(1.8*Tc);
   \   000001D0   ........           LDR      R0,??DataTable90  ;; 0xffffffffcccccccd
   \   000001D4   ........           LDR      R1,??DataTable91  ;; 0x3ffccccc
   \   000001D8   0820A0E1           MOV      R2,R8
   \   000001DC   0930A0E1           MOV      R3,R9
   \   000001E0   ........           _BLF     __dMul,??__dMul??rA
   \   000001E4   0020A0E1           MOV      R2,R0
   \   000001E8   ........           LDR      R0,??DataTable92  ;; 0x28f5c28f
   \   000001EC   0130A0E1           MOV      R3,R1
   \   000001F0   ........           LDR      R1,??DataTable93  ;; 0x40803d5c
   \   000001F4   ........           _BLF     __dDiv,??__dDiv??rA
   \   000001F8   0080A0E1           MOV      R8,R0
   \   000001FC   0190A0E1           MOV      R9,R1
    409              //T24/9
    410              double h2   = (Fluids[Index-1].Zc * Fluids[Index-1].RhoC)/(Fluids[Index].Zc * Fluids[Index].RhoC);
   \   00000200   0D00A0E1           MOV      R0,SP
   \   00000204   01002DE9           PUSH     {R0}
   \   00000208   10209AE5           LDR      R2,[R10, #+16]
   \   0000020C   14309AE5           LDR      R3,[R10, #+20]
   \   00000210   18009AE5           LDR      R0,[R10, #+24]
   \   00000214   1C109AE5           LDR      R1,[R10, #+28]
   \   00000218   ........           _BLF     __dMul,??__dMul??rA
   \   0000021C   102097E5           LDR      R2,[R7, #+16]
   \   00000220   143097E5           LDR      R3,[R7, #+20]
   \   00000224   00A0A0E1           MOV      R10,R0
   \   00000228   180097E5           LDR      R0,[R7, #+24]
   \   0000022C   01B0A0E1           MOV      R11,R1
   \   00000230   1C1097E5           LDR      R1,[R7, #+28]
    411              //T24/10
    412              double RhoSat60_1 = Calc_RohSat(Index-1,Tr60);
   \   00000234   017046E2           SUB      R7,R6,#+1
   \   00000238   ........           _BLF     __dMul,??__dMul??rA
   \   0000023C   0A20A0E1           MOV      R2,R10
   \   00000240   0B30A0E1           MOV      R3,R11
   \   00000244   ........           _BLF     __dDiv,??__dDiv??rA
   \   00000248   0400BDE8           POP      {R2}
   \   0000024C   030082E8           STM      R2,{R0,R1}
   \   00000250   0920A0E1           MOV      R2,R9
   \   00000254   0810A0E1           MOV      R1,R8
   \   00000258   0700A0E1           MOV      R0,R7
   \   0000025C   ........           BL       ??Calc_RohSat
   \   00000260   00A0A0E1           MOV      R10,R0
   \   00000264   01B0A0E1           MOV      R11,R1
    413              double RhoSat60_2 = Calc_RohSat(Index  ,Tr60);
   \   00000268   0920A0E1           MOV      R2,R9
   \   0000026C   0810A0E1           MOV      R1,R8
   \   00000270   0600A0E1           MOV      R0,R6
   \   00000274   ........           BL       ??Calc_RohSat
   \   00000278   14208DE2           ADD      R2,SP,#+20
   \   0000027C   030082E8           STM      R2,{R0,R1}
    414              //T24/11
    415              double X          = RhoSat60_1/((1+Rho*((RhoSat60_1/(h2*RhoSat60_2))-1)));
    416              //T24/12
    417              double RhoSatX_1  = Calc_RohSat(Index-1,Trx);
   \   00000280   0520A0E1           MOV      R2,R5
   \   00000284   0410A0E1           MOV      R1,R4
   \   00000288   0700A0E1           MOV      R0,R7
   \   0000028C   ........           BL       ??Calc_RohSat
   \   00000290   0080A0E1           MOV      R8,R0
   \   00000294   0190A0E1           MOV      R9,R1
    418              double RhoSatX_2  = Calc_RohSat(Index  ,Trx);
   \   00000298   0520A0E1           MOV      R2,R5
   \   0000029C   0410A0E1           MOV      R1,R4
   \   000002A0   0600A0E1           MOV      R0,R6
   \   000002A4   ........           BL       ??Calc_RohSat
    419              //T24/13
    420              double Ctl        = RhoSatX_1/(X*(1+Rho*((RhoSatX_1/(h2*RhoSatX_2))-1)));
    421              Ctl = APIRound(Ctl,5);
    422              return Ctl;
   \   000002A8   0D20A0E1           MOV      R2,SP
   \   000002AC   0C0092E8           LDM      R2,{R2,R3}
   \   000002B0   ........           _BLF     __dMul,??__dMul??rA
   \   000002B4   0020A0E1           MOV      R2,R0
   \   000002B8   0130A0E1           MOV      R3,R1
   \   000002BC   0800A0E1           MOV      R0,R8
   \   000002C0   0910A0E1           MOV      R1,R9
   \   000002C4   ........           _BLF     __dDiv,??__dDiv??rA
   \   000002C8   0020A0E3           MOV      R2,#+0
   \   000002CC   B034A0E3           MOV      R3,#-1342177280
   \   000002D0   FF3683E3           ORR      R3,R3,#0xFF00000
   \   000002D4   ........           _BLF     __dAdd,??__dAdd??rA
   \   000002D8   08208DE2           ADD      R2,SP,#+8
   \   000002DC   0C0092E8           LDM      R2,{R2,R3}
   \   000002E0   ........           _BLF     __dMul,??__dMul??rA
   \   000002E4   0020A0E3           MOV      R2,#+0
   \   000002E8   C035A0E3           MOV      R3,#+805306368
   \   000002EC   FF3683E3           ORR      R3,R3,#0xFF00000
   \   000002F0   ........           _BLF     __dAdd,??__dAdd??rA
   \   000002F4   0040A0E1           MOV      R4,R0
   \   000002F8   0150A0E1           MOV      R5,R1
   \   000002FC   0D00A0E1           MOV      R0,SP
   \   00000300   0C0090E8           LDM      R0,{R2,R3}
   \   00000304   14008DE2           ADD      R0,SP,#+20
   \   00000308   030090E8           LDM      R0,{R0,R1}
   \   0000030C   ........           _BLF     __dMul,??__dMul??rA
   \   00000310   0020A0E1           MOV      R2,R0
   \   00000314   0130A0E1           MOV      R3,R1
   \   00000318   0A00A0E1           MOV      R0,R10
   \   0000031C   0B10A0E1           MOV      R1,R11
   \   00000320   ........           _BLF     __dDiv,??__dDiv??rA
   \   00000324   0020A0E1           MOV      R2,R0
   \   00000328   0130A0E1           MOV      R3,R1
   \   0000032C   0000A0E3           MOV      R0,#+0
   \   00000330   B014A0E3           MOV      R1,#-1342177280
   \   00000334   FF1681E3           ORR      R1,R1,#0xFF00000
   \   00000338   ........           _BLF     __dAdd,??__dAdd??rA
   \   0000033C   0020A0E1           MOV      R2,R0
   \   00000340   0130A0E1           MOV      R3,R1
   \   00000344   08008DE2           ADD      R0,SP,#+8
   \   00000348   030090E8           LDM      R0,{R0,R1}
   \   0000034C   ........           _BLF     __dMul,??__dMul??rA
   \   00000350   0020A0E1           MOV      R2,R0
   \   00000354   0130A0E1           MOV      R3,R1
   \   00000358   0000A0E3           MOV      R0,#+0
   \   0000035C   C015A0E3           MOV      R1,#+805306368
   \   00000360   FF1681E3           ORR      R1,R1,#0xFF00000
   \   00000364   ........           _BLF     __dAdd,??__dAdd??rA
   \   00000368   0020A0E1           MOV      R2,R0
   \   0000036C   0130A0E1           MOV      R3,R1
   \   00000370   0A00A0E1           MOV      R0,R10
   \   00000374   0B10A0E1           MOV      R1,R11
   \   00000378   ........           _BLF     __dDiv,??__dDiv??rA
   \   0000037C   0420A0E1           MOV      R2,R4
   \   00000380   0530A0E1           MOV      R3,R5
   \   00000384   ........           _BLF     __dMul,??__dMul??rA
   \   00000388   0020A0E1           MOV      R2,R0
   \   0000038C   0130A0E1           MOV      R3,R1
   \   00000390   0800A0E1           MOV      R0,R8
   \   00000394   0910A0E1           MOV      R1,R9
   \   00000398   ........           _BLF     __dDiv,??__dDiv??rA
   \   0000039C   0520A0E3           MOV      R2,#+5
   \   000003A0   ........           BL       ??APIRound
   \                     ??Ctl_LPG_Calc_24E_3:
   \   000003A4   1CD08DE2           ADD      SP,SP,#+28
   \   000003A8   ........           B        ?Subroutine37
    423          }

   \                                 In segment CODE, align 4, keep-with-next
   \                     ?Subroutine37:
   \   00000000   F04FBDE8           POP      {R4-R11,LR}
   \   00000004   1EFF2FE1           BX       LR               ;; return
    424          

   \                                 In segment CODE, align 4, keep-with-next
    425          double CalcLamdax(int Index, double Tx)
    426          {
    427              double Lamda = -1;;
    428              double Tc   = Fluids[Index].Tc;
   \                     ??CalcLamdax:
   \   00000000   ........           LDR      R3,??DataTable89  ;; Fluids
   \   00000004   F04F2DE9           PUSH     {R4-R11,LR}
   \   00000008   00A0A0E1           MOV      R10,R0
   \   0000000C   5000A0E3           MOV      R0,#+80
   \   00000010   903A2BE0           MLA      R11,R0,R10,R3
   \   00000014   18809BE5           LDR      R8,[R11, #+24]
   \   00000018   1C909BE5           LDR      R9,[R11, #+28]
   \   0000001C   0040A0E3           MOV      R4,#+0
   \   00000020   B054A0E3           MOV      R5,#-1342177280
   \   00000024   FF5685E3           ORR      R5,R5,#0xFF00000
    429              double Trx  = Tx / Tc;
   \   00000028   0100A0E1           MOV      R0,R1
   \   0000002C   0210A0E1           MOV      R1,R2
   \   00000030   0820A0E1           MOV      R2,R8
   \   00000034   0930A0E1           MOV      R3,R9
   \   00000038   ........           _BLF     __dDiv,??__dDiv??rA
   \   0000003C   0060A0E1           MOV      R6,R0
   \   00000040   0170A0E1           MOV      R7,R1
    430              if ( Trx <= 1.0 ) {
   \   00000044   0120A0E3           MOV      R2,#+1
   \   00000048   8034C5E3           BIC      R3,R5,#0x80000000
   \   0000004C   ........           _BLF     __dLess,??__dLess??rA
   \   00000050   000050E3           CMP      R0,#+0
   \   00000054   1F00000A           BEQ      ??CalcLamdax_1
    431                  double Tr60 = 519.67/(1.8*Tc);
    432                  double RhoSatx  = Calc_RohSat(Index  ,Trx);
   \   00000058   0720A0E1           MOV      R2,R7
   \   0000005C   0610A0E1           MOV      R1,R6
   \   00000060   0A00A0E1           MOV      R0,R10
   \   00000064   ........           BL       ??Calc_RohSat
   \   00000068   0040A0E1           MOV      R4,R0
    433                  double RhoSat60 = Calc_RohSat(Index  ,Tr60);
   \   0000006C   ........           LDR      R0,??DataTable90  ;; 0xffffffffcccccccd
   \   00000070   0150A0E1           MOV      R5,R1
   \   00000074   ........           LDR      R1,??DataTable91  ;; 0x3ffccccc
   \   00000078   0820A0E1           MOV      R2,R8
   \   0000007C   0930A0E1           MOV      R3,R9
   \   00000080   ........           _BLF     __dMul,??__dMul??rA
   \   00000084   0020A0E1           MOV      R2,R0
   \   00000088   ........           LDR      R0,??DataTable92  ;; 0x28f5c28f
   \   0000008C   0130A0E1           MOV      R3,R1
   \   00000090   ........           LDR      R1,??DataTable93  ;; 0x40803d5c
   \   00000094   ........           _BLF     __dDiv,??__dDiv??rA
   \   00000098   0120A0E1           MOV      R2,R1
   \   0000009C   0010A0E1           MOV      R1,R0
   \   000000A0   0A00A0E1           MOV      R0,R10
   \   000000A4   ........           BL       ??Calc_RohSat
   \   000000A8   0060A0E1           MOV      R6,R0
    434                  Lamda           = Fluids[Index].Lamda60*RhoSatx/RhoSat60;
   \   000000AC   10009BE5           LDR      R0,[R11, #+16]
   \   000000B0   0170A0E1           MOV      R7,R1
   \   000000B4   14109BE5           LDR      R1,[R11, #+20]
   \   000000B8   0420A0E1           MOV      R2,R4
   \   000000BC   0530A0E1           MOV      R3,R5
   \   000000C0   ........           _BLF     __dMul,??__dMul??rA
   \   000000C4   0620A0E1           MOV      R2,R6
   \   000000C8   0730A0E1           MOV      R3,R7
   \   000000CC   ........           _BLF     __dDiv,??__dDiv??rA
   \   000000D0   0040A0E1           MOV      R4,R0
   \   000000D4   0150A0E1           MOV      R5,R1
    435              }
    436              return Lamda;
   \                     ??CalcLamdax_1:
   \   000000D8   0400A0E1           MOV      R0,R4
   \   000000DC   0510A0E1           MOV      R1,R5
   \   000000E0                      REQUIRE ?Subroutine37
   \   000000E0                      ;; // Fall through to label ?Subroutine37
    437          }
    438          

   \                                 In segment CODE, align 4, keep-with-next
    439          double CalcCtl(double RDns60, double Tx, int Index1, int Index2)
    440          {
   \                     ??CalcCtl:
   \   00000000   FF4F2DE9           PUSH     {R0-R11,LR}
   \   00000004   0040A0E1           MOV      R4,R0
    441              // T24/5
    442              double Rho  = ( RDns60 - Fluids[Index1].Lamda60)/(Fluids[Index2].Lamda60 - Fluids[Index1].Lamda60);
   \   00000008   ........           LDR      R0,??DataTable89  ;; Fluids
   \   0000000C   0150A0E1           MOV      R5,R1
   \   00000010   38109DE5           LDR      R1,[SP, #+56]
   \   00000014   02A0A0E1           MOV      R10,R2
   \   00000018   5020A0E3           MOV      R2,#+80
   \   0000001C   920129E0           MLA      R9,R2,R1,R0
   \   00000020   34109DE5           LDR      R1,[SP, #+52]
   \   00000024   03B0A0E1           MOV      R11,R3
   \   00000028   920128E0           MLA      R8,R2,R1,R0
   \   0000002C   0D00A0E1           MOV      R0,SP
   \   00000030   01002DE9           PUSH     {R0}
   \   00000034   100099E5           LDR      R0,[R9, #+16]
   \   00000038   141099E5           LDR      R1,[R9, #+20]
   \   0000003C   102098E5           LDR      R2,[R8, #+16]
   \   00000040   143098E5           LDR      R3,[R8, #+20]
   \   00000044   ........           _BLF     __dSub,??__dSub??rA
   \   00000048   102098E5           LDR      R2,[R8, #+16]
   \   0000004C   143098E5           LDR      R3,[R8, #+20]
   \   00000050   0060A0E1           MOV      R6,R0
   \   00000054   0170A0E1           MOV      R7,R1
   \   00000058   0400A0E1           MOV      R0,R4
   \   0000005C   0510A0E1           MOV      R1,R5
   \   00000060   ........           _BLF     __dSub,??__dSub??rA
   \   00000064   0620A0E1           MOV      R2,R6
   \   00000068   0730A0E1           MOV      R3,R7
   \   0000006C   ........           _BLF     __dDiv,??__dDiv??rA
   \   00000070   0400BDE8           POP      {R2}
   \   00000074   030082E8           STM      R2,{R0,R1}
    443              // T24/6
    444              double Tc   = Fluids[Index1].Tc + Rho*(Fluids[Index2].Tc - Fluids[Index1].Tc);
   \   00000078   180099E5           LDR      R0,[R9, #+24]
   \   0000007C   1C1099E5           LDR      R1,[R9, #+28]
   \   00000080   182098E5           LDR      R2,[R8, #+24]
   \   00000084   1C3098E5           LDR      R3,[R8, #+28]
   \   00000088   ........           _BLF     __dSub,??__dSub??rA
   \   0000008C   0D20A0E1           MOV      R2,SP
   \   00000090   0C0092E8           LDM      R2,{R2,R3}
   \   00000094   ........           _BLF     __dMul,??__dMul??rA
   \   00000098   182098E5           LDR      R2,[R8, #+24]
   \   0000009C   1C3098E5           LDR      R3,[R8, #+28]
   \   000000A0   ........           _BLF     __dAdd,??__dAdd??rA
   \   000000A4   0060A0E1           MOV      R6,R0
   \   000000A8   0170A0E1           MOV      R7,R1
    445              // T24/7
    446              double Trx  = Tx / Tc;
   \   000000AC   0A00A0E1           MOV      R0,R10
   \   000000B0   0B10A0E1           MOV      R1,R11
   \   000000B4   0620A0E1           MOV      R2,R6
   \   000000B8   0730A0E1           MOV      R3,R7
   \   000000BC   ........           _BLF     __dDiv,??__dDiv??rA
   \   000000C0   0040A0E1           MOV      R4,R0
   \   000000C4   0150A0E1           MOV      R5,R1
    447              // If greater then 1.0, the gas is supercritical and cannot exist as liquid.
    448              if ( Trx > 1.0 ) return -1.0;
   \   000000C8   0120A0E3           MOV      R2,#+1
   \   000000CC   C035A0E3           MOV      R3,#+805306368
   \   000000D0   FF3683E3           ORR      R3,R3,#0xFF00000
   \   000000D4   ........           _BLF     __dGreaterEqual,??__dGreaterEqual??rA
   \   000000D8   000050E3           CMP      R0,#+0
   \   000000DC   0000A013           MOVNE    R0,#+0
   \   000000E0   B014A013           MOVNE    R1,#-1342177280
   \   000000E4   FF168113           ORRNE    R1,R1,#0xFF00000
   \   000000E8   6900001A           BNE      ??CalcCtl_1
    449              //T24/8
    450              double Tr60 = 519.67/(1.8*Tc);
   \   000000EC   ........           LDR      R0,??DataTable90  ;; 0xffffffffcccccccd
   \   000000F0   ........           LDR      R1,??DataTable91  ;; 0x3ffccccc
   \   000000F4   0620A0E1           MOV      R2,R6
   \   000000F8   0730A0E1           MOV      R3,R7
   \   000000FC   ........           _BLF     __dMul,??__dMul??rA
   \   00000100   0020A0E1           MOV      R2,R0
   \   00000104   ........           LDR      R0,??DataTable92  ;; 0x28f5c28f
   \   00000108   0130A0E1           MOV      R3,R1
   \   0000010C   ........           LDR      R1,??DataTable93  ;; 0x40803d5c
   \   00000110   ........           _BLF     __dDiv,??__dDiv??rA
    451              //T24/9
    452              double h2   = (Fluids[Index1].Zc * Fluids[Index1].RhoC)/(Fluids[Index2].Zc * Fluids[Index2].RhoC);
   \   00000114   202099E5           LDR      R2,[R9, #+32]
   \   00000118   243099E5           LDR      R3,[R9, #+36]
   \   0000011C   0060A0E1           MOV      R6,R0
   \   00000120   280099E5           LDR      R0,[R9, #+40]
   \   00000124   0170A0E1           MOV      R7,R1
   \   00000128   2C1099E5           LDR      R1,[R9, #+44]
   \   0000012C   ........           _BLF     __dMul,??__dMul??rA
   \   00000130   202098E5           LDR      R2,[R8, #+32]
   \   00000134   243098E5           LDR      R3,[R8, #+36]
   \   00000138   00A0A0E1           MOV      R10,R0
   \   0000013C   280098E5           LDR      R0,[R8, #+40]
   \   00000140   01B0A0E1           MOV      R11,R1
   \   00000144   2C1098E5           LDR      R1,[R8, #+44]
   \   00000148   ........           _BLF     __dMul,??__dMul??rA
   \   0000014C   0A20A0E1           MOV      R2,R10
   \   00000150   0B30A0E1           MOV      R3,R11
   \   00000154   ........           _BLF     __dDiv,??__dDiv??rA
   \   00000158   00A0A0E1           MOV      R10,R0
    453              //T24/10
    454              double RhoSat60_1 = Calc_RohSat(Index1 ,Tr60);
   \   0000015C   34009DE5           LDR      R0,[SP, #+52]
   \   00000160   01B0A0E1           MOV      R11,R1
   \   00000164   0720A0E1           MOV      R2,R7
   \   00000168   0610A0E1           MOV      R1,R6
   \   0000016C   ........           BL       ??Calc_RohSat
   \   00000170   0080A0E1           MOV      R8,R0
    455              double RhoSat60_2 = Calc_RohSat(Index2 ,Tr60);
   \   00000174   38009DE5           LDR      R0,[SP, #+56]
   \   00000178   0190A0E1           MOV      R9,R1
   \   0000017C   0720A0E1           MOV      R2,R7
   \   00000180   0610A0E1           MOV      R1,R6
   \   00000184   ........           BL       ??Calc_RohSat
   \   00000188   08208DE2           ADD      R2,SP,#+8
   \   0000018C   030082E8           STM      R2,{R0,R1}
    456              //T24/11
    457              double X          = RhoSat60_1/((1+Rho*((RhoSat60_1/(h2*RhoSat60_2))-1)));
    458              //T24/12
    459              double RhoSatX_1  = Calc_RohSat(Index1 ,Trx);
   \   00000190   34009DE5           LDR      R0,[SP, #+52]
   \   00000194   0520A0E1           MOV      R2,R5
   \   00000198   0410A0E1           MOV      R1,R4
   \   0000019C   ........           BL       ??Calc_RohSat
   \   000001A0   0060A0E1           MOV      R6,R0
    460              double RhoSatX_2  = Calc_RohSat(Index2 ,Trx);
    461              //T24/13
    462              double Ctl        = RhoSatX_1/(X*(1+Rho*((RhoSatX_1/(h2*RhoSatX_2))-1)));
    463              return Ctl;
   \   000001A4   38009DE5           LDR      R0,[SP, #+56]
   \   000001A8   0170A0E1           MOV      R7,R1
   \   000001AC   0520A0E1           MOV      R2,R5
   \   000001B0   0410A0E1           MOV      R1,R4
   \   000001B4   ........           BL       ??Calc_RohSat
   \   000001B8   0A20A0E1           MOV      R2,R10
   \   000001BC   0B30A0E1           MOV      R3,R11
   \   000001C0   ........           _BLF     __dMul,??__dMul??rA
   \   000001C4   0020A0E1           MOV      R2,R0
   \   000001C8   0130A0E1           MOV      R3,R1
   \   000001CC   0600A0E1           MOV      R0,R6
   \   000001D0   0710A0E1           MOV      R1,R7
   \   000001D4   ........           _BLF     __dDiv,??__dDiv??rA
   \   000001D8   0020A0E3           MOV      R2,#+0
   \   000001DC   B034A0E3           MOV      R3,#-1342177280
   \   000001E0   FF3683E3           ORR      R3,R3,#0xFF00000
   \   000001E4   ........           _BLF     __dAdd,??__dAdd??rA
   \   000001E8   0D20A0E1           MOV      R2,SP
   \   000001EC   0C0092E8           LDM      R2,{R2,R3}
   \   000001F0   ........           _BLF     __dMul,??__dMul??rA
   \   000001F4   0020A0E3           MOV      R2,#+0
   \   000001F8   C035A0E3           MOV      R3,#+805306368
   \   000001FC   FF3683E3           ORR      R3,R3,#0xFF00000
   \   00000200   ........           _BLF     __dAdd,??__dAdd??rA
   \   00000204   0040A0E1           MOV      R4,R0
   \   00000208   0150A0E1           MOV      R5,R1
   \   0000020C   08008DE2           ADD      R0,SP,#+8
   \   00000210   030090E8           LDM      R0,{R0,R1}
   \   00000214   0A20A0E1           MOV      R2,R10
   \   00000218   0B30A0E1           MOV      R3,R11
   \   0000021C   ........           _BLF     __dMul,??__dMul??rA
   \   00000220   0020A0E1           MOV      R2,R0
   \   00000224   0130A0E1           MOV      R3,R1
   \   00000228   0800A0E1           MOV      R0,R8
   \   0000022C   0910A0E1           MOV      R1,R9
   \   00000230   ........           _BLF     __dDiv,??__dDiv??rA
   \   00000234   0020A0E3           MOV      R2,#+0
   \   00000238   B034A0E3           MOV      R3,#-1342177280
   \   0000023C   FF3683E3           ORR      R3,R3,#0xFF00000
   \   00000240   ........           _BLF     __dAdd,??__dAdd??rA
   \   00000244   0D20A0E1           MOV      R2,SP
   \   00000248   0C0092E8           LDM      R2,{R2,R3}
   \   0000024C   ........           _BLF     __dMul,??__dMul??rA
   \   00000250   0020A0E3           MOV      R2,#+0
   \   00000254   C035A0E3           MOV      R3,#+805306368
   \   00000258   FF3683E3           ORR      R3,R3,#0xFF00000
   \   0000025C   ........           _BLF     __dAdd,??__dAdd??rA
   \   00000260   0020A0E1           MOV      R2,R0
   \   00000264   0130A0E1           MOV      R3,R1
   \   00000268   0800A0E1           MOV      R0,R8
   \   0000026C   0910A0E1           MOV      R1,R9
   \   00000270   ........           _BLF     __dDiv,??__dDiv??rA
   \   00000274   0420A0E1           MOV      R2,R4
   \   00000278   0530A0E1           MOV      R3,R5
   \   0000027C   ........           _BLF     __dMul,??__dMul??rA
   \   00000280   0020A0E1           MOV      R2,R0
   \   00000284   0130A0E1           MOV      R3,R1
   \   00000288   0600A0E1           MOV      R0,R6
   \   0000028C   0710A0E1           MOV      R1,R7
   \   00000290   ........           _BLF     __dDiv,??__dDiv??rA
   \                     ??CalcCtl_1:
   \   00000294   10D08DE2           ADD      SP,SP,#+16
   \   00000298   ........           B        ?Subroutine37
    464          
    465          }
    466          

   \                                 In segment CODE, align 4, keep-with-next
    467          double Ctl_LPG_Calc_23E(double ObsDns, double TempC, bool Round)
    468          {
   \                     ??Ctl_LPG_Calc_23E:
   \   00000000   F04F2DE9           PUSH     {R4-R11,LR}
   \   00000004   0060A0E1           MOV      R6,R0
    469              double TempF  = C_TO_FAHRENHEIT(TempC);
   \   00000008   ........           LDR      R0,??DataTable102  ;; 0xffffffffcccccccd
   \   0000000C   0170A0E1           MOV      R7,R1
   \   00000010   ........           LDR      R1,??DataTable103  ;; 0x3ffccccc
   \   00000014   64D04DE2           SUB      SP,SP,#+100
   \   00000018   ........           _BLF     __dMul,??__dMul??rA
   \   0000001C   0020A0E3           MOV      R2,#+0
   \   00000020   4034A0E3           MOV      R3,#+1073741824
   \   00000024   403883E3           ORR      R3,R3,#0x400000
   \   00000028   ........           _BLF     __dAdd,??__dAdd??rA
   \   0000002C   0040A0E1           MOV      R4,R0
    470              double RDtf   = ObsDns;
   \   00000030   0C008DE2           ADD      R0,SP,#+12
   \   00000034   C00080E8           STM      R0,{R6,R7}
    471          
    472              if ( Round ) {
   \   00000038   8800DDE5           LDRB     R0,[SP, #+136]
   \   0000003C   0150A0E1           MOV      R5,R1
   \   00000040   000050E3           CMP      R0,#+0
   \   00000044   2A00000A           BEQ      ??Ctl_LPG_Calc_23E_1
    473                  // T23/1
    474                  TempF  = APIRound(TempF,1);
   \   00000048   0120A0E3           MOV      R2,#+1
   \   0000004C   0400A0E1           MOV      R0,R4
   \   00000050   ........           BL       ??APIRound
   \   00000054   0040A0E1           MOV      R4,R0
   \   00000058   0150A0E1           MOV      R5,R1
    475                  RDtf   = APIRound(RDtf,4);
   \   0000005C   0C008DE2           ADD      R0,SP,#+12
   \   00000060   030090E8           LDM      R0,{R0,R1}
   \   00000064   0420A0E3           MOV      R2,#+4
   \   00000068   ........           BL       ??APIRound
    476                  // T23/3
    477                  if ( ( TempF   < -50.8  ) || ( TempF   > 199.4  ) ) return -1.0; // Error, temp out of range
   \   0000006C   ........           LDR      R3,??DataTable96  ;; 0xffffffffc0496666
   \   00000070   0C208DE2           ADD      R2,SP,#+12
   \   00000074   030082E8           STM      R2,{R0,R1}
   \   00000078   ........           LDR      R2,??DataTable134  ;; 0x66666666
   \   0000007C   0400A0E1           MOV      R0,R4
   \   00000080   0510A0E1           MOV      R1,R5
   \   00000084   ........           _BLF     __dLess,??__dLess??rA
   \   00000088   000050E3           CMP      R0,#+0
   \   0000008C   0600001A           BNE      ??Ctl_LPG_Calc_23E_2
   \   00000090   ........           LDR      R2,??DataTable98  ;; 0xffffffffccccccce
   \   00000094   ........           LDR      R3,??DataTable99  ;; 0x4068eccc
   \   00000098   0400A0E1           MOV      R0,R4
   \   0000009C   0510A0E1           MOV      R1,R5
   \   000000A0   ........           _BLF     __dGreaterEqual,??__dGreaterEqual??rA
   \   000000A4   000050E3           CMP      R0,#+0
   \   000000A8   0300000A           BEQ      ??Ctl_LPG_Calc_23E_3
   \                     ??Ctl_LPG_Calc_23E_2:
   \   000000AC   0000A0E3           MOV      R0,#+0
   \   000000B0   B014A0E3           MOV      R1,#-1342177280
   \   000000B4   FF1681E3           ORR      R1,R1,#0xFF00000
   \   000000B8   570100EA           B        ??Ctl_LPG_Calc_23E_4
    478                  if ( ( ObsDns  < 0.2100 ) || ( ObsDns  > 0.7400 ) ) return -1.0; // Error, density out of range
   \                     ??Ctl_LPG_Calc_23E_3:
   \   000000BC   18299FE5           LDR      R2,??Ctl_LPG_Calc_23E_5  ;; 0xffffffffae147ae1
   \   000000C0   18399FE5           LDR      R3,??Ctl_LPG_Calc_23E_5+0x4  ;; 0x3fcae147
   \   000000C4   0600A0E1           MOV      R0,R6
   \   000000C8   0710A0E1           MOV      R1,R7
   \   000000CC   ........           _BLF     __dLess,??__dLess??rA
   \   000000D0   000050E3           CMP      R0,#+0
   \   000000D4   F4FFFF1A           BNE      ??Ctl_LPG_Calc_23E_2
   \   000000D8   04299FE5           LDR      R2,??Ctl_LPG_Calc_23E_5+0x8  ;; 0x7ae147af
   \   000000DC   04399FE5           LDR      R3,??Ctl_LPG_Calc_23E_5+0xC  ;; 0x3fe7ae14
   \   000000E0   0600A0E1           MOV      R0,R6
   \   000000E4   0710A0E1           MOV      R1,R7
   \   000000E8   ........           _BLF     __dGreaterEqual,??__dGreaterEqual??rA
   \   000000EC   000050E3           CMP      R0,#+0
   \   000000F0   EDFFFF1A           BNE      ??Ctl_LPG_Calc_23E_2
    479              }
    480              //T23/2
    481              double Tx     = (TempF+459.67)/1.8;
   \                     ??Ctl_LPG_Calc_23E_1:
   \   000000F4   ........           LDR      R0,??DataTable100  ;; 0x51eb851f
   \   000000F8   ........           LDR      R1,??DataTable101  ;; 0x407cbab8
   \   000000FC   20608DE2           ADD      R6,SP,#+32
   \   00000100   0420A0E1           MOV      R2,R4
   \   00000104   0530A0E1           MOV      R3,R5
   \   00000108   ........           _BLF     __dAdd,??__dAdd??rA
   \   0000010C   ........           LDR      R2,??DataTable102  ;; 0xffffffffcccccccd
   \   00000110   ........           LDR      R3,??DataTable103  ;; 0x3ffccccc
   \   00000114   ........           _BLF     __dDiv,??__dDiv??rA
   \   00000118   030086E8           STM      R6,{R0,R1}
    482          
    483              // T23/4
    484              int Index2 = -1;
   \   0000011C   0010E0E3           MVN      R1,#+0
   \   00000120   00108DE5           STR      R1,[SP, #+0]
    485              for ( unsigned i=0; Index2 < 0 && i< NELEMENTS(Fluids); i++ ) {
   \   00000124   0060A0E3           MOV      R6,#+0
    486                  // T23/5
    487                  double Lamdax = CalcLamdax(i,Tx);
    488                  if ( Lamdax > RDtf ) {
   \                     ??Ctl_LPG_Calc_23E_6:
   \   00000128   0C008DE2           ADD      R0,SP,#+12
   \   0000012C   030090E8           LDM      R0,{R0,R1}
   \   00000130   0040A0E1           MOV      R4,R0
   \   00000134   0150A0E1           MOV      R5,R1
   \   00000138   20008DE2           ADD      R0,SP,#+32
   \   0000013C   030090E8           LDM      R0,{R0,R1}
   \   00000140   0120A0E1           MOV      R2,R1
   \   00000144   0010A0E1           MOV      R1,R0
   \   00000148   0600A0E1           MOV      R0,R6
   \   0000014C   ........           BL       ??CalcLamdax
   \   00000150   0020A0E1           MOV      R2,R0
   \   00000154   0130A0E1           MOV      R3,R1
   \   00000158   0400A0E1           MOV      R0,R4
   \   0000015C   0510A0E1           MOV      R1,R5
   \   00000160   ........           _BLF     __dLess,??__dLess??rA
   \   00000164   000050E3           CMP      R0,#+0
   \   00000168   0300000A           BEQ      ??Ctl_LPG_Calc_23E_7
    489                      Index2 = i;
   \   0000016C   00608DE5           STR      R6,[SP, #+0]
    490                      if ( !Index2 ) {
   \   00000170   000056E3           CMP      R6,#+0
    491                          Index2++;
   \   00000174   0110A003           MOVEQ    R1,#+1
   \   00000178   00108D05           STREQ    R1,[SP, #+0]
    492                      }
    493                  } else if ( !i && RDtf < Lamdax ) {
    494                      Index2 =1;
    495                  }
    496              }
   \                     ??Ctl_LPG_Calc_23E_7:
   \   0000017C   00009DE5           LDR      R0,[SP, #+0]
   \   00000180   016086E2           ADD      R6,R6,#+1
   \   00000184   000050E3           CMP      R0,#+0
   \   00000188   0300005A           BPL      ??Ctl_LPG_Calc_23E_8
   \   0000018C   0C0056E3           CMP      R6,#+12
   \   00000190   E4FFFF3A           BCC      ??Ctl_LPG_Calc_23E_6
    497              if ( Index2 < 0 ) {
    498                  Index2 = NELEMENTS(Fluids)-1;
   \   00000194   0B10A0E3           MOV      R1,#+11
   \   00000198   00108DE5           STR      R1,[SP, #+0]
    499              }
    500              int Index1 = Index2-1;
   \                     ??Ctl_LPG_Calc_23E_8:
   \   0000019C   00109DE5           LDR      R1,[SP, #+0]
    501              //T23/6
    502              double RD60Low   = Fluids[Index1].Lamda60;
   \   000001A0   ........           LDR      R0,??DataTable147  ;; Fluids
   \   000001A4   011041E2           SUB      R1,R1,#+1
   \   000001A8   14108DE5           STR      R1,[SP, #+20]
   \   000001AC   5020A0E3           MOV      R2,#+80
   \   000001B0   920126E0           MLA      R6,R2,R1,R0
    503              double RD60High  = Fluids[Index2].Lamda60;   // OK
   \   000001B4   00109DE5           LDR      R1,[SP, #+0]
   \   000001B8   104096E5           LDR      R4,[R6, #+16]
   \   000001BC   145096E5           LDR      R5,[R6, #+20]
   \   000001C0   920127E0           MLA      R7,R2,R1,R0
   \   000001C4   102097E5           LDR      R2,[R7, #+16]
   \   000001C8   143097E5           LDR      R3,[R7, #+20]
   \   000001CC   30008DE2           ADD      R0,SP,#+48
   \   000001D0   0C0080E8           STM      R0,{R2,R3}
    504              double RDtfLow   = CalcLamdax(Index1,Tx);
   \   000001D4   20008DE2           ADD      R0,SP,#+32
   \   000001D8   030090E8           LDM      R0,{R0,R1}
   \   000001DC   0120A0E1           MOV      R2,R1
   \   000001E0   0010A0E1           MOV      R1,R0
   \   000001E4   14009DE5           LDR      R0,[SP, #+20]
   \   000001E8   ........           BL       ??CalcLamdax
   \   000001EC   04208DE2           ADD      R2,SP,#+4
   \   000001F0   030082E8           STM      R2,{R0,R1}
    505              double RDtfHigh  = CalcLamdax(Index2,Tx);    // OK
   \   000001F4   20008DE2           ADD      R0,SP,#+32
   \   000001F8   030090E8           LDM      R0,{R0,R1}
   \   000001FC   0120A0E1           MOV      R2,R1
   \   00000200   0010A0E1           MOV      R1,R0
   \   00000204   00009DE5           LDR      R0,[SP, #+0]
   \   00000208   ........           BL       ??CalcLamdax
   \   0000020C   38208DE2           ADD      R2,SP,#+56
   \   00000210   030082E8           STM      R2,{R0,R1}
    506              if ( RDtfLow == -1.0 ) {
   \   00000214   04008DE2           ADD      R0,SP,#+4
   \   00000218   0C0090E8           LDM      R0,{R2,R3}
   \   0000021C   0000A0E3           MOV      R0,#+0
   \   00000220   B014A0E3           MOV      R1,#-1342177280
   \   00000224   FF1681E3           ORR      R1,R1,#0xFF00000
   \   00000228   ........           _BLF     __dEqual,??__dEqual??rA
   \   0000022C   000050E3           CMP      R0,#+0
   \   00000230   3900000A           BEQ      ??Ctl_LPG_Calc_23E_9
    507                  // Note: RD60Low is already initialized
    508                  RD60Low  = ( (Tx - Fluids[Index1].Tc)/(Fluids[Index2].Tc-Fluids[Index1].Tc))*(RD60High-RD60Low) + RD60Low;
   \   00000234   30008DE2           ADD      R0,SP,#+48
   \   00000238   030090E8           LDM      R0,{R0,R1}
   \   0000023C   0420A0E1           MOV      R2,R4
   \   00000240   0530A0E1           MOV      R3,R5
   \   00000244   ........           _BLF     __dSub,??__dSub??rA
   \   00000248   182096E5           LDR      R2,[R6, #+24]
   \   0000024C   1C3096E5           LDR      R3,[R6, #+28]
   \   00000250   00A0A0E1           MOV      R10,R0
   \   00000254   180097E5           LDR      R0,[R7, #+24]
   \   00000258   01B0A0E1           MOV      R11,R1
   \   0000025C   1C1097E5           LDR      R1,[R7, #+28]
   \   00000260   ........           _BLF     __dSub,??__dSub??rA
   \   00000264   0080A0E1           MOV      R8,R0
   \   00000268   0190A0E1           MOV      R9,R1
   \   0000026C   182096E5           LDR      R2,[R6, #+24]
   \   00000270   1C3096E5           LDR      R3,[R6, #+28]
   \   00000274   20008DE2           ADD      R0,SP,#+32
   \   00000278   030090E8           LDM      R0,{R0,R1}
   \   0000027C   ........           _BLF     __dSub,??__dSub??rA
   \   00000280   0820A0E1           MOV      R2,R8
   \   00000284   0930A0E1           MOV      R3,R9
   \   00000288   ........           _BLF     __dDiv,??__dDiv??rA
   \   0000028C   0A20A0E1           MOV      R2,R10
   \   00000290   0B30A0E1           MOV      R3,R11
   \   00000294   ........           _BLF     __dMul,??__dMul??rA
   \   00000298   0420A0E1           MOV      R2,R4
   \   0000029C   0530A0E1           MOV      R3,R5
   \   000002A0   ........           _BLF     __dAdd,??__dAdd??rA
    509                  if ( RD60Low <0.3500 ) {
   \   000002A4   ........           LDR      R2,??DataTable134  ;; 0x66666666
   \   000002A8   ........           LDR      R3,??DataTable116  ;; 0x3fd66666
   \   000002AC   0040A0E1           MOV      R4,R0
   \   000002B0   0150A0E1           MOV      R5,R1
   \   000002B4   ........           _BLF     __dLess,??__dLess??rA
   \   000002B8   000050E3           CMP      R0,#+0
    510                      RD60Low = 0.3500;
    511          
    512                  }
    513                  RDtfLow  = CalcCtl(RD60Low,Tx,Index1,Index2)*RD60Low;
   \   000002BC   00009DE5           LDR      R0,[SP, #+0]
   \   000002C0   ........           LDRNE    R4,??DataTable134  ;; 0x66666666
   \   000002C4   ........           LDRNE    R5,??DataTable116  ;; 0x3fd66666
   \   000002C8   01002DE9           PUSH     {R0}
   \   000002CC   18009DE5           LDR      R0,[SP, #+24]
   \   000002D0   0510A0E1           MOV      R1,R5
   \   000002D4   01002DE9           PUSH     {R0}
   \   000002D8   28008DE2           ADD      R0,SP,#+40
   \   000002DC   0C0090E8           LDM      R0,{R2,R3}
   \   000002E0   0400A0E1           MOV      R0,R4
   \   000002E4   ........           BL       ??CalcCtl
   \   000002E8   0420A0E1           MOV      R2,R4
   \   000002EC   0530A0E1           MOV      R3,R5
   \   000002F0   ........           _BLF     __dMul,??__dMul??rA
   \   000002F4   0C208DE2           ADD      R2,SP,#+12
   \   000002F8   030082E8           STM      R2,{R0,R1}
    514                  if ( RDtfLow < 0.0 ) {
   \   000002FC   0C008DE2           ADD      R0,SP,#+12
   \   00000300   030090E8           LDM      R0,{R0,R1}
   \   00000304   0020A0E3           MOV      R2,#+0
   \   00000308   0030A0E3           MOV      R3,#+0
   \   0000030C   08D08DE2           ADD      SP,SP,#+8
   \   00000310   ........           _BLF     __dLess,??__dLess??rA
   \   00000314   000050E3           CMP      R0,#+0
   \   00000318   63FFFF1A           BNE      ??Ctl_LPG_Calc_23E_2
    515                      return -1;
    516                  }
    517              }
    518              if ( RD60Low <0.3500 ) {
   \                     ??Ctl_LPG_Calc_23E_9:
   \   0000031C   ........           LDR      R2,??DataTable134  ;; 0x66666666
   \   00000320   ........           LDR      R3,??DataTable116  ;; 0x3fd66666
   \   00000324   0400A0E1           MOV      R0,R4
   \   00000328   0510A0E1           MOV      R1,R5
   \   0000032C   ........           _BLF     __dLess,??__dLess??rA
   \   00000330   000050E3           CMP      R0,#+0
   \   00000334   1700000A           BEQ      ??Ctl_LPG_Calc_23E_10
    519                  RD60Low = 0.3500;
    520                  RDtfLow  = CalcCtl(RD60Low,Tx,Index1,Index2)*RD60Low;
   \   00000338   00009DE5           LDR      R0,[SP, #+0]
   \   0000033C   ........           LDR      R4,??DataTable134  ;; 0x66666666
   \   00000340   ........           LDR      R5,??DataTable116  ;; 0x3fd66666
   \   00000344   01002DE9           PUSH     {R0}
   \   00000348   18009DE5           LDR      R0,[SP, #+24]
   \   0000034C   0510A0E1           MOV      R1,R5
   \   00000350   01002DE9           PUSH     {R0}
   \   00000354   28008DE2           ADD      R0,SP,#+40
   \   00000358   0C0090E8           LDM      R0,{R2,R3}
   \   0000035C   0400A0E1           MOV      R0,R4
   \   00000360   ........           BL       ??CalcCtl
   \   00000364   0420A0E1           MOV      R2,R4
   \   00000368   0530A0E1           MOV      R3,R5
   \   0000036C   ........           _BLF     __dMul,??__dMul??rA
   \   00000370   0C208DE2           ADD      R2,SP,#+12
   \   00000374   030082E8           STM      R2,{R0,R1}
    521                  if ( RDtfLow < 0.0 ) {
   \   00000378   0C008DE2           ADD      R0,SP,#+12
   \   0000037C   030090E8           LDM      R0,{R0,R1}
   \   00000380   0020A0E3           MOV      R2,#+0
   \   00000384   0030A0E3           MOV      R3,#+0
   \   00000388   08D08DE2           ADD      SP,SP,#+8
   \   0000038C   ........           _BLF     __dLess,??__dLess??rA
   \   00000390   000050E3           CMP      R0,#+0
   \   00000394   44FFFF1A           BNE      ??Ctl_LPG_Calc_23E_2
    522                      return -1;
    523                  }
    524          
    525              }
    526              if ( RDtf < RDtfLow ) {
   \                     ??Ctl_LPG_Calc_23E_10:
   \   00000398   0C008DE2           ADD      R0,SP,#+12
   \   0000039C   030090E8           LDM      R0,{R0,R1}
   \   000003A0   04208DE2           ADD      R2,SP,#+4
   \   000003A4   0C0092E8           LDM      R2,{R2,R3}
   \   000003A8   ........           _BLF     __dLess,??__dLess??rA
   \   000003AC   000050E3           CMP      R0,#+0
   \   000003B0   3DFFFF1A           BNE      ??Ctl_LPG_Calc_23E_2
    527                  return -1;
    528              }
    529              bool   Found = false;
    530              int    Cnt   = 0;
   \   000003B4   0010A0E3           MOV      R1,#+0
   \   000003B8   40108DE5           STR      R1,[SP, #+64]
    531              double RD60  = -1;
   \   000003BC   1C0000EA           B        ??Ctl_LPG_Calc_23E_11
    532              //T23/7
    533              do {
    534                  double Delta = (RDtf - RDtfLow)/(RDtfHigh - RDtfLow);
    535                  if ( Delta < 0.001 ) {
    536                      Delta = 0.001;
    537                  } else if ( Delta > 0.999 ) {
    538                      Delta = 0.999;
    539                  }
    540          
    541                  double RD60Mid = RD60Low+ Delta*(RD60High-RD60Low);
    542                  //double RD60Mid = (RD60High+RD60Low)/2.0;
    543                  double Ctl     = CalcCtl(RD60Mid,Tx,Index1,Index2);
    544                  double RDtfMid = Ctl*RD60Mid;
    545          
    546          		double DiffLow  = fabs(RD60Mid-RD60Low);
    547          		double DiffHigh = fabs(RD60Mid-RD60High);
    548          
    549                  if ( DiffLow < 1e-8 || DiffHigh < 1e-8 ) {
    550                      RD60  = RD60Mid;
    551                      Found = true;
    552                  } else {
    553                      double Alpha = (RD60High - RD60Low);
    554                      double Betha = pow(RDtfHigh,2)-pow(RDtfLow,2);
    555                      double Phi   = (RDtfHigh-RDtfLow)/(RDtfMid-RDtfLow);
    556                      double A     = (Alpha-Phi*(RD60Mid-RD60Low))/(Betha-Phi*(pow(RDtfMid,2)-pow(RDtfLow,2)));
    557                      double B     = ( Alpha - A*Betha)/(RDtfHigh-RDtfLow);
    558                      double C     = RD60Low - B*RDtfLow - A*pow(RDtfLow,2);
    559                      double RD60t = A*pow(RDtf,2)+B*RDtf+C;
    560                      if ( RD60t < RD60Low ) {
    561                          RD60t = RD60Low+((RD60Mid-RD60Low)*(RDtf-RDtfLow)/(RDtfMid-RDtfLow));
    562                      } else if ( RD60t > RD60High ) {
    563                          RD60t   = RD60Mid+((RD60High-RD60Mid)*(RDtf-RDtfMid)/(RDtfHigh-RDtfMid));
    564                      }
    565                      Ctl         = CalcCtl(RD60t, Tx, Index1, Index2);
    566                      double RDt  = Ctl*RD60t;
    567          			double Diff = fabs(RDt-RDtf);
    568                      if ( Diff < 1e-8 ) {
    569                          RD60  = RD60t;
    570                          Found = true;
    571                      } else if ( RDt > RDtf ) {
    572                          RDtfHigh = RDt;
    573                          RD60High = RD60t;
    574          				if ( RDtfMid < RDtf ) {
    575                              RDtfLow = RDtfMid;
    576                              RD60Low = RD60Mid;
    577                          }
    578                      } else if ( RDt < RDtf ) {
   \                     ??Ctl_LPG_Calc_23E_12:
   \   000003C0   0C208DE2           ADD      R2,SP,#+12
   \   000003C4   0C0092E8           LDM      R2,{R2,R3}
   \   000003C8   0A00A0E1           MOV      R0,R10
   \   000003CC   0B10A0E1           MOV      R1,R11
   \   000003D0   ........           _BLF     __dLess,??__dLess??rA
   \   000003D4   000050E3           CMP      R0,#+0
   \   000003D8   1000000A           BEQ      ??Ctl_LPG_Calc_23E_13
    579                          RDtfLow = RDt;
   \   000003DC   04008DE2           ADD      R0,SP,#+4
   \   000003E0   000C80E8           STM      R0,{R10,R11}
    580                          RD60Low = RD60t;
    581                          if ( RDtfMid > RDtf ) {
   \   000003E4   0C008DE2           ADD      R0,SP,#+12
   \   000003E8   030090E8           LDM      R0,{R0,R1}
   \   000003EC   18208DE2           ADD      R2,SP,#+24
   \   000003F0   0C0092E8           LDM      R2,{R2,R3}
   \   000003F4   0640A0E1           MOV      R4,R6
   \   000003F8   0750A0E1           MOV      R5,R7
   \   000003FC   ........           _BLF     __dLess,??__dLess??rA
   \   00000400   000050E3           CMP      R0,#+0
   \   00000404   0500000A           BEQ      ??Ctl_LPG_Calc_23E_13
    582                              RDtfHigh = RDtfMid;
   \   00000408   18108DE2           ADD      R1,SP,#+24
   \   0000040C   0C0091E8           LDM      R1,{R2,R3}
   \   00000410   38008DE2           ADD      R0,SP,#+56
   \   00000414   0C0080E8           STM      R0,{R2,R3}
    583                              RD60High = RD60Mid;
   \   00000418   30008DE2           ADD      R0,SP,#+48
   \   0000041C   000380E8           STM      R0,{R8,R9}
   \                     ??Ctl_LPG_Calc_23E_13:
   \   00000420   40009DE5           LDR      R0,[SP, #+64]
   \   00000424   012080E2           ADD      R2,R0,#+1
   \   00000428   40208DE5           STR      R2,[SP, #+64]
   \   0000042C   0A0050E3           CMP      R0,#+10
   \   00000430   1DFFFFAA           BGE      ??Ctl_LPG_Calc_23E_2
    584                          }
    585                      }
   \                     ??Ctl_LPG_Calc_23E_11:
   \   00000434   38008DE2           ADD      R0,SP,#+56
   \   00000438   030090E8           LDM      R0,{R0,R1}
   \   0000043C   04208DE2           ADD      R2,SP,#+4
   \   00000440   0C0092E8           LDM      R2,{R2,R3}
   \   00000444   44608DE2           ADD      R6,SP,#+68
   \   00000448   ........           _BLF     __dSub,??__dSub??rA
   \   0000044C   030086E8           STM      R6,{R0,R1}
   \   00000450   0C008DE2           ADD      R0,SP,#+12
   \   00000454   030090E8           LDM      R0,{R0,R1}
   \   00000458   04208DE2           ADD      R2,SP,#+4
   \   0000045C   0C0092E8           LDM      R2,{R2,R3}
   \   00000460   54608DE2           ADD      R6,SP,#+84
   \   00000464   ........           _BLF     __dSub,??__dSub??rA
   \   00000468   030086E8           STM      R6,{R0,R1}
   \   0000046C   54008DE2           ADD      R0,SP,#+84
   \   00000470   030090E8           LDM      R0,{R0,R1}
   \   00000474   44208DE2           ADD      R2,SP,#+68
   \   00000478   0C0092E8           LDM      R2,{R2,R3}
   \   0000047C   ........           _BLF     __dDiv,??__dDiv??rA
   \   00000480   64259FE5           LDR      R2,??Ctl_LPG_Calc_23E_5+0x10  ;; 0xffffffffd2f1a9fc
   \   00000484   64359FE5           LDR      R3,??Ctl_LPG_Calc_23E_5+0x14  ;; 0x3f50624d
   \   00000488   0060A0E1           MOV      R6,R0
   \   0000048C   0170A0E1           MOV      R7,R1
   \   00000490   ........           _BLF     __dLess,??__dLess??rA
   \   00000494   000050E3           CMP      R0,#+0
   \   00000498   4C659F15           LDRNE    R6,??Ctl_LPG_Calc_23E_5+0x10  ;; 0xffffffffd2f1a9fc
   \   0000049C   4C759F15           LDRNE    R7,??Ctl_LPG_Calc_23E_5+0x14  ;; 0x3f50624d
   \   000004A0   0700001A           BNE      ??Ctl_LPG_Calc_23E_14
   \   000004A4   48259FE5           LDR      R2,??Ctl_LPG_Calc_23E_5+0x18  ;; 0xffffffffd916872c
   \   000004A8   48359FE5           LDR      R3,??Ctl_LPG_Calc_23E_5+0x1C  ;; 0x3feff7ce
   \   000004AC   0600A0E1           MOV      R0,R6
   \   000004B0   0710A0E1           MOV      R1,R7
   \   000004B4   ........           _BLF     __dGreaterEqual,??__dGreaterEqual??rA
   \   000004B8   000050E3           CMP      R0,#+0
   \   000004BC   38659F15           LDRNE    R6,??Ctl_LPG_Calc_23E_5+0x20  ;; 0xffffffffd916872b
   \   000004C0   30759F15           LDRNE    R7,??Ctl_LPG_Calc_23E_5+0x1C  ;; 0x3feff7ce
   \                     ??Ctl_LPG_Calc_23E_14:
   \   000004C4   30008DE2           ADD      R0,SP,#+48
   \   000004C8   030090E8           LDM      R0,{R0,R1}
   \   000004CC   28808DE2           ADD      R8,SP,#+40
   \   000004D0   0420A0E1           MOV      R2,R4
   \   000004D4   0530A0E1           MOV      R3,R5
   \   000004D8   ........           _BLF     __dSub,??__dSub??rA
   \   000004DC   030088E8           STM      R8,{R0,R1}
   \   000004E0   28008DE2           ADD      R0,SP,#+40
   \   000004E4   030090E8           LDM      R0,{R0,R1}
   \   000004E8   0620A0E1           MOV      R2,R6
   \   000004EC   0730A0E1           MOV      R3,R7
   \   000004F0   ........           _BLF     __dMul,??__dMul??rA
   \   000004F4   0420A0E1           MOV      R2,R4
   \   000004F8   0530A0E1           MOV      R3,R5
   \   000004FC   ........           _BLF     __dAdd,??__dAdd??rA
   \   00000500   0080A0E1           MOV      R8,R0
   \   00000504   00009DE5           LDR      R0,[SP, #+0]
   \   00000508   0190A0E1           MOV      R9,R1
   \   0000050C   01002DE9           PUSH     {R0}
   \   00000510   18009DE5           LDR      R0,[SP, #+24]
   \   00000514   01002DE9           PUSH     {R0}
   \   00000518   28008DE2           ADD      R0,SP,#+40
   \   0000051C   0C0090E8           LDM      R0,{R2,R3}
   \   00000520   0800A0E1           MOV      R0,R8
   \   00000524   ........           BL       ??CalcCtl
   \   00000528   0820A0E1           MOV      R2,R8
   \   0000052C   0930A0E1           MOV      R3,R9
   \   00000530   ........           _BLF     __dMul,??__dMul??rA
   \   00000534   20208DE2           ADD      R2,SP,#+32
   \   00000538   030082E8           STM      R2,{R0,R1}
   \   0000053C   0800A0E1           MOV      R0,R8
   \   00000540   0910A0E1           MOV      R1,R9
   \   00000544   0420A0E1           MOV      R2,R4
   \   00000548   0530A0E1           MOV      R3,R5
   \   0000054C   ........           _BLF     __dSub,??__dSub??rA
   \   00000550   38208DE2           ADD      R2,SP,#+56
   \   00000554   0C0092E8           LDM      R2,{R2,R3}
   \   00000558   00A0A0E1           MOV      R10,R0
   \   0000055C   01B0A0E1           MOV      R11,R1
   \   00000560   0800A0E1           MOV      R0,R8
   \   00000564   0910A0E1           MOV      R1,R9
   \   00000568   ........           _BLF     __dSub,??__dSub??rA
   \   0000056C   ........           LDR      R2,??DataTable117  ;; 0xffffffffe2308c3a
   \   00000570   88349FE5           LDR      R3,??Ctl_LPG_Calc_23E_5+0x24  ;; 0x3e45798e
   \   00000574   80B4CBE3           BIC      R11,R11,#0x80000000
   \   00000578   0060A0E1           MOV      R6,R0
   \   0000057C   0170A0E1           MOV      R7,R1
   \   00000580   8074C7E3           BIC      R7,R7,#0x80000000
   \   00000584   0A00A0E1           MOV      R0,R10
   \   00000588   0B10A0E1           MOV      R1,R11
   \   0000058C   08D08DE2           ADD      SP,SP,#+8
   \   00000590   ........           _BLF     __dLess,??__dLess??rA
   \   00000594   000050E3           CMP      R0,#+0
   \   00000598   0600001A           BNE      ??Ctl_LPG_Calc_23E_15
   \   0000059C   ........           LDR      R2,??DataTable117  ;; 0xffffffffe2308c3a
   \   000005A0   58349FE5           LDR      R3,??Ctl_LPG_Calc_23E_5+0x24  ;; 0x3e45798e
   \   000005A4   0600A0E1           MOV      R0,R6
   \   000005A8   0710A0E1           MOV      R1,R7
   \   000005AC   ........           _BLF     __dLess,??__dLess??rA
   \   000005B0   000050E3           CMP      R0,#+0
   \   000005B4   1A00000A           BEQ      ??Ctl_LPG_Calc_23E_16
   \                     ??Ctl_LPG_Calc_23E_15:
   \   000005B8   0860A0E1           MOV      R6,R8
   \   000005BC   0970A0E1           MOV      R7,R9
    586                  }
    587              } while ( !Found && Cnt++ < 10 );
    588              if ( !Found ) {
    589                  return -1;
    590              }
    591              if ( Round ) {
   \                     ??Ctl_LPG_Calc_23E_17:
   \   000005C0   8800DDE5           LDRB     R0,[SP, #+136]
   \   000005C4   000050E3           CMP      R0,#+0
   \   000005C8   1100000A           BEQ      ??Ctl_LPG_Calc_23E_18
    592                  RD60 = APIRound(RD60,4);
   \   000005CC   0420A0E3           MOV      R2,#+4
   \   000005D0   0600A0E1           MOV      R0,R6
   \   000005D4   0710A0E1           MOV      R1,R7
   \   000005D8   ........           BL       ??APIRound
    593                  if ( RD60 < 0.3500 || RD60 > 0.6880 ) {
   \   000005DC   ........           LDR      R2,??DataTable134  ;; 0x66666666
   \   000005E0   ........           LDR      R3,??DataTable116  ;; 0x3fd66666
   \   000005E4   0060A0E1           MOV      R6,R0
   \   000005E8   0170A0E1           MOV      R7,R1
   \   000005EC   ........           _BLF     __dLess,??__dLess??rA
   \   000005F0   000050E3           CMP      R0,#+0
   \   000005F4   ACFEFF1A           BNE      ??Ctl_LPG_Calc_23E_2
   \   000005F8   04249FE5           LDR      R2,??Ctl_LPG_Calc_23E_5+0x28  ;; 0xffffffff9374bc6b
   \   000005FC   04349FE5           LDR      R3,??Ctl_LPG_Calc_23E_5+0x2C  ;; 0x3fe60418
   \   00000600   0600A0E1           MOV      R0,R6
   \   00000604   0710A0E1           MOV      R1,R7
   \   00000608   ........           _BLF     __dGreaterEqual,??__dGreaterEqual??rA
   \   0000060C   000050E3           CMP      R0,#+0
   \   00000610   A5FEFF1A           BNE      ??Ctl_LPG_Calc_23E_2
    594                      return -1;
    595                  }
    596              }
    597              return RD60;
   \                     ??Ctl_LPG_Calc_23E_18:
   \   00000614   0600A0E1           MOV      R0,R6
   \   00000618   0710A0E1           MOV      R1,R7
   \                     ??Ctl_LPG_Calc_23E_4:
   \   0000061C   64D08DE2           ADD      SP,SP,#+100
   \   00000620   ........           B        ?Subroutine37
   \                     ??Ctl_LPG_Calc_23E_16:
   \   00000624   28108DE2           ADD      R1,SP,#+40
   \   00000628   0C0091E8           LDM      R1,{R2,R3}
   \   0000062C   4C008DE2           ADD      R0,SP,#+76
   \   00000630   0C0080E8           STM      R0,{R2,R3}
   \   00000634   38008DE2           ADD      R0,SP,#+56
   \   00000638   030090E8           LDM      R0,{R0,R1}
   \   0000063C   0220A0E3           MOV      R2,#+2
   \   00000640   ........           _BLF     ??pow,??pow??rA
   \   00000644   0060A0E1           MOV      R6,R0
   \   00000648   0170A0E1           MOV      R7,R1
   \   0000064C   04008DE2           ADD      R0,SP,#+4
   \   00000650   030090E8           LDM      R0,{R0,R1}
   \   00000654   0220A0E3           MOV      R2,#+2
   \   00000658   ........           _BLF     ??pow,??pow??rA
   \   0000065C   0020A0E1           MOV      R2,R0
   \   00000660   0130A0E1           MOV      R3,R1
   \   00000664   0600A0E1           MOV      R0,R6
   \   00000668   0710A0E1           MOV      R1,R7
   \   0000066C   ........           _BLF     __dSub,??__dSub??rA
   \   00000670   28208DE2           ADD      R2,SP,#+40
   \   00000674   030082E8           STM      R2,{R0,R1}
   \   00000678   18008DE2           ADD      R0,SP,#+24
   \   0000067C   030090E8           LDM      R0,{R0,R1}
   \   00000680   04208DE2           ADD      R2,SP,#+4
   \   00000684   0C0092E8           LDM      R2,{R2,R3}
   \   00000688   5C608DE2           ADD      R6,SP,#+92
   \   0000068C   ........           _BLF     __dSub,??__dSub??rA
   \   00000690   030086E8           STM      R6,{R0,R1}
   \   00000694   44008DE2           ADD      R0,SP,#+68
   \   00000698   030090E8           LDM      R0,{R0,R1}
   \   0000069C   5C208DE2           ADD      R2,SP,#+92
   \   000006A0   0C0092E8           LDM      R2,{R2,R3}
   \   000006A4   ........           _BLF     __dDiv,??__dDiv??rA
   \   000006A8   00A0A0E1           MOV      R10,R0
   \   000006AC   01B0A0E1           MOV      R11,R1
   \   000006B0   18008DE2           ADD      R0,SP,#+24
   \   000006B4   030090E8           LDM      R0,{R0,R1}
   \   000006B8   0220A0E3           MOV      R2,#+2
   \   000006BC   ........           _BLF     ??pow,??pow??rA
   \   000006C0   0060A0E1           MOV      R6,R0
   \   000006C4   0170A0E1           MOV      R7,R1
   \   000006C8   04008DE2           ADD      R0,SP,#+4
   \   000006CC   030090E8           LDM      R0,{R0,R1}
   \   000006D0   0220A0E3           MOV      R2,#+2
   \   000006D4   ........           _BLF     ??pow,??pow??rA
   \   000006D8   0620A0E1           MOV      R2,R6
   \   000006DC   0730A0E1           MOV      R3,R7
   \   000006E0   ........           _BLF     __dSub,??__dSub??rA
   \   000006E4   0A20A0E1           MOV      R2,R10
   \   000006E8   0B30A0E1           MOV      R3,R11
   \   000006EC   ........           _BLF     __dMul,??__dMul??rA
   \   000006F0   28208DE2           ADD      R2,SP,#+40
   \   000006F4   0C0092E8           LDM      R2,{R2,R3}
   \   000006F8   ........           _BLF     __dAdd,??__dAdd??rA
   \   000006FC   0060A0E1           MOV      R6,R0
   \   00000700   0170A0E1           MOV      R7,R1
   \   00000704   0400A0E1           MOV      R0,R4
   \   00000708   0510A0E1           MOV      R1,R5
   \   0000070C   0820A0E1           MOV      R2,R8
   \   00000710   0930A0E1           MOV      R3,R9
   \   00000714   ........           _BLF     __dSub,??__dSub??rA
   \   00000718   0A20A0E1           MOV      R2,R10
   \   0000071C   0B30A0E1           MOV      R3,R11
   \   00000720   ........           _BLF     __dMul,??__dMul??rA
   \   00000724   4C208DE2           ADD      R2,SP,#+76
   \   00000728   0C0092E8           LDM      R2,{R2,R3}
   \   0000072C   ........           _BLF     __dAdd,??__dAdd??rA
   \   00000730   0620A0E1           MOV      R2,R6
   \   00000734   0730A0E1           MOV      R3,R7
   \   00000738   ........           _BLF     __dDiv,??__dDiv??rA
   \   0000073C   0060A0E1           MOV      R6,R0
   \   00000740   0170A0E1           MOV      R7,R1
   \   00000744   28008DE2           ADD      R0,SP,#+40
   \   00000748   030090E8           LDM      R0,{R0,R1}
   \   0000074C   0620A0E1           MOV      R2,R6
   \   00000750   0730A0E1           MOV      R3,R7
   \   00000754   ........           _BLF     __dMul,??__dMul??rA
   \   00000758   0020A0E1           MOV      R2,R0
   \   0000075C   0130A0E1           MOV      R3,R1
   \   00000760   4C008DE2           ADD      R0,SP,#+76
   \   00000764   030090E8           LDM      R0,{R0,R1}
   \   00000768   ........           _BLF     __dSub,??__dSub??rA
   \   0000076C   44208DE2           ADD      R2,SP,#+68
   \   00000770   0C0092E8           LDM      R2,{R2,R3}
   \   00000774   ........           _BLF     __dDiv,??__dDiv??rA
   \   00000778   00A0A0E1           MOV      R10,R0
   \   0000077C   01B0A0E1           MOV      R11,R1
   \   00000780   04008DE2           ADD      R0,SP,#+4
   \   00000784   030090E8           LDM      R0,{R0,R1}
   \   00000788   0220A0E3           MOV      R2,#+2
   \   0000078C   ........           _BLF     ??pow,??pow??rA
   \   00000790   0620A0E1           MOV      R2,R6
   \   00000794   0730A0E1           MOV      R3,R7
   \   00000798   ........           _BLF     __dMul,??__dMul??rA
   \   0000079C   0020A0E1           MOV      R2,R0
   \   000007A0   0130A0E1           MOV      R3,R1
   \   000007A4   0C002DE9           PUSH     {R2,R3}
   \   000007A8   0C008DE2           ADD      R0,SP,#+12
   \   000007AC   030090E8           LDM      R0,{R0,R1}
   \   000007B0   0A20A0E1           MOV      R2,R10
   \   000007B4   0B30A0E1           MOV      R3,R11
   \   000007B8   ........           _BLF     __dMul,??__dMul??rA
   \   000007BC   0020A0E1           MOV      R2,R0
   \   000007C0   0130A0E1           MOV      R3,R1
   \   000007C4   0400A0E1           MOV      R0,R4
   \   000007C8   0510A0E1           MOV      R1,R5
   \   000007CC   ........           _BLF     __dSub,??__dSub??rA
   \   000007D0   0C00BDE8           POP      {R2,R3}
   \   000007D4   ........           _BLF     __dSub,??__dSub??rA
   \   000007D8   28208DE2           ADD      R2,SP,#+40
   \   000007DC   030082E8           STM      R2,{R0,R1}
   \   000007E0   0C008DE2           ADD      R0,SP,#+12
   \   000007E4   030090E8           LDM      R0,{R0,R1}
   \   000007E8   0A20A0E1           MOV      R2,R10
   \   000007EC   0B30A0E1           MOV      R3,R11
   \   000007F0   ........           _BLF     __dMul,??__dMul??rA
   \   000007F4   00A0A0E1           MOV      R10,R0
   \   000007F8   01B0A0E1           MOV      R11,R1
   \   000007FC   0C008DE2           ADD      R0,SP,#+12
   \   00000800   030090E8           LDM      R0,{R0,R1}
   \   00000804   0220A0E3           MOV      R2,#+2
   \   00000808   ........           _BLF     ??pow,??pow??rA
   \   0000080C   0620A0E1           MOV      R2,R6
   \   00000810   0730A0E1           MOV      R3,R7
   \   00000814   ........           _BLF     __dMul,??__dMul??rA
   \   00000818   0A20A0E1           MOV      R2,R10
   \   0000081C   0B30A0E1           MOV      R3,R11
   \   00000820   ........           _BLF     __dAdd,??__dAdd??rA
   \   00000824   28208DE2           ADD      R2,SP,#+40
   \   00000828   0C0092E8           LDM      R2,{R2,R3}
   \   0000082C   ........           _BLF     __dAdd,??__dAdd??rA
   \   00000830   0060A0E1           MOV      R6,R0
   \   00000834   0170A0E1           MOV      R7,R1
   \   00000838   0420A0E1           MOV      R2,R4
   \   0000083C   0530A0E1           MOV      R3,R5
   \   00000840   ........           _BLF     __dLess,??__dLess??rA
   \   00000844   000050E3           CMP      R0,#+0
   \   00000848   0D00000A           BEQ      ??Ctl_LPG_Calc_23E_19
   \   0000084C   0800A0E1           MOV      R0,R8
   \   00000850   0910A0E1           MOV      R1,R9
   \   00000854   0420A0E1           MOV      R2,R4
   \   00000858   0530A0E1           MOV      R3,R5
   \   0000085C   ........           _BLF     __dSub,??__dSub??rA
   \   00000860   54208DE2           ADD      R2,SP,#+84
   \   00000864   0C0092E8           LDM      R2,{R2,R3}
   \   00000868   ........           _BLF     __dMul,??__dMul??rA
   \   0000086C   5C208DE2           ADD      R2,SP,#+92
   \   00000870   0C0092E8           LDM      R2,{R2,R3}
   \   00000874   ........           _BLF     __dDiv,??__dDiv??rA
   \   00000878   0420A0E1           MOV      R2,R4
   \   0000087C   0530A0E1           MOV      R3,R5
   \   00000880   210000EA           B        ??Ctl_LPG_Calc_23E_20
   \                     ??Ctl_LPG_Calc_23E_19:
   \   00000884   30008DE2           ADD      R0,SP,#+48
   \   00000888   030090E8           LDM      R0,{R0,R1}
   \   0000088C   0620A0E1           MOV      R2,R6
   \   00000890   0730A0E1           MOV      R3,R7
   \   00000894   ........           _BLF     __dLess,??__dLess??rA
   \   00000898   000050E3           CMP      R0,#+0
   \   0000089C   1D00000A           BEQ      ??Ctl_LPG_Calc_23E_21
   \   000008A0   38008DE2           ADD      R0,SP,#+56
   \   000008A4   030090E8           LDM      R0,{R0,R1}
   \   000008A8   18208DE2           ADD      R2,SP,#+24
   \   000008AC   0C0092E8           LDM      R2,{R2,R3}
   \   000008B0   ........           _BLF     __dSub,??__dSub??rA
   \   000008B4   00A0A0E1           MOV      R10,R0
   \   000008B8   01B0A0E1           MOV      R11,R1
   \   000008BC   0C008DE2           ADD      R0,SP,#+12
   \   000008C0   030090E8           LDM      R0,{R0,R1}
   \   000008C4   18208DE2           ADD      R2,SP,#+24
   \   000008C8   0C0092E8           LDM      R2,{R2,R3}
   \   000008CC   ........           _BLF     __dSub,??__dSub??rA
   \   000008D0   0060A0E1           MOV      R6,R0
   \   000008D4   0170A0E1           MOV      R7,R1
   \   000008D8   30008DE2           ADD      R0,SP,#+48
   \   000008DC   030090E8           LDM      R0,{R0,R1}
   \   000008E0   0820A0E1           MOV      R2,R8
   \   000008E4   0930A0E1           MOV      R3,R9
   \   000008E8   ........           _BLF     __dSub,??__dSub??rA
   \   000008EC   0620A0E1           MOV      R2,R6
   \   000008F0   0730A0E1           MOV      R3,R7
   \   000008F4   ........           _BLF     __dMul,??__dMul??rA
   \   000008F8   0A20A0E1           MOV      R2,R10
   \   000008FC   0B30A0E1           MOV      R3,R11
   \   00000900   ........           _BLF     __dDiv,??__dDiv??rA
   \   00000904   0820A0E1           MOV      R2,R8
   \   00000908   0930A0E1           MOV      R3,R9
   \                     ??Ctl_LPG_Calc_23E_20:
   \   0000090C   ........           _BLF     __dAdd,??__dAdd??rA
   \   00000910   0060A0E1           MOV      R6,R0
   \   00000914   0170A0E1           MOV      R7,R1
   \                     ??Ctl_LPG_Calc_23E_21:
   \   00000918   00009DE5           LDR      R0,[SP, #+0]
   \   0000091C   0710A0E1           MOV      R1,R7
   \   00000920   01002DE9           PUSH     {R0}
   \   00000924   18009DE5           LDR      R0,[SP, #+24]
   \   00000928   01002DE9           PUSH     {R0}
   \   0000092C   28008DE2           ADD      R0,SP,#+40
   \   00000930   0C0090E8           LDM      R0,{R2,R3}
   \   00000934   0600A0E1           MOV      R0,R6
   \   00000938   ........           BL       ??CalcCtl
   \   0000093C   0620A0E1           MOV      R2,R6
   \   00000940   0730A0E1           MOV      R3,R7
   \   00000944   ........           _BLF     __dMul,??__dMul??rA
   \   00000948   14208DE2           ADD      R2,SP,#+20
   \   0000094C   0C0092E8           LDM      R2,{R2,R3}
   \   00000950   00A0A0E1           MOV      R10,R0
   \   00000954   01B0A0E1           MOV      R11,R1
   \   00000958   ........           _BLF     __dSub,??__dSub??rA
   \   0000095C   ........           LDR      R2,??DataTable117  ;; 0xffffffffe2308c3a
   \   00000960   98309FE5           LDR      R3,??Ctl_LPG_Calc_23E_5+0x24  ;; 0x3e45798e
   \   00000964   8014C1E3           BIC      R1,R1,#0x80000000
   \   00000968   08D08DE2           ADD      SP,SP,#+8
   \   0000096C   ........           _BLF     __dLess,??__dLess??rA
   \   00000970   000050E3           CMP      R0,#+0
   \   00000974   11FFFF1A           BNE      ??Ctl_LPG_Calc_23E_17
   \   00000978   0C008DE2           ADD      R0,SP,#+12
   \   0000097C   030090E8           LDM      R0,{R0,R1}
   \   00000980   0A20A0E1           MOV      R2,R10
   \   00000984   0B30A0E1           MOV      R3,R11
   \   00000988   ........           _BLF     __dLess,??__dLess??rA
   \   0000098C   000050E3           CMP      R0,#+0
   \   00000990   8AFEFF0A           BEQ      ??Ctl_LPG_Calc_23E_12
   \   00000994   38008DE2           ADD      R0,SP,#+56
   \   00000998   000C80E8           STM      R0,{R10,R11}
   \   0000099C   30008DE2           ADD      R0,SP,#+48
   \   000009A0   C00080E8           STM      R0,{R6,R7}
   \   000009A4   18008DE2           ADD      R0,SP,#+24
   \   000009A8   030090E8           LDM      R0,{R0,R1}
   \   000009AC   0C208DE2           ADD      R2,SP,#+12
   \   000009B0   0C0092E8           LDM      R2,{R2,R3}
   \   000009B4   ........           _BLF     __dLess,??__dLess??rA
   \   000009B8   000050E3           CMP      R0,#+0
   \   000009BC   97FEFF0A           BEQ      ??Ctl_LPG_Calc_23E_13
   \   000009C0   18108DE2           ADD      R1,SP,#+24
   \   000009C4   0C0091E8           LDM      R1,{R2,R3}
   \   000009C8   04008DE2           ADD      R0,SP,#+4
   \   000009CC   0840A0E1           MOV      R4,R8
   \   000009D0   0950A0E1           MOV      R5,R9
   \   000009D4   0C0080E8           STM      R0,{R2,R3}
   \   000009D8   90FEFFEA           B        ??Ctl_LPG_Calc_23E_13
   \                     ??Ctl_LPG_Calc_23E_5:
   \   000009DC   E17A14AE           DC32     0xffffffffae147ae1
   \   000009E0   47E1CA3F           DC32     0x3fcae147
   \   000009E4   AF47E17A           DC32     0x7ae147af
   \   000009E8   14AEE73F           DC32     0x3fe7ae14
   \   000009EC   FCA9F1D2           DC32     0xffffffffd2f1a9fc
   \   000009F0   4D62503F           DC32     0x3f50624d
   \   000009F4   2C8716D9           DC32     0xffffffffd916872c
   \   000009F8   CEF7EF3F           DC32     0x3feff7ce
   \   000009FC   2B8716D9           DC32     0xffffffffd916872b
   \   00000A00   8E79453E           DC32     0x3e45798e
   \   00000A04   6BBC7493           DC32     0xffffffff9374bc6b
   \   00000A08   1804E63F           DC32     0x3fe60418
    598          }
    599          

   \                                 In segment CODE, align 4, keep-with-next
    600          double Ctl_LPG_Calc_54E(double RDns15, double TempC)
    601          {
   \                     ??Ctl_LPG_Calc_54E:
   \   00000000   F04F2DE9           PUSH     {R4-R11,LR}
   \   00000004   0080A0E1           MOV      R8,R0
   \   00000008   0190A0E1           MOV      R9,R1
   \   0000000C   0200A0E1           MOV      R0,R2
   \   00000010   0310A0E1           MOV      R1,R3
    602              // T54/1
    603              double Tf    = APIRound5(TempC ,2);
   \   00000014   0220A0E3           MOV      R2,#+2
   \   00000018   ........           BL       ??APIRound5
   \   0000001C   0040A0E1           MOV      R4,R0
   \   00000020   0150A0E1           MOV      R5,R1
    604              double Dns15 = APIRound(RDns15,4);
   \   00000024   0420A0E3           MOV      R2,#+4
   \   00000028   0800A0E1           MOV      R0,R8
   \   0000002C   0910A0E1           MOV      R1,R9
   \   00000030   ........           BL       ??APIRound
   \   00000034   0080A0E1           MOV      R8,R0
    605              //T54/2
    606              double Tx     = Tf + TEMP_ZERO;
   \   00000038   ........           LDR      R0,??DataTable134  ;; 0x66666666
   \   0000003C   0190A0E1           MOV      R9,R1
   \   00000040   ........           LDR      R1,??DataTable160  ;; 0x40711266
   \   00000044   0420A0E1           MOV      R2,R4
   \   00000048   0530A0E1           MOV      R3,R5
   \   0000004C   ........           _BLF     __dAdd,??__dAdd??rA
   \   00000050   00A0A0E1           MOV      R10,R0
   \   00000054   01B0A0E1           MOV      R11,R1
    607              //T54/3
    608              if ( ( Tf < -46.0 ) || ( Tf > 93.0 ) ) return -1.0; // Error, temp out of range
   \   00000058   0400A0E1           MOV      R0,R4
   \   0000005C   0510A0E1           MOV      R1,R5
   \   00000060   0020A0E3           MOV      R2,#+0
   \   00000064   C034A0E3           MOV      R3,#-1073741824
   \   00000068   473883E3           ORR      R3,R3,#0x470000
   \   0000006C   ........           _BLF     __dLess,??__dLess??rA
   \   00000070   000050E3           CMP      R0,#+0
   \   00000074   0600001A           BNE      ??Ctl_LPG_Calc_54E_1
   \   00000078   ........           LDR      R3,??DataTable150  ;; 0x40574000
   \   0000007C   0400A0E1           MOV      R0,R4
   \   00000080   0510A0E1           MOV      R1,R5
   \   00000084   0120A0E3           MOV      R2,#+1
   \   00000088   ........           _BLF     __dGreaterEqual,??__dGreaterEqual??rA
   \   0000008C   000050E3           CMP      R0,#+0
   \   00000090   0300000A           BEQ      ??Ctl_LPG_Calc_54E_2
   \                     ??Ctl_LPG_Calc_54E_1:
   \   00000094   0000A0E3           MOV      R0,#+0
   \   00000098   B014A0E3           MOV      R1,#-1342177280
   \   0000009C   FF1681E3           ORR      R1,R1,#0xFF00000
   \   000000A0   590000EA           B        ??Ctl_LPG_Calc_54E_3
    609          
    610              //T54/4
    611              double RDtb = Dns15/0.999016;
    612              //T54/5
    613              double RD60 = Ctl_LPG_Calc_23E(RDtb,15.0,false);
   \                     ??Ctl_LPG_Calc_54E_2:
   \   000000A4   ........           LDR      R2,??DataTable156  ;; 0x6705c897
   \   000000A8   4034A0E3           MOV      R3,#+1073741824
   \   000000AC   B85983E3           ORR      R5,R3,#0x2E0000
   \   000000B0   ........           LDR      R3,??DataTable157  ;; 0x3feff7f0
   \   000000B4   01002DE9           PUSH     {R0}
   \   000000B8   0800A0E1           MOV      R0,R8
   \   000000BC   0910A0E1           MOV      R1,R9
   \   000000C0   ........           _BLF     __dDiv,??__dDiv??rA
   \   000000C4   0020A0E3           MOV      R2,#+0
   \   000000C8   0530A0E1           MOV      R3,R5
   \   000000CC   ........           BL       ??Ctl_LPG_Calc_23E
   \   000000D0   0040A0E1           MOV      R4,R0
   \   000000D4   0150A0E1           MOV      R5,R1
    614              //T54/6
    615              double RD60Rounded = APIRound(RD60,5);
   \   000000D8   0520A0E3           MOV      R2,#+5
   \   000000DC   ........           BL       ??APIRound
    616              if ( RD60Rounded < 0.34995 || RD60Rounded > 0.68805 ) {
   \   000000E0   ........           LDR      R2,??DataTable143  ;; 0xffffffffaf4f0d84
   \   000000E4   ........           LDR      R3,??DataTable144  ;; 0x3fd66594
   \   000000E8   0080A0E1           MOV      R8,R0
   \   000000EC   0190A0E1           MOV      R9,R1
   \   000000F0   04D08DE2           ADD      SP,SP,#+4
   \   000000F4   ........           _BLF     __dLess,??__dLess??rA
   \   000000F8   000050E3           CMP      R0,#+0
   \   000000FC   E4FFFF1A           BNE      ??Ctl_LPG_Calc_54E_1
   \   00000100   ........           LDR      R2,??DataTable145  ;; 0x6f0068dd
   \   00000104   ........           LDR      R3,??DataTable146  ;; 0x3fe60481
   \   00000108   0800A0E1           MOV      R0,R8
   \   0000010C   0910A0E1           MOV      R1,R9
   \   00000110   ........           _BLF     __dGreaterEqual,??__dGreaterEqual??rA
   \   00000114   000050E3           CMP      R0,#+0
   \   00000118   DDFFFF1A           BNE      ??Ctl_LPG_Calc_54E_1
    617                  return -1;
    618              }
    619              // Select the Gas
    620              int Index = -1;
   \   0000011C   0060E0E3           MVN      R6,#+0
    621              for ( unsigned i=0; Index < 0  && (i < NELEMENTS(Fluids)); i++ ) {
   \   00000120   0070A0E3           MOV      R7,#+0
    622                  if ( Fluids[i].Lamda60 >= RD60 ) {
   \                     ??Ctl_LPG_Calc_54E_4:
   \   00000124   ........           LDR      R1,??DataTable147  ;; Fluids
   \   00000128   5000A0E3           MOV      R0,#+80
   \   0000012C   901722E0           MLA      R2,R0,R7,R1
   \   00000130   100092E5           LDR      R0,[R2, #+16]
   \   00000134   141092E5           LDR      R1,[R2, #+20]
   \   00000138   0420A0E1           MOV      R2,R4
   \   0000013C   0530A0E1           MOV      R3,R5
   \   00000140   ........           _BLF     __dGreaterEqual,??__dGreaterEqual??rA
   \   00000144   000050E3           CMP      R0,#+0
    623                      Index = i;
   \   00000148   0760A011           MOVNE    R6,R7
    624                  }
    625              }
   \   0000014C   017087E2           ADD      R7,R7,#+1
   \   00000150   000056E3           CMP      R6,#+0
   \   00000154   0100005A           BPL      ??Ctl_LPG_Calc_54E_5
   \   00000158   0C0057E3           CMP      R7,#+12
   \   0000015C   F0FFFF3A           BCC      ??Ctl_LPG_Calc_54E_4
    626              if ( Index== -1 ) {
   \                     ??Ctl_LPG_Calc_54E_5:
   \   00000160   010076E3           CMN      R6,#+1
    627                  return -1.0;
   \   00000164   0000A003           MOVEQ    R0,#+0
   \   00000168   B014A003           MOVEQ    R1,#-1342177280
   \   0000016C   FF168103           ORREQ    R1,R1,#0xFF00000
   \   00000170   2500000A           BEQ      ??Ctl_LPG_Calc_54E_3
    628              } else if ( !Index ) {
   \   00000174   000056E3           CMP      R6,#+0
    629                  Index++;
   \   00000178   0160A003           MOVEQ    R6,#+1
    630              }
    631              double Ctl1 = CalcCtl(RD60,Tx  ,Index-1,Index);
   \   0000017C   017046E2           SUB      R7,R6,#+1
   \   00000180   0600A0E1           MOV      R0,R6
   \   00000184   01002DE9           PUSH     {R0}
   \   00000188   0700A0E1           MOV      R0,R7
   \   0000018C   01002DE9           PUSH     {R0}
   \   00000190   0A20A0E1           MOV      R2,R10
   \   00000194   0B30A0E1           MOV      R3,R11
   \   00000198   0400A0E1           MOV      R0,R4
   \   0000019C   0510A0E1           MOV      R1,R5
   \   000001A0   ........           BL       ??CalcCtl
    632              double Ctl2 = CalcCtl(RD60,15.0+TEMP_ZERO  ,Index-1,Index);
    633              double Ctl  = Ctl1/Ctl2;
   \   000001A4   ........           LDR      R2,??DataTable134  ;; 0x66666666
   \   000001A8   ........           LDR      R3,??DataTable135  ;; 0x40720266
   \   000001AC   0080A0E1           MOV      R8,R0
   \   000001B0   0190A0E1           MOV      R9,R1
   \   000001B4   40002DE9           PUSH     {R6}
   \   000001B8   80002DE9           PUSH     {R7}
   \   000001BC   0400A0E1           MOV      R0,R4
   \   000001C0   0510A0E1           MOV      R1,R5
   \   000001C4   ........           BL       ??CalcCtl
   \   000001C8   0020A0E1           MOV      R2,R0
   \   000001CC   0130A0E1           MOV      R3,R1
   \   000001D0   0800A0E1           MOV      R0,R8
   \   000001D4   0910A0E1           MOV      R1,R9
   \   000001D8   ........           _BLF     __dDiv,??__dDiv??rA
   \   000001DC   0040A0E1           MOV      R4,R0
   \   000001E0   0150A0E1           MOV      R5,R1
    634              if ( Ctl < 0.0 ) {
   \   000001E4   0020A0E3           MOV      R2,#+0
   \   000001E8   0030A0E3           MOV      R3,#+0
   \   000001EC   10D08DE2           ADD      SP,SP,#+16
   \   000001F0   ........           _BLF     __dLess,??__dLess??rA
   \   000001F4   000050E3           CMP      R0,#+0
   \   000001F8   A5FFFF1A           BNE      ??Ctl_LPG_Calc_54E_1
    635                  return -1;
    636              }
    637              Ctl = APIRound(Ctl,5);
    638              return Ctl;
   \   000001FC   0520A0E3           MOV      R2,#+5
   \   00000200   0400A0E1           MOV      R0,R4
   \   00000204   0510A0E1           MOV      R1,R5
   \   00000208   ........           BL       ??APIRound
   \                     ??Ctl_LPG_Calc_54E_3:
   \   0000020C   ........           B        ?Subroutine37
    639          }
    640          

   \                                 In segment CODE, align 4, keep-with-next
    641          double Ctl_LPG_Calc_53E(double ODns, double TempC)
    642          {
   \                     ??Ctl_LPG_Calc_53E:
   \   00000000   F0412DE9           PUSH     {R4-R8,LR}
   \   00000004   0060A0E1           MOV      R6,R0
   \   00000008   0170A0E1           MOV      R7,R1
   \   0000000C   0200A0E1           MOV      R0,R2
   \   00000010   0310A0E1           MOV      R1,R3
    643              // T53/1
    644              double Tf   = APIRound5(TempC ,2);
   \   00000014   0220A0E3           MOV      R2,#+2
   \   00000018   ........           BL       ??APIRound5
   \   0000001C   0040A0E1           MOV      R4,R0
   \   00000020   0150A0E1           MOV      R5,R1
    645              double RDtf = APIRound(ODns,4);
   \   00000024   0420A0E3           MOV      R2,#+4
   \   00000028   0600A0E1           MOV      R0,R6
   \   0000002C   0710A0E1           MOV      R1,R7
   \   00000030   ........           BL       ??APIRound
   \   00000034   0060A0E1           MOV      R6,R0
   \   00000038   0170A0E1           MOV      R7,R1
    646              //T53/2
    647              //double Tx     = Tf + TEMP_ZERO;
    648              //T53/3
    649              if ( ( Tf < -46.0 ) || ( Tf > 93.0 ) ) return -1.0; // Error, temp out of range
   \   0000003C   0400A0E1           MOV      R0,R4
   \   00000040   0510A0E1           MOV      R1,R5
   \   00000044   0020A0E3           MOV      R2,#+0
   \   00000048   C034A0E3           MOV      R3,#-1073741824
   \   0000004C   473883E3           ORR      R3,R3,#0x470000
   \   00000050   ........           _BLF     __dLess,??__dLess??rA
   \   00000054   000050E3           CMP      R0,#+0
   \   00000058   0600001A           BNE      ??Ctl_LPG_Calc_53E_1
   \   0000005C   ........           LDR      R3,??DataTable150  ;; 0x40574000
   \   00000060   0400A0E1           MOV      R0,R4
   \   00000064   0510A0E1           MOV      R1,R5
   \   00000068   0120A0E3           MOV      R2,#+1
   \   0000006C   ........           _BLF     __dGreaterEqual,??__dGreaterEqual??rA
   \   00000070   000050E3           CMP      R0,#+0
   \   00000074   0300000A           BEQ      ??Ctl_LPG_Calc_53E_2
   \                     ??Ctl_LPG_Calc_53E_1:
   \   00000078   0000A0E3           MOV      R0,#+0
   \   0000007C   B014A0E3           MOV      R1,#-1342177280
   \   00000080   FF1681E3           ORR      R1,R1,#0xFF00000
   \   00000084   460000EA           B        ??Ctl_LPG_Calc_53E_3
    650          
    651              //T53/4
    652              double RDtb = RDtf/0.999016;
    653              //T53/5
    654              double RD60 = Ctl_LPG_Calc_23E(RDtb,Tf,false);
   \                     ??Ctl_LPG_Calc_53E_2:
   \   00000088   ........           LDR      R2,??DataTable156  ;; 0x6705c897
   \   0000008C   ........           LDR      R3,??DataTable157  ;; 0x3feff7f0
   \   00000090   01002DE9           PUSH     {R0}
   \   00000094   0600A0E1           MOV      R0,R6
   \   00000098   0710A0E1           MOV      R1,R7
   \   0000009C   ........           _BLF     __dDiv,??__dDiv??rA
   \   000000A0   0420A0E1           MOV      R2,R4
   \   000000A4   0530A0E1           MOV      R3,R5
   \   000000A8   ........           BL       ??Ctl_LPG_Calc_23E
   \   000000AC   0040A0E1           MOV      R4,R0
   \   000000B0   0150A0E1           MOV      R5,R1
    655              if ( RD60 == -1.0 ) {
   \   000000B4   0000A0E3           MOV      R0,#+0
   \   000000B8   B014A0E3           MOV      R1,#-1342177280
   \   000000BC   FF1681E3           ORR      R1,R1,#0xFF00000
   \   000000C0   04D08DE2           ADD      SP,SP,#+4
   \   000000C4   0420A0E1           MOV      R2,R4
   \   000000C8   0530A0E1           MOV      R3,R5
   \   000000CC   ........           _BLF     __dEqual,??__dEqual??rA
   \   000000D0   000050E3           CMP      R0,#+0
   \   000000D4   E7FFFF1A           BNE      ??Ctl_LPG_Calc_53E_1
    656                  return -1;
    657              }
    658              //T53/6
    659          
    660              // Select the Gas
    661              int Index = -1;
   \   000000D8   0080E0E3           MVN      R8,#+0
    662              for ( unsigned i=0; Index < 0  && (i < NELEMENTS(Fluids)); i++ ) {
   \   000000DC   0060A0E3           MOV      R6,#+0
    663                  if ( Fluids[i].Lamda60 >= RD60 ) {
   \                     ??Ctl_LPG_Calc_53E_4:
   \   000000E0   ........           LDR      R1,??DataTable147  ;; Fluids
   \   000000E4   5000A0E3           MOV      R0,#+80
   \   000000E8   901622E0           MLA      R2,R0,R6,R1
   \   000000EC   100092E5           LDR      R0,[R2, #+16]
   \   000000F0   141092E5           LDR      R1,[R2, #+20]
   \   000000F4   0420A0E1           MOV      R2,R4
   \   000000F8   0530A0E1           MOV      R3,R5
   \   000000FC   ........           _BLF     __dGreaterEqual,??__dGreaterEqual??rA
   \   00000100   000050E3           CMP      R0,#+0
    664                      Index = i;
   \   00000104   0680A011           MOVNE    R8,R6
    665                  }
    666              }
   \   00000108   016086E2           ADD      R6,R6,#+1
   \   0000010C   000058E3           CMP      R8,#+0
   \   00000110   0100005A           BPL      ??Ctl_LPG_Calc_53E_5
   \   00000114   0C0056E3           CMP      R6,#+12
   \   00000118   F0FFFF3A           BCC      ??Ctl_LPG_Calc_53E_4
    667              if ( Index== -1 ) {
   \                     ??Ctl_LPG_Calc_53E_5:
   \   0000011C   010078E3           CMN      R8,#+1
    668                  return -1.0;
   \   00000120   0000A003           MOVEQ    R0,#+0
   \   00000124   B014A003           MOVEQ    R1,#-1342177280
   \   00000128   FF168103           ORREQ    R1,R1,#0xFF00000
   \   0000012C   1C00000A           BEQ      ??Ctl_LPG_Calc_53E_3
    669              } else if ( !Index ) {
    670                  Index++;
    671              }
    672              double Ctl = CalcCtl(RD60,15.0+TEMP_ZERO  ,Index-1,Index);
   \   00000130   ........           LDR      R2,??DataTable134  ;; 0x66666666
   \   00000134   ........           LDR      R3,??DataTable135  ;; 0x40720266
   \   00000138   000058E3           CMP      R8,#+0
   \   0000013C   0180A003           MOVEQ    R8,#+1
   \   00000140   0800A0E1           MOV      R0,R8
   \   00000144   01002DE9           PUSH     {R0}
   \   00000148   010048E2           SUB      R0,R8,#+1
   \   0000014C   01002DE9           PUSH     {R0}
   \   00000150   0400A0E1           MOV      R0,R4
   \   00000154   0510A0E1           MOV      R1,R5
   \   00000158   ........           BL       ??CalcCtl
   \   0000015C   0060A0E1           MOV      R6,R0
   \   00000160   0170A0E1           MOV      R7,R1
    673              //T53/7
    674              if ( Ctl < 0.0 ) {
   \   00000164   0020A0E3           MOV      R2,#+0
   \   00000168   0030A0E3           MOV      R3,#+0
   \   0000016C   08D08DE2           ADD      SP,SP,#+8
   \   00000170   ........           _BLF     __dLess,??__dLess??rA
   \   00000174   000050E3           CMP      R0,#+0
   \   00000178   BEFFFF1A           BNE      ??Ctl_LPG_Calc_53E_1
    675                  return -1;
    676              }
    677              //T53/6 continued
    678              double RD15 = Ctl * RD60;
    679              //T53/8
    680              double Rho15 = RD15*0.999016;
    681              //T53/9
    682              Rho15 = APIRound(Rho15,4);
    683              return Rho15;
   \   0000017C   0420A0E1           MOV      R2,R4
   \   00000180   0530A0E1           MOV      R3,R5
   \   00000184   0600A0E1           MOV      R0,R6
   \   00000188   0710A0E1           MOV      R1,R7
   \   0000018C   ........           _BLF     __dMul,??__dMul??rA
   \   00000190   ........           LDR      R2,??DataTable156  ;; 0x6705c897
   \   00000194   ........           LDR      R3,??DataTable157  ;; 0x3feff7f0
   \   00000198   ........           _BLF     __dMul,??__dMul??rA
   \   0000019C   0420A0E3           MOV      R2,#+4
   \   000001A0   ........           BL       ??APIRound
   \                     ??Ctl_LPG_Calc_53E_3:
   \   000001A4   ........           B        ?Subroutine38
    684          }

   \                                 In segment CODE, align 4, keep-with-next
   \                     ?Subroutine38:
   \   00000000   F041BDE8           POP      {R4-R8,LR}
   \   00000004   1EFF2FE1           BX       LR               ;; return
    685          

   \                                 In segment CODE, align 4, keep-with-next
    686          double Ctl_LPG_Calc_60E(double RDns20, double TempC)
    687          {
   \                     ??Ctl_LPG_Calc_60E:
   \   00000000   F04F2DE9           PUSH     {R4-R11,LR}
   \   00000004   0080A0E1           MOV      R8,R0
   \   00000008   0190A0E1           MOV      R9,R1
   \   0000000C   0200A0E1           MOV      R0,R2
   \   00000010   0310A0E1           MOV      R1,R3
    688              // T60/1
    689              double Tf    = APIRound5(TempC ,2);
   \   00000014   0220A0E3           MOV      R2,#+2
   \   00000018   ........           BL       ??APIRound5
   \   0000001C   0040A0E1           MOV      R4,R0
   \   00000020   0150A0E1           MOV      R5,R1
    690              double Dns20 = APIRound(RDns20,4);
   \   00000024   0420A0E3           MOV      R2,#+4
   \   00000028   0800A0E1           MOV      R0,R8
   \   0000002C   0910A0E1           MOV      R1,R9
   \   00000030   ........           BL       ??APIRound
   \   00000034   0080A0E1           MOV      R8,R0
    691              //T60/2
    692              double Tx     = Tf + TEMP_ZERO;
   \   00000038   ........           LDR      R0,??DataTable161  ;; 0x66666666
   \   0000003C   0190A0E1           MOV      R9,R1
   \   00000040   ........           LDR      R1,??DataTable160  ;; 0x40711266
   \   00000044   0420A0E1           MOV      R2,R4
   \   00000048   0530A0E1           MOV      R3,R5
   \   0000004C   ........           _BLF     __dAdd,??__dAdd??rA
   \   00000050   00A0A0E1           MOV      R10,R0
   \   00000054   01B0A0E1           MOV      R11,R1
    693              //T60/3
    694              if ( ( Tf    < -46.0 ) || ( Tf    > 93.0  ) ) return -1.0; // Error, temp out of range
   \   00000058   0400A0E1           MOV      R0,R4
   \   0000005C   0510A0E1           MOV      R1,R5
   \   00000060   0020A0E3           MOV      R2,#+0
   \   00000064   C034A0E3           MOV      R3,#-1073741824
   \   00000068   473883E3           ORR      R3,R3,#0x470000
   \   0000006C   ........           _BLF     __dLess,??__dLess??rA
   \   00000070   000050E3           CMP      R0,#+0
   \   00000074   0600001A           BNE      ??Ctl_LPG_Calc_60E_1
   \   00000078   ........           LDR      R3,??DataTable150  ;; 0x40574000
   \   0000007C   0400A0E1           MOV      R0,R4
   \   00000080   0510A0E1           MOV      R1,R5
   \   00000084   0120A0E3           MOV      R2,#+1
   \   00000088   ........           _BLF     __dGreaterEqual,??__dGreaterEqual??rA
   \   0000008C   000050E3           CMP      R0,#+0
   \   00000090   0300000A           BEQ      ??Ctl_LPG_Calc_60E_2
   \                     ??Ctl_LPG_Calc_60E_1:
   \   00000094   0000A0E3           MOV      R0,#+0
   \   00000098   B014A0E3           MOV      R1,#-1342177280
   \   0000009C   FF1681E3           ORR      R1,R1,#0xFF00000
   \   000000A0   640000EA           B        ??Ctl_LPG_Calc_60E_3
    695              if ( ( Dns20 < 0.3317 ) || ( Dns20 > 0.6836 ) ) return -1.0; // Error, density out of range
   \                     ??Ctl_LPG_Calc_60E_2:
   \   000000A4   90219FE5           LDR      R2,??Ctl_LPG_Calc_60E_4  ;; 0xffffffffa3055326
   \   000000A8   90319FE5           LDR      R3,??Ctl_LPG_Calc_60E_4+0x4  ;; 0x3fd53a92
   \   000000AC   0800A0E1           MOV      R0,R8
   \   000000B0   0910A0E1           MOV      R1,R9
   \   000000B4   ........           _BLF     __dLess,??__dLess??rA
   \   000000B8   000050E3           CMP      R0,#+0
   \   000000BC   F4FFFF1A           BNE      ??Ctl_LPG_Calc_60E_1
   \   000000C0   7C219FE5           LDR      R2,??Ctl_LPG_Calc_60E_4+0x8  ;; 0x1b71758f
   \   000000C4   7C319FE5           LDR      R3,??Ctl_LPG_Calc_60E_4+0xC  ;; 0x3fe5e00d
   \   000000C8   0800A0E1           MOV      R0,R8
   \   000000CC   0910A0E1           MOV      R1,R9
   \   000000D0   ........           _BLF     __dGreaterEqual,??__dGreaterEqual??rA
   \   000000D4   000050E3           CMP      R0,#+0
   \   000000D8   EDFFFF1A           BNE      ??Ctl_LPG_Calc_60E_1
    696          
    697              //T60/4
    698              double RDtb = Dns20/0.999016;
    699              //T60/5
    700              double RD60 = Ctl_LPG_Calc_23E(RDtb,20.0,false);
   \   000000DC   ........           LDR      R2,??DataTable156  ;; 0x6705c897
   \   000000E0   4034A0E3           MOV      R3,#+1073741824
   \   000000E4   D05983E3           ORR      R5,R3,#0x340000
   \   000000E8   ........           LDR      R3,??DataTable157  ;; 0x3feff7f0
   \   000000EC   01002DE9           PUSH     {R0}
   \   000000F0   0800A0E1           MOV      R0,R8
   \   000000F4   0910A0E1           MOV      R1,R9
   \   000000F8   ........           _BLF     __dDiv,??__dDiv??rA
   \   000000FC   0020A0E3           MOV      R2,#+0
   \   00000100   0530A0E1           MOV      R3,R5
   \   00000104   ........           BL       ??Ctl_LPG_Calc_23E
   \   00000108   0040A0E1           MOV      R4,R0
   \   0000010C   0150A0E1           MOV      R5,R1
    701              //T60/6
    702              double RD60Rounded = APIRound(RD60,5);
   \   00000110   0520A0E3           MOV      R2,#+5
   \   00000114   ........           BL       ??APIRound
    703              if ( RD60Rounded < 0.34995 || RD60Rounded > 0.68805 ) {
   \   00000118   ........           LDR      R2,??DataTable143  ;; 0xffffffffaf4f0d84
   \   0000011C   ........           LDR      R3,??DataTable144  ;; 0x3fd66594
   \   00000120   0080A0E1           MOV      R8,R0
   \   00000124   0190A0E1           MOV      R9,R1
   \   00000128   04D08DE2           ADD      SP,SP,#+4
   \   0000012C   ........           _BLF     __dLess,??__dLess??rA
   \   00000130   000050E3           CMP      R0,#+0
   \   00000134   D6FFFF1A           BNE      ??Ctl_LPG_Calc_60E_1
   \   00000138   ........           LDR      R2,??DataTable145  ;; 0x6f0068dd
   \   0000013C   ........           LDR      R3,??DataTable146  ;; 0x3fe60481
   \   00000140   0800A0E1           MOV      R0,R8
   \   00000144   0910A0E1           MOV      R1,R9
   \   00000148   ........           _BLF     __dGreaterEqual,??__dGreaterEqual??rA
   \   0000014C   000050E3           CMP      R0,#+0
   \   00000150   CFFFFF1A           BNE      ??Ctl_LPG_Calc_60E_1
    704                  return -1;
    705              }
    706              // Select the Gas
    707              int Index = -1;
   \                     ??Ctl_LPG_Calc_60E_5:
   \   00000154   0060E0E3           MVN      R6,#+0
    708              for ( unsigned i=0; Index < 0  && (i < NELEMENTS(Fluids)); i++ ) {
   \   00000158   0070A0E3           MOV      R7,#+0
    709                  if ( Fluids[i].Lamda60 >= RD60 ) {
   \                     ??Ctl_LPG_Calc_60E_6:
   \   0000015C   ........           LDR      R1,??DataTable147  ;; Fluids
   \   00000160   5000A0E3           MOV      R0,#+80
   \   00000164   901722E0           MLA      R2,R0,R7,R1
   \   00000168   100092E5           LDR      R0,[R2, #+16]
   \   0000016C   141092E5           LDR      R1,[R2, #+20]
   \   00000170   0420A0E1           MOV      R2,R4
   \   00000174   0530A0E1           MOV      R3,R5
   \   00000178   ........           _BLF     __dGreaterEqual,??__dGreaterEqual??rA
   \   0000017C   000050E3           CMP      R0,#+0
    710                      Index = i;
   \   00000180   0760A011           MOVNE    R6,R7
    711                  }
    712              }
   \   00000184   017087E2           ADD      R7,R7,#+1
   \   00000188   000056E3           CMP      R6,#+0
   \   0000018C   0100005A           BPL      ??Ctl_LPG_Calc_60E_7
   \   00000190   0C0057E3           CMP      R7,#+12
   \   00000194   F0FFFF3A           BCC      ??Ctl_LPG_Calc_60E_6
    713              if ( Index== -1 ) {
   \                     ??Ctl_LPG_Calc_60E_7:
   \   00000198   010076E3           CMN      R6,#+1
   \   0000019C   BCFFFF0A           BEQ      ??Ctl_LPG_Calc_60E_1
    714                  return -1.0;
    715              } else if ( !Index ) {
   \   000001A0   000056E3           CMP      R6,#+0
    716                  Index++;
   \   000001A4   0160A003           MOVEQ    R6,#+1
    717              }
    718              //T60/7
    719              double Ctl1 = CalcCtl(RD60,Tx  ,Index-1,Index);
   \   000001A8   017046E2           SUB      R7,R6,#+1
   \   000001AC   0600A0E1           MOV      R0,R6
   \   000001B0   01002DE9           PUSH     {R0}
   \   000001B4   0700A0E1           MOV      R0,R7
   \   000001B8   01002DE9           PUSH     {R0}
   \   000001BC   0A20A0E1           MOV      R2,R10
   \   000001C0   0B30A0E1           MOV      R3,R11
   \   000001C4   0400A0E1           MOV      R0,R4
   \   000001C8   0510A0E1           MOV      R1,R5
   \   000001CC   ........           BL       ??CalcCtl
    720              double Ctl2 = CalcCtl(RD60,20.0+TEMP_ZERO  ,Index-1,Index);
    721              double Ctl  = Ctl1/Ctl2;
   \   000001D0   ........           LDR      R2,??DataTable161  ;; 0x66666666
   \   000001D4   ........           LDR      R3,??DataTable155  ;; 0x40725266
   \   000001D8   0080A0E1           MOV      R8,R0
   \   000001DC   0190A0E1           MOV      R9,R1
   \   000001E0   40002DE9           PUSH     {R6}
   \   000001E4   80002DE9           PUSH     {R7}
   \   000001E8   0400A0E1           MOV      R0,R4
   \   000001EC   0510A0E1           MOV      R1,R5
   \   000001F0   ........           BL       ??CalcCtl
   \   000001F4   0020A0E1           MOV      R2,R0
   \   000001F8   0130A0E1           MOV      R3,R1
   \   000001FC   0800A0E1           MOV      R0,R8
   \   00000200   0910A0E1           MOV      R1,R9
   \   00000204   ........           _BLF     __dDiv,??__dDiv??rA
   \   00000208   0040A0E1           MOV      R4,R0
   \   0000020C   0150A0E1           MOV      R5,R1
    722              if ( Ctl < 0.0 ) {
   \   00000210   0020A0E3           MOV      R2,#+0
   \   00000214   0030A0E3           MOV      R3,#+0
   \   00000218   10D08DE2           ADD      SP,SP,#+16
   \   0000021C   ........           _BLF     __dLess,??__dLess??rA
   \   00000220   000050E3           CMP      R0,#+0
   \   00000224   9AFFFF1A           BNE      ??Ctl_LPG_Calc_60E_1
    723                  return -1;
    724              }
    725              //T60/11
    726              Ctl = APIRound(Ctl,5);
    727              return Ctl;
   \   00000228   0520A0E3           MOV      R2,#+5
   \   0000022C   0400A0E1           MOV      R0,R4
   \   00000230   0510A0E1           MOV      R1,R5
   \   00000234   ........           BL       ??APIRound
   \                     ??Ctl_LPG_Calc_60E_3:
   \   00000238   ........           B        ?Subroutine37
   \                     ??Ctl_LPG_Calc_60E_4:
   \   0000023C   265305A3           DC32     0xffffffffa3055326
   \   00000240   923AD53F           DC32     0x3fd53a92
   \   00000244   8F75711B           DC32     0x1b71758f
   \   00000248   0DE0E53F           DC32     0x3fe5e00d
    728          }
    729          

   \                                 In segment CODE, align 4, keep-with-next
    730          double Ctl_LPG_Calc_59E(double ODns, double TempC)
    731          {
   \                     ??Ctl_LPG_Calc_59E:
   \   00000000   F0412DE9           PUSH     {R4-R8,LR}
   \   00000004   0060A0E1           MOV      R6,R0
   \   00000008   0170A0E1           MOV      R7,R1
   \   0000000C   0200A0E1           MOV      R0,R2
   \   00000010   0310A0E1           MOV      R1,R3
    732              // T59/1
    733              double Tf   = APIRound5(TempC ,2);
   \   00000014   0220A0E3           MOV      R2,#+2
   \   00000018   ........           BL       ??APIRound5
   \   0000001C   0040A0E1           MOV      R4,R0
   \   00000020   0150A0E1           MOV      R5,R1
    734              double RDtf = APIRound(ODns,4);
   \   00000024   0420A0E3           MOV      R2,#+4
   \   00000028   0600A0E1           MOV      R0,R6
   \   0000002C   0710A0E1           MOV      R1,R7
   \   00000030   ........           BL       ??APIRound
   \   00000034   0060A0E1           MOV      R6,R0
   \   00000038   0170A0E1           MOV      R7,R1
    735              //T59/2
    736              //double Tx     = Tf + TEMP_ZERO;
    737              //T59/3
    738              if ( ( Tf < -46.0 ) || ( Tf > 93.0 ) ) return -1.0; // Error, temp out of range
   \   0000003C   0400A0E1           MOV      R0,R4
   \   00000040   0510A0E1           MOV      R1,R5
   \   00000044   0020A0E3           MOV      R2,#+0
   \   00000048   C034A0E3           MOV      R3,#-1073741824
   \   0000004C   473883E3           ORR      R3,R3,#0x470000
   \   00000050   ........           _BLF     __dLess,??__dLess??rA
   \   00000054   000050E3           CMP      R0,#+0
   \   00000058   0600001A           BNE      ??Ctl_LPG_Calc_59E_1
   \   0000005C   ........           LDR      R3,??DataTable150  ;; 0x40574000
   \   00000060   0400A0E1           MOV      R0,R4
   \   00000064   0510A0E1           MOV      R1,R5
   \   00000068   0120A0E3           MOV      R2,#+1
   \   0000006C   ........           _BLF     __dGreaterEqual,??__dGreaterEqual??rA
   \   00000070   000050E3           CMP      R0,#+0
   \   00000074   0300000A           BEQ      ??Ctl_LPG_Calc_59E_2
   \                     ??Ctl_LPG_Calc_59E_1:
   \   00000078   0000A0E3           MOV      R0,#+0
   \   0000007C   B014A0E3           MOV      R1,#-1342177280
   \   00000080   FF1681E3           ORR      R1,R1,#0xFF00000
   \   00000084   460000EA           B        ??Ctl_LPG_Calc_59E_3
    739          
    740              //T59/4
    741              double RDtb = RDtf/0.999016;
    742              //T59/5
    743              double RD60 = Ctl_LPG_Calc_23E(RDtb,Tf,false);
   \                     ??Ctl_LPG_Calc_59E_2:
   \   00000088   ........           LDR      R2,??DataTable156  ;; 0x6705c897
   \   0000008C   ........           LDR      R3,??DataTable157  ;; 0x3feff7f0
   \   00000090   01002DE9           PUSH     {R0}
   \   00000094   0600A0E1           MOV      R0,R6
   \   00000098   0710A0E1           MOV      R1,R7
   \   0000009C   ........           _BLF     __dDiv,??__dDiv??rA
   \   000000A0   0420A0E1           MOV      R2,R4
   \   000000A4   0530A0E1           MOV      R3,R5
   \   000000A8   ........           BL       ??Ctl_LPG_Calc_23E
   \   000000AC   0040A0E1           MOV      R4,R0
   \   000000B0   0150A0E1           MOV      R5,R1
    744              if ( RD60 == -1.0 ) {
   \   000000B4   0000A0E3           MOV      R0,#+0
   \   000000B8   B014A0E3           MOV      R1,#-1342177280
   \   000000BC   FF1681E3           ORR      R1,R1,#0xFF00000
   \   000000C0   04D08DE2           ADD      SP,SP,#+4
   \   000000C4   0420A0E1           MOV      R2,R4
   \   000000C8   0530A0E1           MOV      R3,R5
   \   000000CC   ........           _BLF     __dEqual,??__dEqual??rA
   \   000000D0   000050E3           CMP      R0,#+0
   \   000000D4   E7FFFF1A           BNE      ??Ctl_LPG_Calc_59E_1
    745                  return -1;
    746              }
    747              //T59/6
    748          
    749              // Select the Gas
    750              int Index = -1;
   \   000000D8   0080E0E3           MVN      R8,#+0
    751              for ( unsigned i=0; Index < 0  && (i < NELEMENTS(Fluids)); i++ ) {
   \   000000DC   0060A0E3           MOV      R6,#+0
    752                  if ( Fluids[i].Lamda60 >= RD60 ) {
   \                     ??Ctl_LPG_Calc_59E_4:
   \   000000E0   ........           LDR      R1,??DataTable153  ;; Fluids
   \   000000E4   5000A0E3           MOV      R0,#+80
   \   000000E8   901622E0           MLA      R2,R0,R6,R1
   \   000000EC   100092E5           LDR      R0,[R2, #+16]
   \   000000F0   141092E5           LDR      R1,[R2, #+20]
   \   000000F4   0420A0E1           MOV      R2,R4
   \   000000F8   0530A0E1           MOV      R3,R5
   \   000000FC   ........           _BLF     __dGreaterEqual,??__dGreaterEqual??rA
   \   00000100   000050E3           CMP      R0,#+0
    753                      Index = i;
   \   00000104   0680A011           MOVNE    R8,R6
    754                  }
    755              }
   \   00000108   016086E2           ADD      R6,R6,#+1
   \   0000010C   000058E3           CMP      R8,#+0
   \   00000110   0100005A           BPL      ??Ctl_LPG_Calc_59E_5
   \   00000114   0C0056E3           CMP      R6,#+12
   \   00000118   F0FFFF3A           BCC      ??Ctl_LPG_Calc_59E_4
    756              if ( Index== -1 ) {
   \                     ??Ctl_LPG_Calc_59E_5:
   \   0000011C   010078E3           CMN      R8,#+1
    757                  return -1.0;
   \   00000120   0000A003           MOVEQ    R0,#+0
   \   00000124   B014A003           MOVEQ    R1,#-1342177280
   \   00000128   FF168103           ORREQ    R1,R1,#0xFF00000
   \   0000012C   1C00000A           BEQ      ??Ctl_LPG_Calc_59E_3
    758              } else if ( !Index ) {
    759                  Index++;
    760              }
    761              double Ctl = CalcCtl(RD60,20.0+TEMP_ZERO  ,Index-1,Index);
   \   00000130   ........           LDR      R2,??DataTable161  ;; 0x66666666
   \   00000134   ........           LDR      R3,??DataTable155  ;; 0x40725266
   \   00000138   000058E3           CMP      R8,#+0
   \   0000013C   0180A003           MOVEQ    R8,#+1
   \   00000140   0800A0E1           MOV      R0,R8
   \   00000144   01002DE9           PUSH     {R0}
   \   00000148   010048E2           SUB      R0,R8,#+1
   \   0000014C   01002DE9           PUSH     {R0}
   \   00000150   0400A0E1           MOV      R0,R4
   \   00000154   0510A0E1           MOV      R1,R5
   \   00000158   ........           BL       ??CalcCtl
   \   0000015C   0060A0E1           MOV      R6,R0
   \   00000160   0170A0E1           MOV      R7,R1
    762              //T59/7
    763              if ( Ctl < 0.0 ) {
   \   00000164   0020A0E3           MOV      R2,#+0
   \   00000168   0030A0E3           MOV      R3,#+0
   \   0000016C   08D08DE2           ADD      SP,SP,#+8
   \   00000170   ........           _BLF     __dLess,??__dLess??rA
   \   00000174   000050E3           CMP      R0,#+0
   \   00000178   BEFFFF1A           BNE      ??Ctl_LPG_Calc_59E_1
    764                  return -1;
    765              }
    766              //T59/6 continued
    767              double RD20 = Ctl * RD60;
    768              //T59/8
    769              double Rho20 = RD20*0.999016;
    770              //T59/9
    771              Rho20 = APIRound(Rho20,4);
    772              return Rho20;
   \   0000017C   0420A0E1           MOV      R2,R4
   \   00000180   0530A0E1           MOV      R3,R5
   \   00000184   0600A0E1           MOV      R0,R6
   \   00000188   0710A0E1           MOV      R1,R7
   \   0000018C   ........           _BLF     __dMul,??__dMul??rA
   \   00000190   ........           LDR      R2,??DataTable156  ;; 0x6705c897
   \   00000194   ........           LDR      R3,??DataTable157  ;; 0x3feff7f0
   \   00000198   ........           _BLF     __dMul,??__dMul??rA
   \   0000019C   0420A0E3           MOV      R2,#+4
   \   000001A0   ........           BL       ??APIRound
   \                     ??Ctl_LPG_Calc_59E_3:
   \   000001A4                      REQUIRE ?Subroutine38
   \   000001A4                      ;; // Fall through to label ?Subroutine38
    773          }
    774          
    775          
    776          ///////////////////////////////////////////////////////////////////////////////////
    777          //
    778          // Gas calculations based on mol
    779          //
    780          ///////////////////////////////////////////////////////////////////////////////////
    781          
    782          
    783          ////////////////////////////////////////////////////////////////////////////////
    784          //
    785          // The data is from a Excel document which is the property of Chemgas, one customer of Henri Systems
    786          //

   \                                 In segment DATA_C, align 4, align-sorted
    787          const GasProduct Product[] = {//            Q        F       A       B      MolMass     H       N
   \                     Product:
   \   00000000   416D6D6F6E69       DC8 "Ammoniak"
   \              616B00      
   \   00000009   000000000000       DC8 0, 0, 0, 0, 0, 0, 0, 0, 0, 0, 0
   \              0000000000  
   \   00000014   4E483300           DC8 "NH3"
   \   00000018   000000000000       DC8 0, 0, 0, 0, 0, 0, 0, 0, 0, 0, 0, 0, 0, 0, 0, 0
   \              000000000000
   \              00000000    
   \   00000028   000000000058       DC32 0H, 40795800H, 9374BC6AH, 3FF00418H, 2B6AE7D5H, 3FCD97F6H
   \              79406ABC7493
   \              1804F03FD5E7
   \              6A2BF697CD3F
   \   00000040   8CB96B09F9A0       DC32 96BB98CH, 3FCFA0F9H, 26E978D5H, 40310831H, 0AE147AE1H, 40286147H
   \              CF3FD578E926
   \              31083140E17A
   \              14AE47612840
   \   00000058   713D0AD7A370       DC32 0D70A3D71H, 3FFF70A3H, 11, 0C2200000H, 3F30F27CH, 0BE8147AEH
   \              FF3F0B000000
   \              000020C27CF2
   \              303FAE4781BE
   \   00000070   E17A94BE0000       DC32 0BE947AE1H, 0C1F00000H, 3F2D9E84H, 3E269AD4H, 3E428F5CH
   \              F0C1849E2D3F
   \              D49A263E5C8F
   \              423E        
   \   00000084   0000A0C18C4A       DC32 0C1A00000H, 3F2A4A8CH, 3F3CC63FH, 3F63D70AH, 0C1200000H, 3F26E2EBH
   \              2A3F3FC63C3F
   \              0AD7633F0000
   \              20C1EBE2263F
   \   0000009C   36CD1B3E85EB       DC32 3E1BCD36H, 3FF1EB85H, 0H, 3F235A86H, 4023E0DFH, 4050A3D7H
   \              F13F00000000
   \              865A233FDFE0
   \              2340D7A35040
   \   000000B4   00002041E9B7       DC32 41200000H, 3F1FB7E9H, 407B4F0EH, 40A33333H, 41A00000H, 3F1BF488H
   \              1F3F0E4F7B40
   \              3333A3400000
   \              A04188F41B3F
   \   000000CC   1904B6400000       DC32 40B60419H, 40F00000H, 41F00000H, 3F1809D5H, 40FDF6FDH, 41291EB8H
   \              F0400000F041
   \              D509183FFDF6
   \              FD40B81E2941
   \   000000E4   0000204241F1       DC32 42200000H, 3F13F141H, 412C6666H, 4166B852H, 42480000H, 3F0FA440H
   \              133F66662C41
   \              52B866410000
   \              484240A40F3F
   \   000000FC   C74B6541295C       DC32 41654BC7H, 41995C29H, 42700000H, 3F0B573FH, 4195D604H, 41C75C29H
   \              994100007042
   \              3F570B3F04D6
   \              9541295CC741
   \   00000114   000000000000       DC8 0, 0, 0, 0, 0, 0, 0, 0, 0, 0, 0, 0, 0, 0, 0, 0
   \              000000000000
   \              00000000    
   \   00000124   000000000000       DC8 0, 0, 0, 0, 0, 0, 0, 0, 0, 0, 0, 0, 0, 0, 0, 0
   \              000000000000
   \              00000000    
   \   00000134   000000000000       DC8 0, 0, 0, 0, 0, 0, 0, 0, 0, 0, 0, 0, 0, 0, 0, 0
   \              000000000000
   \              00000000    
   \   00000144   000000000000       DC8 0, 0, 0, 0, 0, 0, 0, 0, 0, 0, 0, 0, 0, 0, 0, 0
   \              000000000000
   \              00000000    
   \   00000154   000000000000       DC8 0, 0, 0, 0, 0, 0, 0, 0, 0, 0, 0, 0, 0, 0, 0, 0
   \              000000000000
   \              00000000    
   \   00000164   000000000000       DC8 0, 0, 0, 0, 0, 0, 0, 0, 0, 0, 0, 0, 0, 0, 0, 0
   \              000000000000
   \              00000000    
   \   00000174   000000000000       DC8 0, 0, 0, 0, 0, 0, 0, 0, 0, 0, 0, 0, 0, 0, 0, 0
   \              000000000000
   \              00000000    
   \   00000184   000000000000       DC8 0, 0, 0, 0, 0, 0, 0, 0, 0, 0, 0, 0, 0, 0, 0, 0
   \              000000000000
   \              00000000    
   \   00000194   000000000000       DC8 0, 0, 0, 0, 0, 0, 0, 0, 0, 0, 0, 0, 0, 0, 0, 0
   \              000000000000
   \              00000000    
   \   000001A4   000000000000       DC8 0, 0, 0, 0, 0, 0, 0, 0, 0, 0, 0, 0, 0, 0, 0, 0
   \              000000000000
   \              00000000    
   \   000001B4   000000000000       DC8 0, 0, 0, 0, 0, 0, 0, 0, 0, 0, 0, 0, 0, 0, 0, 0
   \              000000000000
   \              00000000    
   \   000001C4   000000000000       DC8 0, 0, 0, 0, 0, 0, 0, 0, 0, 0, 0, 0, 0, 0, 0, 0
   \              000000000000
   \              00000000    
   \   000001D4   000000000000       DC8 0, 0, 0, 0, 0, 0, 0, 0, 0, 0, 0, 0, 0, 0, 0, 0
   \              000000000000
   \              00000000    
   \   000001E4   000000000000       DC8 0, 0, 0, 0, 0, 0, 0, 0, 0, 0, 0, 0, 0, 0, 0, 0
   \              000000000000
   \              00000000    
   \   000001F4   000000000000       DC8 0, 0, 0, 0, 0, 0, 0, 0, 0, 0, 0, 0, 0, 0, 0, 0
   \              000000000000
   \              00000000    
   \   00000204   000000000000       DC8 0, 0, 0, 0, 0, 0, 0, 0, 0, 0, 0, 0, 0, 0, 0, 0
   \              000000000000
   \              00000000    
   \   00000214   000000000000       DC8 0, 0, 0, 0, 0, 0, 0, 0, 0, 0, 0, 0, 0, 0, 0, 0
   \              000000000000
   \              00000000    
   \   00000224   000000000000       DC8 0, 0, 0, 0, 0, 0, 0, 0, 0, 0, 0, 0, 0, 0, 0, 0
   \              000000000000
   \              00000000    
   \   00000234   000000000000       DC8 0, 0, 0, 0, 0, 0, 0, 0, 0, 0, 0, 0, 0, 0, 0, 0
   \              000000000000
   \              00000000    
   \   00000244   000000000000       DC8 0, 0, 0, 0, 0, 0, 0, 0, 0, 0, 0, 0, 0, 0, 0, 0
   \              000000000000
   \              00000000    
   \   00000254   000000000000       DC8 0, 0, 0, 0, 0, 0, 0, 0, 0, 0, 0, 0, 0, 0, 0, 0
   \              000000000000
   \              00000000    
   \   00000264   000000000000       DC8 0, 0, 0, 0, 0, 0, 0, 0, 0, 0, 0, 0, 0, 0, 0, 0
   \              000000000000
   \              00000000    
   \   00000274   000000000000       DC8 0, 0, 0, 0, 0, 0, 0, 0, 0, 0, 0, 0, 0, 0, 0, 0
   \              000000000000
   \              00000000    
   \   00000284   000000000000       DC8 0, 0, 0, 0, 0, 0, 0, 0, 0, 0, 0, 0, 0, 0, 0, 0
   \              000000000000
   \              00000000    
   \   00000294   427574616469       DC8 "Butadien"
   \              656E00      
   \   0000029D   000000000000       DC8 0, 0, 0, 0, 0, 0, 0, 0, 0, 0, 0
   \              0000000000  
   \   000002A8   4334483600         DC8 "C4H6"
   \   000002AD   000000000000       DC8 0, 0, 0, 0, 0, 0, 0, 0, 0, 0, 0, 0, 0, 0, 0
   \              000000000000
   \              000000      
   \   000002BC   000000000090       DC32 0H, 407A9000H, 810624DDH, 3FEF4395H, 0CB923A2AH, 3FCF487FH
   \              7A40DD240681
   \              9543EF3F2A3A
   \              92CB7F48CF3F
   \   000002D4   F2D24D621058       DC32 624DD2F2H, 3FD15810H, 1EB851ECH, 404B0B85H, 851EB852H, 402851EBH
   \              D13FEC51B81E
   \              850B4B4052B8
   \              1E85EB512840
   \   000002EC   3D0AD7A3703D       DC32 0A3D70A3DH, 3FFC3D70H, 11, 0C2200000H, 3F30A3D7H, 3F0E978DH
   \              FC3F0B000000
   \              000020C2D7A3
   \              303F8D970E3F
   \   00000304   17D94E3E0000       DC32 3E4ED917H, 0C1F00000H, 3F289375H, 3F79374CH, 3EBE76C9H, 0C1A00000H
   \              F0C17593283F
   \              4C37793FC976
   \              BE3E0000A0C1
   \   0000031C   96432B3F85EB       DC32 3F2B4396H, 3FB1EB85H, 3F0AC083H, 0C1200000H, 3F251EB8H, 400B851FH
   \              B13F83C00A3F
   \              000020C1B81E
   \              253F1F850B40
   \   00000334   4A0C623F0000       DC32 3F620C4AH, 0H, 3F251EB8H, 403E147BH, 3F9CAC08H, 41200000H
   \              0000B81E253F
   \              7B143E4008AC
   \              9C3F00002041
   \   0000034C   4A0C223FA470       DC32 3F220C4AH, 408570A4H, 3FE08312H, 41A00000H, 3F1EF9DBH, 40B6147BH
   \              85401283E03F
   \              0000A041DBF9
   \              1E3F7B14B640
   \   00000364   CFF71B400000       DC32 401BF7CFH, 41F00000H, 3F1BE76DH, 40F47AE1H, 4054BC6AH, 42200000H
   \              F0416DE71B3F
   \              E17AF4406ABC
   \              544000002042
   \   0000037C   EC51183FEC51       DC32 3F1851ECH, 412051ECH, 408D47AEH, 42480000H, 3F14BC6AH, 41560000H
   \              2041AE478D40
   \              000048426ABC
   \              143F00005641
   \   00000394   8FC2BD400000       DC32 40BDC28FH, 42700000H, 3F1126E9H, 4185D70AH, 40EE353FH
   \              7042E926113F
   \              0AD785413F35
   \              EE40        
   \   000003A8   000000000000       DC8 0, 0, 0, 0, 0, 0, 0, 0, 0, 0, 0, 0, 0, 0, 0, 0
   \              000000000000
   \              00000000    
   \   000003B8   000000000000       DC8 0, 0, 0, 0, 0, 0, 0, 0, 0, 0, 0, 0, 0, 0, 0, 0
   \              000000000000
   \              00000000    
   \   000003C8   000000000000       DC8 0, 0, 0, 0, 0, 0, 0, 0, 0, 0, 0, 0, 0, 0, 0, 0
   \              000000000000
   \              00000000    
   \   000003D8   000000000000       DC8 0, 0, 0, 0, 0, 0, 0, 0, 0, 0, 0, 0, 0, 0, 0, 0
   \              000000000000
   \              00000000    
   \   000003E8   000000000000       DC8 0, 0, 0, 0, 0, 0, 0, 0, 0, 0, 0, 0, 0, 0, 0, 0
   \              000000000000
   \              00000000    
   \   000003F8   000000000000       DC8 0, 0, 0, 0, 0, 0, 0, 0, 0, 0, 0, 0, 0, 0, 0, 0
   \              000000000000
   \              00000000    
   \   00000408   000000000000       DC8 0, 0, 0, 0, 0, 0, 0, 0, 0, 0, 0, 0, 0, 0, 0, 0
   \              000000000000
   \              00000000    
   \   00000418   000000000000       DC8 0, 0, 0, 0, 0, 0, 0, 0, 0, 0, 0, 0, 0, 0, 0, 0
   \              000000000000
   \              00000000    
   \   00000428   000000000000       DC8 0, 0, 0, 0, 0, 0, 0, 0, 0, 0, 0, 0, 0, 0, 0, 0
   \              000000000000
   \              00000000    
   \   00000438   000000000000       DC8 0, 0, 0, 0, 0, 0, 0, 0, 0, 0, 0, 0, 0, 0, 0, 0
   \              000000000000
   \              00000000    
   \   00000448   000000000000       DC8 0, 0, 0, 0, 0, 0, 0, 0, 0, 0, 0, 0, 0, 0, 0, 0
   \              000000000000
   \              00000000    
   \   00000458   000000000000       DC8 0, 0, 0, 0, 0, 0, 0, 0, 0, 0, 0, 0, 0, 0, 0, 0
   \              000000000000
   \              00000000    
   \   00000468   000000000000       DC8 0, 0, 0, 0, 0, 0, 0, 0, 0, 0, 0, 0, 0, 0, 0, 0
   \              000000000000
   \              00000000    
   \   00000478   000000000000       DC8 0, 0, 0, 0, 0, 0, 0, 0, 0, 0, 0, 0, 0, 0, 0, 0
   \              000000000000
   \              00000000    
   \   00000488   000000000000       DC8 0, 0, 0, 0, 0, 0, 0, 0, 0, 0, 0, 0, 0, 0, 0, 0
   \              000000000000
   \              00000000    
   \   00000498   000000000000       DC8 0, 0, 0, 0, 0, 0, 0, 0, 0, 0, 0, 0, 0, 0, 0, 0
   \              000000000000
   \              00000000    
   \   000004A8   000000000000       DC8 0, 0, 0, 0, 0, 0, 0, 0, 0, 0, 0, 0, 0, 0, 0, 0
   \              000000000000
   \              00000000    
   \   000004B8   000000000000       DC8 0, 0, 0, 0, 0, 0, 0, 0, 0, 0, 0, 0, 0, 0, 0, 0
   \              000000000000
   \              00000000    
   \   000004C8   000000000000       DC8 0, 0, 0, 0, 0, 0, 0, 0, 0, 0, 0, 0, 0, 0, 0, 0
   \              000000000000
   \              00000000    
   \   000004D8   000000000000       DC8 0, 0, 0, 0, 0, 0, 0, 0, 0, 0, 0, 0, 0, 0, 0, 0
   \              000000000000
   \              00000000    
   \   000004E8   000000000000       DC8 0, 0, 0, 0, 0, 0, 0, 0, 0, 0, 0, 0, 0, 0, 0, 0
   \              000000000000
   \              00000000    
   \   000004F8   000000000000       DC8 0, 0, 0, 0, 0, 0, 0, 0, 0, 0, 0, 0, 0, 0, 0, 0
   \              000000000000
   \              00000000    
   \   00000508   000000000000       DC8 0, 0, 0, 0, 0, 0, 0, 0, 0, 0, 0, 0, 0, 0, 0, 0
   \              000000000000
   \              00000000    
   \   00000518   000000000000       DC8 0, 0, 0, 0, 0, 0, 0, 0, 0, 0, 0, 0, 0, 0, 0, 0
   \              000000000000
   \              00000000    
   \   00000528   49736F627574       DC8 "Isobutylene"
   \              796C656E6500
   \   00000534   000000000000       DC8 0, 0, 0, 0, 0, 0, 0, 0
   \              0000        
   \   0000053C   4334483800         DC8 "C4H8"
   \   00000541   000000000000       DC8 0, 0, 0, 0, 0, 0, 0, 0, 0, 0, 0, 0, 0, 0, 0
   \              000000000000
   \              000000      
   \   00000550   333333333333       DC32 33333333H, 407A3333H, 0H, 3FF00000H, 6E2EB1C4H, 3FCC01A3H
   \              7A4000000000
   \              0000F03FC4B1
   \              2E6EA301CC3F
   \   00000568   F4FDD478E926       DC32 78D4FDF4H, 3FD126E9H, 0DF3B645AH, 404C0D4FH, 0EB851EB8H, 4028B851H
   \              D13F5A643BDF
   \              4F0D4C40B81E
   \              85EB51B82840
   \   00000580   CDCCCCCCCCCC       DC32 0CCCCCCCDH, 4004CCCCH, 11, 0C2200000H, 3F294AF5H, 3F266666H
   \              04400B000000
   \              000020C2F54A
   \              293F6666263F
   \   00000598   1F856B3E0000       DC32 3E6B851FH, 0C1F00000H, 3F268DB9H, 3F7D70A4H, 3EBD70A4H, 0C1A00000H
   \              F0C1B98D263F
   \              A4707D3FA470
   \              BD3E0000A0C1
   \   000005B0   0AD7233F295C       DC32 3F23D70AH, 3FCF5C29H, 3F170A3DH, 0C1200000H, 3F23C361H, 4015C28FH
   \              CF3F3D0A173F
   \              000020C161C3
   \              233F8FC21540
   \   000005C8   0AD7633F0000       DC32 3F63D70AH, 0H, 3F1DFA44H, 40570A3DH, 3FA7AE14H, 41200000H
   \              000044FA1D3F
   \              3D0A574014AE
   \              A73F00002041
   \   000005E0   F1F41A3F7B14       DC32 3F1AF4F1H, 4096147BH, 3FEF5C29H, 41A00000H, 3F17D567H, 40CC7AE1H
   \              9640295CEF3F
   \              0000A04167D5
   \              173FE17ACC40
   \   000005F8   8FC225400000       DC32 4025C28FH, 41F00000H, 3F149BA6H, 410851ECH, 40600000H, 42200000H
   \              F041A69B143F
   \              EC5108410000
   \              604000002042
   \   00000610   2041113F9A99       DC32 3F114120H, 4135999AH, 4094CCCDH, 42480000H, 3F0DB8BBH, 416B851FH
   \              3541CDCC9440
   \              00004842BBB8
   \              0D3F1F856B41
   \   00000628   9A99C1400000       DC32 40C1999AH, 42700000H, 3F0A36E3H, 419051ECH, 40EE6666H
   \              7042E3360A3F
   \              EC5190416666
   \              EE40        
   \   0000063C   000000000000       DC8 0, 0, 0, 0, 0, 0, 0, 0, 0, 0, 0, 0, 0, 0, 0, 0
   \              000000000000
   \              00000000    
   \   0000064C   000000000000       DC8 0, 0, 0, 0, 0, 0, 0, 0, 0, 0, 0, 0, 0, 0, 0, 0
   \              000000000000
   \              00000000    
   \   0000065C   000000000000       DC8 0, 0, 0, 0, 0, 0, 0, 0, 0, 0, 0, 0, 0, 0, 0, 0
   \              000000000000
   \              00000000    
   \   0000066C   000000000000       DC8 0, 0, 0, 0, 0, 0, 0, 0, 0, 0, 0, 0, 0, 0, 0, 0
   \              000000000000
   \              00000000    
   \   0000067C   000000000000       DC8 0, 0, 0, 0, 0, 0, 0, 0, 0, 0, 0, 0, 0, 0, 0, 0
   \              000000000000
   \              00000000    
   \   0000068C   000000000000       DC8 0, 0, 0, 0, 0, 0, 0, 0, 0, 0, 0, 0, 0, 0, 0, 0
   \              000000000000
   \              00000000    
   \   0000069C   000000000000       DC8 0, 0, 0, 0, 0, 0, 0, 0, 0, 0, 0, 0, 0, 0, 0, 0
   \              000000000000
   \              00000000    
   \   000006AC   000000000000       DC8 0, 0, 0, 0, 0, 0, 0, 0, 0, 0, 0, 0, 0, 0, 0, 0
   \              000000000000
   \              00000000    
   \   000006BC   000000000000       DC8 0, 0, 0, 0, 0, 0, 0, 0, 0, 0, 0, 0, 0, 0, 0, 0
   \              000000000000
   \              00000000    
   \   000006CC   000000000000       DC8 0, 0, 0, 0, 0, 0, 0, 0, 0, 0, 0, 0, 0, 0, 0, 0
   \              000000000000
   \              00000000    
   \   000006DC   000000000000       DC8 0, 0, 0, 0, 0, 0, 0, 0, 0, 0, 0, 0, 0, 0, 0, 0
   \              000000000000
   \              00000000    
   \   000006EC   000000000000       DC8 0, 0, 0, 0, 0, 0, 0, 0, 0, 0, 0, 0, 0, 0, 0, 0
   \              000000000000
   \              00000000    
   \   000006FC   000000000000       DC8 0, 0, 0, 0, 0, 0, 0, 0, 0, 0, 0, 0, 0, 0, 0, 0
   \              000000000000
   \              00000000    
   \   0000070C   000000000000       DC8 0, 0, 0, 0, 0, 0, 0, 0, 0, 0, 0, 0, 0, 0, 0, 0
   \              000000000000
   \              00000000    
   \   0000071C   000000000000       DC8 0, 0, 0, 0, 0, 0, 0, 0, 0, 0, 0, 0, 0, 0, 0, 0
   \              000000000000
   \              00000000    
   \   0000072C   000000000000       DC8 0, 0, 0, 0, 0, 0, 0, 0, 0, 0, 0, 0, 0, 0, 0, 0
   \              000000000000
   \              00000000    
   \   0000073C   000000000000       DC8 0, 0, 0, 0, 0, 0, 0, 0, 0, 0, 0, 0, 0, 0, 0, 0
   \              000000000000
   \              00000000    
   \   0000074C   000000000000       DC8 0, 0, 0, 0, 0, 0, 0, 0, 0, 0, 0, 0, 0, 0, 0, 0
   \              000000000000
   \              00000000    
   \   0000075C   000000000000       DC8 0, 0, 0, 0, 0, 0, 0, 0, 0, 0, 0, 0, 0, 0, 0, 0
   \              000000000000
   \              00000000    
   \   0000076C   000000000000       DC8 0, 0, 0, 0, 0, 0, 0, 0, 0, 0, 0, 0, 0, 0, 0, 0
   \              000000000000
   \              00000000    
   \   0000077C   000000000000       DC8 0, 0, 0, 0, 0, 0, 0, 0, 0, 0, 0, 0, 0, 0, 0, 0
   \              000000000000
   \              00000000    
   \   0000078C   000000000000       DC8 0, 0, 0, 0, 0, 0, 0, 0, 0, 0, 0, 0, 0, 0, 0, 0
   \              000000000000
   \              00000000    
   \   0000079C   000000000000       DC8 0, 0, 0, 0, 0, 0, 0, 0, 0, 0, 0, 0, 0, 0, 0, 0
   \              000000000000
   \              00000000    
   \   000007AC   000000000000       DC8 0, 0, 0, 0, 0, 0, 0, 0, 0, 0, 0, 0, 0, 0, 0, 0
   \              000000000000
   \              00000000    
   \   000007BC   50726F70796C       DC8 "Propylene"
   \              656E6500    
   \   000007C6   000000000000       DC8 0, 0, 0, 0, 0, 0, 0, 0, 0, 0
   \              00000000    
   \   000007D0   4333483600         DC8 "C3H6"
   \   000007D5   000000000000       DC8 0, 0, 0, 0, 0, 0, 0, 0, 0, 0, 0, 0, 0, 0, 0
   \              000000000000
   \              000000      
   \   000007E4   66666666662E       DC32 66666666H, 40762E66H, 0A3D70A4H, 3FF0A3D7H, 858793DEH, 3FCCD35AH
   \              7640A4703D0A
   \              D7A3F03FDE93
   \              87855AD3CC3F
   \   000007FC   832F4CA60A46       DC32 0A64C2F83H, 3FD1460AH, 70A3D70AH, 40450A3DH, 0E147AE14H, 4028147AH
   \              D13F0AD7A370
   \              3D0A454014AE
   \              47E17A142840
   \   00000814   3D0AD7A3703D       DC32 0A3D70A3DH, 3FFC3D70H, 11, 0C2200000H, 3F1978D5H, 404C28F6H
   \              FC3F0B000000
   \              000020C2D578
   \              193FF6284C40
   \   0000082C   3333B33F0000       DC32 3FB33333H, 0C1F00000H, 3F1617C2H, 40951EB8H, 40070A3DH, 0C1A00000H
   \              F0C1C217163F
   \              B81E95403D0A
   \              07400000A0C1
   \   00000844   AEB6123F7593       DC32 3F12B6AEH, 40D49375H, 404449BAH, 0C1200000H, 3F0F559BH, 4110CCCDH
   \              D440BA494440
   \              000020C19B55
   \              0F3FCDCC1041
   \   0000085C   C3F588400000       DC32 4088F5C3H, 0H, 3F0BB2FFH, 4143851FH, 40BA8F5CH, 41200000H
   \              0000FFB20B3F
   \              1F8543415C8F
   \              BA4000002041
   \   00000874   F5DB073F0000       DC32 3F07DBF5H, 41820000H, 40F8F5C3H, 41A00000H, 3F03C361H, 41AA3D71H
   \              8241C3F5F840
   \              0000A04161C3
   \              033F713DAA41
   \   0000088C   5C8F22410000       DC32 41228F5CH, 41F00000H, 3EFED289H, 41DC3D71H, 4150A3D7H, 42200000H
   \              F04189D2FE3E
   \              713DDC41D7A3
   \              504100002042
   \   000008A4   984CF53EDFCF       DC32 3EF54C98H, 420ECFDFH, 4183EB85H, 42480000H, 3EEACD9FH, 42373D71H
   \              0E4285EB8341
   \              000048429FCD
   \              EA3E713D3742
   \   000008BC   E17AA4410000       DC32 41A47AE1H, 42700000H, 3EE04EA5H, 4261B852H, 41C7AE14H
   \              7042A54EE03E
   \              52B8614214AE
   \              C741        
   \   000008D0   000000000000       DC8 0, 0, 0, 0, 0, 0, 0, 0, 0, 0, 0, 0, 0, 0, 0, 0
   \              000000000000
   \              00000000    
   \   000008E0   000000000000       DC8 0, 0, 0, 0, 0, 0, 0, 0, 0, 0, 0, 0, 0, 0, 0, 0
   \              000000000000
   \              00000000    
   \   000008F0   000000000000       DC8 0, 0, 0, 0, 0, 0, 0, 0, 0, 0, 0, 0, 0, 0, 0, 0
   \              000000000000
   \              00000000    
   \   00000900   000000000000       DC8 0, 0, 0, 0, 0, 0, 0, 0, 0, 0, 0, 0, 0, 0, 0, 0
   \              000000000000
   \              00000000    
   \   00000910   000000000000       DC8 0, 0, 0, 0, 0, 0, 0, 0, 0, 0, 0, 0, 0, 0, 0, 0
   \              000000000000
   \              00000000    
   \   00000920   000000000000       DC8 0, 0, 0, 0, 0, 0, 0, 0, 0, 0, 0, 0, 0, 0, 0, 0
   \              000000000000
   \              00000000    
   \   00000930   000000000000       DC8 0, 0, 0, 0, 0, 0, 0, 0, 0, 0, 0, 0, 0, 0, 0, 0
   \              000000000000
   \              00000000    
   \   00000940   000000000000       DC8 0, 0, 0, 0, 0, 0, 0, 0, 0, 0, 0, 0, 0, 0, 0, 0
   \              000000000000
   \              00000000    
   \   00000950   000000000000       DC8 0, 0, 0, 0, 0, 0, 0, 0, 0, 0, 0, 0, 0, 0, 0, 0
   \              000000000000
   \              00000000    
   \   00000960   000000000000       DC8 0, 0, 0, 0, 0, 0, 0, 0, 0, 0, 0, 0, 0, 0, 0, 0
   \              000000000000
   \              00000000    
   \   00000970   000000000000       DC8 0, 0, 0, 0, 0, 0, 0, 0, 0, 0, 0, 0, 0, 0, 0, 0
   \              000000000000
   \              00000000    
   \   00000980   000000000000       DC8 0, 0, 0, 0, 0, 0, 0, 0, 0, 0, 0, 0, 0, 0, 0, 0
   \              000000000000
   \              00000000    
   \   00000990   000000000000       DC8 0, 0, 0, 0, 0, 0, 0, 0, 0, 0, 0, 0, 0, 0, 0, 0
   \              000000000000
   \              00000000    
   \   000009A0   000000000000       DC8 0, 0, 0, 0, 0, 0, 0, 0, 0, 0, 0, 0, 0, 0, 0, 0
   \              000000000000
   \              00000000    
   \   000009B0   000000000000       DC8 0, 0, 0, 0, 0, 0, 0, 0, 0, 0, 0, 0, 0, 0, 0, 0
   \              000000000000
   \              00000000    
   \   000009C0   000000000000       DC8 0, 0, 0, 0, 0, 0, 0, 0, 0, 0, 0, 0, 0, 0, 0, 0
   \              000000000000
   \              00000000    
   \   000009D0   000000000000       DC8 0, 0, 0, 0, 0, 0, 0, 0, 0, 0, 0, 0, 0, 0, 0, 0
   \              000000000000
   \              00000000    
   \   000009E0   000000000000       DC8 0, 0, 0, 0, 0, 0, 0, 0, 0, 0, 0, 0, 0, 0, 0, 0
   \              000000000000
   \              00000000    
   \   000009F0   000000000000       DC8 0, 0, 0, 0, 0, 0, 0, 0, 0, 0, 0, 0, 0, 0, 0, 0
   \              000000000000
   \              00000000    
   \   00000A00   000000000000       DC8 0, 0, 0, 0, 0, 0, 0, 0, 0, 0, 0, 0, 0, 0, 0, 0
   \              000000000000
   \              00000000    
   \   00000A10   000000000000       DC8 0, 0, 0, 0, 0, 0, 0, 0, 0, 0, 0, 0, 0, 0, 0, 0
   \              000000000000
   \              00000000    
   \   00000A20   000000000000       DC8 0, 0, 0, 0, 0, 0, 0, 0, 0, 0, 0, 0, 0, 0, 0, 0
   \              000000000000
   \              00000000    
   \   00000A30   000000000000       DC8 0, 0, 0, 0, 0, 0, 0, 0, 0, 0, 0, 0, 0, 0, 0, 0
   \              000000000000
   \              00000000    
   \   00000A40   000000000000       DC8 0, 0, 0, 0, 0, 0, 0, 0, 0, 0, 0, 0, 0, 0, 0, 0
   \              000000000000
   \              00000000    
   \   00000A50   50726F70656E       DC8 "Propenoxide"
   \              6F7869646500
   \   00000A5C   000000000000       DC8 0, 0, 0, 0, 0, 0, 0, 0
   \              0000        
   \   00000A64   433348364F00       DC8 "C3H6O"
   \   00000A6A   000000000000       DC8 0, 0, 0, 0, 0, 0, 0, 0, 0, 0, 0, 0, 0, 0
   \              000000000000
   \              0000        
   \   00000A78   000000000030       DC32 0H, 40823000H, 0H, 3FF00000H, 23A29C78H, 3FD3FCB9H, 0A7EF9DB2H
   \              824000000000
   \              0000F03F789C
   \              A223B9FCD33F
   \              B29DEFA7    
   \   00000A94   C64BD33F0AD7       DC32 3FD34BC6H, 70A3D70AH, 404D0A3DH, 9999999AH, 40299999H, 0A3D70A3DH
   \              A3703D0A4D40
   \              9A9999999999
   \              29403D0AD7A3
   \   00000AAC   703DFC3F0B00       DC32 3FFC3D70H, 11, 0C2200000H, 3F671DE7H, 3B5844D0H, 3C23D70AH
   \              0000000020C2
   \              E71D673FD044
   \              583B0AD7233C
   \   00000AC4   0000F0C1CFF7       DC32 0C1F00000H, 3F63F7CFH, 3D00346EH, 3C23D70AH, 0C1A00000H, 3F60D1B7H
   \              633F6E34003D
   \              0AD7233C0000
   \              A0C1B7D1603F
   \   00000ADC   F5DB573E295C       DC32 3E57DBF5H, 3D8F5C29H, 0C1200000H, 3F5DAB9FH, 3ECCCCCDH, 3E23D70AH
   \              8F3D000020C1
   \              9FAB5D3FCDCC
   \              CC3E0AD7233E
   \   00000AF4   000000008885       DC32 0H, 3F5A8588H, 3F19999AH, 3E800000H, 41200000H, 3F575F70H
   \              5A3F9A99193F
   \              0000803E0000
   \              2041705F573F
   \   00000B0C   0000803FCDCC       DC32 3F800000H, 3ECCCCCDH, 41A00000H, 3F543958H, 3FB33333H, 3F1C28F6H
   \              CC3E0000A041
   \              5839543F3333
   \              B33FF6281C3F
   \   00000B24   0000F0414013       DC32 41F00000H, 3F511340H, 40066666H, 3F666666H, 42200000H, 3F4DED29H
   \              513F66660640
   \              6666663F0000
   \              204229ED4D3F
   \   00000B3C   8C4A4E400AD7       DC32 404E4A8CH, 3FA3D70AH, 42480000H, 3F4AC711H, 408D8D50H, 3FE51EB8H
   \              A33F00004842
   \              11C74A3F508D
   \              8D40B81EE53F
   \   00000B54   00007042F9A0       DC32 42700000H, 3F47A0F9H, 40C087FDH, 401E147BH
   \              473FFD87C040
   \              7B141E40    
   \   00000B64   000000000000       DC8 0, 0, 0, 0, 0, 0, 0, 0, 0, 0, 0, 0, 0, 0, 0, 0
   \              000000000000
   \              00000000    
   \   00000B74   000000000000       DC8 0, 0, 0, 0, 0, 0, 0, 0, 0, 0, 0, 0, 0, 0, 0, 0
   \              000000000000
   \              00000000    
   \   00000B84   000000000000       DC8 0, 0, 0, 0, 0, 0, 0, 0, 0, 0, 0, 0, 0, 0, 0, 0
   \              000000000000
   \              00000000    
   \   00000B94   000000000000       DC8 0, 0, 0, 0, 0, 0, 0, 0, 0, 0, 0, 0, 0, 0, 0, 0
   \              000000000000
   \              00000000    
   \   00000BA4   000000000000       DC8 0, 0, 0, 0, 0, 0, 0, 0, 0, 0, 0, 0, 0, 0, 0, 0
   \              000000000000
   \              00000000    
   \   00000BB4   000000000000       DC8 0, 0, 0, 0, 0, 0, 0, 0, 0, 0, 0, 0, 0, 0, 0, 0
   \              000000000000
   \              00000000    
   \   00000BC4   000000000000       DC8 0, 0, 0, 0, 0, 0, 0, 0, 0, 0, 0, 0, 0, 0, 0, 0
   \              000000000000
   \              00000000    
   \   00000BD4   000000000000       DC8 0, 0, 0, 0, 0, 0, 0, 0, 0, 0, 0, 0, 0, 0, 0, 0
   \              000000000000
   \              00000000    
   \   00000BE4   000000000000       DC8 0, 0, 0, 0, 0, 0, 0, 0, 0, 0, 0, 0, 0, 0, 0, 0
   \              000000000000
   \              00000000    
   \   00000BF4   000000000000       DC8 0, 0, 0, 0, 0, 0, 0, 0, 0, 0, 0, 0, 0, 0, 0, 0
   \              000000000000
   \              00000000    
   \   00000C04   000000000000       DC8 0, 0, 0, 0, 0, 0, 0, 0, 0, 0, 0, 0, 0, 0, 0, 0
   \              000000000000
   \              00000000    
   \   00000C14   000000000000       DC8 0, 0, 0, 0, 0, 0, 0, 0, 0, 0, 0, 0, 0, 0, 0, 0
   \              000000000000
   \              00000000    
   \   00000C24   000000000000       DC8 0, 0, 0, 0, 0, 0, 0, 0, 0, 0, 0, 0, 0, 0, 0, 0
   \              000000000000
   \              00000000    
   \   00000C34   000000000000       DC8 0, 0, 0, 0, 0, 0, 0, 0, 0, 0, 0, 0, 0, 0, 0, 0
   \              000000000000
   \              00000000    
   \   00000C44   000000000000       DC8 0, 0, 0, 0, 0, 0, 0, 0, 0, 0, 0, 0, 0, 0, 0, 0
   \              000000000000
   \              00000000    
   \   00000C54   000000000000       DC8 0, 0, 0, 0, 0, 0, 0, 0, 0, 0, 0, 0, 0, 0, 0, 0
   \              000000000000
   \              00000000    
   \   00000C64   000000000000       DC8 0, 0, 0, 0, 0, 0, 0, 0, 0, 0, 0, 0, 0, 0, 0, 0
   \              000000000000
   \              00000000    
   \   00000C74   000000000000       DC8 0, 0, 0, 0, 0, 0, 0, 0, 0, 0, 0, 0, 0, 0, 0, 0
   \              000000000000
   \              00000000    
   \   00000C84   000000000000       DC8 0, 0, 0, 0, 0, 0, 0, 0, 0, 0, 0, 0, 0, 0, 0, 0
   \              000000000000
   \              00000000    
   \   00000C94   000000000000       DC8 0, 0, 0, 0, 0, 0, 0, 0, 0, 0, 0, 0, 0, 0, 0, 0
   \              000000000000
   \              00000000    
   \   00000CA4   000000000000       DC8 0, 0, 0, 0, 0, 0, 0, 0, 0, 0, 0, 0, 0, 0, 0, 0
   \              000000000000
   \              00000000    
   \   00000CB4   000000000000       DC8 0, 0, 0, 0, 0, 0, 0, 0, 0, 0, 0, 0, 0, 0, 0, 0
   \              000000000000
   \              00000000    
   \   00000CC4   000000000000       DC8 0, 0, 0, 0, 0, 0, 0, 0, 0, 0, 0, 0, 0, 0, 0, 0
   \              000000000000
   \              00000000    
   \   00000CD4   000000000000       DC8 0, 0, 0, 0, 0, 0, 0, 0, 0, 0, 0, 0, 0, 0, 0, 0
   \              000000000000
   \              00000000    
   \   00000CE4   56796E696C63       DC8 "Vynilchloride"
   \              686C6F726964
   \              6500        
   \   00000CF2   000000000000       DC8 0, 0, 0, 0, 0, 0
   \   00000CF8   4334483600         DC8 "C4H6"
   \   00000CFD   000000000000       DC8 0, 0, 0, 0, 0, 0, 0, 0, 0, 0, 0, 0, 0, 0, 0
   \              000000000000
   \              000000      
   \   00000D0C   3333333333DB       DC32 33333333H, 407ADB33H, 0H, 3FF00000H, 5BC01A37H, 3FD94120H
   \              7A4000000000
   \              0000F03F371A
   \              C05B2041D93F
   \   00000D24   F931E6AE25E4       DC32 0AEE631F9H, 3FD3E425H, 0H, 404F4000H, 851EB852H, 402851EBH
   \              D33F00000000
   \              00404F4052B8
   \              1E85EB512840
   \   00000D3C   3D0AD7A3703D       DC32 0A3D70A3DH, 3FFC3D70H, 11, 0C2200000H, 3F823A2AH, 3EFBF488H
   \              FC3F0B000000
   \              000020C22A3A
   \              823F88F4FB3E
   \   00000D54   9A99193E0000       DC32 3E19999AH, 0C1F00000H, 3F7FF972H, 3FBF7660H, 3EF0A3D7H, 0C1A00000H
   \              F0C172F97F3F
   \              6076BF3FD7A3
   \              F03E0000A0C1
   \   00000D6C   917E7B3FD578       DC32 3F7B7E91H, 401978D5H, 3F4A3D71H, 0C1200000H, 3F7703B0H, 405F9DB2H
   \              1940713D4A3F
   \              000020C1B003
   \              773FB29D5F40
   \   00000D84   EC51983F0000       DC32 3F9851ECH, 0H, 3F72617CH, 409EF1AAH, 3FDD70A4H, 41200000H
   \              00007C61723F
   \              AAF19E40A470
   \              DD3F00002041
   \   00000D9C   48BF6D3F7F6A       DC32 3F6DBF48H, 40DC6A7FH, 401D70A4H, 41A00000H, 3F690FF9H, 4115FBE7H
   \              DC40A4701D40
   \              0000A041F90F
   \              693FE7FB1541
   \   00000DB4   295C5F400000       DC32 405F5C29H, 41F00000H, 3F643FE6H, 414722D1H, 4092E148H, 42200000H
   \              F041E63F643F
   \              D122474148E1
   \              924000002042
   \   00000DCC   295C5F3F7368       DC32 3F5F5C29H, 41826873H, 40DC28F6H, 42480000H, 3F5A786CH, 41BD59E8H
   \              8241F628DC40
   \              000048426C78
   \              5A3FE859BD41
   \   00000DE4   48E102410000       DC32 4102E148H, 42700000H, 3F5594AFH, 41DC9062H, 411947AEH
   \              7042AF94553F
   \              6290DC41AE47
   \              1941        
   \   00000DF8   000000000000       DC8 0, 0, 0, 0, 0, 0, 0, 0, 0, 0, 0, 0, 0, 0, 0, 0
   \              000000000000
   \              00000000    
   \   00000E08   000000000000       DC8 0, 0, 0, 0, 0, 0, 0, 0, 0, 0, 0, 0, 0, 0, 0, 0
   \              000000000000
   \              00000000    
   \   00000E18   000000000000       DC8 0, 0, 0, 0, 0, 0, 0, 0, 0, 0, 0, 0, 0, 0, 0, 0
   \              000000000000
   \              00000000    
   \   00000E28   000000000000       DC8 0, 0, 0, 0, 0, 0, 0, 0, 0, 0, 0, 0, 0, 0, 0, 0
   \              000000000000
   \              00000000    
   \   00000E38   000000000000       DC8 0, 0, 0, 0, 0, 0, 0, 0, 0, 0, 0, 0, 0, 0, 0, 0
   \              000000000000
   \              00000000    
   \   00000E48   000000000000       DC8 0, 0, 0, 0, 0, 0, 0, 0, 0, 0, 0, 0, 0, 0, 0, 0
   \              000000000000
   \              00000000    
   \   00000E58   000000000000       DC8 0, 0, 0, 0, 0, 0, 0, 0, 0, 0, 0, 0, 0, 0, 0, 0
   \              000000000000
   \              00000000    
   \   00000E68   000000000000       DC8 0, 0, 0, 0, 0, 0, 0, 0, 0, 0, 0, 0, 0, 0, 0, 0
   \              000000000000
   \              00000000    
   \   00000E78   000000000000       DC8 0, 0, 0, 0, 0, 0, 0, 0, 0, 0, 0, 0, 0, 0, 0, 0
   \              000000000000
   \              00000000    
   \   00000E88   000000000000       DC8 0, 0, 0, 0, 0, 0, 0, 0, 0, 0, 0, 0, 0, 0, 0, 0
   \              000000000000
   \              00000000    
   \   00000E98   000000000000       DC8 0, 0, 0, 0, 0, 0, 0, 0, 0, 0, 0, 0, 0, 0, 0, 0
   \              000000000000
   \              00000000    
   \   00000EA8   000000000000       DC8 0, 0, 0, 0, 0, 0, 0, 0, 0, 0, 0, 0, 0, 0, 0, 0
   \              000000000000
   \              00000000    
   \   00000EB8   000000000000       DC8 0, 0, 0, 0, 0, 0, 0, 0, 0, 0, 0, 0, 0, 0, 0, 0
   \              000000000000
   \              00000000    
   \   00000EC8   000000000000       DC8 0, 0, 0, 0, 0, 0, 0, 0, 0, 0, 0, 0, 0, 0, 0, 0
   \              000000000000
   \              00000000    
   \   00000ED8   000000000000       DC8 0, 0, 0, 0, 0, 0, 0, 0, 0, 0, 0, 0, 0, 0, 0, 0
   \              000000000000
   \              00000000    
   \   00000EE8   000000000000       DC8 0, 0, 0, 0, 0, 0, 0, 0, 0, 0, 0, 0, 0, 0, 0, 0
   \              000000000000
   \              00000000    
   \   00000EF8   000000000000       DC8 0, 0, 0, 0, 0, 0, 0, 0, 0, 0, 0, 0, 0, 0, 0, 0
   \              000000000000
   \              00000000    
   \   00000F08   000000000000       DC8 0, 0, 0, 0, 0, 0, 0, 0, 0, 0, 0, 0, 0, 0, 0, 0
   \              000000000000
   \              00000000    
   \   00000F18   000000000000       DC8 0, 0, 0, 0, 0, 0, 0, 0, 0, 0, 0, 0, 0, 0, 0, 0
   \              000000000000
   \              00000000    
   \   00000F28   000000000000       DC8 0, 0, 0, 0, 0, 0, 0, 0, 0, 0, 0, 0, 0, 0, 0, 0
   \              000000000000
   \              00000000    
   \   00000F38   000000000000       DC8 0, 0, 0, 0, 0, 0, 0, 0, 0, 0, 0, 0, 0, 0, 0, 0
   \              000000000000
   \              00000000    
   \   00000F48   000000000000       DC8 0, 0, 0, 0, 0, 0, 0, 0, 0, 0, 0, 0, 0, 0, 0, 0
   \              000000000000
   \              00000000    
   \   00000F58   000000000000       DC8 0, 0, 0, 0, 0, 0, 0, 0, 0, 0, 0, 0, 0, 0, 0, 0
   \              000000000000
   \              00000000    
   \   00000F68   000000000000       DC8 0, 0, 0, 0, 0, 0, 0, 0, 0, 0, 0, 0, 0, 0, 0, 0
   \              000000000000
   \              00000000    
   \   00000F78   427574616E65       DC8 "Butane"
   \              00          
   \   00000F7F   000000000000       DC8 0, 0, 0, 0, 0, 0, 0, 0, 0, 0, 0, 0, 0
   \              000000000000
   \              00          
   \   00000F8C   433448313000       DC8 "C4H10"
   \   00000F92   000000000000       DC8 0, 0, 0, 0, 0, 0, 0, 0, 0, 0, 0, 0, 0, 0
   \              000000000000
   \              0000        
   \   00000FA0   3333333333DB       DC32 33333333H, 407ADB33H, 0H, 0H, 0H, 0H, 0H, 0H, 76C8B439H, 404D0FBEH
   \              7A4000000000
   \              000000000000
   \              000000000000
   \              000000000000
   \              000039B4C876
   \              BE0F4D40    
   \   00000FC8   E7FBA9F1D20D       DC32 0F1A9FBE7H, 40280DD2H, 0A3D70A3DH, 3FFC3D70H, 11, 0C2200000H
   \              28403D0AD7A3
   \              703DFC3F0B00
   \              0000000020C2
   \   00000FE0   0AD7233F9A77       DC32 3F23D70AH, 3F0C779AH, 3E3B645AH, 0C1F00000H, 3F216F00H, 3F5CCCCDH
   \              0C3F5A643B3E
   \              0000F0C1006F
   \              213FCDCC5C3F
   \   00000FF8   9A99993E0000       DC32 3E99999AH, 0C1A00000H, 3F1EF9DBH, 3FA8F27CH, 3EF4BC6AH, 0C1200000H
   \              A0C1DBF91E3F
   \              7CF2A83F6ABC
   \              F43E000020C1
   \   00001010   D6561C3F77BE       DC32 3F1C56D6H, 3FEFBE77H, 3F347AE1H, 0H, 3F19CE07H, 402D9E84H
   \              EF3FE17A343F
   \              0000000007CE
   \              193F849E2D40
   \   00001028   14AE873F0000       DC32 3F87AE14H, 41200000H, 3F16FD22H, 4071BF48H, 3FC3D70AH, 41A00000H
   \              204122FD163F
   \              48BF71400AD7
   \              C33F0000A041
   \   00001040   3D2C143F0C02       DC32 3F142C3DH, 40A1020CH, 40070A3DH, 41F00000H, 3F110625H, 40D483E4H
   \              A1403D0A0740
   \              0000F0412506
   \              113FE483D440
   \   00001058   00000000           DC8 0, 0, 0, 0
   \   0000105C   0000204244FA       DC32 42200000H, 3F0DFA44H, 410926E9H, 4075C28FH, 42480000H, 3F0ACD9FH
   \              0D3FE9260941
   \              8FC275400000
   \              48429FCD0A3F
   \   00001074   E2582F415C8F       DC32 412F58E2H, 40A28F5CH, 42700000H, 3F074539H, 415A38EFH, 40D00000H
   \              A24000007042
   \              3945073FEF38
   \              5A410000D040
   \   0000108C   000000000000       DC8 0, 0, 0, 0, 0, 0, 0, 0, 0, 0, 0, 0, 0, 0, 0, 0
   \              000000000000
   \              00000000    
   \   0000109C   000000000000       DC8 0, 0, 0, 0, 0, 0, 0, 0, 0, 0, 0, 0, 0, 0, 0, 0
   \              000000000000
   \              00000000    
   \   000010AC   000000000000       DC8 0, 0, 0, 0, 0, 0, 0, 0, 0, 0, 0, 0, 0, 0, 0, 0
   \              000000000000
   \              00000000    
   \   000010BC   000000000000       DC8 0, 0, 0, 0, 0, 0, 0, 0, 0, 0, 0, 0, 0, 0, 0, 0
   \              000000000000
   \              00000000    
   \   000010CC   000000000000       DC8 0, 0, 0, 0, 0, 0, 0, 0, 0, 0, 0, 0, 0, 0, 0, 0
   \              000000000000
   \              00000000    
   \   000010DC   000000000000       DC8 0, 0, 0, 0, 0, 0, 0, 0, 0, 0, 0, 0, 0, 0, 0, 0
   \              000000000000
   \              00000000    
   \   000010EC   000000000000       DC8 0, 0, 0, 0, 0, 0, 0, 0, 0, 0, 0, 0, 0, 0, 0, 0
   \              000000000000
   \              00000000    
   \   000010FC   000000000000       DC8 0, 0, 0, 0, 0, 0, 0, 0, 0, 0, 0, 0, 0, 0, 0, 0
   \              000000000000
   \              00000000    
   \   0000110C   000000000000       DC8 0, 0, 0, 0, 0, 0, 0, 0, 0, 0, 0, 0, 0, 0, 0, 0
   \              000000000000
   \              00000000    
   \   0000111C   000000000000       DC8 0, 0, 0, 0, 0, 0, 0, 0, 0, 0, 0, 0, 0, 0, 0, 0
   \              000000000000
   \              00000000    
   \   0000112C   000000000000       DC8 0, 0, 0, 0, 0, 0, 0, 0, 0, 0, 0, 0, 0, 0, 0, 0
   \              000000000000
   \              00000000    
   \   0000113C   000000000000       DC8 0, 0, 0, 0, 0, 0, 0, 0, 0, 0, 0, 0, 0, 0, 0, 0
   \              000000000000
   \              00000000    
   \   0000114C   000000000000       DC8 0, 0, 0, 0, 0, 0, 0, 0, 0, 0, 0, 0, 0, 0, 0, 0
   \              000000000000
   \              00000000    
   \   0000115C   000000000000       DC8 0, 0, 0, 0, 0, 0, 0, 0, 0, 0, 0, 0, 0, 0, 0, 0
   \              000000000000
   \              00000000    
   \   0000116C   000000000000       DC8 0, 0, 0, 0, 0, 0, 0, 0, 0, 0, 0, 0, 0, 0, 0, 0
   \              000000000000
   \              00000000    
   \   0000117C   000000000000       DC8 0, 0, 0, 0, 0, 0, 0, 0, 0, 0, 0, 0, 0, 0, 0, 0
   \              000000000000
   \              00000000    
   \   0000118C   000000000000       DC8 0, 0, 0, 0, 0, 0, 0, 0, 0, 0, 0, 0, 0, 0, 0, 0
   \              000000000000
   \              00000000    
   \   0000119C   000000000000       DC8 0, 0, 0, 0, 0, 0, 0, 0, 0, 0, 0, 0, 0, 0, 0, 0
   \              000000000000
   \              00000000    
   \   000011AC   000000000000       DC8 0, 0, 0, 0, 0, 0, 0, 0, 0, 0, 0, 0, 0, 0, 0, 0
   \              000000000000
   \              00000000    
   \   000011BC   000000000000       DC8 0, 0, 0, 0, 0, 0, 0, 0, 0, 0, 0, 0, 0, 0, 0, 0
   \              000000000000
   \              00000000    
   \   000011CC   000000000000       DC8 0, 0, 0, 0, 0, 0, 0, 0, 0, 0, 0, 0, 0, 0, 0, 0
   \              000000000000
   \              00000000    
   \   000011DC   000000000000       DC8 0, 0, 0, 0, 0, 0, 0, 0, 0, 0, 0, 0, 0, 0, 0, 0
   \              000000000000
   \              00000000    
   \   000011EC   000000000000       DC8 0, 0, 0, 0, 0, 0, 0, 0, 0, 0, 0, 0, 0, 0, 0, 0
   \              000000000000
   \              00000000    
   \   000011FC   000000000000       DC8 0, 0, 0, 0, 0, 0, 0, 0, 0, 0, 0, 0, 0, 0, 0, 0
   \              000000000000
   \              00000000    
   \   0000120C   50726F70616E       DC8 "Propane"
   \              6500        
   \   00001214   000000000000       DC8 0, 0, 0, 0, 0, 0, 0, 0, 0, 0, 0, 0
   \              000000000000
   \   00001220   4333483800         DC8 "C3H8"
   \   00001225   000000000000       DC8 0, 0, 0, 0, 0, 0, 0, 0, 0, 0, 0, 0, 0, 0, 0
   \              000000000000
   \              000000      
   \   00001234   3333333333DB       DC32 33333333H, 407ADB33H, 0H, 0H, 0H, 0H, 0H, 0H, 0BA5E353FH
   \              7A4000000000
   \              000000000000
   \              000000000000
   \              000000000000
   \              00003F355EBA
   \   00001258   490C4640E7FB       DC32 40460C49H, 0F1A9FBE7H, 40280DD2H, 0A3D70A3DH, 3FFC3D70H, 11
   \              A9F1D20D2840
   \              3D0AD7A3703D
   \              FC3F0B000000
   \   00001270   000020C22FDD       DC32 0C2200000H, 3F14DD2FH, 40151EB8H, 3F800000H, 0C1F00000H, 3F117C1CH
   \              143FB81E1540
   \              0000803F0000
   \              F0C11C7C113F
   \   00001288   9A9959400000       DC32 4059999AH, 3FC00000H, 0C1A00000H, 3F0E1B09H, 40B23D71H, 40200000H
   \              C03F0000A0C1
   \              091B0E3F713D
   \              B24000002040
   \   000012A0   000020C1F5B9       DC32 0C1200000H, 3F0AB9F5H, 40F147AEH, 405CCCCDH, 0H, 3F0758E2H
   \              0A3FAE47F140
   \              CDCC5C400000
   \              0000E258073F
   \   000012B8   14AE234114AE       DC32 4123AE14H, 4097AE14H, 41200000H, 3F03C361H, 415A147BH, 40CB851FH
   \              974000002041
   \              61C3033F7B14
   \              5A411F85CB40
   \   000012D0   0000A0410000       DC32 41A00000H, 3F000000H, 418F3333H, 4105C28FH, 41F00000H, 3EF7F62BH
   \              003F33338F41
   \              8FC205410000
   \              F0412BF6F73E
   \   000012E8   A470B941D7A3       DC32 41B970A4H, 412CA3D7H, 42200000H, 3EEDED29H, 41EDC28FH, 415B0A3DH
   \              2C4100002042
   \              29EDED3E8FC2
   \              ED413D0A5B41
   \   00001300   0000484239D6       DC32 42480000H, 3EE5D639H, 421647AEH, 41891EB8H, 42700000H, 3EDC5D64H
   \              E53EAE471642
   \              B81E89410000
   \              7042645DDC3E
   \   00001318   48E141420000       DC32 4241E148H, 41AC0000H
   \              AC41        
   \   00001320   000000000000       DC8 0, 0, 0, 0, 0, 0, 0, 0, 0, 0, 0, 0, 0, 0, 0, 0
   \              000000000000
   \              00000000    
   \   00001330   000000000000       DC8 0, 0, 0, 0, 0, 0, 0, 0, 0, 0, 0, 0, 0, 0, 0, 0
   \              000000000000
   \              00000000    
   \   00001340   000000000000       DC8 0, 0, 0, 0, 0, 0, 0, 0, 0, 0, 0, 0, 0, 0, 0, 0
   \              000000000000
   \              00000000    
   \   00001350   000000000000       DC8 0, 0, 0, 0, 0, 0, 0, 0, 0, 0, 0, 0, 0, 0, 0, 0
   \              000000000000
   \              00000000    
   \   00001360   000000000000       DC8 0, 0, 0, 0, 0, 0, 0, 0, 0, 0, 0, 0, 0, 0, 0, 0
   \              000000000000
   \              00000000    
   \   00001370   000000000000       DC8 0, 0, 0, 0, 0, 0, 0, 0, 0, 0, 0, 0, 0, 0, 0, 0
   \              000000000000
   \              00000000    
   \   00001380   000000000000       DC8 0, 0, 0, 0, 0, 0, 0, 0, 0, 0, 0, 0, 0, 0, 0, 0
   \              000000000000
   \              00000000    
   \   00001390   000000000000       DC8 0, 0, 0, 0, 0, 0, 0, 0, 0, 0, 0, 0, 0, 0, 0, 0
   \              000000000000
   \              00000000    
   \   000013A0   000000000000       DC8 0, 0, 0, 0, 0, 0, 0, 0, 0, 0, 0, 0, 0, 0, 0, 0
   \              000000000000
   \              00000000    
   \   000013B0   000000000000       DC8 0, 0, 0, 0, 0, 0, 0, 0, 0, 0, 0, 0, 0, 0, 0, 0
   \              000000000000
   \              00000000    
   \   000013C0   000000000000       DC8 0, 0, 0, 0, 0, 0, 0, 0, 0, 0, 0, 0, 0, 0, 0, 0
   \              000000000000
   \              00000000    
   \   000013D0   000000000000       DC8 0, 0, 0, 0, 0, 0, 0, 0, 0, 0, 0, 0, 0, 0, 0, 0
   \              000000000000
   \              00000000    
   \   000013E0   000000000000       DC8 0, 0, 0, 0, 0, 0, 0, 0, 0, 0, 0, 0, 0, 0, 0, 0
   \              000000000000
   \              00000000    
   \   000013F0   000000000000       DC8 0, 0, 0, 0, 0, 0, 0, 0, 0, 0, 0, 0, 0, 0, 0, 0
   \              000000000000
   \              00000000    
   \   00001400   000000000000       DC8 0, 0, 0, 0, 0, 0, 0, 0, 0, 0, 0, 0, 0, 0, 0, 0
   \              000000000000
   \              00000000    
   \   00001410   000000000000       DC8 0, 0, 0, 0, 0, 0, 0, 0, 0, 0, 0, 0, 0, 0, 0, 0
   \              000000000000
   \              00000000    
   \   00001420   000000000000       DC8 0, 0, 0, 0, 0, 0, 0, 0, 0, 0, 0, 0, 0, 0, 0, 0
   \              000000000000
   \              00000000    
   \   00001430   000000000000       DC8 0, 0, 0, 0, 0, 0, 0, 0, 0, 0, 0, 0, 0, 0, 0, 0
   \              000000000000
   \              00000000    
   \   00001440   000000000000       DC8 0, 0, 0, 0, 0, 0, 0, 0, 0, 0, 0, 0, 0, 0, 0, 0
   \              000000000000
   \              00000000    
   \   00001450   000000000000       DC8 0, 0, 0, 0, 0, 0, 0, 0, 0, 0, 0, 0, 0, 0, 0, 0
   \              000000000000
   \              00000000    
   \   00001460   000000000000       DC8 0, 0, 0, 0, 0, 0, 0, 0, 0, 0, 0, 0, 0, 0, 0, 0
   \              000000000000
   \              00000000    
   \   00001470   000000000000       DC8 0, 0, 0, 0, 0, 0, 0, 0, 0, 0, 0, 0, 0, 0, 0, 0
   \              000000000000
   \              00000000    
   \   00001480   000000000000       DC8 0, 0, 0, 0, 0, 0, 0, 0, 0, 0, 0, 0, 0, 0, 0, 0
   \              000000000000
   \              00000000    
   \   00001490   000000000000       DC8 0, 0, 0, 0, 0, 0, 0, 0, 0, 0, 0, 0, 0, 0, 0, 0
   \              000000000000
   \              00000000    
   \   000014A0   4E2D42757461       DC8 "N-Butane"
   \              6E6500      
   \   000014A9   000000000000       DC8 0, 0, 0, 0, 0, 0, 0, 0, 0, 0, 0
   \              0000000000  
   \   000014B4   6E4334483800       DC8 "nC4H8"
   \   000014BA   000000000000       DC8 0, 0, 0, 0, 0, 0, 0, 0, 0, 0, 0, 0, 0, 0
   \              000000000000
   \              0000        
   \   000014C8   333333333393       DC32 33333333H, 407A9333H, 0H, 0H, 0H, 0H, 0H, 0H, 76C8B439H, 404D0FBEH
   \              7A4000000000
   \              000000000000
   \              000000000000
   \              000000000000
   \              000039B4C876
   \              BE0F4D40    
   \   000014F0   E7FBA9F1D20D       DC32 0F1A9FBE7H, 40280DD2H, 0A3D70A3DH, 3FFC3D70H, 11, 0C2200000H
   \              28403D0AD7A3
   \              703DFC3F0B00
   \              0000000020C2
   \   00001508   D8F0243FB515       DC32 3F24F0D8H, 3EBB15B5H, 3DF5C28FH, 0C1F00000H, 3F222D0EH
   \              BB3E8FC2F53D
   \              0000F0C10E2D
   \              223F        
   \   0000151C   000000000000       DC8 0, 0, 0, 0, 0, 0, 0, 0
   \              0000        
   \   00001524   0000A0C14469       DC32 0C1A00000H, 3F1F6944H, 3F90DB8CH, 3ECCCCCDH, 0C1200000H, 3F1CA57AH
   \              1F3F8CDB903F
   \              CDCCCC3E0000
   \              20C17AA51C3F
   \   0000153C   3333F33F3333       DC32 3FF33333H, 3F333333H, 0H, 3F19E1B1H, 402E147BH, 3F83D70AH
   \              333F00000000
   \              B1E1193F7B14
   \              2E400AD7833F
   \   00001554   00002041CB10       DC32 41200000H, 3F1710CBH, 4073D70AH, 3FBD70A4H, 41A00000H, 3F1425AFH
   \              173F0AD77340
   \              A470BD3F0000
   \              A041AF25143F
   \   0000156C   295CA740E17A       DC32 40A75C29H, 40047AE1H, 41F00000H, 3F11205CH, 40E147AEH, 40351EB8H
   \              04400000F041
   \              5C20113FAE47
   \              E140B81E3540
   \   00001584   00002042D200       DC32 42200000H, 3F0E00D2H, 4115F838H, 407147AEH, 42480000H, 3F0AC083H
   \              0E3F38F81541
   \              AE4771400000
   \              484283C00A3F
   \   0000159C   F5B942418FC2       DC32 4142B9F5H, 409DC28FH, 42700000H, 3F078034H, 41828275H, 40CFAE14H
   \              9D4000007042
   \              3480073F7582
   \              824114AECF40
   \   000015B4   000000000000       DC8 0, 0, 0, 0, 0, 0, 0, 0, 0, 0, 0, 0, 0, 0, 0, 0
   \              000000000000
   \              00000000    
   \   000015C4   000000000000       DC8 0, 0, 0, 0, 0, 0, 0, 0, 0, 0, 0, 0, 0, 0, 0, 0
   \              000000000000
   \              00000000    
   \   000015D4   000000000000       DC8 0, 0, 0, 0, 0, 0, 0, 0, 0, 0, 0, 0, 0, 0, 0, 0
   \              000000000000
   \              00000000    
   \   000015E4   000000000000       DC8 0, 0, 0, 0, 0, 0, 0, 0, 0, 0, 0, 0, 0, 0, 0, 0
   \              000000000000
   \              00000000    
   \   000015F4   000000000000       DC8 0, 0, 0, 0, 0, 0, 0, 0, 0, 0, 0, 0, 0, 0, 0, 0
   \              000000000000
   \              00000000    
   \   00001604   000000000000       DC8 0, 0, 0, 0, 0, 0, 0, 0, 0, 0, 0, 0, 0, 0, 0, 0
   \              000000000000
   \              00000000    
   \   00001614   000000000000       DC8 0, 0, 0, 0, 0, 0, 0, 0, 0, 0, 0, 0, 0, 0, 0, 0
   \              000000000000
   \              00000000    
   \   00001624   000000000000       DC8 0, 0, 0, 0, 0, 0, 0, 0, 0, 0, 0, 0, 0, 0, 0, 0
   \              000000000000
   \              00000000    
   \   00001634   000000000000       DC8 0, 0, 0, 0, 0, 0, 0, 0, 0, 0, 0, 0, 0, 0, 0, 0
   \              000000000000
   \              00000000    
   \   00001644   000000000000       DC8 0, 0, 0, 0, 0, 0, 0, 0, 0, 0, 0, 0, 0, 0, 0, 0
   \              000000000000
   \              00000000    
   \   00001654   000000000000       DC8 0, 0, 0, 0, 0, 0, 0, 0, 0, 0, 0, 0, 0, 0, 0, 0
   \              000000000000
   \              00000000    
   \   00001664   000000000000       DC8 0, 0, 0, 0, 0, 0, 0, 0, 0, 0, 0, 0, 0, 0, 0, 0
   \              000000000000
   \              00000000    
   \   00001674   000000000000       DC8 0, 0, 0, 0, 0, 0, 0, 0, 0, 0, 0, 0, 0, 0, 0, 0
   \              000000000000
   \              00000000    
   \   00001684   000000000000       DC8 0, 0, 0, 0, 0, 0, 0, 0, 0, 0, 0, 0, 0, 0, 0, 0
   \              000000000000
   \              00000000    
   \   00001694   000000000000       DC8 0, 0, 0, 0, 0, 0, 0, 0, 0, 0, 0, 0, 0, 0, 0, 0
   \              000000000000
   \              00000000    
   \   000016A4   000000000000       DC8 0, 0, 0, 0, 0, 0, 0, 0, 0, 0, 0, 0, 0, 0, 0, 0
   \              000000000000
   \              00000000    
   \   000016B4   000000000000       DC8 0, 0, 0, 0, 0, 0, 0, 0, 0, 0, 0, 0, 0, 0, 0, 0
   \              000000000000
   \              00000000    
   \   000016C4   000000000000       DC8 0, 0, 0, 0, 0, 0, 0, 0, 0, 0, 0, 0, 0, 0, 0, 0
   \              000000000000
   \              00000000    
   \   000016D4   000000000000       DC8 0, 0, 0, 0, 0, 0, 0, 0, 0, 0, 0, 0, 0, 0, 0, 0
   \              000000000000
   \              00000000    
   \   000016E4   000000000000       DC8 0, 0, 0, 0, 0, 0, 0, 0, 0, 0, 0, 0, 0, 0, 0, 0
   \              000000000000
   \              00000000    
   \   000016F4   000000000000       DC8 0, 0, 0, 0, 0, 0, 0, 0, 0, 0, 0, 0, 0, 0, 0, 0
   \              000000000000
   \              00000000    
   \   00001704   000000000000       DC8 0, 0, 0, 0, 0, 0, 0, 0, 0, 0, 0, 0, 0, 0, 0, 0
   \              000000000000
   \              00000000    
   \   00001714   000000000000       DC8 0, 0, 0, 0, 0, 0, 0, 0, 0, 0, 0, 0, 0, 0, 0, 0
   \              000000000000
   \              00000000    
   \   00001724   000000000000       DC8 0, 0, 0, 0, 0, 0, 0, 0, 0, 0, 0, 0, 0, 0, 0, 0
   \              000000000000
   \              00000000    
   \   00001734   49534F2D4275       DC8 "ISO-Butane"
   \              74616E6500  
   \   0000173F   000000000000       DC8 0, 0, 0, 0, 0, 0, 0, 0, 0
   \              000000      
   \   00001748   492D43344831       DC8 "I-C4H10"
   \              3000        
   \   00001750   000000000000       DC8 0, 0, 0, 0, 0, 0, 0, 0, 0, 0, 0, 0
   \              000000000000
   \   0000175C   9A9999999981       DC32 9999999AH, 40798199H, 0H, 0H, 0H, 0H, 0H, 0H, 76C8B439H, 404D0FBEH
   \              794000000000
   \              000000000000
   \              000000000000
   \              000000000000
   \              000039B4C876
   \              BE0F4D40    
   \   00001784   E7FBA9F1D20D       DC32 0F1A9FBE7H, 40280DD2H, 0A3D70A3DH, 3FFC3D70H, 11, 0C2200000H
   \              28403D0AD7A3
   \              703DFC3F0B00
   \              0000000020C2
   \   0000179C   A54E203F85EB       DC32 3F204EA5H, 3F51EB85H, 3E947AE1H, 0C1F00000H, 3F1D6388H, 3F9D70A4H
   \              513FE17A943E
   \              0000F0C18863
   \              1D3FA4709D3F
   \   000017B4   AE47E13E0000       DC32 3EE147AEH, 0C1A00000H, 3F1A786CH, 4003D70AH, 3F3D70A4H, 0C1200000H
   \              A0C16C781A3F
   \              0AD70340A470
   \              3D3F000020C1
   \   000017CC   508D173FA470       DC32 3F178D50H, 403D70A4H, 3F8A3D71H, 0H, 3F14A234H, 4085C28FH
   \              3D40713D8A3F
   \              0000000034A2
   \              143F8FC28540
   \   000017E4   00000000           DC8 0, 0, 0, 0
   \   000017E8   000020416EA3       DC32 41200000H, 3F11A36EH, 40B947AEH, 400CCCCDH, 41A00000H, 3F0E8A72H
   \              113FAE47B940
   \              CDCC0C400000
   \              A041728A0E3F
   \   00001800   D7A3F8400000       DC32 40F8A3D7H, 40400000H, 41F00000H, 3F0B50B1H, 41247AE1H, 408051ECH
   \              40400000F041
   \              B1500B3FE17A
   \              2441EC518040
   \   00001818   000020429EEF       DC32 42200000H, 3F07EF9EH, 41566666H, 40A80000H, 42480000H, 3F0460AAH
   \              073F66665641
   \              0000A8400000
   \              4842AA60043F
   \   00001830   14AE894114AE       DC32 4189AE14H, 40D7AE14H, 42700000H, 3F00D1B7H, 41B0B852H, 4109999AH
   \              D74000007042
   \              B7D1003F52B8
   \              B0419A990941
   \   00001848   000000000000       DC8 0, 0, 0, 0, 0, 0, 0, 0, 0, 0, 0, 0, 0, 0, 0, 0
   \              000000000000
   \              00000000    
   \   00001858   000000000000       DC8 0, 0, 0, 0, 0, 0, 0, 0, 0, 0, 0, 0, 0, 0, 0, 0
   \              000000000000
   \              00000000    
   \   00001868   000000000000       DC8 0, 0, 0, 0, 0, 0, 0, 0, 0, 0, 0, 0, 0, 0, 0, 0
   \              000000000000
   \              00000000    
   \   00001878   000000000000       DC8 0, 0, 0, 0, 0, 0, 0, 0, 0, 0, 0, 0, 0, 0, 0, 0
   \              000000000000
   \              00000000    
   \   00001888   000000000000       DC8 0, 0, 0, 0, 0, 0, 0, 0, 0, 0, 0, 0, 0, 0, 0, 0
   \              000000000000
   \              00000000    
   \   00001898   000000000000       DC8 0, 0, 0, 0, 0, 0, 0, 0, 0, 0, 0, 0, 0, 0, 0, 0
   \              000000000000
   \              00000000    
   \   000018A8   000000000000       DC8 0, 0, 0, 0, 0, 0, 0, 0, 0, 0, 0, 0, 0, 0, 0, 0
   \              000000000000
   \              00000000    
   \   000018B8   000000000000       DC8 0, 0, 0, 0, 0, 0, 0, 0, 0, 0, 0, 0, 0, 0, 0, 0
   \              000000000000
   \              00000000    
   \   000018C8   000000000000       DC8 0, 0, 0, 0, 0, 0, 0, 0, 0, 0, 0, 0, 0, 0, 0, 0
   \              000000000000
   \              00000000    
   \   000018D8   000000000000       DC8 0, 0, 0, 0, 0, 0, 0, 0, 0, 0, 0, 0, 0, 0, 0, 0
   \              000000000000
   \              00000000    
   \   000018E8   000000000000       DC8 0, 0, 0, 0, 0, 0, 0, 0, 0, 0, 0, 0, 0, 0, 0, 0
   \              000000000000
   \              00000000    
   \   000018F8   000000000000       DC8 0, 0, 0, 0, 0, 0, 0, 0, 0, 0, 0, 0, 0, 0, 0, 0
   \              000000000000
   \              00000000    
   \   00001908   000000000000       DC8 0, 0, 0, 0, 0, 0, 0, 0, 0, 0, 0, 0, 0, 0, 0, 0
   \              000000000000
   \              00000000    
   \   00001918   000000000000       DC8 0, 0, 0, 0, 0, 0, 0, 0, 0, 0, 0, 0, 0, 0, 0, 0
   \              000000000000
   \              00000000    
   \   00001928   000000000000       DC8 0, 0, 0, 0, 0, 0, 0, 0, 0, 0, 0, 0, 0, 0, 0, 0
   \              000000000000
   \              00000000    
   \   00001938   000000000000       DC8 0, 0, 0, 0, 0, 0, 0, 0, 0, 0, 0, 0, 0, 0, 0, 0
   \              000000000000
   \              00000000    
   \   00001948   000000000000       DC8 0, 0, 0, 0, 0, 0, 0, 0, 0, 0, 0, 0, 0, 0, 0, 0
   \              000000000000
   \              00000000    
   \   00001958   000000000000       DC8 0, 0, 0, 0, 0, 0, 0, 0, 0, 0, 0, 0, 0, 0, 0, 0
   \              000000000000
   \              00000000    
   \   00001968   000000000000       DC8 0, 0, 0, 0, 0, 0, 0, 0, 0, 0, 0, 0, 0, 0, 0, 0
   \              000000000000
   \              00000000    
   \   00001978   000000000000       DC8 0, 0, 0, 0, 0, 0, 0, 0, 0, 0, 0, 0, 0, 0, 0, 0
   \              000000000000
   \              00000000    
   \   00001988   000000000000       DC8 0, 0, 0, 0, 0, 0, 0, 0, 0, 0, 0, 0, 0, 0, 0, 0
   \              000000000000
   \              00000000    
   \   00001998   000000000000       DC8 0, 0, 0, 0, 0, 0, 0, 0, 0, 0, 0, 0, 0, 0, 0, 0
   \              000000000000
   \              00000000    
   \   000019A8   000000000000       DC8 0, 0, 0, 0, 0, 0, 0, 0, 0, 0, 0, 0, 0, 0, 0, 0
   \              000000000000
   \              00000000    
   \   000019B8   000000000000       DC8 0, 0, 0, 0, 0, 0, 0, 0, 0, 0, 0, 0, 0, 0, 0, 0
   \              000000000000
   \              00000000    
   \   000019C8   312D42757465       DC8 "1-Butene"
   \              6E6500      
   \   000019D1   000000000000       DC8 0, 0, 0, 0, 0, 0, 0, 0, 0, 0, 0
   \              0000000000  
   \   000019DC   312D43344838       DC8 "1-C4H8 "
   \              2000        
   \   000019E4   000000000000       DC8 0, 0, 0, 0, 0, 0, 0, 0, 0, 0, 0, 0
   \              000000000000
   \   000019F0   333333333393       DC32 33333333H, 407A9333H, 0H, 0H, 0H, 0H, 0H, 0H, 2D0E5604H, 404C0DB2H
   \              7A4000000000
   \              000000000000
   \              000000000000
   \              000000000000
   \              000004560E2D
   \              B20D4C40    
   \   00001A18   E7FBA9F1D20D       DC32 0F1A9FBE7H, 40280DD2H, 0A3D70A3DH, 3FFC3D70H, 11, 0C2200000H
   \              28403D0AD7A3
   \              703DFC3F0B00
   \              0000000020C2
   \   00001A30   D93D293F6666       DC32 3F293DD9H, 3F266666H, 3E6147AEH, 0C1F00000H, 3F2652BDH, 3F7AE148H
   \              263FAE47613E
   \              0000F0C1BD52
   \              263F48E17A3F
   \   00001A48   EC51B83E0000       DC32 3EB851ECH, 0C1A00000H, 3F2367A1H, 3FC28F5CH, 3F0F5C29H, 0C1200000H
   \              A0C1A167233F
   \              5C8FC23F295C
   \              0F3F000020C1
   \   00001A60   857C203F5C8F       DC32 3F207C85H, 40128F5CH, 3F5EB852H, 0H, 3F1D9168H, 4051EB85H
   \              124052B85E3F
   \              000000006891
   \              1D3F85EB5140
   \   00001A78   0AD7A33F0000       DC32 3FA3D70AH, 41200000H, 3F1A9931H, 4092E148H, 3FEA3D71H, 41A00000H
   \              204131991A3F
   \              48E19240713D
   \              EA3F0000A041
   \   00001A90   3480173FEC51       DC32 3F178034H, 40C851ECH, 40228F5CH, 41F00000H, 3F14538FH, 4105EB85H
   \              C8405C8F2240
   \              0000F0418F53
   \              143F85EB0541
   \   00001AA8   F6285C400000       DC32 405C28F6H, 42200000H, 3F10FF97H, 413028F6H, 4091EB85H, 42480000H
   \              204297FF103F
   \              F628304185EB
   \              914000004842
   \   00001AC0   DB8A0D3FEC51       DC32 3F0D8ADBH, 416451ECH, 40BDC28FH, 42700000H, 3F0A161EH, 41927AE1H
   \              64418FC2BD40
   \              000070421E16
   \              0A3FE17A9241
   \   00001AD8   1F85F340           DC32 40F3851FH
   \   00001ADC   000000000000       DC8 0, 0, 0, 0, 0, 0, 0, 0, 0, 0, 0, 0, 0, 0, 0, 0
   \              000000000000
   \              00000000    
   \   00001AEC   000000000000       DC8 0, 0, 0, 0, 0, 0, 0, 0, 0, 0, 0, 0, 0, 0, 0, 0
   \              000000000000
   \              00000000    
   \   00001AFC   000000000000       DC8 0, 0, 0, 0, 0, 0, 0, 0, 0, 0, 0, 0, 0, 0, 0, 0
   \              000000000000
   \              00000000    
   \   00001B0C   000000000000       DC8 0, 0, 0, 0, 0, 0, 0, 0, 0, 0, 0, 0, 0, 0, 0, 0
   \              000000000000
   \              00000000    
   \   00001B1C   000000000000       DC8 0, 0, 0, 0, 0, 0, 0, 0, 0, 0, 0, 0, 0, 0, 0, 0
   \              000000000000
   \              00000000    
   \   00001B2C   000000000000       DC8 0, 0, 0, 0, 0, 0, 0, 0, 0, 0, 0, 0, 0, 0, 0, 0
   \              000000000000
   \              00000000    
   \   00001B3C   000000000000       DC8 0, 0, 0, 0, 0, 0, 0, 0, 0, 0, 0, 0, 0, 0, 0, 0
   \              000000000000
   \              00000000    
   \   00001B4C   000000000000       DC8 0, 0, 0, 0, 0, 0, 0, 0, 0, 0, 0, 0, 0, 0, 0, 0
   \              000000000000
   \              00000000    
   \   00001B5C   000000000000       DC8 0, 0, 0, 0, 0, 0, 0, 0, 0, 0, 0, 0, 0, 0, 0, 0
   \              000000000000
   \              00000000    
   \   00001B6C   000000000000       DC8 0, 0, 0, 0, 0, 0, 0, 0, 0, 0, 0, 0, 0, 0, 0, 0
   \              000000000000
   \              00000000    
   \   00001B7C   000000000000       DC8 0, 0, 0, 0, 0, 0, 0, 0, 0, 0, 0, 0, 0, 0, 0, 0
   \              000000000000
   \              00000000    
   \   00001B8C   000000000000       DC8 0, 0, 0, 0, 0, 0, 0, 0, 0, 0, 0, 0, 0, 0, 0, 0
   \              000000000000
   \              00000000    
   \   00001B9C   000000000000       DC8 0, 0, 0, 0, 0, 0, 0, 0, 0, 0, 0, 0, 0, 0, 0, 0
   \              000000000000
   \              00000000    
   \   00001BAC   000000000000       DC8 0, 0, 0, 0, 0, 0, 0, 0, 0, 0, 0, 0, 0, 0, 0, 0
   \              000000000000
   \              00000000    
   \   00001BBC   000000000000       DC8 0, 0, 0, 0, 0, 0, 0, 0, 0, 0, 0, 0, 0, 0, 0, 0
   \              000000000000
   \              00000000    
   \   00001BCC   000000000000       DC8 0, 0, 0, 0, 0, 0, 0, 0, 0, 0, 0, 0, 0, 0, 0, 0
   \              000000000000
   \              00000000    
   \   00001BDC   000000000000       DC8 0, 0, 0, 0, 0, 0, 0, 0, 0, 0, 0, 0, 0, 0, 0, 0
   \              000000000000
   \              00000000    
   \   00001BEC   000000000000       DC8 0, 0, 0, 0, 0, 0, 0, 0, 0, 0, 0, 0, 0, 0, 0, 0
   \              000000000000
   \              00000000    
   \   00001BFC   000000000000       DC8 0, 0, 0, 0, 0, 0, 0, 0, 0, 0, 0, 0, 0, 0, 0, 0
   \              000000000000
   \              00000000    
   \   00001C0C   000000000000       DC8 0, 0, 0, 0, 0, 0, 0, 0, 0, 0, 0, 0, 0, 0, 0, 0
   \              000000000000
   \              00000000    
   \   00001C1C   000000000000       DC8 0, 0, 0, 0, 0, 0, 0, 0, 0, 0, 0, 0, 0, 0, 0, 0
   \              000000000000
   \              00000000    
   \   00001C2C   000000000000       DC8 0, 0, 0, 0, 0, 0, 0, 0, 0, 0, 0, 0, 0, 0, 0, 0
   \              000000000000
   \              00000000    
   \   00001C3C   000000000000       DC8 0, 0, 0, 0, 0, 0, 0, 0, 0, 0, 0, 0, 0, 0, 0, 0
   \              000000000000
   \              00000000    
   \   00001C4C   000000000000       DC8 0, 0, 0, 0, 0, 0, 0, 0, 0, 0, 0, 0, 0, 0, 0, 0
   \              000000000000
   \              00000000    
   \   00001C5C   437275646520       DC8 "Crude C4"
   \              433400      
   \   00001C65   000000000000       DC8 0, 0, 0, 0, 0, 0, 0, 0, 0, 0, 0
   \              0000000000  
   \   00001C70   433400             DC8 "C4"
   \   00001C73   000000000000       DC8 0, 0, 0, 0, 0, 0, 0, 0, 0, 0, 0, 0, 0, 0, 0, 0, 0
   \              000000000000
   \              0000000000  
   \   00001C84   000000000000       DC32 0H, 0H, 0H, 0H, 0H, 0H, 0H, 0H, 0E353F7CFH, 404B8BA5H, 0F1A9FBE7H
   \              000000000000
   \              000000000000
   \              000000000000
   \              000000000000
   \              0000CFF753E3
   \              A58B4B40E7FB
   \              A9F1        
   \   00001CB0   D20D28403D0A       DC32 40280DD2H, 0A3D70A3DH, 3FFC3D70H, 11, 0C2200000H, 3F2D4FDFH
   \              D7A3703DFC3F
   \              0B0000000000
   \              20C2DF4F2D3F
   \   00001CC8   D0B3913F1F85       DC32 3F91B3D0H, 3DEB851FH, 0C1F00000H, 3F2A3D71H, 3FB6F9DBH, 3E76C8B4H
   \              EB3D0000F0C1
   \              713D2A3FDBF9
   \              B63FB4C8763E
   \   00001CE0   0000A0C18B6C       DC32 0C1A00000H, 3F276C8BH, 3FAE0AA6H, 3F07EF9EH, 0C1200000H, 3F245A1DH
   \              273FA60AAE3F
   \              9EEF073F0000
   \              20C11D5A243F
   \   00001CF8   840D0F403789       DC32 400F0D84H, 3F618937H, 0H, 3F210625H, 404EB368H, 3FA6872BH
   \              613F00000000
   \              2506213F68B3
   \              4E402B87A63F
   \   00001D10   00002041B6F3       DC32 41200000H, 3F1DF3B6H, 40902EB2H, 3FECCCCDH, 41A00000H, 3F1AE148H
   \              1D3FB22E9040
   \              CDCCEC3F0000
   \              A04148E11A3F
   \   00001D28   B4C8C4408195       DC32 40C4C8B4H, 40239581H, 41F00000H, 3F178D50H, 410394AFH, 405D0E56H
   \              23400000F041
   \              508D173FAF94
   \              0341560E5D40
   \   00001D40   000020425839       DC32 42200000H, 3F143958H, 412BF62BH, 409072B0H, 42480000H, 3F10E560H
   \              143F2BF62B41
   \              B07290400000
   \              484260E5103F
   \   00001D58   ECC053418941       DC32 4153C0ECH, 40B04189H, 42700000H, 3F0872B0H, 41767B4AH, 40CE6666H
   \              B04000007042
   \              B072083F4A7B
   \              76416666CE40
   \   00001D70   000000000000       DC8 0, 0, 0, 0, 0, 0, 0, 0, 0, 0, 0, 0, 0, 0, 0, 0
   \              000000000000
   \              00000000    
   \   00001D80   000000000000       DC8 0, 0, 0, 0, 0, 0, 0, 0, 0, 0, 0, 0, 0, 0, 0, 0
   \              000000000000
   \              00000000    
   \   00001D90   000000000000       DC8 0, 0, 0, 0, 0, 0, 0, 0, 0, 0, 0, 0, 0, 0, 0, 0
   \              000000000000
   \              00000000    
   \   00001DA0   000000000000       DC8 0, 0, 0, 0, 0, 0, 0, 0, 0, 0, 0, 0, 0, 0, 0, 0
   \              000000000000
   \              00000000    
   \   00001DB0   000000000000       DC8 0, 0, 0, 0, 0, 0, 0, 0, 0, 0, 0, 0, 0, 0, 0, 0
   \              000000000000
   \              00000000    
   \   00001DC0   000000000000       DC8 0, 0, 0, 0, 0, 0, 0, 0, 0, 0, 0, 0, 0, 0, 0, 0
   \              000000000000
   \              00000000    
   \   00001DD0   000000000000       DC8 0, 0, 0, 0, 0, 0, 0, 0, 0, 0, 0, 0, 0, 0, 0, 0
   \              000000000000
   \              00000000    
   \   00001DE0   000000000000       DC8 0, 0, 0, 0, 0, 0, 0, 0, 0, 0, 0, 0, 0, 0, 0, 0
   \              000000000000
   \              00000000    
   \   00001DF0   000000000000       DC8 0, 0, 0, 0, 0, 0, 0, 0, 0, 0, 0, 0, 0, 0, 0, 0
   \              000000000000
   \              00000000    
   \   00001E00   000000000000       DC8 0, 0, 0, 0, 0, 0, 0, 0, 0, 0, 0, 0, 0, 0, 0, 0
   \              000000000000
   \              00000000    
   \   00001E10   000000000000       DC8 0, 0, 0, 0, 0, 0, 0, 0, 0, 0, 0, 0, 0, 0, 0, 0
   \              000000000000
   \              00000000    
   \   00001E20   000000000000       DC8 0, 0, 0, 0, 0, 0, 0, 0, 0, 0, 0, 0, 0, 0, 0, 0
   \              000000000000
   \              00000000    
   \   00001E30   000000000000       DC8 0, 0, 0, 0, 0, 0, 0, 0, 0, 0, 0, 0, 0, 0, 0, 0
   \              000000000000
   \              00000000    
   \   00001E40   000000000000       DC8 0, 0, 0, 0, 0, 0, 0, 0, 0, 0, 0, 0, 0, 0, 0, 0
   \              000000000000
   \              00000000    
   \   00001E50   000000000000       DC8 0, 0, 0, 0, 0, 0, 0, 0, 0, 0, 0, 0, 0, 0, 0, 0
   \              000000000000
   \              00000000    
   \   00001E60   000000000000       DC8 0, 0, 0, 0, 0, 0, 0, 0, 0, 0, 0, 0, 0, 0, 0, 0
   \              000000000000
   \              00000000    
   \   00001E70   000000000000       DC8 0, 0, 0, 0, 0, 0, 0, 0, 0, 0, 0, 0, 0, 0, 0, 0
   \              000000000000
   \              00000000    
   \   00001E80   000000000000       DC8 0, 0, 0, 0, 0, 0, 0, 0, 0, 0, 0, 0, 0, 0, 0, 0
   \              000000000000
   \              00000000    
   \   00001E90   000000000000       DC8 0, 0, 0, 0, 0, 0, 0, 0, 0, 0, 0, 0, 0, 0, 0, 0
   \              000000000000
   \              00000000    
   \   00001EA0   000000000000       DC8 0, 0, 0, 0, 0, 0, 0, 0, 0, 0, 0, 0, 0, 0, 0, 0
   \              000000000000
   \              00000000    
   \   00001EB0   000000000000       DC8 0, 0, 0, 0, 0, 0, 0, 0, 0, 0, 0, 0, 0, 0, 0, 0
   \              000000000000
   \              00000000    
   \   00001EC0   000000000000       DC8 0, 0, 0, 0, 0, 0, 0, 0, 0, 0, 0, 0, 0, 0, 0, 0
   \              000000000000
   \              00000000    
   \   00001ED0   000000000000       DC8 0, 0, 0, 0, 0, 0, 0, 0, 0, 0, 0, 0, 0, 0, 0, 0
   \              000000000000
   \              00000000    
   \   00001EE0   000000000000       DC8 0, 0, 0, 0, 0, 0, 0, 0, 0, 0, 0, 0, 0, 0, 0, 0
   \              000000000000
   \              00000000    
   \   00001EF0   52616666696E       DC8 "Raffinate 1"
   \              617465203100
   \   00001EFC   000000000000       DC8 0, 0, 0, 0, 0, 0, 0, 0
   \              0000        
   \   00001F04   4300               DC8 "C"
   \   00001F06   000000000000       DC8 0, 0, 0, 0, 0, 0, 0, 0, 0, 0, 0, 0, 0, 0, 0, 0, 0, 0
   \              000000000000
   \              000000000000
   \   00001F18   000000000000       DC32 0H, 0H, 0H, 0H, 0H, 0H, 0H, 0H, 33333333H, 404C3333H, 0F1A9FBE7H
   \              000000000000
   \              000000000000
   \              000000000000
   \              000000000000
   \              000033333333
   \              33334C40E7FB
   \              A9F1        
   \   00001F44   D20D28403D0A       DC32 40280DD2H, 0A3D70A3DH, 3FFC3D70H, 11, 0C2200000H, 3F2A0903H
   \              D7A3703DFC3F
   \              0B0000000000
   \              20C203092A3F
   \   00001F5C   D0B3913F1F85       DC32 3F91B3D0H, 3DEB851FH, 0C1F00000H, 3F271DE7H, 3FB6F9DBH, 3E76C8B4H
   \              EB3D0000F0C1
   \              E71D273FDBF9
   \              B63FB4C8763E
   \   00001F74   0000A0C1CA32       DC32 0C1A00000H, 3F2432CAH, 3FAE0AA6H, 3F07EF9EH, 0C1200000H, 3F2147AEH
   \              243FA60AAE3F
   \              9EEF073F0000
   \              20C1AE47213F
   \   00001F8C   840D0F403789       DC32 400F0D84H, 3F618937H, 0H, 3F1E5C92H, 404EB368H, 3FA6872BH
   \              613F00000000
   \              925C1E3F68B3
   \              4E402B87A63F
   \   00001FA4   00002041CC5D       DC32 41200000H, 3F1B5DCCH, 40902EB2H, 3FECCCCDH, 41A00000H, 3F184B5EH
   \              1B3FB22E9040
   \              CDCCEC3F0000
   \              A0415E4B183F
   \   00001FBC   B4C8C4408195       DC32 40C4C8B4H, 40239581H, 41F00000H, 3F15182BH, 410394AFH, 405D0E56H
   \              23400000F041
   \              2B18153FAF94
   \              0341560E5D40
   \   00001FD4   0000204233C4       DC32 42200000H, 3F11C433H, 412BF62BH, 409072B0H, 42480000H, 3F0E9100H
   \              113F2BF62B41
   \              B07290400000
   \              484200910E3F
   \   00001FEC   ECC053418941       DC32 4153C0ECH, 40B04189H, 42700000H, 3F0B3D08H, 41767B4AH, 40CE6666H
   \              B04000007042
   \              083D0B3F4A7B
   \              76416666CE40
   \   00002004   000000000000       DC8 0, 0, 0, 0, 0, 0, 0, 0, 0, 0, 0, 0, 0, 0, 0, 0
   \              000000000000
   \              00000000    
   \   00002014   000000000000       DC8 0, 0, 0, 0, 0, 0, 0, 0, 0, 0, 0, 0, 0, 0, 0, 0
   \              000000000000
   \              00000000    
   \   00002024   000000000000       DC8 0, 0, 0, 0, 0, 0, 0, 0, 0, 0, 0, 0, 0, 0, 0, 0
   \              000000000000
   \              00000000    
   \   00002034   000000000000       DC8 0, 0, 0, 0, 0, 0, 0, 0, 0, 0, 0, 0, 0, 0, 0, 0
   \              000000000000
   \              00000000    
   \   00002044   000000000000       DC8 0, 0, 0, 0, 0, 0, 0, 0, 0, 0, 0, 0, 0, 0, 0, 0
   \              000000000000
   \              00000000    
   \   00002054   000000000000       DC8 0, 0, 0, 0, 0, 0, 0, 0, 0, 0, 0, 0, 0, 0, 0, 0
   \              000000000000
   \              00000000    
   \   00002064   000000000000       DC8 0, 0, 0, 0, 0, 0, 0, 0, 0, 0, 0, 0, 0, 0, 0, 0
   \              000000000000
   \              00000000    
   \   00002074   000000000000       DC8 0, 0, 0, 0, 0, 0, 0, 0, 0, 0, 0, 0, 0, 0, 0, 0
   \              000000000000
   \              00000000    
   \   00002084   000000000000       DC8 0, 0, 0, 0, 0, 0, 0, 0, 0, 0, 0, 0, 0, 0, 0, 0
   \              000000000000
   \              00000000    
   \   00002094   000000000000       DC8 0, 0, 0, 0, 0, 0, 0, 0, 0, 0, 0, 0, 0, 0, 0, 0
   \              000000000000
   \              00000000    
   \   000020A4   000000000000       DC8 0, 0, 0, 0, 0, 0, 0, 0, 0, 0, 0, 0, 0, 0, 0, 0
   \              000000000000
   \              00000000    
   \   000020B4   000000000000       DC8 0, 0, 0, 0, 0, 0, 0, 0, 0, 0, 0, 0, 0, 0, 0, 0
   \              000000000000
   \              00000000    
   \   000020C4   000000000000       DC8 0, 0, 0, 0, 0, 0, 0, 0, 0, 0, 0, 0, 0, 0, 0, 0
   \              000000000000
   \              00000000    
   \   000020D4   000000000000       DC8 0, 0, 0, 0, 0, 0, 0, 0, 0, 0, 0, 0, 0, 0, 0, 0
   \              000000000000
   \              00000000    
   \   000020E4   000000000000       DC8 0, 0, 0, 0, 0, 0, 0, 0, 0, 0, 0, 0, 0, 0, 0, 0
   \              000000000000
   \              00000000    
   \   000020F4   000000000000       DC8 0, 0, 0, 0, 0, 0, 0, 0, 0, 0, 0, 0, 0, 0, 0, 0
   \              000000000000
   \              00000000    
   \   00002104   000000000000       DC8 0, 0, 0, 0, 0, 0, 0, 0, 0, 0, 0, 0, 0, 0, 0, 0
   \              000000000000
   \              00000000    
   \   00002114   000000000000       DC8 0, 0, 0, 0, 0, 0, 0, 0, 0, 0, 0, 0, 0, 0, 0, 0
   \              000000000000
   \              00000000    
   \   00002124   000000000000       DC8 0, 0, 0, 0, 0, 0, 0, 0, 0, 0, 0, 0, 0, 0, 0, 0
   \              000000000000
   \              00000000    
   \   00002134   000000000000       DC8 0, 0, 0, 0, 0, 0, 0, 0, 0, 0, 0, 0, 0, 0, 0, 0
   \              000000000000
   \              00000000    
   \   00002144   000000000000       DC8 0, 0, 0, 0, 0, 0, 0, 0, 0, 0, 0, 0, 0, 0, 0, 0
   \              000000000000
   \              00000000    
   \   00002154   000000000000       DC8 0, 0, 0, 0, 0, 0, 0, 0, 0, 0, 0, 0, 0, 0, 0, 0
   \              000000000000
   \              00000000    
   \   00002164   000000000000       DC8 0, 0, 0, 0, 0, 0, 0, 0, 0, 0, 0, 0, 0, 0, 0, 0
   \              000000000000
   \              00000000    
   \   00002174   000000000000       DC8 0, 0, 0, 0, 0, 0, 0, 0, 0, 0, 0, 0, 0, 0, 0, 0
   \              000000000000
   \              00000000    
   \   00002184   52616666696E       DC8 "Raffinate 2"
   \              617465203200
   \   00002190   000000000000       DC8 0, 0, 0, 0, 0, 0, 0, 0
   \              0000        
   \   00002198   4300               DC8 "C"
   \   0000219A   000000000000       DC8 0, 0, 0, 0, 0, 0, 0, 0, 0, 0, 0, 0, 0, 0, 0, 0, 0, 0
   \              000000000000
   \              000000000000
   \   000021AC   000000000000       DC32 0H, 0H, 0H, 0H, 0H, 0H, 0H, 0H, 66666666H, 404C6666H, 0F1A9FBE7H
   \              000000000000
   \              000000000000
   \              000000000000
   \              000000000000
   \              000066666666
   \              66664C40E7FB
   \              A9F1        
   \   000021D8   D20D28403D0A       DC32 40280DD2H, 0A3D70A3DH, 3FFC3D70H, 11, 0C2200000H, 3F2AF4F1H
   \              D7A3703DFC3F
   \              0B0000000000
   \              20C2F1F42A3F
   \   000021F0   D0B3913F1F85       DC32 3F91B3D0H, 3DEB851FH, 0C1F00000H, 3F281062H, 3FB6F9DBH, 3E76C8B4H
   \              EB3D0000F0C1
   \              6210283FDBF9
   \              B63FB4C8763E
   \   00002208   0000A0C1D42B       DC32 0C1A00000H, 3F252BD4H, 3FAE0AA6H, 3F07EF9EH, 0C1200000H, 3F224745H
   \              253FA60AAE3F
   \              9EEF073F0000
   \              20C14547223F
   \   00002220   840D0F403789       DC32 400F0D84H, 3F618937H, 0H, 3F1F62B7H, 404EB368H, 3FA6872BH
   \              613F00000000
   \              B7621F3F68B3
   \              4E402B87A63F
   \   00002238   00002041287E       DC32 41200000H, 3F1C7E28H, 40902EB2H, 3FECCCCDH, 41A00000H, 3F19A027H
   \              1C3FB22E9040
   \              CDCCEC3F0000
   \              A04127A0193F
   \   00002250   B4C8C4408195       DC32 40C4C8B4H, 40239581H, 41F00000H, 3F16C227H, 410394AFH, 405D0E56H
   \              23400000F041
   \              27C2163FAF94
   \              0341560E5D40
   \   00002268   0000204298DD       DC32 42200000H, 3F13DD98H, 412BF62BH, 409072B0H, 42480000H, 3F10F909H
   \              133F2BF62B41
   \              B07290400000
   \              484209F9103F
   \   00002280   ECC053418941       DC32 4153C0ECH, 40B04189H, 42700000H, 3F0E147BH, 41767B4AH, 40CE6666H
   \              B04000007042
   \              7B140E3F4A7B
   \              76416666CE40
   \   00002298   000000000000       DC8 0, 0, 0, 0, 0, 0, 0, 0, 0, 0, 0, 0, 0, 0, 0, 0
   \              000000000000
   \              00000000    
   \   000022A8   000000000000       DC8 0, 0, 0, 0, 0, 0, 0, 0, 0, 0, 0, 0, 0, 0, 0, 0
   \              000000000000
   \              00000000    
   \   000022B8   000000000000       DC8 0, 0, 0, 0, 0, 0, 0, 0, 0, 0, 0, 0, 0, 0, 0, 0
   \              000000000000
   \              00000000    
   \   000022C8   000000000000       DC8 0, 0, 0, 0, 0, 0, 0, 0, 0, 0, 0, 0, 0, 0, 0, 0
   \              000000000000
   \              00000000    
   \   000022D8   000000000000       DC8 0, 0, 0, 0, 0, 0, 0, 0, 0, 0, 0, 0, 0, 0, 0, 0
   \              000000000000
   \              00000000    
   \   000022E8   000000000000       DC8 0, 0, 0, 0, 0, 0, 0, 0, 0, 0, 0, 0, 0, 0, 0, 0
   \              000000000000
   \              00000000    
   \   000022F8   000000000000       DC8 0, 0, 0, 0, 0, 0, 0, 0, 0, 0, 0, 0, 0, 0, 0, 0
   \              000000000000
   \              00000000    
   \   00002308   000000000000       DC8 0, 0, 0, 0, 0, 0, 0, 0, 0, 0, 0, 0, 0, 0, 0, 0
   \              000000000000
   \              00000000    
   \   00002318   000000000000       DC8 0, 0, 0, 0, 0, 0, 0, 0, 0, 0, 0, 0, 0, 0, 0, 0
   \              000000000000
   \              00000000    
   \   00002328   000000000000       DC8 0, 0, 0, 0, 0, 0, 0, 0, 0, 0, 0, 0, 0, 0, 0, 0
   \              000000000000
   \              00000000    
   \   00002338   000000000000       DC8 0, 0, 0, 0, 0, 0, 0, 0, 0, 0, 0, 0, 0, 0, 0, 0
   \              000000000000
   \              00000000    
   \   00002348   000000000000       DC8 0, 0, 0, 0, 0, 0, 0, 0, 0, 0, 0, 0, 0, 0, 0, 0
   \              000000000000
   \              00000000    
   \   00002358   000000000000       DC8 0, 0, 0, 0, 0, 0, 0, 0, 0, 0, 0, 0, 0, 0, 0, 0
   \              000000000000
   \              00000000    
   \   00002368   000000000000       DC8 0, 0, 0, 0, 0, 0, 0, 0, 0, 0, 0, 0, 0, 0, 0, 0
   \              000000000000
   \              00000000    
   \   00002378   000000000000       DC8 0, 0, 0, 0, 0, 0, 0, 0, 0, 0, 0, 0, 0, 0, 0, 0
   \              000000000000
   \              00000000    
   \   00002388   000000000000       DC8 0, 0, 0, 0, 0, 0, 0, 0, 0, 0, 0, 0, 0, 0, 0, 0
   \              000000000000
   \              00000000    
   \   00002398   000000000000       DC8 0, 0, 0, 0, 0, 0, 0, 0, 0, 0, 0, 0, 0, 0, 0, 0
   \              000000000000
   \              00000000    
   \   000023A8   000000000000       DC8 0, 0, 0, 0, 0, 0, 0, 0, 0, 0, 0, 0, 0, 0, 0, 0
   \              000000000000
   \              00000000    
   \   000023B8   000000000000       DC8 0, 0, 0, 0, 0, 0, 0, 0, 0, 0, 0, 0, 0, 0, 0, 0
   \              000000000000
   \              00000000    
   \   000023C8   000000000000       DC8 0, 0, 0, 0, 0, 0, 0, 0, 0, 0, 0, 0, 0, 0, 0, 0
   \              000000000000
   \              00000000    
   \   000023D8   000000000000       DC8 0, 0, 0, 0, 0, 0, 0, 0, 0, 0, 0, 0, 0, 0, 0, 0
   \              000000000000
   \              00000000    
   \   000023E8   000000000000       DC8 0, 0, 0, 0, 0, 0, 0, 0, 0, 0, 0, 0, 0, 0, 0, 0
   \              000000000000
   \              00000000    
   \   000023F8   000000000000       DC8 0, 0, 0, 0, 0, 0, 0, 0, 0, 0, 0, 0, 0, 0, 0, 0
   \              000000000000
   \              00000000    
   \   00002408   000000000000       DC8 0, 0, 0, 0, 0, 0, 0, 0, 0, 0, 0, 0, 0, 0, 0, 0
   \              000000000000
   \              00000000    
   \   00002418   50726F70796C       DC8 "Propylene Ref"
   \              656E65205265
   \              6600        
   \   00002426   000000000000       DC8 0, 0, 0, 0, 0, 0
   \   0000242C   50726F6D6978       DC8 "Promix NR"
   \              204E5200    
   \   00002436   000000000000       DC8 0, 0, 0, 0, 0, 0, 0, 0, 0, 0
   \              00000000    
   \   00002440   66666666662E       DC32 66666666H, 40762E66H, 0H, 0H, 0H, 0H, 0H, 0H, 0EB851EB8H
   \              764000000000
   \              000000000000
   \              000000000000
   \              000000000000
   \              0000B81E85EB
   \   00002464   51484540E7FB       DC32 40454851H, 0F1A9FBE7H, 40280DD2H, 0A3D70A3DH, 3FFC3D70H, 11
   \              A9F1D20D2840
   \              3D0AD7A3703D
   \              FC3F0B000000
   \   0000247C   000020C298DD       DC32 0C2200000H, 3F13DD98H, 40C05A1DH, 4036B852H, 0C1F00000H, 3F13DD98H
   \              133F1D5AC040
   \              52B836400000
   \              F0C198DD133F
   \   00002494   1D5AC04052B8       DC32 40C05A1DH, 4036B852H, 0C1A00000H, 3F10D1B7H, 40E90625H, 406676C9H
   \              36400000A0C1
   \              B7D1103F2506
   \              E940C9766640
   \   000024AC   000020C19FAB       DC32 0C1200000H, 3F0DAB9FH, 411E5604H, 40A2C8B4H, 0H, 3F0A8C15H
   \              0D3F04561E41
   \              B4C8A2400000
   \              0000158C0A3F
   \   000024C4   42604541BE9F       DC32 41456042H, 40D29FBEH, 41200000H, 3F071759H, 41746A7FH, 41072F1BH
   \              D24000002041
   \              5917073F7F6A
   \              74411B2F0741
   \   000024DC   0000A041BC74       DC32 41A00000H, 3F0374BCH, 4196126FH, 412BDF3BH, 41F00000H, 3EFF3B64H
   \              033F6F129641
   \              3BDF2B410000
   \              F041643BFF3E
   \   000024F4   E3A5B6410456       DC32 41B6A5E3H, 41585604H, 42200000H, 3EF70A3DH, 41DDBE77H, 4187A3D7H
   \              584100002042
   \              3D0AF73E77BE
   \              DD41D7A38741
   \   0000250C   000048423B70       DC32 42480000H, 3EEE703BH, 420426E9H, 41A6D70AH, 42700000H, 3EE56042H
   \              EE3EE9260442
   \              0AD7A6410000
   \              70424260E53E
   \   00002524   022B1E422FDD       DC32 421E2B02H, 41CDDD2FH
   \              CD41        
   \   0000252C   000000000000       DC8 0, 0, 0, 0, 0, 0, 0, 0, 0, 0, 0, 0, 0, 0, 0, 0
   \              000000000000
   \              00000000    
   \   0000253C   000000000000       DC8 0, 0, 0, 0, 0, 0, 0, 0, 0, 0, 0, 0, 0, 0, 0, 0
   \              000000000000
   \              00000000    
   \   0000254C   000000000000       DC8 0, 0, 0, 0, 0, 0, 0, 0, 0, 0, 0, 0, 0, 0, 0, 0
   \              000000000000
   \              00000000    
   \   0000255C   000000000000       DC8 0, 0, 0, 0, 0, 0, 0, 0, 0, 0, 0, 0, 0, 0, 0, 0
   \              000000000000
   \              00000000    
   \   0000256C   000000000000       DC8 0, 0, 0, 0, 0, 0, 0, 0, 0, 0, 0, 0, 0, 0, 0, 0
   \              000000000000
   \              00000000    
   \   0000257C   000000000000       DC8 0, 0, 0, 0, 0, 0, 0, 0, 0, 0, 0, 0, 0, 0, 0, 0
   \              000000000000
   \              00000000    
   \   0000258C   000000000000       DC8 0, 0, 0, 0, 0, 0, 0, 0, 0, 0, 0, 0, 0, 0, 0, 0
   \              000000000000
   \              00000000    
   \   0000259C   000000000000       DC8 0, 0, 0, 0, 0, 0, 0, 0, 0, 0, 0, 0, 0, 0, 0, 0
   \              000000000000
   \              00000000    
   \   000025AC   000000000000       DC8 0, 0, 0, 0, 0, 0, 0, 0, 0, 0, 0, 0, 0, 0, 0, 0
   \              000000000000
   \              00000000    
   \   000025BC   000000000000       DC8 0, 0, 0, 0, 0, 0, 0, 0, 0, 0, 0, 0, 0, 0, 0, 0
   \              000000000000
   \              00000000    
   \   000025CC   000000000000       DC8 0, 0, 0, 0, 0, 0, 0, 0, 0, 0, 0, 0, 0, 0, 0, 0
   \              000000000000
   \              00000000    
   \   000025DC   000000000000       DC8 0, 0, 0, 0, 0, 0, 0, 0, 0, 0, 0, 0, 0, 0, 0, 0
   \              000000000000
   \              00000000    
   \   000025EC   000000000000       DC8 0, 0, 0, 0, 0, 0, 0, 0, 0, 0, 0, 0, 0, 0, 0, 0
   \              000000000000
   \              00000000    
   \   000025FC   000000000000       DC8 0, 0, 0, 0, 0, 0, 0, 0, 0, 0, 0, 0, 0, 0, 0, 0
   \              000000000000
   \              00000000    
   \   0000260C   000000000000       DC8 0, 0, 0, 0, 0, 0, 0, 0, 0, 0, 0, 0, 0, 0, 0, 0
   \              000000000000
   \              00000000    
   \   0000261C   000000000000       DC8 0, 0, 0, 0, 0, 0, 0, 0, 0, 0, 0, 0, 0, 0, 0, 0
   \              000000000000
   \              00000000    
   \   0000262C   000000000000       DC8 0, 0, 0, 0, 0, 0, 0, 0, 0, 0, 0, 0, 0, 0, 0, 0
   \              000000000000
   \              00000000    
   \   0000263C   000000000000       DC8 0, 0, 0, 0, 0, 0, 0, 0, 0, 0, 0, 0, 0, 0, 0, 0
   \              000000000000
   \              00000000    
   \   0000264C   000000000000       DC8 0, 0, 0, 0, 0, 0, 0, 0, 0, 0, 0, 0, 0, 0, 0, 0
   \              000000000000
   \              00000000    
   \   0000265C   000000000000       DC8 0, 0, 0, 0, 0, 0, 0, 0, 0, 0, 0, 0, 0, 0, 0, 0
   \              000000000000
   \              00000000    
   \   0000266C   000000000000       DC8 0, 0, 0, 0, 0, 0, 0, 0, 0, 0, 0, 0, 0, 0, 0, 0
   \              000000000000
   \              00000000    
   \   0000267C   000000000000       DC8 0, 0, 0, 0, 0, 0, 0, 0, 0, 0, 0, 0, 0, 0, 0, 0
   \              000000000000
   \              00000000    
   \   0000268C   000000000000       DC8 0, 0, 0, 0, 0, 0, 0, 0, 0, 0, 0, 0, 0, 0, 0, 0
   \              000000000000
   \              00000000    
   \   0000269C   000000000000       DC8 0, 0, 0, 0, 0, 0, 0, 0, 0, 0, 0, 0, 0, 0, 0, 0
   \              000000000000
   \              00000000    
   \   000026AC   4761736F6C69       DC8 "Gasolie"
   \              6500        
   \   000026B4   000000000000       DC8 0, 0, 0, 0, 0, 0, 0, 0, 0, 0, 0, 0
   \              000000000000
   \   000026C0   4761736F6C69       DC8 "Gasolie"
   \              6500        
   \   000026C8   000000000000       DC8 0, 0, 0, 0, 0, 0, 0, 0, 0, 0, 0, 0
   \              000000000000
   \   000026D4   000000000000       DC32 0H, 0H, 0H, 0H, 0H, 0H, 0H, 0H, 0H, 403C0000H, 0F1A9FBE7H
   \              000000000000
   \              000000000000
   \              000000000000
   \              000000000000
   \              000000000000
   \              00003C40E7FB
   \              A9F1        
   \   00002700   D20D28403D0A       DC32 40280DD2H, 0A3D70A3DH, 3FFC3D70H, 11, 0C2200000H, 3F61F6BAH
   \              D7A3703DFC3F
   \              0B0000000000
   \              20C2BAF6613F
   \   00002718   000000000000       DC8 0, 0, 0, 0, 0, 0, 0, 0
   \              0000        
   \   00002720   0000F0C12236       DC32 0C1F00000H, 3F603622H
   \              603F        
   \   00002728   000000000000       DC8 0, 0, 0, 0, 0, 0, 0, 0
   \              0000        
   \   00002730   0000A0C19B75       DC32 0C1A00000H, 3F5E759BH
   \              5E3F        
   \   00002738   000000000000       DC8 0, 0, 0, 0, 0, 0, 0, 0
   \              0000        
   \   00002740   000020C103B5       DC32 0C1200000H, 3F5CB503H
   \              5C3F        
   \   00002748   000000000000       DC8 0, 0, 0, 0, 0, 0, 0, 0
   \              0000        
   \   00002750   0000000088F5       DC32 0H, 3F5AF588H
   \              5A3F        
   \   00002758   000000000000       DC8 0, 0, 0, 0, 0, 0, 0, 0
   \              0000        
   \   00002760   000020410135       DC32 41200000H, 3F593501H
   \              593F        
   \   00002768   000000000000       DC8 0, 0, 0, 0, 0, 0, 0, 0
   \              0000        
   \   00002770   0000A041E76E       DC32 41A00000H, 3F576EE7H
   \              573F        
   \   00002778   000000000000       DC8 0, 0, 0, 0, 0, 0, 0, 0
   \              0000        
   \   00002780   0000F041E1B3       DC32 41F00000H, 3F55B3E1H
   \              553F        
   \   00002788   000000000000       DC8 0, 0, 0, 0, 0, 0, 0, 0
   \              0000        
   \   00002790   0000204238F3       DC32 42200000H, 3F53F338H
   \              533F        
   \   00002798   000000000000       DC8 0, 0, 0, 0, 0, 0, 0, 0
   \              0000        
   \   000027A0   000048429431       DC32 42480000H, 3F523194H
   \              523F        
   \   000027A8   000000000000       DC8 0, 0, 0, 0, 0, 0, 0, 0
   \              0000        
   \   000027B0   00007042FC70       DC32 42700000H, 3F5070FCH
   \              503F        
   \   000027B8   000000000000       DC8 0, 0, 0, 0, 0, 0, 0, 0, 0, 0, 0, 0, 0, 0, 0, 0
   \              000000000000
   \              00000000    
   \   000027C8   000000000000       DC8 0, 0, 0, 0, 0, 0, 0, 0, 0, 0, 0, 0, 0, 0, 0, 0
   \              000000000000
   \              00000000    
   \   000027D8   000000000000       DC8 0, 0, 0, 0, 0, 0, 0, 0, 0, 0, 0, 0, 0, 0, 0, 0
   \              000000000000
   \              00000000    
   \   000027E8   000000000000       DC8 0, 0, 0, 0, 0, 0, 0, 0, 0, 0, 0, 0, 0, 0, 0, 0
   \              000000000000
   \              00000000    
   \   000027F8   000000000000       DC8 0, 0, 0, 0, 0, 0, 0, 0, 0, 0, 0, 0, 0, 0, 0, 0
   \              000000000000
   \              00000000    
   \   00002808   000000000000       DC8 0, 0, 0, 0, 0, 0, 0, 0, 0, 0, 0, 0, 0, 0, 0, 0
   \              000000000000
   \              00000000    
   \   00002818   000000000000       DC8 0, 0, 0, 0, 0, 0, 0, 0, 0, 0, 0, 0, 0, 0, 0, 0
   \              000000000000
   \              00000000    
   \   00002828   000000000000       DC8 0, 0, 0, 0, 0, 0, 0, 0, 0, 0, 0, 0, 0, 0, 0, 0
   \              000000000000
   \              00000000    
   \   00002838   000000000000       DC8 0, 0, 0, 0, 0, 0, 0, 0, 0, 0, 0, 0, 0, 0, 0, 0
   \              000000000000
   \              00000000    
   \   00002848   000000000000       DC8 0, 0, 0, 0, 0, 0, 0, 0, 0, 0, 0, 0, 0, 0, 0, 0
   \              000000000000
   \              00000000    
   \   00002858   000000000000       DC8 0, 0, 0, 0, 0, 0, 0, 0, 0, 0, 0, 0, 0, 0, 0, 0
   \              000000000000
   \              00000000    
   \   00002868   000000000000       DC8 0, 0, 0, 0, 0, 0, 0, 0, 0, 0, 0, 0, 0, 0, 0, 0
   \              000000000000
   \              00000000    
   \   00002878   000000000000       DC8 0, 0, 0, 0, 0, 0, 0, 0, 0, 0, 0, 0, 0, 0, 0, 0
   \              000000000000
   \              00000000    
   \   00002888   000000000000       DC8 0, 0, 0, 0, 0, 0, 0, 0, 0, 0, 0, 0, 0, 0, 0, 0
   \              000000000000
   \              00000000    
   \   00002898   000000000000       DC8 0, 0, 0, 0, 0, 0, 0, 0, 0, 0, 0, 0, 0, 0, 0, 0
   \              000000000000
   \              00000000    
   \   000028A8   000000000000       DC8 0, 0, 0, 0, 0, 0, 0, 0, 0, 0, 0, 0, 0, 0, 0, 0
   \              000000000000
   \              00000000    
   \   000028B8   000000000000       DC8 0, 0, 0, 0, 0, 0, 0, 0, 0, 0, 0, 0, 0, 0, 0, 0
   \              000000000000
   \              00000000    
   \   000028C8   000000000000       DC8 0, 0, 0, 0, 0, 0, 0, 0, 0, 0, 0, 0, 0, 0, 0, 0
   \              000000000000
   \              00000000    
   \   000028D8   000000000000       DC8 0, 0, 0, 0, 0, 0, 0, 0, 0, 0, 0, 0, 0, 0, 0, 0
   \              000000000000
   \              00000000    
   \   000028E8   000000000000       DC8 0, 0, 0, 0, 0, 0, 0, 0, 0, 0, 0, 0, 0, 0, 0, 0
   \              000000000000
   \              00000000    
   \   000028F8   000000000000       DC8 0, 0, 0, 0, 0, 0, 0, 0, 0, 0, 0, 0, 0, 0, 0, 0
   \              000000000000
   \              00000000    
   \   00002908   000000000000       DC8 0, 0, 0, 0, 0, 0, 0, 0, 0, 0, 0, 0, 0, 0, 0, 0
   \              000000000000
   \              00000000    
   \   00002918   000000000000       DC8 0, 0, 0, 0, 0, 0, 0, 0, 0, 0, 0, 0, 0, 0, 0, 0
   \              000000000000
   \              00000000    
   \   00002928   000000000000       DC8 0, 0, 0, 0, 0, 0, 0, 0, 0, 0, 0, 0, 0, 0, 0, 0
   \              000000000000
   \              00000000    
   \   00002938   000000000000       DC8 0, 0, 0, 0, 0, 0, 0, 0
   \              0000        
   \   00002940   466C65786963       DC8 "Flexicoker LPG"
   \              6F6B6572204C
   \              504700      
   \   0000294F   0000000000         DC8 0, 0, 0, 0, 0
   \   00002954   464C58204C50       DC8 "FLX LPG"
   \              4700        
   \   0000295C   000000000000       DC8 0, 0, 0, 0, 0, 0, 0, 0, 0, 0, 0, 0
   \              000000000000
   \   00002968   000000000000       DC32 0H, 0H, 0H, 0H, 0H, 0H, 0H, 0H, 0C5EB313CH, 404A0650H, 0F1A9FBE7H
   \              000000000000
   \              000000000000
   \              000000000000
   \              000000000000
   \              00003C31EBC5
   \              50064A40E7FB
   \              A9F1        
   \   00002994   D20D28403D0A       DC32 40280DD2H, 0A3D70A3DH, 3FFC3D70H, 11, 0C2200000H, 3F1DB878H
   \              D7A3703DFC3F
   \              0B0000000000
   \              20C278B81D3F
   \   000029AC   E17A84C0D7A3       DC32 0C0847AE1H, 0BFD0A3D7H, 0C1F00000H, 3F1AF5FDH, 0C0333333H
   \              D0BF0000F0C1
   \              FDF51A3F3333
   \              33C0        
   \   000029C0   D7A390BF0000       DC32 0BF90A3D7H, 0C1A00000H, 3F18216CH, 0BEA3D70AH, 3E051EB8H
   \              A0C16C21183F
   \              0AD7A3BEB81E
   \              053E        
   \   000029D4   000020C19E28       DC32 0C1200000H, 3F15289EH, 3FFEB852H, 3F51EB85H, 0H, 3F1241F6H
   \              153F52B8FE3F
   \              85EB513F0000
   \              0000F641123F
   \   000029EC   0AD7A3403D0A       DC32 40A3D70AH, 40070A3DH, 41200000H, 3F0F12D3H, 41126666H, 406EB852H
   \              074000002041
   \              D3120F3F6666
   \              124152B86E40
   \   00002A04   0000A041B0E3       DC32 41A00000H, 3F0BE3B0H, 4160CCCDH, 40B75C29H, 41F00000H, 3F087E39H
   \              0B3FCDCC6041
   \              295CB7400000
   \              F041397E083F
   \   00002A1C   F628A2416666       DC32 41A228F6H, 41026666H, 42200000H, 3F05069AH, 41E06666H, 4130F5C3H
   \              024100002042
   \              9A06053F6666
   \              E041C3F53041
   \   00002A34   00004842A758       DC32 42480000H, 3F0158A7H, 4216E148H, 416828F6H, 42700000H, 3EFB0D0FH
   \              013F48E11642
   \              F62868410000
   \              70420F0DFB3E
   \   00002A4C   00004B42C3F5       DC32 424B0000H, 4196F5C3H
   \              9641        
   \   00002A54   000000000000       DC8 0, 0, 0, 0, 0, 0, 0, 0, 0, 0, 0, 0, 0, 0, 0, 0
   \              000000000000
   \              00000000    
   \   00002A64   000000000000       DC8 0, 0, 0, 0, 0, 0, 0, 0, 0, 0, 0, 0, 0, 0, 0, 0
   \              000000000000
   \              00000000    
   \   00002A74   000000000000       DC8 0, 0, 0, 0, 0, 0, 0, 0, 0, 0, 0, 0, 0, 0, 0, 0
   \              000000000000
   \              00000000    
   \   00002A84   000000000000       DC8 0, 0, 0, 0, 0, 0, 0, 0, 0, 0, 0, 0, 0, 0, 0, 0
   \              000000000000
   \              00000000    
   \   00002A94   000000000000       DC8 0, 0, 0, 0, 0, 0, 0, 0, 0, 0, 0, 0, 0, 0, 0, 0
   \              000000000000
   \              00000000    
   \   00002AA4   000000000000       DC8 0, 0, 0, 0, 0, 0, 0, 0, 0, 0, 0, 0, 0, 0, 0, 0
   \              000000000000
   \              00000000    
   \   00002AB4   000000000000       DC8 0, 0, 0, 0, 0, 0, 0, 0, 0, 0, 0, 0, 0, 0, 0, 0
   \              000000000000
   \              00000000    
   \   00002AC4   000000000000       DC8 0, 0, 0, 0, 0, 0, 0, 0, 0, 0, 0, 0, 0, 0, 0, 0
   \              000000000000
   \              00000000    
   \   00002AD4   000000000000       DC8 0, 0, 0, 0, 0, 0, 0, 0, 0, 0, 0, 0, 0, 0, 0, 0
   \              000000000000
   \              00000000    
   \   00002AE4   000000000000       DC8 0, 0, 0, 0, 0, 0, 0, 0, 0, 0, 0, 0, 0, 0, 0, 0
   \              000000000000
   \              00000000    
   \   00002AF4   000000000000       DC8 0, 0, 0, 0, 0, 0, 0, 0, 0, 0, 0, 0, 0, 0, 0, 0
   \              000000000000
   \              00000000    
   \   00002B04   000000000000       DC8 0, 0, 0, 0, 0, 0, 0, 0, 0, 0, 0, 0, 0, 0, 0, 0
   \              000000000000
   \              00000000    
   \   00002B14   000000000000       DC8 0, 0, 0, 0, 0, 0, 0, 0, 0, 0, 0, 0, 0, 0, 0, 0
   \              000000000000
   \              00000000    
   \   00002B24   000000000000       DC8 0, 0, 0, 0, 0, 0, 0, 0, 0, 0, 0, 0, 0, 0, 0, 0
   \              000000000000
   \              00000000    
   \   00002B34   000000000000       DC8 0, 0, 0, 0, 0, 0, 0, 0, 0, 0, 0, 0, 0, 0, 0, 0
   \              000000000000
   \              00000000    
   \   00002B44   000000000000       DC8 0, 0, 0, 0, 0, 0, 0, 0, 0, 0, 0, 0, 0, 0, 0, 0
   \              000000000000
   \              00000000    
   \   00002B54   000000000000       DC8 0, 0, 0, 0, 0, 0, 0, 0, 0, 0, 0, 0, 0, 0, 0, 0
   \              000000000000
   \              00000000    
   \   00002B64   000000000000       DC8 0, 0, 0, 0, 0, 0, 0, 0, 0, 0, 0, 0, 0, 0, 0, 0
   \              000000000000
   \              00000000    
   \   00002B74   000000000000       DC8 0, 0, 0, 0, 0, 0, 0, 0, 0, 0, 0, 0, 0, 0, 0, 0
   \              000000000000
   \              00000000    
   \   00002B84   000000000000       DC8 0, 0, 0, 0, 0, 0, 0, 0, 0, 0, 0, 0, 0, 0, 0, 0
   \              000000000000
   \              00000000    
   \   00002B94   000000000000       DC8 0, 0, 0, 0, 0, 0, 0, 0, 0, 0, 0, 0, 0, 0, 0, 0
   \              000000000000
   \              00000000    
   \   00002BA4   000000000000       DC8 0, 0, 0, 0, 0, 0, 0, 0, 0, 0, 0, 0, 0, 0, 0, 0
   \              000000000000
   \              00000000    
   \   00002BB4   000000000000       DC8 0, 0, 0, 0, 0, 0, 0, 0, 0, 0, 0, 0, 0, 0, 0, 0
   \              000000000000
   \              00000000    
   \   00002BC4   000000000000       DC8 0, 0, 0, 0, 0, 0, 0, 0, 0, 0, 0, 0, 0, 0, 0, 0
   \              000000000000
   \              00000000    
   \   00002BD4   53756C706875       DC8 "Sulphur-1"
   \              722D3100    
   \   00002BDE   000000000000       DC8 0, 0, 0, 0, 0, 0, 0, 0, 0, 0
   \              00000000    
   \   00002BE8   5300               DC8 "S"
   \   00002BEA   000000000000       DC8 0, 0, 0, 0, 0, 0, 0, 0, 0, 0, 0, 0, 0, 0, 0, 0, 0, 0
   \              000000000000
   \              000000000000
   \   00002BFC   3333333333DB       DC32 33333333H, 407ADB33H, 0H, 0H, 0H, 0H, 0H, 0H, 0EB851EB8H
   \              7A4000000000
   \              000000000000
   \              000000000000
   \              000000000000
   \              0000B81E85EB
   \   00002C20   51084040E7FB       DC32 40400851H, 0F1A9FBE7H, 40280DD2H, 0A3D70A3DH, 3FFC3D70H, 31
   \              A9F1D20D2840
   \              3D0AD7A3703D
   \              FC3F1F000000
   \   00002C38   0000F042F0A7       DC32 42F00000H, 3FE6A7F0H
   \              E63F        
   \   00002C40   000000000000       DC8 0, 0, 0, 0, 0, 0, 0, 0
   \              0000        
   \   00002C48   0000F2422B87       DC32 42F20000H, 3FE6872BH
   \              E63F        
   \   00002C50   000000000000       DC8 0, 0, 0, 0, 0, 0, 0, 0
   \              0000        
   \   00002C58   0000F4422B87       DC32 42F40000H, 3FE6872BH
   \              E63F        
   \   00002C60   000000000000       DC8 0, 0, 0, 0, 0, 0, 0, 0
   \              0000        
   \   00002C68   0000F6426666       DC32 42F60000H, 3FE66666H
   \              E63F        
   \   00002C70   000000000000       DC8 0, 0, 0, 0, 0, 0, 0, 0
   \              0000        
   \   00002C78   0000F842A245       DC32 42F80000H, 3FE645A2H
   \              E63F        
   \   00002C80   000000000000       DC8 0, 0, 0, 0, 0, 0, 0, 0
   \              0000        
   \   00002C88   0000FA42DD24       DC32 42FA0000H, 3FE624DDH
   \              E63F        
   \   00002C90   000000000000       DC8 0, 0, 0, 0, 0, 0, 0, 0
   \              0000        
   \   00002C98   0000FC421904       DC32 42FC0000H, 3FE60419H
   \              E63F        
   \   00002CA0   000000000000       DC8 0, 0, 0, 0, 0, 0, 0, 0
   \              0000        
   \   00002CA8   0000FE421904       DC32 42FE0000H, 3FE60419H
   \              E63F        
   \   00002CB0   000000000000       DC8 0, 0, 0, 0, 0, 0, 0, 0
   \              0000        
   \   00002CB8   0000004354E3       DC32 43000000H, 3FE5E354H
   \              E53F        
   \   00002CC0   000000000000       DC8 0, 0, 0, 0, 0, 0, 0, 0
   \              0000        
   \   00002CC8   000001438FC2       DC32 43010000H, 3FE5C28FH
   \              E53F        
   \   00002CD0   000000000000       DC8 0, 0, 0, 0, 0, 0, 0, 0
   \              0000        
   \   00002CD8   000002438FC2       DC32 43020000H, 3FE5C28FH
   \              E53F        
   \   00002CE0   000000000000       DC8 0, 0, 0, 0, 0, 0, 0, 0
   \              0000        
   \   00002CE8   00000343CBA1       DC32 43030000H, 3FE5A1CBH
   \              E53F        
   \   00002CF0   000000000000       DC8 0, 0, 0, 0, 0, 0, 0, 0
   \              0000        
   \   00002CF8   000004430681       DC32 43040000H, 3FE58106H
   \              E53F        
   \   00002D00   000000000000       DC8 0, 0, 0, 0, 0, 0, 0, 0
   \              0000        
   \   00002D08   000005434260       DC32 43050000H, 3FE56042H
   \              E53F        
   \   00002D10   000000000000       DC8 0, 0, 0, 0, 0, 0, 0, 0
   \              0000        
   \   00002D18   000006434260       DC32 43060000H, 3FE56042H
   \              E53F        
   \   00002D20   000000000000       DC8 0, 0, 0, 0, 0, 0, 0, 0
   \              0000        
   \   00002D28   000007437D3F       DC32 43070000H, 3FE53F7DH
   \              E53F        
   \   00002D30   000000000000       DC8 0, 0, 0, 0, 0, 0, 0, 0
   \              0000        
   \   00002D38   00000843B81E       DC32 43080000H, 3FE51EB8H
   \              E53F        
   \   00002D40   000000000000       DC8 0, 0, 0, 0, 0, 0, 0, 0
   \              0000        
   \   00002D48   00000943F4FD       DC32 43090000H, 3FE4FDF4H
   \              E43F        
   \   00002D50   000000000000       DC8 0, 0, 0, 0, 0, 0, 0, 0
   \              0000        
   \   00002D58   00000A432FDD       DC32 430A0000H, 3FE4DD2FH
   \              E43F        
   \   00002D60   000000000000       DC8 0, 0, 0, 0, 0, 0, 0, 0
   \              0000        
   \   00002D68   00000B432FDD       DC32 430B0000H, 3FE4DD2FH
   \              E43F        
   \   00002D70   000000000000       DC8 0, 0, 0, 0, 0, 0, 0, 0
   \              0000        
   \   00002D78   00000C436ABC       DC32 430C0000H, 3FE4BC6AH
   \              E43F        
   \   00002D80   000000000000       DC8 0, 0, 0, 0, 0, 0, 0, 0
   \              0000        
   \   00002D88   00000D43A69B       DC32 430D0000H, 3FE49BA6H
   \              E43F        
   \   00002D90   000000000000       DC8 0, 0, 0, 0, 0, 0, 0, 0
   \              0000        
   \   00002D98   00000E43E17A       DC32 430E0000H, 3FE47AE1H
   \              E43F        
   \   00002DA0   000000000000       DC8 0, 0, 0, 0, 0, 0, 0, 0
   \              0000        
   \   00002DA8   00000F43E17A       DC32 430F0000H, 3FE47AE1H
   \              E43F        
   \   00002DB0   000000000000       DC8 0, 0, 0, 0, 0, 0, 0, 0
   \              0000        
   \   00002DB8   000010431D5A       DC32 43100000H, 3FE45A1DH
   \              E43F        
   \   00002DC0   000000000000       DC8 0, 0, 0, 0, 0, 0, 0, 0
   \              0000        
   \   00002DC8   000011435839       DC32 43110000H, 3FE43958H
   \              E43F        
   \   00002DD0   000000000000       DC8 0, 0, 0, 0, 0, 0, 0, 0
   \              0000        
   \   00002DD8   000012439318       DC32 43120000H, 3FE41893H
   \              E43F        
   \   00002DE0   000000000000       DC8 0, 0, 0, 0, 0, 0, 0, 0
   \              0000        
   \   00002DE8   00001343CFF7       DC32 43130000H, 3FE3F7CFH
   \              E33F        
   \   00002DF0   000000000000       DC8 0, 0, 0, 0, 0, 0, 0, 0
   \              0000        
   \   00002DF8   000014430AD7       DC32 43140000H, 3FE3D70AH
   \              E33F        
   \   00002E00   000000000000       DC8 0, 0, 0, 0, 0, 0, 0, 0
   \              0000        
   \   00002E08   000015430AD7       DC32 43150000H, 3FE3D70AH
   \              E33F        
   \   00002E10   000000000000       DC8 0, 0, 0, 0, 0, 0, 0, 0
   \              0000        
   \   00002E18   0000164346B6       DC32 43160000H, 3FE3B646H
   \              E33F        
   \   00002E20   000000000000       DC8 0, 0, 0, 0, 0, 0, 0, 0, 0, 0, 0, 0, 0, 0, 0, 0
   \              000000000000
   \              00000000    
   \   00002E30   000000000000       DC8 0, 0, 0, 0, 0, 0, 0, 0, 0, 0, 0, 0, 0, 0, 0, 0
   \              000000000000
   \              00000000    
   \   00002E40   000000000000       DC8 0, 0, 0, 0, 0, 0, 0, 0, 0, 0, 0, 0, 0, 0, 0, 0
   \              000000000000
   \              00000000    
   \   00002E50   000000000000       DC8 0, 0, 0, 0, 0, 0, 0, 0, 0, 0, 0, 0, 0, 0, 0, 0
   \              000000000000
   \              00000000    
   \   00002E60   000000000000       DC8 0, 0, 0, 0, 0, 0, 0, 0
   \              0000        
   \   00002E68   53756C706875       DC8 "Sulphur-2"
   \              722D3200    
   \   00002E72   000000000000       DC8 0, 0, 0, 0, 0, 0, 0, 0, 0, 0
   \              00000000    
   \   00002E7C   5300               DC8 "S"
   \   00002E7E   000000000000       DC8 0, 0, 0, 0, 0, 0, 0, 0, 0, 0, 0, 0, 0, 0, 0, 0, 0, 0
   \              000000000000
   \              000000000000
   \   00002E90   3333333333DB       DC32 33333333H, 407ADB33H, 0H, 0H, 0H, 0H, 0H, 0H, 0EB851EB8H
   \              7A4000000000
   \              000000000000
   \              000000000000
   \              000000000000
   \              0000B81E85EB
   \   00002EB4   51084040E7FB       DC32 40400851H, 0F1A9FBE7H, 40280DD2H, 0A3D70A3DH, 3FFC3D70H, 31
   \              A9F1D20D2840
   \              3D0AD7A3703D
   \              FC3F1F000000
   \   00002ECC   0000F042A245       DC32 42F00000H, 3FE645A2H
   \              E63F        
   \   00002ED4   000000000000       DC8 0, 0, 0, 0, 0, 0, 0, 0
   \              0000        
   \   00002EDC   0000F242F931       DC32 42F20000H, 3FE631F9H
   \              E63F        
   \   00002EE4   000000000000       DC8 0, 0, 0, 0, 0, 0, 0, 0
   \              0000        
   \   00002EEC   0000F4424F1E       DC32 42F40000H, 3FE61E4FH
   \              E63F        
   \   00002EF4   000000000000       DC8 0, 0, 0, 0, 0, 0, 0, 0
   \              0000        
   \   00002EFC   0000F642A60A       DC32 42F60000H, 3FE60AA6H
   \              E63F        
   \   00002F04   000000000000       DC8 0, 0, 0, 0, 0, 0, 0, 0
   \              0000        
   \   00002F0C   0000F842FDF6       DC32 42F80000H, 3FE5F6FDH
   \              E53F        
   \   00002F14   000000000000       DC8 0, 0, 0, 0, 0, 0, 0, 0
   \              0000        
   \   00002F1C   0000FA4254E3       DC32 42FA0000H, 3FE5E354H
   \              E53F        
   \   00002F24   000000000000       DC8 0, 0, 0, 0, 0, 0, 0, 0
   \              0000        
   \   00002F2C   0000FC42ABCF       DC32 42FC0000H, 3FE5CFABH
   \              E53F        
   \   00002F34   000000000000       DC8 0, 0, 0, 0, 0, 0, 0, 0
   \              0000        
   \   00002F3C   0000FE4202BC       DC32 42FE0000H, 3FE5BC02H
   \              E53F        
   \   00002F44   000000000000       DC8 0, 0, 0, 0, 0, 0, 0, 0
   \              0000        
   \   00002F4C   0000004358A8       DC32 43000000H, 3FE5A858H
   \              E53F        
   \   00002F54   000000000000       DC8 0, 0, 0, 0, 0, 0, 0, 0
   \              0000        
   \   00002F5C   00000143AF94       DC32 43010000H, 3FE594AFH
   \              E53F        
   \   00002F64   000000000000       DC8 0, 0, 0, 0, 0, 0, 0, 0
   \              0000        
   \   00002F6C   000002430681       DC32 43020000H, 3FE58106H
   \              E53F        
   \   00002F74   000000000000       DC8 0, 0, 0, 0, 0, 0, 0, 0
   \              0000        
   \   00002F7C   000003435D6D       DC32 43030000H, 3FE56D5DH
   \              E53F        
   \   00002F84   000000000000       DC8 0, 0, 0, 0, 0, 0, 0, 0
   \              0000        
   \   00002F8C   00000443B459       DC32 43040000H, 3FE559B4H
   \              E53F        
   \   00002F94   000000000000       DC8 0, 0, 0, 0, 0, 0, 0, 0
   \              0000        
   \   00002F9C   000005430B46       DC32 43050000H, 3FE5460BH
   \              E53F        
   \   00002FA4   000000000000       DC8 0, 0, 0, 0, 0, 0, 0, 0
   \              0000        
   \   00002FAC   000006436132       DC32 43060000H, 3FE53261H
   \              E53F        
   \   00002FB4   000000000000       DC8 0, 0, 0, 0, 0, 0, 0, 0
   \              0000        
   \   00002FBC   00000743B81E       DC32 43070000H, 3FE51EB8H
   \              E53F        
   \   00002FC4   000000000000       DC8 0, 0, 0, 0, 0, 0, 0, 0
   \              0000        
   \   00002FCC   000008430F0B       DC32 43080000H, 3FE50B0FH
   \              E53F        
   \   00002FD4   000000000000       DC8 0, 0, 0, 0, 0, 0, 0, 0
   \              0000        
   \   00002FDC   0000094366F7       DC32 43090000H, 3FE4F766H
   \              E43F        
   \   00002FE4   000000000000       DC8 0, 0, 0, 0, 0, 0, 0, 0
   \              0000        
   \   00002FEC   00000A43BDE3       DC32 430A0000H, 3FE4E3BDH
   \              E43F        
   \   00002FF4   000000000000       DC8 0, 0, 0, 0, 0, 0, 0, 0
   \              0000        
   \   00002FFC   00000B4314D0       DC32 430B0000H, 3FE4D014H
   \              E43F        
   \   00003004   000000000000       DC8 0, 0, 0, 0, 0, 0, 0, 0
   \              0000        
   \   0000300C   00000C436ABC       DC32 430C0000H, 3FE4BC6AH
   \              E43F        
   \   00003014   000000000000       DC8 0, 0, 0, 0, 0, 0, 0, 0
   \              0000        
   \   0000301C   00000D43C1A8       DC32 430D0000H, 3FE4A8C1H
   \              E43F        
   \   00003024   000000000000       DC8 0, 0, 0, 0, 0, 0, 0, 0
   \              0000        
   \   0000302C   00000E431895       DC32 430E0000H, 3FE49518H
   \              E43F        
   \   00003034   000000000000       DC8 0, 0, 0, 0, 0, 0, 0, 0
   \              0000        
   \   0000303C   00000F436F81       DC32 430F0000H, 3FE4816FH
   \              E43F        
   \   00003044   000000000000       DC8 0, 0, 0, 0, 0, 0, 0, 0
   \              0000        
   \   0000304C   00001043C66D       DC32 43100000H, 3FE46DC6H
   \              E43F        
   \   00003054   000000000000       DC8 0, 0, 0, 0, 0, 0, 0, 0
   \              0000        
   \   0000305C   000011431D5A       DC32 43110000H, 3FE45A1DH
   \              E43F        
   \   00003064   000000000000       DC8 0, 0, 0, 0, 0, 0, 0, 0
   \              0000        
   \   0000306C   000012437446       DC32 43120000H, 3FE44674H
   \              E43F        
   \   00003074   000000000000       DC8 0, 0, 0, 0, 0, 0, 0, 0
   \              0000        
   \   0000307C   00001343CA32       DC32 43130000H, 3FE432CAH
   \              E43F        
   \   00003084   000000000000       DC8 0, 0, 0, 0, 0, 0, 0, 0
   \              0000        
   \   0000308C   00001443211F       DC32 43140000H, 3FE41F21H
   \              E43F        
   \   00003094   000000000000       DC8 0, 0, 0, 0, 0, 0, 0, 0
   \              0000        
   \   0000309C   00001543780B       DC32 43150000H, 3FE40B78H
   \              E43F        
   \   000030A4   000000000000       DC8 0, 0, 0, 0, 0, 0, 0, 0
   \              0000        
   \   000030AC   00001643CFF7       DC32 43160000H, 3FE3F7CFH
   \              E33F        
   \   000030B4   000000000000       DC8 0, 0, 0, 0, 0, 0, 0, 0, 0, 0, 0, 0, 0, 0, 0, 0
   \              000000000000
   \              00000000    
   \   000030C4   000000000000       DC8 0, 0, 0, 0, 0, 0, 0, 0, 0, 0, 0, 0, 0, 0, 0, 0
   \              000000000000
   \              00000000    
   \   000030D4   000000000000       DC8 0, 0, 0, 0, 0, 0, 0, 0, 0, 0, 0, 0, 0, 0, 0, 0
   \              000000000000
   \              00000000    
   \   000030E4   000000000000       DC8 0, 0, 0, 0, 0, 0, 0, 0, 0, 0, 0, 0, 0, 0, 0, 0
   \              000000000000
   \              00000000    
   \   000030F4   000000000000       DC8 0, 0, 0, 0, 0, 0, 0, 0
   \              0000        
   \   000030FC   53756C706875       DC8 "Sulphur-3"
   \              722D3300    
   \   00003106   000000000000       DC8 0, 0, 0, 0, 0, 0, 0, 0, 0, 0
   \              00000000    
   \   00003110   5300               DC8 "S"
   \   00003112   000000000000       DC8 0, 0, 0, 0, 0, 0, 0, 0, 0, 0, 0, 0, 0, 0, 0, 0, 0, 0
   \              000000000000
   \              000000000000
   \   00003124   3333333333DB       DC32 33333333H, 407ADB33H, 0H, 0H, 0H, 0H, 0H, 0H, 0EB851EB8H
   \              7A4000000000
   \              000000000000
   \              000000000000
   \              000000000000
   \              0000B81E85EB
   \   00003148   51084040E7FB       DC32 40400851H, 0F1A9FBE7H, 40280DD2H, 0A3D70A3DH, 3FFC3D70H, 31
   \              A9F1D20D2840
   \              3D0AD7A3703D
   \              FC3F1F000000
   \   00003160   0000F04232E6       DC32 42F00000H, 3FE6E632H
   \              E63F        
   \   00003168   000000000000       DC8 0, 0, 0, 0, 0, 0, 0, 0
   \              0000        
   \   00003170   0000F24217D9       DC32 42F20000H, 3FE6D917H
   \              E63F        
   \   00003178   000000000000       DC8 0, 0, 0, 0, 0, 0, 0, 0
   \              0000        
   \   00003180   0000F44299BB       DC32 42F40000H, 3FE6BB99H
   \              E63F        
   \   00003188   000000000000       DC8 0, 0, 0, 0, 0, 0, 0, 0
   \              0000        
   \   00003190   0000F642A9A4       DC32 42F60000H, 3FE6A4A9H
   \              E63F        
   \   00003198   000000000000       DC8 0, 0, 0, 0, 0, 0, 0, 0
   \              0000        
   \   000031A0   0000F842B98D       DC32 42F80000H, 3FE68DB9H
   \              E63F        
   \   000031A8   000000000000       DC8 0, 0, 0, 0, 0, 0, 0, 0
   \              0000        
   \   000031B0   0000FA42C976       DC32 42FA0000H, 3FE676C9H
   \              E63F        
   \   000031B8   000000000000       DC8 0, 0, 0, 0, 0, 0, 0, 0
   \              0000        
   \   000031C0   0000FC42D95F       DC32 42FC0000H, 3FE65FD9H
   \              E63F        
   \   000031C8   000000000000       DC8 0, 0, 0, 0, 0, 0, 0, 0
   \              0000        
   \   000031D0   0000FE42A245       DC32 42FE0000H, 3FE645A2H
   \              E63F        
   \   000031D8   000000000000       DC8 0, 0, 0, 0, 0, 0, 0, 0
   \              0000        
   \   000031E0   000000436B2B       DC32 43000000H, 3FE62B6BH
   \              E63F        
   \   000031E8   000000000000       DC8 0, 0, 0, 0, 0, 0, 0, 0
   \              0000        
   \   000031F0   000001433411       DC32 43010000H, 3FE61134H
   \              E63F        
   \   000031F8   000000000000       DC8 0, 0, 0, 0, 0, 0, 0, 0
   \              0000        
   \   00003200   00000243FDF6       DC32 43020000H, 3FE5F6FDH
   \              E53F        
   \   00003208   000000000000       DC8 0, 0, 0, 0, 0, 0, 0, 0
   \              0000        
   \   00003210   000003433F35       DC32 43030000H, 3FE6353FH
   \              E63F        
   \   00003218   000000000000       DC8 0, 0, 0, 0, 0, 0, 0, 0
   \              0000        
   \   00003220   000004438FC2       DC32 43040000H, 3FE5C28FH
   \              E53F        
   \   00003228   000000000000       DC8 0, 0, 0, 0, 0, 0, 0, 0
   \              0000        
   \   00003230   0000054358A8       DC32 43050000H, 3FE5A858H
   \              E53F        
   \   00003238   000000000000       DC8 0, 0, 0, 0, 0, 0, 0, 0
   \              0000        
   \   00003240   00000643DB8A       DC32 43060000H, 3FE58ADBH
   \              E53F        
   \   00003248   000000000000       DC8 0, 0, 0, 0, 0, 0, 0, 0
   \              0000        
   \   00003250   000007435D6D       DC32 43070000H, 3FE56D5DH
   \              E53F        
   \   00003258   000000000000       DC8 0, 0, 0, 0, 0, 0, 0, 0
   \              0000        
   \   00003260   000008432653       DC32 43080000H, 3FE55326H
   \              E53F        
   \   00003268   000000000000       DC8 0, 0, 0, 0, 0, 0, 0, 0
   \              0000        
   \   00003270   0000094341F1       DC32 43090000H, 3FE3F141H
   \              E33F        
   \   00003278   000000000000       DC8 0, 0, 0, 0, 0, 0, 0, 0
   \              0000        
   \   00003280   00000A43711B       DC32 430A0000H, 3FE51B71H
   \              E53F        
   \   00003288   000000000000       DC8 0, 0, 0, 0, 0, 0, 0, 0
   \              0000        
   \   00003290   00000B43F4FD       DC32 430B0000H, 3FE4FDF4H
   \              E43F        
   \   00003298   000000000000       DC8 0, 0, 0, 0, 0, 0, 0, 0
   \              0000        
   \   000032A0   00000C4376E0       DC32 430C0000H, 3FE4E076H
   \              E43F        
   \   000032A8   000000000000       DC8 0, 0, 0, 0, 0, 0, 0, 0
   \              0000        
   \   000032B0   00000D43B1BF       DC32 430D0000H, 3FE4BFB1H
   \              E43F        
   \   000032B8   000000000000       DC8 0, 0, 0, 0, 0, 0, 0, 0
   \              0000        
   \   000032C0   00000E43ED9E       DC32 430E0000H, 3FE49EEDH
   \              E43F        
   \   000032C8   000000000000       DC8 0, 0, 0, 0, 0, 0, 0, 0
   \              0000        
   \   000032D0   00000F43287E       DC32 430F0000H, 3FE47E28H
   \              E43F        
   \   000032D8   000000000000       DC8 0, 0, 0, 0, 0, 0, 0, 0
   \              0000        
   \   000032E0   00001043AA60       DC32 43100000H, 3FE460AAH
   \              E43F        
   \   000032E8   000000000000       DC8 0, 0, 0, 0, 0, 0, 0, 0
   \              0000        
   \   000032F0   000011432D43       DC32 43110000H, 3FE4432DH
   \              E43F        
   \   000032F8   000000000000       DC8 0, 0, 0, 0, 0, 0, 0, 0
   \              0000        
   \   00003300   00001243F628       DC32 43120000H, 3FE428F6H
   \              E43F        
   \   00003308   000000000000       DC8 0, 0, 0, 0, 0, 0, 0, 0
   \              0000        
   \   00003310   00001343780B       DC32 43130000H, 3FE40B78H
   \              E43F        
   \   00003318   000000000000       DC8 0, 0, 0, 0, 0, 0, 0, 0
   \              0000        
   \   00003320   00001443B3EA       DC32 43140000H, 3FE3EAB3H
   \              E33F        
   \   00003328   000000000000       DC8 0, 0, 0, 0, 0, 0, 0, 0
   \              0000        
   \   00003330   000015437DD0       DC32 43150000H, 3FE3D07DH
   \              E33F        
   \   00003338   000000000000       DC8 0, 0, 0, 0, 0, 0, 0, 0
   \              0000        
   \   00003340   0000164346B6       DC32 43160000H, 3FE3B646H
   \              E33F        
   \   00003348   000000000000       DC8 0, 0, 0, 0, 0, 0, 0, 0, 0, 0, 0, 0, 0, 0, 0, 0
   \              000000000000
   \              00000000    
   \   00003358   000000000000       DC8 0, 0, 0, 0, 0, 0, 0, 0, 0, 0, 0, 0, 0, 0, 0, 0
   \              000000000000
   \              00000000    
   \   00003368   000000000000       DC8 0, 0, 0, 0, 0, 0, 0, 0, 0, 0, 0, 0, 0, 0, 0, 0
   \              000000000000
   \              00000000    
   \   00003378   000000000000       DC8 0, 0, 0, 0, 0, 0, 0, 0, 0, 0, 0, 0, 0, 0, 0, 0
   \              000000000000
   \              00000000    
   \   00003388   000000000000       DC8 0, 0, 0, 0, 0, 0, 0, 0
   \              0000        
   \   00003390   53756C706875       DC8 "Sulphur-4"
   \              722D3400    
   \   0000339A   000000000000       DC8 0, 0, 0, 0, 0, 0, 0, 0, 0, 0
   \              00000000    
   \   000033A4   5300               DC8 "S"
   \   000033A6   000000000000       DC8 0, 0, 0, 0, 0, 0, 0, 0, 0, 0, 0, 0, 0, 0, 0, 0, 0, 0
   \              000000000000
   \              000000000000
   \   000033B8   3333333333DB       DC32 33333333H, 407ADB33H, 0H, 0H, 0H, 0H, 0H, 0H, 0EB851EB8H
   \              7A4000000000
   \              000000000000
   \              000000000000
   \              000000000000
   \              0000B81E85EB
   \   000033DC   51084040E7FB       DC32 40400851H, 0F1A9FBE7H, 40280DD2H, 0A3D70A3DH, 3FFC3D70H, 31
   \              A9F1D20D2840
   \              3D0AD7A3703D
   \              FC3F1F000000
   \   000033F4   0000F0421B9E       DC32 42F00000H, 3FE69E1BH
   \              E63F        
   \   000033FC   000000000000       DC8 0, 0, 0, 0, 0, 0, 0, 0
   \              0000        
   \   00003404   0000F2422B87       DC32 42F20000H, 3FE6872BH
   \              E63F        
   \   0000340C   000000000000       DC8 0, 0, 0, 0, 0, 0, 0, 0
   \              0000        
   \   00003414   0000F4423B70       DC32 42F40000H, 3FE6703BH
   \              E63F        
   \   0000341C   000000000000       DC8 0, 0, 0, 0, 0, 0, 0, 0
   \              0000        
   \   00003424   0000F6424B59       DC32 42F60000H, 3FE6594BH
   \              E63F        
   \   0000342C   000000000000       DC8 0, 0, 0, 0, 0, 0, 0, 0
   \              0000        
   \   00003434   0000F8425B42       DC32 42F80000H, 3FE6425BH
   \              E63F        
   \   0000343C   000000000000       DC8 0, 0, 0, 0, 0, 0, 0, 0
   \              0000        
   \   00003444   0000FA426B2B       DC32 42FA0000H, 3FE62B6BH
   \              E63F        
   \   0000344C   000000000000       DC8 0, 0, 0, 0, 0, 0, 0, 0
   \              0000        
   \   00003454   0000FC427B14       DC32 42FC0000H, 3FE6147BH
   \              E63F        
   \   0000345C   000000000000       DC8 0, 0, 0, 0, 0, 0, 0, 0
   \              0000        
   \   00003464   0000FE428BFD       DC32 42FE0000H, 3FE5FD8BH
   \              E53F        
   \   0000346C   000000000000       DC8 0, 0, 0, 0, 0, 0, 0, 0
   \              0000        
   \   00003474   0000004354E3       DC32 43000000H, 3FE5E354H
   \              E53F        
   \   0000347C   000000000000       DC8 0, 0, 0, 0, 0, 0, 0, 0
   \              0000        
   \   00003484   000001431DC9       DC32 43010000H, 3FE5C91DH
   \              E53F        
   \   0000348C   000000000000       DC8 0, 0, 0, 0, 0, 0, 0, 0
   \              0000        
   \   00003494   000002432DB2       DC32 43020000H, 3FE5B22DH
   \              E53F        
   \   0000349C   000000000000       DC8 0, 0, 0, 0, 0, 0, 0, 0
   \              0000        
   \   000034A4   000003433D9B       DC32 43030000H, 3FE59B3DH
   \              E53F        
   \   000034AC   000000000000       DC8 0, 0, 0, 0, 0, 0, 0, 0
   \              0000        
   \   000034B4   000004430681       DC32 43040000H, 3FE58106H
   \              E53F        
   \   000034BC   000000000000       DC8 0, 0, 0, 0, 0, 0, 0, 0
   \              0000        
   \   000034C4   00000543CF66       DC32 43050000H, 3FE566CFH
   \              E53F        
   \   000034CC   000000000000       DC8 0, 0, 0, 0, 0, 0, 0, 0
   \              0000        
   \   000034D4   00000643DF4F       DC32 43060000H, 3FE54FDFH
   \              E53F        
   \   000034DC   000000000000       DC8 0, 0, 0, 0, 0, 0, 0, 0
   \              0000        
   \   000034E4   00000743EF38       DC32 43070000H, 3FE538EFH
   \              E53F        
   \   000034EC   000000000000       DC8 0, 0, 0, 0, 0, 0, 0, 0
   \              0000        
   \   000034F4   00000843B81E       DC32 43080000H, 3FE51EB8H
   \              E53F        
   \   000034FC   000000000000       DC8 0, 0, 0, 0, 0, 0, 0, 0
   \              0000        
   \   00003504   00000943C807       DC32 43090000H, 3FE507C8H
   \              E53F        
   \   0000350C   000000000000       DC8 0, 0, 0, 0, 0, 0, 0, 0
   \              0000        
   \   00003514   00000A4391ED       DC32 430A0000H, 3FE4ED91H
   \              E43F        
   \   0000351C   000000000000       DC8 0, 0, 0, 0, 0, 0, 0, 0
   \              0000        
   \   00003524   00000B43A1D6       DC32 430B0000H, 3FE4D6A1H
   \              E43F        
   \   0000352C   000000000000       DC8 0, 0, 0, 0, 0, 0, 0, 0
   \              0000        
   \   00003534   00000C436ABC       DC32 430C0000H, 3FE4BC6AH
   \              E43F        
   \   0000353C   000000000000       DC8 0, 0, 0, 0, 0, 0, 0, 0
   \              0000        
   \   00003544   00000D437AA5       DC32 430D0000H, 3FE4A57AH
   \              E43F        
   \   0000354C   000000000000       DC8 0, 0, 0, 0, 0, 0, 0, 0
   \              0000        
   \   00003554   00000E43D191       DC32 430E0000H, 3FE491D1H
   \              E43F        
   \   0000355C   000000000000       DC8 0, 0, 0, 0, 0, 0, 0, 0
   \              0000        
   \   00003564   00000F439A77       DC32 430F0000H, 3FE4779AH
   \              E43F        
   \   0000356C   000000000000       DC8 0, 0, 0, 0, 0, 0, 0, 0
   \              0000        
   \   00003574   00001043AA60       DC32 43100000H, 3FE460AAH
   \              E43F        
   \   0000357C   000000000000       DC8 0, 0, 0, 0, 0, 0, 0, 0
   \              0000        
   \   00003584   00001143BA49       DC32 43110000H, 3FE449BAH
   \              E43F        
   \   0000358C   000000000000       DC8 0, 0, 0, 0, 0, 0, 0, 0
   \              0000        
   \   00003594   00001243CA32       DC32 43120000H, 3FE432CAH
   \              E43F        
   \   0000359C   000000000000       DC8 0, 0, 0, 0, 0, 0, 0, 0
   \              0000        
   \   000035A4   00001343DA1B       DC32 43130000H, 3FE41BDAH
   \              E43F        
   \   000035AC   000000000000       DC8 0, 0, 0, 0, 0, 0, 0, 0
   \              0000        
   \   000035B4   00001443EA04       DC32 43140000H, 3FE404EAH
   \              E43F        
   \   000035BC   000000000000       DC8 0, 0, 0, 0, 0, 0, 0, 0
   \              0000        
   \   000035C4   00001543B3EA       DC32 43150000H, 3FE3EAB3H
   \              E33F        
   \   000035CC   000000000000       DC8 0, 0, 0, 0, 0, 0, 0, 0
   \              0000        
   \   000035D4   00001643C3D3       DC32 43160000H, 3FE3D3C3H
   \              E33F        
   \   000035DC   000000000000       DC8 0, 0, 0, 0, 0, 0, 0, 0, 0, 0, 0, 0, 0, 0, 0, 0
   \              000000000000
   \              00000000    
   \   000035EC   000000000000       DC8 0, 0, 0, 0, 0, 0, 0, 0, 0, 0, 0, 0, 0, 0, 0, 0
   \              000000000000
   \              00000000    
   \   000035FC   000000000000       DC8 0, 0, 0, 0, 0, 0, 0, 0, 0, 0, 0, 0, 0, 0, 0, 0
   \              000000000000
   \              00000000    
   \   0000360C   000000000000       DC8 0, 0, 0, 0, 0, 0, 0, 0, 0, 0, 0, 0, 0, 0, 0, 0
   \              000000000000
   \              00000000    
   \   0000361C   000000000000       DC8 0, 0, 0, 0, 0, 0, 0, 0
   \              0000        
   \   00003624   53756C706875       DC8 "Sulphur-5"
   \              722D3500    
   \   0000362E   000000000000       DC8 0, 0, 0, 0, 0, 0, 0, 0, 0, 0
   \              00000000    
   \   00003638   5300               DC8 "S"
   \   0000363A   000000000000       DC8 0, 0, 0, 0, 0, 0, 0, 0, 0, 0, 0, 0, 0, 0, 0, 0, 0, 0
   \              000000000000
   \              000000000000
   \   0000364C   3333333333DB       DC32 33333333H, 407ADB33H, 0H, 0H, 0H, 0H, 0H, 0H, 0EB851EB8H
   \              7A4000000000
   \              000000000000
   \              000000000000
   \              000000000000
   \              0000B81E85EB
   \   00003670   51084040E7FB       DC32 40400851H, 0F1A9FBE7H, 40280DD2H, 0A3D70A3DH, 3FFC3D70H, 31
   \              A9F1D20D2840
   \              3D0AD7A3703D
   \              FC3F1F000000
   \   00003688   0000F0423411       DC32 42F00000H, 3FE61134H
   \              E63F        
   \   00003690   000000000000       DC8 0, 0, 0, 0, 0, 0, 0, 0
   \              0000        
   \   00003698   0000F2428BFD       DC32 42F20000H, 3FE5FD8BH
   \              E53F        
   \   000036A0   000000000000       DC8 0, 0, 0, 0, 0, 0, 0, 0
   \              0000        
   \   000036A8   0000F442E2E9       DC32 42F40000H, 3FE5E9E2H
   \              E53F        
   \   000036B0   000000000000       DC8 0, 0, 0, 0, 0, 0, 0, 0
   \              0000        
   \   000036B8   0000F64239D6       DC32 42F60000H, 3FE5D639H
   \              E53F        
   \   000036C0   000000000000       DC8 0, 0, 0, 0, 0, 0, 0, 0
   \              0000        
   \   000036C8   0000F8428FC2       DC32 42F80000H, 3FE5C28FH
   \              E53F        
   \   000036D0   000000000000       DC8 0, 0, 0, 0, 0, 0, 0, 0
   \              0000        
   \   000036D8   0000FA42E6AE       DC32 42FA0000H, 3FE5AEE6H
   \              E53F        
   \   000036E0   000000000000       DC8 0, 0, 0, 0, 0, 0, 0, 0
   \              0000        
   \   000036E8   0000FC423D9B       DC32 42FC0000H, 3FE59B3DH
   \              E53F        
   \   000036F0   000000000000       DC8 0, 0, 0, 0, 0, 0, 0, 0
   \              0000        
   \   000036F8   0000FE429487       DC32 42FE0000H, 3FE58794H
   \              E53F        
   \   00003700   000000000000       DC8 0, 0, 0, 0, 0, 0, 0, 0
   \              0000        
   \   00003708   00000043EB73       DC32 43000000H, 3FE573EBH
   \              E53F        
   \   00003710   000000000000       DC8 0, 0, 0, 0, 0, 0, 0, 0
   \              0000        
   \   00003718   000001434260       DC32 43010000H, 3FE56042H
   \              E53F        
   \   00003720   000000000000       DC8 0, 0, 0, 0, 0, 0, 0, 0
   \              0000        
   \   00003728   00000243984C       DC32 43020000H, 3FE54C98H
   \              E53F        
   \   00003730   000000000000       DC8 0, 0, 0, 0, 0, 0, 0, 0
   \              0000        
   \   00003738   00000343EF38       DC32 43030000H, 3FE538EFH
   \              E53F        
   \   00003740   000000000000       DC8 0, 0, 0, 0, 0, 0, 0, 0
   \              0000        
   \   00003748   000004434625       DC32 43040000H, 3FE52546H
   \              E53F        
   \   00003750   000000000000       DC8 0, 0, 0, 0, 0, 0, 0, 0
   \              0000        
   \   00003758   000005439D11       DC32 43050000H, 3FE5119DH
   \              E53F        
   \   00003760   000000000000       DC8 0, 0, 0, 0, 0, 0, 0, 0
   \              0000        
   \   00003768   00000643F4FD       DC32 43060000H, 3FE4FDF4H
   \              E43F        
   \   00003770   000000000000       DC8 0, 0, 0, 0, 0, 0, 0, 0
   \              0000        
   \   00003778   000007434BEA       DC32 43070000H, 3FE4EA4BH
   \              E43F        
   \   00003780   000000000000       DC8 0, 0, 0, 0, 0, 0, 0, 0
   \              0000        
   \   00003788   00000843A1D6       DC32 43080000H, 3FE4D6A1H
   \              E43F        
   \   00003790   000000000000       DC8 0, 0, 0, 0, 0, 0, 0, 0
   \              0000        
   \   00003798   00000943F8C2       DC32 43090000H, 3FE4C2F8H
   \              E43F        
   \   000037A0   000000000000       DC8 0, 0, 0, 0, 0, 0, 0, 0
   \              0000        
   \   000037A8   00000A434FAF       DC32 430A0000H, 3FE4AF4FH
   \              E43F        
   \   000037B0   000000000000       DC8 0, 0, 0, 0, 0, 0, 0, 0
   \              0000        
   \   000037B8   00000B43A69B       DC32 430B0000H, 3FE49BA6H
   \              E43F        
   \   000037C0   000000000000       DC8 0, 0, 0, 0, 0, 0, 0, 0
   \              0000        
   \   000037C8   00000C43FD87       DC32 430C0000H, 3FE487FDH
   \              E43F        
   \   000037D0   000000000000       DC8 0, 0, 0, 0, 0, 0, 0, 0
   \              0000        
   \   000037D8   00000D435474       DC32 430D0000H, 3FE47454H
   \              E43F        
   \   000037E0   000000000000       DC8 0, 0, 0, 0, 0, 0, 0, 0
   \              0000        
   \   000037E8   00000E43AA60       DC32 430E0000H, 3FE460AAH
   \              E43F        
   \   000037F0   000000000000       DC8 0, 0, 0, 0, 0, 0, 0, 0
   \              0000        
   \   000037F8   00000F43014D       DC32 430F0000H, 3FE44D01H
   \              E43F        
   \   00003800   000000000000       DC8 0, 0, 0, 0, 0, 0, 0, 0
   \              0000        
   \   00003808   000010435839       DC32 43100000H, 3FE43958H
   \              E43F        
   \   00003810   000000000000       DC8 0, 0, 0, 0, 0, 0, 0, 0
   \              0000        
   \   00003818   00001143AF25       DC32 43110000H, 3FE425AFH
   \              E43F        
   \   00003820   000000000000       DC8 0, 0, 0, 0, 0, 0, 0, 0
   \              0000        
   \   00003828   000012430612       DC32 43120000H, 3FE41206H
   \              E43F        
   \   00003830   000000000000       DC8 0, 0, 0, 0, 0, 0, 0, 0
   \              0000        
   \   00003838   000013435DFE       DC32 43130000H, 3FE3FE5DH
   \              E33F        
   \   00003840   000000000000       DC8 0, 0, 0, 0, 0, 0, 0, 0
   \              0000        
   \   00003848   00001443B3EA       DC32 43140000H, 3FE3EAB3H
   \              E33F        
   \   00003850   000000000000       DC8 0, 0, 0, 0, 0, 0, 0, 0
   \              0000        
   \   00003858   000015430AD7       DC32 43150000H, 3FE3D70AH
   \              E33F        
   \   00003860   000000000000       DC8 0, 0, 0, 0, 0, 0, 0, 0
   \              0000        
   \   00003868   0000164361C3       DC32 43160000H, 3FE3C361H
   \              E33F        
   \   00003870   000000000000       DC8 0, 0, 0, 0, 0, 0, 0, 0, 0, 0, 0, 0, 0, 0, 0, 0
   \              000000000000
   \              00000000    
   \   00003880   000000000000       DC8 0, 0, 0, 0, 0, 0, 0, 0, 0, 0, 0, 0, 0, 0, 0, 0
   \              000000000000
   \              00000000    
   \   00003890   000000000000       DC8 0, 0, 0, 0, 0, 0, 0, 0, 0, 0, 0, 0, 0, 0, 0, 0
   \              000000000000
   \              00000000    
   \   000038A0   000000000000       DC8 0, 0, 0, 0, 0, 0, 0, 0, 0, 0, 0, 0, 0, 0, 0, 0
   \              000000000000
   \              00000000    
   \   000038B0   000000000000       DC8 0, 0, 0, 0, 0, 0, 0, 0
   \              0000        
   \   000038B8   53756C706875       DC8 "Sulphur-6"
   \              722D3600    
   \   000038C2   000000000000       DC8 0, 0, 0, 0, 0, 0, 0, 0, 0, 0
   \              00000000    
   \   000038CC   5300               DC8 "S"
   \   000038CE   000000000000       DC8 0, 0, 0, 0, 0, 0, 0, 0, 0, 0, 0, 0, 0, 0, 0, 0, 0, 0
   \              000000000000
   \              000000000000
   \   000038E0   3333333333DB       DC32 33333333H, 407ADB33H, 0H, 0H, 0H, 0H, 0H, 0H, 0EB851EB8H
   \              7A4000000000
   \              000000000000
   \              000000000000
   \              000000000000
   \              0000B81E85EB
   \   00003904   51084040E7FB       DC32 40400851H, 0F1A9FBE7H, 40280DD2H, 0A3D70A3DH, 3FFC3D70H, 31
   \              A9F1D20D2840
   \              3D0AD7A3703D
   \              FC3F1F000000
   \   0000391C   0000F0429D80       DC32 42F00000H, 3FE6809DH
   \              E63F        
   \   00003924   000000000000       DC8 0, 0, 0, 0, 0, 0, 0, 0
   \              0000        
   \   0000392C   0000F242AD69       DC32 42F20000H, 3FE669ADH
   \              E63F        
   \   00003934   000000000000       DC8 0, 0, 0, 0, 0, 0, 0, 0
   \              0000        
   \   0000393C   0000F4424B59       DC32 42F40000H, 3FE6594BH
   \              E63F        
   \   00003944   000000000000       DC8 0, 0, 0, 0, 0, 0, 0, 0
   \              0000        
   \   0000394C   0000F6425B42       DC32 42F60000H, 3FE6425BH
   \              E63F        
   \   00003954   000000000000       DC8 0, 0, 0, 0, 0, 0, 0, 0
   \              0000        
   \   0000395C   0000F8422428       DC32 42F80000H, 3FE62824H
   \              E63F        
   \   00003964   000000000000       DC8 0, 0, 0, 0, 0, 0, 0, 0
   \              0000        
   \   0000396C   0000FA423411       DC32 42FA0000H, 3FE61134H
   \              E63F        
   \   00003974   000000000000       DC8 0, 0, 0, 0, 0, 0, 0, 0
   \              0000        
   \   0000397C   0000FC4244FA       DC32 42FC0000H, 3FE5FA44H
   \              E53F        
   \   00003984   000000000000       DC8 0, 0, 0, 0, 0, 0, 0, 0
   \              0000        
   \   0000398C   0000FE42E2E9       DC32 42FE0000H, 3FE5E9E2H
   \              E53F        
   \   00003994   000000000000       DC8 0, 0, 0, 0, 0, 0, 0, 0
   \              0000        
   \   0000399C   00000043ABCF       DC32 43000000H, 3FE5CFABH
   \              E53F        
   \   000039A4   000000000000       DC8 0, 0, 0, 0, 0, 0, 0, 0
   \              0000        
   \   000039AC   0000014374B5       DC32 43010000H, 3FE5B574H
   \              E53F        
   \   000039B4   000000000000       DC8 0, 0, 0, 0, 0, 0, 0, 0
   \              0000        
   \   000039BC   0000024312A5       DC32 43020000H, 3FE5A512H
   \              E53F        
   \   000039C4   000000000000       DC8 0, 0, 0, 0, 0, 0, 0, 0
   \              0000        
   \   000039CC   00000343849E       DC32 43030000H, 3FE59E84H
   \              E53F        
   \   000039D4   000000000000       DC8 0, 0, 0, 0, 0, 0, 0, 0
   \              0000        
   \   000039DC   00000443EB73       DC32 43040000H, 3FE573EBH
   \              E53F        
   \   000039E4   000000000000       DC8 0, 0, 0, 0, 0, 0, 0, 0
   \              0000        
   \   000039EC   00000543B459       DC32 43050000H, 3FE559B4H
   \              E53F        
   \   000039F4   000000000000       DC8 0, 0, 0, 0, 0, 0, 0, 0
   \              0000        
   \   000039FC   000006435249       DC32 43060000H, 3FE54952H
   \              E53F        
   \   00003A04   000000000000       DC8 0, 0, 0, 0, 0, 0, 0, 0
   \              0000        
   \   00003A0C   000007431B2F       DC32 43070000H, 3FE52F1BH
   \              E53F        
   \   00003A14   000000000000       DC8 0, 0, 0, 0, 0, 0, 0, 0
   \              0000        
   \   00003A1C   000008432B18       DC32 43080000H, 3FE5182BH
   \              E53F        
   \   00003A24   000000000000       DC8 0, 0, 0, 0, 0, 0, 0, 0
   \              0000        
   \   00003A2C   00000943F4FD       DC32 43090000H, 3FE4FDF4H
   \              E43F        
   \   00003A34   000000000000       DC8 0, 0, 0, 0, 0, 0, 0, 0
   \              0000        
   \   00003A3C   00000A43BDE3       DC32 430A0000H, 3FE4E3BDH
   \              E43F        
   \   00003A44   000000000000       DC8 0, 0, 0, 0, 0, 0, 0, 0
   \              0000        
   \   00003A4C   00000B435BD3       DC32 430B0000H, 3FE4D35BH
   \              E43F        
   \   00003A54   000000000000       DC8 0, 0, 0, 0, 0, 0, 0, 0
   \              0000        
   \   00003A5C   00000C4324B9       DC32 430C0000H, 3FE4B924H
   \              E43F        
   \   00003A64   000000000000       DC8 0, 0, 0, 0, 0, 0, 0, 0
   \              0000        
   \   00003A6C   00000D43ED9E       DC32 430D0000H, 3FE49EEDH
   \              E43F        
   \   00003A74   000000000000       DC8 0, 0, 0, 0, 0, 0, 0, 0
   \              0000        
   \   00003A7C   00000E43FD87       DC32 430E0000H, 3FE487FDH
   \              E43F        
   \   00003A84   000000000000       DC8 0, 0, 0, 0, 0, 0, 0, 0
   \              0000        
   \   00003A8C   00000F435474       DC32 430F0000H, 3FE47454H
   \              E43F        
   \   00003A94   000000000000       DC8 0, 0, 0, 0, 0, 0, 0, 0
   \              0000        
   \   00003A9C   000010431D5A       DC32 43100000H, 3FE45A1DH
   \              E43F        
   \   00003AA4   000000000000       DC8 0, 0, 0, 0, 0, 0, 0, 0
   \              0000        
   \   00003AAC   00001143E63F       DC32 43110000H, 3FE43FE6H
   \              E43F        
   \   00003AB4   000000000000       DC8 0, 0, 0, 0, 0, 0, 0, 0
   \              0000        
   \   00003ABC   00001243F628       DC32 43120000H, 3FE428F6H
   \              E43F        
   \   00003AC4   000000000000       DC8 0, 0, 0, 0, 0, 0, 0, 0
   \              0000        
   \   00003ACC   00001343BF0E       DC32 43130000H, 3FE40EBFH
   \              E43F        
   \   00003AD4   000000000000       DC8 0, 0, 0, 0, 0, 0, 0, 0
   \              0000        
   \   00003ADC   00001443CFF7       DC32 43140000H, 3FE3F7CFH
   \              E33F        
   \   00003AE4   000000000000       DC8 0, 0, 0, 0, 0, 0, 0, 0
   \              0000        
   \   00003AEC   0000154326E4       DC32 43150000H, 3FE3E426H
   \              E33F        
   \   00003AF4   000000000000       DC8 0, 0, 0, 0, 0, 0, 0, 0
   \              0000        
   \   00003AFC   0000164336CD       DC32 43160000H, 3FE3CD36H
   \              E33F        
   \   00003B04   000000000000       DC8 0, 0, 0, 0, 0, 0, 0, 0, 0, 0, 0, 0, 0, 0, 0, 0
   \              000000000000
   \              00000000    
   \   00003B14   000000000000       DC8 0, 0, 0, 0, 0, 0, 0, 0, 0, 0, 0, 0, 0, 0, 0, 0
   \              000000000000
   \              00000000    
   \   00003B24   000000000000       DC8 0, 0, 0, 0, 0, 0, 0, 0, 0, 0, 0, 0, 0, 0, 0, 0
   \              000000000000
   \              00000000    
   \   00003B34   000000000000       DC8 0, 0, 0, 0, 0, 0, 0, 0, 0, 0, 0, 0, 0, 0, 0, 0
   \              000000000000
   \              00000000    
   \   00003B44   000000000000       DC8 0, 0, 0, 0, 0, 0, 0, 0
   \              0000        
    788              {  "Ammoniak"       , "NH3"         ,405.5,   1.001,  0.2312,  0.2471,   17.032  ,  12.19 ,  1.965, 11,{{-40, 0.6912, -0.2525, -0.29},{-30, 0.6782, 0.1627, 0.19},{-20, 0.6652, 0.7374, 0.89},{-10, 0.6519, 0.15215, 1.89},{0, 0.6381, 2.5606, 3.26},{10, 0.6239, 3.9267, 5.1},{20, 0.6092, 5.688, 7.5},{30, 0.5939, 7.9364, 10.57},{40, 0.5779, 10.775, 14.42},{50, 0.5611, 14.331, 19.17},{60, 0.5443, 18.7295, 24.92}}},
    789              {  "Butadien"       , "C4H6"        ,425.0,   0.977,  0.2444,  0.2710,   54.090  ,  12.16 ,  1.765, 11,{{-40, 0.6900, 0.557, 0.202},{-30, 0.6585, 0.9735, 0.372},{-20, 0.669, 1.39, 0.542},{-10, 0.645, 2.18, 0.883},{0, 0.645, 2.97, 1.224}, {10, 0.633, 4.17, 1.754}, {20, 0.621, 5.69, 2.437}, {30, 0.609, 7.64, 3.324}, {40, 0.595, 10.02, 4.415}, {50, 0.581, 13.375, 5.93}, {60, 0.567, 16.73, 7.444}}},
    790              {  "Isobutylene"    , "C4H8"        ,419.2,   1.000,  0.2188,  0.2680,   56.104  ,  12.36 ,  2.600, 11,{{-40, 0.6613, 0.65, 0.23},{-30, 0.6506, 0.99, 0.37},{-20, 0.64, 1.62, 0.59},{-10, 0.6397, 2.34, 0.89},{0, 0.6171, 3.36, 1.31},{10, 0.6053, 4.69, 1.87},{20, 0.5931, 6.39, 2.59},{30, 0.5805, 8.52, 3.5},{40, 0.5674, 11.35, 4.65},{50, 0.5536, 14.72, 6.05},{60, 0.5399, 18.04, 7.45}}},
    791              {  "Propylene"      , "C3H6"        ,354.9,   1.040,  0.2252,  0.2699,   42.080  ,  12.04 ,  1.765, 11,{{-40, 0.5995, 3.19, 1.4},{-30, 0.5863, 4.66, 2.11},{-20, 0.5731, 6.643, 3.067},{-10, 0.5599, 9.05, 4.28},{0, 0.5457, 12.22, 5.83},{10, 0.5307, 16.25, 7.78},{20, 0.5147, 21.28, 10.16},{30, 0.4977, 27.53, 13.04},{40, 0.4791, 35.703, 16.49},{50, 0.4586, 45.81, 20.56},{60, 0.4381, 56.43, 24.96}}},
    792              {  "Propenoxide"    , "C3H6O"       ,582.0,   1.000,  0.3123,  0.3015,   58.080  ,  12.80 ,  1.765, 11,{{-40, 0.9028, 0.0033, 0.01},{-30, 0.8905, 0.0313, 0.01},{-20, 0.8782, 0.2108, 0.07},{-10, 0.8659, 0.4, 0.16},{0, 0.8536, 0.6, 0.25},{10, 0.8413, 1, 0.4},{20, 0.829, 1.4, 0.61},{30, 0.8167, 2.1, 0.9},{40, 0.8044, 3.2233, 1.28},{50, 0.7921, 4.4235, 1.79},{60, 0.7798, 6.0166, 2.47}}},
    793              {  "Vynilchloride"  , "C4H6"        ,429.7,   1.000,  0.3946,  0.3108,   62.500  ,  12.16 ,  1.765, 11,{{-40, 1.0174, 0.4921, 0.15},{-30, 0.9999, 1.4958, 0.47},{-20, 0.9824, 2.398, 0.79},{-10, 0.9649, 3.494, 1.19},{0, 0.9468, 4.967, 1.73},{10, 0.9287, 6.888, 2.46},{20, 0.9104, 9.374, 3.49},{30, 0.8916, 12.446, 4.59},{40, 0.8725, 16.301, 6.88},{50, 0.8534, 23.6689, 8.18},{60, 0.8343, 27.5705, 9.58}}},
    794              {  "Butane"         , "C4H10"       ,429.7,   0.000,  0.0000,  0.0000,   58.123  ,  12.027,  1.765, 11,{{-40, 0.6400, 0.5487, 0.183},{-30, 0.6306, 0.8625, 0.3},{-20, 0.6210, 1.3199, 0.478},{-10, 0.6107, 1.873, 0.705},{0, 0.6008, 2.7128, 1.06}, {10, 0.5898, 3.7773, 1.53}, {20, 0.5788, 5.0315, 2.11}, {30, 0.5665, 6.6411}, {40, 0.5546, 8.572, 3.84}, {50, 0.5422, 10.9592, 5.08}, {60, 0.5284, 13.6389, 6.5}}},
    795              {  "Propane"        , "C3H8"        ,429.7,   0.000,  0.0000,  0.0000,   44.096  ,  12.027,  1.765, 11,{{-40, 0.5815, 2.33, 1},{-30, 0.5683, 3.4, 1.5},{-20, 0.5551, 5.57, 2.5},{-10, 0.5419, 7.54, 3.45},{0, 0.5287, 10.23, 4.74}, {10, 0.5147, 13.63, 6.36}, {20, 0.5000, 17.9, 8.36}, {30, 0.4843, 23.18, 10.79}, {40, 0.4647, 29.72, 13.69}, {50, 0.4489, 37.57, 17.14}, {60, 0.4304, 48.47, 21.5}}},
    796              {  "N-Butane"       , "nC4H8"       ,425.2,   0.000,  0.0000,  0.0000,   58.123  ,  12.027,  1.765, 11,{{-40, 0.6443, 0.3654, 0.12},{-30, 0.6335},{-20, 0.6227, 1.1317, 0.4},{-10, 0.6119, 1.9, 0.7},{0, 0.6011, 2.72, 1.03}, {10, 0.5901, 3.81, 1.48}, {20, 0.5787, 5.23, 2.07}, {30, 0.5669, 7.04, 2.83}, {40, 0.5547, 9.3731, 3.77}, {50, 0.5420, 12.1704, 4.93}, {60, 0.5293, 16.3137, 6.49}}},
    797              {  "ISO-Butane"     , "I-C4H10"     ,408.1,   0.000,  0.0000,  0.0000,   58.123  ,  12.027,  1.765, 11,{{-40, 0.6262, 0.82, 0.29},{-30, 0.6148, 1.23, 0.44},{-20, 0.6034, 2.06, 0.74},{-10, 0.5920, 2.96, 1.08},{0, 0.5806, 4.18}, {10, 0.5689, 5.79, 2.2}, {20, 0.5568, 7.77, 3}, {30, 0.5442, 10.28, 4.01}, {40, 0.5310, 13.4, 5.25}, {50, 0.5171, 17.21, 6.74}, {60, 0.5032, 22.09, 8.6}}},
    798              {  "1-Butene"       , "1-C4H8 "     ,425.2,   0.000,  0.0000,  0.0000,   56.107  ,  12.027,  1.765, 11,{{-40, 0.6611, 0.65, 0.22},{-30, 0.6497, 0.98, 0.36},{-20, 0.6383, 1.52, 0.56},{-10, 0.6269, 2.29, 0.87},{0, 0.6155, 3.28, 1.28}, {10, 0.6039, 4.59, 1.83}, {20, 0.5918, 6.26, 2.54}, {30, 0.5794, 8.37, 3.44}, {40, 0.5664, 11.01, 4.56}, {50, 0.5529, 14.27, 5.93}, {60, 0.5394, 18.31, 7.61}}},
    799              {  "Crude C4"       , "C4"          ,  0.0,   0.000,  0.0000,  0.0000,   55.091  ,  12.027,  1.765, 11,{{-40, 0.6770, 1.1383, 0.115},{-30, 0.6650, 1.4295, 0.241},{-20, 0.6540, 1.3597, 0.531},{-10, 0.642, 2.2352, 0.881},{0, 0.6290, 3.2297, 1.301}, {10, 0.6170, 4.5057, 1.85}, {20, 0.6050, 6.1495, 2.556}, {30, 0.5920, 8.2238, 3.454}, {40, 0.5790, 10.7476, 4.514}, {50, 0.5660, 13.2346, 5.508}, {60, 0.5330, 15.4051, 6.45}}},
    800              {  "Raffinate 1"    , "C"           ,  0.0,   0.000,  0.0000,  0.0000,   56.4    ,  12.027,  1.765, 11,{{-40, 0.6642, 1.1383, 0.115},{-30, 0.6528, 1.4295, 0.241},{-20, 0.6414, 1.3597, 0.531},{-10, 0.6300, 2.2352, 0.881},{0, 0.6186, 3.2297, 1.301}, {10, 0.6069, 4.5057, 1.85}, {20, 0.5949, 6.1495, 2.556}, {30, 0.5824, 8.2238, 3.454}, {40, 0.5694, 10.7476, 4.514}, {50, 0.5569, 13.2346, 5.508}, {60, 0.5439, 15.4051, 6.45}}},
    801              {  "Raffinate 2"    , "C"           ,  0.0,   0.000,  0.0000,  0.0000,   56.8    ,  12.027,  1.765, 11,{{-40, 0.6678, 1.1383, 0.115},{-30, 0.6565, 1.4295, 0.241},{-20, 0.6452, 1.3597, 0.531},{-10, 0.6339, 2.2352, 0.881},{0, 0.6226, 3.2297, 1.301}, {10, 0.6113, 4.5057, 1.85}, {20, 0.6001, 6.1495, 2.556}, {30, 0.5889, 8.2238, 3.454}, {40, 0.5776, 10.7476, 4.514}, {50, 0.5663, 13.2346, 5.508}, {60, 0.5550, 15.4051, 6.45}}},
    802              {  "Propylene Ref"  , "Promix NR"   ,354.9,   0.000,  0.0000,  0.0000,   42.565  ,  12.027,  1.765, 11,{{-40, 0.5776, 6.011, 2.855},{-30, 0.5776, 6.011, 2.855},{-20, 0.5657, 7.282, 3.601},{-10, 0.5534, 9.896, 5.087},{0, 0.5412, 12.336, 6.582}, {10, 0.5277, 15.276, 8.449}, {20, 0.5135, 18.759, 10.742}, {30, 0.4985, 22.831, 13.521}, {40, 0.4825, 27.718, 16.955}, {50, 0.4657, 33.038, 20.855}, {60, 0.4480, 39.542, 25.733}}},
    803                 {  "Gasolie"        , "Gasolie"     ,  0.0,   0.000,  0.0000,  0.0000,   28      ,  12.027,  1.765, 11,{{-40, 0.882671},{-30, 0.875826},{-20, 0.868982},{-10, 0.862137},{0, 0.855309}, {10, 0.848465}, {20, 0.841536}, {30, 0.834776}, {40, 0.82793}, {50, 0.821069}, {60, 0.814224}}},
    804              {  "Flexicoker LPG" , "FLX LPG"     ,  0.0,   0.000,  0.0000,  0.0000,   52.04934,  12.027,  1.765, 11,{{-40, 0.616096, -4.14, -1.63},{-30, 0.605316, -2.8, -1.13},{-20, 0.59426, -0.32, 0.13},{-10, 0.582651, 1.99, 0.82},{0, 0.571319, 5.12, 2.11} ,{10, 0.558881, 9.15, 3.73} ,{20, 0.546443, 14.05, 5.73} ,{30, 0.533176, 20.27, 8.15} ,{40, 0.519632, 28.05, 11.06}, {50, 0.505259, 37.72, 14.51}, {60, 0.490334, 50.75, 18.87}}},
    805              {  "Sulphur-1"      , "S"           ,429.7,   0.000,  0.0000,  0.0000,   32.065  ,  12.027,  1.765, 31,{{120, 1.802},{121, 1.801},{122 ,1.801},{123, 1.800},{124, 1.799}, {125, 1.798}, {126, 1.797}, {127, 1.797}, {128, 1.796}, {129, 1.795}, {130, 1.795}, {131, 1.794}, {132, 1.793}, {133, 1.792}, {134, 1.792}, {135, 1.791}, {136, 1.790}, {137, 1.789}, {138, 1.788}, {139, 1.788}, {140, 1.787}, {141, 1.786}, {142, 1.785}, {143, 1.785}, {144, 1.784}, {145, 1.783}, {146, 1.782}, {147, 1.781}, {148, 1.780}, {149, 1.780}, {150, 1.779}}},
    806              {  "Sulphur-2"      , "S"           ,429.7,   0.000,  0.0000,  0.0000,   32.065  ,  12.027,  1.765, 31,{{120, 1.7990},{121, 1.7984},{122 ,1.7978},{123, 1.7972},{124, 1.7966}, {125, 1.7960}, {126, 1.7954}, {127, 1.7948}, {128, 1.7942}, {129, 1.7936}, {130, 1.7930}, {131, 1.7924}, {132, 1.7918}, {133, 1.7912}, {134, 1.7906}, {135, 1.7900}, {136, 1.7894}, {137, 1.7888}, {138, 1.7882}, {139, 1.7876}, {140, 1.7870}, {141, 1.7864}, {142, 1.7858}, {143, 1.7852}, {144, 1.7846}, {145, 1.7840}, {146, 1.7834}, {147, 1.7828}, {148, 1.7822}, {149, 1.7816}, {150, 1.7810}}},
    807              {  "Sulphur-3"      , "S"           ,429.7,   0.000,  0.0000,  0.0000,   32.065  ,  12.027,  1.765, 31,{{120, 1.8039},{121, 1.8035},{122 ,1.8026},{123, 1.8019},{124, 1.8012}, {125, 1.8005}, {126, 1.7998}, {127, 1.7990}, {128, 1.7982}, {129, 1.7974}, {130, 1.7966}, {131, 1.7985}, {132, 1.7950}, {133, 1.7942}, {134, 1.7933}, {135, 1.7924}, {136, 1.7916}, {137, 1.7808}, {138, 1.7899}, {139, 1.7890}, {140, 1.7881}, {141, 1.7871}, {142, 1.7861}, {143, 1.7851}, {144, 1.7842}, {145, 1.7833}, {146, 1.7825}, {147, 1.7816}, {148, 1.7806}, {149, 1.7798}, {150, 1.7790}}},
    808              {  "Sulphur-4"      , "S"           ,429.7,   0.000,  0.0000,  0.0000,   32.065  ,  12.027,  1.765, 31,{{120, 1.8017},{121, 1.8010},{122 ,1.8003},{123, 1.7996},{124, 1.7989}, {125, 1.7982}, {126, 1.7975}, {127, 1.7968}, {128, 1.7960}, {129, 1.7952}, {130, 1.7945}, {131, 1.7938}, {132, 1.7930}, {133, 1.7922}, {134, 1.7915}, {135, 1.7908}, {136, 1.7900}, {137, 1.7893}, {138, 1.7885}, {139, 1.7878}, {140, 1.7870}, {141, 1.7863}, {142, 1.7857}, {143, 1.7849}, {144, 1.7842}, {145, 1.7835}, {146, 1.7828}, {147, 1.7821}, {148, 1.7814}, {149, 1.7806}, {150, 1.7799}}},
    809              {  "Sulphur-5"      , "S"           ,429.7,   0.000,  0.0000,  0.0000,   32.065  ,  12.027,  1.765, 31,{{120, 1.7974},{121, 1.7968},{122 ,1.7962},{123, 1.7956},{124, 1.7950}, {125, 1.7944}, {126, 1.7938}, {127, 1.7932}, {128, 1.7926}, {129, 1.7920}, {130, 1.7914}, {131, 1.7908}, {132, 1.7902}, {133, 1.7896}, {134, 1.7890}, {135, 1.7884}, {136, 1.7878}, {137, 1.7872}, {138, 1.7866}, {139, 1.7860}, {140, 1.7854}, {141, 1.7848}, {142, 1.7842}, {143, 1.7836}, {144, 1.7830}, {145, 1.7824}, {146, 1.7818}, {147, 1.7812}, {148, 1.7806}, {149, 1.7800}, {150, 1.7794}}},
    810              {  "Sulphur-6"      , "S"           ,429.7,   0.000,  0.0000,  0.0000,   32.065  ,  12.027,  1.765, 31,{{120, 1.8008},{121, 1.8001},{122 ,1.7996},{123, 1.7989},{124, 1.7981}, {125, 1.7974}, {126, 1.7967}, {127, 1.7962}, {128, 1.7954}, {129, 1.7946}, {130, 1.7941}, {131, 1.7939}, {132, 1.7926}, {133, 1.7918}, {134, 1.7913}, {135, 1.7905}, {136, 1.7898}, {137, 1.7890}, {138, 1.7882}, {139, 1.7877}, {140, 1.7869}, {141, 1.7861}, {142, 1.7854}, {143, 1.7848}, {144, 1.7840}, {145, 1.7832}, {146, 1.7825}, {147, 1.7817}, {148, 1.7810}, {149, 1.7804}, {150, 1.7797}}},
    811          };
    812          
    813          /* The following code was included but not used by Henri Systems */
    814          

   \                                 In segment CODE, align 4, keep-with-next
    815          double ChemgasPureGasCalcLiquid(double Q, double F, double A, double B, double ActTemp)
    816          {
   \                     ??ChemgasPureGasCalcLiquid:
   \   00000000   F04F2DE9           PUSH     {R4-R11,LR}
   \   00000004   0060A0E1           MOV      R6,R0
   \   00000008   0170A0E1           MOV      R7,R1
   \   0000000C   24008DE2           ADD      R0,SP,#+36
   \   00000010   000390E8           LDM      R0,{R8,R9}
   \   00000014   2C008DE2           ADD      R0,SP,#+44
   \   00000018   300090E8           LDM      R0,{R4,R5}
   \   0000001C   34008DE2           ADD      R0,SP,#+52
   \   00000020   030090E8           LDM      R0,{R0,R1}
   \   00000024   02A0A0E1           MOV      R10,R2
    817              // Most likely a modified Rackett Eqn (1970), for the calculation of molar volume of satd liquid.
    818              // The code is based on the code marked Original and is an attremt to understand and find the methode
    819              // the calculations is based on
    820              double Zra  = B;    // Rename paramters later
    821              double Tc   = Q;    // Rename paramters later
    822              double Tr   = (ActTemp + TEMP_ZERO)/Tc;
    823              double Vc   = A;    // Rename paramters later
    824              double Z    = F;    // Compressibility???
    825              double Vsat = Vc * ( powl ( Zra, -powl(1-Tr,double(2)/double(7))));
   \   00000028   70209FE5           LDR      R2,??ChemgasPureGasCalcLiquid_1  ;; 0xffffffff92492492
   \   0000002C   03B0A0E1           MOV      R11,R3
   \   00000030   6C309FE5           LDR      R3,??ChemgasPureGasCalcLiquid_1+0x4  ;; 0x3fd24924
   \   00000034   0C002DE9           PUSH     {R2,R3}
   \   00000038   ........           LDR      R2,??DataTable161  ;; 0x66666666
   \   0000003C   ........           LDR      R3,??DataTable160  ;; 0x40711266
   \   00000040   ........           _BLF     __dAdd,??__dAdd??rA
   \   00000044   0620A0E1           MOV      R2,R6
   \   00000048   0730A0E1           MOV      R3,R7
   \   0000004C   ........           _BLF     __dDiv,??__dDiv??rA
   \   00000050   0020A0E1           MOV      R2,R0
   \   00000054   0130A0E1           MOV      R3,R1
   \   00000058   0000A0E3           MOV      R0,#+0
   \   0000005C   C015A0E3           MOV      R1,#+805306368
   \   00000060   FF1681E3           ORR      R1,R1,#0xFF00000
   \   00000064   ........           _BLF     __dSub,??__dSub??rA
   \   00000068   0C00BDE8           POP      {R2,R3}
   \   0000006C   ........           _BLF     powl,??powl??rA
   \   00000070   0020A0E1           MOV      R2,R0
   \   00000074   803421E2           EOR      R3,R1,#0x80000000
   \   00000078   0400A0E1           MOV      R0,R4
   \   0000007C   0510A0E1           MOV      R1,R5
   \   00000080   ........           _BLF     powl,??powl??rA
   \   00000084   0820A0E1           MOV      R2,R8
   \   00000088   0930A0E1           MOV      R3,R9
   \   0000008C   ........           _BLF     __dMul,??__dMul??rA
    826              double Dns  = Z*Vsat;
    827              return Dns;
   \   00000090   0A20A0E1           MOV      R2,R10
   \   00000094   0B30A0E1           MOV      R3,R11
   \   00000098   ........           _BLF     __dMul,??__dMul??rA
   \   0000009C   ........           B        ?Subroutine37
   \                     ??ChemgasPureGasCalcLiquid_1:
   \   000000A0   92244992           DC32     0xffffffff92492492
   \   000000A4   2449D23F           DC32     0x3fd24924
    828          	/* Original code from here :
    829              double R,t1,t2,t3,D;
    830          
    831              if (Q>0)
    832                  R=(ActTemp+TEMP_ZERO)/Q;
    833              else
    834                  R=1;
    835              t1=(double)(2)/(double)(7);
    836              t2= 1-R;
    837              t3=-powl(t2,t1);
    838              t2= powl(B ,t3);
    839              D = F*A*t2;
    840              if ((D>0.3)&&(D<1.5))
    841                  return (D);
    842              return (0);
    843              */
    844          }
    845          /* The following code was included but not used by Henri Systems */
    846          

   \                                 In segment CODE, align 4, keep-with-next
    847          double ChemgasPureGasCalcVapour(double MolMass, double H, double N, double ActTemp, double ActAbsPress)
    848          {
   \                     ??ChemgasPureGasCalcVapour:
   \   00000000   FC4F2DE9           PUSH     {R2-R11,LR}
   \   00000004   00A0A0E1           MOV      R10,R0
   \   00000008   01B0A0E1           MOV      R11,R1
   \   0000000C   2C008DE2           ADD      R0,SP,#+44
   \   00000010   C00090E8           LDM      R0,{R6,R7}
   \   00000014   34008DE2           ADD      R0,SP,#+52
   \   00000018   030090E8           LDM      R0,{R0,R1}
    849              double t1,t2,t3;
    850              //double GasWeight    = GasVolume*54.67*(Pressure* MH2O_TO_BAR+NORMAL_ATM)/(84.6*(TEMP_ZERO+Temperature));
    851          
    852              t1=(ActAbsPress/100.0)*MolMass/(ActTemp+TEMP_ZERO);
   \   0000001C   ........           LDR      R3,??DataTable160  ;; 0x40711266
   \   00000020   3C208DE2           ADD      R2,SP,#+60
   \   00000024   300092E8           LDM      R2,{R4,R5}
   \   00000028   ........           LDR      R2,??DataTable161  ;; 0x66666666
   \   0000002C   ........           _BLF     __dAdd,??__dAdd??rA
   \   00000030   0080A0E1           MOV      R8,R0
   \   00000034   0190A0E1           MOV      R9,R1
   \   00000038   0400A0E1           MOV      R0,R4
   \   0000003C   0510A0E1           MOV      R1,R5
   \   00000040   0020A0E3           MOV      R2,#+0
   \   00000044   4034A0E3           MOV      R3,#+1073741824
   \   00000048   593883E3           ORR      R3,R3,#0x590000
   \   0000004C   ........           _BLF     __dDiv,??__dDiv??rA
   \   00000050   0A20A0E1           MOV      R2,R10
   \   00000054   0B30A0E1           MOV      R3,R11
   \   00000058   ........           _BLF     __dMul,??__dMul??rA
   \   0000005C   0820A0E1           MOV      R2,R8
   \   00000060   0930A0E1           MOV      R3,R9
   \   00000064   ........           _BLF     __dDiv,??__dDiv??rA
   \   00000068   0040A0E1           MOV      R4,R0
   \   0000006C   0150A0E1           MOV      R5,R1
    853              t2=t1*H;
    854              t3=powl((N*t1),2);
   \   00000070   4094A0E3           MOV      R9,#+1073741824
   \   00000074   0420A0E1           MOV      R2,R4
   \   00000078   0530A0E1           MOV      R3,R5
   \   0000007C   0600A0E1           MOV      R0,R6
   \   00000080   0710A0E1           MOV      R1,R7
   \   00000084   ........           _BLF     __dMul,??__dMul??rA
   \   00000088   0020A0E3           MOV      R2,#+0
   \   0000008C   0930A0E1           MOV      R3,R9
   \   00000090   ........           _BLF     powl,??powl??rA
   \   00000094   0060A0E1           MOV      R6,R0
   \   00000098   0170A0E1           MOV      R7,R1
    855              t3+=t2;
   \   0000009C   0D00A0E1           MOV      R0,SP
   \   000000A0   030090E8           LDM      R0,{R0,R1}
   \   000000A4   0080A0E3           MOV      R8,#+0
   \   000000A8   0420A0E1           MOV      R2,R4
   \   000000AC   0530A0E1           MOV      R3,R5
   \   000000B0   ........           _BLF     __dMul,??__dMul??rA
   \   000000B4   0620A0E1           MOV      R2,R6
   \   000000B8   0730A0E1           MOV      R3,R7
   \   000000BC   ........           _BLF     __dAdd,??__dAdd??rA
   \   000000C0   0040A0E1           MOV      R4,R0
   \   000000C4   0150A0E1           MOV      R5,R1
    856          
    857              if (t3>0)
   \   000000C8   0120A0E3           MOV      R2,#+1
   \   000000CC   0830A0E1           MOV      R3,R8
   \   000000D0   ........           _BLF     __dGreaterEqual,??__dGreaterEqual??rA
   \   000000D4   000050E3           CMP      R0,#+0
    858                  return (t3);
   \   000000D8   0400A011           MOVNE    R0,R4
   \   000000DC   0510A011           MOVNE    R1,R5
    859              return (0);
   \   000000E0   FC4FBDE8           POP      {R2-R11,LR}
   \   000000E4   0010A003           MOVEQ    R1,#+0
   \   000000E8   1EFF2FE1           BX       LR               ;; return
    860          }

   \                                 In segment DIFUNCT, align 4, keep-with-next, root
   \   00000000                      REQUIRE ?call_ctors
   \   00000000   ........           DC32    ??__sti__routine

   \                                 In segment CODE, align 4, keep-with-next
   \   static __??Code32?? __intrinsic __code __interwork __atpcs void __sti__routine()
   \                     ??__sti__routine:
   \   00000000   1EFF2FE1           BX       LR               ;; return

   \                                 In segment CODE, align 4, keep-with-next
   \                     ??DataTable0:
   \   00000000   3A8C30E2           DC32     0xffffffffe2308c3a

   \                                 In segment CODE, align 4, keep-with-next
   \                     ??DataTable2:
   \   00000000   2F6EA301           DC32     0x1a36e2f

   \                                 In segment CODE, align 4, keep-with-next
   \                     ??DataTable5:
   \   00000000   9A999999           DC32     0xffffffff9999999a

   \                                 In segment CODE, align 4, keep-with-next
   \                     ??DataTable6:
   \   00000000   9999E93F           DC32     0x3fe99999

   \                                 In segment CODE, align 4, keep-with-next
   \                     ??DataTable35:
   \   00000000   35EF3845           DC32     0x4538ef35

   \                                 In segment CODE, align 4, keep-with-next
   \                     ??DataTable36:
   \   00000000   C72F8340           DC32     0x40832fc7

   \                                 In segment CODE, align 4, keep-with-next
   \                     ??DataTable37:
   \   00000000   A4703D0A           DC32     0xa3d70a4

   \                                 In segment CODE, align 4, keep-with-next
   \                     ??DataTable38:
   \   00000000   D7A3E83F           DC32     0x3fe8a3d7

   \                                 In segment CODE, align 4, keep-with-next
   \                     ??DataTable39:
   \   00000000   9FEFA7C6           DC32     0xffffffffc6a7ef9f

   \                                 In segment CODE, align 4, keep-with-next
   \                     ??DataTable40:
   \   00000000   4B37E93F           DC32     0x3fe9374b

   \                                 In segment CODE, align 4, keep-with-next
   \                     ??DataTable41:
   \   00000000   0D022B87           DC32     0xffffffff872b020d

   \                                 In segment CODE, align 4, keep-with-next
   \                     ??DataTable42:
   \   00000000   16D9EA3F           DC32     0x3fead916

   \                                 In segment CODE, align 4, keep-with-next
   \                     ??DataTable44:
   \   00000000   F7065F98           DC32     0xffffffff985f06f7

   \                                 In segment CODE, align 4, keep-with-next
   \                     ??DataTable45:
   \   00000000   4C15DC3F           DC32     0x3fdc154c

   \                                 In segment CODE, align 4, keep-with-next
   \                     ??DataTable46:
   \   00000000   FBCBEEC9           DC32     0xffffffffc9eecbfb

   \                                 In segment CODE, align 4, keep-with-next
   \                     ??DataTable47:
   \   00000000   C3A67540           DC32     0x4075a6c3

   \                                 In segment CODE, align 4, keep-with-next
   \                     ??DataTable48:
   \   00000000   32E6AE25           DC32     0x25aee632

   \                                 In segment CODE, align 4, keep-with-next
   \                     ??DataTable49:
   \   00000000   A4F0A440           DC32     0x40a4f0a4

   \                                 In segment CODE, align 4, keep-with-next
   \                     ??DataTable50:
   \   00000000   F98C6BBF           DC32     0xffffffffbf6b8cf9

   \                                 In segment CODE, align 4, keep-with-next
   \                     ??DataTable51:
   \   00000000   8664334D           DC32     0x4d336486

   \                                 In segment CODE, align 4, keep-with-next
   \                     ??DataTable52:
   \   00000000   C8073D9B           DC32     0xffffffff9b3d07c8

   \                                 In segment CODE, align 4, keep-with-next
   \                     ??DataTable53:
   \   00000000   55948240           DC32     0x40829455

   \                                 In segment CODE, align 4, keep-with-next
   \                     ??DataTable54:
   \   00000000   3D2CD49A           DC32     0xffffffff9ad42c3d

   \                                 In segment CODE, align 4, keep-with-next
   \                     ??DataTable55:
   \   00000000   E61DDF3F           DC32     0x3fdf1de6

   \                                 In segment CODE, align 4, keep-with-next
   \                     ??DataTable56:
   \   00000000   744694F6           DC32     0xfffffffff6944674

   \                                 In segment CODE, align 4, keep-with-next
   \                     ??DataTable57:
   \   00000000   065F6740           DC32     0x40675f06

   \                                 In segment CODE, align 4, keep-with-next
   \                     ??DataTable58:
   \   00000000   00408F40           DC32     0x408f4000

   \                                 In segment CODE, align 4, keep-with-next
   \                     ??DataTable59:
   \   00000000   BBB88D06           DC32     0x68db8bb

   \                                 In segment CODE, align 4, keep-with-next
   \                     ??DataTable60:
   \   00000000   F016E43F           DC32     0x3fe416f0

   \                                 In segment CODE, align 4, keep-with-next
   \                     ??DataTable63:
   \   00000000   86AB6140           DC32     0x4061ab86

   \                                 In segment CODE, align 4, keep-with-next
   \                     ??DataTable64:
   \   00000000   B5C2F4BD           DC32     0xffffffffbdf4c2b5

   \                                 In segment CODE, align 4, keep-with-next
   \                     ??DataTable66:
   \   00000000   6666D63F           DC32     0x3fd66666

   \                                 In segment CODE, align 4, keep-with-next
   \                     ??DataTable71:
   \   00000000   1F85EB51           DC32     0x51eb851f

   \                                 In segment CODE, align 4, keep-with-next
   \                     ??DataTable72:
   \   00000000   B8BA7C40           DC32     0x407cbab8

   \                                 In segment CODE, align 4, keep-with-next
   \                     ??DataTable75:
   \   00000000   66666666           DC32     0x66666666

   \                                 In segment CODE, align 4, keep-with-next
   \                     ??DataTable76:
   \   00000000   666649C0           DC32     0xffffffffc0496666

   \                                 In segment CODE, align 4, keep-with-next
   \                     ??DataTable77:
   \   00000000   CECCCCCC           DC32     0xffffffffccccccce

   \                                 In segment CODE, align 4, keep-with-next
   \                     ??DataTable78:
   \   00000000   CCEC6840           DC32     0x4068eccc

   \                                 In segment CODE, align 4, keep-with-next
   \                     ??DataTable89:
   \   00000000   ........           DC32     Fluids

   \                                 In segment CODE, align 4, keep-with-next
   \                     ??DataTable90:
   \   00000000   CDCCCCCC           DC32     0xffffffffcccccccd

   \                                 In segment CODE, align 4, keep-with-next
   \                     ??DataTable91:
   \   00000000   CCCCFC3F           DC32     0x3ffccccc

   \                                 In segment CODE, align 4, keep-with-next
   \                     ??DataTable92:
   \   00000000   8FC2F528           DC32     0x28f5c28f

   \                                 In segment CODE, align 4, keep-with-next
   \                     ??DataTable93:
   \   00000000   5C3D8040           DC32     0x40803d5c

   \                                 In segment CODE, align 4, keep-with-next
   \                     ??DataTable96:
   \   00000000   666649C0           DC32     0xffffffffc0496666

   \                                 In segment CODE, align 4, keep-with-next
   \                     ??DataTable98:
   \   00000000   CECCCCCC           DC32     0xffffffffccccccce

   \                                 In segment CODE, align 4, keep-with-next
   \                     ??DataTable99:
   \   00000000   CCEC6840           DC32     0x4068eccc

   \                                 In segment CODE, align 4, keep-with-next
   \                     ??DataTable100:
   \   00000000   1F85EB51           DC32     0x51eb851f

   \                                 In segment CODE, align 4, keep-with-next
   \                     ??DataTable101:
   \   00000000   B8BA7C40           DC32     0x407cbab8

   \                                 In segment CODE, align 4, keep-with-next
   \                     ??DataTable102:
   \   00000000   CDCCCCCC           DC32     0xffffffffcccccccd

   \                                 In segment CODE, align 4, keep-with-next
   \                     ??DataTable103:
   \   00000000   CCCCFC3F           DC32     0x3ffccccc

   \                                 In segment CODE, align 4, keep-with-next
   \                     ??DataTable116:
   \   00000000   6666D63F           DC32     0x3fd66666

   \                                 In segment CODE, align 4, keep-with-next
   \                     ??DataTable117:
   \   00000000   3A8C30E2           DC32     0xffffffffe2308c3a

   \                                 In segment CODE, align 4, keep-with-next
   \                     ??DataTable134:
   \   00000000   66666666           DC32     0x66666666

   \                                 In segment CODE, align 4, keep-with-next
   \                     ??DataTable135:
   \   00000000   66027240           DC32     0x40720266

   \                                 In segment CODE, align 4, keep-with-next
   \                     ??DataTable143:
   \   00000000   840D4FAF           DC32     0xffffffffaf4f0d84

   \                                 In segment CODE, align 4, keep-with-next
   \                     ??DataTable144:
   \   00000000   9465D63F           DC32     0x3fd66594

   \                                 In segment CODE, align 4, keep-with-next
   \                     ??DataTable145:
   \   00000000   DD68006F           DC32     0x6f0068dd

   \                                 In segment CODE, align 4, keep-with-next
   \                     ??DataTable146:
   \   00000000   8104E63F           DC32     0x3fe60481

   \                                 In segment CODE, align 4, keep-with-next
   \                     ??DataTable147:
   \   00000000   ........           DC32     Fluids

   \                                 In segment CODE, align 4, keep-with-next
   \                     ??DataTable150:
   \   00000000   00405740           DC32     0x40574000

   \                                 In segment CODE, align 4, keep-with-next
   \                     ??DataTable153:
   \   00000000   ........           DC32     Fluids

   \                                 In segment CODE, align 4, keep-with-next
   \                     ??DataTable155:
   \   00000000   66527240           DC32     0x40725266

   \                                 In segment CODE, align 4, keep-with-next
   \                     ??DataTable156:
   \   00000000   97C80567           DC32     0x6705c897

   \                                 In segment CODE, align 4, keep-with-next
   \                     ??DataTable157:
   \   00000000   F0F7EF3F           DC32     0x3feff7f0

   \                                 In segment CODE, align 4, keep-with-next
   \                     ??DataTable160:
   \   00000000   66127140           DC32     0x40711266

   \                                 In segment CODE, align 4, keep-with-next
   \                     ??DataTable161:
   \   00000000   66666666           DC32     0x66666666
    861          

   Maximum stack usage in bytes:

     Function                       CSTACK
     --------                       ------
     APIRound(double, int)             20
     APIRound5(double, int)            32
     APITruncate(double, int)          28
     API_vcf15(double, double)         16
     API_vcf20(double, double)         32
     Api_to_Density(float)              4
     CalcAlpha(double, double, double)
                                       28
     CalcAlpha15(double, double, double)
                                       32
     CalcCtl(double, double, int, int)
                                       56
     CalcLamdax(int, double)           36
     Calc_RohSat(int, double)          56
     ChemgasPureGasCalcLiquid(double, double, double, double, double)
                                       44
     ChemgasPureGasCalcVapour(double, double, double, double, double)
                                       44
     Ctl_LPG_Calc_23E(double, double, bool)
                                      144
     Ctl_LPG_Calc_24E(double, double)
                                       68
     Ctl_LPG_Calc_53E(double, double)
                                       32
     Ctl_LPG_Calc_54E(double, double)
                                       52
     Ctl_LPG_Calc_59E(double, double)
                                       32
     Ctl_LPG_Calc_60E(double, double)
                                       52
     Density_to_API(float)             16
     DnsInAir_to_DnsInVac(float)        4
     DnsInVac_to_DnsInAir(float)        4
     HydrometerCorrection(float)       20
     Vcf_59A_and_60A_Calc(double, double, int *, bool)
                                       20
     Vcf_59B_and_60B_Calc(double, double, int *, bool)
                                       48
     Vcf_59D_and_60D_Calc(double, double, int *, bool)
                                       20
     Vcf_6_and_54A_Calc(double, double, int *, bool)
                                       20
     Vcf_6_and_54B_Calc(double, double, int *, bool)
                                       48
     Vcf_6_and_54D_Calc(double, double, int *, bool)
                                       20
     __sti__routine()                   0
     pow(double, int)                  28


   Segment part sizes:

     Function/Label                 Bytes
     --------------                 -----
     pow(double, int)                 168
     APIRound(double, int)            140
     ?Subroutine33                     20
     APIRound5(double, int)           400
     APITruncate(double, int)         184
     ?Subroutine34                      8
     HydrometerCorrection(float)      116
     DnsInVac_to_DnsInAir(float)       24
     ?Subroutine31                     20
     DnsInAir_to_DnsInVac(float)       16
     CalcAlpha(double, double, double)
                                      144
     CalcAlpha15(double, double, double)
                                      180
     ?Subroutine32                     12
     API_vcf15(double, double)        140
     ?Subroutine35                     12
     API_vcf20(double, double)        224
     Vcf_6_and_54A_Calc(double, double, int *, bool)
                                       64
     ?Subroutine30                     24
     Vcf_6_and_54B_Calc(double, double, int *, bool)
                                      388
     ?Subroutine36                      8
     Vcf_6_and_54D_Calc(double, double, int *, bool)
                                       60
     Vcf_59A_and_60A_Calc(double, double, int *, bool)
                                       80
     Vcf_59B_and_60B_Calc(double, double, int *, bool)
                                      384
     Vcf_59D_and_60D_Calc(double, double, int *, bool)
                                       80
     Api_to_Density(float)             48
     Density_to_API(float)             88
     Fluids                           960
     Calc_RohSat(int, double)         336
     Ctl_LPG_Calc_24E(double, double)
                                      940
     ?Subroutine37                      8
     CalcLamdax(int, double)          224
     CalcCtl(double, double, int, int)
                                      668
     Ctl_LPG_Calc_23E(double, double, bool)
                                     2572
     Ctl_LPG_Calc_54E(double, double)
                                      528
     Ctl_LPG_Calc_53E(double, double)
                                      424
     ?Subroutine38                      8
     Ctl_LPG_Calc_60E(double, double)
                                      588
     Ctl_LPG_Calc_59E(double, double)
                                      420
     Product                        15180
     ChemgasPureGasCalcLiquid(double, double, double, double, double)
                                      168
     ChemgasPureGasCalcVapour(double, double, double, double, double)
                                      236
     __sti__routine()                   4
     ??DataTable0                       4
     ??DataTable2                       4
     ??DataTable5                       4
     ??DataTable6                       4
     ??DataTable35                      4
     ??DataTable36                      4
     ??DataTable37                      4
     ??DataTable38                      4
     ??DataTable39                      4
     ??DataTable40                      4
     ??DataTable41                      4
     ??DataTable42                      4
     ??DataTable44                      4
     ??DataTable45                      4
     ??DataTable46                      4
     ??DataTable47                      4
     ??DataTable48                      4
     ??DataTable49                      4
     ??DataTable50                      4
     ??DataTable51                      4
     ??DataTable52                      4
     ??DataTable53                      4
     ??DataTable54                      4
     ??DataTable55                      4
     ??DataTable56                      4
     ??DataTable57                      4
     ??DataTable58                      4
     ??DataTable59                      4
     ??DataTable60                      4
     ??DataTable63                      4
     ??DataTable64                      4
     ??DataTable66                      4
     ??DataTable71                      4
     ??DataTable72                      4
     ??DataTable75                      4
     ??DataTable76                      4
     ??DataTable77                      4
     ??DataTable78                      4
     ??DataTable89                      4
     ??DataTable90                      4
     ??DataTable91                      4
     ??DataTable92                      4
     ??DataTable93                      4
     ??DataTable96                      4
     ??DataTable98                      4
     ??DataTable99                      4
     ??DataTable100                     4
     ??DataTable101                     4
     ??DataTable102                     4
     ??DataTable103                     4
     ??DataTable116                     4
     ??DataTable117                     4
     ??DataTable134                     4
     ??DataTable135                     4
     ??DataTable143                     4
     ??DataTable144                     4
     ??DataTable145                     4
     ??DataTable146                     4
     ??DataTable147                     4
     ??DataTable150                     4
     ??DataTable153                     4
     ??DataTable155                     4
     ??DataTable156                     4
     ??DataTable157                     4
     ??DataTable160                     4
     ??DataTable161                     4
      Others                          340

 
 10 756 bytes in segment CODE
 16 140 bytes in segment DATA_C
      4 bytes in segment DIFUNCT
 
 10 256 bytes of CODE  memory (+ 504 bytes shared)
 16 140 bytes of CONST memory

Errors: none
Warnings: none
