##############################################################################
#                                                                            #
# IAR ARM ANSI C/C++ Compiler V4.42A/W32               14/Sep/2022  15:13:38 #
# Copyright 1999-2005 IAR Systems. All rights reserved.                      #
#                                                                            #
#    Cpu mode        =  interwork                                            #
#    Endian          =  little                                               #
#    Stack alignment =  4                                                    #
#    Source file     =  D:\S2Prog\Shared\Src\CtrlHorn.cpp                    #
#    Command line    =  D:\S2Prog\Shared\Src\CtrlHorn.cpp --fpu None -D      #
#                       OS_LIBMODE_SP -D CPU_S3C2410 -D OS_RAMVECT=0 -D      #
#                       OS_UART=-1 -D S2TXU -D USE_LZO=1 -D __ARM_LIBRARY__  #
#                       -D WATCHDOG=1 -D NETWORK=1 -lCN                      #
#                       D:\S2Prog\TXU\Debug\List\ -o                         #
#                       D:\S2Prog\TXU\Debug\Obj\ -z9 --debug --cpu_mode arm  #
#                       --endian little --cpu ARM920T --stack_align 4        #
#                       --interwork -e --enable_multibytes --eec++           #
#                       --dlib_config "C:\Program Files (x86)\IAR            #
#                       Systems\Embedded Workbench                           #
#                       4.0\arm\LIB\dl4tpainl8n.h" -I                        #
#                       D:\S2Prog\TXU\GUI\CORE\ -I D:\S2Prog\TXU\GUI\WM\ -I  #
#                       D:\S2Prog\TXU\GUI\WIDGET\ -I D:\S2Prog\TXU\CONFIG\   #
#                       -I D:\S2Prog\TXU\INC\ -I D:\S2Prog\TXU\..\SHARED\INC #
#                       \ -I D:\S2Prog\TXU\..\SHARED\SRC\ -I                 #
#                       D:\S2Prog\TXU\..\SHARED\LZO\minilzo.210\ -I          #
#                       D:\S2Prog\TXU\lwip-1.4.1\src\include\ -I             #
#                       D:\S2Prog\TXU\lwip-1.4.1\src\include\ipv4\ -I        #
#                       D:\S2Prog\TXU\lwip-1.4.1\src\ -I                     #
#                       D:\S2Prog\TXU\..\SHARED\Database\ -I                 #
#                       D:\S2Prog\TXU\src\ -I "C:\Program Files (x86)\IAR    #
#                       Systems\Embedded Workbench 4.0\arm\INC\"             #
#                       --inline_threshold=2                                 #
#    List file       =  D:\S2Prog\TXU\Debug\List\CtrlHorn.lst                #
#    Object file     =  D:\S2Prog\TXU\Debug\Obj\CtrlHorn.r79                 #
#                                                                            #
#                                                                            #
##############################################################################

D:\S2Prog\Shared\Src\CtrlHorn.cpp
      1          #include "TSNIncludes.h"

   \                                 In segment CODE, align 4, keep-with-next
   \   __??Code32?? __code __interwork __atpcs void operator+(string const &, string const &)
   \                     `??operator+`:
   \   00000000   F0402DE9           PUSH     {R4-R7,LR}
   \   00000004   1CD04DE2           SUB      SP,SP,#+28
   \   00000008   0040A0E1           MOV      R4,R0
   \   0000000C   0150A0E1           MOV      R5,R1
   \   00000010   0260A0E1           MOV      R6,R2
   \   00000014   0020A0E3           MOV      R2,#+0
   \   00000018   0010A0E3           MOV      R1,#+0
   \   0000001C   0D00A0E1           MOV      R0,SP
   \   00000020   ........           _BLF     ??_Tidy,??_Tidy??rA
   \   00000024   6C009FE5           LDR      R0,`??operator+_1`  ;; ??npos
   \   00000028   0020A0E3           MOV      R2,#+0
   \   0000002C   007090E5           LDR      R7,[R0, #+0]
   \   00000030   0510A0E1           MOV      R1,R5
   \   00000034   0730A0E1           MOV      R3,R7
   \   00000038   0D00A0E1           MOV      R0,SP
   \   0000003C   ........           _BLF     ??assign,??assign??rA
   \   00000040   0730A0E1           MOV      R3,R7
   \   00000044   0020A0E3           MOV      R2,#+0
   \   00000048   0610A0E1           MOV      R1,R6
   \   0000004C   0D00A0E1           MOV      R0,SP
   \   00000050   ........           _BLF     ??append,??append??rA
   \   00000054   0050A0E1           MOV      R5,R0
   \   00000058   0020A0E3           MOV      R2,#+0
   \   0000005C   0210A0E1           MOV      R1,R2
   \   00000060   0400A0E1           MOV      R0,R4
   \   00000064   ........           _BLF     ??_Tidy,??_Tidy??rA
   \   00000068   0730A0E1           MOV      R3,R7
   \   0000006C   0020A0E3           MOV      R2,#+0
   \   00000070   0510A0E1           MOV      R1,R5
   \   00000074   0400A0E1           MOV      R0,R4
   \   00000078   ........           _BLF     ??assign,??assign??rA
   \   0000007C   0020A0E3           MOV      R2,#+0
   \   00000080   0110A0E3           MOV      R1,#+1
   \   00000084   0D00A0E1           MOV      R0,SP
   \   00000088   ........           _BLF     ??_Tidy,??_Tidy??rA
   \   0000008C   1CD08DE2           ADD      SP,SP,#+28
   \   00000090   F040BDE8           POP      {R4-R7,LR}
   \   00000094   1EFF2FE1           BX       LR               ;; return
   \                     `??operator+_1`:
   \   00000098   ........           DC32     ??npos
      2          #pragma hdrstop
      3          #ifdef BORLAND
      4          	#pragma package(smart_init)
      5          #endif
      6          
      7          //---------------------------------------------------------------------------
      8          

   \                                 In segment CODE, align 4, keep-with-next
      9          CtrlHorn::CtrlHorn(void):PROControl(RELAY_HORN)
   \                     ??CtrlHorn:
   \   00000000   10402DE9           PUSH     {R4,LR}
   \   00000004   0040A0E1           MOV      R4,R0
     10          {
   \   00000008   0310A0E3           MOV      R1,#+3
   \   0000000C   ........           _BLF     ??PROControl,??PROControl??rA
   \   00000010   0C009FE5           LDR      R0,??CtrlHorn_1  ;; ??__vtbl
   \   00000014   A40084E5           STR      R0,[R4, #+164]
     11          }
   \   00000018   0400A0E1           MOV      R0,R4
   \   0000001C   1040BDE8           POP      {R4,LR}
   \   00000020   1EFF2FE1           BX       LR               ;; return
   \                     ??CtrlHorn_1:
   \   00000024   ........           DC32     ??__vtbl
     12          

   \                                 In segment CODE, align 4, keep-with-next
     13          CtrlHorn::~CtrlHorn(void)
     14          {
   \                     `?~CtrlHorn`:
   \   00000000   30402DE9           PUSH     {R4,R5,LR}
   \   00000004   0040A0E1           MOV      R4,R0
   \   00000008   0150A0E1           MOV      R5,R1
   \   0000000C   000054E3           CMP      R4,#+0
   \   00000010   0500000A           BEQ      `?~CtrlHorn_1`
     15          }
   \   00000014   0010A0E3           MOV      R1,#+0
   \   00000018   ........           _BLF     `?~PROControl`,`?~PROControl??rA`
   \   0000001C   010015E3           TST      R5,#0x1
   \   00000020   0100000A           BEQ      `?~CtrlHorn_1`
   \   00000024   0400A0E1           MOV      R0,R4
   \   00000028   ........           _BLF     `??operator delete`,`??operator delete??rA`
   \                     `?~CtrlHorn_1`:
   \   0000002C   3040BDE8           POP      {R4,R5,LR}
   \   00000030   1EFF2FE1           BX       LR               ;; return
     16          //---------------------------------------------------------------------------
     17          
     18          ///////////////////////////////////////////////////////////////
     19          //
     20          // Routines for the Configuration
     21          //
     22          ///////////////////////////////////////////////////////////////

   \                                 In segment CODE, align 4, keep-with-next
     23          AnsiString CtrlHorn::MakeConfigString(int ExtraTabs)
     24          {
   \                     ??MakeConfigString:
   \   00000000   F0432DE9           PUSH     {R4-R9,LR}
     25          	AnsiString LocalString;
     26          	LocalString +=TabStr1+KeyWord(C_PRO_CTRL_HORN)+CrLfStr;
   \   00000004   5C719FE5           LDR      R7,??MakeConfigString_2  ;; TabStr1
   \   00000008   5C819FE5           LDR      R8,??MakeConfigString_2+0x4  ;; CrLfStr
   \   0000000C   C4D04DE2           SUB      SP,SP,#+196
   \   00000010   0040A0E1           MOV      R4,R0
   \   00000014   0150A0E1           MOV      R5,R1
   \   00000018   0260A0E1           MOV      R6,R2
   \   0000001C   0500A0E1           MOV      R0,R5
   \   00000020   ........           _BLF     ??AnsiString,??AnsiString??rA
   \   00000024   9610A0E3           MOV      R1,#+150
   \   00000028   401E81E3           ORR      R1,R1,#0x400
   \   0000002C   38008DE2           ADD      R0,SP,#+56
   \   00000030   ........           _BLF     ??KeyWord,??KeyWord??rA
   \   00000034   38208DE2           ADD      R2,SP,#+56
   \   00000038   0710A0E1           MOV      R1,R7
   \   0000003C   1C008DE2           ADD      R0,SP,#+28
   \   00000040   ........           _BLF     `??operator+`,`??operator+??rA`
   \   00000044   0820A0E1           MOV      R2,R8
   \   00000048   1C108DE2           ADD      R1,SP,#+28
   \   0000004C   0D00A0E1           MOV      R0,SP
   \   00000050   ........           _BLF     `??operator+`,`??operator+??rA`
   \   00000054   ........           LDR      R0,??DataTable1  ;; ??npos
   \   00000058   0020A0E3           MOV      R2,#+0
   \   0000005C   009090E5           LDR      R9,[R0, #+0]
   \   00000060   0D10A0E1           MOV      R1,SP
   \   00000064   0930A0E1           MOV      R3,R9
   \   00000068   0500A0E1           MOV      R0,R5
   \   0000006C   ........           _BLF     ??append,??append??rA
   \   00000070   0020A0E3           MOV      R2,#+0
   \   00000074   0110A0E3           MOV      R1,#+1
   \   00000078   0D00A0E1           MOV      R0,SP
   \   0000007C   ........           _BLF     ??_Tidy,??_Tidy??rA
   \   00000080   0020A0E3           MOV      R2,#+0
   \   00000084   0110A0E3           MOV      R1,#+1
   \   00000088   1C008DE2           ADD      R0,SP,#+28
   \   0000008C   ........           _BLF     ??_Tidy,??_Tidy??rA
   \   00000090   0020A0E3           MOV      R2,#+0
   \   00000094   0110A0E3           MOV      R1,#+1
   \   00000098   38008DE2           ADD      R0,SP,#+56
   \   0000009C   ........           _BLF     ??_Tidy,??_Tidy??rA
     27          	LocalString += PROControl::MakeConfigString(ExtraTabs);	 //common
   \   000000A0   0620A0E1           MOV      R2,R6
   \   000000A4   54108DE2           ADD      R1,SP,#+84
   \   000000A8   0400A0E1           MOV      R0,R4
   \   000000AC   ........           _BLF     ??MakeConfigString_1,??MakeConfigString??rA
   \   000000B0   0930A0E1           MOV      R3,R9
   \   000000B4   0020A0E3           MOV      R2,#+0
   \   000000B8   54108DE2           ADD      R1,SP,#+84
   \   000000BC   0500A0E1           MOV      R0,R5
   \   000000C0   ........           _BLF     ??append,??append??rA
   \   000000C4   0020A0E3           MOV      R2,#+0
   \   000000C8   0110A0E3           MOV      R1,#+1
   \   000000CC   54008DE2           ADD      R0,SP,#+84
   \   000000D0   ........           _BLF     ??_Tidy,??_Tidy??rA
     28          
     29          	LocalString +=TabStr1+KeyWord(C_CTRL_END)+CrLfStr;
   \   000000D4   6C10A0E3           MOV      R1,#+108
   \   000000D8   701E81E3           ORR      R1,R1,#0x700
   \   000000DC   A8008DE2           ADD      R0,SP,#+168
   \   000000E0   ........           _BLF     ??KeyWord,??KeyWord??rA
   \   000000E4   A8208DE2           ADD      R2,SP,#+168
   \   000000E8   0710A0E1           MOV      R1,R7
   \   000000EC   8C008DE2           ADD      R0,SP,#+140
   \   000000F0   ........           _BLF     `??operator+`,`??operator+??rA`
   \   000000F4   0820A0E1           MOV      R2,R8
   \   000000F8   8C108DE2           ADD      R1,SP,#+140
   \   000000FC   70008DE2           ADD      R0,SP,#+112
   \   00000100   ........           _BLF     `??operator+`,`??operator+??rA`
   \   00000104   0930A0E1           MOV      R3,R9
   \   00000108   0020A0E3           MOV      R2,#+0
   \   0000010C   70108DE2           ADD      R1,SP,#+112
   \   00000110   0500A0E1           MOV      R0,R5
   \   00000114   ........           _BLF     ??append,??append??rA
   \   00000118   0020A0E3           MOV      R2,#+0
   \   0000011C   0110A0E3           MOV      R1,#+1
   \   00000120   70008DE2           ADD      R0,SP,#+112
   \   00000124   ........           _BLF     ??_Tidy,??_Tidy??rA
   \   00000128   0020A0E3           MOV      R2,#+0
   \   0000012C   0110A0E3           MOV      R1,#+1
   \   00000130   8C008DE2           ADD      R0,SP,#+140
   \   00000134   ........           _BLF     ??_Tidy,??_Tidy??rA
   \   00000138   0020A0E3           MOV      R2,#+0
   \   0000013C   0110A0E3           MOV      R1,#+1
   \   00000140   A8008DE2           ADD      R0,SP,#+168
   \   00000144   ........           _BLF     ??_Tidy,??_Tidy??rA
     30          	LocalString += CrLfStr;
   \   00000148   0930A0E1           MOV      R3,R9
   \   0000014C   0020A0E3           MOV      R2,#+0
   \   00000150   0810A0E1           MOV      R1,R8
   \   00000154   0500A0E1           MOV      R0,R5
   \   00000158   ........           _BLF     ??append,??append??rA
     31          
     32          	return (LocalString);
   \   0000015C   C4D08DE2           ADD      SP,SP,#+196
   \   00000160   F043BDE8           POP      {R4-R9,LR}
   \   00000164   1EFF2FE1           BX       LR               ;; return
   \                     ??MakeConfigString_2:
   \   00000168   ........           DC32     TabStr1
   \   0000016C   ........           DC32     CrLfStr
     33          }
     34          //---------------------------------------------------------------------------
     35          

   \                                 In segment CODE, align 4, keep-with-next
     36          bool CtrlHorn::LoadConfigString(TSNConfigString &ConfigString)
     37          {
   \                     ??LoadConfigString:
   \   00000000   F0472DE9           PUSH     {R4-R10,LR}
     38          	bool NoError = true;
     39          	int ErrorLine=0;
   \   00000004   74919FE5           LDR      R9,??LoadConfigString_2  ;; `?<Constant "Horn">`
   \   00000008   74D04DE2           SUB      SP,SP,#+116
   \   0000000C   0040A0E1           MOV      R4,R0
   \   00000010   0150A0E1           MOV      R5,R1
   \   00000014   0170A0E3           MOV      R7,#+1
   \   00000018   0010A0E3           MOV      R1,#+0
   \   0000001C   00108DE5           STR      R1,[SP, #+0]
   \   00000020   0180E0E1           MVN      R8,R1
     40          	int Key;
     41          	do {
     42          		AnsiString InputKeyWord= ConfigString.NextWord(ErrorLine);
   \                     ??LoadConfigString_3:
   \   00000024   0030A0E3           MOV      R3,#+0
   \   00000028   0D20A0E1           MOV      R2,SP
   \   0000002C   20108DE2           ADD      R1,SP,#+32
   \   00000030   0500A0E1           MOV      R0,R5
   \   00000034   ........           _BLF     ??NextWord,??NextWord??rA
     43          		if ( ErrorLine ) {
   \   00000038   00009DE5           LDR      R0,[SP, #+0]
   \   0000003C   000050E3           CMP      R0,#+0
   \   00000040   0B00000A           BEQ      ??LoadConfigString_4
     44          			if ( ErrorLine != EOF ) {
   \   00000044   080050E1           CMP      R0,R8
   \   00000048   3D00000A           BEQ      ??LoadConfigString_5
     45          				GiveConfigWarning("Horn",ErrorLine);
   \   0000004C   0910A0E1           MOV      R1,R9
   \   00000050   04008DE2           ADD      R0,SP,#+4
   \   00000054   ........           _BLF     ??AnsiString_1,??AnsiString??rA_1
   \   00000058   00109DE5           LDR      R1,[SP, #+0]
   \   0000005C   ........           _BLF     ??GiveConfigWarning,??GiveConfigWarning??rA
   \   00000060   0020A0E3           MOV      R2,#+0
   \   00000064   0110A0E3           MOV      R1,#+1
   \   00000068   04008DE2           ADD      R0,SP,#+4
   \                     ??LoadConfigString_6:
   \   0000006C   ........           _BLF     ??_Tidy,??_Tidy??rA
   \   00000070   330000EA           B        ??LoadConfigString_5
     46          			}
     47          		} else {
     48          			Key = FindConfigKey(InputKeyWord);
   \                     ??LoadConfigString_4:
   \   00000074   0020A0E3           MOV      R2,#+0
   \   00000078   0010A0E3           MOV      R1,#+0
   \   0000007C   04008DE2           ADD      R0,SP,#+4
   \   00000080   ........           _BLF     ??_Tidy,??_Tidy??rA
   \   00000084   ........           LDR      R0,??DataTable1  ;; ??npos
   \   00000088   0020A0E3           MOV      R2,#+0
   \   0000008C   00A090E5           LDR      R10,[R0, #+0]
   \   00000090   20108DE2           ADD      R1,SP,#+32
   \   00000094   0A30A0E1           MOV      R3,R10
   \   00000098   04008DE2           ADD      R0,SP,#+4
   \   0000009C   ........           _BLF     ??assign,??assign??rA
   \   000000A0   04008DE2           ADD      R0,SP,#+4
   \   000000A4   ........           _BLF     ??FindConfigKey,??FindConfigKey??rA
   \   000000A8   0060A0E1           MOV      R6,R0
   \   000000AC   0020A0E3           MOV      R2,#+0
   \   000000B0   0110A0E3           MOV      R1,#+1
   \   000000B4   04008DE2           ADD      R0,SP,#+4
   \   000000B8   ........           _BLF     ??_Tidy,??_Tidy??rA
     49          			switch ( Key ) {
   \   000000BC   FA0F56E2           SUBS     R0,R6,#+1000
   \   000000C0   E10F5012           SUBSNE   R0,R0,#+900
   \   000000C4   1E00000A           BEQ      ??LoadConfigString_5
   \   000000C8   010050E2           SUBS     R0,R0,#+1
   \   000000CC   1800000A           BEQ      ??LoadConfigString_7
   \   000000D0   010050E2           SUBS     R0,R0,#+1
   \   000000D4   1A00000A           BEQ      ??LoadConfigString_5
     50          				default:
     51          					GiveConfigWarning("Horn",InputKeyWord,ConfigString.LineCount);
   \   000000D8   0020A0E3           MOV      R2,#+0
   \   000000DC   0010A0E3           MOV      R1,#+0
   \   000000E0   3C008DE2           ADD      R0,SP,#+60
   \   000000E4   ........           _BLF     ??_Tidy,??_Tidy??rA
   \   000000E8   0A30A0E1           MOV      R3,R10
   \   000000EC   0020A0E3           MOV      R2,#+0
   \   000000F0   20108DE2           ADD      R1,SP,#+32
   \   000000F4   3C008DE2           ADD      R0,SP,#+60
   \   000000F8   ........           _BLF     ??assign,??assign??rA
   \   000000FC   0910A0E1           MOV      R1,R9
   \   00000100   58008DE2           ADD      R0,SP,#+88
   \   00000104   ........           _BLF     ??AnsiString_1,??AnsiString??rA_1
   \   00000108   1C2095E5           LDR      R2,[R5, #+28]
   \   0000010C   3C108DE2           ADD      R1,SP,#+60
   \   00000110   ........           _BLF     ??GiveConfigWarning_1,??GiveConfigWarning??rA_1
   \   00000114   0020A0E3           MOV      R2,#+0
   \   00000118   0110A0E3           MOV      R1,#+1
   \   0000011C   3C008DE2           ADD      R0,SP,#+60
   \   00000120   ........           _BLF     ??_Tidy,??_Tidy??rA
   \   00000124   0020A0E3           MOV      R2,#+0
   \   00000128   0110A0E3           MOV      R1,#+1
   \   0000012C   58008DE2           ADD      R0,SP,#+88
   \   00000130   CDFFFFEA           B        ??LoadConfigString_6
     52          					break;
     53          				case C_PRO_END:
     54          				case C_CTRL_END:
     55          				case C_CTRL_END_COMMON:
     56          					break;
     57          				case C_CTRL_START_COMMON:
     58          					NoError = PROControl::LoadConfigString(ConfigString);
   \                     ??LoadConfigString_7:
   \   00000134   0510A0E1           MOV      R1,R5
   \   00000138   0400A0E1           MOV      R0,R4
   \   0000013C   ........           _BLF     ??LoadConfigString_1,??LoadConfigString??rA
   \   00000140   0070A0E1           MOV      R7,R0
     59          					break;
     60          			}
     61          		}
     62          	}while ( NoError && ( ErrorLine != EOF )&& ( Key != C_CTRL_END ) );
   \                     ??LoadConfigString_5:
   \   00000144   0020A0E3           MOV      R2,#+0
   \   00000148   0110A0E3           MOV      R1,#+1
   \   0000014C   20008DE2           ADD      R0,SP,#+32
   \   00000150   ........           _BLF     ??_Tidy,??_Tidy??rA
   \   00000154   000057E3           CMP      R7,#+0
   \   00000158   00009D15           LDRNE    R0,[SP, #+0]
   \   0000015C   08005011           CMPNE    R0,R8
   \   00000160   6C00A013           MOVNE    R0,#+108
   \   00000164   700E8013           ORRNE    R0,R0,#0x700
   \   00000168   00005611           CMPNE    R6,R0
   \   0000016C   ACFFFF1A           BNE      ??LoadConfigString_3
     63          	return (NoError);
   \   00000170   0700A0E1           MOV      R0,R7
   \   00000174   74D08DE2           ADD      SP,SP,#+116
   \   00000178   F047BDE8           POP      {R4-R10,LR}
   \   0000017C   1EFF2FE1           BX       LR               ;; return
   \                     ??LoadConfigString_2:
   \   00000180   ........           DC32     `?<Constant "Horn">`
     64          }
     65          //--------------------------------------------------------------------------- '
     66          

   \                                 In segment CODE, align 4, keep-with-next
     67          void CtrlHorn::Update(char Mode)
     68          {
   \                     ??Update:
   \   00000000   71402DE9           PUSH     {R0,R4-R6,LR}
   \   00000004   0040A0E1           MOV      R4,R0
   \   00000008   0160A0E1           MOV      R6,R1
     69          #ifdef S2TXU
     70          	OS_Use(&CtrlSema);
   \   0000000C   4B5FA0E3           MOV      R5,#+300
   \   00000010   040085E0           ADD      R0,R5,R4
   \   00000014   ........           _BLF     OS_Use,??OS_Use??rA
     71          	switch ( Mode ) {
   \   00000018   020056E3           CMP      R6,#+2
   \   0000001C   5100008A           BHI      ??Update_2
   \   00000020   010F8FE2           ADR      R0,??Update_1
   \   00000024   0600D0E7           LDRB     R0,[R0, R6]
   \   00000028   00F18FE0           ADD      PC,PC,R0, LSL #+2
   \                     ??Update_1:
   \   0000002C   11000B00           DC8      +17,+0,+11,+0
     72          		case BUZZER_TEST_ON:
     73          			Activate(R_ACTIVATE0,RELAY_MSG_ON,0,0);
   \                     ??Update_3:
   \   00000030   0000A0E3           MOV      R0,#+0
   \   00000034   01002DE9           PUSH     {R0}
   \   00000038   A46094E5           LDR      R6,[R4, #+164]
   \   0000003C   0030A0E3           MOV      R3,#+0
   \   00000040   606096E5           LDR      R6,[R6, #+96]
   \                     ??Update_4:
   \   00000044   0120A0E3           MOV      R2,#+1
   \   00000048   0210A0E1           MOV      R1,R2
   \   0000004C   0400A0E1           MOV      R0,R4
   \   00000050   0FE0A0E1           MOV      LR,PC
   \   00000054   16FF2FE1           BX       R6
   \   00000058   410000EA           B        ??Update_5
     74          			break;
     75          		case BUZZER_TEST_OFF:
     76          			DeActivate();
   \                     ??Update_6:
   \   0000005C   A41094E5           LDR      R1,[R4, #+164]
   \   00000060   0400A0E1           MOV      R0,R4
   \   00000064   641091E5           LDR      R1,[R1, #+100]
   \                     ??Update_7:
   \   00000068   0FE0A0E1           MOV      LR,PC
   \   0000006C   11FF2FE1           BX       R1
   \   00000070   3C0000EA           B        ??Update_2
     77          			break;
     78          		case BUZZER_NO_TEST:
     79          			{
     80          				bool IsChange = false;
   \                     ??Update_8:
   \   00000074   0010A0E3           MOV      R1,#+0
   \   00000078   0010CDE5           STRB     R1,[SP, #+0]
     81          				bool IsActive = GetOutputVal(IsChange);
     82          				if ( IsActive ) {
   \   0000007C   4A6FA0E3           MOV      R6,#+296
   \   00000080   0D10A0E1           MOV      R1,SP
   \   00000084   0400A0E1           MOV      R0,R4
   \   00000088   ........           _BLF     ??GetOutputVal,??GetOutputVal??rA
   \   0000008C   A4C094E5           LDR      R12,[R4, #+164]
   \   00000090   000050E3           CMP      R0,#+0
   \   00000094   040096E7           LDR      R0,[R6, +R4]
   \   00000098   1A00000A           BEQ      ??Update_9
     83          					if ( !(Priority & R_ACTIVATE0) ) {
   \   0000009C   010010E3           TST      R0,#0x1
   \   000000A0   0400001A           BNE      ??Update_10
     84          						Activate(R_ACTIVATE0,RELAY_MSG_ON,0,0);
   \   000000A4   0000A0E3           MOV      R0,#+0
   \   000000A8   01002DE9           PUSH     {R0}
   \   000000AC   60609CE5           LDR      R6,[R12, #+96]
   \   000000B0   0030A0E3           MOV      R3,#+0
   \   000000B4   E2FFFFEA           B        ??Update_4
     85          					} else {
     86          						if ( IsChange ) {
   \                     ??Update_10:
   \   000000B8   0000DDE5           LDRB     R0,[SP, #+0]
   \   000000BC   000050E3           CMP      R0,#+0
   \   000000C0   2800000A           BEQ      ??Update_2
     87          							DeActivate();
   \   000000C4   64109CE5           LDR      R1,[R12, #+100]
   \   000000C8   0400A0E1           MOV      R0,R4
   \   000000CC   0FE0A0E1           MOV      LR,PC
   \   000000D0   11FF2FE1           BX       R1
     88          							OS_Delay(1000);
   \   000000D4   FA0FA0E3           MOV      R0,#+1000
   \   000000D8   ........           _BLF     OS_Delay,??OS_Delay??rA
     89          							Activate(R_ACTIVATE0,RELAY_MSG_ON,0,0);
   \   000000DC   0000A0E3           MOV      R0,#+0
   \   000000E0   01002DE9           PUSH     {R0}
   \   000000E4   A46094E5           LDR      R6,[R4, #+164]
   \   000000E8   0030A0E3           MOV      R3,#+0
   \   000000EC   606096E5           LDR      R6,[R6, #+96]
   \   000000F0   0120A0E3           MOV      R2,#+1
   \   000000F4   0210A0E1           MOV      R1,R2
   \   000000F8   0400A0E1           MOV      R0,R4
   \   000000FC   0FE0A0E1           MOV      LR,PC
   \   00000100   16FF2FE1           BX       R6
   \   00000104   160000EA           B        ??Update_5
     90          						}
     91          					}
     92          				} else if ( !(Priority & R_INACTIVE) ) {
   \                     ??Update_9:
   \   00000108   100010E3           TST      R0,#0x10
     93          					DeActivate();
   \   0000010C   64109C05           LDREQ    R1,[R12, #+100]
   \   00000110   0400A001           MOVEQ    R0,R4
   \   00000114   D3FFFF0A           BEQ      ??Update_7
     94          				}else{
     95          					if ( IsChange ) {
   \   00000118   0000DDE5           LDRB     R0,[SP, #+0]
   \   0000011C   000050E3           CMP      R0,#+0
   \   00000120   1000000A           BEQ      ??Update_2
     96          						Activate(R_ACTIVATE0,RELAY_MSG_ON,0,0);
   \   00000124   0000A0E3           MOV      R0,#+0
   \   00000128   01002DE9           PUSH     {R0}
   \   0000012C   60609CE5           LDR      R6,[R12, #+96]
   \   00000130   0030A0E3           MOV      R3,#+0
   \   00000134   0120A0E3           MOV      R2,#+1
   \   00000138   0210A0E1           MOV      R1,R2
   \   0000013C   0400A0E1           MOV      R0,R4
   \   00000140   0FE0A0E1           MOV      LR,PC
   \   00000144   16FF2FE1           BX       R6
     97          						OS_Delay(1000);
   \   00000148   FA0FA0E3           MOV      R0,#+1000
   \   0000014C   ........           _BLF     OS_Delay,??OS_Delay??rA
     98          						DeActivate();
   \   00000150   A41094E5           LDR      R1,[R4, #+164]
   \   00000154   0400A0E1           MOV      R0,R4
   \   00000158   641091E5           LDR      R1,[R1, #+100]
   \   0000015C   0FE0A0E1           MOV      LR,PC
   \   00000160   11FF2FE1           BX       R1
   \                     ??Update_5:
   \   00000164   04D08DE2           ADD      SP,SP,#+4        ;; stack cleaning
     99          					}
    100          				}
    101          			}
    102          			break;
    103          	}
    104          	OS_Unuse(&CtrlSema);
   \                     ??Update_2:
   \   00000168   040085E0           ADD      R0,R5,R4
   \   0000016C   ........           _BLF     OS_Unuse,??OS_Unuse??rA
    105          #endif
    106          }
   \   00000170   7140BDE8           POP      {R0,R4-R6,LR}
   \   00000174   1EFF2FE1           BX       LR               ;; return

   \                                 In segment DIFUNCT, align 4, keep-with-next, root
   \   00000000                      REQUIRE ?call_ctors
   \   00000000   ........           DC32    ??__sti__routine

   \                                 In segment DATA_C, align 4, align-sorted
   \                     `?<Constant "Horn">`:
   \   00000000   486F726E00         DC8 "Horn"
   \   00000005   000000             DC8 0, 0, 0

   \                                 In segment CODE, align 4, keep-with-next
   \   __??Code32?? __code __interwork __atpcs CtrlHorn &CtrlHorn::new CtrlHorn()
   \                     `??new CtrlHorn`:
   \   00000000   00402DE9           PUSH     {LR}
   \   00000004   4F0FA0E3           MOV      R0,#+316
   \   00000008   ........           _BLF     `??operator new`,`??operator new??rA`
   \   0000000C   000050E3           CMP      R0,#+0
   \   00000010   0000000A           BEQ      `??new CtrlHorn_1`
   \   00000014   ........           BL       ??CtrlHorn
   \                     `??new CtrlHorn_1`:
   \   00000018   0040BDE8           POP      {LR}
   \   0000001C   1EFF2FE1           BX       LR               ;; return

   \                                 In segment CODE, align 4, keep-with-next
   \   static __??Code32?? __intrinsic __code __interwork __atpcs void __sti__routine()
   \                     ??__sti__routine:
   \   00000000   1EFF2FE1           BX       LR               ;; return

   \                                 In segment CODE, align 4, keep-with-next
   \                     ??DataTable1:
   \   00000000   ........           DC32     ??npos
    107          //---------------------------------------------------------------------------
    108          
    109          

   Maximum stack usage in bytes:

     Function                       CSTACK
     --------                       ------
     CtrlHorn::CtrlHorn()               8
     CtrlHorn::LoadConfigString(TSNConfigString &)
                                      148
     CtrlHorn::MakeConfigString(int)
                                      224
     CtrlHorn::Update(char)            24
     CtrlHorn::new CtrlHorn()           4
     CtrlHorn::~CtrlHorn()             12
     __sti__routine()                   0
     operator+(string const &, string const &)
                                       48


   Segment part sizes:

     Function/Label                 Bytes
     --------------                 -----
     operator+(string const &, string const &)
                                     156
     CtrlHorn::CtrlHorn()             40
     CtrlHorn::~CtrlHorn()            52
     CtrlHorn::MakeConfigString(int)
                                     368
     CtrlHorn::LoadConfigString(TSNConfigString &)
                                     388
     CtrlHorn::Update(char)          376
     ?<Constant "Horn">                8
     CtrlHorn::new CtrlHorn()         32
     __sti__routine()                  4
     ??DataTable1                      4
      Others                         388

 
 1 700 bytes in segment CODE
   112 bytes in segment DATA_C
     4 bytes in segment DIFUNCT
 
 1 268 bytes of CODE  memory (+ 436 bytes shared)
   112 bytes of CONST memory

Errors: none
Warnings: none
