##############################################################################
#                                                                            #
# IAR ARM ANSI C/C++ Compiler V4.42A/W32               14/Sep/2022  15:14:34 #
# Copyright 1999-2005 IAR Systems. All rights reserved.                      #
#                                                                            #
#    Cpu mode        =  interwork                                            #
#    Endian          =  little                                               #
#    Stack alignment =  4                                                    #
#    Source file     =  D:\S2Prog\Shared\Src\ModbusWago485RegisterIn.cpp     #
#    Command line    =  D:\S2Prog\Shared\Src\ModbusWago485RegisterIn.cpp     #
#                       --fpu None -D OS_LIBMODE_SP -D CPU_S3C2410 -D        #
#                       OS_RAMVECT=0 -D OS_UART=-1 -D S2TXU -D USE_LZO=1 -D  #
#                       __ARM_LIBRARY__ -D WATCHDOG=1 -D NETWORK=1 -lCN      #
#                       D:\S2Prog\TXU\Debug\List\ -o                         #
#                       D:\S2Prog\TXU\Debug\Obj\ -z9 --debug --cpu_mode arm  #
#                       --endian little --cpu ARM920T --stack_align 4        #
#                       --interwork -e --enable_multibytes --eec++           #
#                       --dlib_config "C:\Program Files (x86)\IAR            #
#                       Systems\Embedded Workbench                           #
#                       4.0\arm\LIB\dl4tpainl8n.h" -I                        #
#                       D:\S2Prog\TXU\GUI\CORE\ -I D:\S2Prog\TXU\GUI\WM\ -I  #
#                       D:\S2Prog\TXU\GUI\WIDGET\ -I D:\S2Prog\TXU\CONFIG\   #
#                       -I D:\S2Prog\TXU\INC\ -I D:\S2Prog\TXU\..\SHARED\INC #
#                       \ -I D:\S2Prog\TXU\..\SHARED\SRC\ -I                 #
#                       D:\S2Prog\TXU\..\SHARED\LZO\minilzo.210\ -I          #
#                       D:\S2Prog\TXU\lwip-1.4.1\src\include\ -I             #
#                       D:\S2Prog\TXU\lwip-1.4.1\src\include\ipv4\ -I        #
#                       D:\S2Prog\TXU\lwip-1.4.1\src\ -I                     #
#                       D:\S2Prog\TXU\..\SHARED\Database\ -I                 #
#                       D:\S2Prog\TXU\src\ -I "C:\Program Files (x86)\IAR    #
#                       Systems\Embedded Workbench 4.0\arm\INC\"             #
#                       --inline_threshold=2                                 #
#    List file       =  D:\S2Prog\TXU\Debug\List\ModbusWago485RegisterIn.lst #
#    Object file     =  D:\S2Prog\TXU\Debug\Obj\ModbusWago485RegisterIn.r79  #
#                                                                            #
#                                                                            #
##############################################################################

D:\S2Prog\Shared\Src\ModbusWago485RegisterIn.cpp
      1          #include "TSNIncludes.h"

   \                                 In segment CODE, align 4, keep-with-next
   \   __??Code32?? __code __interwork __atpcs void operator+(string const &, string const &)
   \                     `??operator+`:
   \   00000000   F0402DE9           PUSH     {R4-R7,LR}
   \   00000004   1CD04DE2           SUB      SP,SP,#+28
   \   00000008   0040A0E1           MOV      R4,R0
   \   0000000C   0150A0E1           MOV      R5,R1
   \   00000010   0260A0E1           MOV      R6,R2
   \   00000014   0020A0E3           MOV      R2,#+0
   \   00000018   0010A0E3           MOV      R1,#+0
   \   0000001C   0D00A0E1           MOV      R0,SP
   \   00000020   ........           _BLF     ??_Tidy,??_Tidy??rA
   \   00000024   6C009FE5           LDR      R0,`??operator+_1`  ;; ??npos
   \   00000028   0020A0E3           MOV      R2,#+0
   \   0000002C   007090E5           LDR      R7,[R0, #+0]
   \   00000030   0510A0E1           MOV      R1,R5
   \   00000034   0730A0E1           MOV      R3,R7
   \   00000038   0D00A0E1           MOV      R0,SP
   \   0000003C   ........           _BLF     ??assign,??assign??rA
   \   00000040   0730A0E1           MOV      R3,R7
   \   00000044   0020A0E3           MOV      R2,#+0
   \   00000048   0610A0E1           MOV      R1,R6
   \   0000004C   0D00A0E1           MOV      R0,SP
   \   00000050   ........           _BLF     ??append,??append??rA
   \   00000054   0050A0E1           MOV      R5,R0
   \   00000058   0020A0E3           MOV      R2,#+0
   \   0000005C   0210A0E1           MOV      R1,R2
   \   00000060   0400A0E1           MOV      R0,R4
   \   00000064   ........           _BLF     ??_Tidy,??_Tidy??rA
   \   00000068   0730A0E1           MOV      R3,R7
   \   0000006C   0020A0E3           MOV      R2,#+0
   \   00000070   0510A0E1           MOV      R1,R5
   \   00000074   0400A0E1           MOV      R0,R4
   \   00000078   ........           _BLF     ??assign,??assign??rA
   \   0000007C   0020A0E3           MOV      R2,#+0
   \   00000080   0110A0E3           MOV      R1,#+1
   \   00000084   0D00A0E1           MOV      R0,SP
   \   00000088   ........           _BLF     ??_Tidy,??_Tidy??rA
   \   0000008C   1CD08DE2           ADD      SP,SP,#+28
   \   00000090   F040BDE8           POP      {R4-R7,LR}
   \   00000094   1EFF2FE1           BX       LR               ;; return
   \                     `??operator+_1`:
   \   00000098   ........           DC32     ??npos
      2          #pragma hdrstop
      3          #ifdef BORLAND
      4              #pragma package(smart_init)
      5          #endif
      6          

   \                                 In segment CODE, align 4, keep-with-next
      7          ModbusWago485RegisterIn::ModbusWago485RegisterIn(bool pIsCreatedFromMultiple):ModbusRegisterIn(pIsCreatedFromMultiple,C_PRO_MBUS_WAGO485_RIN)
   \                     ??ModbusWago485RegisterIn:
   \   00000000   10402DE9           PUSH     {R4,LR}
   \   00000004   0040A0E1           MOV      R4,R0
      8          {
   \   00000008   0130A0E3           MOV      R3,#+1
   \   0000000C   2520A0E3           MOV      R2,#+37
   \   00000010   B02E82E3           ORR      R2,R2,#0xB00
   \   00000014   ........           _BLF     ??ModbusRegisterIn,??ModbusRegisterIn??rA
   \   00000018   ........           LDR      R0,??Subroutine7_0  ;; ??__vtbl
   \   0000001C   A40084E5           STR      R0,[R4, #+164]
      9              MinRange          =   0.0;
   \   00000020   0000A0E3           MOV      R0,#+0
   \   00000024   7C0184E5           STR      R0,[R4, #+380]
     10              MaxRange          =  20.0;
   \   00000028   4004A0E3           MOV      R0,#+1073741824
   \   0000002C   680780E3           ORR      R0,R0,#0x1A00000
   \   00000030   800184E5           STR      R0,[R4, #+384]
     11              HasSign           = false;
   \   00000034   0000A0E3           MOV      R0,#+0
   \   00000038   8401C4E5           STRB     R0,[R4, #+388]
     12              HasDecimalScaling = false;
   \   0000003C   9801C4E5           STRB     R0,[R4, #+408]
     13          }
   \   00000040   0400A0E1           MOV      R0,R4
   \   00000044                      REQUIRE ?Subroutine7
   \   00000044                      ;; // Fall through to label ?Subroutine7

   \                                 In segment CODE, align 4, keep-with-next
   \                     ?Subroutine7:
   \   00000000   1040BDE8           POP      {R4,LR}
   \   00000004   1EFF2FE1           BX       LR               ;; return
   \                     ??Subroutine7_0:
   \   00000008   ........           DC32     ??__vtbl
     14          

   \                                 In segment CODE, align 4, keep-with-next
     15          ModbusWago485RegisterIn::~ModbusWago485RegisterIn()
     16          {
   \                     `?~ModbusWago485RegisterIn`:
   \   00000000   30402DE9           PUSH     {R4,R5,LR}
   \   00000004   0040A0E1           MOV      R4,R0
   \   00000008   0150A0E1           MOV      R5,R1
   \   0000000C   000054E3           CMP      R4,#+0
   \   00000010   0500000A           BEQ      `?~ModbusWago485RegisterIn_1`
     17          }
   \   00000014   0010A0E3           MOV      R1,#+0
   \   00000018   ........           _BLF     `?~ModbusRegisterIn`,`?~ModbusRegisterIn??rA`
   \   0000001C   010015E3           TST      R5,#0x1
   \   00000020   0100000A           BEQ      `?~ModbusWago485RegisterIn_1`
   \   00000024   0400A0E1           MOV      R0,R4
   \   00000028   ........           _BLF     `??operator delete`,`??operator delete??rA`
   \                     `?~ModbusWago485RegisterIn_1`:
   \   0000002C   3040BDE8           POP      {R4,R5,LR}
   \   00000030   1EFF2FE1           BX       LR               ;; return
     18          
     19          
     20          //---------------------------------------------------------------------------
     21          ///////////////////////////////////////////////////////////////
     22          //
     23          // Routines for the Configuration
     24          //
     25          ///////////////////////////////////////////////////////////////

   \                                 In segment CODE, align 4, keep-with-next
     26          AnsiString ModbusWago485RegisterIn::MakeConfigString(int ExtraTabs)
     27          {
   \                     ??MakeConfigString:
   \   00000000   F0402DE9           PUSH     {R4-R7,LR}
   \   00000004   5BDF4DE2           SUB      SP,SP,#+364
   \   00000008   0040A0E1           MOV      R4,R0
   \   0000000C   0150A0E1           MOV      R5,R1
     28              AnsiString LocalString = ModbusObject::MakeConfigString();
     29              AnsiString ObjectIdStr;
     30              ObjectIdStr.cat_sprintf("0x%0x",RefObjectId);
     31          
     32              LocalString +=TabStr1+KeyWord(C_OBJECT_ID)+(AnsiString)ObjectIdStr;
   \   00000010   F8719FE5           LDR      R7,??MakeConfigString_2  ;; TabStr1
   \   00000014   0020A0E3           MOV      R2,#+0
   \   00000018   ........           _BLF     ??MakeConfigString_1,??MakeConfigString??rA
   \   0000001C   4D0F8DE2           ADD      R0,SP,#+308
   \   00000020   ........           _BLF     ??AnsiString,??AnsiString??rA
   \   00000024   9C3194E5           LDR      R3,[R4, #+412]
   \   00000028   E4219FE5           LDR      R2,??MakeConfigString_2+0x4  ;; `?<Constant "0x%0x">`
   \   0000002C   541F8DE2           ADD      R1,SP,#+336
   \   00000030   4D0F8DE2           ADD      R0,SP,#+308
   \   00000034   ........           _BLF     ??cat_sprintf,??cat_sprintf??rA
   \   00000038   0020A0E3           MOV      R2,#+0
   \   0000003C   0110A0E3           MOV      R1,#+1
   \   00000040   540F8DE2           ADD      R0,SP,#+336
   \   00000044   ........           _BLF     ??_Tidy,??_Tidy??rA
   \   00000048   0020A0E3           MOV      R2,#+0
   \   0000004C   0010A0E3           MOV      R1,#+0
   \   00000050   54008DE2           ADD      R0,SP,#+84
   \   00000054   ........           _BLF     ??_Tidy,??_Tidy??rA
   \   00000058   B8019FE5           LDR      R0,??MakeConfigString_2+0x8  ;; ??npos
   \   0000005C   0020A0E3           MOV      R2,#+0
   \   00000060   006090E5           LDR      R6,[R0, #+0]
   \   00000064   4D1F8DE2           ADD      R1,SP,#+308
   \   00000068   0630A0E1           MOV      R3,R6
   \   0000006C   54008DE2           ADD      R0,SP,#+84
   \   00000070   ........           _BLF     ??assign,??assign??rA
   \   00000074   D110A0E3           MOV      R1,#+209
   \   00000078   38008DE2           ADD      R0,SP,#+56
   \   0000007C   ........           _BLF     ??KeyWord,??KeyWord??rA
   \   00000080   38208DE2           ADD      R2,SP,#+56
   \   00000084   0710A0E1           MOV      R1,R7
   \   00000088   1C008DE2           ADD      R0,SP,#+28
   \   0000008C   ........           _BLF     `??operator+`,`??operator+??rA`
   \   00000090   54208DE2           ADD      R2,SP,#+84
   \   00000094   1C108DE2           ADD      R1,SP,#+28
   \   00000098   0D00A0E1           MOV      R0,SP
   \   0000009C   ........           _BLF     `??operator+`,`??operator+??rA`
   \   000000A0   0630A0E1           MOV      R3,R6
   \   000000A4   0020A0E3           MOV      R2,#+0
   \   000000A8   0D10A0E1           MOV      R1,SP
   \   000000AC   0500A0E1           MOV      R0,R5
   \   000000B0   ........           _BLF     ??append,??append??rA
   \   000000B4   0020A0E3           MOV      R2,#+0
   \   000000B8   0110A0E3           MOV      R1,#+1
   \   000000BC   0D00A0E1           MOV      R0,SP
   \   000000C0   ........           _BLF     ??_Tidy,??_Tidy??rA
   \   000000C4   0020A0E3           MOV      R2,#+0
   \   000000C8   0110A0E3           MOV      R1,#+1
   \   000000CC   54008DE2           ADD      R0,SP,#+84
   \   000000D0   ........           _BLF     ??_Tidy,??_Tidy??rA
   \   000000D4   0020A0E3           MOV      R2,#+0
   \   000000D8   0110A0E3           MOV      R1,#+1
   \   000000DC   1C008DE2           ADD      R0,SP,#+28
   \   000000E0   ........           _BLF     ??_Tidy,??_Tidy??rA
   \   000000E4   0020A0E3           MOV      R2,#+0
   \   000000E8   0110A0E3           MOV      R1,#+1
   \   000000EC   38008DE2           ADD      R0,SP,#+56
   \   000000F0   ........           _BLF     ??_Tidy,??_Tidy??rA
     33              LocalString +=TabStr1+KeyWord(C_VALUE_KEY)+ValueKeyWord(ValueKey);
   \   000000F4   A41194E5           LDR      R1,[R4, #+420]
   \   000000F8   C4008DE2           ADD      R0,SP,#+196
   \   000000FC   ........           _BLF     ??ValueKeyWord,??ValueKeyWord??rA
   \   00000100   D510A0E3           MOV      R1,#+213
   \   00000104   A8008DE2           ADD      R0,SP,#+168
   \   00000108   ........           _BLF     ??KeyWord,??KeyWord??rA
   \   0000010C   A8208DE2           ADD      R2,SP,#+168
   \   00000110   0710A0E1           MOV      R1,R7
   \   00000114   8C008DE2           ADD      R0,SP,#+140
   \   00000118   ........           _BLF     `??operator+`,`??operator+??rA`
   \   0000011C   C4208DE2           ADD      R2,SP,#+196
   \   00000120   8C108DE2           ADD      R1,SP,#+140
   \   00000124   70008DE2           ADD      R0,SP,#+112
   \   00000128   ........           _BLF     `??operator+`,`??operator+??rA`
   \   0000012C   0630A0E1           MOV      R3,R6
   \   00000130   0020A0E3           MOV      R2,#+0
   \   00000134   70108DE2           ADD      R1,SP,#+112
   \   00000138   0500A0E1           MOV      R0,R5
   \   0000013C   ........           _BLF     ??append,??append??rA
   \   00000140   0020A0E3           MOV      R2,#+0
   \   00000144   0110A0E3           MOV      R1,#+1
   \   00000148   70008DE2           ADD      R0,SP,#+112
   \   0000014C   ........           _BLF     ??_Tidy,??_Tidy??rA
   \   00000150   0020A0E3           MOV      R2,#+0
   \   00000154   0110A0E3           MOV      R1,#+1
   \   00000158   C4008DE2           ADD      R0,SP,#+196
   \   0000015C   ........           _BLF     ??_Tidy,??_Tidy??rA
   \   00000160   0020A0E3           MOV      R2,#+0
   \   00000164   0110A0E3           MOV      R1,#+1
   \   00000168   8C008DE2           ADD      R0,SP,#+140
   \   0000016C   ........           _BLF     ??_Tidy,??_Tidy??rA
   \   00000170   0020A0E3           MOV      R2,#+0
   \   00000174   0110A0E3           MOV      R1,#+1
   \   00000178   A8008DE2           ADD      R0,SP,#+168
   \   0000017C   ........           _BLF     ??_Tidy,??_Tidy??rA
     34              LocalString +=TabStr1+KeyWord(C_MODBUS_END)+CrLfStr;
   \   00000180   6110A0E3           MOV      R1,#+97
   \   00000184   901E81E3           ORR      R1,R1,#0x900
   \   00000188   460F8DE2           ADD      R0,SP,#+280
   \   0000018C   ........           _BLF     ??KeyWord,??KeyWord??rA
   \   00000190   462F8DE2           ADD      R2,SP,#+280
   \   00000194   0710A0E1           MOV      R1,R7
   \   00000198   FC008DE2           ADD      R0,SP,#+252
   \   0000019C   ........           _BLF     `??operator+`,`??operator+??rA`
   \   000001A0   74209FE5           LDR      R2,??MakeConfigString_2+0xC  ;; CrLfStr
   \   000001A4   FC108DE2           ADD      R1,SP,#+252
   \   000001A8   E0008DE2           ADD      R0,SP,#+224
   \   000001AC   ........           _BLF     `??operator+`,`??operator+??rA`
   \   000001B0   0630A0E1           MOV      R3,R6
   \   000001B4   0020A0E3           MOV      R2,#+0
   \   000001B8   E0108DE2           ADD      R1,SP,#+224
   \   000001BC   0500A0E1           MOV      R0,R5
   \   000001C0   ........           _BLF     ??append,??append??rA
   \   000001C4   0020A0E3           MOV      R2,#+0
   \   000001C8   0110A0E3           MOV      R1,#+1
   \   000001CC   E0008DE2           ADD      R0,SP,#+224
   \   000001D0   ........           _BLF     ??_Tidy,??_Tidy??rA
   \   000001D4   0020A0E3           MOV      R2,#+0
   \   000001D8   0110A0E3           MOV      R1,#+1
   \   000001DC   FC008DE2           ADD      R0,SP,#+252
   \   000001E0   ........           _BLF     ??_Tidy,??_Tidy??rA
   \   000001E4   0020A0E3           MOV      R2,#+0
   \   000001E8   0110A0E3           MOV      R1,#+1
   \   000001EC   460F8DE2           ADD      R0,SP,#+280
   \   000001F0   ........           _BLF     ??_Tidy,??_Tidy??rA
     35              return(LocalString);
   \   000001F4   0020A0E3           MOV      R2,#+0
   \   000001F8   0110A0E3           MOV      R1,#+1
   \   000001FC   4D0F8DE2           ADD      R0,SP,#+308
   \   00000200   ........           _BLF     ??_Tidy,??_Tidy??rA
   \   00000204   5BDF8DE2           ADD      SP,SP,#+364
   \   00000208   F040BDE8           POP      {R4-R7,LR}
   \   0000020C   1EFF2FE1           BX       LR               ;; return
   \                     ??MakeConfigString_2:
   \   00000210   ........           DC32     TabStr1
   \   00000214   ........           DC32     `?<Constant "0x%0x">`
   \   00000218   ........           DC32     ??npos
   \   0000021C   ........           DC32     CrLfStr
     36          }
     37          //---------------------------------------------------------------------------
     38          

   \                                 In segment CODE, align 4, keep-with-next
     39          void ModbusWago485RegisterIn::Update(void)
     40          {
   \                     ??Update:
   \   00000000   F0432DE9           PUSH     {R4-R9,LR}
     41              ModbusUnit *tmpPtr = FindUnit();
     42              if ( tmpPtr &&  tmpPtr->HasNewValue(Channel) ) {
   \   00000004   18619FE5           LDR      R6,??Update_1    ;; Master
   \   00000008   0040A0E1           MOV      R4,R0
   \   0000000C   ........           _BLF     ??FindUnit,??FindUnit??rA
   \   00000010   0080B0E1           MOVS     R8,R0
   \   00000014   695FA0E3           MOV      R5,#+420
   \   00000018   687FA0E3           MOV      R7,#+416
   \   0000001C   3700000A           BEQ      ??Update_2
   \   00000020   5C9FA0E3           MOV      R9,#+368
   \   00000024   041099E7           LDR      R1,[R9, +R4]
   \   00000028   ........           _BLF     ??HasNewValue,??HasNewValue??rA
   \   0000002C   000050E3           CMP      R0,#+0
   \   00000030   3200000A           BEQ      ??Update_2
     43                  U16 rInVal   = tmpPtr->GetRegister(Channel,true);
   \   00000034   041099E7           LDR      R1,[R9, +R4]
   \   00000038   0120A0E3           MOV      R2,#+1
   \   0000003C   0800A0E1           MOV      R0,R8
   \   00000040   ........           _BLF     ??GetRegister,??GetRegister??rA
     44                  float InVal  = HasSign ? ((float)(I16)rInVal) : (float)rInVal;
   \   00000044   8411D4E5           LDRB     R1,[R4, #+388]
   \   00000048   000051E3           CMP      R1,#+0
   \   0000004C   0300000A           BEQ      ??Update_3
   \   00000050   0008A0E1           MOV      R0,R0, LSL #+16
   \   00000054   4008A0E1           MOV      R0,R0, ASR #+16
   \   00000058   ........           _BLF     __longToFloat,??__longToFloat??rA
   \   0000005C   000000EA           B        ??Update_4
   \                     ??Update_3:
   \   00000060   ........           _BLF     __ulongToFloat,??__ulongToFloat??rA
     45                  float Voltage= InVal/float(0x7fff)*10.0;
   \                     ??Update_4:
   \   00000064   BC109FE5           LDR      R1,??Update_1+0x4  ;; 0x46fffe00
   \   00000068   ........           _BLF     __fDiv,??__fDiv??rA
   \   0000006C   ........           _BLF     __floatToDouble,??__floatToDouble??rA
   \   00000070   0020A0E3           MOV      R2,#+0
   \   00000074   4034A0E3           MOV      R3,#+1073741824
   \   00000078   903983E3           ORR      R3,R3,#0x240000
   \   0000007C   ........           _BLF     __dMul,??__dMul??rA
   \   00000080   ........           _BLF     __doubleToFloat,??__doubleToFloat??rA
   \   00000084   0080A0E1           MOV      R8,R0
     46          
     47                  // No need for range check since the value can't get outside 10 Volt
     48                  // Should add error check using statur register instead
     49                  if (ObjPtr) {
   \   00000088   040097E7           LDR      R0,[R7, +R4]
   \   0000008C   000050E3           CMP      R0,#+0
   \   00000090   2100000A           BEQ      ??Update_5
     50                      if (Master) {
   \   00000094   0010D6E5           LDRB     R1,[R6, #+0]
   \   00000098   000051E3           CMP      R1,#+0
   \   0000009C   1000000A           BEQ      ??Update_6
     51                          ObjPtr->SetTimeStamp();
   \   000000A0   ........           _BLF     ??SetTimeStamp,??SetTimeStamp??rA
     52                          ObjPtr->PutFloatValue(ValueKey, Voltage);
   \   000000A4   043097E7           LDR      R3,[R7, +R4]
   \   000000A8   041095E7           LDR      R1,[R5, +R4]
   \   000000AC   0300A0E1           MOV      R0,R3
   \   000000B0   A43093E5           LDR      R3,[R3, #+164]
   \   000000B4   0820A0E1           MOV      R2,R8
   \   000000B8   343093E5           LDR      R3,[R3, #+52]
   \   000000BC   0FE0A0E1           MOV      LR,PC
   \   000000C0   13FF2FE1           BX       R3
     53                          ObjPtr->RefreshData(ValueKey);
   \   000000C4   042097E7           LDR      R2,[R7, +R4]
   \   000000C8   041095E7           LDR      R1,[R5, +R4]
   \   000000CC   0200A0E1           MOV      R0,R2
   \   000000D0   A42092E5           LDR      R2,[R2, #+164]
   \   000000D4   742092E5           LDR      R2,[R2, #+116]
   \   000000D8   0FE0A0E1           MOV      LR,PC
   \   000000DC   12FF2FE1           BX       R2
   \   000000E0   0D0000EA           B        ??Update_5
     54                      }else{
     55                          // Should also include the com port. Now send broadcast to all TDUs and PCs
     56                          // connected to this slave TCU
     57                          ObjPtr->SendModbusData(ValueKey, Voltage);
   \                     ??Update_6:
   \   000000E4   041095E7           LDR      R1,[R5, +R4]
   \   000000E8   6730A0E3           MOV      R3,#+103
   \   000000EC   0820A0E1           MOV      R2,R8
   \   000000F0   0118A0E1           MOV      R1,R1, LSL #+16
   \   000000F4   2118A0E1           MOV      R1,R1, LSR #+16
   \   000000F8   ........           _BLF     ??SendModbusData,??SendModbusData??rA
   \   000000FC   060000EA           B        ??Update_5
     58                      }
     59                  }
     60              } else {
     61                  if (ObjPtr && Master) {
   \                     ??Update_2:
   \   00000100   040097E7           LDR      R0,[R7, +R4]
   \   00000104   000050E3           CMP      R0,#+0
   \   00000108   0010D615           LDRBNE   R1,[R6, #+0]
   \   0000010C   00005113           CMPNE    R1,#+0
   \   00000110   0100000A           BEQ      ??Update_5
     62                      ObjPtr->SetOffline(ValueKey);
   \   00000114   041095E7           LDR      R1,[R5, +R4]
   \   00000118   ........           _BLF     ??SetOffline,??SetOffline??rA
     63                  }
     64              }
     65          }
   \                     ??Update_5:
   \   0000011C   F043BDE8           POP      {R4-R9,LR}
   \   00000120   1EFF2FE1           BX       LR               ;; return
   \                     ??Update_1:
   \   00000124   ........           DC32     Master
   \   00000128   00FEFF46           DC32     0x46fffe00
     66          

   \                                 In segment CODE, align 4, keep-with-next
     67          AnsiString ModbusWago485RegisterIn::GetRegisterType(void)
     68          {
   \                     ??GetRegisterType:
   \   00000000   0100A0E1           MOV      R0,R1
     69              return "Wago 750-485";
   \   00000004   0C109FE5           LDR      R1,??GetRegisterType_1  ;; `?<Constant "Wago 750-485">`
   \   00000008   00402DE9           PUSH     {LR}
   \   0000000C   ........           _BLF     ??AnsiString_1,??AnsiString??rA_1
   \   00000010   0040BDE8           POP      {LR}
   \   00000014   1EFF2FE1           BX       LR               ;; return
   \                     ??GetRegisterType_1:
   \   00000018   ........           DC32     `?<Constant "Wago 750-485">`
     70          }

   \                                 In segment DIFUNCT, align 4, keep-with-next, root
   \   00000000                      REQUIRE ?call_ctors
   \   00000000   ........           DC32    ??__sti__routine

   \                                 In segment DATA_C, align 4, align-sorted
   \                     `?<Constant "0x%0x">`:
   \   00000000   307825307800       DC8 "0x%0x"
   \   00000006   0000               DC8 0, 0

   \                                 In segment DATA_C, align 4, align-sorted
   \                     `?<Constant "Wago 750-485">`:
   \   00000000   5761676F2037       DC8 "Wago 750-485"
   \              35302D343835
   \              00          
   \   0000000D   000000             DC8 0, 0, 0

   \                                 In segment CODE, align 4, keep-with-next
   \   __??Code32?? __code __interwork __atpcs ModbusWago485RegisterIn &ModbusWago485RegisterIn::new ModbusWago485RegisterIn(bool)
   \                     `??new ModbusWago485RegisterIn`:
   \   00000000   10402DE9           PUSH     {R4,LR}
   \   00000004   0040A0E1           MOV      R4,R0
   \   00000008   6C0FA0E3           MOV      R0,#+432
   \   0000000C   ........           _BLF     `??operator new`,`??operator new??rA`
   \   00000010   000050E3           CMP      R0,#+0
   \   00000014   0100000A           BEQ      `??new ModbusWago485RegisterIn_1`
   \   00000018   0410A0E1           MOV      R1,R4
   \   0000001C   ........           BL       ??ModbusWago485RegisterIn
   \                     `??new ModbusWago485RegisterIn_1`:
   \   00000020   ........           B        ?Subroutine7

   \                                 In segment CODE, align 4, keep-with-next
   \   static __??Code32?? __intrinsic __code __interwork __atpcs void __sti__routine()
   \                     ??__sti__routine:
   \   00000000   1EFF2FE1           BX       LR               ;; return
     71          

   Maximum stack usage in bytes:

     Function                       CSTACK
     --------                       ------
     ModbusWago485RegisterIn::GetRegisterType()
                                        4
     ModbusWago485RegisterIn::MakeConfigString(int)
                                      384
     ModbusWago485RegisterIn::ModbusWago485RegisterIn(bool)
                                        8
     ModbusWago485RegisterIn::Update()
                                       28
     ModbusWago485RegisterIn::new ModbusWago485RegisterIn(bool)
                                        8
     ModbusWago485RegisterIn::~ModbusWago485RegisterIn()
                                       12
     __sti__routine()                   0
     operator+(string const &, string const &)
                                       48


   Segment part sizes:

     Function/Label                 Bytes
     --------------                 -----
     operator+(string const &, string const &)
                                     156
     ModbusWago485RegisterIn::ModbusWago485RegisterIn(bool)
                                      68
     ?Subroutine7                     12
     ModbusWago485RegisterIn::~ModbusWago485RegisterIn()
                                      52
     ModbusWago485RegisterIn::MakeConfigString(int)
                                     544
     ModbusWago485RegisterIn::Update()
                                     300
     ModbusWago485RegisterIn::GetRegisterType()
                                      28
     ?<Constant "0x%0x">               8
     ?<Constant "Wago 750-485">       16
     ModbusWago485RegisterIn::new ModbusWago485RegisterIn(bool)
                                      36
     __sti__routine()                  4
      Others                         516

 
 1 540 bytes in segment CODE
   196 bytes in segment DATA_C
     4 bytes in segment DIFUNCT
 
 1 048 bytes of CODE  memory (+ 496 bytes shared)
   196 bytes of CONST memory

Errors: none
Warnings: none
