##############################################################################
#                                                                            #
# IAR ARM ANSI C/C++ Compiler V4.42A/W32               14/Sep/2022  15:17:16 #
# Copyright 1999-2005 IAR Systems. All rights reserved.                      #
#                                                                            #
#    Cpu mode        =  interwork                                            #
#    Endian          =  little                                               #
#    Stack alignment =  4                                                    #
#    Source file     =  D:\S2Prog\Shared\Src\PrintReport.cpp                 #
#    Command line    =  D:\S2Prog\Shared\Src\PrintReport.cpp --fpu None -D   #
#                       OS_LIBMODE_SP -D CPU_S3C2410 -D OS_RAMVECT=0 -D      #
#                       OS_UART=-1 -D S2TXU -D USE_LZO=1 -D __ARM_LIBRARY__  #
#                       -D WATCHDOG=1 -D NETWORK=1 -lCN                      #
#                       D:\S2Prog\TXU\Debug\List\ -o                         #
#                       D:\S2Prog\TXU\Debug\Obj\ -z9 --debug --cpu_mode arm  #
#                       --endian little --cpu ARM920T --stack_align 4        #
#                       --interwork -e --enable_multibytes --eec++           #
#                       --dlib_config "C:\Program Files (x86)\IAR            #
#                       Systems\Embedded Workbench                           #
#                       4.0\arm\LIB\dl4tpainl8n.h" -I                        #
#                       D:\S2Prog\TXU\GUI\CORE\ -I D:\S2Prog\TXU\GUI\WM\ -I  #
#                       D:\S2Prog\TXU\GUI\WIDGET\ -I D:\S2Prog\TXU\CONFIG\   #
#                       -I D:\S2Prog\TXU\INC\ -I D:\S2Prog\TXU\..\SHARED\INC #
#                       \ -I D:\S2Prog\TXU\..\SHARED\SRC\ -I                 #
#                       D:\S2Prog\TXU\..\SHARED\LZO\minilzo.210\ -I          #
#                       D:\S2Prog\TXU\lwip-1.4.1\src\include\ -I             #
#                       D:\S2Prog\TXU\lwip-1.4.1\src\include\ipv4\ -I        #
#                       D:\S2Prog\TXU\lwip-1.4.1\src\ -I                     #
#                       D:\S2Prog\TXU\..\SHARED\Database\ -I                 #
#                       D:\S2Prog\TXU\src\ -I "C:\Program Files (x86)\IAR    #
#                       Systems\Embedded Workbench 4.0\arm\INC\"             #
#                       --inline_threshold=2                                 #
#    List file       =  D:\S2Prog\TXU\Debug\List\PrintReport.lst             #
#    Object file     =  D:\S2Prog\TXU\Debug\Obj\PrintReport.r79              #
#                                                                            #
#                                                                            #
##############################################################################

D:\S2Prog\Shared\Src\PrintReport.cpp
      1          //---------------------------------------------------------------------------
      2          #include "TSNIncludes.h"

   \                                 In segment CODE, align 4, keep-with-next
   \   __??Code32?? __code __interwork __atpcs string::string(string const &)
   \                     ??string:
   \   00000000   30402DE9           PUSH     {R4,R5,LR}
   \   00000004   0040A0E1           MOV      R4,R0
   \   00000008   0150A0E1           MOV      R5,R1
   \   0000000C   0020A0E3           MOV      R2,#+0
   \   00000010   0010A0E3           MOV      R1,#+0
   \   00000014   ........           _BLF     ??_Tidy,??_Tidy??rA
   \   00000018   1C009FE5           LDR      R0,??string_1    ;; ??npos
   \   0000001C   0020A0E3           MOV      R2,#+0
   \   00000020   003090E5           LDR      R3,[R0, #+0]
   \   00000024   0510A0E1           MOV      R1,R5
   \   00000028   0400A0E1           MOV      R0,R4
   \   0000002C   ........           _BLF     ??assign,??assign??rA
   \   00000030   0400A0E1           MOV      R0,R4
   \   00000034   3040BDE8           POP      {R4,R5,LR}
   \   00000038   1EFF2FE1           BX       LR               ;; return
   \                     ??string_1:
   \   0000003C   ........           DC32     ??npos

   \                                 In segment CODE, align 4, keep-with-next
   \   __??Code32?? __code __interwork __atpcs void _Vector_value<allocator<void>>::_Zero()
   \                     ??_Zero:
   \   00000000   0010A0E3           MOV      R1,#+0
   \   00000004   001080E5           STR      R1,[R0, #+0]
   \   00000008   041080E5           STR      R1,[R0, #+4]
   \   0000000C   081080E5           STR      R1,[R0, #+8]
   \   00000010   1EFF2FE1           BX       LR               ;; return

   \                                 In segment CODE, align 4, keep-with-next
   \   __??Code32?? __code __interwork __atpcs void _Vector_impl<PRogramObjectBase *, allocator<PRogramObjectBase *>>::_Tidy0()
   \                     ??_Tidy0:
   \   00000000   00402DE9           PUSH     {LR}
   \   00000004   001090E5           LDR      R1,[R0, #+0]
   \   00000008   000051E3           CMP      R1,#+0
   \   0000000C   0200000A           BEQ      ??_Tidy0_1
   \   00000010   041080E5           STR      R1,[R0, #+4]
   \   00000014   0100A0E1           MOV      R0,R1
   \   00000018   ........           _BLF     `??operator delete`,`??operator delete??rA`
   \                     ??_Tidy0_1:
   \   0000001C   0040BDE8           POP      {LR}
   \   00000020   1EFF2FE1           BX       LR               ;; return

   \                                 In segment CODE, align 4, keep-with-next
   \   __??Code32?? __code __interwork __atpcs void _Vector_impl<PRogramObjectBase *, allocator<PRogramObjectBase *>>::_Assign(_Vector_impl<PRogramObjectBase *, allocator<PRogramObjectBase *>> const &)
   \                     ??_Assign:
   \   00000000   71402DE9           PUSH     {R0,R4-R6,LR}
   \   00000004   0040A0E1           MOV      R4,R0
   \   00000008   0150A0E1           MOV      R5,R1
   \   0000000C   050054E1           CMP      R4,R5
   \   00000010   3000000A           BEQ      ??_Assign_1
   \   00000014   041095E5           LDR      R1,[R5, #+4]
   \   00000018   000095E5           LDR      R0,[R5, #+0]
   \   0000001C   002041E0           SUB      R2,R1,R0
   \   00000020   2231B0E1           LSRS     R3,R2,#+2
   \   00000024   0400001A           BNE      ??_Assign_2
   \   00000028   0400A0E1           MOV      R0,R4
   \   0000002C   ........           _BLF     ??_Tidy0,??_Tidy0??rA
   \   00000030   0400A0E1           MOV      R0,R4
   \   00000034   ........           _BLF     ??_Zero,??_Zero??rA
   \   00000038   260000EA           B        ??_Assign_1
   \                     ??_Assign_2:
   \   0000003C   002094E5           LDR      R2,[R4, #+0]
   \   00000040   046094E5           LDR      R6,[R4, #+4]
   \   00000044   026046E0           SUB      R6,R6,R2
   \   00000048   260153E1           CMP      R3,R6, LSR #+2
   \   0000004C   0700008A           BHI      ??_Assign_3
   \   00000050   ........           _BLF     _Copy_a4,??_Copy_a4??rA
   \   00000054   040095E5           LDR      R0,[R5, #+4]
   \   00000058   001095E5           LDR      R1,[R5, #+0]
   \   0000005C   010040E0           SUB      R0,R0,R1
   \   00000060   001094E5           LDR      R1,[R4, #+0]
   \   00000064   2001A0E1           LSR      R0,R0,#+2
   \   00000068   000181E0           ADD      R0,R1,R0, LSL #+2
   \   0000006C   180000EA           B        ??_Assign_4
   \                     ??_Assign_3:
   \   00000070   086094E5           LDR      R6,[R4, #+8]
   \   00000074   026046E0           SUB      R6,R6,R2
   \   00000078   260153E1           CMP      R3,R6, LSR #+2
   \   0000007C   1300009A           BLS      ??_Assign_5
   \                     ??_Assign_6:
   \   00000080   000052E3           CMP      R2,#+0
   \   00000084   0100000A           BEQ      ??_Assign_7
   \   00000088   0200A0E1           MOV      R0,R2
   \   0000008C   ........           _BLF     `??operator delete`,`??operator delete??rA`
   \                     ??_Assign_7:
   \   00000090   040095E5           LDR      R0,[R5, #+4]
   \   00000094   001095E5           LDR      R1,[R5, #+0]
   \   00000098   016040E0           SUB      R6,R0,R1
   \   0000009C   0400A0E1           MOV      R0,R4
   \   000000A0   ........           _BLF     ??_Zero,??_Zero??rA
   \   000000A4   000056E3           CMP      R6,#+0
   \   000000A8   0A00000A           BEQ      ??_Assign_1
   \   000000AC   0600A0E1           MOV      R0,R6
   \   000000B0   ........           _BLF     `??operator new`,`??operator new??rA`
   \   000000B4   000084E5           STR      R0,[R4, #+0]
   \   000000B8   0020A0E1           MOV      R2,R0
   \   000000BC   042084E5           STR      R2,[R4, #+4]
   \   000000C0   020086E0           ADD      R0,R6,R2
   \   000000C4   080084E5           STR      R0,[R4, #+8]
   \   000000C8   041095E5           LDR      R1,[R5, #+4]
   \   000000CC   000095E5           LDR      R0,[R5, #+0]
   \                     ??_Assign_5:
   \   000000D0   ........           _BLF     _Copy_a4,??_Copy_a4??rA
   \                     ??_Assign_4:
   \   000000D4   040084E5           STR      R0,[R4, #+4]
   \                     ??_Assign_1:
   \   000000D8   7140BDE8           POP      {R0,R4-R6,LR}
   \   000000DC   1EFF2FE1           BX       LR               ;; return

   \                                 In segment CODE, align 4, keep-with-next
   \   __??Code32?? __code __interwork __atpcs PRogramObjectBase ** _Vector_impl<PRogramObjectBase *, allocator<PRogramObjectBase *>>::_Insert(PRogramObjectBase **, PRogramObjectBase * const &)
   \                     ??_Insert:
   \   00000000   70402DE9           PUSH     {R4-R6,LR}
   \   00000004   005092E5           LDR      R5,[R2, #+0]
   \   00000008   0040A0E1           MOV      R4,R0
   \   0000000C   000094E5           LDR      R0,[R4, #+0]
   \   00000010   0120A0E3           MOV      R2,#+1
   \   00000014   000050E3           CMP      R0,#+0
   \   00000018   0060A003           MOVEQ    R6,#+0
   \   0000001C   00604110           SUBNE    R6,R1,R0
   \   00000020   0400A0E1           MOV      R0,R4
   \   00000024   ........           _BLF     ??_Make_room,??_Make_room??rA
   \   00000028   0110A0E3           MOV      R1,#+1
   \                     ??_Insert_1:
   \   0000002C   ........           STR      R5,[R0], #+4
   \   00000030   011051E2           SUBS     R1,R1,#+1
   \   00000034   FCFFFF1A           BNE      ??_Insert_1
   \   00000038   000094E5           LDR      R0,[R4, #+0]
   \   0000003C   000086E0           ADD      R0,R6,R0
   \   00000040   7040BDE8           POP      {R4-R6,LR}
   \   00000044   1EFF2FE1           BX       LR               ;; return

   \                                 In segment CODE, align 4, keep-with-next
   \   __??Code32?? __code __interwork __atpcs PRogramObjectBase ** _Vector_impl<PRogramObjectBase *, allocator<PRogramObjectBase *>>::_Make_room(PRogramObjectBase **, unsigned int)
   \                     ??_Make_room:
   \   00000000   F0472DE9           PUSH     {R4-R10,LR}
   \   00000004   0040A0E1           MOV      R4,R0
   \   00000008   000094E5           LDR      R0,[R4, #+0]
   \   0000000C   0150A0E1           MOV      R5,R1
   \   00000010   081094E5           LDR      R1,[R4, #+8]
   \   00000014   0260A0E1           MOV      R6,R2
   \   00000018   001041E0           SUB      R1,R1,R0
   \   0000001C   2171A0E1           LSR      R7,R1,#+2
   \   00000020   041094E5           LDR      R1,[R4, #+4]
   \   00000024   000056E3           CMP      R6,#+0
   \   00000028   000041E0           SUB      R0,R1,R0
   \   0000002C   2001A0E1           LSR      R0,R0,#+2
   \   00000030   2900000A           BEQ      ??_Make_room_1
   \   00000034   C024E0E3           MVN      R2,#-1073741824
   \   00000038   002042E0           SUB      R2,R2,R0
   \   0000003C   060052E1           CMP      R2,R6
   \   00000040   2500003A           BCC      ??_Make_room_1
   \   00000044   008086E0           ADD      R8,R6,R0
   \   00000048   080057E1           CMP      R7,R8
   \   0000004C   1C00002A           BCS      ??_Make_room_2
   \   00000050   A700A0E1           LSR      R0,R7,#+1
   \   00000054   C014E0E3           MVN      R1,#-1073741824
   \   00000058   001041E0           SUB      R1,R1,R0
   \   0000005C   070051E1           CMP      R1,R7
   \   00000060   0070A033           MOVCC    R7,#+0
   \   00000064   07708020           ADDCS    R7,R0,R7
   \   00000068   080057E1           CMP      R7,R8
   \   0000006C   0870A031           MOVCC    R7,R8
   \   00000070   0701A0E1           LSL      R0,R7,#+2
   \   00000074   ........           _BLF     `??operator new`,`??operator new??rA`
   \   00000078   0090A0E1           MOV      R9,R0
   \   0000007C   000094E5           LDR      R0,[R4, #+0]
   \   00000080   0920A0E1           MOV      R2,R9
   \   00000084   0510A0E1           MOV      R1,R5
   \   00000088   ........           _BLF     _Copy_a4,??_Copy_a4??rA
   \   0000008C   041094E5           LDR      R1,[R4, #+4]
   \   00000090   00A0A0E1           MOV      R10,R0
   \   00000094   06218AE0           ADD      R2,R10,R6, LSL #+2
   \   00000098   0500A0E1           MOV      R0,R5
   \   0000009C   ........           _BLF     _Copy_a4,??_Copy_a4??rA
   \   000000A0   0400A0E1           MOV      R0,R4
   \   000000A4   ........           _BLF     ??_Tidy0,??_Tidy0??rA
   \   000000A8   070189E0           ADD      R0,R9,R7, LSL #+2
   \   000000AC   080084E5           STR      R0,[R4, #+8]
   \   000000B0   080189E0           ADD      R0,R9,R8, LSL #+2
   \   000000B4   040084E5           STR      R0,[R4, #+4]
   \   000000B8   009084E5           STR      R9,[R4, #+0]
   \   000000BC   0A50A0E1           MOV      R5,R10
   \   000000C0   050000EA           B        ??_Make_room_1
   \                     ??_Make_room_2:
   \   000000C4   062181E0           ADD      R2,R1,R6, LSL #+2
   \   000000C8   0500A0E1           MOV      R0,R5
   \   000000CC   ........           _BLF     _Copy_backward_a4,??_Copy_backward_a4??rA
   \   000000D0   040094E5           LDR      R0,[R4, #+4]
   \   000000D4   060180E0           ADD      R0,R0,R6, LSL #+2
   \   000000D8   040084E5           STR      R0,[R4, #+4]
   \                     ??_Make_room_1:
   \   000000DC   0500A0E1           MOV      R0,R5
   \   000000E0   F047BDE8           POP      {R4-R10,LR}
   \   000000E4   1EFF2FE1           BX       LR               ;; return

   \                                 In segment CODE, align 4, keep-with-next
   \   __??Code32?? __code __interwork __atpcs void _Vector_impl<PRogramObjectBase *, allocator<PRogramObjectBase *>>::_Push_back0(PRogramObjectBase *)
   \                     ??_Push_back0:
   \   00000000   02402DE9           PUSH     {R1,LR}
   \   00000004   041090E5           LDR      R1,[R0, #+4]
   \   00000008   082090E5           LDR      R2,[R0, #+8]
   \   0000000C   020051E1           CMP      R1,R2
   \   00000010   0800002A           BCS      ??_Push_back0_1
   \   00000014   00209DE5           LDR      R2,[SP, #+0]
   \   00000018   0130A0E3           MOV      R3,#+1
   \   0000001C   01C0A0E1           MOV      R12,R1
   \                     ??_Push_back0_2:
   \   00000020   ........           STR      R2,[R12], #+4
   \   00000024   013053E2           SUBS     R3,R3,#+1
   \   00000028   FCFFFF1A           BNE      ??_Push_back0_2
   \   0000002C   041081E2           ADD      R1,R1,#+4
   \   00000030   041080E5           STR      R1,[R0, #+4]
   \   00000034   010000EA           B        ??_Push_back0_3
   \                     ??_Push_back0_1:
   \   00000038   0D20A0E1           MOV      R2,SP
   \   0000003C   ........           _BLF     ??_Insert,??_Insert??rA
   \                     ??_Push_back0_3:
   \   00000040   0140BDE8           POP      {R0,LR}
   \   00000044   1EFF2FE1           BX       LR               ;; return

   \                                 In segment CODE, align 4, keep-with-next
   \   __??Code32?? __code __interwork __atpcs void operator+(string const &, string const &)
   \                     `??operator+`:
   \   00000000   30402DE9           PUSH     {R4,R5,LR}
   \   00000004   1CD04DE2           SUB      SP,SP,#+28
   \   00000008   0040A0E1           MOV      R4,R0
   \   0000000C   0250A0E1           MOV      R5,R2
   \   00000010   0D00A0E1           MOV      R0,SP
   \   00000014   ........           _BLF     ??string,??string??rA
   \   00000018   34109FE5           LDR      R1,`??operator+_4`  ;; ??npos
   \   0000001C   0020A0E3           MOV      R2,#+0
   \   00000020   003091E5           LDR      R3,[R1, #+0]
   \   00000024   0510A0E1           MOV      R1,R5
   \   00000028   ........           _BLF     ??append,??append??rA
   \   0000002C   0010A0E1           MOV      R1,R0
   \   00000030   0400A0E1           MOV      R0,R4
   \   00000034   ........           _BLF     ??string,??string??rA
   \   00000038   0020A0E3           MOV      R2,#+0
   \   0000003C   0110A0E3           MOV      R1,#+1
   \   00000040   0D00A0E1           MOV      R0,SP
   \   00000044   ........           _BLF     ??_Tidy,??_Tidy??rA
   \   00000048   1CD08DE2           ADD      SP,SP,#+28
   \   0000004C   3040BDE8           POP      {R4,R5,LR}
   \   00000050   1EFF2FE1           BX       LR               ;; return
   \                     `??operator+_4`:
   \   00000054   ........           DC32     ??npos

   \                                 In segment CODE, align 4, keep-with-next
   \   __??Code32?? __code __interwork __atpcs void operator+(char const *, string const &)
   \                     `??operator+_1`:
   \   00000000   70402DE9           PUSH     {R4-R6,LR}
   \   00000004   1CD04DE2           SUB      SP,SP,#+28
   \   00000008   0040A0E1           MOV      R4,R0
   \   0000000C   0150A0E1           MOV      R5,R1
   \   00000010   0260A0E1           MOV      R6,R2
   \   00000014   0020A0E3           MOV      R2,#+0
   \   00000018   0010A0E3           MOV      R1,#+0
   \   0000001C   0D00A0E1           MOV      R0,SP
   \   00000020   ........           _BLF     ??_Tidy,??_Tidy??rA
   \   00000024   0500A0E1           MOV      R0,R5
   \   00000028   ........           _BLF     strlen,??strlen??rA
   \   0000002C   0020A0E1           MOV      R2,R0
   \   00000030   0510A0E1           MOV      R1,R5
   \   00000034   0D00A0E1           MOV      R0,SP
   \   00000038   ........           _BLF     ??assign_1,??assign??rA_1
   \   0000003C   38009FE5           LDR      R0,`??operator+_5`  ;; ??npos
   \   00000040   0020A0E3           MOV      R2,#+0
   \   00000044   003090E5           LDR      R3,[R0, #+0]
   \   00000048   0610A0E1           MOV      R1,R6
   \   0000004C   0D00A0E1           MOV      R0,SP
   \   00000050   ........           _BLF     ??append,??append??rA
   \   00000054   0010A0E1           MOV      R1,R0
   \   00000058   0400A0E1           MOV      R0,R4
   \   0000005C   ........           _BLF     ??string,??string??rA
   \   00000060   0020A0E3           MOV      R2,#+0
   \   00000064   0110A0E3           MOV      R1,#+1
   \   00000068   0D00A0E1           MOV      R0,SP
   \   0000006C   ........           _BLF     ??_Tidy,??_Tidy??rA
   \   00000070   1CD08DE2           ADD      SP,SP,#+28
   \   00000074   7040BDE8           POP      {R4-R6,LR}
   \   00000078   1EFF2FE1           BX       LR               ;; return
   \                     `??operator+_5`:
   \   0000007C   ........           DC32     ??npos

   \                                 In segment CODE, align 4, keep-with-next
   \   __??Code32?? __code __interwork __atpcs void operator+(string const &, char const *)
   \                     `??operator+_2`:
   \   00000000   70402DE9           PUSH     {R4-R6,LR}
   \   00000004   1CD04DE2           SUB      SP,SP,#+28
   \   00000008   0040A0E1           MOV      R4,R0
   \   0000000C   0250A0E1           MOV      R5,R2
   \   00000010   0D00A0E1           MOV      R0,SP
   \   00000014   ........           _BLF     ??string,??string??rA
   \   00000018   0060A0E1           MOV      R6,R0
   \   0000001C   0500A0E1           MOV      R0,R5
   \   00000020   ........           _BLF     strlen,??strlen??rA
   \   00000024   0020A0E1           MOV      R2,R0
   \   00000028   0510A0E1           MOV      R1,R5
   \   0000002C   0600A0E1           MOV      R0,R6
   \   00000030   ........           _BLF     ??append_1,??append??rA_1
   \   00000034   0010A0E1           MOV      R1,R0
   \   00000038   0400A0E1           MOV      R0,R4
   \   0000003C   ........           _BLF     ??string,??string??rA
   \   00000040   0020A0E3           MOV      R2,#+0
   \   00000044   0110A0E3           MOV      R1,#+1
   \   00000048   0D00A0E1           MOV      R0,SP
   \   0000004C   ........           _BLF     ??_Tidy,??_Tidy??rA
   \   00000050   1CD08DE2           ADD      SP,SP,#+28
   \   00000054   7040BDE8           POP      {R4-R6,LR}
   \   00000058   1EFF2FE1           BX       LR               ;; return

   \                                 In segment CODE, align 4, keep-with-next
   \   __??Code32?? __code __interwork __atpcs void operator+(string const &, char)
   \                     `??operator+_3`:
   \   00000000   30402DE9           PUSH     {R4,R5,LR}
   \   00000004   1CD04DE2           SUB      SP,SP,#+28
   \   00000008   0040A0E1           MOV      R4,R0
   \   0000000C   0250A0E1           MOV      R5,R2
   \   00000010   0D00A0E1           MOV      R0,SP
   \   00000014   ........           _BLF     ??string,??string??rA
   \   00000018   0520A0E1           MOV      R2,R5
   \   0000001C   0110A0E3           MOV      R1,#+1
   \   00000020   ........           _BLF     ??append_2,??append??rA_2
   \   00000024   0010A0E1           MOV      R1,R0
   \   00000028   0400A0E1           MOV      R0,R4
   \   0000002C   ........           _BLF     ??string,??string??rA
   \   00000030   0020A0E3           MOV      R2,#+0
   \   00000034   0110A0E3           MOV      R1,#+1
   \   00000038   0D00A0E1           MOV      R0,SP
   \   0000003C   ........           _BLF     ??_Tidy,??_Tidy??rA
   \   00000040   1CD08DE2           ADD      SP,SP,#+28
   \   00000044   3040BDE8           POP      {R4,R5,LR}
   \   00000048   1EFF2FE1           BX       LR               ;; return
      3          #pragma hdrstop
      4          #ifdef BORLAND
      5          	#pragma package(smart_init)
      6          #endif
      7          
      8          #ifdef WIN32
      9          	#include "WinUart.h"
     10          #else
     11          	#include "SC2410Uart.h"
     12          	#include "ST16554Uart.h"
     13          #endif

   \                                 In segment DATA_C, align 4, align-sorted
     14          static const int Width[]          = {2,6,10,10,10,10,10,10,10};
   \                     Width:
   \   00000000   020000000600       DC32 2, 6, 10, 10, 10, 10, 10, 10, 10
   \              00000A000000
   \              0A0000000A00
   \              00000A000000
   \              0A0000000A00
   \              00000A000000
     15          //static const int Align[]          = {GUI_TA_CENTER,GUI_TA_LEFT,GUI_TA_RIGHT,GUI_TA_RIGHT,GUI_TA_RIGHT};
     16          #ifdef S2TXU
     17          extern OS_RSEMA LanguageSema;
     18          #endif
     19          
     20          static int Lines_Pr_Page = 66;
     21          

   \                                 In segment CODE, align 4, keep-with-next
     22          void PrintLine(AnsiString &PrnBuf,int &Line)
     23          {
   \                     ??PrintLine:
   \   00000000   10402DE9           PUSH     {R4,LR}
   \   00000004   54D04DE2           SUB      SP,SP,#+84
   \   00000008   0040A0E1           MOV      R4,R0
     24          	PrnBuf += TabStr1+AnsiString::StringOfChar('_', 70)+CrLfStr;
   \   0000000C   4620A0E3           MOV      R2,#+70
   \   00000010   5F10A0E3           MOV      R1,#+95
   \   00000014   38008DE2           ADD      R0,SP,#+56
   \   00000018   ........           _BLF     ??StringOfChar,??StringOfChar??rA
   \   0000001C   ........           LDR      R1,??DataTable10  ;; TabStr1
   \   00000020   38208DE2           ADD      R2,SP,#+56
   \   00000024   1C008DE2           ADD      R0,SP,#+28
   \   00000028   ........           _BLF     `??operator+`,`??operator+??rA`
   \   0000002C   ........           LDR      R2,??DataTable11  ;; CrLfStr
   \   00000030   1C108DE2           ADD      R1,SP,#+28
   \   00000034   0D00A0E1           MOV      R0,SP
   \   00000038   ........           _BLF     `??operator+`,`??operator+??rA`
   \   0000003C   ........           LDR      R0,??DataTable12  ;; ??npos
   \   00000040   0020A0E3           MOV      R2,#+0
   \   00000044   003090E5           LDR      R3,[R0, #+0]
   \   00000048   0D10A0E1           MOV      R1,SP
   \   0000004C   0400A0E1           MOV      R0,R4
   \   00000050   ........           _BLF     ??append,??append??rA
   \   00000054   0020A0E3           MOV      R2,#+0
   \   00000058   0110A0E3           MOV      R1,#+1
   \   0000005C   0D00A0E1           MOV      R0,SP
   \   00000060   ........           _BLF     ??_Tidy,??_Tidy??rA
   \   00000064   0020A0E3           MOV      R2,#+0
   \   00000068   0110A0E3           MOV      R1,#+1
   \   0000006C   1C008DE2           ADD      R0,SP,#+28
   \   00000070   ........           _BLF     ??_Tidy,??_Tidy??rA
   \   00000074   0020A0E3           MOV      R2,#+0
   \   00000078   0110A0E3           MOV      R1,#+1
   \   0000007C   38008DE2           ADD      R0,SP,#+56
   \   00000080   ........           _BLF     ??_Tidy,??_Tidy??rA
     25          }
   \   00000084   54D08DE2           ADD      SP,SP,#+84
   \   00000088   1040BDE8           POP      {R4,LR}
   \   0000008C   1EFF2FE1           BX       LR               ;; return

   \                                 In segment CODE, align 4, keep-with-next
     26          void PrintHeadingText(AnsiString &PrnBuf,AnsiString Title, int &Line)
     27          {
   \                     ??PrintHeadingText:
   \   00000000   F0412DE9           PUSH     {R4-R8,LR}
     28          	PrnBuf += CrLfStr+TabStr2+LibGetValue(SVT_SHIP_NAME,PROProjectInfo::PROProjectInfoPtr)+CrLfStr;
   \   00000004   ........           LDR      R7,??DataTable11  ;; CrLfStr
   \   00000008   0040A0E1           MOV      R4,R0
   \   0000000C   70019FE5           LDR      R0,??PrintHeadingText_1  ;; ??PROProjectInfoPtr
   \   00000010   FCD04DE2           SUB      SP,SP,#+252
   \   00000014   0260A0E1           MOV      R6,R2
   \   00000018   002090E5           LDR      R2,[R0, #+0]
   \   0000001C   0150A0E1           MOV      R5,R1
   \   00000020   0030A0E3           MOV      R3,#+0
   \   00000024   1E10A0E3           MOV      R1,#+30
   \   00000028   C01E81E3           ORR      R1,R1,#0xC00
   \   0000002C   54008DE2           ADD      R0,SP,#+84
   \   00000030   ........           _BLF     ??LibGetValue,??LibGetValue??rA
   \   00000034   4C219FE5           LDR      R2,??PrintHeadingText_1+0x4  ;; TabStr2
   \   00000038   0710A0E1           MOV      R1,R7
   \   0000003C   38008DE2           ADD      R0,SP,#+56
   \   00000040   ........           _BLF     `??operator+`,`??operator+??rA`
   \   00000044   54208DE2           ADD      R2,SP,#+84
   \   00000048   38108DE2           ADD      R1,SP,#+56
   \   0000004C   1C008DE2           ADD      R0,SP,#+28
   \   00000050   ........           _BLF     `??operator+`,`??operator+??rA`
   \   00000054   0720A0E1           MOV      R2,R7
   \   00000058   1C108DE2           ADD      R1,SP,#+28
   \   0000005C   0D00A0E1           MOV      R0,SP
   \   00000060   ........           _BLF     `??operator+`,`??operator+??rA`
   \   00000064   ........           LDR      R0,??DataTable12  ;; ??npos
   \   00000068   0020A0E3           MOV      R2,#+0
   \   0000006C   008090E5           LDR      R8,[R0, #+0]
   \   00000070   0D10A0E1           MOV      R1,SP
   \   00000074   0830A0E1           MOV      R3,R8
   \   00000078   0400A0E1           MOV      R0,R4
   \   0000007C   ........           _BLF     ??append,??append??rA
   \   00000080   0020A0E3           MOV      R2,#+0
   \   00000084   0110A0E3           MOV      R1,#+1
   \   00000088   0D00A0E1           MOV      R0,SP
   \   0000008C   ........           _BLF     ??_Tidy,??_Tidy??rA
   \   00000090   0020A0E3           MOV      R2,#+0
   \   00000094   0110A0E3           MOV      R1,#+1
   \   00000098   1C008DE2           ADD      R0,SP,#+28
   \   0000009C   ........           _BLF     ??_Tidy,??_Tidy??rA
   \   000000A0   0020A0E3           MOV      R2,#+0
   \   000000A4   0110A0E3           MOV      R1,#+1
   \   000000A8   54008DE2           ADD      R0,SP,#+84
   \   000000AC   ........           _BLF     ??_Tidy,??_Tidy??rA
   \   000000B0   0020A0E3           MOV      R2,#+0
   \   000000B4   0110A0E3           MOV      R1,#+1
   \   000000B8   38008DE2           ADD      R0,SP,#+56
   \   000000BC   ........           _BLF     ??_Tidy,??_Tidy??rA
     29          	PrnBuf += CrLfStr+CrLfStr+TabStr3+Title+CrLfStr+CrLfStr;
   \   000000C0   0720A0E1           MOV      R2,R7
   \   000000C4   0710A0E1           MOV      R1,R7
   \   000000C8   E0008DE2           ADD      R0,SP,#+224
   \   000000CC   ........           _BLF     `??operator+`,`??operator+??rA`
   \   000000D0   B4209FE5           LDR      R2,??PrintHeadingText_1+0x8  ;; TabStr3
   \   000000D4   E0108DE2           ADD      R1,SP,#+224
   \   000000D8   C4008DE2           ADD      R0,SP,#+196
   \   000000DC   ........           _BLF     `??operator+`,`??operator+??rA`
   \   000000E0   0520A0E1           MOV      R2,R5
   \   000000E4   C4108DE2           ADD      R1,SP,#+196
   \   000000E8   A8008DE2           ADD      R0,SP,#+168
   \   000000EC   ........           _BLF     `??operator+`,`??operator+??rA`
   \   000000F0   0720A0E1           MOV      R2,R7
   \   000000F4   A8108DE2           ADD      R1,SP,#+168
   \   000000F8   8C008DE2           ADD      R0,SP,#+140
   \   000000FC   ........           _BLF     `??operator+`,`??operator+??rA`
   \   00000100   0720A0E1           MOV      R2,R7
   \   00000104   8C108DE2           ADD      R1,SP,#+140
   \   00000108   70008DE2           ADD      R0,SP,#+112
   \   0000010C   ........           _BLF     `??operator+`,`??operator+??rA`
   \   00000110   0830A0E1           MOV      R3,R8
   \   00000114   0020A0E3           MOV      R2,#+0
   \   00000118   70108DE2           ADD      R1,SP,#+112
   \   0000011C   0400A0E1           MOV      R0,R4
   \   00000120   ........           _BLF     ??append,??append??rA
   \   00000124   0020A0E3           MOV      R2,#+0
   \   00000128   0110A0E3           MOV      R1,#+1
   \   0000012C   70008DE2           ADD      R0,SP,#+112
   \   00000130   ........           _BLF     ??_Tidy,??_Tidy??rA
   \   00000134   0020A0E3           MOV      R2,#+0
   \   00000138   0110A0E3           MOV      R1,#+1
   \   0000013C   8C008DE2           ADD      R0,SP,#+140
   \   00000140   ........           _BLF     ??_Tidy,??_Tidy??rA
   \   00000144   0020A0E3           MOV      R2,#+0
   \   00000148   0110A0E3           MOV      R1,#+1
   \   0000014C   A8008DE2           ADD      R0,SP,#+168
   \   00000150   ........           _BLF     ??_Tidy,??_Tidy??rA
   \   00000154   0020A0E3           MOV      R2,#+0
   \   00000158   0110A0E3           MOV      R1,#+1
   \   0000015C   C4008DE2           ADD      R0,SP,#+196
   \   00000160   ........           _BLF     ??_Tidy,??_Tidy??rA
   \   00000164   0020A0E3           MOV      R2,#+0
   \   00000168   0110A0E3           MOV      R1,#+1
   \   0000016C   E0008DE2           ADD      R0,SP,#+224
   \   00000170   ........           _BLF     ??_Tidy,??_Tidy??rA
     30          	Line = 10;
   \   00000174   0A00A0E3           MOV      R0,#+10
   \   00000178   000086E5           STR      R0,[R6, #+0]
     31          }
   \   0000017C   FCD08DE2           ADD      SP,SP,#+252
   \   00000180   ........           B        ??Subroutine12_0
   \                     ??PrintHeadingText_1:
   \   00000184   ........           DC32     ??PROProjectInfoPtr
   \   00000188   ........           DC32     TabStr2
   \   0000018C   ........           DC32     TabStr3

   \                                 In segment CODE, align 4, keep-with-next
   \                     ?Subroutine12:
   \   00000000   08008DE2           ADD      R0,SP,#+8
   \   00000004   ........           _BLF     ??_Assign,??_Assign??rA
   \   00000008   0D00A0E1           MOV      R0,SP
   \   0000000C   01002DE9           PUSH     {R0}
   \   00000010   08008DE2           ADD      R0,SP,#+8
   \   00000014   01002DE9           PUSH     {R0}
   \   00000018   0830A0E3           MOV      R3,#+8
   \   0000001C   38208DE2           ADD      R2,SP,#+56
   \   00000020   10108DE2           ADD      R1,SP,#+16
   \   00000024   0400A0E1           MOV      R0,R4
   \   00000028   ........           BL       ??MakeTankReport
   \   0000002C   10008DE2           ADD      R0,SP,#+16
   \   00000030   ........           _BLF     ??_Tidy0,??_Tidy0??rA
   \   00000034   10008DE2           ADD      R0,SP,#+16
   \   00000038   ........           _BLF     ??_Zero,??_Zero??rA
   \   0000003C   08208DE2           ADD      R2,SP,#+8
   \   00000040   0C108DE2           ADD      R1,SP,#+12
   \   00000044   0400A0E1           MOV      R0,R4
   \   00000048   ........           BL       ??PrintFooterText
   \   0000004C   58D08DE2           ADD      SP,SP,#+88
   \                     ??Subroutine12_0:
   \   00000050   F041BDE8           POP      {R4-R8,LR}
   \   00000054   1EFF2FE1           BX       LR               ;; return
   \                     ??Subroutine12_1:
   \   00000058   ........           DC32     `?<Constant {1305, 1301, 1043, 1022, 1020, 1021`
   \   0000005C   ........           DC32     ??ObjVector_1
     32          
     33          // VERMARK 1.43 5/2/1 EHS
     34          // Now includes version information

   \                                 In segment CODE, align 4, keep-with-next
     35          void PrintFooterText(AnsiString &PrnBuf, int &Page, int &Line )
     36          {
   \                     ??PrintFooterText:
   \   00000000   F0412DE9           PUSH     {R4-R8,LR}
   \   00000004   8CDF4DE2           SUB      SP,SP,#+560
   \   00000008   0040A0E1           MOV      R4,R0
   \   0000000C   0160A0E1           MOV      R6,R1
   \   00000010   0270A0E1           MOV      R7,R2
     37          	for ( int cnt = 0; cnt <= ((Lines_Pr_Page -6)- Line); cnt++ ) {
   \   00000014   0080A0E3           MOV      R8,#+0
   \   00000018   050000EA           B        ??PrintFooterText_1
     38          		PrnBuf += CrLfStr;
   \                     ??PrintFooterText_2:
   \   0000001C   ........           LDR      R1,??DataTable11  ;; CrLfStr
   \   00000020   0530A0E1           MOV      R3,R5
   \   00000024   0020A0E3           MOV      R2,#+0
   \   00000028   0400A0E1           MOV      R0,R4
   \   0000002C   ........           _BLF     ??append,??append??rA
     39          	}
   \   00000030   018088E2           ADD      R8,R8,#+1
   \                     ??PrintFooterText_1:
   \   00000034   ........           LDR      R0,??DataTable12  ;; ??npos
   \   00000038   005090E5           LDR      R5,[R0, #+0]
   \   0000003C   000097E5           LDR      R0,[R7, #+0]
   \   00000040   3C0060E2           RSB      R0,R0,#+60
   \   00000044   080050E1           CMP      R0,R8
   \   00000048   F3FFFFAA           BGE      ??PrintFooterText_2
     40          
     41          	AnsiString ProgVersion = LibGetValue(SVT_PROG_VERSION,PROSystemData::TXUSystemData);
   \   0000004C   C4829FE5           LDR      R8,??PrintFooterText_3+0x8  ;; ??TXUSystemData
   \   00000050   0030A0E3           MOV      R3,#+0
   \   00000054   002098E5           LDR      R2,[R8, #+0]
   \   00000058   1D10A0E3           MOV      R1,#+29
   \   0000005C   C01E81E3           ORR      R1,R1,#0xC00
   \   00000060   770F8DE2           ADD      R0,SP,#+476
   \   00000064   ........           _BLF     ??LibGetValue,??LibGetValue??rA
     42          	AnsiString DataVersion = LibGetValue(SVT_DATA_VERSION,PROSystemData::TXUSystemData);
   \   00000068   002098E5           LDR      R2,[R8, #+0]
   \   0000006C   0030A0E3           MOV      R3,#+0
   \   00000070   2210A0E3           MOV      R1,#+34
   \   00000074   C01E81E3           ORR      R1,R1,#0xC00
   \   00000078   7E0F8DE2           ADD      R0,SP,#+504
   \   0000007C   ........           _BLF     ??LibGetValue,??LibGetValue??rA
     43          	PrintLine(PrnBuf,Line);
   \   00000080   0710A0E1           MOV      R1,R7
     44          	PrnBuf += TabStr1+TSNDate()+SpaceStr+TSNTime()+TabStr1+"Surveyor:"+ProgVersion+"   "+FindDictionaryWord(L_WORD576)+"  "+DataVersion;
   \   00000084   ........           LDR      R7,??DataTable10  ;; TabStr1
   \   00000088   0400A0E1           MOV      R0,R4
   \   0000008C   ........           BL       ??PrintLine
   \   00000090   901FA0E3           MOV      R1,#+576
   \   00000094   540F8DE2           ADD      R0,SP,#+336
   \   00000098   ........           _BLF     ??FindDictionaryWord,??FindDictionaryWord??rA
   \   0000009C   4D0F8DE2           ADD      R0,SP,#+308
   \   000000A0   ........           _BLF     ??TSNTime,??TSNTime??rA
   \   000000A4   460F8DE2           ADD      R0,SP,#+280
   \   000000A8   ........           _BLF     ??TSNDate,??TSNDate??rA
   \   000000AC   462F8DE2           ADD      R2,SP,#+280
   \   000000B0   0710A0E1           MOV      R1,R7
   \   000000B4   FC008DE2           ADD      R0,SP,#+252
   \   000000B8   ........           _BLF     `??operator+`,`??operator+??rA`
   \   000000BC   58229FE5           LDR      R2,??PrintFooterText_3+0xC  ;; SpaceStr
   \   000000C0   FC108DE2           ADD      R1,SP,#+252
   \   000000C4   E0008DE2           ADD      R0,SP,#+224
   \   000000C8   ........           _BLF     `??operator+`,`??operator+??rA`
   \   000000CC   4D2F8DE2           ADD      R2,SP,#+308
   \   000000D0   E0108DE2           ADD      R1,SP,#+224
   \   000000D4   C4008DE2           ADD      R0,SP,#+196
   \   000000D8   ........           _BLF     `??operator+`,`??operator+??rA`
   \   000000DC   0720A0E1           MOV      R2,R7
   \   000000E0   C4108DE2           ADD      R1,SP,#+196
   \   000000E4   A8008DE2           ADD      R0,SP,#+168
   \   000000E8   ........           _BLF     `??operator+`,`??operator+??rA`
   \   000000EC   2C229FE5           LDR      R2,??PrintFooterText_3+0x10  ;; `?<Constant "Surveyor:">`
   \   000000F0   A8108DE2           ADD      R1,SP,#+168
   \   000000F4   8C008DE2           ADD      R0,SP,#+140
   \   000000F8   ........           _BLF     `??operator+_2`,`??operator+??rA_1`
   \   000000FC   772F8DE2           ADD      R2,SP,#+476
   \   00000100   8C108DE2           ADD      R1,SP,#+140
   \   00000104   70008DE2           ADD      R0,SP,#+112
   \   00000108   ........           _BLF     `??operator+`,`??operator+??rA`
   \   0000010C   7F7F8FE2           ADR      R7,??PrintFooterText_3  ;; "   "
   \   00000110   0720A0E1           MOV      R2,R7
   \   00000114   70108DE2           ADD      R1,SP,#+112
   \   00000118   54008DE2           ADD      R0,SP,#+84
   \   0000011C   ........           _BLF     `??operator+_2`,`??operator+??rA_1`
   \   00000120   542F8DE2           ADD      R2,SP,#+336
   \   00000124   54108DE2           ADD      R1,SP,#+84
   \   00000128   38008DE2           ADD      R0,SP,#+56
   \   0000012C   ........           _BLF     `??operator+`,`??operator+??rA`
   \   00000130   772F8FE2           ADR      R2,??PrintFooterText_3+0x4  ;; "  "
   \   00000134   38108DE2           ADD      R1,SP,#+56
   \   00000138   1C008DE2           ADD      R0,SP,#+28
   \   0000013C   ........           _BLF     `??operator+_2`,`??operator+??rA_1`
   \   00000140   7E2F8DE2           ADD      R2,SP,#+504
   \   00000144   1C108DE2           ADD      R1,SP,#+28
   \   00000148   0D00A0E1           MOV      R0,SP
   \   0000014C   ........           _BLF     `??operator+`,`??operator+??rA`
   \   00000150   0530A0E1           MOV      R3,R5
   \   00000154   0020A0E3           MOV      R2,#+0
   \   00000158   0D10A0E1           MOV      R1,SP
   \   0000015C   0400A0E1           MOV      R0,R4
   \   00000160   ........           _BLF     ??append,??append??rA
   \   00000164   0020A0E3           MOV      R2,#+0
   \   00000168   0110A0E3           MOV      R1,#+1
   \   0000016C   0D00A0E1           MOV      R0,SP
   \   00000170   ........           _BLF     ??_Tidy,??_Tidy??rA
   \   00000174   0020A0E3           MOV      R2,#+0
   \   00000178   0110A0E3           MOV      R1,#+1
   \   0000017C   1C008DE2           ADD      R0,SP,#+28
   \   00000180   ........           _BLF     ??_Tidy,??_Tidy??rA
   \   00000184   0020A0E3           MOV      R2,#+0
   \   00000188   0110A0E3           MOV      R1,#+1
   \   0000018C   38008DE2           ADD      R0,SP,#+56
   \   00000190   ........           _BLF     ??_Tidy,??_Tidy??rA
   \   00000194   0020A0E3           MOV      R2,#+0
   \   00000198   0110A0E3           MOV      R1,#+1
   \   0000019C   540F8DE2           ADD      R0,SP,#+336
   \   000001A0   ........           _BLF     ??_Tidy,??_Tidy??rA
   \   000001A4   0020A0E3           MOV      R2,#+0
   \   000001A8   0110A0E3           MOV      R1,#+1
   \   000001AC   54008DE2           ADD      R0,SP,#+84
   \   000001B0   ........           _BLF     ??_Tidy,??_Tidy??rA
   \   000001B4   0020A0E3           MOV      R2,#+0
   \   000001B8   0110A0E3           MOV      R1,#+1
   \   000001BC   70008DE2           ADD      R0,SP,#+112
   \   000001C0   ........           _BLF     ??_Tidy,??_Tidy??rA
   \   000001C4   0020A0E3           MOV      R2,#+0
   \   000001C8   0110A0E3           MOV      R1,#+1
   \   000001CC   8C008DE2           ADD      R0,SP,#+140
   \   000001D0   ........           _BLF     ??_Tidy,??_Tidy??rA
   \   000001D4   0020A0E3           MOV      R2,#+0
   \   000001D8   0110A0E3           MOV      R1,#+1
   \   000001DC   A8008DE2           ADD      R0,SP,#+168
   \   000001E0   ........           _BLF     ??_Tidy,??_Tidy??rA
   \   000001E4   0020A0E3           MOV      R2,#+0
   \   000001E8   0110A0E3           MOV      R1,#+1
   \   000001EC   C4008DE2           ADD      R0,SP,#+196
   \   000001F0   ........           _BLF     ??_Tidy,??_Tidy??rA
   \   000001F4   0020A0E3           MOV      R2,#+0
   \   000001F8   0110A0E3           MOV      R1,#+1
   \   000001FC   4D0F8DE2           ADD      R0,SP,#+308
   \   00000200   ........           _BLF     ??_Tidy,??_Tidy??rA
   \   00000204   0020A0E3           MOV      R2,#+0
   \   00000208   0110A0E3           MOV      R1,#+1
   \   0000020C   E0008DE2           ADD      R0,SP,#+224
   \   00000210   ........           _BLF     ??_Tidy,??_Tidy??rA
   \   00000214   0020A0E3           MOV      R2,#+0
   \   00000218   0110A0E3           MOV      R1,#+1
   \   0000021C   FC008DE2           ADD      R0,SP,#+252
   \   00000220   ........           _BLF     ??_Tidy,??_Tidy??rA
   \   00000224   0020A0E3           MOV      R2,#+0
   \   00000228   0110A0E3           MOV      R1,#+1
   \   0000022C   460F8DE2           ADD      R0,SP,#+280
   \   00000230   ........           _BLF     ??_Tidy,??_Tidy??rA
     45          	PrnBuf += "   "+FindDictionaryWord(L_WORD575)+(AnsiString)Page+'\f';
   \   00000234   001096E5           LDR      R1,[R6, #+0]
   \   00000238   850F8DE2           ADD      R0,SP,#+532
   \   0000023C   ........           _BLF     ??AnsiString,??AnsiString??rA
   \   00000240   0060A0E1           MOV      R6,R0
   \   00000244   3F10A0E3           MOV      R1,#+63
   \   00000248   801F81E3           ORR      R1,R1,#0x200
   \   0000024C   700F8DE2           ADD      R0,SP,#+448
   \   00000250   ........           _BLF     ??FindDictionaryWord,??FindDictionaryWord??rA
   \   00000254   702F8DE2           ADD      R2,SP,#+448
   \   00000258   0710A0E1           MOV      R1,R7
   \   0000025C   690F8DE2           ADD      R0,SP,#+420
   \   00000260   ........           _BLF     `??operator+_1`,`??operator+??rA_2`
   \   00000264   0620A0E1           MOV      R2,R6
   \   00000268   691F8DE2           ADD      R1,SP,#+420
   \   0000026C   620F8DE2           ADD      R0,SP,#+392
   \   00000270   ........           _BLF     `??operator+`,`??operator+??rA`
   \   00000274   0C20A0E3           MOV      R2,#+12
   \   00000278   621F8DE2           ADD      R1,SP,#+392
   \   0000027C   5B0F8DE2           ADD      R0,SP,#+364
   \   00000280   ........           _BLF     `??operator+_3`,`??operator+??rA_3`
   \   00000284   0530A0E1           MOV      R3,R5
   \   00000288   0020A0E3           MOV      R2,#+0
   \   0000028C   5B1F8DE2           ADD      R1,SP,#+364
   \   00000290   0400A0E1           MOV      R0,R4
   \   00000294   ........           _BLF     ??append,??append??rA
   \   00000298   0020A0E3           MOV      R2,#+0
   \   0000029C   0110A0E3           MOV      R1,#+1
   \   000002A0   5B0F8DE2           ADD      R0,SP,#+364
   \   000002A4   ........           _BLF     ??_Tidy,??_Tidy??rA
   \   000002A8   0020A0E3           MOV      R2,#+0
   \   000002AC   0110A0E3           MOV      R1,#+1
   \   000002B0   620F8DE2           ADD      R0,SP,#+392
   \   000002B4   ........           _BLF     ??_Tidy,??_Tidy??rA
   \   000002B8   0020A0E3           MOV      R2,#+0
   \   000002BC   0110A0E3           MOV      R1,#+1
   \   000002C0   850F8DE2           ADD      R0,SP,#+532
   \   000002C4   ........           _BLF     ??_Tidy,??_Tidy??rA
   \   000002C8   0020A0E3           MOV      R2,#+0
   \   000002CC   0110A0E3           MOV      R1,#+1
   \   000002D0   690F8DE2           ADD      R0,SP,#+420
   \   000002D4   ........           _BLF     ??_Tidy,??_Tidy??rA
   \   000002D8   0020A0E3           MOV      R2,#+0
   \   000002DC   0110A0E3           MOV      R1,#+1
   \   000002E0   700F8DE2           ADD      R0,SP,#+448
   \   000002E4   ........           _BLF     ??_Tidy,??_Tidy??rA
     46          }
   \   000002E8   0020A0E3           MOV      R2,#+0
   \   000002EC   0110A0E3           MOV      R1,#+1
   \   000002F0   7E0F8DE2           ADD      R0,SP,#+504
   \   000002F4   ........           _BLF     ??_Tidy,??_Tidy??rA
   \   000002F8   0020A0E3           MOV      R2,#+0
   \   000002FC   0110A0E3           MOV      R1,#+1
   \   00000300   770F8DE2           ADD      R0,SP,#+476
   \   00000304   ........           _BLF     ??_Tidy,??_Tidy??rA
   \   00000308   8CDF8DE2           ADD      SP,SP,#+560
   \   0000030C   ........           B        ??Subroutine12_0
   \                     ??PrintFooterText_3:
   \   00000310   20202000           DC8      "   "
   \   00000314   20200000           DC8      "  ",+0
   \   00000318   ........           DC32     ??TXUSystemData
   \   0000031C   ........           DC32     SpaceStr
   \   00000320   ........           DC32     `?<Constant "Surveyor:">`
     47          
     48          
     49          

   \                                 In segment CODE, align 4, keep-with-next
     50          void MakeTankReport(AnsiString &PrnBuf,vector<PRogramObjectBase*>TankTable,int *ValueTable,int NumberOfValues,int &Page, int &Line)
     51          {
   \                     ??MakeTankReport:
   \   00000000   FC4F2DE9           PUSH     {R2-R11,LR}
   \   00000004   43DF4DE2           SUB      SP,SP,#+268
   \   00000008   0040A0E1           MOV      R4,R0
   \   0000000C   3C519DE5           LDR      R5,[SP, #+316]
   \   00000010   0160A0E1           MOV      R6,R1
     52          	if ( !TankTable.empty() ) {
   \   00000014   040096E5           LDR      R0,[R6, #+4]
   \   00000018   001096E5           LDR      R1,[R6, #+0]
   \   0000001C   010040E0           SUB      R0,R0,R1
   \   00000020   2001B0E1           LSRS     R0,R0,#+2
   \   00000024   0301000A           BEQ      ??MakeTankReport_1
     53          		vector<PRogramObjectBase*>tmpPROTable = TankTable;
     54          		PROTankSum *TankSumPtr = new PROTankSum(tmpPROTable,false);
     55          		tmpPROTable.push_back(TankSumPtr);
     56          		for ( unsigned i=0; i < tmpPROTable.size()-1; i++ ) {
   \   00000028   18749FE5           LDR      R7,??MakeTankReport_2+0x4  ;; Width
   \   0000002C   ........           LDR      R8,??DataTable11  ;; CrLfStr
   \   00000030   08008DE2           ADD      R0,SP,#+8
   \   00000034   ........           _BLF     ??_Zero,??_Zero??rA
   \   00000038   0610A0E1           MOV      R1,R6
   \   0000003C   08008DE2           ADD      R0,SP,#+8
   \   00000040   ........           _BLF     ??_Assign,??_Assign??rA
   \   00000044   0010A0E3           MOV      R1,#+0
   \   00000048   08008DE2           ADD      R0,SP,#+8
   \   0000004C   ........           _BLF     `??new PROTankSum`,`??new PROTankSum??rA`
   \   00000050   04008DE5           STR      R0,[SP, #+4]
   \   00000054   0010A0E1           MOV      R1,R0
   \   00000058   08008DE2           ADD      R0,SP,#+8
   \   0000005C   ........           _BLF     ??_Push_back0,??_Push_back0??rA
   \   00000060   0010A0E3           MOV      R1,#+0
   \   00000064   210000EA           B        ??MakeTankReport_3
     57          			PROTank *TnkPtr = (PROTank*)tmpPROTable[i];
     58          			if ( !i ) {
     59          				// Write the heading
     60          				PrnBuf += TabStr1;
     61          				for ( int j=0; j < NumberOfValues; j++ ) {
     62          					PrnBuf += LibGetValue(SVT_VALUE_NAME, ValueTable[j], TnkPtr, Width[j]);
     63          				}
     64          				PrnBuf += CrLfStr;
     65          				Line++;
     66          			}
     67          			if ( !i ) {
     68          				AnsiString HeadingStr = TabStr1,ValueStr=TabStr1,UnitStr;
     69          				for ( int j=0; j < NumberOfValues; j++ ) {
     70          					ValueStr += LibGetValue(ValueTable[j], TnkPtr, Width[j],&UnitStr);
     71          					char Buf[BUF_SIZE];
     72          					sprintf(Buf,"%*s",Width[j],UnitStr.c_str());
     73          					HeadingStr += Buf;
     74          				}
     75          				PrnBuf += HeadingStr+CrLfStr;
     76          				Line++;
     77          				PrintLine(PrnBuf,Line);
     78          				PrnBuf += ValueStr+CrLfStr;
     79          				Line++;
     80          			} else {
     81          				PrnBuf += TabStr1;
     82          				for ( int j=0; j < NumberOfValues; j++ ) {
     83          					PrnBuf += LibGetValue(ValueTable[j],0,TnkPtr, Width[j]);
   \                     ??MakeTankReport_4:
   \   00000068   0000A0E3           MOV      R0,#+0
   \   0000006C   01002DE9           PUSH     {R0}
   \   00000070   0A0197E7           LDR      R0,[R7, +R10, LSL #+2]
   \   00000074   0930A0E1           MOV      R3,R9
   \   00000078   01002DE9           PUSH     {R0}
   \   0000007C   14019DE5           LDR      R0,[SP, #+276]
   \   00000080   0020A0E3           MOV      R2,#+0
   \   00000084   0A1190E7           LDR      R1,[R0, +R10, LSL #+2]
   \   00000088   1C008DE2           ADD      R0,SP,#+28
   \   0000008C   ........           _BLF     ??LibGetValue_1,??LibGetValue??rA_1
   \   00000090   0630A0E1           MOV      R3,R6
   \   00000094   0020A0E3           MOV      R2,#+0
   \   00000098   1C108DE2           ADD      R1,SP,#+28
   \   0000009C   0400A0E1           MOV      R0,R4
   \   000000A0   ........           _BLF     ??append,??append??rA
   \   000000A4   0020A0E3           MOV      R2,#+0
   \   000000A8   0110A0E3           MOV      R1,#+1
   \   000000AC   1C008DE2           ADD      R0,SP,#+28
   \   000000B0   ........           _BLF     ??_Tidy,??_Tidy??rA
     84          				}
   \   000000B4   01A08AE2           ADD      R10,R10,#+1
   \   000000B8   08D08DE2           ADD      SP,SP,#+8
   \                     ??MakeTankReport_5:
   \   000000BC   10019DE5           LDR      R0,[SP, #+272]
   \   000000C0   00005AE1           CMP      R10,R0
   \   000000C4   E7FFFFBA           BLT      ??MakeTankReport_4
     85          				PrnBuf += CrLfStr;
   \   000000C8   0630A0E1           MOV      R3,R6
   \   000000CC   0020A0E3           MOV      R2,#+0
   \   000000D0   0810A0E1           MOV      R1,R8
   \   000000D4   0400A0E1           MOV      R0,R4
   \   000000D8   ........           _BLF     ??append,??append??rA
     86          				Line++;
   \   000000DC   000095E5           LDR      R0,[R5, #+0]
   \   000000E0   010080E2           ADD      R0,R0,#+1
   \   000000E4   000085E5           STR      R0,[R5, #+0]
   \                     ??MakeTankReport_6:
   \   000000E8   00109DE5           LDR      R1,[SP, #+0]
   \   000000EC   011081E2           ADD      R1,R1,#+1
   \                     ??MakeTankReport_3:
   \   000000F0   00108DE5           STR      R1,[SP, #+0]
   \   000000F4   ........           LDR      R0,??DataTable12  ;; ??npos
   \   000000F8   0C109DE5           LDR      R1,[SP, #+12]
   \   000000FC   006090E5           LDR      R6,[R0, #+0]
   \   00000100   00009DE5           LDR      R0,[SP, #+0]
   \   00000104   08209DE5           LDR      R2,[SP, #+8]
   \   00000108   ........           LDR      R10,??DataTable10  ;; TabStr1
   \   0000010C   021041E0           SUB      R1,R1,R2
   \   00000110   2111A0E1           LSR      R1,R1,#+2
   \   00000114   011041E2           SUB      R1,R1,#+1
   \   00000118   010050E1           CMP      R0,R1
   \   0000011C   8F00002A           BCS      ??MakeTankReport_7
   \   00000120   009192E7           LDR      R9,[R2, +R0, LSL #+2]
   \   00000124   000050E3           CMP      R0,#+0
   \   00000128   0630A0E1           MOV      R3,R6
   \   0000012C   0020A0E3           MOV      R2,#+0
   \   00000130   0A10A0E1           MOV      R1,R10
   \   00000134   0400A0E1           MOV      R0,R4
   \   00000138   8500001A           BNE      ??MakeTankReport_8
   \   0000013C   ........           _BLF     ??append,??append??rA
   \   00000140   00B0A0E3           MOV      R11,#+0
   \   00000144   150000EA           B        ??MakeTankReport_9
   \                     ??MakeTankReport_10:
   \   00000148   0000A0E3           MOV      R0,#+0
   \   0000014C   01002DE9           PUSH     {R0}
   \   00000150   0B0197E7           LDR      R0,[R7, +R11, LSL #+2]
   \   00000154   0930A0E1           MOV      R3,R9
   \   00000158   01002DE9           PUSH     {R0}
   \   0000015C   14019DE5           LDR      R0,[SP, #+276]
   \   00000160   B910A0E3           MOV      R1,#+185
   \   00000164   0B2190E7           LDR      R2,[R0, +R11, LSL #+2]
   \   00000168   B01E81E3           ORR      R1,R1,#0xB00
   \   0000016C   1C008DE2           ADD      R0,SP,#+28
   \   00000170   ........           _BLF     ??LibGetValue_1,??LibGetValue??rA_1
   \   00000174   0630A0E1           MOV      R3,R6
   \   00000178   0020A0E3           MOV      R2,#+0
   \   0000017C   1C108DE2           ADD      R1,SP,#+28
   \   00000180   0400A0E1           MOV      R0,R4
   \   00000184   ........           _BLF     ??append,??append??rA
   \   00000188   0020A0E3           MOV      R2,#+0
   \   0000018C   0110A0E3           MOV      R1,#+1
   \   00000190   1C008DE2           ADD      R0,SP,#+28
   \   00000194   ........           _BLF     ??_Tidy,??_Tidy??rA
   \   00000198   01B08BE2           ADD      R11,R11,#+1
   \   0000019C   08D08DE2           ADD      SP,SP,#+8
   \                     ??MakeTankReport_9:
   \   000001A0   10019DE5           LDR      R0,[SP, #+272]
   \   000001A4   00005BE1           CMP      R11,R0
   \   000001A8   E6FFFFBA           BLT      ??MakeTankReport_10
   \   000001AC   0630A0E1           MOV      R3,R6
   \   000001B0   0020A0E3           MOV      R2,#+0
   \   000001B4   0810A0E1           MOV      R1,R8
   \   000001B8   0400A0E1           MOV      R0,R4
   \   000001BC   ........           _BLF     ??append,??append??rA
   \   000001C0   000095E5           LDR      R0,[R5, #+0]
   \   000001C4   0A10A0E1           MOV      R1,R10
   \   000001C8   010080E2           ADD      R0,R0,#+1
   \   000001CC   000085E5           STR      R0,[R5, #+0]
   \   000001D0   84008DE2           ADD      R0,SP,#+132
   \   000001D4   ........           _BLF     ??string,??string??rA
   \   000001D8   0A10A0E1           MOV      R1,R10
   \   000001DC   A0008DE2           ADD      R0,SP,#+160
   \   000001E0   ........           _BLF     ??string,??string??rA
   \   000001E4   30008DE2           ADD      R0,SP,#+48
   \   000001E8   ........           _BLF     ??AnsiString_1,??AnsiString??rA_1
   \   000001EC   00A0A0E3           MOV      R10,#+0
   \   000001F0   0A0000EA           B        ??MakeTankReport_11
   \                     ??MakeTankReport_12:
   \   000001F4   0B20A0E1           MOV      R2,R11
   \   000001F8   911F8FE2           ADR      R1,??MakeTankReport_2  ;; "%*s"
   \   000001FC   BC008DE2           ADD      R0,SP,#+188
   \   00000200   ........           _BLF     sprintf,??sprintf??rA
   \   00000204   BC008DE2           ADD      R0,SP,#+188
   \   00000208   ........           _BLF     strlen,??strlen??rA
   \   0000020C   0020A0E1           MOV      R2,R0
   \   00000210   BC108DE2           ADD      R1,SP,#+188
   \   00000214   84008DE2           ADD      R0,SP,#+132
   \   00000218   ........           _BLF     ??append_1,??append??rA_1
   \   0000021C   01A08AE2           ADD      R10,R10,#+1
   \                     ??MakeTankReport_11:
   \   00000220   10019DE5           LDR      R0,[SP, #+272]
   \   00000224   00005AE1           CMP      R10,R0
   \   00000228   190000AA           BGE      ??MakeTankReport_13
   \   0000022C   0AB197E7           LDR      R11,[R7, +R10, LSL #+2]
   \   00000230   0000A0E3           MOV      R0,#+0
   \   00000234   01002DE9           PUSH     {R0}
   \   00000238   34008DE2           ADD      R0,SP,#+52
   \   0000023C   01002DE9           PUSH     {R0}
   \   00000240   14019DE5           LDR      R0,[SP, #+276]
   \   00000244   0B30A0E1           MOV      R3,R11
   \   00000248   0A1190E7           LDR      R1,[R0, +R10, LSL #+2]
   \   0000024C   0920A0E1           MOV      R2,R9
   \   00000250   1C008DE2           ADD      R0,SP,#+28
   \   00000254   ........           _BLF     ??LibGetValue_2,??LibGetValue??rA_2
   \   00000258   0630A0E1           MOV      R3,R6
   \   0000025C   0020A0E3           MOV      R2,#+0
   \   00000260   1C108DE2           ADD      R1,SP,#+28
   \   00000264   A8008DE2           ADD      R0,SP,#+168
   \   00000268   ........           _BLF     ??append,??append??rA
   \   0000026C   0020A0E3           MOV      R2,#+0
   \   00000270   0110A0E3           MOV      R1,#+1
   \   00000274   1C008DE2           ADD      R0,SP,#+28
   \   00000278   ........           _BLF     ??_Tidy,??_Tidy??rA
   \   0000027C   50009DE5           LDR      R0,[SP, #+80]
   \   00000280   08D08DE2           ADD      SP,SP,#+8
   \   00000284   100050E3           CMP      R0,#+16
   \   00000288   34309D25           LDRCS    R3,[SP, #+52]
   \   0000028C   34308D32           ADDCC    R3,SP,#+52
   \   00000290   D7FFFFEA           B        ??MakeTankReport_12
   \                     ??MakeTankReport_13:
   \   00000294   0820A0E1           MOV      R2,R8
   \   00000298   84108DE2           ADD      R1,SP,#+132
   \   0000029C   4C008DE2           ADD      R0,SP,#+76
   \   000002A0   ........           _BLF     `??operator+`,`??operator+??rA`
   \   000002A4   0630A0E1           MOV      R3,R6
   \   000002A8   0020A0E3           MOV      R2,#+0
   \   000002AC   4C108DE2           ADD      R1,SP,#+76
   \   000002B0   0400A0E1           MOV      R0,R4
   \   000002B4   ........           _BLF     ??append,??append??rA
   \   000002B8   0020A0E3           MOV      R2,#+0
   \   000002BC   0110A0E3           MOV      R1,#+1
   \   000002C0   4C008DE2           ADD      R0,SP,#+76
   \   000002C4   ........           _BLF     ??_Tidy,??_Tidy??rA
   \   000002C8   000095E5           LDR      R0,[R5, #+0]
   \   000002CC   0510A0E1           MOV      R1,R5
   \   000002D0   010080E2           ADD      R0,R0,#+1
   \   000002D4   000085E5           STR      R0,[R5, #+0]
   \   000002D8   0400A0E1           MOV      R0,R4
   \   000002DC   ........           BL       ??PrintLine
   \   000002E0   0820A0E1           MOV      R2,R8
   \   000002E4   A0108DE2           ADD      R1,SP,#+160
   \   000002E8   68008DE2           ADD      R0,SP,#+104
   \   000002EC   ........           _BLF     `??operator+`,`??operator+??rA`
   \   000002F0   0630A0E1           MOV      R3,R6
   \   000002F4   0020A0E3           MOV      R2,#+0
   \   000002F8   68108DE2           ADD      R1,SP,#+104
   \   000002FC   0400A0E1           MOV      R0,R4
   \   00000300   ........           _BLF     ??append,??append??rA
   \   00000304   0020A0E3           MOV      R2,#+0
   \   00000308   0110A0E3           MOV      R1,#+1
   \   0000030C   68008DE2           ADD      R0,SP,#+104
   \   00000310   ........           _BLF     ??_Tidy,??_Tidy??rA
   \   00000314   000095E5           LDR      R0,[R5, #+0]
   \   00000318   0020A0E3           MOV      R2,#+0
   \   0000031C   010080E2           ADD      R0,R0,#+1
   \   00000320   000085E5           STR      R0,[R5, #+0]
   \   00000324   0110A0E3           MOV      R1,#+1
   \   00000328   30008DE2           ADD      R0,SP,#+48
   \   0000032C   ........           _BLF     ??_Tidy,??_Tidy??rA
   \   00000330   0020A0E3           MOV      R2,#+0
   \   00000334   0110A0E3           MOV      R1,#+1
   \   00000338   A0008DE2           ADD      R0,SP,#+160
   \   0000033C   ........           _BLF     ??_Tidy,??_Tidy??rA
   \   00000340   0020A0E3           MOV      R2,#+0
   \   00000344   0110A0E3           MOV      R1,#+1
   \   00000348   84008DE2           ADD      R0,SP,#+132
   \   0000034C   ........           _BLF     ??_Tidy,??_Tidy??rA
   \   00000350   64FFFFEA           B        ??MakeTankReport_6
   \                     ??MakeTankReport_8:
   \   00000354   ........           _BLF     ??append,??append??rA
   \   00000358   00A0A0E3           MOV      R10,#+0
   \   0000035C   56FFFFEA           B        ??MakeTankReport_5
     87          			}
     88          		}
     89          		PrintLine(PrnBuf,Line);
   \                     ??MakeTankReport_7:
   \   00000360   0510A0E1           MOV      R1,R5
   \   00000364   0400A0E1           MOV      R0,R4
   \   00000368   ........           BL       ??PrintLine
     90          		PrnBuf += TabStr1;
   \   0000036C   0630A0E1           MOV      R3,R6
   \   00000370   0020A0E3           MOV      R2,#+0
   \   00000374   0A10A0E1           MOV      R1,R10
   \   00000378   0400A0E1           MOV      R0,R4
   \   0000037C   ........           _BLF     ??append,??append??rA
     91          		for ( int j=0; j < NumberOfValues; j++ ) {
   \   00000380   0090A0E3           MOV      R9,#+0
   \   00000384   140000EA           B        ??MakeTankReport_14
     92          			PrnBuf += LibGetValue(ValueTable[j],0,TankSumPtr, Width[j]);
   \                     ??MakeTankReport_15:
   \   00000388   0000A0E3           MOV      R0,#+0
   \   0000038C   01002DE9           PUSH     {R0}
   \   00000390   090197E7           LDR      R0,[R7, +R9, LSL #+2]
   \   00000394   0020A0E3           MOV      R2,#+0
   \   00000398   01002DE9           PUSH     {R0}
   \   0000039C   14019DE5           LDR      R0,[SP, #+276]
   \   000003A0   0C309DE5           LDR      R3,[SP, #+12]
   \   000003A4   091190E7           LDR      R1,[R0, +R9, LSL #+2]
   \   000003A8   1C008DE2           ADD      R0,SP,#+28
   \   000003AC   ........           _BLF     ??LibGetValue_1,??LibGetValue??rA_1
   \   000003B0   0630A0E1           MOV      R3,R6
   \   000003B4   0020A0E3           MOV      R2,#+0
   \   000003B8   1C108DE2           ADD      R1,SP,#+28
   \   000003BC   0400A0E1           MOV      R0,R4
   \   000003C0   ........           _BLF     ??append,??append??rA
   \   000003C4   0020A0E3           MOV      R2,#+0
   \   000003C8   0110A0E3           MOV      R1,#+1
   \   000003CC   1C008DE2           ADD      R0,SP,#+28
   \   000003D0   ........           _BLF     ??_Tidy,??_Tidy??rA
     93          		}
   \   000003D4   019089E2           ADD      R9,R9,#+1
   \   000003D8   08D08DE2           ADD      SP,SP,#+8
   \                     ??MakeTankReport_14:
   \   000003DC   10019DE5           LDR      R0,[SP, #+272]
   \   000003E0   000059E1           CMP      R9,R0
   \   000003E4   E7FFFFBA           BLT      ??MakeTankReport_15
     94          		PrnBuf += CrLfStr;
   \   000003E8   0630A0E1           MOV      R3,R6
   \   000003EC   0020A0E3           MOV      R2,#+0
   \   000003F0   0810A0E1           MOV      R1,R8
   \   000003F4   0400A0E1           MOV      R0,R4
   \   000003F8   ........           _BLF     ??append,??append??rA
     95          		Line++;
   \   000003FC   000095E5           LDR      R0,[R5, #+0]
   \   00000400   010080E2           ADD      R0,R0,#+1
   \   00000404   000085E5           STR      R0,[R5, #+0]
     96          		delete TankSumPtr;
   \   00000408   04009DE5           LDR      R0,[SP, #+4]
   \   0000040C   000050E3           CMP      R0,#+0
   \   00000410   0400000A           BEQ      ??MakeTankReport_16
   \   00000414   A42090E5           LDR      R2,[R0, #+164]
   \   00000418   0310A0E3           MOV      R1,#+3
   \   0000041C   002092E5           LDR      R2,[R2, #+0]
   \   00000420   0FE0A0E1           MOV      LR,PC
   \   00000424   12FF2FE1           BX       R2
     97          	}
   \                     ??MakeTankReport_16:
   \   00000428   08008DE2           ADD      R0,SP,#+8
   \   0000042C   ........           _BLF     ??_Tidy0,??_Tidy0??rA
   \   00000430   08008DE2           ADD      R0,SP,#+8
   \   00000434   ........           _BLF     ??_Zero,??_Zero??rA
     98          
     99          }
   \                     ??MakeTankReport_1:
   \   00000438   45DF8DE2           ADD      SP,SP,#+276
   \   0000043C   F04FBDE8           POP      {R4-R11,LR}
   \   00000440   1EFF2FE1           BX       LR               ;; return
   \                     ??MakeTankReport_2:
   \   00000444   252A7300           DC8      "%*s"
   \   00000448   ........           DC32     Width
    100          

   \                                 In segment CODE, align 4, keep-with-next
    101          void MakeCargoTankReport(AnsiString &PrnBuf)
    102          {
    103          	const int TankValues[]  ={SVT_PRO_STATUS,SVT_PRO_NAME,SVT_ULLAGE,SVT_VOLUME,SVT_WEIGHT,SVT_TEMP,SVT_DENSITY,SVT_CARGO_TYPE_NAME};
   \                     ??MakeCargoTankReport:
   \   00000000   5C109FE5           LDR      R1,??MakeCargoTankReport_1  ;; `?<Constant {1305, 1301, 1003, 1020, 1021, 1004`
   \   00000004   F0412DE9           PUSH     {R4-R8,LR}
   \   00000008   50D04DE2           SUB      SP,SP,#+80
   \   0000000C   EC5191E8           LDM      R1,{R2,R3,R5-R8,R12,LR}
   \   00000010   0040A0E1           MOV      R4,R0
   \   00000014   30008DE2           ADD      R0,SP,#+48
    104          	int Page = 1 ;
   \   00000018   0110A0E3           MOV      R1,#+1
   \   0000001C   EC5180E8           STM      R0,{R2,R3,R5-R8,R12,LR}
   \   00000020   04108DE5           STR      R1,[SP, #+4]
    105          	int Line = 1 ;
   \   00000024   00108DE5           STR      R1,[SP, #+0]
    106          	PrintHeadingText(PrnBuf,FindDictionaryWord(L_WORD577),Line) ;	 //Cargo tanks
   \   00000028   901F81E3           ORR      R1,R1,#0x240
   \   0000002C   14008DE2           ADD      R0,SP,#+20
   \   00000030   ........           _BLF     ??FindDictionaryWord,??FindDictionaryWord??rA
   \   00000034   0D20A0E1           MOV      R2,SP
   \   00000038   14108DE2           ADD      R1,SP,#+20
   \   0000003C   0400A0E1           MOV      R0,R4
   \   00000040   ........           BL       ??PrintHeadingText
   \   00000044   0020A0E3           MOV      R2,#+0
   \   00000048   0110A0E3           MOV      R1,#+1
   \   0000004C   14008DE2           ADD      R0,SP,#+20
   \   00000050   ........           _BLF     ??_Tidy,??_Tidy??rA
    107          	MakeTankReport(PrnBuf,PROCargoTank::ObjVector,(int*)TankValues,NELEMENTS(TankValues),Page,Line);
   \   00000054   08008DE2           ADD      R0,SP,#+8
   \   00000058   ........           _BLF     ??_Zero,??_Zero??rA
   \   0000005C   04109FE5           LDR      R1,??MakeCargoTankReport_1+0x4  ;; ??ObjVector
   \   00000060   ........           B        ?Subroutine12
   \                     ??MakeCargoTankReport_1:
   \   00000064   ........           DC32     `?<Constant {1305, 1301, 1003, 1020, 1021, 1004`
   \   00000068   ........           DC32     ??ObjVector
    108          	PrintFooterText(PrnBuf,Page,Line);
    109          }
    110          

   \                                 In segment CODE, align 4, keep-with-next
    111          void MakeBallastTankReport(AnsiString &PrnBuf)
    112          {
    113          	const int TankValues[]  ={SVT_PRO_STATUS,SVT_PRO_NAME,SVT_LEVEL_REF,SVT_VOLPERCENT,SVT_VOLUME,SVT_WEIGHT,SVT_LOADRATE,SVT_DENSITY};
   \                     ??MakeBallastTankReport:
   \   00000000   ........           LDR      R1,??Subroutine12_1  ;; `?<Constant {1305, 1301, 1043, 1022, 1020, 1021`
   \   00000004   F0412DE9           PUSH     {R4-R8,LR}
   \   00000008   50D04DE2           SUB      SP,SP,#+80
   \   0000000C   EC5191E8           LDM      R1,{R2,R3,R5-R8,R12,LR}
   \   00000010   0040A0E1           MOV      R4,R0
   \   00000014   30008DE2           ADD      R0,SP,#+48
    114          	int Page = 1 ;
   \   00000018   0110A0E3           MOV      R1,#+1
   \   0000001C   EC5180E8           STM      R0,{R2,R3,R5-R8,R12,LR}
   \   00000020   04108DE5           STR      R1,[SP, #+4]
    115          	int Line = 1 ;
   \   00000024   00108DE5           STR      R1,[SP, #+0]
    116          	PrintHeadingText(PrnBuf,FindDictionaryWord(L_WORD578),Line) ;//Ballast tanks
   \   00000028   4210A0E3           MOV      R1,#+66
   \   0000002C   801F81E3           ORR      R1,R1,#0x200
   \   00000030   14008DE2           ADD      R0,SP,#+20
   \   00000034   ........           _BLF     ??FindDictionaryWord,??FindDictionaryWord??rA
   \   00000038   0D20A0E1           MOV      R2,SP
   \   0000003C   14108DE2           ADD      R1,SP,#+20
   \   00000040   0400A0E1           MOV      R0,R4
   \   00000044   ........           BL       ??PrintHeadingText
   \   00000048   0020A0E3           MOV      R2,#+0
   \   0000004C   0110A0E3           MOV      R1,#+1
   \   00000050   14008DE2           ADD      R0,SP,#+20
   \   00000054   ........           _BLF     ??_Tidy,??_Tidy??rA
    117          	MakeTankReport(PrnBuf,PROBallastTank::ObjVector,(int*)TankValues,NELEMENTS(TankValues),Page,Line);
   \   00000058   08008DE2           ADD      R0,SP,#+8
   \   0000005C   ........           _BLF     ??_Zero,??_Zero??rA
   \   00000060   ........           LDR      R1,??Subroutine12_1+0x4  ;; ??ObjVector_1
   \   00000064                      REQUIRE ?Subroutine12
   \   00000064                      ;; // Fall through to label ?Subroutine12
    118          	PrintFooterText(PrnBuf,Page,Line);
    119          }
    120          

   \                                 In segment CODE, align 4, keep-with-next
    121          void MakeServiceTankReport(AnsiString &PrnBuf)
    122          {
    123          	const int TankValues[]  ={SVT_PRO_STATUS,SVT_PRO_NAME,SVT_LEVEL_REF,SVT_VOLPERCENT,SVT_VOLUME,SVT_WEIGHT,SVT_LOADRATE,SVT_DENSITY};
   \                     ??MakeServiceTankReport:
   \   00000000   58149FE5           LDR      R1,??MakeServiceTankReport_1  ;; `?<Constant {1305, 1301, 1043, 1022, 1020, 1021_1`
   \   00000004   F0412DE9           PUSH     {R4-R8,LR}
   \   00000008   89DF4DE2           SUB      SP,SP,#+548
   \   0000000C   EC5191E8           LDM      R1,{R2,R3,R5-R8,R12,LR}
   \   00000010   0040A0E1           MOV      R4,R0
   \   00000014   44008DE2           ADD      R0,SP,#+68
    124          	int Page = 1 ;
   \   00000018   0110A0E3           MOV      R1,#+1
   \   0000001C   EC5180E8           STM      R0,{R2,R3,R5-R8,R12,LR}
    125          	int Line = 1 ;
    126          	PrintHeadingText(PrnBuf,FindDictionaryWord(L_WORD579),Line) ;//Service tanks
    127          	PrnBuf += CrLfStr+FindDictionaryWord(L_WORD580)+CrLfStr;//Heavy Fuel Oil tanks
   \   00000020   ........           LDR      R5,??DataTable11  ;; CrLfStr
   \   00000024   04108DE5           STR      R1,[SP, #+4]
   \   00000028   00108DE5           STR      R1,[SP, #+0]
   \   0000002C   4310A0E3           MOV      R1,#+67
   \   00000030   801F81E3           ORR      R1,R1,#0x200
   \   00000034   64008DE2           ADD      R0,SP,#+100
   \   00000038   ........           _BLF     ??FindDictionaryWord,??FindDictionaryWord??rA
   \   0000003C   0D20A0E1           MOV      R2,SP
   \   00000040   64108DE2           ADD      R1,SP,#+100
   \   00000044   0400A0E1           MOV      R0,R4
   \   00000048   ........           BL       ??PrintHeadingText
   \   0000004C   0020A0E3           MOV      R2,#+0
   \   00000050   0110A0E3           MOV      R1,#+1
   \   00000054   64008DE2           ADD      R0,SP,#+100
   \   00000058   ........           _BLF     ??_Tidy,??_Tidy??rA
   \   0000005C   911FA0E3           MOV      R1,#+580
   \   00000060   B8008DE2           ADD      R0,SP,#+184
   \   00000064   ........           _BLF     ??FindDictionaryWord,??FindDictionaryWord??rA
   \   00000068   B8208DE2           ADD      R2,SP,#+184
   \   0000006C   0510A0E1           MOV      R1,R5
   \   00000070   9C008DE2           ADD      R0,SP,#+156
   \   00000074   ........           _BLF     `??operator+`,`??operator+??rA`
   \   00000078   0520A0E1           MOV      R2,R5
   \   0000007C   9C108DE2           ADD      R1,SP,#+156
   \   00000080   80008DE2           ADD      R0,SP,#+128
   \   00000084   ........           _BLF     `??operator+`,`??operator+??rA`
   \   00000088   ........           LDR      R0,??DataTable12  ;; ??npos
   \   0000008C   0020A0E3           MOV      R2,#+0
   \   00000090   006090E5           LDR      R6,[R0, #+0]
   \   00000094   80108DE2           ADD      R1,SP,#+128
   \   00000098   0630A0E1           MOV      R3,R6
   \   0000009C   0400A0E1           MOV      R0,R4
   \   000000A0   ........           _BLF     ??append,??append??rA
   \   000000A4   0020A0E3           MOV      R2,#+0
   \   000000A8   0110A0E3           MOV      R1,#+1
   \   000000AC   80008DE2           ADD      R0,SP,#+128
   \   000000B0   ........           _BLF     ??_Tidy,??_Tidy??rA
   \   000000B4   0020A0E3           MOV      R2,#+0
   \   000000B8   0110A0E3           MOV      R1,#+1
   \   000000BC   9C008DE2           ADD      R0,SP,#+156
   \   000000C0   ........           _BLF     ??_Tidy,??_Tidy??rA
   \   000000C4   0020A0E3           MOV      R2,#+0
   \   000000C8   0110A0E3           MOV      R1,#+1
   \   000000CC   B8008DE2           ADD      R0,SP,#+184
   \   000000D0   ........           _BLF     ??_Tidy,??_Tidy??rA
    128          	Line += 2;
   \   000000D4   00109DE5           LDR      R1,[SP, #+0]
    129          	MakeTankReport(PrnBuf,PROServiceTank::HeavyFuelOilVector  ,(int*)TankValues,NELEMENTS(TankValues),Page,Line);
   \   000000D8   08008DE2           ADD      R0,SP,#+8
   \   000000DC   021081E2           ADD      R1,R1,#+2
   \   000000E0   00108DE5           STR      R1,[SP, #+0]
   \   000000E4   ........           _BLF     ??_Zero,??_Zero??rA
   \   000000E8   74139FE5           LDR      R1,??MakeServiceTankReport_1+0x4  ;; ??HeavyFuelOilVector
   \   000000EC   08008DE2           ADD      R0,SP,#+8
   \   000000F0   ........           _BLF     ??_Assign,??_Assign??rA
   \   000000F4   0D00A0E1           MOV      R0,SP
   \   000000F8   01002DE9           PUSH     {R0}
   \   000000FC   08008DE2           ADD      R0,SP,#+8
   \   00000100   01002DE9           PUSH     {R0}
   \   00000104   0830A0E3           MOV      R3,#+8
   \   00000108   4C208DE2           ADD      R2,SP,#+76
   \   0000010C   10108DE2           ADD      R1,SP,#+16
   \   00000110   0400A0E1           MOV      R0,R4
   \   00000114   ........           BL       ??MakeTankReport
   \   00000118   10008DE2           ADD      R0,SP,#+16
   \   0000011C   ........           _BLF     ??_Tidy0,??_Tidy0??rA
   \   00000120   10008DE2           ADD      R0,SP,#+16
   \   00000124   ........           _BLF     ??_Zero,??_Zero??rA
    130          	PrnBuf += CrLfStr+FindDictionaryWord(L_WORD581)+CrLfStr;//Diesel Oil tanks
   \   00000128   4510A0E3           MOV      R1,#+69
   \   0000012C   801F81E3           ORR      R1,R1,#0x200
   \   00000130   450F8DE2           ADD      R0,SP,#+276
   \   00000134   ........           _BLF     ??FindDictionaryWord,??FindDictionaryWord??rA
   \   00000138   452F8DE2           ADD      R2,SP,#+276
   \   0000013C   0510A0E1           MOV      R1,R5
   \   00000140   F8008DE2           ADD      R0,SP,#+248
   \   00000144   ........           _BLF     `??operator+`,`??operator+??rA`
   \   00000148   0520A0E1           MOV      R2,R5
   \   0000014C   F8108DE2           ADD      R1,SP,#+248
   \   00000150   DC008DE2           ADD      R0,SP,#+220
   \   00000154   ........           _BLF     `??operator+`,`??operator+??rA`
   \   00000158   0630A0E1           MOV      R3,R6
   \   0000015C   0020A0E3           MOV      R2,#+0
   \   00000160   DC108DE2           ADD      R1,SP,#+220
   \   00000164   0400A0E1           MOV      R0,R4
   \   00000168   ........           _BLF     ??append,??append??rA
   \   0000016C   0020A0E3           MOV      R2,#+0
   \   00000170   0110A0E3           MOV      R1,#+1
   \   00000174   DC008DE2           ADD      R0,SP,#+220
   \   00000178   ........           _BLF     ??_Tidy,??_Tidy??rA
   \   0000017C   0020A0E3           MOV      R2,#+0
   \   00000180   0110A0E3           MOV      R1,#+1
   \   00000184   F8008DE2           ADD      R0,SP,#+248
   \   00000188   ........           _BLF     ??_Tidy,??_Tidy??rA
   \   0000018C   0020A0E3           MOV      R2,#+0
   \   00000190   0110A0E3           MOV      R1,#+1
   \   00000194   450F8DE2           ADD      R0,SP,#+276
   \   00000198   ........           _BLF     ??_Tidy,??_Tidy??rA
    131          	Line += 2;
   \   0000019C   08109DE5           LDR      R1,[SP, #+8]
    132          	MakeTankReport(PrnBuf,PROServiceTank::DieselVector  ,(int*)TankValues,NELEMENTS(TankValues),Page,Line);
   \   000001A0   1C008DE2           ADD      R0,SP,#+28
   \   000001A4   021081E2           ADD      R1,R1,#+2
   \   000001A8   08108DE5           STR      R1,[SP, #+8]
   \   000001AC   ........           _BLF     ??_Zero,??_Zero??rA
   \   000001B0   B0129FE5           LDR      R1,??MakeServiceTankReport_1+0x8  ;; ??DieselVector
   \   000001B4   1C008DE2           ADD      R0,SP,#+28
   \   000001B8   ........           _BLF     ??_Assign,??_Assign??rA
   \   000001BC   08008DE2           ADD      R0,SP,#+8
   \   000001C0   01002DE9           PUSH     {R0}
   \   000001C4   10008DE2           ADD      R0,SP,#+16
   \   000001C8   01002DE9           PUSH     {R0}
   \   000001CC   0830A0E3           MOV      R3,#+8
   \   000001D0   54208DE2           ADD      R2,SP,#+84
   \   000001D4   24108DE2           ADD      R1,SP,#+36
   \   000001D8   0400A0E1           MOV      R0,R4
   \   000001DC   ........           BL       ??MakeTankReport
   \   000001E0   24008DE2           ADD      R0,SP,#+36
   \   000001E4   ........           _BLF     ??_Tidy0,??_Tidy0??rA
   \   000001E8   24008DE2           ADD      R0,SP,#+36
   \   000001EC   ........           _BLF     ??_Zero,??_Zero??rA
    133          	PrnBuf += CrLfStr+FindDictionaryWord(L_WORD582)+CrLfStr;	//Lubricant tanks
   \   000001F0   4610A0E3           MOV      R1,#+70
   \   000001F4   801F81E3           ORR      R1,R1,#0x200
   \   000001F8   5C0F8DE2           ADD      R0,SP,#+368
   \   000001FC   ........           _BLF     ??FindDictionaryWord,??FindDictionaryWord??rA
   \   00000200   5C2F8DE2           ADD      R2,SP,#+368
   \   00000204   0510A0E1           MOV      R1,R5
   \   00000208   550F8DE2           ADD      R0,SP,#+340
   \   0000020C   ........           _BLF     `??operator+`,`??operator+??rA`
   \   00000210   0520A0E1           MOV      R2,R5
   \   00000214   551F8DE2           ADD      R1,SP,#+340
   \   00000218   4E0F8DE2           ADD      R0,SP,#+312
   \   0000021C   ........           _BLF     `??operator+`,`??operator+??rA`
   \   00000220   0630A0E1           MOV      R3,R6
   \   00000224   0020A0E3           MOV      R2,#+0
   \   00000228   4E1F8DE2           ADD      R1,SP,#+312
   \   0000022C   0400A0E1           MOV      R0,R4
   \   00000230   ........           _BLF     ??append,??append??rA
   \   00000234   0020A0E3           MOV      R2,#+0
   \   00000238   0110A0E3           MOV      R1,#+1
   \   0000023C   4E0F8DE2           ADD      R0,SP,#+312
   \   00000240   ........           _BLF     ??_Tidy,??_Tidy??rA
   \   00000244   0020A0E3           MOV      R2,#+0
   \   00000248   0110A0E3           MOV      R1,#+1
   \   0000024C   550F8DE2           ADD      R0,SP,#+340
   \   00000250   ........           _BLF     ??_Tidy,??_Tidy??rA
   \   00000254   0020A0E3           MOV      R2,#+0
   \   00000258   0110A0E3           MOV      R1,#+1
   \   0000025C   5C0F8DE2           ADD      R0,SP,#+368
   \   00000260   ........           _BLF     ??_Tidy,??_Tidy??rA
    134          	Line += 2;
   \   00000264   10109DE5           LDR      R1,[SP, #+16]
    135          	MakeTankReport(PrnBuf,PROServiceTank::LubricantsVector ,(int*)TankValues,NELEMENTS(TankValues),Page,Line);
   \   00000268   30008DE2           ADD      R0,SP,#+48
   \   0000026C   021081E2           ADD      R1,R1,#+2
   \   00000270   10108DE5           STR      R1,[SP, #+16]
   \   00000274   ........           _BLF     ??_Zero,??_Zero??rA
   \   00000278   EC119FE5           LDR      R1,??MakeServiceTankReport_1+0xC  ;; ??LubricantsVector
   \   0000027C   30008DE2           ADD      R0,SP,#+48
   \   00000280   ........           _BLF     ??_Assign,??_Assign??rA
   \   00000284   10008DE2           ADD      R0,SP,#+16
   \   00000288   01002DE9           PUSH     {R0}
   \   0000028C   18008DE2           ADD      R0,SP,#+24
   \   00000290   01002DE9           PUSH     {R0}
   \   00000294   0830A0E3           MOV      R3,#+8
   \   00000298   5C208DE2           ADD      R2,SP,#+92
   \   0000029C   38108DE2           ADD      R1,SP,#+56
   \   000002A0   0400A0E1           MOV      R0,R4
   \   000002A4   ........           BL       ??MakeTankReport
   \   000002A8   38008DE2           ADD      R0,SP,#+56
   \   000002AC   ........           _BLF     ??_Tidy0,??_Tidy0??rA
   \   000002B0   38008DE2           ADD      R0,SP,#+56
   \   000002B4   ........           _BLF     ??_Zero,??_Zero??rA
    136          	PrnBuf += CrLfStr+FindDictionaryWord(L_WORD583)+CrLfStr;	//Miscellaneous tanks
   \   000002B8   4710A0E3           MOV      R1,#+71
   \   000002BC   801F81E3           ORR      R1,R1,#0x200
   \   000002C0   730F8DE2           ADD      R0,SP,#+460
   \   000002C4   ........           _BLF     ??FindDictionaryWord,??FindDictionaryWord??rA
   \   000002C8   732F8DE2           ADD      R2,SP,#+460
   \   000002CC   0510A0E1           MOV      R1,R5
   \   000002D0   6C0F8DE2           ADD      R0,SP,#+432
   \   000002D4   ........           _BLF     `??operator+`,`??operator+??rA`
   \   000002D8   0520A0E1           MOV      R2,R5
   \   000002DC   6C1F8DE2           ADD      R1,SP,#+432
   \   000002E0   650F8DE2           ADD      R0,SP,#+404
   \   000002E4   ........           _BLF     `??operator+`,`??operator+??rA`
   \   000002E8   0630A0E1           MOV      R3,R6
   \   000002EC   0020A0E3           MOV      R2,#+0
   \   000002F0   651F8DE2           ADD      R1,SP,#+404
   \   000002F4   0400A0E1           MOV      R0,R4
   \   000002F8   ........           _BLF     ??append,??append??rA
   \   000002FC   0020A0E3           MOV      R2,#+0
   \   00000300   0110A0E3           MOV      R1,#+1
   \   00000304   650F8DE2           ADD      R0,SP,#+404
   \   00000308   ........           _BLF     ??_Tidy,??_Tidy??rA
   \   0000030C   0020A0E3           MOV      R2,#+0
   \   00000310   0110A0E3           MOV      R1,#+1
   \   00000314   6C0F8DE2           ADD      R0,SP,#+432
   \   00000318   ........           _BLF     ??_Tidy,??_Tidy??rA
   \   0000031C   0020A0E3           MOV      R2,#+0
   \   00000320   0110A0E3           MOV      R1,#+1
   \   00000324   730F8DE2           ADD      R0,SP,#+460
   \   00000328   ........           _BLF     ??_Tidy,??_Tidy??rA
    137          	Line += 2;
   \   0000032C   18109DE5           LDR      R1,[SP, #+24]
    138          	MakeTankReport(PrnBuf,PROServiceTank::MiscVector           ,(int*)TankValues,NELEMENTS(TankValues),Page,Line);
   \   00000330   44008DE2           ADD      R0,SP,#+68
   \   00000334   021081E2           ADD      R1,R1,#+2
   \   00000338   18108DE5           STR      R1,[SP, #+24]
   \   0000033C   ........           _BLF     ??_Zero,??_Zero??rA
   \   00000340   28119FE5           LDR      R1,??MakeServiceTankReport_1+0x10  ;; ??MiscVector
   \   00000344   44008DE2           ADD      R0,SP,#+68
   \   00000348   ........           _BLF     ??_Assign,??_Assign??rA
   \   0000034C   18008DE2           ADD      R0,SP,#+24
   \   00000350   01002DE9           PUSH     {R0}
   \   00000354   20008DE2           ADD      R0,SP,#+32
   \   00000358   01002DE9           PUSH     {R0}
   \   0000035C   0830A0E3           MOV      R3,#+8
   \   00000360   64208DE2           ADD      R2,SP,#+100
   \   00000364   4C108DE2           ADD      R1,SP,#+76
   \   00000368   0400A0E1           MOV      R0,R4
   \   0000036C   ........           BL       ??MakeTankReport
   \   00000370   4C008DE2           ADD      R0,SP,#+76
   \   00000374   ........           _BLF     ??_Tidy0,??_Tidy0??rA
   \   00000378   4C008DE2           ADD      R0,SP,#+76
   \   0000037C   ........           _BLF     ??_Zero,??_Zero??rA
    139          	PrnBuf += CrLfStr+FindDictionaryWord(L_WORD584)+CrLfStr;//Freshwater tanks
   \   00000380   921FA0E3           MOV      R1,#+584
   \   00000384   8A0F8DE2           ADD      R0,SP,#+552
   \   00000388   ........           _BLF     ??FindDictionaryWord,??FindDictionaryWord??rA
   \   0000038C   8A2F8DE2           ADD      R2,SP,#+552
   \   00000390   0510A0E1           MOV      R1,R5
   \   00000394   830F8DE2           ADD      R0,SP,#+524
   \   00000398   ........           _BLF     `??operator+`,`??operator+??rA`
   \   0000039C   0520A0E1           MOV      R2,R5
   \   000003A0   831F8DE2           ADD      R1,SP,#+524
   \   000003A4   7C0F8DE2           ADD      R0,SP,#+496
   \   000003A8   ........           _BLF     `??operator+`,`??operator+??rA`
   \   000003AC   0630A0E1           MOV      R3,R6
   \   000003B0   0020A0E3           MOV      R2,#+0
   \   000003B4   7C1F8DE2           ADD      R1,SP,#+496
   \   000003B8   0400A0E1           MOV      R0,R4
   \   000003BC   ........           _BLF     ??append,??append??rA
   \   000003C0   0020A0E3           MOV      R2,#+0
   \   000003C4   0110A0E3           MOV      R1,#+1
   \   000003C8   7C0F8DE2           ADD      R0,SP,#+496
   \   000003CC   ........           _BLF     ??_Tidy,??_Tidy??rA
   \   000003D0   0020A0E3           MOV      R2,#+0
   \   000003D4   0110A0E3           MOV      R1,#+1
   \   000003D8   830F8DE2           ADD      R0,SP,#+524
   \   000003DC   ........           _BLF     ??_Tidy,??_Tidy??rA
   \   000003E0   0020A0E3           MOV      R2,#+0
   \   000003E4   0110A0E3           MOV      R1,#+1
   \   000003E8   8A0F8DE2           ADD      R0,SP,#+552
   \   000003EC   ........           _BLF     ??_Tidy,??_Tidy??rA
    140          	Line += 2;
   \   000003F0   20109DE5           LDR      R1,[SP, #+32]
    141          	MakeTankReport(PrnBuf,PROServiceTank::FreshWaterVector ,(int*)TankValues,NELEMENTS(TankValues),Page,Line);
   \   000003F4   58008DE2           ADD      R0,SP,#+88
   \   000003F8   021081E2           ADD      R1,R1,#+2
   \   000003FC   20108DE5           STR      R1,[SP, #+32]
   \   00000400   ........           _BLF     ??_Zero,??_Zero??rA
   \   00000404   68109FE5           LDR      R1,??MakeServiceTankReport_1+0x14  ;; ??FreshWaterVector
   \   00000408   58008DE2           ADD      R0,SP,#+88
   \   0000040C   ........           _BLF     ??_Assign,??_Assign??rA
   \   00000410   20008DE2           ADD      R0,SP,#+32
   \   00000414   01002DE9           PUSH     {R0}
   \   00000418   28008DE2           ADD      R0,SP,#+40
   \   0000041C   01002DE9           PUSH     {R0}
   \   00000420   0830A0E3           MOV      R3,#+8
   \   00000424   6C208DE2           ADD      R2,SP,#+108
   \   00000428   60108DE2           ADD      R1,SP,#+96
   \   0000042C   0400A0E1           MOV      R0,R4
   \   00000430   ........           BL       ??MakeTankReport
   \   00000434   28D08DE2           ADD      SP,SP,#+40
   \   00000438   38008DE2           ADD      R0,SP,#+56
   \   0000043C   ........           _BLF     ??_Tidy0,??_Tidy0??rA
   \   00000440   38008DE2           ADD      R0,SP,#+56
   \   00000444   ........           _BLF     ??_Zero,??_Zero??rA
    142          	PrintFooterText(PrnBuf,Page,Line);
   \   00000448   0D20A0E1           MOV      R2,SP
   \   0000044C   04108DE2           ADD      R1,SP,#+4
   \   00000450   0400A0E1           MOV      R0,R4
   \   00000454   ........           BL       ??PrintFooterText
    143          }
   \   00000458   89DF8DE2           ADD      SP,SP,#+548
   \   0000045C   ........           B        ??Subroutine12_0
   \                     ??MakeServiceTankReport_1:
   \   00000460   ........           DC32     `?<Constant {1305, 1301, 1043, 1022, 1020, 1021_1`
   \   00000464   ........           DC32     ??HeavyFuelOilVector
   \   00000468   ........           DC32     ??DieselVector
   \   0000046C   ........           DC32     ??LubricantsVector
   \   00000470   ........           DC32     ??MiscVector
   \   00000474   ........           DC32     ??FreshWaterVector
    144          

   \                                 In segment CODE, align 4, keep-with-next
    145          void MakeTemperatureReport(AnsiString &PrnBuf)
    146          {
    147          	const int TankValues[]  ={SVT_PRO_STATUS,SVT_PRO_NAME,SVT_TEMP,SVT_LO_TEMP_LIMIT,SVT_HI_TEMP_LIMIT};
   \                     ??MakeTemperatureReport:
   \   00000000   5C109FE5           LDR      R1,??MakeTemperatureReport_1  ;; `?<Constant {1305, 1301, 1004, 9101, 9100}>`
   \   00000004   30402DE9           PUSH     {R4,R5,LR}
   \   00000008   44D04DE2           SUB      SP,SP,#+68
   \   0000000C   2C5091E8           LDM      R1,{R2,R3,R5,R12,LR}
   \   00000010   0040A0E1           MOV      R4,R0
   \   00000014   30008DE2           ADD      R0,SP,#+48
    148          	int Page = 1 ;
   \   00000018   0110A0E3           MOV      R1,#+1
   \   0000001C   2C5080E8           STM      R0,{R2,R3,R5,R12,LR}
   \   00000020   04108DE5           STR      R1,[SP, #+4]
    149          	int Line = 1 ;
   \   00000024   00108DE5           STR      R1,[SP, #+0]
    150          	PrintHeadingText(PrnBuf,FindDictionaryWord(L_WORD621),Line) ;//Ballast tanks
   \   00000028   9B1F81E3           ORR      R1,R1,#0x26C
   \   0000002C   14008DE2           ADD      R0,SP,#+20
   \   00000030   ........           _BLF     ??FindDictionaryWord,??FindDictionaryWord??rA
   \   00000034   0D20A0E1           MOV      R2,SP
   \   00000038   14108DE2           ADD      R1,SP,#+20
   \   0000003C   0400A0E1           MOV      R0,R4
   \   00000040   ........           BL       ??PrintHeadingText
   \   00000044   0020A0E3           MOV      R2,#+0
   \   00000048   0110A0E3           MOV      R1,#+1
   \   0000004C   14008DE2           ADD      R0,SP,#+20
   \   00000050   ........           _BLF     ??_Tidy,??_Tidy??rA
    151          	MakeTankReport(PrnBuf,PROTemperature::ObjVector,(int*)TankValues,NELEMENTS(TankValues),Page,Line);
   \   00000054   08008DE2           ADD      R0,SP,#+8
   \   00000058   ........           _BLF     ??_Zero,??_Zero??rA
   \   0000005C   04109FE5           LDR      R1,??MakeTemperatureReport_1+0x4  ;; ??ObjVector_2
   \   00000060   ........           B        ?Subroutine13
   \                     ??MakeTemperatureReport_1:
   \   00000064   ........           DC32     `?<Constant {1305, 1301, 1004, 9101, 9100}>`
   \   00000068   ........           DC32     ??ObjVector_2
    152          	PrintFooterText(PrnBuf,Page,Line);
    153          }

   \                                 In segment CODE, align 4, keep-with-next
   \                     ?Subroutine13:
   \   00000000   08008DE2           ADD      R0,SP,#+8
   \   00000004   ........           _BLF     ??_Assign,??_Assign??rA
   \   00000008   0D00A0E1           MOV      R0,SP
   \   0000000C   01002DE9           PUSH     {R0}
   \   00000010   08008DE2           ADD      R0,SP,#+8
   \   00000014   01002DE9           PUSH     {R0}
   \   00000018   0530A0E3           MOV      R3,#+5
   \   0000001C   38208DE2           ADD      R2,SP,#+56
   \   00000020   10108DE2           ADD      R1,SP,#+16
   \   00000024   0400A0E1           MOV      R0,R4
   \   00000028   ........           BL       ??MakeTankReport
   \   0000002C   10008DE2           ADD      R0,SP,#+16
   \   00000030   ........           _BLF     ??_Tidy0,??_Tidy0??rA
   \   00000034   10008DE2           ADD      R0,SP,#+16
   \   00000038   ........           _BLF     ??_Zero,??_Zero??rA
   \   0000003C   08208DE2           ADD      R2,SP,#+8
   \   00000040   0C108DE2           ADD      R1,SP,#+12
   \   00000044   0400A0E1           MOV      R0,R4
   \   00000048   ........           BL       ??PrintFooterText
   \   0000004C   4CD08DE2           ADD      SP,SP,#+76
   \   00000050   3040BDE8           POP      {R4,R5,LR}
   \   00000054   1EFF2FE1           BX       LR               ;; return
   \                     ??Subroutine13_0:
   \   00000058   ........           DC32     `?<Constant {1305, 1301, 1024, 9124, 9123}>`
   \   0000005C   ........           DC32     ??ObjVector_3
    154          

   \                                 In segment CODE, align 4, keep-with-next
    155          void MakeTankPressureReport(AnsiString &PrnBuf)
    156          {
    157          	const int TankValues[]  ={SVT_PRO_STATUS,SVT_PRO_NAME,SVT_PRESSURE,SVT_LO_PRESS_LIMIT,SVT_HI_PRESS_LIMIT};
   \                     ??MakeTankPressureReport:
   \   00000000   ........           LDR      R1,??Subroutine13_0  ;; `?<Constant {1305, 1301, 1024, 9124, 9123}>`
   \   00000004   30402DE9           PUSH     {R4,R5,LR}
   \   00000008   44D04DE2           SUB      SP,SP,#+68
   \   0000000C   2C5091E8           LDM      R1,{R2,R3,R5,R12,LR}
   \   00000010   0040A0E1           MOV      R4,R0
   \   00000014   30008DE2           ADD      R0,SP,#+48
    158          	int Page = 1 ;
   \   00000018   0110A0E3           MOV      R1,#+1
   \   0000001C   2C5080E8           STM      R0,{R2,R3,R5,R12,LR}
   \   00000020   04108DE5           STR      R1,[SP, #+4]
    159          	int Line = 1 ;
   \   00000024   00108DE5           STR      R1,[SP, #+0]
    160          	PrintHeadingText(PrnBuf,FindDictionaryWord(L_WORD623),Line) ;//Ballast tanks
   \   00000028   6F10A0E3           MOV      R1,#+111
   \   0000002C   801F81E3           ORR      R1,R1,#0x200
   \   00000030   14008DE2           ADD      R0,SP,#+20
   \   00000034   ........           _BLF     ??FindDictionaryWord,??FindDictionaryWord??rA
   \   00000038   0D20A0E1           MOV      R2,SP
   \   0000003C   14108DE2           ADD      R1,SP,#+20
   \   00000040   0400A0E1           MOV      R0,R4
   \   00000044   ........           BL       ??PrintHeadingText
   \   00000048   0020A0E3           MOV      R2,#+0
   \   0000004C   0110A0E3           MOV      R1,#+1
   \   00000050   14008DE2           ADD      R0,SP,#+20
   \   00000054   ........           _BLF     ??_Tidy,??_Tidy??rA
    161          	MakeTankReport(PrnBuf,PROTankPressure::ObjVector,(int*)TankValues,NELEMENTS(TankValues),Page,Line);
   \   00000058   08008DE2           ADD      R0,SP,#+8
   \   0000005C   ........           _BLF     ??_Zero,??_Zero??rA
   \   00000060   ........           LDR      R1,??Subroutine13_0+0x4  ;; ??ObjVector_3
   \   00000064                      REQUIRE ?Subroutine13
   \   00000064                      ;; // Fall through to label ?Subroutine13
    162          	PrintFooterText(PrnBuf,Page,Line);
    163          }

   \                                 In segment CODE, align 4, keep-with-next
    164          void MakeLinePressureReport(AnsiString &PrnBuf)
    165          {
    166          	const int TankValues[]  ={SVT_PRO_STATUS,SVT_PRO_NAME,SVT_PRESSURE,SVT_LO_PRESS_LIMIT,SVT_HI_PRESS_LIMIT};
   \                     ??MakeLinePressureReport:
   \   00000000   60109FE5           LDR      R1,??MakeLinePressureReport_1  ;; `?<Constant {1305, 1301, 1024, 9124, 9123}>_1`
   \   00000004   30402DE9           PUSH     {R4,R5,LR}
   \   00000008   44D04DE2           SUB      SP,SP,#+68
   \   0000000C   2C5091E8           LDM      R1,{R2,R3,R5,R12,LR}
   \   00000010   0040A0E1           MOV      R4,R0
   \   00000014   30008DE2           ADD      R0,SP,#+48
    167          	int Page = 1 ;
   \   00000018   0110A0E3           MOV      R1,#+1
   \   0000001C   2C5080E8           STM      R0,{R2,R3,R5,R12,LR}
   \   00000020   04108DE5           STR      R1,[SP, #+4]
    168          	int Line = 1 ;
   \   00000024   00108DE5           STR      R1,[SP, #+0]
    169          	PrintHeadingText(PrnBuf,FindDictionaryWord(L_WORD622),Line) ;//Ballast tanks
   \   00000028   6E10A0E3           MOV      R1,#+110
   \   0000002C   801F81E3           ORR      R1,R1,#0x200
   \   00000030   14008DE2           ADD      R0,SP,#+20
   \   00000034   ........           _BLF     ??FindDictionaryWord,??FindDictionaryWord??rA
   \   00000038   0D20A0E1           MOV      R2,SP
   \   0000003C   14108DE2           ADD      R1,SP,#+20
   \   00000040   0400A0E1           MOV      R0,R4
   \   00000044   ........           BL       ??PrintHeadingText
   \   00000048   0020A0E3           MOV      R2,#+0
   \   0000004C   0110A0E3           MOV      R1,#+1
   \   00000050   14008DE2           ADD      R0,SP,#+20
   \   00000054   ........           _BLF     ??_Tidy,??_Tidy??rA
    170          	MakeTankReport(PrnBuf,PROLinePressure::ObjVector,(int*)TankValues,NELEMENTS(TankValues),Page,Line);
   \   00000058   08008DE2           ADD      R0,SP,#+8
   \   0000005C   ........           _BLF     ??_Zero,??_Zero??rA
   \   00000060   04109FE5           LDR      R1,??MakeLinePressureReport_1+0x4  ;; ??ObjVector_4
   \   00000064   ........           B        ?Subroutine13
   \                     ??MakeLinePressureReport_1:
   \   00000068   ........           DC32     `?<Constant {1305, 1301, 1024, 9124, 9123}>_1`
   \   0000006C   ........           DC32     ??ObjVector_4
    171          	PrintFooterText(PrnBuf,Page,Line);
    172          }
    173          
    174          
    175          

   \                                 In segment CODE, align 4, keep-with-next
    176          void MakeReport(int ReportId, AnsiString &PrnBuf)
    177          {
   \                     ??MakeReport:
   \   00000000   F0402DE9           PUSH     {R4-R7,LR}
    178          #ifdef S2TXU
    179          	OS_Use(&LanguageSema);
   \   00000004   18619FE5           LDR      R6,??MakeReport_3  ;; LanguageSema
   \   00000008   0050A0E1           MOV      R5,R0
   \   0000000C   0140A0E1           MOV      R4,R1
   \   00000010   0600A0E1           MOV      R0,R6
   \   00000014   ........           _BLF     OS_Use,??OS_Use??rA
    180          #endif
    181          	int CLanguage = PROSystemData::CurrentLanguage;
   \   00000018   08019FE5           LDR      R0,??MakeReport_3+0x4  ;; ??CurrentLanguage
   \   0000001C   007090E5           LDR      R7,[R0, #+0]
    182          	SetCurrentLanguage(L_ENGLISH);
   \   00000020   0000A0E3           MOV      R0,#+0
   \   00000024   ........           _BLF     ??SetCurrentLanguage,??SetCurrentLanguage??rA
    183          
    184          	switch ( ReportId ) {
   \   00000028   060055E3           CMP      R5,#+6
   \   0000002C   1500008A           BHI      ??MakeReport_4
   \   00000030   010F8FE2           ADR      R0,??MakeReport_1
   \   00000034   0500D0E7           LDRB     R0,[R0, R5]
   \   00000038   00F18FE0           ADD      PC,PC,R0, LSL #+2
   \                     ??MakeReport_1:
   \   0000003C   0401070A           DC8      +4,+1,+7,+10
   \   00000040   100D0700           DC8      +16,+13,+7,+0
    185          		case REPORT_CARGO       :
    186          			MakeCargoTankReport(PrnBuf);
   \                     ??MakeReport_5:
   \   00000044   0400A0E1           MOV      R0,R4
   \   00000048   ........           BL       ??MakeCargoTankReport
   \   0000004C   0D0000EA           B        ??MakeReport_4
    187          			break;
    188          		case REPORT_BALLAST     :
    189          			MakeBallastTankReport(PrnBuf);
   \                     ??MakeReport_6:
   \   00000050   0400A0E1           MOV      R0,R4
   \   00000054   ........           BL       ??MakeBallastTankReport
   \   00000058   0A0000EA           B        ??MakeReport_4
    190          			break;
    191          		case REPORT_SERVICE     :
    192          			MakeServiceTankReport(PrnBuf);
   \                     ??MakeReport_7:
   \   0000005C   0400A0E1           MOV      R0,R4
   \   00000060   ........           BL       ??MakeServiceTankReport
   \   00000064   070000EA           B        ??MakeReport_4
    193          			break;
    194          		case REPORT_VOIDSPACE:
    195          			MakeServiceTankReport(PrnBuf);
    196          			break;
    197          		case REPORT_TEMPERATURE :
    198          			MakeTemperatureReport(PrnBuf);
   \                     ??MakeReport_8:
   \   00000068   0400A0E1           MOV      R0,R4
   \   0000006C   ........           BL       ??MakeTemperatureReport
   \   00000070   040000EA           B        ??MakeReport_4
    199          			break;
    200          		case REPORT_L_PRESSURE  :
    201          			MakeLinePressureReport(PrnBuf);
   \                     ??MakeReport_9:
   \   00000074   0400A0E1           MOV      R0,R4
   \   00000078   ........           BL       ??MakeLinePressureReport
   \   0000007C   010000EA           B        ??MakeReport_4
    202          			break;
    203          		case REPORT_T_PRESSURE  :
    204          			MakeTankPressureReport(PrnBuf);
   \                     ??MakeReport_10:
   \   00000080   0400A0E1           MOV      R0,R4
   \   00000084   ........           BL       ??MakeTankPressureReport
    205          			break;
    206          	}
    207          	SetCurrentLanguage(CLanguage);
   \                     ??MakeReport_4:
   \   00000088   0700A0E1           MOV      R0,R7
   \   0000008C   ........           _BLF     ??SetCurrentLanguage,??SetCurrentLanguage??rA
    208          #ifdef S2TXU
    209          	OS_Unuse(&LanguageSema);
   \   00000090   0600A0E1           MOV      R0,R6
   \   00000094   ........           _BLF     OS_Unuse,??OS_Unuse??rA
    210          #endif
    211          	for ( int i=0; i < PrnBuf.Length(); i++ ) {
   \   00000098   0050A0E3           MOV      R5,#+0
   \   0000009C   020000EA           B        ??MakeReport_11
    212          		switch ( PrnBuf[i] ) {
    213          			case '':PrnBuf[i] = '^';break;
    214          			case '':PrnBuf[i] = '2';break;
    215          			case '':PrnBuf[i] = '3';break;
   \                     ??MakeReport_12:
   \   000000A0   3310A0E3           MOV      R1,#+51
   \                     ??MakeReport_13:
   \   000000A4   0010C5E7           STRB     R1,[R5, +R0]
   \                     ??MakeReport_14:
   \   000000A8   015085E2           ADD      R5,R5,#+1
   \                     ??MakeReport_11:
   \   000000AC   0400A0E1           MOV      R0,R4
   \   000000B0   ........           _BLF     ??Length,??Length??rA
   \   000000B4   000055E1           CMP      R5,R0
   \   000000B8   170000AA           BGE      ??MakeReport_15
   \   000000BC   040094E5           LDR      R0,[R4, #+4]
   \   000000C0   181094E5           LDR      R1,[R4, #+24]
   \   000000C4   100051E3           CMP      R1,#+16
   \   000000C8   0020A021           MOVCS    R2,R0
   \   000000CC   04208432           ADDCC    R2,R4,#+4
   \   000000D0   0220D5E7           LDRB     R2,[R5, +R2]
   \   000000D4   B02042E2           SUB      R2,R2,#+176
   \   000000D8   030052E3           CMP      R2,#+3
   \   000000DC   F1FFFF8A           BHI      ??MakeReport_14
   \   000000E0   013F8FE2           ADR      R3,??MakeReport_2
   \   000000E4   D23093E1           LDRSB    R3,[R3, R2]
   \   000000E8   03F18FE0           ADD      PC,PC,R3, LSL #+2
   \                     ??MakeReport_2:
   \   000000EC   00EE0408           DC8      +0,+238,+4,+8
   \                     ??MakeReport_16:
   \   000000F0   100051E3           CMP      R1,#+16
   \   000000F4   04008432           ADDCC    R0,R4,#+4
   \   000000F8   5E10A0E3           MOV      R1,#+94
   \   000000FC   E8FFFFEA           B        ??MakeReport_13
   \                     ??MakeReport_17:
   \   00000100   100051E3           CMP      R1,#+16
   \   00000104   04008432           ADDCC    R0,R4,#+4
   \   00000108   3210A0E3           MOV      R1,#+50
   \   0000010C   E4FFFFEA           B        ??MakeReport_13
   \                     ??MakeReport_18:
   \   00000110   100051E3           CMP      R1,#+16
   \   00000114   04008432           ADDCC    R0,R4,#+4
   \   00000118   E0FFFFEA           B        ??MakeReport_12
    216          		}
    217          	}
    218          }
   \                     ??MakeReport_15:
   \   0000011C   F040BDE8           POP      {R4-R7,LR}
   \   00000120   1EFF2FE1           BX       LR               ;; return
   \                     ??MakeReport_3:
   \   00000124   ........           DC32     LanguageSema
   \   00000128   ........           DC32     ??CurrentLanguage

   \                                 In segment DIFUNCT, align 4, keep-with-next, root
   \   00000000                      REQUIRE ?call_ctors
   \   00000000   ........           DC32    ??__sti__routine

   \                                 In segment DATA_C, align 4, align-sorted
   \                     `?<Constant "Surveyor:">`:
   \   00000000   537572766579       DC8 "Surveyor:"
   \              6F723A00    
   \   0000000A   0000               DC8 0, 0

   \                                 In segment DATA_C, align 4, align-sorted
   \   00000000   20202000           DC8 "   "

   \                                 In segment DATA_C, align 1, align-sorted
   \   00000000   202000             DC8 "  "

   \                                 In segment DATA_C, align 4, align-sorted
   \   00000000   252A7300           DC8 "%*s"

   \                                 In segment DATA_C, align 4, align-sorted
   \                     `?<Constant {1305, 1301, 1003, 1020, 1021, 1004`:
   \   00000000   190500001505       DC32 1305, 1301, 1003, 1020, 1021, 1004, 1006, 2003
   \              0000EB030000
   \              FC030000FD03
   \              0000EC030000
   \              EE030000D307
   \              0000        

   \                                 In segment DATA_C, align 4, align-sorted
   \                     `?<Constant {1305, 1301, 1043, 1022, 1020, 1021`:
   \   00000000   190500001505       DC32 1305, 1301, 1043, 1022, 1020, 1021, 1023, 1006
   \              000013040000
   \              FE030000FC03
   \              0000FD030000
   \              FF030000EE03
   \              0000        

   \                                 In segment DATA_C, align 4, align-sorted
   \                     `?<Constant {1305, 1301, 1043, 1022, 1020, 1021_1`:
   \   00000000   190500001505       DC32 1305, 1301, 1043, 1022, 1020, 1021, 1023, 1006
   \              000013040000
   \              FE030000FC03
   \              0000FD030000
   \              FF030000EE03
   \              0000        

   \                                 In segment DATA_C, align 4, align-sorted
   \                     `?<Constant {1305, 1301, 1004, 9101, 9100}>`:
   \   00000000   190500001505       DC32 1305, 1301, 1004, 9101, 9100
   \              0000EC030000
   \              8D2300008C23
   \              0000        

   \                                 In segment DATA_C, align 4, align-sorted
   \                     `?<Constant {1305, 1301, 1024, 9124, 9123}>`:
   \   00000000   190500001505       DC32 1305, 1301, 1024, 9124, 9123
   \              000000040000
   \              A4230000A323
   \              0000        

   \                                 In segment DATA_C, align 4, align-sorted
   \                     `?<Constant {1305, 1301, 1024, 9124, 9123}>_1`:
   \   00000000   190500001505       DC32 1305, 1301, 1024, 9124, 9123
   \              000000040000
   \              A4230000A323
   \              0000        

   \                                 In segment CODE, align 4, keep-with-next
   \   static __??Code32?? __intrinsic __code __interwork __atpcs void __sti__routine()
   \                     ??__sti__routine:
   \   00000000   1EFF2FE1           BX       LR               ;; return

   \                                 In segment CODE, align 4, keep-with-next
   \                     ??DataTable10:
   \   00000000   ........           DC32     TabStr1

   \                                 In segment CODE, align 4, keep-with-next
   \                     ??DataTable11:
   \   00000000   ........           DC32     CrLfStr

   \                                 In segment CODE, align 4, keep-with-next
   \                     ??DataTable12:
   \   00000000   ........           DC32     ??npos

   Maximum stack usage in bytes:

     Function                       CSTACK
     --------                       ------
     MakeBallastTankReport(AnsiString &)
                                      112
     MakeCargoTankReport(AnsiString &)
                                      112
     MakeLinePressureReport(AnsiString &)
                                       88
     MakeReport(int, AnsiString &)     20
     MakeServiceTankReport(AnsiString &)
                                      612
     MakeTankPressureReport(AnsiString &)
                                       88
     MakeTankReport(AnsiString &, vector<PRogramObjectBase *>, int *, int, int &, int &)
                                      320
     MakeTemperatureReport(AnsiString &)
                                       88
     PrintFooterText(AnsiString &, int &, int &)
                                      584
     PrintHeadingText(AnsiString &, AnsiString, int &)
                                      276
     PrintLine(AnsiString &, int &)    92
     _Vector_impl<PRogramObjectBase *, allocator<PRogramObjectBase *>>::_Assign(_Vector_impl<PRogramObjectBase *, allocator<PRogramObjectBase *>> const &)
                                       20
     _Vector_impl<PRogramObjectBase *, allocator<PRogramObjectBase *>>::_Insert(PRogramObjectBase **, PRogramObjectBase * const &)
                                       16
     _Vector_impl<PRogramObjectBase *, allocator<PRogramObjectBase *>>::_Make_room(PRogramObjectBase **, unsigned int)
                                       32
     _Vector_impl<PRogramObjectBase *, allocator<PRogramObjectBase *>>::_Push_back0(PRogramObjectBase *)
                                        8
     _Vector_impl<PRogramObjectBase *, allocator<PRogramObjectBase *>>::_Tidy0()
                                        4
     _Vector_value<allocator<void>>::_Zero()
                                        0
     __sti__routine()                   0
     operator+(char const *, string const &)
                                       44
     operator+(string const &, char const *)
                                       44
     operator+(string const &, char)
                                       40
     operator+(string const &, string const &)
                                       40
     string::string(string const &)    12


   Segment part sizes:

     Function/Label                 Bytes
     --------------                 -----
     string::string(string const &)   64
     _Vector_value<allocator<void>>::_Zero()
                                      20
     _Vector_impl<PRogramObjectBase *, allocator<PRogramObjectBase *>>::_Tidy0()
                                      36
     _Vector_impl<PRogramObjectBase *, allocator<PRogramObjectBase *>>::_Assign(_Vector_impl<PRogramObjectBase *, allocator<PRogramObjectBase *>> const &)
                                     224
     _Vector_impl<PRogramObjectBase *, allocator<PRogramObjectBase *>>::_Insert(PRogramObjectBase **, PRogramObjectBase * const &)
                                      72
     _Vector_impl<PRogramObjectBase *, allocator<PRogramObjectBase *>>::_Make_room(PRogramObjectBase **, unsigned int)
                                     232
     _Vector_impl<PRogramObjectBase *, allocator<PRogramObjectBase *>>::_Push_back0(PRogramObjectBase *)
                                      72
     operator+(string const &, string const &)
                                      88
     operator+(char const *, string const &)
                                     128
     operator+(string const &, char const *)
                                      92
     operator+(string const &, char)
                                      76
     Width                            36
     PrintLine(AnsiString &, int &)  144
     PrintHeadingText(AnsiString &, AnsiString, int &)
                                     400
     ?Subroutine12                    96
     PrintFooterText(AnsiString &, int &, int &)
                                     804
     MakeTankReport(AnsiString &, vector<PRogramObjectBase *>, int *, int, int &, int &)
                                    1100
     MakeCargoTankReport(AnsiString &)
                                     108
     MakeBallastTankReport(AnsiString &)
                                     100
     MakeServiceTankReport(AnsiString &)
                                    1144
     MakeTemperatureReport(AnsiString &)
                                     108
     ?Subroutine13                    96
     MakeTankPressureReport(AnsiString &)
                                     100
     MakeLinePressureReport(AnsiString &)
                                     112
     MakeReport(int, AnsiString &)   300
     ?<Constant "Surveyor:">          12
     ?<Constant "   ">                 4
     ?<Constant "  ">                  3
     ?<Constant "%*s">                 4
     ?<Constant {1305, 1301, 1003, 1020, 1021, 1004
                                      32
     ?<Constant {1305, 1301, 1043, 1022, 1020, 1021
                                      32
     ?<Constant {1305, 1301, 1043, 1022, 1020, 1021_1
                                      32
     ?<Constant {1305, 1301, 1004, 9101, 9100}>
                                      20
     ?<Constant {1305, 1301, 1024, 9124, 9123}>
                                      20
     ?<Constant {1305, 1301, 1024, 9124, 9123}>_1
                                      20
     __sti__routine()                  4
     ??DataTable10                     4
     ??DataTable11                     4
     ??DataTable12                     4
      Others                         496

 
 6 224 bytes in segment CODE
   215 bytes in segment DATA_C
     4 bytes in segment DIFUNCT
 
 4 632 bytes of CODE  memory (+ 1 596 bytes shared)
   215 bytes of CONST memory

Errors: none
Warnings: none
