##############################################################################
#                                                                            #
# IAR ARM ANSI C/C++ Compiler V4.42A/W32               14/Sep/2022  15:17:14 #
# Copyright 1999-2005 IAR Systems. All rights reserved.                      #
#                                                                            #
#    Cpu mode        =  interwork                                            #
#    Endian          =  little                                               #
#    Stack alignment =  4                                                    #
#    Source file     =  D:\S2Prog\Shared\Src\PRogramObjectBase.cpp           #
#    Command line    =  D:\S2Prog\Shared\Src\PRogramObjectBase.cpp --fpu     #
#                       None -D OS_LIBMODE_SP -D CPU_S3C2410 -D              #
#                       OS_RAMVECT=0 -D OS_UART=-1 -D S2TXU -D USE_LZO=1 -D  #
#                       __ARM_LIBRARY__ -D WATCHDOG=1 -D NETWORK=1 -lCN      #
#                       D:\S2Prog\TXU\Debug\List\ -o                         #
#                       D:\S2Prog\TXU\Debug\Obj\ -z9 --debug --cpu_mode arm  #
#                       --endian little --cpu ARM920T --stack_align 4        #
#                       --interwork -e --enable_multibytes --eec++           #
#                       --dlib_config "C:\Program Files (x86)\IAR            #
#                       Systems\Embedded Workbench                           #
#                       4.0\arm\LIB\dl4tpainl8n.h" -I                        #
#                       D:\S2Prog\TXU\GUI\CORE\ -I D:\S2Prog\TXU\GUI\WM\ -I  #
#                       D:\S2Prog\TXU\GUI\WIDGET\ -I D:\S2Prog\TXU\CONFIG\   #
#                       -I D:\S2Prog\TXU\INC\ -I D:\S2Prog\TXU\..\SHARED\INC #
#                       \ -I D:\S2Prog\TXU\..\SHARED\SRC\ -I                 #
#                       D:\S2Prog\TXU\..\SHARED\LZO\minilzo.210\ -I          #
#                       D:\S2Prog\TXU\lwip-1.4.1\src\include\ -I             #
#                       D:\S2Prog\TXU\lwip-1.4.1\src\include\ipv4\ -I        #
#                       D:\S2Prog\TXU\lwip-1.4.1\src\ -I                     #
#                       D:\S2Prog\TXU\..\SHARED\Database\ -I                 #
#                       D:\S2Prog\TXU\src\ -I "C:\Program Files (x86)\IAR    #
#                       Systems\Embedded Workbench 4.0\arm\INC\"             #
#                       --inline_threshold=2                                 #
#    List file       =  D:\S2Prog\TXU\Debug\List\PRogramObjectBase.lst       #
#    Object file     =  D:\S2Prog\TXU\Debug\Obj\PRogramObjectBase.r79        #
#                                                                            #
#                                                                            #
##############################################################################

D:\S2Prog\Shared\Src\PRogramObjectBase.cpp
      1          #include "TSNIncludes.h"

   \                                 In segment CODE, align 4, keep-with-next
   \   __??Code32?? __code __interwork __atpcs string::string(string const &)
   \                     ??string:
   \   00000000   30402DE9           PUSH     {R4,R5,LR}
   \   00000004   0040A0E1           MOV      R4,R0
   \   00000008   0150A0E1           MOV      R5,R1
   \   0000000C   0020A0E3           MOV      R2,#+0
   \   00000010   0010A0E3           MOV      R1,#+0
   \   00000014   ........           _BLF     ??_Tidy_1,??_Tidy??rA
   \   00000018   1C009FE5           LDR      R0,??string_1    ;; ??npos
   \   0000001C   0020A0E3           MOV      R2,#+0
   \   00000020   003090E5           LDR      R3,[R0, #+0]
   \   00000024   0510A0E1           MOV      R1,R5
   \   00000028   0400A0E1           MOV      R0,R4
   \   0000002C   ........           _BLF     ??assign,??assign??rA
   \   00000030   0400A0E1           MOV      R0,R4
   \   00000034   3040BDE8           POP      {R4,R5,LR}
   \   00000038   1EFF2FE1           BX       LR               ;; return
   \                     ??string_1:
   \   0000003C   ........           DC32     ??npos

   \                                 In segment CODE, align 4, keep-with-next
   \   __??Code32?? __code __interwork __atpcs _Tree_algobase<allocator<void>>::_Genptr _Tree_algobase<allocator<void>>::_Max(_Tree_algobase<allocator<void>>::_Genptr)
   \                     ??_Max:
   \   00000000   000000EA           B        ??_Max_1
   \                     ??_Max_2:
   \   00000004   080090E5           LDR      R0,[R0, #+8]
   \                     ??_Max_1:
   \   00000008   081090E5           LDR      R1,[R0, #+8]
   \   0000000C   0D10D1E5           LDRB     R1,[R1, #+13]
   \   00000010   000051E3           CMP      R1,#+0
   \   00000014   FAFFFF0A           BEQ      ??_Max_2
   \   00000018   1EFF2FE1           BX       LR               ;; return

   \                                 In segment CODE, align 4, keep-with-next
   \   __??Code32?? __code __interwork __atpcs _Tree_algobase<allocator<void>>::_Genptr _Tree_algobase<allocator<void>>::_DecP(_Tree_algobase<allocator<void>>::_Genptr)
   \                     ??_DecP:
   \   00000000   00402DE9           PUSH     {LR}
   \   00000004   0D10D0E5           LDRB     R1,[R0, #+13]
   \   00000008   000051E3           CMP      R1,#+0
   \   0000000C   08009015           LDRNE    R0,[R0, #+8]
   \   00000010   0E00001A           BNE      ??_DecP_1
   \   00000014   001090E5           LDR      R1,[R0, #+0]
   \   00000018   0D20D1E5           LDRB     R2,[R1, #+13]
   \   0000001C   000052E3           CMP      R2,#+0
   \   00000020   0200001A           BNE      ??_DecP_2
   \   00000024   0100A0E1           MOV      R0,R1
   \   00000028   ........           _BLF     ??_Max,??_Max??rA
   \   0000002C   070000EA           B        ??_DecP_1
   \                     ??_DecP_2:
   \   00000030   041090E5           LDR      R1,[R0, #+4]
   \   00000034   0D20D1E5           LDRB     R2,[R1, #+13]
   \   00000038   000052E3           CMP      R2,#+0
   \   0000003C   0300001A           BNE      ??_DecP_1
   \   00000040   002091E5           LDR      R2,[R1, #+0]
   \   00000044   020050E1           CMP      R0,R2
   \   00000048   0100A0E1           MOV      R0,R1
   \   0000004C   F7FFFF0A           BEQ      ??_DecP_2
   \                     ??_DecP_1:
   \   00000050   0040BDE8           POP      {LR}
   \   00000054   1EFF2FE1           BX       LR               ;; return

   \                                 In segment CODE, align 4, keep-with-next
   \   __??Code32?? __code __interwork __atpcs _Tree_algobase<allocator<void>>::_Genptr _Tree_algobase<allocator<void>>::_IncP(_Tree_algobase<allocator<void>>::_Genptr)
   \                     ??_IncP:
   \   00000000   0D10D0E5           LDRB     R1,[R0, #+13]
   \   00000004   000051E3           CMP      R1,#+0
   \   00000008   1EFF2F11           BXNE     LR
   \   0000000C   081090E5           LDR      R1,[R0, #+8]
   \   00000010   0D20D1E5           LDRB     R2,[R1, #+13]
   \   00000014   000052E3           CMP      R2,#+0
   \   00000018   0700001A           BNE      ??_IncP_1
   \   0000001C   000000EA           B        ??_IncP_2
   \                     ??_IncP_3:
   \   00000020   0010A0E1           MOV      R1,R0
   \                     ??_IncP_2:
   \   00000024   000091E5           LDR      R0,[R1, #+0]
   \   00000028   0D20D0E5           LDRB     R2,[R0, #+13]
   \   0000002C   000052E3           CMP      R2,#+0
   \   00000030   FAFFFF0A           BEQ      ??_IncP_3
   \   00000034   060000EA           B        ??_IncP_4
   \                     ??_IncP_5:
   \   00000038   0100A0E1           MOV      R0,R1
   \                     ??_IncP_1:
   \   0000003C   041090E5           LDR      R1,[R0, #+4]
   \   00000040   0D20D1E5           LDRB     R2,[R1, #+13]
   \   00000044   000052E3           CMP      R2,#+0
   \   00000048   08209105           LDREQ    R2,[R1, #+8]
   \   0000004C   02005001           CMPEQ    R0,R2
   \   00000050   F8FFFF0A           BEQ      ??_IncP_5
   \                     ??_IncP_4:
   \   00000054   0100A0E1           MOV      R0,R1
   \   00000058   1EFF2FE1           BX       LR               ;; return

   \                                 In segment CODE, align 4, keep-with-next
   \   __??Code32?? __code __interwork __atpcs void _Tree_algobase<allocator<void>>::_Clear()
   \                     ??_Clear:
   \   00000000   040080E5           STR      R0,[R0, #+4]
   \   00000004   000080E5           STR      R0,[R0, #+0]
   \   00000008   080080E5           STR      R0,[R0, #+8]
   \   0000000C   0110A0E3           MOV      R1,#+1
   \   00000010   0D10C0E5           STRB     R1,[R0, #+13]
   \   00000014   0C10C0E5           STRB     R1,[R0, #+12]
   \   00000018   0010A0E3           MOV      R1,#+0
   \   0000001C   101080E5           STR      R1,[R0, #+16]
   \   00000020   1EFF2FE1           BX       LR               ;; return

   \                                 In segment CODE, align 4, keep-with-next
   \   __??Code32?? __code __interwork __atpcs void _Tree_algobase<allocator<void>>::_Rrotate(_Tree_algobase<allocator<void>>::_Genptr)
   \                     ??_Rrotate:
   \   00000000   002091E5           LDR      R2,[R1, #+0]
   \   00000004   083092E5           LDR      R3,[R2, #+8]
   \   00000008   003081E5           STR      R3,[R1, #+0]
   \   0000000C   083092E5           LDR      R3,[R2, #+8]
   \   00000010   0DC0D3E5           LDRB     R12,[R3, #+13]
   \   00000014   00005CE3           CMP      R12,#+0
   \   00000018   04108305           STREQ    R1,[R3, #+4]
   \   0000001C   043091E5           LDR      R3,[R1, #+4]
   \   00000020   043082E5           STR      R3,[R2, #+4]
   \   00000024   043090E5           LDR      R3,[R0, #+4]
   \   00000028   030051E1           CMP      R1,R3
   \   0000002C   04208005           STREQ    R2,[R0, #+4]
   \   00000030   0400000A           BEQ      ??_Rrotate_1
   \   00000034   040091E5           LDR      R0,[R1, #+4]
   \   00000038   083090E5           LDR      R3,[R0, #+8]
   \   0000003C   030051E1           CMP      R1,R3
   \   00000040   08208005           STREQ    R2,[R0, #+8]
   \   00000044   00208015           STRNE    R2,[R0, #+0]
   \                     ??_Rrotate_1:
   \   00000048   081082E5           STR      R1,[R2, #+8]
   \   0000004C   042081E5           STR      R2,[R1, #+4]
   \   00000050   1EFF2FE1           BX       LR               ;; return

   \                                 In segment CODE, align 4, keep-with-next
   \   __??Code32?? __code __interwork __atpcs void _Tree_algobase<allocator<void>>::_Lrotate(_Tree_algobase<allocator<void>>::_Genptr)
   \                     ??_Lrotate:
   \   00000000   082091E5           LDR      R2,[R1, #+8]
   \   00000004   003092E5           LDR      R3,[R2, #+0]
   \   00000008   083081E5           STR      R3,[R1, #+8]
   \   0000000C   003092E5           LDR      R3,[R2, #+0]
   \   00000010   0DC0D3E5           LDRB     R12,[R3, #+13]
   \   00000014   00005CE3           CMP      R12,#+0
   \   00000018   04108305           STREQ    R1,[R3, #+4]
   \   0000001C   043091E5           LDR      R3,[R1, #+4]
   \   00000020   043082E5           STR      R3,[R2, #+4]
   \   00000024   043090E5           LDR      R3,[R0, #+4]
   \   00000028   030051E1           CMP      R1,R3
   \   0000002C   04208005           STREQ    R2,[R0, #+4]
   \   00000030   0400000A           BEQ      ??_Lrotate_1
   \   00000034   040091E5           LDR      R0,[R1, #+4]
   \   00000038   003090E5           LDR      R3,[R0, #+0]
   \   0000003C   030051E1           CMP      R1,R3
   \   00000040   00208005           STREQ    R2,[R0, #+0]
   \   00000044   08208015           STRNE    R2,[R0, #+8]
   \                     ??_Lrotate_1:
   \   00000048   001082E5           STR      R1,[R2, #+0]
   \   0000004C   042081E5           STR      R2,[R1, #+4]
   \   00000050   1EFF2FE1           BX       LR               ;; return

   \                                 In segment CODE, align 4, keep-with-next
   \   __??Code32?? __code __interwork __atpcs _Tree_algobase<allocator<void>>::_Genptr _Tree_algobase<allocator<void>>::_Erase(_Tree_algobase<allocator<void>>::_Genptr)
   \                     ??_Erase:
   \   00000000   F0472DE9           PUSH     {R4-R10,LR}
   \   00000004   0040A0E1           MOV      R4,R0
   \   00000008   0160A0E1           MOV      R6,R1
   \   0000000C   0680A0E1           MOV      R8,R6
   \   00000010   0600A0E1           MOV      R0,R6
   \   00000014   ........           _BLF     ??_IncP,??_IncP??rA
   \   00000018   007098E5           LDR      R7,[R8, #+0]
   \   0000001C   0D10D7E5           LDRB     R1,[R7, #+13]
   \   00000020   000051E3           CMP      R1,#+0
   \   00000024   0400001A           BNE      ??_Erase_5
   \   00000028   081098E5           LDR      R1,[R8, #+8]
   \   0000002C   0D10D1E5           LDRB     R1,[R1, #+13]
   \   00000030   000051E3           CMP      R1,#+0
   \   00000034   0100001A           BNE      ??_Erase_6
   \   00000038   0080A0E1           MOV      R8,R0
   \                     ??_Erase_5:
   \   0000003C   087098E5           LDR      R7,[R8, #+8]
   \                     ??_Erase_6:
   \   00000040   060058E1           CMP      R8,R6
   \   00000044   2500001A           BNE      ??_Erase_7
   \   00000048   0D00D7E5           LDRB     R0,[R7, #+13]
   \   0000004C   045096E5           LDR      R5,[R6, #+4]
   \   00000050   000050E3           CMP      R0,#+0
   \   00000054   04508705           STREQ    R5,[R7, #+4]
   \   00000058   040094E5           LDR      R0,[R4, #+4]
   \   0000005C   060050E1           CMP      R0,R6
   \   00000060   04708405           STREQ    R7,[R4, #+4]
   \   00000064   0300000A           BEQ      ??_Erase_8
   \   00000068   000095E5           LDR      R0,[R5, #+0]
   \   0000006C   060050E1           CMP      R0,R6
   \   00000070   00708505           STREQ    R7,[R5, #+0]
   \   00000074   08708515           STRNE    R7,[R5, #+8]
   \                     ??_Erase_8:
   \   00000078   000094E5           LDR      R0,[R4, #+0]
   \   0000007C   060050E1           CMP      R0,R6
   \   00000080   0B00001A           BNE      ??_Erase_9
   \   00000084   0D00D7E5           LDRB     R0,[R7, #+13]
   \   00000088   000050E3           CMP      R0,#+0
   \   0000008C   0500A011           MOVNE    R0,R5
   \   00000090   0600001A           BNE      ??_Erase_10
   \   00000094   0700A0E1           MOV      R0,R7
   \   00000098   000000EA           B        ??_Erase_11
   \                     ??_Erase_12:
   \   0000009C   0100A0E1           MOV      R0,R1
   \                     ??_Erase_11:
   \   000000A0   001090E5           LDR      R1,[R0, #+0]
   \   000000A4   0D20D1E5           LDRB     R2,[R1, #+13]
   \   000000A8   000052E3           CMP      R2,#+0
   \   000000AC   FAFFFF0A           BEQ      ??_Erase_12
   \                     ??_Erase_10:
   \   000000B0   000084E5           STR      R0,[R4, #+0]
   \                     ??_Erase_9:
   \   000000B4   080094E5           LDR      R0,[R4, #+8]
   \   000000B8   060050E1           CMP      R0,R6
   \   000000BC   2900001A           BNE      ??_Erase_13
   \   000000C0   0D00D7E5           LDRB     R0,[R7, #+13]
   \   000000C4   000050E3           CMP      R0,#+0
   \   000000C8   0500A011           MOVNE    R0,R5
   \   000000CC   0100001A           BNE      ??_Erase_14
   \   000000D0   0700A0E1           MOV      R0,R7
   \   000000D4   ........           _BLF     ??_Max,??_Max??rA
   \                     ??_Erase_14:
   \   000000D8   080084E5           STR      R0,[R4, #+8]
   \   000000DC   210000EA           B        ??_Erase_13
   \                     ??_Erase_7:
   \   000000E0   000096E5           LDR      R0,[R6, #+0]
   \   000000E4   048080E5           STR      R8,[R0, #+4]
   \   000000E8   000096E5           LDR      R0,[R6, #+0]
   \   000000EC   000088E5           STR      R0,[R8, #+0]
   \   000000F0   080096E5           LDR      R0,[R6, #+8]
   \   000000F4   000058E1           CMP      R8,R0
   \   000000F8   0850A001           MOVEQ    R5,R8
   \   000000FC   0800000A           BEQ      ??_Erase_15
   \   00000100   0D00D7E5           LDRB     R0,[R7, #+13]
   \   00000104   045098E5           LDR      R5,[R8, #+4]
   \   00000108   000050E3           CMP      R0,#+0
   \   0000010C   04508705           STREQ    R5,[R7, #+4]
   \   00000110   007085E5           STR      R7,[R5, #+0]
   \   00000114   080096E5           LDR      R0,[R6, #+8]
   \   00000118   080088E5           STR      R0,[R8, #+8]
   \   0000011C   080096E5           LDR      R0,[R6, #+8]
   \   00000120   048080E5           STR      R8,[R0, #+4]
   \                     ??_Erase_15:
   \   00000124   040094E5           LDR      R0,[R4, #+4]
   \   00000128   060050E1           CMP      R0,R6
   \   0000012C   04808405           STREQ    R8,[R4, #+4]
   \   00000130   0400000A           BEQ      ??_Erase_16
   \   00000134   040096E5           LDR      R0,[R6, #+4]
   \   00000138   001090E5           LDR      R1,[R0, #+0]
   \   0000013C   060051E1           CMP      R1,R6
   \   00000140   00808005           STREQ    R8,[R0, #+0]
   \   00000144   08808015           STRNE    R8,[R0, #+8]
   \                     ??_Erase_16:
   \   00000148   040096E5           LDR      R0,[R6, #+4]
   \   0000014C   0C1088E2           ADD      R1,R8,#+12
   \   00000150   040088E5           STR      R0,[R8, #+4]
   \   00000154   0020D1E5           LDRB     R2,[R1, #+0]
   \   00000158   0C0086E2           ADD      R0,R6,#+12
   \   0000015C   0030D0E5           LDRB     R3,[R0, #+0]
   \   00000160   0030C1E5           STRB     R3,[R1, #+0]
   \   00000164   0020C0E5           STRB     R2,[R0, #+0]
   \                     ??_Erase_13:
   \   00000168   0C00D6E5           LDRB     R0,[R6, #+12]
   \   0000016C   010050E3           CMP      R0,#+1
   \   00000170   5E00001A           BNE      ??_Erase_17
   \   00000174   0090A0E3           MOV      R9,#+0
   \   00000178   01A0A0E3           MOV      R10,#+1
   \   0000017C   060000EA           B        ??_Erase_18
   \                     ??_Erase_19:
   \   00000180   080098E5           LDR      R0,[R8, #+8]
   \   00000184   0C00D0E5           LDRB     R0,[R0, #+12]
   \   00000188   010050E3           CMP      R0,#+1
   \   0000018C   1C00001A           BNE      ??_Erase_20
   \                     ??_Erase_21:
   \   00000190   0C90C8E5           STRB     R9,[R8, #+12]
   \                     ??_Erase_22:
   \   00000194   0570A0E1           MOV      R7,R5
   \   00000198   045097E5           LDR      R5,[R7, #+4]
   \                     ??_Erase_18:
   \   0000019C   040094E5           LDR      R0,[R4, #+4]
   \   000001A0   000057E1           CMP      R7,R0
   \   000001A4   5000000A           BEQ      ??_Erase_23
   \   000001A8   0C00D7E5           LDRB     R0,[R7, #+12]
   \   000001AC   010050E3           CMP      R0,#+1
   \   000001B0   4D00001A           BNE      ??_Erase_23
   \   000001B4   008095E5           LDR      R8,[R5, #+0]
   \   000001B8   080057E1           CMP      R7,R8
   \   000001BC   2400001A           BNE      ??_Erase_24
   \   000001C0   088095E5           LDR      R8,[R5, #+8]
   \   000001C4   0C00D8E5           LDRB     R0,[R8, #+12]
   \   000001C8   000050E3           CMP      R0,#+0
   \   000001CC   0500001A           BNE      ??_Erase_25
   \   000001D0   0CA0C8E5           STRB     R10,[R8, #+12]
   \   000001D4   0C90C5E5           STRB     R9,[R5, #+12]
   \   000001D8   0510A0E1           MOV      R1,R5
   \   000001DC   0400A0E1           MOV      R0,R4
   \   000001E0   ........           _BLF     ??_Lrotate,??_Lrotate??rA
   \   000001E4   088095E5           LDR      R8,[R5, #+8]
   \                     ??_Erase_25:
   \   000001E8   0D00D8E5           LDRB     R0,[R8, #+13]
   \   000001EC   000050E3           CMP      R0,#+0
   \   000001F0   E7FFFF1A           BNE      ??_Erase_22
   \   000001F4   000098E5           LDR      R0,[R8, #+0]
   \   000001F8   0C00D0E5           LDRB     R0,[R0, #+12]
   \   000001FC   010050E3           CMP      R0,#+1
   \   00000200   DEFFFF0A           BEQ      ??_Erase_19
   \                     ??_Erase_20:
   \   00000204   080098E5           LDR      R0,[R8, #+8]
   \   00000208   0C00D0E5           LDRB     R0,[R0, #+12]
   \   0000020C   010050E3           CMP      R0,#+1
   \   00000210   0600001A           BNE      ??_Erase_26
   \   00000214   000098E5           LDR      R0,[R8, #+0]
   \   00000218   0810A0E1           MOV      R1,R8
   \   0000021C   0CA0C0E5           STRB     R10,[R0, #+12]
   \   00000220   0C90C8E5           STRB     R9,[R8, #+12]
   \   00000224   0400A0E1           MOV      R0,R4
   \   00000228   ........           _BLF     ??_Rrotate,??_Rrotate??rA
   \   0000022C   088095E5           LDR      R8,[R5, #+8]
   \                     ??_Erase_26:
   \   00000230   0C00D5E5           LDRB     R0,[R5, #+12]
   \   00000234   0510A0E1           MOV      R1,R5
   \   00000238   0C00C8E5           STRB     R0,[R8, #+12]
   \   0000023C   0CA0C5E5           STRB     R10,[R5, #+12]
   \   00000240   080098E5           LDR      R0,[R8, #+8]
   \   00000244   0CA0C0E5           STRB     R10,[R0, #+12]
   \   00000248   0400A0E1           MOV      R0,R4
   \   0000024C   ........           _BLF     ??_Lrotate,??_Lrotate??rA
   \   00000250   250000EA           B        ??_Erase_23
   \                     ??_Erase_24:
   \   00000254   0C00D8E5           LDRB     R0,[R8, #+12]
   \   00000258   000050E3           CMP      R0,#+0
   \   0000025C   0500001A           BNE      ??_Erase_27
   \   00000260   0CA0C8E5           STRB     R10,[R8, #+12]
   \   00000264   0C90C5E5           STRB     R9,[R5, #+12]
   \   00000268   0510A0E1           MOV      R1,R5
   \   0000026C   0400A0E1           MOV      R0,R4
   \   00000270   ........           _BLF     ??_Rrotate,??_Rrotate??rA
   \   00000274   008095E5           LDR      R8,[R5, #+0]
   \                     ??_Erase_27:
   \   00000278   0D00D8E5           LDRB     R0,[R8, #+13]
   \   0000027C   000050E3           CMP      R0,#+0
   \   00000280   C3FFFF1A           BNE      ??_Erase_22
   \   00000284   080098E5           LDR      R0,[R8, #+8]
   \   00000288   0C00D0E5           LDRB     R0,[R0, #+12]
   \   0000028C   010050E3           CMP      R0,#+1
   \   00000290   00009805           LDREQ    R0,[R8, #+0]
   \   00000294   0C00D005           LDRBEQ   R0,[R0, #+12]
   \   00000298   01005003           CMPEQ    R0,#+1
   \   0000029C   BBFFFF0A           BEQ      ??_Erase_21
   \   000002A0   000098E5           LDR      R0,[R8, #+0]
   \   000002A4   0C00D0E5           LDRB     R0,[R0, #+12]
   \   000002A8   010050E3           CMP      R0,#+1
   \   000002AC   0600001A           BNE      ??_Erase_28
   \   000002B0   080098E5           LDR      R0,[R8, #+8]
   \   000002B4   0810A0E1           MOV      R1,R8
   \   000002B8   0CA0C0E5           STRB     R10,[R0, #+12]
   \   000002BC   0C90C8E5           STRB     R9,[R8, #+12]
   \   000002C0   0400A0E1           MOV      R0,R4
   \   000002C4   ........           _BLF     ??_Lrotate,??_Lrotate??rA
   \   000002C8   008095E5           LDR      R8,[R5, #+0]
   \                     ??_Erase_28:
   \   000002CC   0C00D5E5           LDRB     R0,[R5, #+12]
   \   000002D0   0510A0E1           MOV      R1,R5
   \   000002D4   0C00C8E5           STRB     R0,[R8, #+12]
   \   000002D8   0CA0C5E5           STRB     R10,[R5, #+12]
   \   000002DC   000098E5           LDR      R0,[R8, #+0]
   \   000002E0   0CA0C0E5           STRB     R10,[R0, #+12]
   \   000002E4   0400A0E1           MOV      R0,R4
   \   000002E8   ........           _BLF     ??_Rrotate,??_Rrotate??rA
   \                     ??_Erase_23:
   \   000002EC   0CA0C7E5           STRB     R10,[R7, #+12]
   \                     ??_Erase_17:
   \   000002F0   100094E5           LDR      R0,[R4, #+16]
   \   000002F4   000050E3           CMP      R0,#+0
   \   000002F8   01004012           SUBNE    R0,R0,#+1
   \   000002FC   10008415           STRNE    R0,[R4, #+16]
   \   00000300   0600A0E1           MOV      R0,R6
   \   00000304   F047BDE8           POP      {R4-R10,LR}
   \   00000308   1EFF2FE1           BX       LR               ;; return

   \                                 In segment CODE, align 4, keep-with-next
   \   __??Code32?? __code __interwork __atpcs void _Tree_algobase<allocator<void>>::_Insert(bool, _Tree_algobase<allocator<void>>::_Genptr, _Tree_algobase<allocator<void>>::_Genptr)
   \                     ??_Insert:
   \   00000000   F0402DE9           PUSH     {R4-R7,LR}
   \   00000004   0040A0E1           MOV      R4,R0
   \   00000008   100094E5           LDR      R0,[R4, #+16]
   \   0000000C   0350A0E1           MOV      R5,R3
   \   00000010   010080E2           ADD      R0,R0,#+1
   \   00000014   100084E5           STR      R0,[R4, #+16]
   \   00000018   040052E1           CMP      R2,R4
   \   0000001C   0300001A           BNE      ??_Insert_5
   \   00000020   045084E5           STR      R5,[R4, #+4]
   \   00000024   005084E5           STR      R5,[R4, #+0]
   \                     ??_Insert_6:
   \   00000028   085084E5           STR      R5,[R4, #+8]
   \   0000002C   130000EA           B        ??_Insert_7
   \                     ??_Insert_5:
   \   00000030   000051E3           CMP      R1,#+0
   \   00000034   0500000A           BEQ      ??_Insert_8
   \   00000038   005082E5           STR      R5,[R2, #+0]
   \   0000003C   000094E5           LDR      R0,[R4, #+0]
   \   00000040   000052E1           CMP      R2,R0
   \   00000044   0D00001A           BNE      ??_Insert_7
   \   00000048   005084E5           STR      R5,[R4, #+0]
   \   0000004C   0B0000EA           B        ??_Insert_7
   \                     ??_Insert_8:
   \   00000050   085082E5           STR      R5,[R2, #+8]
   \   00000054   080094E5           LDR      R0,[R4, #+8]
   \   00000058   000052E1           CMP      R2,R0
   \   0000005C   0700001A           BNE      ??_Insert_7
   \   00000060   F0FFFFEA           B        ??_Insert_6
   \                     ??_Insert_9:
   \   00000064   0C70C0E5           STRB     R7,[R0, #+12]
   \   00000068   0C70C2E5           STRB     R7,[R2, #+12]
   \   0000006C   040095E5           LDR      R0,[R5, #+4]
   \   00000070   040090E5           LDR      R0,[R0, #+4]
   \   00000074   0C60C0E5           STRB     R6,[R0, #+12]
   \   00000078   040095E5           LDR      R0,[R5, #+4]
   \   0000007C   045090E5           LDR      R5,[R0, #+4]
   \                     ??_Insert_7:
   \   00000080   0170A0E3           MOV      R7,#+1
   \   00000084   040095E5           LDR      R0,[R5, #+4]
   \   00000088   0C10D0E5           LDRB     R1,[R0, #+12]
   \   0000008C   000051E3           CMP      R1,#+0
   \   00000090   2F00001A           BNE      ??_Insert_10
   \   00000094   041090E5           LDR      R1,[R0, #+4]
   \   00000098   0060A0E3           MOV      R6,#+0
   \   0000009C   001091E5           LDR      R1,[R1, #+0]
   \   000000A0   010050E1           CMP      R0,R1
   \   000000A4   041090E5           LDR      R1,[R0, #+4]
   \   000000A8   1400001A           BNE      ??_Insert_11
   \   000000AC   082091E5           LDR      R2,[R1, #+8]
   \   000000B0   0C10D2E5           LDRB     R1,[R2, #+12]
   \   000000B4   000051E3           CMP      R1,#+0
   \   000000B8   E9FFFF0A           BEQ      ??_Insert_9
   \   000000BC   081090E5           LDR      R1,[R0, #+8]
   \   000000C0   010055E1           CMP      R5,R1
   \   000000C4   0300001A           BNE      ??_Insert_12
   \   000000C8   0050A0E1           MOV      R5,R0
   \   000000CC   0510A0E1           MOV      R1,R5
   \   000000D0   0400A0E1           MOV      R0,R4
   \   000000D4   ........           _BLF     ??_Lrotate,??_Lrotate??rA
   \                     ??_Insert_12:
   \   000000D8   040095E5           LDR      R0,[R5, #+4]
   \   000000DC   0C70C0E5           STRB     R7,[R0, #+12]
   \   000000E0   040095E5           LDR      R0,[R5, #+4]
   \   000000E4   040090E5           LDR      R0,[R0, #+4]
   \   000000E8   0C60C0E5           STRB     R6,[R0, #+12]
   \   000000EC   040095E5           LDR      R0,[R5, #+4]
   \   000000F0   041090E5           LDR      R1,[R0, #+4]
   \   000000F4   0400A0E1           MOV      R0,R4
   \   000000F8   ........           _BLF     ??_Rrotate,??_Rrotate??rA
   \   000000FC   DFFFFFEA           B        ??_Insert_7
   \                     ??_Insert_11:
   \   00000100   002091E5           LDR      R2,[R1, #+0]
   \   00000104   0C10D2E5           LDRB     R1,[R2, #+12]
   \   00000108   000051E3           CMP      R1,#+0
   \   0000010C   D4FFFF0A           BEQ      ??_Insert_9
   \   00000110   001090E5           LDR      R1,[R0, #+0]
   \   00000114   010055E1           CMP      R5,R1
   \   00000118   0300001A           BNE      ??_Insert_13
   \   0000011C   0050A0E1           MOV      R5,R0
   \   00000120   0510A0E1           MOV      R1,R5
   \   00000124   0400A0E1           MOV      R0,R4
   \   00000128   ........           _BLF     ??_Rrotate,??_Rrotate??rA
   \                     ??_Insert_13:
   \   0000012C   040095E5           LDR      R0,[R5, #+4]
   \   00000130   0C70C0E5           STRB     R7,[R0, #+12]
   \   00000134   040095E5           LDR      R0,[R5, #+4]
   \   00000138   040090E5           LDR      R0,[R0, #+4]
   \   0000013C   0C60C0E5           STRB     R6,[R0, #+12]
   \   00000140   040095E5           LDR      R0,[R5, #+4]
   \   00000144   041090E5           LDR      R1,[R0, #+4]
   \   00000148   0400A0E1           MOV      R0,R4
   \   0000014C   ........           _BLF     ??_Lrotate,??_Lrotate??rA
   \   00000150   CAFFFFEA           B        ??_Insert_7
   \                     ??_Insert_10:
   \   00000154   040094E5           LDR      R0,[R4, #+4]
   \   00000158   0C70C0E5           STRB     R7,[R0, #+12]
   \   0000015C   F040BDE8           POP      {R4-R7,LR}
   \   00000160   1EFF2FE1           BX       LR               ;; return

   \                                 In segment CODE, align 4, keep-with-next
   \   __??Code32?? __code __interwork __atpcs _Tree<_Tset_traits<PRogramObjectBase *, less<PRogramObjectBase *>, allocator<PRogramObjectBase *>, false>>::_Pairib _Tree<_Tset_traits<PRogramObjectBase *, less<PRogramObjectBase *>, allocator<PRogramObjectBase *>, false>>::insert(PRogramObjectBase *)
   \                     ??insert:
   \   00000000   F34C2DE9           PUSH     {R0,R1,R4-R7,R10,R11,LR}
   \   00000004   0040A0E1           MOV      R4,R0
   \   00000008   0150A0E1           MOV      R5,R1
   \   0000000C   040095E5           LDR      R0,[R5, #+4]
   \   00000010   0260A0E1           MOV      R6,R2
   \   00000014   05B0A0E1           MOV      R11,R5
   \   00000018   0170A0E3           MOV      R7,#+1
   \                     ??insert_4:
   \   0000001C   0D10D0E5           LDRB     R1,[R0, #+13]
   \   00000020   000051E3           CMP      R1,#+0
   \   00000024   0700001A           BNE      ??insert_5
   \   00000028   101090E5           LDR      R1,[R0, #+16]
   \   0000002C   00B0A0E1           MOV      R11,R0
   \   00000030   010056E1           CMP      R6,R1
   \   00000034   00009035           LDRCC    R0,[R0, #+0]
   \   00000038   0170A033           MOVCC    R7,#+1
   \   0000003C   08009025           LDRCS    R0,[R0, #+8]
   \   00000040   0070A023           MOVCS    R7,#+0
   \   00000044   F4FFFFEA           B        ??insert_4
   \                     ??insert_5:
   \   00000048   0B00A0E1           MOV      R0,R11
   \   0000004C   01A0A0E3           MOV      R10,#+1
   \   00000050   000057E3           CMP      R7,#+0
   \   00000054   0B00000A           BEQ      ??insert_6
   \   00000058   001095E5           LDR      R1,[R5, #+0]
   \   0000005C   010050E1           CMP      R0,R1
   \   00000060   0700001A           BNE      ??insert_7
   \   00000064   0630A0E1           MOV      R3,R6
   \   00000068   0B20A0E1           MOV      R2,R11
   \   0000006C   0110A0E3           MOV      R1,#+1
   \                     ??insert_8:
   \   00000070   0500A0E1           MOV      R0,R5
   \   00000074   ........           _BLF     ??_Insert_4,??_Insert??rA
   \   00000078   00008DE5           STR      R0,[SP, #+0]
   \   0000007C   04A0CDE5           STRB     R10,[SP, #+4]
   \   00000080   0A0000EA           B        ??insert_9
   \                     ??insert_7:
   \   00000084   ........           _BLF     ??_DecP,??_DecP??rA
   \                     ??insert_6:
   \   00000088   101090E5           LDR      R1,[R0, #+16]
   \   0000008C   060051E1           CMP      R1,R6
   \   00000090   0300002A           BCS      ??insert_10
   \   00000094   0630A0E1           MOV      R3,R6
   \   00000098   0B20A0E1           MOV      R2,R11
   \   0000009C   0710A0E1           MOV      R1,R7
   \   000000A0   F2FFFFEA           B        ??insert_8
   \                     ??insert_10:
   \   000000A4   00008DE5           STR      R0,[SP, #+0]
   \   000000A8   0010A0E3           MOV      R1,#+0
   \   000000AC   0410CDE5           STRB     R1,[SP, #+4]
   \                     ??insert_9:
   \   000000B0   0D00A0E1           MOV      R0,SP
   \   000000B4   030090E8           LDM      R0,{R0,R1}
   \   000000B8   030084E8           STM      R4,{R0,R1}
   \   000000BC   0400A0E1           MOV      R0,R4
   \   000000C0   F64CBDE8           POP      {R1,R2,R4-R7,R10,R11,LR}
   \   000000C4   1EFF2FE1           BX       LR               ;; return

   \                                 In segment CODE, align 4, keep-with-next
   \   __??Code32?? __code __interwork __atpcs _Tree<_Tset_traits<unsigned int, less<unsigned int>, allocator<unsigned int>, false>>::_Pairib _Tree<_Tset_traits<unsigned int, less<unsigned int>, allocator<unsigned int>, false>>::insert(unsigned int)
   \                     ??insert_1:
   \   00000000   F3432DE9           PUSH     {R0,R1,R4-R9,LR}
   \   00000004   0040A0E1           MOV      R4,R0
   \   00000008   0160A0E1           MOV      R6,R1
   \   0000000C   040096E5           LDR      R0,[R6, #+4]
   \   00000010   0270A0E1           MOV      R7,R2
   \   00000014   0680A0E1           MOV      R8,R6
   \   00000018   0190A0E3           MOV      R9,#+1
   \                     ??insert_11:
   \   0000001C   0D10D0E5           LDRB     R1,[R0, #+13]
   \   00000020   000051E3           CMP      R1,#+0
   \   00000024   0700001A           BNE      ??insert_12
   \   00000028   101090E5           LDR      R1,[R0, #+16]
   \   0000002C   0080A0E1           MOV      R8,R0
   \   00000030   010057E1           CMP      R7,R1
   \   00000034   00009035           LDRCC    R0,[R0, #+0]
   \   00000038   0190A033           MOVCC    R9,#+1
   \   0000003C   08009025           LDRCS    R0,[R0, #+8]
   \   00000040   0090A023           MOVCS    R9,#+0
   \   00000044   F4FFFFEA           B        ??insert_11
   \                     ??insert_12:
   \   00000048   0800A0E1           MOV      R0,R8
   \   0000004C   0150A0E3           MOV      R5,#+1
   \   00000050   000059E3           CMP      R9,#+0
   \   00000054   0B00000A           BEQ      ??insert_13
   \   00000058   001096E5           LDR      R1,[R6, #+0]
   \   0000005C   010050E1           CMP      R0,R1
   \   00000060   0700001A           BNE      ??insert_14
   \   00000064   0730A0E1           MOV      R3,R7
   \   00000068   0820A0E1           MOV      R2,R8
   \   0000006C   0110A0E3           MOV      R1,#+1
   \                     ??insert_15:
   \   00000070   0600A0E1           MOV      R0,R6
   \   00000074   ........           _BLF     ??_Insert_2,??_Insert??rA_1
   \   00000078   00008DE5           STR      R0,[SP, #+0]
   \   0000007C   0450CDE5           STRB     R5,[SP, #+4]
   \   00000080   0A0000EA           B        ??insert_16
   \                     ??insert_14:
   \   00000084   ........           _BLF     ??_DecP,??_DecP??rA
   \                     ??insert_13:
   \   00000088   101090E5           LDR      R1,[R0, #+16]
   \   0000008C   070051E1           CMP      R1,R7
   \   00000090   0300002A           BCS      ??insert_17
   \   00000094   0730A0E1           MOV      R3,R7
   \   00000098   0820A0E1           MOV      R2,R8
   \   0000009C   0910A0E1           MOV      R1,R9
   \   000000A0   F2FFFFEA           B        ??insert_15
   \                     ??insert_17:
   \   000000A4   00008DE5           STR      R0,[SP, #+0]
   \   000000A8   0010A0E3           MOV      R1,#+0
   \   000000AC   0410CDE5           STRB     R1,[SP, #+4]
   \                     ??insert_16:
   \   000000B0   0D00A0E1           MOV      R0,SP
   \   000000B4   030090E8           LDM      R0,{R0,R1}
   \   000000B8   030084E8           STM      R4,{R0,R1}
   \   000000BC   0400A0E1           MOV      R0,R4
   \   000000C0   F643BDE8           POP      {R1,R2,R4-R9,LR}
   \   000000C4   1EFF2FE1           BX       LR               ;; return

   \                                 In segment CODE, align 4, keep-with-next
   \   __??Code32?? __code __interwork __atpcs _Tree<_Tset_traits<int, less<int>, allocator<int>, false>>::_Pairib _Tree<_Tset_traits<int, less<int>, allocator<int>, false>>::insert(int)
   \                     ??insert_2:
   \   00000000   F3432DE9           PUSH     {R0,R1,R4-R9,LR}
   \   00000004   0040A0E1           MOV      R4,R0
   \   00000008   0160A0E1           MOV      R6,R1
   \   0000000C   040096E5           LDR      R0,[R6, #+4]
   \   00000010   0270A0E1           MOV      R7,R2
   \   00000014   0680A0E1           MOV      R8,R6
   \   00000018   0190A0E3           MOV      R9,#+1
   \                     ??insert_18:
   \   0000001C   0D10D0E5           LDRB     R1,[R0, #+13]
   \   00000020   000051E3           CMP      R1,#+0
   \   00000024   0700001A           BNE      ??insert_19
   \   00000028   101090E5           LDR      R1,[R0, #+16]
   \   0000002C   0080A0E1           MOV      R8,R0
   \   00000030   010057E1           CMP      R7,R1
   \   00000034   000090B5           LDRLT    R0,[R0, #+0]
   \   00000038   0190A0B3           MOVLT    R9,#+1
   \   0000003C   080090A5           LDRGE    R0,[R0, #+8]
   \   00000040   0090A0A3           MOVGE    R9,#+0
   \   00000044   F4FFFFEA           B        ??insert_18
   \                     ??insert_19:
   \   00000048   0800A0E1           MOV      R0,R8
   \   0000004C   0150A0E3           MOV      R5,#+1
   \   00000050   000059E3           CMP      R9,#+0
   \   00000054   0B00000A           BEQ      ??insert_20
   \   00000058   001096E5           LDR      R1,[R6, #+0]
   \   0000005C   010050E1           CMP      R0,R1
   \   00000060   0700001A           BNE      ??insert_21
   \   00000064   0730A0E1           MOV      R3,R7
   \   00000068   0820A0E1           MOV      R2,R8
   \   0000006C   0110A0E3           MOV      R1,#+1
   \                     ??insert_22:
   \   00000070   0600A0E1           MOV      R0,R6
   \   00000074   ........           _BLF     ??_Insert_1,??_Insert??rA_2
   \   00000078   00008DE5           STR      R0,[SP, #+0]
   \   0000007C   0450CDE5           STRB     R5,[SP, #+4]
   \   00000080   0A0000EA           B        ??insert_23
   \                     ??insert_21:
   \   00000084   ........           _BLF     ??_DecP,??_DecP??rA
   \                     ??insert_20:
   \   00000088   101090E5           LDR      R1,[R0, #+16]
   \   0000008C   070051E1           CMP      R1,R7
   \   00000090   030000AA           BGE      ??insert_24
   \   00000094   0730A0E1           MOV      R3,R7
   \   00000098   0820A0E1           MOV      R2,R8
   \   0000009C   0910A0E1           MOV      R1,R9
   \   000000A0   F2FFFFEA           B        ??insert_22
   \                     ??insert_24:
   \   000000A4   00008DE5           STR      R0,[SP, #+0]
   \   000000A8   0010A0E3           MOV      R1,#+0
   \   000000AC   0410CDE5           STRB     R1,[SP, #+4]
   \                     ??insert_23:
   \   000000B0   0D00A0E1           MOV      R0,SP
   \   000000B4   030090E8           LDM      R0,{R0,R1}
   \   000000B8   030084E8           STM      R4,{R0,R1}
   \   000000BC   0400A0E1           MOV      R0,R4
   \   000000C0   F643BDE8           POP      {R1,R2,R4-R9,LR}
   \   000000C4   1EFF2FE1           BX       LR               ;; return

   \                                 In segment CODE, align 4, keep-with-next
   \   __??Code32?? __code __interwork __atpcs _Tree<_Tmap_traits<int, PRogramObjectBase *, less<int>, allocator<pair<int const, PRogramObjectBase *>>, false>>::_Pairib _Tree<_Tmap_traits<int, PRogramObjectBase *, less<int>, allocator<pair<int const, PRogramObjectBase *>>, false>>::insert(pair<int const, PRogramObjectBase *> const &)
   \                     ??insert_3:
   \   00000000   F3432DE9           PUSH     {R0,R1,R4-R9,LR}
   \   00000004   0040A0E1           MOV      R4,R0
   \   00000008   0160A0E1           MOV      R6,R1
   \   0000000C   040096E5           LDR      R0,[R6, #+4]
   \   00000010   0270A0E1           MOV      R7,R2
   \   00000014   0680A0E1           MOV      R8,R6
   \   00000018   0190A0E3           MOV      R9,#+1
   \                     ??insert_25:
   \   0000001C   0D10D0E5           LDRB     R1,[R0, #+13]
   \   00000020   000051E3           CMP      R1,#+0
   \   00000024   0800001A           BNE      ??insert_26
   \   00000028   001097E5           LDR      R1,[R7, #+0]
   \   0000002C   102090E5           LDR      R2,[R0, #+16]
   \   00000030   0080A0E1           MOV      R8,R0
   \   00000034   020051E1           CMP      R1,R2
   \   00000038   000090B5           LDRLT    R0,[R0, #+0]
   \   0000003C   0190A0B3           MOVLT    R9,#+1
   \   00000040   080090A5           LDRGE    R0,[R0, #+8]
   \   00000044   0090A0A3           MOVGE    R9,#+0
   \   00000048   F3FFFFEA           B        ??insert_25
   \                     ??insert_26:
   \   0000004C   0800A0E1           MOV      R0,R8
   \   00000050   0150A0E3           MOV      R5,#+1
   \   00000054   000059E3           CMP      R9,#+0
   \   00000058   0B00000A           BEQ      ??insert_27
   \   0000005C   001096E5           LDR      R1,[R6, #+0]
   \   00000060   010050E1           CMP      R0,R1
   \   00000064   0700001A           BNE      ??insert_28
   \   00000068   0730A0E1           MOV      R3,R7
   \   0000006C   0820A0E1           MOV      R2,R8
   \   00000070   0110A0E3           MOV      R1,#+1
   \                     ??insert_29:
   \   00000074   0600A0E1           MOV      R0,R6
   \   00000078   ........           _BLF     ??_Insert_3,??_Insert??rA_3
   \   0000007C   00008DE5           STR      R0,[SP, #+0]
   \   00000080   0450CDE5           STRB     R5,[SP, #+4]
   \   00000084   0B0000EA           B        ??insert_30
   \                     ??insert_28:
   \   00000088   ........           _BLF     ??_DecP,??_DecP??rA
   \                     ??insert_27:
   \   0000008C   101090E5           LDR      R1,[R0, #+16]
   \   00000090   002097E5           LDR      R2,[R7, #+0]
   \   00000094   020051E1           CMP      R1,R2
   \   00000098   030000AA           BGE      ??insert_31
   \   0000009C   0730A0E1           MOV      R3,R7
   \   000000A0   0820A0E1           MOV      R2,R8
   \   000000A4   0910A0E1           MOV      R1,R9
   \   000000A8   F1FFFFEA           B        ??insert_29
   \                     ??insert_31:
   \   000000AC   00008DE5           STR      R0,[SP, #+0]
   \   000000B0   0010A0E3           MOV      R1,#+0
   \   000000B4   0410CDE5           STRB     R1,[SP, #+4]
   \                     ??insert_30:
   \   000000B8   0D00A0E1           MOV      R0,SP
   \   000000BC   030090E8           LDM      R0,{R0,R1}
   \   000000C0   030084E8           STM      R4,{R0,R1}
   \   000000C4   0400A0E1           MOV      R0,R4
   \   000000C8   F643BDE8           POP      {R1,R2,R4-R9,LR}
   \   000000CC   1EFF2FE1           BX       LR               ;; return

   \                                 In segment CODE, align 4, keep-with-next
   \   __??Code32?? __code __interwork __atpcs _Tree<_Tset_traits<unsigned int, less<unsigned int>, allocator<unsigned int>, false>>::iterator _Tree<_Tset_traits<unsigned int, less<unsigned int>, allocator<unsigned int>, false>>::erase(_Tree<_Tset_traits<unsigned int, less<unsigned int>, allocator<unsigned int>, false>>::iterator, _Tree<_Tset_traits<unsigned int, less<unsigned int>, allocator<unsigned int>, false>>::iterator)
   \                     ??erase:
   \   00000000   F0402DE9           PUSH     {R4-R7,LR}
   \   00000004   0040A0E1           MOV      R4,R0
   \   00000008   000094E5           LDR      R0,[R4, #+0]
   \   0000000C   0150A0E1           MOV      R5,R1
   \   00000010   0260A0E1           MOV      R6,R2
   \   00000014   000055E1           CMP      R5,R0
   \   00000018   04005601           CMPEQ    R6,R4
   \   0000001C   0D00001A           BNE      ??erase_5
   \   00000020   0400A0E1           MOV      R0,R4
   \   00000024   ........           _BLF     ??clear,??clear??rA
   \   00000028   000094E5           LDR      R0,[R4, #+0]
   \   0000002C   0C0000EA           B        ??erase_6
   \                     ??erase_7:
   \   00000030   0570A0E1           MOV      R7,R5
   \   00000034   0500A0E1           MOV      R0,R5
   \   00000038   ........           _BLF     ??_IncP,??_IncP??rA
   \   0000003C   0050A0E1           MOV      R5,R0
   \   00000040   0700A0E1           MOV      R0,R7
   \   00000044   ........           _BLF     ??_IncP,??_IncP??rA
   \   00000048   0710A0E1           MOV      R1,R7
   \   0000004C   0400A0E1           MOV      R0,R4
   \   00000050   ........           _BLF     ??_Erase,??_Erase??rA
   \   00000054   ........           _BLF     `??operator delete`,`??operator delete??rA`
   \                     ??erase_5:
   \   00000058   060055E1           CMP      R5,R6
   \   0000005C   F3FFFF1A           BNE      ??erase_7
   \   00000060   0500A0E1           MOV      R0,R5
   \                     ??erase_6:
   \   00000064   F040BDE8           POP      {R4-R7,LR}
   \   00000068   1EFF2FE1           BX       LR               ;; return

   \                                 In segment CODE, align 4, keep-with-next
   \   __??Code32?? __code __interwork __atpcs _Tree<_Tset_traits<PRogramObjectBase *, less<PRogramObjectBase *>, allocator<PRogramObjectBase *>, false>>::iterator _Tree<_Tset_traits<PRogramObjectBase *, less<PRogramObjectBase *>, allocator<PRogramObjectBase *>, false>>::erase(_Tree<_Tset_traits<PRogramObjectBase *, less<PRogramObjectBase *>, allocator<PRogramObjectBase *>, false>>::iterator, _Tree<_Tset_traits<PRogramObjectBase *, less<PRogramObjectBase *>, allocator<PRogramObjectBase *>, false>>::iterator)
   \                     ??erase_1:
   \   00000000   F0402DE9           PUSH     {R4-R7,LR}
   \   00000004   0040A0E1           MOV      R4,R0
   \   00000008   000094E5           LDR      R0,[R4, #+0]
   \   0000000C   0150A0E1           MOV      R5,R1
   \   00000010   0260A0E1           MOV      R6,R2
   \   00000014   000055E1           CMP      R5,R0
   \   00000018   04005601           CMPEQ    R6,R4
   \   0000001C   0D00001A           BNE      ??erase_8
   \   00000020   0400A0E1           MOV      R0,R4
   \   00000024   ........           _BLF     ??clear_1,??clear??rA_1
   \   00000028   000094E5           LDR      R0,[R4, #+0]
   \   0000002C   0C0000EA           B        ??erase_9
   \                     ??erase_10:
   \   00000030   0570A0E1           MOV      R7,R5
   \   00000034   0500A0E1           MOV      R0,R5
   \   00000038   ........           _BLF     ??_IncP,??_IncP??rA
   \   0000003C   0050A0E1           MOV      R5,R0
   \   00000040   0700A0E1           MOV      R0,R7
   \   00000044   ........           _BLF     ??_IncP,??_IncP??rA
   \   00000048   0710A0E1           MOV      R1,R7
   \   0000004C   0400A0E1           MOV      R0,R4
   \   00000050   ........           _BLF     ??_Erase,??_Erase??rA
   \   00000054   ........           _BLF     `??operator delete`,`??operator delete??rA`
   \                     ??erase_8:
   \   00000058   060055E1           CMP      R5,R6
   \   0000005C   F3FFFF1A           BNE      ??erase_10
   \   00000060   0500A0E1           MOV      R0,R5
   \                     ??erase_9:
   \   00000064   F040BDE8           POP      {R4-R7,LR}
   \   00000068   1EFF2FE1           BX       LR               ;; return

   \                                 In segment CODE, align 4, keep-with-next
   \   __??Code32?? __code __interwork __atpcs _Tree<_Tmap_traits<int, PRogramObjectBase *, less<int>, allocator<pair<int const, PRogramObjectBase *>>, false>>::iterator _Tree<_Tmap_traits<int, PRogramObjectBase *, less<int>, allocator<pair<int const, PRogramObjectBase *>>, false>>::erase(_Tree<_Tmap_traits<int, PRogramObjectBase *, less<int>, allocator<pair<int const, PRogramObjectBase *>>, false>>::iterator, _Tree<_Tmap_traits<int, PRogramObjectBase *, less<int>, allocator<pair<int const, PRogramObjectBase *>>, false>>::iterator)
   \                     ??erase_2:
   \   00000000   F0402DE9           PUSH     {R4-R7,LR}
   \   00000004   0040A0E1           MOV      R4,R0
   \   00000008   000094E5           LDR      R0,[R4, #+0]
   \   0000000C   0150A0E1           MOV      R5,R1
   \   00000010   0260A0E1           MOV      R6,R2
   \   00000014   000055E1           CMP      R5,R0
   \   00000018   04005601           CMPEQ    R6,R4
   \   0000001C   0D00001A           BNE      ??erase_11
   \   00000020   0400A0E1           MOV      R0,R4
   \   00000024   ........           _BLF     ??clear_2,??clear??rA_2
   \   00000028   000094E5           LDR      R0,[R4, #+0]
   \   0000002C   0C0000EA           B        ??erase_12
   \                     ??erase_13:
   \   00000030   0570A0E1           MOV      R7,R5
   \   00000034   0500A0E1           MOV      R0,R5
   \   00000038   ........           _BLF     ??_IncP,??_IncP??rA
   \   0000003C   0050A0E1           MOV      R5,R0
   \   00000040   0700A0E1           MOV      R0,R7
   \   00000044   ........           _BLF     ??_IncP,??_IncP??rA
   \   00000048   0710A0E1           MOV      R1,R7
   \   0000004C   0400A0E1           MOV      R0,R4
   \   00000050   ........           _BLF     ??_Erase,??_Erase??rA
   \   00000054   ........           _BLF     `??operator delete`,`??operator delete??rA`
   \                     ??erase_11:
   \   00000058   060055E1           CMP      R5,R6
   \   0000005C   F3FFFF1A           BNE      ??erase_13
   \   00000060   0500A0E1           MOV      R0,R5
   \                     ??erase_12:
   \   00000064   F040BDE8           POP      {R4-R7,LR}
   \   00000068   1EFF2FE1           BX       LR               ;; return

   \                                 In segment CODE, align 4, keep-with-next
   \   __??Code32?? __code __interwork __atpcs unsigned int _Tree<_Tset_traits<PRogramObjectBase *, less<PRogramObjectBase *>, allocator<PRogramObjectBase *>, false>>::erase(PRogramObjectBase *)
   \                     ??erase_3:
   \   00000000   73402DE9           PUSH     {R0,R1,R4-R6,LR}
   \   00000004   0040A0E1           MOV      R4,R0
   \   00000008   0120A0E1           MOV      R2,R1
   \   0000000C   0410A0E1           MOV      R1,R4
   \   00000010   0D00A0E1           MOV      R0,SP
   \   00000014   ........           _BLF     ??equal_range_1,??equal_range??rA
   \   00000018   04509DE5           LDR      R5,[SP, #+4]
   \   0000001C   00009DE5           LDR      R0,[SP, #+0]
   \   00000020   0060A0E3           MOV      R6,#+0
   \   00000024   010000EA           B        ??erase_14
   \                     ??erase_15:
   \   00000028   016086E2           ADD      R6,R6,#+1
   \   0000002C   ........           _BLF     ??_IncP,??_IncP??rA
   \                     ??erase_14:
   \   00000030   050050E1           CMP      R0,R5
   \   00000034   FBFFFF1A           BNE      ??erase_15
   \   00000038   04209DE5           LDR      R2,[SP, #+4]
   \   0000003C   00109DE5           LDR      R1,[SP, #+0]
   \   00000040   0400A0E1           MOV      R0,R4
   \   00000044   ........           _BLF     ??erase_1,??erase??rA
   \   00000048   0600A0E1           MOV      R0,R6
   \   0000004C   7640BDE8           POP      {R1,R2,R4-R6,LR}
   \   00000050   1EFF2FE1           BX       LR               ;; return

   \                                 In segment CODE, align 4, keep-with-next
   \   __??Code32?? __code __interwork __atpcs unsigned int _Tree<_Tmap_traits<int, PRogramObjectBase *, less<int>, allocator<pair<int const, PRogramObjectBase *>>, false>>::erase(int)
   \                     ??erase_4:
   \   00000000   73402DE9           PUSH     {R0,R1,R4-R6,LR}
   \   00000004   0040A0E1           MOV      R4,R0
   \   00000008   0120A0E1           MOV      R2,R1
   \   0000000C   0410A0E1           MOV      R1,R4
   \   00000010   0D00A0E1           MOV      R0,SP
   \   00000014   ........           _BLF     ??equal_range,??equal_range??rA_1
   \   00000018   04509DE5           LDR      R5,[SP, #+4]
   \   0000001C   00009DE5           LDR      R0,[SP, #+0]
   \   00000020   0060A0E3           MOV      R6,#+0
   \   00000024   010000EA           B        ??erase_16
   \                     ??erase_17:
   \   00000028   016086E2           ADD      R6,R6,#+1
   \   0000002C   ........           _BLF     ??_IncP,??_IncP??rA
   \                     ??erase_16:
   \   00000030   050050E1           CMP      R0,R5
   \   00000034   FBFFFF1A           BNE      ??erase_17
   \   00000038   04209DE5           LDR      R2,[SP, #+4]
   \   0000003C   00109DE5           LDR      R1,[SP, #+0]
   \   00000040   0400A0E1           MOV      R0,R4
   \   00000044   ........           _BLF     ??erase_2,??erase??rA_1
   \   00000048   0600A0E1           MOV      R0,R6
   \   0000004C   7640BDE8           POP      {R1,R2,R4-R6,LR}
   \   00000050   1EFF2FE1           BX       LR               ;; return

   \                                 In segment CODE, align 4, keep-with-next
   \   __??Code32?? __code __interwork __atpcs void _Tree<_Tset_traits<unsigned int, less<unsigned int>, allocator<unsigned int>, false>>::clear()
   \                     ??clear:
   \   00000000   10402DE9           PUSH     {R4,LR}
   \   00000004   0040A0E1           MOV      R4,R0
   \   00000008   041094E5           LDR      R1,[R4, #+4]
   \   0000000C   ........           _BLF     ??_Erase_2,??_Erase??rA_1
   \   00000010   0400A0E1           MOV      R0,R4
   \   00000014   ........           _BLF     ??_Clear,??_Clear??rA
   \   00000018   1040BDE8           POP      {R4,LR}
   \   0000001C   1EFF2FE1           BX       LR               ;; return

   \                                 In segment CODE, align 4, keep-with-next
   \   __??Code32?? __code __interwork __atpcs void _Tree<_Tset_traits<PRogramObjectBase *, less<PRogramObjectBase *>, allocator<PRogramObjectBase *>, false>>::clear()
   \                     ??clear_1:
   \   00000000   10402DE9           PUSH     {R4,LR}
   \   00000004   0040A0E1           MOV      R4,R0
   \   00000008   041094E5           LDR      R1,[R4, #+4]
   \   0000000C   ........           _BLF     ??_Erase_3,??_Erase??rA_2
   \   00000010   0400A0E1           MOV      R0,R4
   \   00000014   ........           _BLF     ??_Clear,??_Clear??rA
   \   00000018   1040BDE8           POP      {R4,LR}
   \   0000001C   1EFF2FE1           BX       LR               ;; return

   \                                 In segment CODE, align 4, keep-with-next
   \   __??Code32?? __code __interwork __atpcs void _Tree<_Tmap_traits<int, PRogramObjectBase *, less<int>, allocator<pair<int const, PRogramObjectBase *>>, false>>::clear()
   \                     ??clear_2:
   \   00000000   10402DE9           PUSH     {R4,LR}
   \   00000004   0040A0E1           MOV      R4,R0
   \   00000008   041094E5           LDR      R1,[R4, #+4]
   \   0000000C   ........           _BLF     ??_Erase_4,??_Erase??rA_3
   \   00000010   0400A0E1           MOV      R0,R4
   \   00000014   ........           _BLF     ??_Clear,??_Clear??rA
   \   00000018   1040BDE8           POP      {R4,LR}
   \   0000001C   1EFF2FE1           BX       LR               ;; return

   \                                 In segment CODE, align 4, keep-with-next
   \   __??Code32?? __code __interwork __atpcs _Tree<_Tset_traits<unsigned int, less<unsigned int>, allocator<unsigned int>, false>>::iterator _Tree<_Tset_traits<unsigned int, less<unsigned int>, allocator<unsigned int>, false>>::find(unsigned int)
   \                     ??find:
   \   00000000   30402DE9           PUSH     {R4,R5,LR}
   \   00000004   0040A0E1           MOV      R4,R0
   \   00000008   0150A0E1           MOV      R5,R1
   \   0000000C   ........           _BLF     ??_Lbound_2,??_Lbound??rA
   \   00000010   040050E1           CMP      R0,R4
   \   00000014   0300000A           BEQ      ??find_3
   \   00000018   101090E5           LDR      R1,[R0, #+16]
   \   0000001C   010055E1           CMP      R5,R1
   \   00000020   0040A021           MOVCS    R4,R0
   \   00000024   0400A0E1           MOV      R0,R4
   \                     ??find_3:
   \   00000028   3040BDE8           POP      {R4,R5,LR}
   \   0000002C   1EFF2FE1           BX       LR               ;; return

   \                                 In segment CODE, align 4, keep-with-next
   \   __??Code32?? __code __interwork __atpcs _Tree<_Tset_traits<PRogramObjectBase *, less<PRogramObjectBase *>, allocator<PRogramObjectBase *>, false>>::iterator _Tree<_Tset_traits<PRogramObjectBase *, less<PRogramObjectBase *>, allocator<PRogramObjectBase *>, false>>::find(PRogramObjectBase *)
   \                     ??find_1:
   \   00000000   30402DE9           PUSH     {R4,R5,LR}
   \   00000004   0040A0E1           MOV      R4,R0
   \   00000008   0150A0E1           MOV      R5,R1
   \   0000000C   ........           _BLF     ??_Lbound_1,??_Lbound??rA_1
   \   00000010   040050E1           CMP      R0,R4
   \   00000014   0300000A           BEQ      ??find_4
   \   00000018   101090E5           LDR      R1,[R0, #+16]
   \   0000001C   010055E1           CMP      R5,R1
   \   00000020   0040A021           MOVCS    R4,R0
   \   00000024   0400A0E1           MOV      R0,R4
   \                     ??find_4:
   \   00000028   3040BDE8           POP      {R4,R5,LR}
   \   0000002C   1EFF2FE1           BX       LR               ;; return

   \                                 In segment CODE, align 4, keep-with-next
   \   __??Code32?? __code __interwork __atpcs _Tree<_Tmap_traits<int, PRogramObjectBase *, less<int>, allocator<pair<int const, PRogramObjectBase *>>, false>>::iterator _Tree<_Tmap_traits<int, PRogramObjectBase *, less<int>, allocator<pair<int const, PRogramObjectBase *>>, false>>::find(int)
   \                     ??find_2:
   \   00000000   30402DE9           PUSH     {R4,R5,LR}
   \   00000004   0040A0E1           MOV      R4,R0
   \   00000008   0150A0E1           MOV      R5,R1
   \   0000000C   ........           _BLF     ??_Lbound,??_Lbound??rA_2
   \   00000010   040050E1           CMP      R0,R4
   \   00000014   0300000A           BEQ      ??find_5
   \   00000018   101090E5           LDR      R1,[R0, #+16]
   \   0000001C   010055E1           CMP      R5,R1
   \   00000020   0040A0A1           MOVGE    R4,R0
   \   00000024   0400A0E1           MOV      R0,R4
   \                     ??find_5:
   \   00000028   3040BDE8           POP      {R4,R5,LR}
   \   0000002C   1EFF2FE1           BX       LR               ;; return

   \                                 In segment CODE, align 4, keep-with-next
   \   __??Code32?? __code __interwork __atpcs _Tree<_Tmap_traits<int, PRogramObjectBase *, less<int>, allocator<pair<int const, PRogramObjectBase *>>, false>>::_Pairii _Tree<_Tmap_traits<int, PRogramObjectBase *, less<int>, allocator<pair<int const, PRogramObjectBase *>>, false>>::equal_range(int)
   \                     ??equal_range:
   \   00000000   F3402DE9           PUSH     {R0,R1,R4-R7,LR}
   \   00000004   0040A0E1           MOV      R4,R0
   \   00000008   0150A0E1           MOV      R5,R1
   \   0000000C   0260A0E1           MOV      R6,R2
   \   00000010   0610A0E1           MOV      R1,R6
   \   00000014   0500A0E1           MOV      R0,R5
   \   00000018   ........           _BLF     ??_Ubound,??_Ubound??rA
   \   0000001C   0070A0E1           MOV      R7,R0
   \   00000020   0610A0E1           MOV      R1,R6
   \   00000024   0500A0E1           MOV      R0,R5
   \   00000028   ........           _BLF     ??_Lbound,??_Lbound??rA_2
   \   0000002C   00008DE5           STR      R0,[SP, #+0]
   \   00000030   04708DE5           STR      R7,[SP, #+4]
   \   00000034   0D00A0E1           MOV      R0,SP
   \   00000038   030090E8           LDM      R0,{R0,R1}
   \   0000003C   030084E8           STM      R4,{R0,R1}
   \   00000040   0400A0E1           MOV      R0,R4
   \   00000044   F640BDE8           POP      {R1,R2,R4-R7,LR}
   \   00000048   1EFF2FE1           BX       LR               ;; return

   \                                 In segment CODE, align 4, keep-with-next
   \   __??Code32?? __code __interwork __atpcs _Tree<_Tset_traits<PRogramObjectBase *, less<PRogramObjectBase *>, allocator<PRogramObjectBase *>, false>>::_Pairii _Tree<_Tset_traits<PRogramObjectBase *, less<PRogramObjectBase *>, allocator<PRogramObjectBase *>, false>>::equal_range(PRogramObjectBase *)
   \                     ??equal_range_1:
   \   00000000   F3402DE9           PUSH     {R0,R1,R4-R7,LR}
   \   00000004   0040A0E1           MOV      R4,R0
   \   00000008   0150A0E1           MOV      R5,R1
   \   0000000C   0260A0E1           MOV      R6,R2
   \   00000010   0610A0E1           MOV      R1,R6
   \   00000014   0500A0E1           MOV      R0,R5
   \   00000018   ........           _BLF     ??_Ubound_1,??_Ubound??rA_1
   \   0000001C   0070A0E1           MOV      R7,R0
   \   00000020   0610A0E1           MOV      R1,R6
   \   00000024   0500A0E1           MOV      R0,R5
   \   00000028   ........           _BLF     ??_Lbound_1,??_Lbound??rA_1
   \   0000002C   00008DE5           STR      R0,[SP, #+0]
   \   00000030   04708DE5           STR      R7,[SP, #+4]
   \   00000034   0D00A0E1           MOV      R0,SP
   \   00000038   030090E8           LDM      R0,{R0,R1}
   \   0000003C   030084E8           STM      R4,{R0,R1}
   \   00000040   0400A0E1           MOV      R0,R4
   \   00000044   F640BDE8           POP      {R1,R2,R4-R7,LR}
   \   00000048   1EFF2FE1           BX       LR               ;; return

   \                                 In segment CODE, align 4, keep-with-next
   \   __??Code32?? __code __interwork __atpcs void _Tree<_Tset_traits<unsigned int, less<unsigned int>, allocator<unsigned int>, false>>::_Copy(_Tree<_Tset_traits<unsigned int, less<unsigned int>, allocator<unsigned int>, false>> const &)
   \                     ??_Copy:
   \   00000000   30402DE9           PUSH     {R4,R5,LR}
   \   00000004   0150A0E1           MOV      R5,R1
   \   00000008   041095E5           LDR      R1,[R5, #+4]
   \   0000000C   0040A0E1           MOV      R4,R0
   \   00000010   0420A0E1           MOV      R2,R4
   \   00000014   ........           _BLF     ??_Copy_2,??_Copy??rA
   \   00000018   040084E5           STR      R0,[R4, #+4]
   \   0000001C   100095E5           LDR      R0,[R5, #+16]
   \   00000020   100084E5           STR      R0,[R4, #+16]
   \   00000024   040094E5           LDR      R0,[R4, #+4]
   \   00000028   0D10D0E5           LDRB     R1,[R0, #+13]
   \   0000002C   000051E3           CMP      R1,#+0
   \   00000030   0900001A           BNE      ??_Copy_4
   \   00000034   0010A0E1           MOV      R1,R0
   \   00000038   000000EA           B        ??_Copy_5
   \                     ??_Copy_6:
   \   0000003C   0210A0E1           MOV      R1,R2
   \                     ??_Copy_5:
   \   00000040   002091E5           LDR      R2,[R1, #+0]
   \   00000044   0D30D2E5           LDRB     R3,[R2, #+13]
   \   00000048   000053E3           CMP      R3,#+0
   \   0000004C   FAFFFF0A           BEQ      ??_Copy_6
   \   00000050   001084E5           STR      R1,[R4, #+0]
   \   00000054   ........           _BLF     ??_Max,??_Max??rA
   \   00000058   010000EA           B        ??_Copy_7
   \                     ??_Copy_4:
   \   0000005C   004084E5           STR      R4,[R4, #+0]
   \   00000060   0400A0E1           MOV      R0,R4
   \                     ??_Copy_7:
   \   00000064   080084E5           STR      R0,[R4, #+8]
   \   00000068   3040BDE8           POP      {R4,R5,LR}
   \   0000006C   1EFF2FE1           BX       LR               ;; return

   \                                 In segment CODE, align 4, keep-with-next
   \   __??Code32?? __code __interwork __atpcs void _Tree<_Tset_traits<PRogramObjectBase *, less<PRogramObjectBase *>, allocator<PRogramObjectBase *>, false>>::_Copy(_Tree<_Tset_traits<PRogramObjectBase *, less<PRogramObjectBase *>, allocator<PRogramObjectBase *>, false>> const &)
   \                     ??_Copy_1:
   \   00000000   30402DE9           PUSH     {R4,R5,LR}
   \   00000004   0150A0E1           MOV      R5,R1
   \   00000008   041095E5           LDR      R1,[R5, #+4]
   \   0000000C   0040A0E1           MOV      R4,R0
   \   00000010   0420A0E1           MOV      R2,R4
   \   00000014   ........           _BLF     ??_Copy_3,??_Copy??rA_1
   \   00000018   040084E5           STR      R0,[R4, #+4]
   \   0000001C   100095E5           LDR      R0,[R5, #+16]
   \   00000020   100084E5           STR      R0,[R4, #+16]
   \   00000024   040094E5           LDR      R0,[R4, #+4]
   \   00000028   0D10D0E5           LDRB     R1,[R0, #+13]
   \   0000002C   000051E3           CMP      R1,#+0
   \   00000030   0900001A           BNE      ??_Copy_8
   \   00000034   0010A0E1           MOV      R1,R0
   \   00000038   000000EA           B        ??_Copy_9
   \                     ??_Copy_10:
   \   0000003C   0210A0E1           MOV      R1,R2
   \                     ??_Copy_9:
   \   00000040   002091E5           LDR      R2,[R1, #+0]
   \   00000044   0D30D2E5           LDRB     R3,[R2, #+13]
   \   00000048   000053E3           CMP      R3,#+0
   \   0000004C   FAFFFF0A           BEQ      ??_Copy_10
   \   00000050   001084E5           STR      R1,[R4, #+0]
   \   00000054   ........           _BLF     ??_Max,??_Max??rA
   \   00000058   010000EA           B        ??_Copy_11
   \                     ??_Copy_8:
   \   0000005C   004084E5           STR      R4,[R4, #+0]
   \   00000060   0400A0E1           MOV      R0,R4
   \                     ??_Copy_11:
   \   00000064   080084E5           STR      R0,[R4, #+8]
   \   00000068   3040BDE8           POP      {R4,R5,LR}
   \   0000006C   1EFF2FE1           BX       LR               ;; return

   \                                 In segment CODE, align 4, keep-with-next
   \   __??Code32?? __code __interwork __atpcs _Tree<_Tset_traits<unsigned int, less<unsigned int>, allocator<unsigned int>, false>>::_Nodeptr _Tree<_Tset_traits<unsigned int, less<unsigned int>, allocator<unsigned int>, false>>::_Copy(_Tree<_Tset_traits<unsigned int, less<unsigned int>, allocator<unsigned int>, false>>::_Nodeptr, _Tree<_Tset_traits<unsigned int, less<unsigned int>, allocator<unsigned int>, false>>::_Nodeptr)
   \                     ??_Copy_2:
   \   00000000   F0472DE9           PUSH     {R4-R10,LR}
   \   00000004   0040A0E1           MOV      R4,R0
   \   00000008   0150A0E1           MOV      R5,R1
   \   0000000C   0D00D5E5           LDRB     R0,[R5, #+13]
   \   00000010   0280A0E1           MOV      R8,R2
   \   00000014   0460A0E1           MOV      R6,R4
   \   00000018   000050E3           CMP      R0,#+0
   \   0000001C   1900001A           BNE      ??_Copy_12
   \   00000020   0C90D5E5           LDRB     R9,[R5, #+12]
   \   00000024   10A095E5           LDR      R10,[R5, #+16]
   \   00000028   1400A0E3           MOV      R0,#+20
   \   0000002C   ........           _BLF     `??operator new`,`??operator new??rA`
   \   00000030   0070B0E1           MOVS     R7,R0
   \   00000034   0600000A           BEQ      ??_Copy_13
   \   00000038   004087E5           STR      R4,[R7, #+0]
   \   0000003C   048087E5           STR      R8,[R7, #+4]
   \   00000040   084087E5           STR      R4,[R7, #+8]
   \   00000044   0C90C7E5           STRB     R9,[R7, #+12]
   \   00000048   0000A0E3           MOV      R0,#+0
   \   0000004C   0D00C7E5           STRB     R0,[R7, #+13]
   \   00000050   10A087E5           STR      R10,[R7, #+16]
   \                     ??_Copy_13:
   \   00000054   0D00D6E5           LDRB     R0,[R6, #+13]
   \   00000058   001095E5           LDR      R1,[R5, #+0]
   \   0000005C   0720A0E1           MOV      R2,R7
   \   00000060   000050E3           CMP      R0,#+0
   \   00000064   0760A011           MOVNE    R6,R7
   \   00000068   0400A0E1           MOV      R0,R4
   \   0000006C   E3FFFFEB           BL       ??_Copy_2
   \   00000070   000087E5           STR      R0,[R7, #+0]
   \   00000074   081095E5           LDR      R1,[R5, #+8]
   \   00000078   0720A0E1           MOV      R2,R7
   \   0000007C   0400A0E1           MOV      R0,R4
   \   00000080   DEFFFFEB           BL       ??_Copy_2
   \   00000084   080087E5           STR      R0,[R7, #+8]
   \                     ??_Copy_12:
   \   00000088   0600A0E1           MOV      R0,R6
   \   0000008C   F047BDE8           POP      {R4-R10,LR}
   \   00000090   1EFF2FE1           BX       LR               ;; return

   \                                 In segment CODE, align 4, keep-with-next
   \   __??Code32?? __code __interwork __atpcs _Tree<_Tset_traits<PRogramObjectBase *, less<PRogramObjectBase *>, allocator<PRogramObjectBase *>, false>>::_Nodeptr _Tree<_Tset_traits<PRogramObjectBase *, less<PRogramObjectBase *>, allocator<PRogramObjectBase *>, false>>::_Copy(_Tree<_Tset_traits<PRogramObjectBase *, less<PRogramObjectBase *>, allocator<PRogramObjectBase *>, false>>::_Nodeptr, _Tree<_Tset_traits<PRogramObjectBase *, less<PRogramObjectBase *>, allocator<PRogramObjectBase *>, false>>::_Nodeptr)
   \                     ??_Copy_3:
   \   00000000   F0472DE9           PUSH     {R4-R10,LR}
   \   00000004   0040A0E1           MOV      R4,R0
   \   00000008   0150A0E1           MOV      R5,R1
   \   0000000C   0D00D5E5           LDRB     R0,[R5, #+13]
   \   00000010   0280A0E1           MOV      R8,R2
   \   00000014   0460A0E1           MOV      R6,R4
   \   00000018   000050E3           CMP      R0,#+0
   \   0000001C   1900001A           BNE      ??_Copy_14
   \   00000020   0C90D5E5           LDRB     R9,[R5, #+12]
   \   00000024   10A095E5           LDR      R10,[R5, #+16]
   \   00000028   1400A0E3           MOV      R0,#+20
   \   0000002C   ........           _BLF     `??operator new`,`??operator new??rA`
   \   00000030   0070B0E1           MOVS     R7,R0
   \   00000034   0600000A           BEQ      ??_Copy_15
   \   00000038   004087E5           STR      R4,[R7, #+0]
   \   0000003C   048087E5           STR      R8,[R7, #+4]
   \   00000040   084087E5           STR      R4,[R7, #+8]
   \   00000044   0C90C7E5           STRB     R9,[R7, #+12]
   \   00000048   0000A0E3           MOV      R0,#+0
   \   0000004C   0D00C7E5           STRB     R0,[R7, #+13]
   \   00000050   10A087E5           STR      R10,[R7, #+16]
   \                     ??_Copy_15:
   \   00000054   0D00D6E5           LDRB     R0,[R6, #+13]
   \   00000058   001095E5           LDR      R1,[R5, #+0]
   \   0000005C   0720A0E1           MOV      R2,R7
   \   00000060   000050E3           CMP      R0,#+0
   \   00000064   0760A011           MOVNE    R6,R7
   \   00000068   0400A0E1           MOV      R0,R4
   \   0000006C   E3FFFFEB           BL       ??_Copy_3
   \   00000070   000087E5           STR      R0,[R7, #+0]
   \   00000074   081095E5           LDR      R1,[R5, #+8]
   \   00000078   0720A0E1           MOV      R2,R7
   \   0000007C   0400A0E1           MOV      R0,R4
   \   00000080   DEFFFFEB           BL       ??_Copy_3
   \   00000084   080087E5           STR      R0,[R7, #+8]
   \                     ??_Copy_14:
   \   00000088   0600A0E1           MOV      R0,R6
   \   0000008C   F047BDE8           POP      {R4-R10,LR}
   \   00000090   1EFF2FE1           BX       LR               ;; return

   \                                 In segment CODE, align 4, keep-with-next
   \   __??Code32?? __code __interwork __atpcs void _Tree<_Tset_traits<int, less<int>, allocator<int>, false>>::_Erase(_Tree<_Tset_traits<int, less<int>, allocator<int>, false>>::_Nodeptr)
   \                     ??_Erase_1:
   \   00000000   70402DE9           PUSH     {R4-R6,LR}
   \   00000004   0040A0E1           MOV      R4,R0
   \   00000008   0150A0E1           MOV      R5,R1
   \   0000000C   0560A0E1           MOV      R6,R5
   \   00000010   060000EA           B        ??_Erase_29
   \                     ??_Erase_30:
   \   00000014   081096E5           LDR      R1,[R6, #+8]
   \   00000018   0400A0E1           MOV      R0,R4
   \   0000001C   F7FFFFEB           BL       ??_Erase_1
   \   00000020   006096E5           LDR      R6,[R6, #+0]
   \   00000024   0500A0E1           MOV      R0,R5
   \   00000028   ........           _BLF     `??operator delete`,`??operator delete??rA`
   \   0000002C   0650A0E1           MOV      R5,R6
   \                     ??_Erase_29:
   \   00000030   0D00D6E5           LDRB     R0,[R6, #+13]
   \   00000034   000050E3           CMP      R0,#+0
   \   00000038   F5FFFF0A           BEQ      ??_Erase_30
   \   0000003C   7040BDE8           POP      {R4-R6,LR}
   \   00000040   1EFF2FE1           BX       LR               ;; return

   \                                 In segment CODE, align 4, keep-with-next
   \   __??Code32?? __code __interwork __atpcs void _Tree<_Tset_traits<unsigned int, less<unsigned int>, allocator<unsigned int>, false>>::_Erase(_Tree<_Tset_traits<unsigned int, less<unsigned int>, allocator<unsigned int>, false>>::_Nodeptr)
   \                     ??_Erase_2:
   \   00000000   70402DE9           PUSH     {R4-R6,LR}
   \   00000004   0040A0E1           MOV      R4,R0
   \   00000008   0150A0E1           MOV      R5,R1
   \   0000000C   0560A0E1           MOV      R6,R5
   \   00000010   060000EA           B        ??_Erase_31
   \                     ??_Erase_32:
   \   00000014   081096E5           LDR      R1,[R6, #+8]
   \   00000018   0400A0E1           MOV      R0,R4
   \   0000001C   F7FFFFEB           BL       ??_Erase_2
   \   00000020   006096E5           LDR      R6,[R6, #+0]
   \   00000024   0500A0E1           MOV      R0,R5
   \   00000028   ........           _BLF     `??operator delete`,`??operator delete??rA`
   \   0000002C   0650A0E1           MOV      R5,R6
   \                     ??_Erase_31:
   \   00000030   0D00D6E5           LDRB     R0,[R6, #+13]
   \   00000034   000050E3           CMP      R0,#+0
   \   00000038   F5FFFF0A           BEQ      ??_Erase_32
   \   0000003C   7040BDE8           POP      {R4-R6,LR}
   \   00000040   1EFF2FE1           BX       LR               ;; return

   \                                 In segment CODE, align 4, keep-with-next
   \   __??Code32?? __code __interwork __atpcs void _Tree<_Tset_traits<PRogramObjectBase *, less<PRogramObjectBase *>, allocator<PRogramObjectBase *>, false>>::_Erase(_Tree<_Tset_traits<PRogramObjectBase *, less<PRogramObjectBase *>, allocator<PRogramObjectBase *>, false>>::_Nodeptr)
   \                     ??_Erase_3:
   \   00000000   70402DE9           PUSH     {R4-R6,LR}
   \   00000004   0040A0E1           MOV      R4,R0
   \   00000008   0150A0E1           MOV      R5,R1
   \   0000000C   0560A0E1           MOV      R6,R5
   \   00000010   060000EA           B        ??_Erase_33
   \                     ??_Erase_34:
   \   00000014   081096E5           LDR      R1,[R6, #+8]
   \   00000018   0400A0E1           MOV      R0,R4
   \   0000001C   F7FFFFEB           BL       ??_Erase_3
   \   00000020   006096E5           LDR      R6,[R6, #+0]
   \   00000024   0500A0E1           MOV      R0,R5
   \   00000028   ........           _BLF     `??operator delete`,`??operator delete??rA`
   \   0000002C   0650A0E1           MOV      R5,R6
   \                     ??_Erase_33:
   \   00000030   0D00D6E5           LDRB     R0,[R6, #+13]
   \   00000034   000050E3           CMP      R0,#+0
   \   00000038   F5FFFF0A           BEQ      ??_Erase_34
   \   0000003C   7040BDE8           POP      {R4-R6,LR}
   \   00000040   1EFF2FE1           BX       LR               ;; return

   \                                 In segment CODE, align 4, keep-with-next
   \   __??Code32?? __code __interwork __atpcs void _Tree<_Tmap_traits<int, PRogramObjectBase *, less<int>, allocator<pair<int const, PRogramObjectBase *>>, false>>::_Erase(_Tree<_Tmap_traits<int, PRogramObjectBase *, less<int>, allocator<pair<int const, PRogramObjectBase *>>, false>>::_Nodeptr)
   \                     ??_Erase_4:
   \   00000000   70402DE9           PUSH     {R4-R6,LR}
   \   00000004   0040A0E1           MOV      R4,R0
   \   00000008   0150A0E1           MOV      R5,R1
   \   0000000C   0560A0E1           MOV      R6,R5
   \   00000010   060000EA           B        ??_Erase_35
   \                     ??_Erase_36:
   \   00000014   081096E5           LDR      R1,[R6, #+8]
   \   00000018   0400A0E1           MOV      R0,R4
   \   0000001C   F7FFFFEB           BL       ??_Erase_4
   \   00000020   006096E5           LDR      R6,[R6, #+0]
   \   00000024   0500A0E1           MOV      R0,R5
   \   00000028   ........           _BLF     `??operator delete`,`??operator delete??rA`
   \   0000002C   0650A0E1           MOV      R5,R6
   \                     ??_Erase_35:
   \   00000030   0D00D6E5           LDRB     R0,[R6, #+13]
   \   00000034   000050E3           CMP      R0,#+0
   \   00000038   F5FFFF0A           BEQ      ??_Erase_36
   \   0000003C   7040BDE8           POP      {R4-R6,LR}
   \   00000040   1EFF2FE1           BX       LR               ;; return

   \                                 In segment CODE, align 4, keep-with-next
   \   __??Code32?? __code __interwork __atpcs _Tree<_Tset_traits<int, less<int>, allocator<int>, false>>::iterator _Tree<_Tset_traits<int, less<int>, allocator<int>, false>>::_Insert(bool, _Tree<_Tset_traits<int, less<int>, allocator<int>, false>>::_Nodeptr, int)
   \                     ??_Insert_1:
   \   00000000   F0412DE9           PUSH     {R4-R8,LR}
   \   00000004   0040A0E1           MOV      R4,R0
   \   00000008   0150A0E1           MOV      R5,R1
   \   0000000C   0260A0E1           MOV      R6,R2
   \   00000010   0370A0E1           MOV      R7,R3
   \   00000014   1400A0E3           MOV      R0,#+20
   \   00000018   ........           _BLF     `??operator new`,`??operator new??rA`
   \   0000001C   0080B0E1           MOVS     R8,R0
   \   00000020   0600000A           BEQ      ??_Insert_14
   \   00000024   004088E5           STR      R4,[R8, #+0]
   \   00000028   046088E5           STR      R6,[R8, #+4]
   \   0000002C   084088E5           STR      R4,[R8, #+8]
   \   00000030   0000A0E3           MOV      R0,#+0
   \   00000034   0C00C8E5           STRB     R0,[R8, #+12]
   \   00000038   0D00C8E5           STRB     R0,[R8, #+13]
   \   0000003C   107088E5           STR      R7,[R8, #+16]
   \                     ??_Insert_14:
   \   00000040   0830A0E1           MOV      R3,R8
   \   00000044   0620A0E1           MOV      R2,R6
   \   00000048   0510A0E1           MOV      R1,R5
   \   0000004C   0400A0E1           MOV      R0,R4
   \   00000050   ........           _BLF     ??_Insert,??_Insert??rA_4
   \   00000054   0800A0E1           MOV      R0,R8
   \   00000058   F041BDE8           POP      {R4-R8,LR}
   \   0000005C   1EFF2FE1           BX       LR               ;; return

   \                                 In segment CODE, align 4, keep-with-next
   \   __??Code32?? __code __interwork __atpcs _Tree<_Tset_traits<unsigned int, less<unsigned int>, allocator<unsigned int>, false>>::iterator _Tree<_Tset_traits<unsigned int, less<unsigned int>, allocator<unsigned int>, false>>::_Insert(bool, _Tree<_Tset_traits<unsigned int, less<unsigned int>, allocator<unsigned int>, false>>::_Nodeptr, unsigned int)
   \                     ??_Insert_2:
   \   00000000   F0412DE9           PUSH     {R4-R8,LR}
   \   00000004   0040A0E1           MOV      R4,R0
   \   00000008   0150A0E1           MOV      R5,R1
   \   0000000C   0260A0E1           MOV      R6,R2
   \   00000010   0370A0E1           MOV      R7,R3
   \   00000014   1400A0E3           MOV      R0,#+20
   \   00000018   ........           _BLF     `??operator new`,`??operator new??rA`
   \   0000001C   0080B0E1           MOVS     R8,R0
   \   00000020   0600000A           BEQ      ??_Insert_15
   \   00000024   004088E5           STR      R4,[R8, #+0]
   \   00000028   046088E5           STR      R6,[R8, #+4]
   \   0000002C   084088E5           STR      R4,[R8, #+8]
   \   00000030   0000A0E3           MOV      R0,#+0
   \   00000034   0C00C8E5           STRB     R0,[R8, #+12]
   \   00000038   0D00C8E5           STRB     R0,[R8, #+13]
   \   0000003C   107088E5           STR      R7,[R8, #+16]
   \                     ??_Insert_15:
   \   00000040   0830A0E1           MOV      R3,R8
   \   00000044   0620A0E1           MOV      R2,R6
   \   00000048   0510A0E1           MOV      R1,R5
   \   0000004C   0400A0E1           MOV      R0,R4
   \   00000050   ........           _BLF     ??_Insert,??_Insert??rA_4
   \   00000054   0800A0E1           MOV      R0,R8
   \   00000058   F041BDE8           POP      {R4-R8,LR}
   \   0000005C   1EFF2FE1           BX       LR               ;; return

   \                                 In segment CODE, align 4, keep-with-next
   \   __??Code32?? __code __interwork __atpcs _Tree<_Tmap_traits<int, PRogramObjectBase *, less<int>, allocator<pair<int const, PRogramObjectBase *>>, false>>::iterator _Tree<_Tmap_traits<int, PRogramObjectBase *, less<int>, allocator<pair<int const, PRogramObjectBase *>>, false>>::_Insert(bool, _Tree<_Tmap_traits<int, PRogramObjectBase *, less<int>, allocator<pair<int const, PRogramObjectBase *>>, false>>::_Nodeptr, pair<int const, PRogramObjectBase *> const &)
   \                     ??_Insert_3:
   \   00000000   F0412DE9           PUSH     {R4-R8,LR}
   \   00000004   0040A0E1           MOV      R4,R0
   \   00000008   0150A0E1           MOV      R5,R1
   \   0000000C   0260A0E1           MOV      R6,R2
   \   00000010   0380A0E1           MOV      R8,R3
   \   00000014   1800A0E3           MOV      R0,#+24
   \   00000018   ........           _BLF     `??operator new`,`??operator new??rA`
   \   0000001C   0070B0E1           MOVS     R7,R0
   \   00000020   0A00000A           BEQ      ??_Insert_16
   \   00000024   004087E5           STR      R4,[R7, #+0]
   \   00000028   046087E5           STR      R6,[R7, #+4]
   \   0000002C   084087E5           STR      R4,[R7, #+8]
   \   00000030   0000A0E3           MOV      R0,#+0
   \   00000034   0C00C7E5           STRB     R0,[R7, #+12]
   \   00000038   0D00C7E5           STRB     R0,[R7, #+13]
   \   0000003C   001098E5           LDR      R1,[R8, #+0]
   \   00000040   100087E2           ADD      R0,R7,#+16
   \   00000044   001080E5           STR      R1,[R0, #+0]
   \   00000048   041098E5           LDR      R1,[R8, #+4]
   \   0000004C   041080E5           STR      R1,[R0, #+4]
   \                     ??_Insert_16:
   \   00000050   0730A0E1           MOV      R3,R7
   \   00000054   0620A0E1           MOV      R2,R6
   \   00000058   0510A0E1           MOV      R1,R5
   \   0000005C   0400A0E1           MOV      R0,R4
   \   00000060   ........           _BLF     ??_Insert,??_Insert??rA_4
   \   00000064   0700A0E1           MOV      R0,R7
   \   00000068   F041BDE8           POP      {R4-R8,LR}
   \   0000006C   1EFF2FE1           BX       LR               ;; return

   \                                 In segment CODE, align 4, keep-with-next
   \   __??Code32?? __code __interwork __atpcs _Tree<_Tset_traits<PRogramObjectBase *, less<PRogramObjectBase *>, allocator<PRogramObjectBase *>, false>>::iterator _Tree<_Tset_traits<PRogramObjectBase *, less<PRogramObjectBase *>, allocator<PRogramObjectBase *>, false>>::_Insert(bool, _Tree<_Tset_traits<PRogramObjectBase *, less<PRogramObjectBase *>, allocator<PRogramObjectBase *>, false>>::_Nodeptr, PRogramObjectBase *)
   \                     ??_Insert_4:
   \   00000000   F0412DE9           PUSH     {R4-R8,LR}
   \   00000004   0040A0E1           MOV      R4,R0
   \   00000008   0150A0E1           MOV      R5,R1
   \   0000000C   0260A0E1           MOV      R6,R2
   \   00000010   0370A0E1           MOV      R7,R3
   \   00000014   1400A0E3           MOV      R0,#+20
   \   00000018   ........           _BLF     `??operator new`,`??operator new??rA`
   \   0000001C   0080B0E1           MOVS     R8,R0
   \   00000020   0600000A           BEQ      ??_Insert_17
   \   00000024   004088E5           STR      R4,[R8, #+0]
   \   00000028   046088E5           STR      R6,[R8, #+4]
   \   0000002C   084088E5           STR      R4,[R8, #+8]
   \   00000030   0000A0E3           MOV      R0,#+0
   \   00000034   0C00C8E5           STRB     R0,[R8, #+12]
   \   00000038   0D00C8E5           STRB     R0,[R8, #+13]
   \   0000003C   107088E5           STR      R7,[R8, #+16]
   \                     ??_Insert_17:
   \   00000040   0830A0E1           MOV      R3,R8
   \   00000044   0620A0E1           MOV      R2,R6
   \   00000048   0510A0E1           MOV      R1,R5
   \   0000004C   0400A0E1           MOV      R0,R4
   \   00000050   ........           _BLF     ??_Insert,??_Insert??rA_4
   \   00000054   0800A0E1           MOV      R0,R8
   \   00000058   F041BDE8           POP      {R4-R8,LR}
   \   0000005C   1EFF2FE1           BX       LR               ;; return

   \                                 In segment CODE, align 4, keep-with-next
   \   __??Code32?? __code __interwork __atpcs _Tree<_Tmap_traits<int, PRogramObjectBase *, less<int>, allocator<pair<int const, PRogramObjectBase *>>, false>>::_Nodeptr _Tree<_Tmap_traits<int, PRogramObjectBase *, less<int>, allocator<pair<int const, PRogramObjectBase *>>, false>>::_Lbound(int) const
   \                     ??_Lbound:
   \   00000000   042090E5           LDR      R2,[R0, #+4]
   \                     ??_Lbound_3:
   \   00000004   0D30D2E5           LDRB     R3,[R2, #+13]
   \   00000008   000053E3           CMP      R3,#+0
   \   0000000C   1EFF2F11           BXNE     LR
   \   00000010   103092E5           LDR      R3,[R2, #+16]
   \   00000014   010053E1           CMP      R3,R1
   \   00000018   082092B5           LDRLT    R2,[R2, #+8]
   \   0000001C   0200A0A1           MOVGE    R0,R2
   \   00000020   002092A5           LDRGE    R2,[R2, #+0]
   \   00000024   F6FFFFEA           B        ??_Lbound_3

   \                                 In segment CODE, align 4, keep-with-next
   \   __??Code32?? __code __interwork __atpcs _Tree<_Tset_traits<PRogramObjectBase *, less<PRogramObjectBase *>, allocator<PRogramObjectBase *>, false>>::_Nodeptr _Tree<_Tset_traits<PRogramObjectBase *, less<PRogramObjectBase *>, allocator<PRogramObjectBase *>, false>>::_Lbound(PRogramObjectBase *) const
   \                     ??_Lbound_1:
   \   00000000   042090E5           LDR      R2,[R0, #+4]
   \                     ??_Lbound_4:
   \   00000004   0D30D2E5           LDRB     R3,[R2, #+13]
   \   00000008   000053E3           CMP      R3,#+0
   \   0000000C   1EFF2F11           BXNE     LR
   \   00000010   103092E5           LDR      R3,[R2, #+16]
   \   00000014   010053E1           CMP      R3,R1
   \   00000018   08209235           LDRCC    R2,[R2, #+8]
   \   0000001C   0200A021           MOVCS    R0,R2
   \   00000020   00209225           LDRCS    R2,[R2, #+0]
   \   00000024   F6FFFFEA           B        ??_Lbound_4

   \                                 In segment CODE, align 4, keep-with-next
   \   __??Code32?? __code __interwork __atpcs _Tree<_Tset_traits<unsigned int, less<unsigned int>, allocator<unsigned int>, false>>::_Nodeptr _Tree<_Tset_traits<unsigned int, less<unsigned int>, allocator<unsigned int>, false>>::_Lbound(unsigned int) const
   \                     ??_Lbound_2:
   \   00000000   042090E5           LDR      R2,[R0, #+4]
   \                     ??_Lbound_5:
   \   00000004   0D30D2E5           LDRB     R3,[R2, #+13]
   \   00000008   000053E3           CMP      R3,#+0
   \   0000000C   1EFF2F11           BXNE     LR
   \   00000010   103092E5           LDR      R3,[R2, #+16]
   \   00000014   010053E1           CMP      R3,R1
   \   00000018   08209235           LDRCC    R2,[R2, #+8]
   \   0000001C   0200A021           MOVCS    R0,R2
   \   00000020   00209225           LDRCS    R2,[R2, #+0]
   \   00000024   F6FFFFEA           B        ??_Lbound_5

   \                                 In segment CODE, align 4, keep-with-next
   \   __??Code32?? __code __interwork __atpcs _Tree<_Tmap_traits<int, PRogramObjectBase *, less<int>, allocator<pair<int const, PRogramObjectBase *>>, false>>::_Nodeptr _Tree<_Tmap_traits<int, PRogramObjectBase *, less<int>, allocator<pair<int const, PRogramObjectBase *>>, false>>::_Ubound(int) const
   \                     ??_Ubound:
   \   00000000   042090E5           LDR      R2,[R0, #+4]
   \                     ??_Ubound_2:
   \   00000004   0D30D2E5           LDRB     R3,[R2, #+13]
   \   00000008   000053E3           CMP      R3,#+0
   \   0000000C   1EFF2F11           BXNE     LR
   \   00000010   103092E5           LDR      R3,[R2, #+16]
   \   00000014   030051E1           CMP      R1,R3
   \   00000018   082092A5           LDRGE    R2,[R2, #+8]
   \   0000001C   0200A0B1           MOVLT    R0,R2
   \   00000020   002092B5           LDRLT    R2,[R2, #+0]
   \   00000024   F6FFFFEA           B        ??_Ubound_2

   \                                 In segment CODE, align 4, keep-with-next
   \   __??Code32?? __code __interwork __atpcs _Tree<_Tset_traits<PRogramObjectBase *, less<PRogramObjectBase *>, allocator<PRogramObjectBase *>, false>>::_Nodeptr _Tree<_Tset_traits<PRogramObjectBase *, less<PRogramObjectBase *>, allocator<PRogramObjectBase *>, false>>::_Ubound(PRogramObjectBase *) const
   \                     ??_Ubound_1:
   \   00000000   042090E5           LDR      R2,[R0, #+4]
   \                     ??_Ubound_3:
   \   00000004   0D30D2E5           LDRB     R3,[R2, #+13]
   \   00000008   000053E3           CMP      R3,#+0
   \   0000000C   1EFF2F11           BXNE     LR
   \   00000010   103092E5           LDR      R3,[R2, #+16]
   \   00000014   030051E1           CMP      R1,R3
   \   00000018   08209225           LDRCS    R2,[R2, #+8]
   \   0000001C   0200A031           MOVCC    R0,R2
   \   00000020   00209235           LDRCC    R2,[R2, #+0]
   \   00000024   F6FFFFEA           B        ??_Ubound_3

   \                                 In segment CODE, align 4, keep-with-next
   \   __??Code32?? __code __interwork __atpcs set<unsigned int> &set<unsigned int>::operator=(set<unsigned int> const &)
   \                     `??operator=`:
   \   00000000   30402DE9           PUSH     {R4,R5,LR}
   \   00000004   0040A0E1           MOV      R4,R0
   \   00000008   0150A0E1           MOV      R5,R1
   \   0000000C   050054E1           CMP      R4,R5
   \   00000010   0500000A           BEQ      `??operator=_1`
   \   00000014   001094E5           LDR      R1,[R4, #+0]
   \   00000018   0420A0E1           MOV      R2,R4
   \   0000001C   ........           _BLF     ??erase,??erase??rA_2
   \   00000020   0510A0E1           MOV      R1,R5
   \   00000024   0400A0E1           MOV      R0,R4
   \   00000028   ........           _BLF     ??_Copy,??_Copy??rA_2
   \                     `??operator=_1`:
   \   0000002C   0400A0E1           MOV      R0,R4
   \   00000030   3040BDE8           POP      {R4,R5,LR}
   \   00000034   1EFF2FE1           BX       LR               ;; return

   \                                 In segment CODE, align 4, keep-with-next
   \   __??Code32?? __code __interwork __atpcs set<PRogramObjectBase *>::~set()
   \                     `?~set`:
   \   00000000   00402DE9           PUSH     {LR}
   \   00000004   ........           _BLF     ??clear_1,??clear??rA_1
   \   00000008   0040BDE8           POP      {LR}
   \   0000000C   1EFF2FE1           BX       LR               ;; return

   \                                 In segment CODE, align 4, keep-with-next
   \   __??Code32?? __code __interwork __atpcs set<unsigned int>::set(set<unsigned int> const &)
   \                     ??set:
   \   00000000   70402DE9           PUSH     {R4-R6,LR}
   \   00000004   0150A0E1           MOV      R5,R1
   \   00000008   1460D5E5           LDRB     R6,[R5, #+20]
   \   0000000C   0040A0E1           MOV      R4,R0
   \   00000010   ........           _BLF     ??_Clear,??_Clear??rA
   \   00000014   1460C4E5           STRB     R6,[R4, #+20]
   \   00000018   0510A0E1           MOV      R1,R5
   \   0000001C   0400A0E1           MOV      R0,R4
   \   00000020   ........           _BLF     ??_Copy,??_Copy??rA_2
   \   00000024   0400A0E1           MOV      R0,R4
   \   00000028   7040BDE8           POP      {R4-R6,LR}
   \   0000002C   1EFF2FE1           BX       LR               ;; return

   \                                 In segment CODE, align 4, keep-with-next
   \   __??Code32?? __code __interwork __atpcs set<unsigned int>::set()
   \                     ??set_1:
   \   00000000   11402DE9           PUSH     {R0,R4,LR}
   \   00000004   0040A0E1           MOV      R4,R0
   \   00000008   0110A0E3           MOV      R1,#+1
   \   0000000C   0D00A0E1           MOV      R0,SP
   \   00000010   ........           _BLF     __data_memzero,??__data_memzero??rA
   \   00000014   0400A0E1           MOV      R0,R4
   \   00000018   ........           _BLF     ??_Clear,??_Clear??rA
   \   0000001C   0000DDE5           LDRB     R0,[SP, #+0]
   \   00000020   1400C4E5           STRB     R0,[R4, #+20]
   \   00000024   0400A0E1           MOV      R0,R4
   \   00000028   1240BDE8           POP      {R1,R4,LR}
   \   0000002C   1EFF2FE1           BX       LR               ;; return

   \                                 In segment CODE, align 4, keep-with-next
   \   __??Code32?? __code __interwork __atpcs set<PRogramObjectBase *>::set()
   \                     ??set_2:
   \   00000000   11402DE9           PUSH     {R0,R4,LR}
   \   00000004   0040A0E1           MOV      R4,R0
   \   00000008   0110A0E3           MOV      R1,#+1
   \   0000000C   0D00A0E1           MOV      R0,SP
   \   00000010   ........           _BLF     __data_memzero,??__data_memzero??rA
   \   00000014   0400A0E1           MOV      R0,R4
   \   00000018   ........           _BLF     ??_Clear,??_Clear??rA
   \   0000001C   0000DDE5           LDRB     R0,[SP, #+0]
   \   00000020   1400C4E5           STRB     R0,[R4, #+20]
   \   00000024   0400A0E1           MOV      R0,R4
   \   00000028   1240BDE8           POP      {R1,R4,LR}
   \   0000002C   1EFF2FE1           BX       LR               ;; return

   \                                 In segment CODE, align 4, keep-with-next
   \   __??Code32?? __code __interwork __atpcs map<int, PRogramObjectBase *>::~map()
   \                     `?~map`:
   \   00000000   00402DE9           PUSH     {LR}
   \   00000004   ........           _BLF     ??clear_2,??clear??rA_2
   \   00000008   0040BDE8           POP      {LR}
   \   0000000C   1EFF2FE1           BX       LR               ;; return

   \                                 In segment CODE, align 4, keep-with-next
   \   __??Code32?? __code __interwork __atpcs void _Vector_value<allocator<void>>::_Zero()
   \                     ??_Zero:
   \   00000000   0010A0E3           MOV      R1,#+0
   \   00000004   001080E5           STR      R1,[R0, #+0]
   \   00000008   041080E5           STR      R1,[R0, #+4]
   \   0000000C   081080E5           STR      R1,[R0, #+8]
   \   00000010   1EFF2FE1           BX       LR               ;; return

   \                                 In segment CODE, align 4, keep-with-next
   \   __??Code32?? __code __interwork __atpcs void _Vector_impl<PRogramObjectBase *, allocator<PRogramObjectBase *>>::_Tidy()
   \                     ??_Tidy:
   \   00000000   10402DE9           PUSH     {R4,LR}
   \   00000004   0040A0E1           MOV      R4,R0
   \   00000008   000094E5           LDR      R0,[R4, #+0]
   \   0000000C   000050E3           CMP      R0,#+0
   \   00000010   0100000A           BEQ      ??_Tidy_2
   \   00000014   040084E5           STR      R0,[R4, #+4]
   \   00000018   ........           _BLF     `??operator delete`,`??operator delete??rA`
   \                     ??_Tidy_2:
   \   0000001C   0400A0E1           MOV      R0,R4
   \   00000020   ........           _BLF     ??_Zero,??_Zero??rA
   \   00000024   1040BDE8           POP      {R4,LR}
   \   00000028   1EFF2FE1           BX       LR               ;; return

   \                                 In segment CODE, align 4, keep-with-next
   \   __??Code32?? __code __interwork __atpcs void _Vector_impl<PRogramObjectBase *, allocator<PRogramObjectBase *>>::_Assign(_Vector_impl<PRogramObjectBase *, allocator<PRogramObjectBase *>> const &)
   \                     ??_Assign:
   \   00000000   71402DE9           PUSH     {R0,R4-R6,LR}
   \   00000004   0040A0E1           MOV      R4,R0
   \   00000008   0150A0E1           MOV      R5,R1
   \   0000000C   050054E1           CMP      R4,R5
   \   00000010   2E00000A           BEQ      ??_Assign_1
   \   00000014   041095E5           LDR      R1,[R5, #+4]
   \   00000018   000095E5           LDR      R0,[R5, #+0]
   \   0000001C   002041E0           SUB      R2,R1,R0
   \   00000020   2231B0E1           LSRS     R3,R2,#+2
   \   00000024   0200001A           BNE      ??_Assign_2
   \   00000028   0400A0E1           MOV      R0,R4
   \   0000002C   ........           _BLF     ??_Tidy,??_Tidy??rA_1
   \   00000030   260000EA           B        ??_Assign_1
   \                     ??_Assign_2:
   \   00000034   002094E5           LDR      R2,[R4, #+0]
   \   00000038   046094E5           LDR      R6,[R4, #+4]
   \   0000003C   026046E0           SUB      R6,R6,R2
   \   00000040   260153E1           CMP      R3,R6, LSR #+2
   \   00000044   0700008A           BHI      ??_Assign_3
   \   00000048   ........           _BLF     _Copy_a4,??_Copy_a4??rA
   \   0000004C   040095E5           LDR      R0,[R5, #+4]
   \   00000050   001095E5           LDR      R1,[R5, #+0]
   \   00000054   010040E0           SUB      R0,R0,R1
   \   00000058   001094E5           LDR      R1,[R4, #+0]
   \   0000005C   2001A0E1           LSR      R0,R0,#+2
   \   00000060   000181E0           ADD      R0,R1,R0, LSL #+2
   \   00000064   180000EA           B        ??_Assign_4
   \                     ??_Assign_3:
   \   00000068   086094E5           LDR      R6,[R4, #+8]
   \   0000006C   026046E0           SUB      R6,R6,R2
   \   00000070   260153E1           CMP      R3,R6, LSR #+2
   \   00000074   1300009A           BLS      ??_Assign_5
   \                     ??_Assign_6:
   \   00000078   000052E3           CMP      R2,#+0
   \   0000007C   0100000A           BEQ      ??_Assign_7
   \   00000080   0200A0E1           MOV      R0,R2
   \   00000084   ........           _BLF     `??operator delete`,`??operator delete??rA`
   \                     ??_Assign_7:
   \   00000088   040095E5           LDR      R0,[R5, #+4]
   \   0000008C   001095E5           LDR      R1,[R5, #+0]
   \   00000090   016040E0           SUB      R6,R0,R1
   \   00000094   0400A0E1           MOV      R0,R4
   \   00000098   ........           _BLF     ??_Zero,??_Zero??rA
   \   0000009C   000056E3           CMP      R6,#+0
   \   000000A0   0A00000A           BEQ      ??_Assign_1
   \   000000A4   0600A0E1           MOV      R0,R6
   \   000000A8   ........           _BLF     `??operator new`,`??operator new??rA`
   \   000000AC   000084E5           STR      R0,[R4, #+0]
   \   000000B0   0020A0E1           MOV      R2,R0
   \   000000B4   042084E5           STR      R2,[R4, #+4]
   \   000000B8   020086E0           ADD      R0,R6,R2
   \   000000BC   080084E5           STR      R0,[R4, #+8]
   \   000000C0   041095E5           LDR      R1,[R5, #+4]
   \   000000C4   000095E5           LDR      R0,[R5, #+0]
   \                     ??_Assign_5:
   \   000000C8   ........           _BLF     _Copy_a4,??_Copy_a4??rA
   \                     ??_Assign_4:
   \   000000CC   040084E5           STR      R0,[R4, #+4]
   \                     ??_Assign_1:
   \   000000D0   7140BDE8           POP      {R0,R4-R6,LR}
   \   000000D4   1EFF2FE1           BX       LR               ;; return

   \                                 In segment CODE, align 4, keep-with-next
   \   __??Code32?? __code __interwork __atpcs void operator+(string const &, string const &)
   \                     `??operator+`:
   \   00000000   30402DE9           PUSH     {R4,R5,LR}
   \   00000004   1CD04DE2           SUB      SP,SP,#+28
   \   00000008   0040A0E1           MOV      R4,R0
   \   0000000C   0250A0E1           MOV      R5,R2
   \   00000010   0D00A0E1           MOV      R0,SP
   \   00000014   ........           _BLF     ??string,??string??rA
   \   00000018   34109FE5           LDR      R1,`??operator+_3`  ;; ??npos
   \   0000001C   0020A0E3           MOV      R2,#+0
   \   00000020   003091E5           LDR      R3,[R1, #+0]
   \   00000024   0510A0E1           MOV      R1,R5
   \   00000028   ........           _BLF     ??append,??append??rA
   \   0000002C   0010A0E1           MOV      R1,R0
   \   00000030   0400A0E1           MOV      R0,R4
   \   00000034   ........           _BLF     ??string,??string??rA
   \   00000038   0020A0E3           MOV      R2,#+0
   \   0000003C   0110A0E3           MOV      R1,#+1
   \   00000040   0D00A0E1           MOV      R0,SP
   \   00000044   ........           _BLF     ??_Tidy_1,??_Tidy??rA
   \   00000048   1CD08DE2           ADD      SP,SP,#+28
   \   0000004C   3040BDE8           POP      {R4,R5,LR}
   \   00000050   1EFF2FE1           BX       LR               ;; return
   \                     `??operator+_3`:
   \   00000054   ........           DC32     ??npos

   \                                 In segment CODE, align 4, keep-with-next
   \   __??Code32?? __code __interwork __atpcs void operator+(char const *, string const &)
   \                     `??operator+_1`:
   \   00000000   70402DE9           PUSH     {R4-R6,LR}
   \   00000004   1CD04DE2           SUB      SP,SP,#+28
   \   00000008   0040A0E1           MOV      R4,R0
   \   0000000C   0150A0E1           MOV      R5,R1
   \   00000010   0260A0E1           MOV      R6,R2
   \   00000014   0020A0E3           MOV      R2,#+0
   \   00000018   0010A0E3           MOV      R1,#+0
   \   0000001C   0D00A0E1           MOV      R0,SP
   \   00000020   ........           _BLF     ??_Tidy_1,??_Tidy??rA
   \   00000024   0500A0E1           MOV      R0,R5
   \   00000028   ........           _BLF     strlen,??strlen??rA
   \   0000002C   0020A0E1           MOV      R2,R0
   \   00000030   0510A0E1           MOV      R1,R5
   \   00000034   0D00A0E1           MOV      R0,SP
   \   00000038   ........           _BLF     ??assign_1,??assign??rA_1
   \   0000003C   38009FE5           LDR      R0,`??operator+_4`  ;; ??npos
   \   00000040   0020A0E3           MOV      R2,#+0
   \   00000044   003090E5           LDR      R3,[R0, #+0]
   \   00000048   0610A0E1           MOV      R1,R6
   \   0000004C   0D00A0E1           MOV      R0,SP
   \   00000050   ........           _BLF     ??append,??append??rA
   \   00000054   0010A0E1           MOV      R1,R0
   \   00000058   0400A0E1           MOV      R0,R4
   \   0000005C   ........           _BLF     ??string,??string??rA
   \   00000060   0020A0E3           MOV      R2,#+0
   \   00000064   0110A0E3           MOV      R1,#+1
   \   00000068   0D00A0E1           MOV      R0,SP
   \   0000006C   ........           _BLF     ??_Tidy_1,??_Tidy??rA
   \   00000070   1CD08DE2           ADD      SP,SP,#+28
   \   00000074   7040BDE8           POP      {R4-R6,LR}
   \   00000078   1EFF2FE1           BX       LR               ;; return
   \                     `??operator+_4`:
   \   0000007C   ........           DC32     ??npos

   \                                 In segment CODE, align 4, keep-with-next
   \   __??Code32?? __code __interwork __atpcs void operator+(string const &, char const *)
   \                     `??operator+_2`:
   \   00000000   70402DE9           PUSH     {R4-R6,LR}
   \   00000004   1CD04DE2           SUB      SP,SP,#+28
   \   00000008   0040A0E1           MOV      R4,R0
   \   0000000C   0250A0E1           MOV      R5,R2
   \   00000010   0D00A0E1           MOV      R0,SP
   \   00000014   ........           _BLF     ??string,??string??rA
   \   00000018   0060A0E1           MOV      R6,R0
   \   0000001C   0500A0E1           MOV      R0,R5
   \   00000020   ........           _BLF     strlen,??strlen??rA
   \   00000024   0020A0E1           MOV      R2,R0
   \   00000028   0510A0E1           MOV      R1,R5
   \   0000002C   0600A0E1           MOV      R0,R6
   \   00000030   ........           _BLF     ??append_1,??append??rA_1
   \   00000034   0010A0E1           MOV      R1,R0
   \   00000038   0400A0E1           MOV      R0,R4
   \   0000003C   ........           _BLF     ??string,??string??rA
   \   00000040   0020A0E3           MOV      R2,#+0
   \   00000044   0110A0E3           MOV      R1,#+1
   \   00000048   0D00A0E1           MOV      R0,SP
   \   0000004C   ........           _BLF     ??_Tidy_1,??_Tidy??rA
   \   00000050   1CD08DE2           ADD      SP,SP,#+28
   \   00000054   7040BDE8           POP      {R4-R6,LR}
   \   00000058   1EFF2FE1           BX       LR               ;; return

   \                                 In segment CODE, align 4, keep-with-next
   \   __??Code32?? __code __interwork __atpcs bool operator==(string const &, char const *)
   \                     `??operator==`:
   \   00000000   30402DE9           PUSH     {R4,R5,LR}
   \   00000004   0040A0E1           MOV      R4,R0
   \   00000008   0150A0E1           MOV      R5,R1
   \   0000000C   0500A0E1           MOV      R0,R5
   \   00000010   ........           _BLF     strlen,??strlen??rA
   \   00000014   01002DE9           PUSH     {R0}
   \   00000018   142094E5           LDR      R2,[R4, #+20]
   \   0000001C   0530A0E1           MOV      R3,R5
   \   00000020   0010A0E3           MOV      R1,#+0
   \   00000024   0400A0E1           MOV      R0,R4
   \   00000028   ........           _BLF     ??compare,??compare??rA
   \   0000002C   04D08DE2           ADD      SP,SP,#+4
   \   00000030   3040BDE8           POP      {R4,R5,LR}
   \   00000034   000050E3           CMP      R0,#+0
   \   00000038   0100A003           MOVEQ    R0,#+1
   \   0000003C   0000A013           MOVNE    R0,#+0
   \   00000040   1EFF2FE1           BX       LR               ;; return
      2          #ifdef ANWIN
      3          #include "MainUnit.h"
      4          #endif
      5          #pragma hdrstop
      6          #ifdef BORLAND
      7              #pragma package(smart_init)
      8          #endif
      9          
     10          //---------------------------------------------------------------------------
     11          

   \                                 In segment DATA_I, align 1, align-sorted
     12          volatile bool PRogramObjectBase::WriteAll = true;
   \                     ??WriteAll:
   \   00000000                      DS8 1
   \   00000001                      REQUIRE `?<Initializer for WriteAll>`
     13          
     14          map<int, PRogramObjectBase *>PRogramObjectBase::IdMap;
     15          

   \                                 In segment CODE, align 4, keep-with-next
   \   static __??Code32?? __intrinsic __code __interwork __atpcs void __sti__routine()
   \                     ??__sti__routine:
   \   00000000   31402DE9           PUSH     {R0,R4,R5,LR}
   \   00000004   ........           LDR      R4,??DataTable6  ;; ??IdMap
   \   00000008   0110A0E3           MOV      R1,#+1
   \   0000000C   54509FE5           LDR      R5,??__sti__routine_1  ;; ?_0
   \   00000010   0D00A0E1           MOV      R0,SP
   \   00000014   ........           _BLF     __data_memzero,??__data_memzero??rA
   \   00000018   0400A0E1           MOV      R0,R4
   \   0000001C   ........           _BLF     ??_Clear,??_Clear??rA
   \   00000020   0000DDE5           LDRB     R0,[SP, #+0]
   \   00000024   1400C4E5           STRB     R0,[R4, #+20]
   \   00000028   0500A0E1           MOV      R0,R5
   \   0000002C   ........           _BLF     __record_needed_destruction,??__record_needed_destruction??rA
     16          set<PRogramObjectBase *>PRogramObjectBase::PRogramObjectBaseSet;
   \   00000030   180084E2           ADD      R0,R4,#+24
   \   00000034   ........           _BLF     ??set_2,??set??rA
   \   00000038   0C0085E2           ADD      R0,R5,#+12
   \   0000003C   ........           _BLF     __record_needed_destruction,??__record_needed_destruction??rA
     17          set<PRogramObjectBase *>PRogramObjectBase::MySet;
   \   00000040   300084E2           ADD      R0,R4,#+48
   \   00000044   ........           _BLF     ??set_2,??set??rA
   \   00000048   180085E2           ADD      R0,R5,#+24
   \   0000004C   ........           _BLF     __record_needed_destruction,??__record_needed_destruction??rA
     18          set<PRogramObjectBase *>PRogramObjectBase::DataTransferSet;
   \   00000050   480084E2           ADD      R0,R4,#+72
   \   00000054   ........           _BLF     ??set_2,??set??rA
   \   00000058   240085E2           ADD      R0,R5,#+36
   \   0000005C   ........           _BLF     __record_needed_destruction,??__record_needed_destruction??rA
   \   00000060   3140BDE8           POP      {R0,R4,R5,LR}
   \   00000064   1EFF2FE1           BX       LR               ;; return
   \                     ??__sti__routine_1:
   \   00000068   ........           DC32     ?_0

   \                                 In segment DATA_C, align 4, align-sorted
   \                     ?_0:
   \   00000000   ............       DC32 ?_1, ??IdMap, `?~map`
   \              ............
   \   0000000C   ............       DC32 ?_3, ??PRogramObjectBaseSet, `?~set`
   \              ............
   \   00000018   ............       DC32 ?_5, ??MySet, `?~set`
   \              ............
   \   00000024   ............       DC32 ?_7, ??DataTransferSet, `?~set`
   \              ............

   \                                 In segment DATA_Z, align 4, align-sorted
   \                     ??IdMap:
   \   00000000                      DS8 24
   \                     ??PRogramObjectBaseSet:
   \   00000018                      DS8 24
   \                     ??MySet:
   \   00000030                      DS8 24
   \                     ??DataTransferSet:
   \   00000048                      DS8 24
     19          
     20          

   \                                 In segment CODE, align 4, keep-with-next
     21          PRogramObjectBase::PRogramObjectBase(bool AddToList) {
   \                     ??PRogramObjectBase:
   \   00000000   F0412DE9           PUSH     {R4-R8,LR}
     22              MySet.insert(this);
   \   00000004   ........           LDR      R5,??DataTable2  ;; ??IdMap
   \   00000008   0040A0E1           MOV      R4,R0
   \   0000000C   ........           LDR      R0,??DataTable5  ;; ??__vtbl
   \   00000010   40D04DE2           SUB      SP,SP,#+64
   \   00000014   0160A0E1           MOV      R6,R1
   \   00000018   A40084E5           STR      R0,[R4, #+164]
   \   0000001C   080084E2           ADD      R0,R4,#+8
   \   00000020   ........           _BLF     ??set_1,??set??rA_1
   \   00000024   200084E2           ADD      R0,R4,#+32
   \   00000028   ........           _BLF     ??set_1,??set??rA_1
   \   0000002C   440084E2           ADD      R0,R4,#+68
   \   00000030   ........           _BLF     ??AnsiString,??AnsiString??rA
   \   00000034   600084E2           ADD      R0,R4,#+96
   \   00000038   ........           _BLF     ??AnsiString,??AnsiString??rA
   \   0000003C   7C0084E2           ADD      R0,R4,#+124
   \   00000040   ........           _BLF     ??AnsiString,??AnsiString??rA
   \   00000044   0420A0E1           MOV      R2,R4
   \   00000048   301085E2           ADD      R1,R5,#+48
   \   0000004C   0D00A0E1           MOV      R0,SP
   \   00000050   ........           _BLF     ??insert,??insert??rA
     23              if ( AddToList ) {
   \   00000054   000056E3           CMP      R6,#+0
   \   00000058   0400000A           BEQ      ??PRogramObjectBase_1
     24                  PRogramObjectBaseSet.insert(this);
   \   0000005C   0420A0E1           MOV      R2,R4
   \   00000060   181085E2           ADD      R1,R5,#+24
   \   00000064   0D00A0E1           MOV      R0,SP
   \   00000068   ........           _BLF     ??insert,??insert??rA
     25              }
     26              ActiveAlarms    = 0;
   \   0000006C   0060A0E3           MOV      R6,#+0
   \                     ??PRogramObjectBase_1:
   \   00000070   386084E5           STR      R6,[R4, #+56]
     27              IsModified      = false;
   \   00000074   010006E2           AND      R0,R6,#0x1
   \   00000078   0000C4E5           STRB     R0,[R4, #+0]
     28              Name            = "0";
   \   0000007C   ........           ADR      R7,??DataTable1  ;; "0"
   \   00000080   0710A0E1           MOV      R1,R7
   \   00000084   08008DE2           ADD      R0,SP,#+8
   \   00000088   ........           _BLF     ??AnsiString_1,??AnsiString??rA_1
   \   0000008C   ........           LDR      R1,??DataTable22  ;; ??npos
   \   00000090   0020A0E3           MOV      R2,#+0
   \   00000094   008091E5           LDR      R8,[R1, #+0]
   \   00000098   0010A0E1           MOV      R1,R0
   \   0000009C   0830A0E1           MOV      R3,R8
   \   000000A0   440084E2           ADD      R0,R4,#+68
   \   000000A4   ........           _BLF     ??assign,??assign??rA
   \   000000A8   0020A0E3           MOV      R2,#+0
   \   000000AC   0110A0E3           MOV      R1,#+1
   \   000000B0   08008DE2           ADD      R0,SP,#+8
   \   000000B4   ........           _BLF     ??_Tidy_1,??_Tidy??rA
     29              TagName         = "0";
   \   000000B8   0710A0E1           MOV      R1,R7
   \   000000BC   24008DE2           ADD      R0,SP,#+36
   \   000000C0   ........           _BLF     ??AnsiString_1,??AnsiString??rA_1
   \   000000C4   0010A0E1           MOV      R1,R0
   \   000000C8   0830A0E1           MOV      R3,R8
   \   000000CC   0020A0E3           MOV      R2,#+0
   \   000000D0   600084E2           ADD      R0,R4,#+96
   \   000000D4   ........           _BLF     ??assign,??assign??rA
   \   000000D8   0020A0E3           MOV      R2,#+0
   \   000000DC   0110A0E3           MOV      R1,#+1
   \   000000E0   24008DE2           ADD      R0,SP,#+36
   \   000000E4   ........           _BLF     ??_Tidy_1,??_Tidy??rA
     30              SortNo          = 0;
   \   000000E8   986084E5           STR      R6,[R4, #+152]
     31              IDNumber        = 0;
   \   000000EC   9C6084E5           STR      R6,[R4, #+156]
     32          
     33              IDNumber 	    = (C_PRO_BASIC << 16) + MySet.size();
   \   000000F0   400095E5           LDR      R0,[R5, #+64]
   \   000000F4   C017A0E3           MOV      R1,#+50331648
   \   000000F8   E71881E3           ORR      R1,R1,#0xE70000
   \   000000FC   000081E0           ADD      R0,R1,R0
   \   00000100   9C0084E5           STR      R0,[R4, #+156]
     34              Type            = 0;
   \   00000104   A06084E5           STR      R6,[R4, #+160]
     35              HWFailure       = false;
   \   00000108   010006E2           AND      R0,R6,#0x1
   \   0000010C   3C00C4E5           STRB     R0,[R4, #+60]
     36              TimeStamp       = clock();
   \   00000110   ........           _BLF     clock,??clock??rA
   \   00000114   400084E5           STR      R0,[R4, #+64]
     37              LineNumber      = -1;
   \   00000118   0000E0E3           MVN      R0,#+0
   \   0000011C   040084E5           STR      R0,[R4, #+4]
     38          }
   \   00000120   0400A0E1           MOV      R0,R4
   \   00000124   40D08DE2           ADD      SP,SP,#+64
   \   00000128   ........           B        ??Subroutine65_0

   \                                 In segment CODE, align 4, keep-with-next
   \                     ?Subroutine65:
   \   00000000   24D08DE2           ADD      SP,SP,#+36
   \                     ??Subroutine65_0:
   \   00000004   F041BDE8           POP      {R4-R8,LR}
   \   00000008   1EFF2FE1           BX       LR               ;; return
     39          //---------------------------------------------------------------------------
     40          

   \                                 In segment CODE, align 4, keep-with-next
     41          PRogramObjectBase::~PRogramObjectBase(void) {
   \                     `?~PRogramObjectBase`:
   \   00000000   70402DE9           PUSH     {R4-R6,LR}
   \   00000004   0040A0E1           MOV      R4,R0
   \   00000008   0150A0E1           MOV      R5,R1
   \   0000000C   000054E3           CMP      R4,#+0
   \   00000010   2500000A           BEQ      `?~PRogramObjectBase_1`
   \   00000014   ........           LDR      R0,??DataTable5  ;; ??__vtbl
     42              set<PRogramObjectBase *>::iterator it = PRogramObjectBaseSet.find(this);
   \   00000018   ........           LDR      R6,??DataTable6  ;; ??IdMap
   \   0000001C   A40084E5           STR      R0,[R4, #+164]
   \   00000020   0410A0E1           MOV      R1,R4
   \   00000024   180086E2           ADD      R0,R6,#+24
   \   00000028   ........           _BLF     ??find_1,??find??rA
     43          
     44              if ( it != PRogramObjectBaseSet.end() ) {
   \   0000002C   181086E2           ADD      R1,R6,#+24
   \   00000030   010050E1           CMP      R0,R1
   \   00000034   0800000A           BEQ      `?~PRogramObjectBase_2`
     45                  PRogramObjectBaseSet.erase(this);
   \   00000038   0410A0E1           MOV      R1,R4
   \   0000003C   180086E2           ADD      R0,R6,#+24
   \   00000040   ........           _BLF     ??erase_3,??erase??rA_3
     46                  MySet.erase(this);
   \   00000044   0410A0E1           MOV      R1,R4
   \   00000048   300086E2           ADD      R0,R6,#+48
   \   0000004C   ........           _BLF     ??erase_3,??erase??rA_3
     47                  IdMap.erase(IDNumber);
   \   00000050   9C1094E5           LDR      R1,[R4, #+156]
   \   00000054   0600A0E1           MOV      R0,R6
   \   00000058   ........           _BLF     ??erase_4,??erase??rA_4
     48              }
     49          }
   \                     `?~PRogramObjectBase_2`:
   \   0000005C   0020A0E3           MOV      R2,#+0
   \   00000060   0110A0E3           MOV      R1,#+1
   \   00000064   7C0084E2           ADD      R0,R4,#+124
   \   00000068   ........           _BLF     ??_Tidy_1,??_Tidy??rA
   \   0000006C   0020A0E3           MOV      R2,#+0
   \   00000070   0110A0E3           MOV      R1,#+1
   \   00000074   600084E2           ADD      R0,R4,#+96
   \   00000078   ........           _BLF     ??_Tidy_1,??_Tidy??rA
   \   0000007C   0020A0E3           MOV      R2,#+0
   \   00000080   0110A0E3           MOV      R1,#+1
   \   00000084   440084E2           ADD      R0,R4,#+68
   \   00000088   ........           _BLF     ??_Tidy_1,??_Tidy??rA
   \   0000008C   200084E2           ADD      R0,R4,#+32
   \   00000090   ........           _BLF     ??clear,??clear??rA
   \   00000094   080084E2           ADD      R0,R4,#+8
   \   00000098   ........           _BLF     ??clear,??clear??rA
   \   0000009C   010015E3           TST      R5,#0x1
   \   000000A0   0100000A           BEQ      `?~PRogramObjectBase_1`
   \   000000A4   0400A0E1           MOV      R0,R4
   \   000000A8   ........           _BLF     `??operator delete`,`??operator delete??rA`
   \                     `?~PRogramObjectBase_1`:
   \   000000AC   ........           B        ?Subroutine67

   \                                 In segment CODE, align 4, keep-with-next
   \                     ?Subroutine67:
   \   00000000   7040BDE8           POP      {R4-R6,LR}
   \   00000004   1EFF2FE1           BX       LR               ;; return
   \                     ??Subroutine67_0:
   \   00000008   00000000           DC8      "",+0,+0,+0
     50          //---------------------------------------------------------------------------
     51          
     52          ///////////////////////////////////////////////////////////////
     53          //
     54          // Routines for the Configuration
     55          //
     56          ///////////////////////////////////////////////////////////////

   \                                 In segment CODE, align 4, keep-with-next
     57          AnsiString PRogramObjectBase::IdNumString(void) {
   \                     ??IdNumString:
   \   00000000   30402DE9           PUSH     {R4,R5,LR}
   \   00000004   1CD04DE2           SUB      SP,SP,#+28
   \   00000008   0040A0E1           MOV      R4,R0
   \   0000000C   0150A0E1           MOV      R5,R1
     58              AnsiString IdNumStr;
   \   00000010   0500A0E1           MOV      R0,R5
   \   00000014   ........           _BLF     ??AnsiString,??AnsiString??rA
     59              IdNumStr.cat_sprintf("0x%0x", IDNumber);
   \   00000018   9C3094E5           LDR      R3,[R4, #+156]
   \   0000001C   ........           LDR      R2,??DataTable12  ;; `?<Constant " don\\'t match object t...">` + 44
   \   00000020   0D10A0E1           MOV      R1,SP
   \   00000024   0500A0E1           MOV      R0,R5
   \   00000028   ........           _BLF     ??cat_sprintf,??cat_sprintf??rA
   \   0000002C   0020A0E3           MOV      R2,#+0
   \   00000030   0110A0E3           MOV      R1,#+1
   \   00000034   0D00A0E1           MOV      R0,SP
   \   00000038   ........           _BLF     ??_Tidy_1,??_Tidy??rA
     60              return IdNumStr;
   \   0000003C   1CD08DE2           ADD      SP,SP,#+28
   \   00000040   ........           B        ??Subroutine63_0
     61          }

   \                                 In segment CODE, align 4, keep-with-next
   \                     ?Subroutine63:
   \   00000000   0500A0E1           MOV      R0,R5
   \                     ??Subroutine63_0:
   \   00000004   3040BDE8           POP      {R4,R5,LR}
   \   00000008   1EFF2FE1           BX       LR               ;; return
     62          

   \                                 In segment CODE, align 4, keep-with-next
     63          set<unsigned> PRogramObjectBase::ReadIdTable(TSNConfigString &ConfigInputLines, int &ErrorStatus, int EndKw) {
   \                     ??ReadIdTable:
   \   00000000   F3402DE9           PUSH     {R0,R1,R4-R7,LR}
   \   00000004   1C709DE5           LDR      R7,[SP, #+28]
   \   00000008   0140A0E1           MOV      R4,R1
   \   0000000C   0250A0E1           MOV      R5,R2
   \   00000010   0360A0E1           MOV      R6,R3
     64              set<unsigned>tmpIdSet;
   \   00000014   0400A0E1           MOV      R0,R4
   \   00000018   ........           _BLF     ??set_1,??set??rA_1
     65              do {
     66                  unsigned tmpId = ConfigInputLines.ReadInteger(ErrorStatus, EndKw);
   \                     ??ReadIdTable_1:
   \   0000001C   0720A0E1           MOV      R2,R7
   \   00000020   0610A0E1           MOV      R1,R6
   \   00000024   0500A0E1           MOV      R0,R5
   \   00000028   ........           _BLF     ??ReadInteger,??ReadInteger??rA
     67                  if ( !ErrorStatus ) {
   \   0000002C   001096E5           LDR      R1,[R6, #+0]
   \   00000030   000051E3           CMP      R1,#+0
   \   00000034   0300001A           BNE      ??ReadIdTable_2
     68                      tmpIdSet.insert(tmpId);
   \   00000038   0020A0E1           MOV      R2,R0
   \   0000003C   0410A0E1           MOV      R1,R4
   \   00000040   0D00A0E1           MOV      R0,SP
   \   00000044   ........           _BLF     ??insert_1,??insert??rA_1
     69                  }
     70              }while ( !ErrorStatus );
   \                     ??ReadIdTable_2:
   \   00000048   000096E5           LDR      R0,[R6, #+0]
   \   0000004C   000050E3           CMP      R0,#+0
   \   00000050   F1FFFF0A           BEQ      ??ReadIdTable_1
     71              if ( ErrorStatus == END_FOUND ) {
   \   00000054   020070E3           CMN      R0,#+2
     72                  // End found, Permitted in this case, so ErrorStatus set to 0
     73                  ErrorStatus = 0;
   \   00000058   0000A003           MOVEQ    R0,#+0
   \   0000005C   00008605           STREQ    R0,[R6, #+0]
     74              }
     75              return (tmpIdSet);
   \   00000060   F340BDE8           POP      {R0,R1,R4-R7,LR}
   \   00000064   1EFF2FE1           BX       LR               ;; return
     76          }
     77          

   \                                 In segment CODE, align 4, keep-with-next
     78          AnsiString PRogramObjectBase::MakeIdTableString(int ExtraTabs) {
   \                     ??MakeIdTableString:
   \   00000000   F0402DE9           PUSH     {R4-R7,LR}
   \   00000004   34D04DE2           SUB      SP,SP,#+52
   \   00000008   0040A0E1           MOV      R4,R0
   \   0000000C   0150A0E1           MOV      R5,R1
   \   00000010   0260A0E1           MOV      R6,R2
     79              AnsiString LocalString;
   \   00000014   0500A0E1           MOV      R0,R5
   \   00000018   ........           _BLF     ??AnsiString,??AnsiString??rA
     80              if ( !ReadPermissionSet.empty() ) {
   \   0000001C   180094E5           LDR      R0,[R4, #+24]
   \   00000020   4970A0E3           MOV      R7,#+73
   \   00000024   507E87E3           ORR      R7,R7,#0x500
   \   00000028   000050E3           CMP      R0,#+0
   \   0000002C   1800000A           BEQ      ??MakeIdTableString_2
     81                  LocalString += MakeIdTableString(ReadPermissionSet, C_PRO_READ_PERMISSION, C_PROLIST_END, ExtraTabs);
   \   00000030   081084E2           ADD      R1,R4,#+8
   \   00000034   1C008DE2           ADD      R0,SP,#+28
   \   00000038   ........           _BLF     ??set,??set??rA_2
   \   0000003C   0610A0E1           MOV      R1,R6
   \   00000040   02002DE9           PUSH     {R1}
   \   00000044   0710A0E1           MOV      R1,R7
   \   00000048   02002DE9           PUSH     {R1}
   \   0000004C   303041E2           SUB      R3,R1,#+48
   \   00000050   0020A0E1           MOV      R2,R0
   \   00000054   08108DE2           ADD      R1,SP,#+8
   \   00000058   0400A0E1           MOV      R0,R4
   \   0000005C   ........           BL       ??MakeIdTableString_1
   \   00000060   ........           LDR      R0,??DataTable22  ;; ??npos
   \   00000064   0020A0E3           MOV      R2,#+0
   \   00000068   003090E5           LDR      R3,[R0, #+0]
   \   0000006C   08108DE2           ADD      R1,SP,#+8
   \   00000070   0500A0E1           MOV      R0,R5
   \   00000074   ........           _BLF     ??append,??append??rA
   \   00000078   0020A0E3           MOV      R2,#+0
   \   0000007C   0110A0E3           MOV      R1,#+1
   \   00000080   08008DE2           ADD      R0,SP,#+8
   \   00000084   ........           _BLF     ??_Tidy_1,??_Tidy??rA
   \   00000088   24008DE2           ADD      R0,SP,#+36
   \   0000008C   ........           _BLF     ??clear,??clear??rA
   \   00000090   08D08DE2           ADD      SP,SP,#+8
     82              }
     83              if ( !WritePermissionSet.empty() ) {
   \                     ??MakeIdTableString_2:
   \   00000094   300094E5           LDR      R0,[R4, #+48]
   \   00000098   000050E3           CMP      R0,#+0
   \   0000009C   1600000A           BEQ      ??MakeIdTableString_3
     84                  LocalString += MakeIdTableString(WritePermissionSet, C_PRO_WRITE_PERMISSION, C_PROLIST_END, ExtraTabs);
   \   000000A0   201084E2           ADD      R1,R4,#+32
   \   000000A4   1C008DE2           ADD      R0,SP,#+28
   \   000000A8   ........           _BLF     ??set,??set??rA_2
   \   000000AC   0020A0E1           MOV      R2,R0
   \   000000B0   40002DE9           PUSH     {R6}
   \   000000B4   80002DE9           PUSH     {R7}
   \   000000B8   2F3047E2           SUB      R3,R7,#+47
   \   000000BC   08108DE2           ADD      R1,SP,#+8
   \   000000C0   0400A0E1           MOV      R0,R4
   \   000000C4   ........           BL       ??MakeIdTableString_1
   \   000000C8   ........           LDR      R0,??DataTable22  ;; ??npos
   \   000000CC   0020A0E3           MOV      R2,#+0
   \   000000D0   003090E5           LDR      R3,[R0, #+0]
   \   000000D4   08108DE2           ADD      R1,SP,#+8
   \   000000D8   0500A0E1           MOV      R0,R5
   \   000000DC   ........           _BLF     ??append,??append??rA
   \   000000E0   0020A0E3           MOV      R2,#+0
   \   000000E4   0110A0E3           MOV      R1,#+1
   \   000000E8   08008DE2           ADD      R0,SP,#+8
   \   000000EC   ........           _BLF     ??_Tidy_1,??_Tidy??rA
   \   000000F0   24008DE2           ADD      R0,SP,#+36
   \   000000F4   ........           _BLF     ??clear,??clear??rA
   \   000000F8   08D08DE2           ADD      SP,SP,#+8
     85              }
     86              return LocalString;
   \                     ??MakeIdTableString_3:
   \   000000FC   34D08DE2           ADD      SP,SP,#+52
   \   00000100   ........           B        ?Subroutine68
     87          }

   \                                 In segment CODE, align 4, keep-with-next
   \                     ?Subroutine68:
   \   00000000   F040BDE8           POP      {R4-R7,LR}
   \   00000004   1EFF2FE1           BX       LR               ;; return
     88          

   \                                 In segment CODE, align 4, keep-with-next
     89          AnsiString PRogramObjectBase::MakeIdTableString(set<unsigned>IdSet, int StartKW, int EndKW, int ExtraTabs) {
   \                     ??MakeIdTableString_1:
   \   00000000   F0432DE9           PUSH     {R4-R9,LR}
   \   00000004   54DF4DE2           SUB      SP,SP,#+336
   \   00000008   70819DE5           LDR      R8,[SP, #+368]
   \   0000000C   6C619DE5           LDR      R6,[SP, #+364]
   \   00000010   0140A0E1           MOV      R4,R1
   \   00000014   0250A0E1           MOV      R5,R2
   \   00000018   0370A0E1           MOV      R7,R3
     90              AnsiString LocalString;
   \   0000001C   0400A0E1           MOV      R0,R4
   \   00000020   ........           _BLF     ??AnsiString,??AnsiString??rA
     91              //AnsiString TabStr1= AnsiString::StringOfChar('\t',1+ExtraTabs);
     92              //AnsiString TabStr2= AnsiString::StringOfChar('\t',2+ExtraTabs);
     93              AnsiString TabStr3 = AnsiString::StringOfChar('\t', 3 + ExtraTabs);
   \   00000024   032088E2           ADD      R2,R8,#+3
   \   00000028   0910A0E3           MOV      R1,#+9
   \   0000002C   FC008DE2           ADD      R0,SP,#+252
   \   00000030   ........           _BLF     ??StringOfChar,??StringOfChar??rA
     94              AnsiString TabStr4 = AnsiString::StringOfChar('\t', 4 + ExtraTabs);
   \   00000034   042088E2           ADD      R2,R8,#+4
   \   00000038   0910A0E3           MOV      R1,#+9
   \   0000003C   460F8DE2           ADD      R0,SP,#+280
   \   00000040   ........           _BLF     ??StringOfChar,??StringOfChar??rA
     95              //AnsiString TabStr5= AnsiString::StringOfChar('\t',5+ExtraTabs);
     96              //AnsiString TabStr6= AnsiString::StringOfChar('\t',6+ExtraTabs);
     97              LocalString += TabStr3 + KeyWord(StartKW) + CrLfStr;
   \   00000044   0710A0E1           MOV      R1,R7
   \   00000048   ........           LDR      R7,??DataTable13  ;; CrLfStr
   \   0000004C   8C008DE2           ADD      R0,SP,#+140
   \   00000050   ........           _BLF     ??KeyWord,??KeyWord??rA
   \   00000054   8C208DE2           ADD      R2,SP,#+140
   \   00000058   FC108DE2           ADD      R1,SP,#+252
   \   0000005C   70008DE2           ADD      R0,SP,#+112
   \   00000060   ........           _BLF     `??operator+`,`??operator+??rA`
   \   00000064   0720A0E1           MOV      R2,R7
   \   00000068   70108DE2           ADD      R1,SP,#+112
   \   0000006C   54008DE2           ADD      R0,SP,#+84
   \   00000070   ........           _BLF     `??operator+`,`??operator+??rA`
   \   00000074   ........           LDR      R0,??DataTable22  ;; ??npos
   \   00000078   0020A0E3           MOV      R2,#+0
   \   0000007C   008090E5           LDR      R8,[R0, #+0]
   \   00000080   54108DE2           ADD      R1,SP,#+84
   \   00000084   0830A0E1           MOV      R3,R8
   \   00000088   0400A0E1           MOV      R0,R4
   \   0000008C   ........           _BLF     ??append,??append??rA
   \   00000090   0020A0E3           MOV      R2,#+0
   \   00000094   0110A0E3           MOV      R1,#+1
   \   00000098   54008DE2           ADD      R0,SP,#+84
   \   0000009C   ........           _BLF     ??_Tidy_1,??_Tidy??rA
   \   000000A0   0020A0E3           MOV      R2,#+0
   \   000000A4   0110A0E3           MOV      R1,#+1
   \   000000A8   70008DE2           ADD      R0,SP,#+112
   \   000000AC   ........           _BLF     ??_Tidy_1,??_Tidy??rA
   \   000000B0   0020A0E3           MOV      R2,#+0
   \   000000B4   0110A0E3           MOV      R1,#+1
   \   000000B8   8C008DE2           ADD      R0,SP,#+140
   \   000000BC   ........           _BLF     ??_Tidy_1,??_Tidy??rA
     98              set<unsigned>::iterator IdIt;
     99              for ( IdIt = IdSet.begin(); IdIt != IdSet.end(); IdIt++ ) {
   \   000000C0   009095E5           LDR      R9,[R5, #+0]
   \   000000C4   260000EA           B        ??MakeIdTableString_4
    100                  AnsiString IdNumStr;
   \                     ??MakeIdTableString_5:
   \   000000C8   38008DE2           ADD      R0,SP,#+56
   \   000000CC   ........           _BLF     ??AnsiString,??AnsiString??rA
    101                  IdNumStr.cat_sprintf("0x%0x", (*IdIt));
   \   000000D0   103099E5           LDR      R3,[R9, #+16]
   \   000000D4   ........           LDR      R2,??DataTable12  ;; `?<Constant " don\\'t match object t...">` + 44
   \   000000D8   4D1F8DE2           ADD      R1,SP,#+308
   \   000000DC   38008DE2           ADD      R0,SP,#+56
   \   000000E0   ........           _BLF     ??cat_sprintf,??cat_sprintf??rA
   \   000000E4   0020A0E3           MOV      R2,#+0
   \   000000E8   0110A0E3           MOV      R1,#+1
   \   000000EC   4D0F8DE2           ADD      R0,SP,#+308
   \   000000F0   ........           _BLF     ??_Tidy_1,??_Tidy??rA
    102                  LocalString += TabStr4 + IdNumStr + CrLfStr;
   \   000000F4   38208DE2           ADD      R2,SP,#+56
   \   000000F8   461F8DE2           ADD      R1,SP,#+280
   \   000000FC   1C008DE2           ADD      R0,SP,#+28
   \   00000100   ........           _BLF     `??operator+`,`??operator+??rA`
   \   00000104   0720A0E1           MOV      R2,R7
   \   00000108   1C108DE2           ADD      R1,SP,#+28
   \   0000010C   0D00A0E1           MOV      R0,SP
   \   00000110   ........           _BLF     `??operator+`,`??operator+??rA`
   \   00000114   0830A0E1           MOV      R3,R8
   \   00000118   0020A0E3           MOV      R2,#+0
   \   0000011C   0D10A0E1           MOV      R1,SP
   \   00000120   0400A0E1           MOV      R0,R4
   \   00000124   ........           _BLF     ??append,??append??rA
   \   00000128   0020A0E3           MOV      R2,#+0
   \   0000012C   0110A0E3           MOV      R1,#+1
   \   00000130   0D00A0E1           MOV      R0,SP
   \   00000134   ........           _BLF     ??_Tidy_1,??_Tidy??rA
   \   00000138   0020A0E3           MOV      R2,#+0
   \   0000013C   0110A0E3           MOV      R1,#+1
   \   00000140   1C008DE2           ADD      R0,SP,#+28
   \   00000144   ........           _BLF     ??_Tidy_1,??_Tidy??rA
    103              }
   \   00000148   0020A0E3           MOV      R2,#+0
   \   0000014C   0110A0E3           MOV      R1,#+1
   \   00000150   38008DE2           ADD      R0,SP,#+56
   \   00000154   ........           _BLF     ??_Tidy_1,??_Tidy??rA
   \   00000158   0900A0E1           MOV      R0,R9
   \   0000015C   ........           _BLF     ??_IncP,??_IncP??rA
   \   00000160   0090A0E1           MOV      R9,R0
   \                     ??MakeIdTableString_4:
   \   00000164   050059E1           CMP      R9,R5
   \   00000168   D6FFFF1A           BNE      ??MakeIdTableString_5
    104              LocalString += TabStr3 + KeyWord(EndKW) + CrLfStr;
   \   0000016C   0610A0E1           MOV      R1,R6
   \   00000170   E0008DE2           ADD      R0,SP,#+224
   \   00000174   ........           _BLF     ??KeyWord,??KeyWord??rA
   \   00000178   E0208DE2           ADD      R2,SP,#+224
   \   0000017C   FC108DE2           ADD      R1,SP,#+252
   \   00000180   C4008DE2           ADD      R0,SP,#+196
   \   00000184   ........           _BLF     `??operator+`,`??operator+??rA`
   \   00000188   0720A0E1           MOV      R2,R7
   \   0000018C   C4108DE2           ADD      R1,SP,#+196
   \   00000190   A8008DE2           ADD      R0,SP,#+168
   \   00000194   ........           _BLF     `??operator+`,`??operator+??rA`
   \   00000198   0830A0E1           MOV      R3,R8
   \   0000019C   0020A0E3           MOV      R2,#+0
   \   000001A0   A8108DE2           ADD      R1,SP,#+168
   \   000001A4   0400A0E1           MOV      R0,R4
   \   000001A8   ........           _BLF     ??append,??append??rA
   \   000001AC   0020A0E3           MOV      R2,#+0
   \   000001B0   0110A0E3           MOV      R1,#+1
   \   000001B4   A8008DE2           ADD      R0,SP,#+168
   \   000001B8   ........           _BLF     ??_Tidy_1,??_Tidy??rA
   \   000001BC   0020A0E3           MOV      R2,#+0
   \   000001C0   0110A0E3           MOV      R1,#+1
   \   000001C4   C4008DE2           ADD      R0,SP,#+196
   \   000001C8   ........           _BLF     ??_Tidy_1,??_Tidy??rA
   \   000001CC   0020A0E3           MOV      R2,#+0
   \   000001D0   0110A0E3           MOV      R1,#+1
   \   000001D4   E0008DE2           ADD      R0,SP,#+224
   \   000001D8   ........           _BLF     ??_Tidy_1,??_Tidy??rA
    105              return (LocalString);
   \   000001DC   0020A0E3           MOV      R2,#+0
   \   000001E0   0110A0E3           MOV      R1,#+1
   \   000001E4   460F8DE2           ADD      R0,SP,#+280
   \   000001E8   ........           _BLF     ??_Tidy_1,??_Tidy??rA
   \   000001EC   0020A0E3           MOV      R2,#+0
   \   000001F0   0110A0E3           MOV      R1,#+1
   \   000001F4   FC008DE2           ADD      R0,SP,#+252
   \   000001F8   ........           _BLF     ??_Tidy_1,??_Tidy??rA
   \   000001FC   54DF8DE2           ADD      SP,SP,#+336
   \   00000200   ........           B        ?Subroutine69
    106          }

   \                                 In segment CODE, align 4, keep-with-next
   \                     ?Subroutine69:
   \   00000000   F043BDE8           POP      {R4-R9,LR}
   \   00000004   1EFF2FE1           BX       LR               ;; return
    107          
    108          

   \                                 In segment CODE, align 4, keep-with-next
    109          void PRogramObjectBase::WriteConfigToFile(TSNConfigString &ConfigString) {
    110          }
   \                     ??WriteConfigToFile:
   \   00000000   1EFF2FE1           BX       LR               ;; return
    111          //---------------------------------------------------------------------------
    112          

   \                                 In segment CODE, align 4, keep-with-next
    113          int PRogramObjectBase::LoadConfigFromFile(TSNConfigString &ConfigString) {
    114              SetLineNumber(ConfigString.LineCount);
   \                     ??LoadConfigFromFile:
   \   00000000   1C1091E5           LDR      R1,[R1, #+28]
   \   00000004   041080E5           STR      R1,[R0, #+4]
    115              return 0;
   \   00000008   ........           B        ??Subroutine61_0
    116          }

   \                                 In segment CODE, align 4, keep-with-next
   \                     ?Subroutine61:
   \   00000000   0010A0E3           MOV      R1,#+0
   \   00000004   001080E5           STR      R1,[R0, #+0]
   \                     ??Subroutine61_0:
   \   00000008   0000A0E3           MOV      R0,#+0
   \   0000000C   1EFF2FE1           BX       LR               ;; return
    117          //---------------------------------------------------------------------------
    118          

   \                                 In segment CODE, align 4, keep-with-next
    119          AnsiString PRogramObjectBase::MakeConfigString(int ExtraTabs) {
   \                     ??MakeConfigString:
   \   00000000   F04F2DE9           PUSH     {R4-R11,LR}
    120              AnsiString LocalString;
    121              LocalString += TabStr2 + KeyWord(C_PRO_START_COMMON) + CrLfStr;
   \   00000004   FC739FE5           LDR      R7,??MakeConfigString_1  ;; TabStr2
   \   00000008   ........           LDR      R8,??DataTable13  ;; CrLfStr
   \   0000000C   70DF4DE2           SUB      SP,SP,#+448
   \   00000010   0040A0E1           MOV      R4,R0
   \   00000014   0150A0E1           MOV      R5,R1
   \   00000018   0260A0E1           MOV      R6,R2
    122              if ( !Name.IsEmpty() ) {
   \   0000001C   E8A39FE5           LDR      R10,??MakeConfigString_1+0x4  ;; TabStr3
   \   00000020   0500A0E1           MOV      R0,R5
   \   00000024   ........           _BLF     ??AnsiString,??AnsiString??rA
   \   00000028   E910A0E3           MOV      R1,#+233
   \   0000002C   C01F81E3           ORR      R1,R1,#0x300
   \   00000030   A8008DE2           ADD      R0,SP,#+168
   \   00000034   ........           _BLF     ??KeyWord,??KeyWord??rA
   \   00000038   A8208DE2           ADD      R2,SP,#+168
   \   0000003C   0710A0E1           MOV      R1,R7
   \   00000040   8C008DE2           ADD      R0,SP,#+140
   \   00000044   ........           _BLF     `??operator+`,`??operator+??rA`
   \   00000048   0820A0E1           MOV      R2,R8
   \   0000004C   8C108DE2           ADD      R1,SP,#+140
   \   00000050   70008DE2           ADD      R0,SP,#+112
   \   00000054   ........           _BLF     `??operator+`,`??operator+??rA`
   \   00000058   ........           LDR      R0,??DataTable22  ;; ??npos
   \   0000005C   0020A0E3           MOV      R2,#+0
   \   00000060   009090E5           LDR      R9,[R0, #+0]
   \   00000064   70108DE2           ADD      R1,SP,#+112
   \   00000068   0930A0E1           MOV      R3,R9
   \   0000006C   0500A0E1           MOV      R0,R5
   \   00000070   ........           _BLF     ??append,??append??rA
   \   00000074   0020A0E3           MOV      R2,#+0
   \   00000078   0110A0E3           MOV      R1,#+1
   \   0000007C   70008DE2           ADD      R0,SP,#+112
   \   00000080   ........           _BLF     ??_Tidy_1,??_Tidy??rA
   \   00000084   0020A0E3           MOV      R2,#+0
   \   00000088   0110A0E3           MOV      R1,#+1
   \   0000008C   8C008DE2           ADD      R0,SP,#+140
   \   00000090   ........           _BLF     ??_Tidy_1,??_Tidy??rA
   \   00000094   0020A0E3           MOV      R2,#+0
   \   00000098   0110A0E3           MOV      R1,#+1
   \   0000009C   A8008DE2           ADD      R0,SP,#+168
   \   000000A0   ........           _BLF     ??_Tidy_1,??_Tidy??rA
   \   000000A4   440084E2           ADD      R0,R4,#+68
   \   000000A8   ........           _BLF     ??IsEmpty,??IsEmpty??rA
   \   000000AC   000050E3           CMP      R0,#+0
   \   000000B0   2400001A           BNE      ??MakeConfigString_2
    123                  LocalString += TabStr3 + KeyWord(C_PRO_NAME) + Name + CrLfStr;
   \   000000B4   1510A0E3           MOV      R1,#+21
   \   000000B8   501E81E3           ORR      R1,R1,#0x500
   \   000000BC   54008DE2           ADD      R0,SP,#+84
   \   000000C0   ........           _BLF     ??KeyWord,??KeyWord??rA
   \   000000C4   54208DE2           ADD      R2,SP,#+84
   \   000000C8   0A10A0E1           MOV      R1,R10
   \   000000CC   38008DE2           ADD      R0,SP,#+56
   \   000000D0   ........           _BLF     `??operator+`,`??operator+??rA`
   \   000000D4   442084E2           ADD      R2,R4,#+68
   \   000000D8   38108DE2           ADD      R1,SP,#+56
   \   000000DC   1C008DE2           ADD      R0,SP,#+28
   \   000000E0   ........           _BLF     `??operator+`,`??operator+??rA`
   \   000000E4   0820A0E1           MOV      R2,R8
   \   000000E8   1C108DE2           ADD      R1,SP,#+28
   \   000000EC   0D00A0E1           MOV      R0,SP
   \   000000F0   ........           _BLF     `??operator+`,`??operator+??rA`
   \   000000F4   0930A0E1           MOV      R3,R9
   \   000000F8   0020A0E3           MOV      R2,#+0
   \   000000FC   0D10A0E1           MOV      R1,SP
   \   00000100   0500A0E1           MOV      R0,R5
   \   00000104   ........           _BLF     ??append,??append??rA
   \   00000108   0020A0E3           MOV      R2,#+0
   \   0000010C   0110A0E3           MOV      R1,#+1
   \   00000110   0D00A0E1           MOV      R0,SP
   \   00000114   ........           _BLF     ??_Tidy_1,??_Tidy??rA
   \   00000118   0020A0E3           MOV      R2,#+0
   \   0000011C   0110A0E3           MOV      R1,#+1
   \   00000120   1C008DE2           ADD      R0,SP,#+28
   \   00000124   ........           _BLF     ??_Tidy_1,??_Tidy??rA
   \   00000128   0020A0E3           MOV      R2,#+0
   \   0000012C   0110A0E3           MOV      R1,#+1
   \   00000130   38008DE2           ADD      R0,SP,#+56
   \   00000134   ........           _BLF     ??_Tidy_1,??_Tidy??rA
   \   00000138   0020A0E3           MOV      R2,#+0
   \   0000013C   0110A0E3           MOV      R1,#+1
   \   00000140   54008DE2           ADD      R0,SP,#+84
   \   00000144   ........           _BLF     ??_Tidy_1,??_Tidy??rA
    124              }
    125              if ( !TagName.IsEmpty() ) {
   \                     ??MakeConfigString_2:
   \   00000148   600084E2           ADD      R0,R4,#+96
   \   0000014C   ........           _BLF     ??IsEmpty,??IsEmpty??rA
   \   00000150   000050E3           CMP      R0,#+0
   \   00000154   2400001A           BNE      ??MakeConfigString_3
    126                  LocalString += TabStr3 + KeyWord(C_PRO_TAGNAME) + TagName + CrLfStr;
   \   00000158   1710A0E3           MOV      R1,#+23
   \   0000015C   501E81E3           ORR      R1,R1,#0x500
   \   00000160   0D00A0E1           MOV      R0,SP
   \   00000164   ........           _BLF     ??KeyWord,??KeyWord??rA
   \   00000168   0D20A0E1           MOV      R2,SP
   \   0000016C   0A10A0E1           MOV      R1,R10
   \   00000170   1C008DE2           ADD      R0,SP,#+28
   \   00000174   ........           _BLF     `??operator+`,`??operator+??rA`
   \   00000178   602084E2           ADD      R2,R4,#+96
   \   0000017C   1C108DE2           ADD      R1,SP,#+28
   \   00000180   38008DE2           ADD      R0,SP,#+56
   \   00000184   ........           _BLF     `??operator+`,`??operator+??rA`
   \   00000188   0820A0E1           MOV      R2,R8
   \   0000018C   38108DE2           ADD      R1,SP,#+56
   \   00000190   54008DE2           ADD      R0,SP,#+84
   \   00000194   ........           _BLF     `??operator+`,`??operator+??rA`
   \   00000198   0930A0E1           MOV      R3,R9
   \   0000019C   0020A0E3           MOV      R2,#+0
   \   000001A0   54108DE2           ADD      R1,SP,#+84
   \   000001A4   0500A0E1           MOV      R0,R5
   \   000001A8   ........           _BLF     ??append,??append??rA
   \   000001AC   0020A0E3           MOV      R2,#+0
   \   000001B0   0110A0E3           MOV      R1,#+1
   \   000001B4   54008DE2           ADD      R0,SP,#+84
   \   000001B8   ........           _BLF     ??_Tidy_1,??_Tidy??rA
   \   000001BC   0020A0E3           MOV      R2,#+0
   \   000001C0   0110A0E3           MOV      R1,#+1
   \   000001C4   38008DE2           ADD      R0,SP,#+56
   \   000001C8   ........           _BLF     ??_Tidy_1,??_Tidy??rA
   \   000001CC   0020A0E3           MOV      R2,#+0
   \   000001D0   0110A0E3           MOV      R1,#+1
   \   000001D4   1C008DE2           ADD      R0,SP,#+28
   \   000001D8   ........           _BLF     ??_Tidy_1,??_Tidy??rA
   \   000001DC   0020A0E3           MOV      R2,#+0
   \   000001E0   0110A0E3           MOV      R1,#+1
   \   000001E4   0D00A0E1           MOV      R0,SP
   \   000001E8   ........           _BLF     ??_Tidy_1,??_Tidy??rA
    127              }
    128              if ( !Description.IsEmpty() ) {
   \                     ??MakeConfigString_3:
   \   000001EC   7C0084E2           ADD      R0,R4,#+124
   \   000001F0   ........           _BLF     ??IsEmpty,??IsEmpty??rA
   \   000001F4   000050E3           CMP      R0,#+0
   \   000001F8   2300001A           BNE      ??MakeConfigString_4
    129                  LocalString += TabStr3 + KeyWord(C_DESCRIPTION) + Description + CrLfStr;
   \   000001FC   CC10A0E3           MOV      R1,#+204
   \   00000200   54008DE2           ADD      R0,SP,#+84
   \   00000204   ........           _BLF     ??KeyWord,??KeyWord??rA
   \   00000208   54208DE2           ADD      R2,SP,#+84
   \   0000020C   0A10A0E1           MOV      R1,R10
   \   00000210   38008DE2           ADD      R0,SP,#+56
   \   00000214   ........           _BLF     `??operator+`,`??operator+??rA`
   \   00000218   7C2084E2           ADD      R2,R4,#+124
   \   0000021C   38108DE2           ADD      R1,SP,#+56
   \   00000220   1C008DE2           ADD      R0,SP,#+28
   \   00000224   ........           _BLF     `??operator+`,`??operator+??rA`
   \   00000228   0820A0E1           MOV      R2,R8
   \   0000022C   1C108DE2           ADD      R1,SP,#+28
   \   00000230   0D00A0E1           MOV      R0,SP
   \   00000234   ........           _BLF     `??operator+`,`??operator+??rA`
   \   00000238   0930A0E1           MOV      R3,R9
   \   0000023C   0020A0E3           MOV      R2,#+0
   \   00000240   0D10A0E1           MOV      R1,SP
   \   00000244   0500A0E1           MOV      R0,R5
   \   00000248   ........           _BLF     ??append,??append??rA
   \   0000024C   0020A0E3           MOV      R2,#+0
   \   00000250   0110A0E3           MOV      R1,#+1
   \   00000254   0D00A0E1           MOV      R0,SP
   \   00000258   ........           _BLF     ??_Tidy_1,??_Tidy??rA
   \   0000025C   0020A0E3           MOV      R2,#+0
   \   00000260   0110A0E3           MOV      R1,#+1
   \   00000264   1C008DE2           ADD      R0,SP,#+28
   \   00000268   ........           _BLF     ??_Tidy_1,??_Tidy??rA
   \   0000026C   0020A0E3           MOV      R2,#+0
   \   00000270   0110A0E3           MOV      R1,#+1
   \   00000274   38008DE2           ADD      R0,SP,#+56
   \   00000278   ........           _BLF     ??_Tidy_1,??_Tidy??rA
   \   0000027C   0020A0E3           MOV      R2,#+0
   \   00000280   0110A0E3           MOV      R1,#+1
   \   00000284   54008DE2           ADD      R0,SP,#+84
   \   00000288   ........           _BLF     ??_Tidy_1,??_Tidy??rA
    130              }
    131              LocalString += TabStr3 + KeyWord(C_PRO_SORTNO) + (AnsiString)SortNo + CrLfStr;
   \                     ??MakeConfigString_4:
   \   0000028C   981094E5           LDR      R1,[R4, #+152]
   \   00000290   690F8DE2           ADD      R0,SP,#+420
   \   00000294   ........           _BLF     ??AnsiString_2,??AnsiString??rA_2
   \   00000298   00B0A0E1           MOV      R11,R0
   \   0000029C   1810A0E3           MOV      R1,#+24
   \   000002A0   501E81E3           ORR      R1,R1,#0x500
   \   000002A4   460F8DE2           ADD      R0,SP,#+280
   \   000002A8   ........           _BLF     ??KeyWord,??KeyWord??rA
   \   000002AC   462F8DE2           ADD      R2,SP,#+280
   \   000002B0   0A10A0E1           MOV      R1,R10
   \   000002B4   FC008DE2           ADD      R0,SP,#+252
   \   000002B8   ........           _BLF     `??operator+`,`??operator+??rA`
   \   000002BC   0B20A0E1           MOV      R2,R11
   \   000002C0   FC108DE2           ADD      R1,SP,#+252
   \   000002C4   E0008DE2           ADD      R0,SP,#+224
   \   000002C8   ........           _BLF     `??operator+`,`??operator+??rA`
   \   000002CC   0820A0E1           MOV      R2,R8
   \   000002D0   E0108DE2           ADD      R1,SP,#+224
   \   000002D4   C4008DE2           ADD      R0,SP,#+196
   \   000002D8   ........           _BLF     `??operator+`,`??operator+??rA`
   \   000002DC   0930A0E1           MOV      R3,R9
   \   000002E0   0020A0E3           MOV      R2,#+0
   \   000002E4   C4108DE2           ADD      R1,SP,#+196
   \   000002E8   0500A0E1           MOV      R0,R5
   \   000002EC   ........           _BLF     ??append,??append??rA
   \   000002F0   0020A0E3           MOV      R2,#+0
   \   000002F4   0110A0E3           MOV      R1,#+1
   \   000002F8   C4008DE2           ADD      R0,SP,#+196
   \   000002FC   ........           _BLF     ??_Tidy_1,??_Tidy??rA
   \   00000300   0020A0E3           MOV      R2,#+0
   \   00000304   0110A0E3           MOV      R1,#+1
   \   00000308   E0008DE2           ADD      R0,SP,#+224
   \   0000030C   ........           _BLF     ??_Tidy_1,??_Tidy??rA
   \   00000310   0020A0E3           MOV      R2,#+0
   \   00000314   0110A0E3           MOV      R1,#+1
   \   00000318   690F8DE2           ADD      R0,SP,#+420
   \   0000031C   ........           _BLF     ??_Tidy_1,??_Tidy??rA
   \   00000320   0020A0E3           MOV      R2,#+0
   \   00000324   0110A0E3           MOV      R1,#+1
   \   00000328   FC008DE2           ADD      R0,SP,#+252
   \   0000032C   ........           _BLF     ??_Tidy_1,??_Tidy??rA
   \   00000330   0020A0E3           MOV      R2,#+0
   \   00000334   0110A0E3           MOV      R1,#+1
   \   00000338   460F8DE2           ADD      R0,SP,#+280
   \   0000033C   ........           _BLF     ??_Tidy_1,??_Tidy??rA
    132              LocalString += MakeIdTableString(ExtraTabs);
   \   00000340   0620A0E1           MOV      R2,R6
   \   00000344   4D1F8DE2           ADD      R1,SP,#+308
   \   00000348   0400A0E1           MOV      R0,R4
   \   0000034C   ........           BL       ??MakeIdTableString
   \   00000350   0930A0E1           MOV      R3,R9
   \   00000354   0020A0E3           MOV      R2,#+0
   \   00000358   4D1F8DE2           ADD      R1,SP,#+308
   \   0000035C   0500A0E1           MOV      R0,R5
   \   00000360   ........           _BLF     ??append,??append??rA
   \   00000364   0020A0E3           MOV      R2,#+0
   \   00000368   0110A0E3           MOV      R1,#+1
   \   0000036C   4D0F8DE2           ADD      R0,SP,#+308
   \   00000370   ........           _BLF     ??_Tidy_1,??_Tidy??rA
    133          
    134              LocalString += TabStr2 + KeyWord(C_PRO_END_COMMON) + CrLfStr;
   \   00000374   EA10A0E3           MOV      R1,#+234
   \   00000378   C01F81E3           ORR      R1,R1,#0x300
   \   0000037C   620F8DE2           ADD      R0,SP,#+392
   \   00000380   ........           _BLF     ??KeyWord,??KeyWord??rA
   \   00000384   622F8DE2           ADD      R2,SP,#+392
   \   00000388   0710A0E1           MOV      R1,R7
   \   0000038C   5B0F8DE2           ADD      R0,SP,#+364
   \   00000390   ........           _BLF     `??operator+`,`??operator+??rA`
   \   00000394   0820A0E1           MOV      R2,R8
   \   00000398   5B1F8DE2           ADD      R1,SP,#+364
   \   0000039C   540F8DE2           ADD      R0,SP,#+336
   \   000003A0   ........           _BLF     `??operator+`,`??operator+??rA`
   \   000003A4   0930A0E1           MOV      R3,R9
   \   000003A8   0020A0E3           MOV      R2,#+0
   \   000003AC   541F8DE2           ADD      R1,SP,#+336
   \   000003B0   0500A0E1           MOV      R0,R5
   \   000003B4   ........           _BLF     ??append,??append??rA
   \   000003B8   0020A0E3           MOV      R2,#+0
   \   000003BC   0110A0E3           MOV      R1,#+1
   \   000003C0   540F8DE2           ADD      R0,SP,#+336
   \   000003C4   ........           _BLF     ??_Tidy_1,??_Tidy??rA
   \   000003C8   0020A0E3           MOV      R2,#+0
   \   000003CC   0110A0E3           MOV      R1,#+1
   \   000003D0   5B0F8DE2           ADD      R0,SP,#+364
   \   000003D4   ........           _BLF     ??_Tidy_1,??_Tidy??rA
   \   000003D8   0020A0E3           MOV      R2,#+0
   \   000003DC   0110A0E3           MOV      R1,#+1
   \   000003E0   620F8DE2           ADD      R0,SP,#+392
   \   000003E4   ........           _BLF     ??_Tidy_1,??_Tidy??rA
    135              LocalString += CrLfStr;
   \   000003E8   0930A0E1           MOV      R3,R9
   \   000003EC   0020A0E3           MOV      R2,#+0
   \   000003F0   0810A0E1           MOV      R1,R8
   \   000003F4   0500A0E1           MOV      R0,R5
   \   000003F8   ........           _BLF     ??append,??append??rA
    136              return (LocalString);
   \   000003FC   70DF8DE2           ADD      SP,SP,#+448
   \   00000400   F04FBDE8           POP      {R4-R11,LR}
   \   00000404   1EFF2FE1           BX       LR               ;; return
   \                     ??MakeConfigString_1:
   \   00000408   ........           DC32     TabStr2
   \   0000040C   ........           DC32     TabStr3
    137          }
    138          //---------------------------------------------------------------------------
    139          

   \                                 In segment CODE, align 4, keep-with-next
    140          bool PRogramObjectBase::LoadConfigString(TSNConfigString &ConfigString) {
   \                     ??LoadConfigString:
   \   00000000   F0472DE9           PUSH     {R4-R10,LR}
    141              bool NoError = true;
    142              int ErrorLine = 0;
   \   00000004   70939FE5           LDR      R9,??LoadConfigString_1  ;; `?<Constant "PRogram object base">`
   \   00000008   5ADF4DE2           SUB      SP,SP,#+360
   \   0000000C   0040A0E1           MOV      R4,R0
   \   00000010   0150A0E1           MOV      R5,R1
   \   00000014   0160A0E3           MOV      R6,#+1
   \   00000018   0010A0E3           MOV      R1,#+0
   \   0000001C   00108DE5           STR      R1,[SP, #+0]
   \   00000020   0170E0E1           MVN      R7,R1
    143              int Key;
    144              do {
    145                  AnsiString InputKeyWord = ConfigString.NextWord(ErrorLine);
   \                     ??LoadConfigString_2:
   \   00000024   0030A0E3           MOV      R3,#+0
   \   00000028   0D20A0E1           MOV      R2,SP
   \   0000002C   20108DE2           ADD      R1,SP,#+32
   \   00000030   0500A0E1           MOV      R0,R5
   \   00000034   ........           _BLF     ??NextWord,??NextWord??rA
    146                  if ( ErrorLine ) {
   \   00000038   00009DE5           LDR      R0,[SP, #+0]
   \   0000003C   000050E3           CMP      R0,#+0
   \   00000040   1A00000A           BEQ      ??LoadConfigString_3
    147                      if ( ErrorLine != EOF ) {
   \   00000044   070050E1           CMP      R0,R7
   \   00000048   BD00000A           BEQ      ??LoadConfigString_4
    148                          GiveConfigWarning((AnsiString)"PRogram object base" + Name, ErrorLine);
   \   0000004C   0910A0E1           MOV      R1,R9
   \   00000050   88008DE2           ADD      R0,SP,#+136
   \   00000054   ........           _BLF     ??AnsiString_1,??AnsiString??rA_1
   \   00000058   442084E2           ADD      R2,R4,#+68
   \   0000005C   0010A0E1           MOV      R1,R0
   \   00000060   04008DE2           ADD      R0,SP,#+4
   \   00000064   ........           _BLF     `??operator+`,`??operator+??rA`
   \   00000068   04108DE2           ADD      R1,SP,#+4
   \   0000006C   6C008DE2           ADD      R0,SP,#+108
   \   00000070   ........           _BLF     ??AnsiString_3,??AnsiString??rA_3
   \   00000074   00109DE5           LDR      R1,[SP, #+0]
   \   00000078   ........           _BLF     ??GiveConfigWarning,??GiveConfigWarning??rA
   \   0000007C   0020A0E3           MOV      R2,#+0
   \   00000080   0110A0E3           MOV      R1,#+1
   \   00000084   6C008DE2           ADD      R0,SP,#+108
   \   00000088   ........           _BLF     ??_Tidy_1,??_Tidy??rA
   \   0000008C   0020A0E3           MOV      R2,#+0
   \   00000090   0110A0E3           MOV      R1,#+1
   \   00000094   04008DE2           ADD      R0,SP,#+4
   \   00000098   ........           _BLF     ??_Tidy_1,??_Tidy??rA
   \   0000009C   0020A0E3           MOV      R2,#+0
   \   000000A0   0110A0E3           MOV      R1,#+1
   \   000000A4   88008DE2           ADD      R0,SP,#+136
   \                     ??LoadConfigString_5:
   \   000000A8   ........           _BLF     ??_Tidy_1,??_Tidy??rA
   \   000000AC   A40000EA           B        ??LoadConfigString_4
    149                      }
    150                  } else {
    151                      Key = FindConfigKey(InputKeyWord);
   \                     ??LoadConfigString_3:
   \   000000B0   20108DE2           ADD      R1,SP,#+32
   \   000000B4   04008DE2           ADD      R0,SP,#+4
   \   000000B8   ........           _BLF     ??string,??string??rA
   \   000000BC   04008DE2           ADD      R0,SP,#+4
   \   000000C0   ........           _BLF     ??FindConfigKey,??FindConfigKey??rA
   \   000000C4   0080A0E1           MOV      R8,R0
   \   000000C8   0020A0E3           MOV      R2,#+0
   \   000000CC   0110A0E3           MOV      R1,#+1
   \   000000D0   04008DE2           ADD      R0,SP,#+4
   \   000000D4   ........           _BLF     ??_Tidy_1,??_Tidy??rA
    152                      switch ( Key ) {
   \   000000D8   4900A0E3           MOV      R0,#+73
   \   000000DC   500E80E3           ORR      R0,R0,#0x500
   \   000000E0   CC0058E3           CMP      R8,#+204
   \   000000E4   5F00000A           BEQ      ??LoadConfigString_6
   \   000000E8   FA0F58E3           CMP      R8,#+1000
   \   000000EC   EA20A013           MOVNE    R2,#+234
   \   000000F0   C02F8213           ORRNE    R2,R2,#0x300
   \   000000F4   02005811           CMPNE    R8,R2
   \   000000F8   FB0F5813           CMPNE    R8,#+1004
   \   000000FC   9000000A           BEQ      ??LoadConfigString_4
   \   00000100   342040E2           SUB      R2,R0,#+52
   \   00000104   020058E1           CMP      R8,R2
   \   00000108   3100000A           BEQ      ??LoadConfigString_7
   \   0000010C   322040E2           SUB      R2,R0,#+50
   \   00000110   020058E1           CMP      R8,R2
   \   00000114   4100000A           BEQ      ??LoadConfigString_8
   \   00000118   312040E2           SUB      R2,R0,#+49
   \   0000011C   020058E1           CMP      R8,R2
   \   00000120   5E00000A           BEQ      ??LoadConfigString_9
   \   00000124   302040E2           SUB      R2,R0,#+48
   \   00000128   020058E1           CMP      R8,R2
   \   0000012C   6400000A           BEQ      ??LoadConfigString_10
   \   00000130   2F2040E2           SUB      R2,R0,#+47
   \   00000134   020058E1           CMP      R8,R2
   \   00000138   7100000A           BEQ      ??LoadConfigString_11
   \   0000013C   9820A0E3           MOV      R2,#+152
   \   00000140   802E82E3           ORR      R2,R2,#0x800
   \   00000144   020058E1           CMP      R8,R2
   \   00000148   672E8012           ADDNE    R2,R0,#+1648
   \   0000014C   02005811           CMPNE    R8,R2
   \   00000150   7B00000A           BEQ      ??LoadConfigString_4
    153                      default:
    154                          GiveConfigWarning((AnsiString)"PRogram object base" + Name, InputKeyWord, ConfigString.LineCount);
   \   00000154   20108DE2           ADD      R1,SP,#+32
   \   00000158   A4008DE2           ADD      R0,SP,#+164
   \   0000015C   ........           _BLF     ??string,??string??rA
   \   00000160   0910A0E1           MOV      R1,R9
   \   00000164   F8008DE2           ADD      R0,SP,#+248
   \   00000168   ........           _BLF     ??AnsiString_1,??AnsiString??rA_1
   \   0000016C   0010A0E1           MOV      R1,R0
   \   00000170   442084E2           ADD      R2,R4,#+68
   \   00000174   DC008DE2           ADD      R0,SP,#+220
   \   00000178   ........           _BLF     `??operator+`,`??operator+??rA`
   \   0000017C   DC108DE2           ADD      R1,SP,#+220
   \   00000180   C0008DE2           ADD      R0,SP,#+192
   \   00000184   ........           _BLF     ??AnsiString_3,??AnsiString??rA_3
   \   00000188   1C2095E5           LDR      R2,[R5, #+28]
   \   0000018C   A4108DE2           ADD      R1,SP,#+164
   \   00000190   ........           _BLF     ??GiveConfigWarning_1,??GiveConfigWarning??rA_1
   \   00000194   0020A0E3           MOV      R2,#+0
   \   00000198   0110A0E3           MOV      R1,#+1
   \   0000019C   A4008DE2           ADD      R0,SP,#+164
   \   000001A0   ........           _BLF     ??_Tidy_1,??_Tidy??rA
   \   000001A4   0020A0E3           MOV      R2,#+0
   \   000001A8   0110A0E3           MOV      R1,#+1
   \   000001AC   C0008DE2           ADD      R0,SP,#+192
   \   000001B0   ........           _BLF     ??_Tidy_1,??_Tidy??rA
   \   000001B4   0020A0E3           MOV      R2,#+0
   \   000001B8   0110A0E3           MOV      R1,#+1
   \   000001BC   DC008DE2           ADD      R0,SP,#+220
   \   000001C0   ........           _BLF     ??_Tidy_1,??_Tidy??rA
   \   000001C4   0020A0E3           MOV      R2,#+0
   \   000001C8   0110A0E3           MOV      R1,#+1
   \   000001CC   F8008DE2           ADD      R0,SP,#+248
   \   000001D0   B4FFFFEA           B        ??LoadConfigString_5
    155                          break;
    156                      case C_AI_END:      // If AI type not found can continue with this
    157                      case C_AL_END:
    158                      case C_PRO_END:
    159                      case C_PRO_END_COMMON:
    160                      case C_PRO_END_PRO:
    161                          break;
    162                      case C_PRO_NAME:
    163                          Name = ConfigString.GetRemainingLine(ErrorLine);
   \                     ??LoadConfigString_7:
   \   000001D4   0D20A0E1           MOV      R2,SP
   \   000001D8   451F8DE2           ADD      R1,SP,#+276
   \   000001DC   0500A0E1           MOV      R0,R5
   \   000001E0   ........           _BLF     ??GetRemainingLine,??GetRemainingLine??rA
   \   000001E4   ........           LDR      R0,??DataTable22  ;; ??npos
   \   000001E8   0020A0E3           MOV      R2,#+0
   \   000001EC   003090E5           LDR      R3,[R0, #+0]
   \   000001F0   451F8DE2           ADD      R1,SP,#+276
   \   000001F4   440084E2           ADD      R0,R4,#+68
   \   000001F8   ........           _BLF     ??assign,??assign??rA
   \   000001FC   0020A0E3           MOV      R2,#+0
   \   00000200   0110A0E3           MOV      R1,#+1
   \   00000204   450F8DE2           ADD      R0,SP,#+276
   \   00000208   ........           _BLF     ??_Tidy_1,??_Tidy??rA
    164                          NoError = !ErrorLine;
   \   0000020C   00009DE5           LDR      R0,[SP, #+0]
   \   00000210   000050E3           CMP      R0,#+0
   \   00000214   4900001A           BNE      ??LoadConfigString_12
   \                     ??LoadConfigString_13:
   \   00000218   0160A0E3           MOV      R6,#+1
   \   0000021C   480000EA           B        ??LoadConfigString_4
    165                          break;
    166                      case C_PRO_TAGNAME:
    167                          TagName = ConfigString.GetRemainingLine(ErrorLine);
   \                     ??LoadConfigString_8:
   \   00000220   0D20A0E1           MOV      R2,SP
   \   00000224   4C1F8DE2           ADD      R1,SP,#+304
   \   00000228   0500A0E1           MOV      R0,R5
   \   0000022C   ........           _BLF     ??GetRemainingLine,??GetRemainingLine??rA
   \   00000230   ........           LDR      R0,??DataTable22  ;; ??npos
   \   00000234   0020A0E3           MOV      R2,#+0
   \   00000238   003090E5           LDR      R3,[R0, #+0]
   \   0000023C   4C1F8DE2           ADD      R1,SP,#+304
   \   00000240   600084E2           ADD      R0,R4,#+96
   \   00000244   ........           _BLF     ??assign,??assign??rA
   \   00000248   0020A0E3           MOV      R2,#+0
   \   0000024C   0110A0E3           MOV      R1,#+1
   \   00000250   4C0F8DE2           ADD      R0,SP,#+304
   \                     ??LoadConfigString_14:
   \   00000254   ........           _BLF     ??_Tidy_1,??_Tidy??rA
    168                          NoError = !ErrorLine;
   \   00000258   00009DE5           LDR      R0,[SP, #+0]
   \   0000025C   000050E3           CMP      R0,#+0
   \   00000260   3600001A           BNE      ??LoadConfigString_12
   \   00000264   EBFFFFEA           B        ??LoadConfigString_13
    169                          break;
    170                      case C_DESCRIPTION:
    171                          Description = ConfigString.GetRemainingLine(ErrorLine);
   \                     ??LoadConfigString_6:
   \   00000268   0D20A0E1           MOV      R2,SP
   \   0000026C   531F8DE2           ADD      R1,SP,#+332
   \   00000270   0500A0E1           MOV      R0,R5
   \   00000274   ........           _BLF     ??GetRemainingLine,??GetRemainingLine??rA
   \   00000278   ........           LDR      R0,??DataTable22  ;; ??npos
   \   0000027C   0020A0E3           MOV      R2,#+0
   \   00000280   003090E5           LDR      R3,[R0, #+0]
   \   00000284   531F8DE2           ADD      R1,SP,#+332
   \   00000288   7C0084E2           ADD      R0,R4,#+124
   \   0000028C   ........           _BLF     ??assign,??assign??rA
   \   00000290   0020A0E3           MOV      R2,#+0
   \   00000294   0110A0E3           MOV      R1,#+1
   \   00000298   530F8DE2           ADD      R0,SP,#+332
   \   0000029C   ECFFFFEA           B        ??LoadConfigString_14
    172                          NoError = !ErrorLine;
    173                          break;
    174                      case C_PRO_SORTNO:
    175                          SortNo = ConfigString.ReadLong(ErrorLine);
   \                     ??LoadConfigString_9:
   \   000002A0   0020A0E3           MOV      R2,#+0
   \   000002A4   0D10A0E1           MOV      R1,SP
   \   000002A8   0500A0E1           MOV      R0,R5
   \   000002AC   ........           _BLF     ??ReadLong,??ReadLong??rA
   \   000002B0   980084E5           STR      R0,[R4, #+152]
    176                          NoError = !ErrorLine;
   \   000002B4   00009DE5           LDR      R0,[SP, #+0]
   \   000002B8   000050E3           CMP      R0,#+0
   \   000002BC   1F00001A           BNE      ??LoadConfigString_12
   \   000002C0   D4FFFFEA           B        ??LoadConfigString_13
    177                          break;
    178                      case C_PRO_READ_PERMISSION:
    179                          ReadPermissionSet = ReadIdTable(ConfigString, ErrorLine, C_PROLIST_END);
   \                     ??LoadConfigString_10:
   \   000002C4   01002DE9           PUSH     {R0}
   \   000002C8   04308DE2           ADD      R3,SP,#+4
   \   000002CC   0520A0E1           MOV      R2,R5
   \   000002D0   40108DE2           ADD      R1,SP,#+64
   \   000002D4   0400A0E1           MOV      R0,R4
   \   000002D8   ........           BL       ??ReadIdTable
   \   000002DC   40108DE2           ADD      R1,SP,#+64
   \   000002E0   080084E2           ADD      R0,R4,#+8
   \   000002E4   ........           _BLF     `??operator=`,`??operator=??rA`
   \   000002E8   40008DE2           ADD      R0,SP,#+64
   \   000002EC   ........           _BLF     ??clear,??clear??rA
    180                          if ( ErrorLine ) {
   \   000002F0   04009DE5           LDR      R0,[SP, #+4]
   \   000002F4   04D08DE2           ADD      SP,SP,#+4
   \   000002F8   000050E3           CMP      R0,#+0
   \   000002FC   1000000A           BEQ      ??LoadConfigString_4
    181                              NoError = false;
   \   00000300   0E0000EA           B        ??LoadConfigString_12
    182                          }
    183                          break;
    184                      case C_PRO_WRITE_PERMISSION:
    185                          WritePermissionSet = ReadIdTable(ConfigString, ErrorLine, C_PROLIST_END);
   \                     ??LoadConfigString_11:
   \   00000304   01002DE9           PUSH     {R0}
   \   00000308   04308DE2           ADD      R3,SP,#+4
   \   0000030C   0520A0E1           MOV      R2,R5
   \   00000310   58108DE2           ADD      R1,SP,#+88
   \   00000314   0400A0E1           MOV      R0,R4
   \   00000318   ........           BL       ??ReadIdTable
   \   0000031C   58108DE2           ADD      R1,SP,#+88
   \   00000320   200084E2           ADD      R0,R4,#+32
   \   00000324   ........           _BLF     `??operator=`,`??operator=??rA`
   \   00000328   58008DE2           ADD      R0,SP,#+88
   \   0000032C   ........           _BLF     ??clear,??clear??rA
    186                          if ( ErrorLine ) {
   \   00000330   04009DE5           LDR      R0,[SP, #+4]
   \   00000334   04D08DE2           ADD      SP,SP,#+4
   \   00000338   000050E3           CMP      R0,#+0
   \   0000033C   0000000A           BEQ      ??LoadConfigString_4
    187                              NoError = false;
   \                     ??LoadConfigString_12:
   \   00000340   0060A0E3           MOV      R6,#+0
    188                          }
    189                          break;
    190                      }
    191                  }
    192              }while ( NoError && (ErrorLine != EOF) && (Key != C_PRO_END_COMMON) );
   \                     ??LoadConfigString_4:
   \   00000344   0020A0E3           MOV      R2,#+0
   \   00000348   0110A0E3           MOV      R1,#+1
   \   0000034C   20008DE2           ADD      R0,SP,#+32
   \   00000350   ........           _BLF     ??_Tidy_1,??_Tidy??rA
   \   00000354   000056E3           CMP      R6,#+0
   \   00000358   00009D15           LDRNE    R0,[SP, #+0]
   \   0000035C   07005011           CMPNE    R0,R7
   \   00000360   EA00A013           MOVNE    R0,#+234
   \   00000364   C00F8013           ORRNE    R0,R0,#0x300
   \   00000368   00005811           CMPNE    R8,R0
   \   0000036C   2CFFFF1A           BNE      ??LoadConfigString_2
    193              return (NoError);
   \   00000370   0600A0E1           MOV      R0,R6
   \   00000374   5ADF8DE2           ADD      SP,SP,#+360
   \   00000378   ........           B        ?Subroutine70
   \                     ??LoadConfigString_1:
   \   0000037C   ........           DC32     `?<Constant "PRogram object base">`
    194          }

   \                                 In segment CODE, align 4, keep-with-next
   \                     ?Subroutine70:
   \   00000000   F047BDE8           POP      {R4-R10,LR}
   \   00000004   1EFF2FE1           BX       LR               ;; return
    195          //---------------------------------------------------------------------------
    196          

   \                                 In segment CODE, align 4, keep-with-next
    197          bool PRogramObjectBase::RestoreSettings(TSNConfigString *SettingsString) {
    198              return (true);
   \                     ??RestoreSettings:
   \   00000000   ........           B        ?Subroutine71
    199          }

   \                                 In segment CODE, align 4, keep-with-next
   \                     ?Subroutine71:
   \   00000000   0100A0E3           MOV      R0,#+1
   \   00000004   1EFF2FE1           BX       LR               ;; return
    200          
    201          ///////////////////////////////////////////////////////////////
    202          //
    203          // Routines for the librarian
    204          //
    205          ///////////////////////////////////////////////////////////////

   \                                 In segment CODE, align 4, keep-with-next
    206          AnsiString PRogramObjectBase::FindStatusChar(int Stat) {
   \                     ??FindStatusChar:
   \   00000000   30402DE9           PUSH     {R4,R5,LR}
   \   00000004   70D04DE2           SUB      SP,SP,#+112
   \   00000008   0140A0E1           MOV      R4,R1
   \   0000000C   0250A0E1           MOV      R5,R2
    207              AnsiString StrPtr;
   \   00000010   0400A0E1           MOV      R0,R4
   \   00000014   ........           _BLF     ??AnsiString,??AnsiString??rA
    208              switch ( Stat ) {
   \   00000018   3E5045E2           SUB      R5,R5,#+62
   \   0000001C   F05E45E2           SUB      R5,R5,#+3840
   \   00000020   030055E3           CMP      R5,#+3
   \   00000024   3700008A           BHI      ??FindStatusChar_2
   \   00000028   010F8FE2           ADR      R0,??FindStatusChar_1
   \   0000002C   0500D0E7           LDRB     R0,[R0, R5]
   \   00000030   00F18FE0           ADD      PC,PC,R0, LSL #+2
   \                     ??FindStatusChar_1:
   \   00000034   27000D1A           DC8      +39,+0,+13,+26
    209              case ST_NONE:
    210                  //StrPtr = "";
    211                  break;
    212              case ST_OK:
    213                  //StrPtr = "";
    214                  break;
    215              case ST_WARNING:
    216                  StrPtr = "W";
   \                     ??FindStatusChar_3:
   \   00000038   341F8FE2           ADR      R1,??FindStatusChar_4  ;; "W"
   \   0000003C   0D00A0E1           MOV      R0,SP
   \   00000040   ........           _BLF     ??AnsiString_1,??AnsiString??rA_1
   \   00000044   ........           LDR      R1,??DataTable22  ;; ??npos
   \   00000048   0020A0E3           MOV      R2,#+0
   \   0000004C   003091E5           LDR      R3,[R1, #+0]
   \   00000050   0010A0E1           MOV      R1,R0
   \   00000054   0400A0E1           MOV      R0,R4
   \   00000058   ........           _BLF     ??assign,??assign??rA
   \   0000005C   0020A0E3           MOV      R2,#+0
   \   00000060   0110A0E3           MOV      R1,#+1
   \   00000064   0D00A0E1           MOV      R0,SP
   \   00000068   250000EA           B        ??FindStatusChar_5
    217                  break;
    218              case ST_ALARM:
    219                  StrPtr = "A";
   \                     ??FindStatusChar_6:
   \   0000006C   281F8FE2           ADR      R1,??FindStatusChar_4+0x4  ;; "A"
   \   00000070   1C008DE2           ADD      R0,SP,#+28
   \   00000074   ........           _BLF     ??AnsiString_1,??AnsiString??rA_1
   \   00000078   0010A0E1           MOV      R1,R0
   \   0000007C   ........           LDR      R0,??DataTable22  ;; ??npos
   \   00000080   0020A0E3           MOV      R2,#+0
   \   00000084   003090E5           LDR      R3,[R0, #+0]
   \   00000088   0400A0E1           MOV      R0,R4
   \   0000008C   ........           _BLF     ??assign,??assign??rA
   \   00000090   0020A0E3           MOV      R2,#+0
   \   00000094   0110A0E3           MOV      R1,#+1
   \   00000098   1C008DE2           ADD      R0,SP,#+28
   \   0000009C   180000EA           B        ??FindStatusChar_5
    220                  break;
    221              case ST_ERROR:
    222                  StrPtr = "E";
   \                     ??FindStatusChar_7:
   \   000000A0   1C1F8FE2           ADR      R1,??FindStatusChar_4+0x8  ;; "E"
   \   000000A4   38008DE2           ADD      R0,SP,#+56
   \   000000A8   ........           _BLF     ??AnsiString_1,??AnsiString??rA_1
   \   000000AC   ........           LDR      R1,??DataTable22  ;; ??npos
   \   000000B0   0020A0E3           MOV      R2,#+0
   \   000000B4   003091E5           LDR      R3,[R1, #+0]
   \   000000B8   0010A0E1           MOV      R1,R0
   \   000000BC   0400A0E1           MOV      R0,R4
   \   000000C0   ........           _BLF     ??assign,??assign??rA
   \   000000C4   0020A0E3           MOV      R2,#+0
   \   000000C8   0110A0E3           MOV      R1,#+1
   \   000000CC   38008DE2           ADD      R0,SP,#+56
   \   000000D0   0B0000EA           B        ??FindStatusChar_5
    223                  break;
    224              case ST_LOADCALC:
    225                  StrPtr = "L";
   \                     ??FindStatusChar_8:
   \   000000D4   101F8FE2           ADR      R1,??FindStatusChar_4+0xC  ;; "L"
   \   000000D8   54008DE2           ADD      R0,SP,#+84
   \   000000DC   ........           _BLF     ??AnsiString_1,??AnsiString??rA_1
   \   000000E0   ........           LDR      R1,??DataTable22  ;; ??npos
   \   000000E4   0020A0E3           MOV      R2,#+0
   \   000000E8   003091E5           LDR      R3,[R1, #+0]
   \   000000EC   0010A0E1           MOV      R1,R0
   \   000000F0   0400A0E1           MOV      R0,R4
   \   000000F4   ........           _BLF     ??assign,??assign??rA
   \   000000F8   0020A0E3           MOV      R2,#+0
   \   000000FC   0110A0E3           MOV      R1,#+1
   \   00000100   54008DE2           ADD      R0,SP,#+84
   \                     ??FindStatusChar_5:
   \   00000104   ........           _BLF     ??_Tidy_1,??_Tidy??rA
    226                  break;
    227              }
    228              return (StrPtr);
   \                     ??FindStatusChar_2:
   \   00000108   70D08DE2           ADD      SP,SP,#+112
   \   0000010C   ........           B        ??Subroutine63_0
   \                     ??FindStatusChar_4:
   \   00000110   57000000           DC8      "W",+0,+0
   \   00000114   41000000           DC8      "A",+0,+0
   \   00000118   45000000           DC8      "E",+0,+0
   \   0000011C   4C000000           DC8      "L",+0,+0
    229          }
    230          

   \                                 In segment CODE, align 4, keep-with-next
    231          int PRogramObjectBase::FindPROStatus(AnsiString &MyString) {
   \                     ??FindPROStatus:
   \   00000000   10402DE9           PUSH     {R4,LR}
   \   00000004   1CD04DE2           SUB      SP,SP,#+28
   \   00000008   0140A0E1           MOV      R4,R1
    232              int PROStatus = ST_OK;
    233              MyString = FindStatusChar(PROStatus);
   \   0000000C   3D20A0E3           MOV      R2,#+61
   \   00000010   F02E82E3           ORR      R2,R2,#0xF00
   \   00000014   0D10A0E1           MOV      R1,SP
   \   00000018   ........           BL       ??FindStatusChar
   \   0000001C   ........           LDR      R0,??DataTable22  ;; ??npos
   \   00000020   0020A0E3           MOV      R2,#+0
   \   00000024   003090E5           LDR      R3,[R0, #+0]
   \   00000028   0D10A0E1           MOV      R1,SP
   \   0000002C   0400A0E1           MOV      R0,R4
   \   00000030   ........           _BLF     ??assign,??assign??rA
   \   00000034   0020A0E3           MOV      R2,#+0
   \   00000038   0110A0E3           MOV      R1,#+1
   \   0000003C   0D00A0E1           MOV      R0,SP
   \   00000040   ........           _BLF     ??_Tidy_1,??_Tidy??rA
    234              return (PROStatus);
   \   00000044   1CD08DE2           ADD      SP,SP,#+28
   \   00000048   1040BDE8           POP      {R4,LR}
   \   0000004C   3D00A0E3           MOV      R0,#+61
   \   00000050   F00E80E3           ORR      R0,R0,#0xF00
   \   00000054   1EFF2FE1           BX       LR               ;; return
    235          }
    236          

   \                                 In segment CODE, align 4, keep-with-next
    237          AnsiString PRogramObjectBase::GetName(void) {
   \                     ??GetName:
   \   00000000   00402DE9           PUSH     {LR}
   \   00000004   0120A0E1           MOV      R2,R1
    238              return (Name);
   \   00000008   441080E2           ADD      R1,R0,#+68
   \   0000000C   0200A0E1           MOV      R0,R2
   \   00000010   ........           _BLF     ??string,??string??rA
   \   00000014   ........           B        ??Subroutine62_0
    239          }

   \                                 In segment CODE, align 4, keep-with-next
   \                     ?Subroutine62:
   \   00000000   00402DE9           PUSH     {LR}
   \   00000004   ........           _BLF     ??_Zero,??_Zero??rA
   \                     ??Subroutine62_0:
   \   00000008   0040BDE8           POP      {LR}
   \   0000000C   1EFF2FE1           BX       LR               ;; return
    240          

   \                                 In segment CODE, align 4, keep-with-next
    241          float PRogramObjectBase::ConvertFromSiUnit(char Buf[], int ValKey, int Index, int Width) {
   \                     ??ConvertFromSiUnit:
   \   00000000   37402DE9           PUSH     {R0-R2,R4,R5,LR}
   \   00000004   18509DE5           LDR      R5,[SP, #+24]
   \   00000008   00C0A0E1           MOV      R12,R0
   \   0000000C   0140A0E1           MOV      R4,R1
   \   00000010   0210A0E1           MOV      R1,R2
   \   00000014   0320A0E1           MOV      R2,R3
    242              float MyValue = 0.0;
   \   00000018   0030A0E3           MOV      R3,#+0
   \   0000001C   08308DE5           STR      R3,[SP, #+8]
    243              int DecPnt, Unit;
    244              int Status = GetValue(ValKey, Index, MyValue, DecPnt, Unit);
   \   00000020   04008DE2           ADD      R0,SP,#+4
   \   00000024   01002DE9           PUSH     {R0}
   \   00000028   04008DE2           ADD      R0,SP,#+4
   \   0000002C   01002DE9           PUSH     {R0}
   \   00000030   0C00A0E1           MOV      R0,R12
   \   00000034   A4C09CE5           LDR      R12,[R12, #+164]
   \   00000038   10308DE2           ADD      R3,SP,#+16
   \   0000003C   24C09CE5           LDR      R12,[R12, #+36]
   \   00000040   0FE0A0E1           MOV      LR,PC
   \   00000044   1CFF2FE1           BX       R12
    245          
    246              return ConvertFromSi(Buf, MyValue, Width, DecPnt, Unit);
   \   00000048   0C009DE5           LDR      R0,[SP, #+12]
   \   0000004C   0520A0E1           MOV      R2,R5
   \   00000050   01002DE9           PUSH     {R0}
   \   00000054   0C309DE5           LDR      R3,[SP, #+12]
   \   00000058   14109DE5           LDR      R1,[SP, #+20]
   \   0000005C   0400A0E1           MOV      R0,R4
   \   00000060   ........           _BLF     ??ConvertFromSi,??ConvertFromSi??rA
   \   00000064   18D08DE2           ADD      SP,SP,#+24
   \   00000068   ........           B        ??Subroutine63_0
    247          }
    248          

   \                                 In segment CODE, align 4, keep-with-next
    249          int PRogramObjectBase::GetFloatValue(int ValueId, int Index, float &MyValue) {
   \                     ??GetFloatValue:
   \   00000000   03402DE9           PUSH     {R0,R1,LR}
   \   00000004   00C0A0E1           MOV      R12,R0
    250              int DecPnt, Unit; // These variables are not used
    251              return (GetValue(ValueId, Index, MyValue, DecPnt, Unit));
   \   00000008   04008DE2           ADD      R0,SP,#+4
   \   0000000C   01002DE9           PUSH     {R0}
   \   00000010   04008DE2           ADD      R0,SP,#+4
   \   00000014   01002DE9           PUSH     {R0}
   \   00000018   0C00A0E1           MOV      R0,R12
   \   0000001C   A4C09CE5           LDR      R12,[R12, #+164]
   \   00000020   24C09CE5           LDR      R12,[R12, #+36]
   \   00000024   0FE0A0E1           MOV      LR,PC
   \   00000028   1CFF2FE1           BX       R12
   \   0000002C   10D08DE2           ADD      SP,SP,#+16
   \   00000030   ........           B        ??Subroutine62_0
    252          }

   \                                 In segment CODE, align 4, keep-with-next
    253          int PRogramObjectBase::GetValue(int ValueId, int Index, float &MyValue, int &DecPnt, int &Unit) {
   \                     ??GetValue:
   \   00000000   F0472DE9           PUSH     {R4-R10,LR}
   \   00000004   20609DE5           LDR      R6,[SP, #+32]
   \   00000008   24709DE5           LDR      R7,[SP, #+36]
   \   0000000C   0040A0E1           MOV      R4,R0
   \   00000010   0350A0E1           MOV      R5,R3
    254              int Status = E_NO_ERR;
   \   00000014   0080A0E3           MOV      R8,#+0
    255              switch ( ValueId ) {
   \   00000018   0090A0E3           MOV      R9,#+0
   \   0000001C   181041E2           SUB      R1,R1,#+24
   \   00000020   501E41E2           SUB      R1,R1,#+1280
   \   00000024   020051E3           CMP      R1,#+2
   \   00000028   1200008A           BHI      ??GetValue_2
   \   0000002C   010F8FE2           ADR      R0,??GetValue_1
   \   00000030   0100D0E7           LDRB     R0,[R0, R1]
   \   00000034   00F18FE0           ADD      PC,PC,R0, LSL #+2
   \                     ??GetValue_1:
   \   00000038   0C0F0000           DC8      +12,+15,+0,+0
    256              case SVT_PRO_TIMESTAMP:
    257                  MyValue = (float)clock() - TimeStamp;
   \                     ??GetValue_3:
   \   0000003C   ........           _BLF     clock,??clock??rA
   \   00000040   ........           _BLF     __longToFloat,??__longToFloat??rA
   \   00000044   00A0A0E1           MOV      R10,R0
   \   00000048   400094E5           LDR      R0,[R4, #+64]
   \   0000004C   ........           _BLF     __longToFloat,??__longToFloat??rA
   \   00000050   0010A0E1           MOV      R1,R0
   \   00000054   0A00A0E1           MOV      R0,R10
   \   00000058   ........           _BLF     __fSub,??__fSub??rA
   \                     ??GetValue_4:
   \   0000005C   000085E5           STR      R0,[R5, #+0]
    258                  DecPnt = 0;
   \   00000060   009086E5           STR      R9,[R6, #+0]
    259                  Unit   = NO_UNIT;
   \   00000064   009087E5           STR      R9,[R7, #+0]
   \   00000068   030000EA           B        ??GetValue_5
    260                  break;
    261              case SVT_PRO_SORTNO :
    262                  MyValue = (float)SortNo;
   \                     ??GetValue_6:
   \   0000006C   980094E5           LDR      R0,[R4, #+152]
   \   00000070   ........           _BLF     __longToFloat,??__longToFloat??rA
   \   00000074   F8FFFFEA           B        ??GetValue_4
    263                  DecPnt = 0;
    264                  Unit   = NO_UNIT;
    265                  break;
    266              default:
    267                  Status = GETVAL_NO_DISPLAY;
   \                     ??GetValue_2:
   \   00000078   0380A0E3           MOV      R8,#+3
    268                  break;
    269              }
    270              return (Status);
   \                     ??GetValue_5:
   \   0000007C   0800A0E1           MOV      R0,R8
   \   00000080                      REQUIRE ?Subroutine70
   \   00000080                      ;; // Fall through to label ?Subroutine70
    271          }
    272          
    273          

   \                                 In segment CODE, align 4, keep-with-next
    274          int PRogramObjectBase::GetStringValue(int ValueId, int Index, AnsiString &MyString) {
    275              int Status = GETVAL_NO_ERR;
    276              switch ( ValueId ) {
   \                     ??GetStringValue:
   \   00000000   ........           LDR      R2,??DataTable35  ;; ??npos
   \   00000004   70402DE9           PUSH     {R4-R6,LR}
   \   00000008   1CD04DE2           SUB      SP,SP,#+28
   \   0000000C   006092E5           LDR      R6,[R2, #+0]
   \   00000010   0340A0E1           MOV      R4,R3
   \   00000014   0050A0E3           MOV      R5,#+0
   \   00000018   151041E2           SUB      R1,R1,#+21
   \   0000001C   501E41E2           SUB      R1,R1,#+1280
   \   00000020   040051E3           CMP      R1,#+4
   \   00000024   1B00008A           BHI      ??GetStringValue_2
   \   00000028   012F8FE2           ADR      R2,??GetStringValue_1
   \   0000002C   0120D2E7           LDRB     R2,[R2, R1]
   \   00000030   02F18FE0           ADD      PC,PC,R2, LSL #+2
   \                     ??GetStringValue_1:
   \   00000034   01180718           DC8      +1,+24,+7,+24
   \   00000038   0B000000           DC8      +11,+0,+0,+0
    277              case SVT_PRO_NAME:
    278                  MyString = Name;
   \                     ??GetStringValue_3:
   \   0000003C   0630A0E1           MOV      R3,R6
   \   00000040   0020A0E3           MOV      R2,#+0
   \   00000044   441080E2           ADD      R1,R0,#+68
   \                     ??GetStringValue_4:
   \   00000048   0400A0E1           MOV      R0,R4
   \   0000004C   ........           _BLF     ??assign,??assign??rA
   \   00000050   110000EA           B        ??GetStringValue_5
    279                  break;
    280              case SVT_PRO_TAGNAME:
    281                  MyString = TagName;
   \                     ??GetStringValue_6:
   \   00000054   0630A0E1           MOV      R3,R6
   \   00000058   0020A0E3           MOV      R2,#+0
   \   0000005C   601080E2           ADD      R1,R0,#+96
   \   00000060   F8FFFFEA           B        ??GetStringValue_4
    282                  break;
    283              case SVT_PRO_STATUS:
    284                  MyString = "";
   \                     ??GetStringValue_7:
   \   00000064   ........           ADR      R1,??Subroutine67_0  ;; ""
   \   00000068   0D00A0E1           MOV      R0,SP
   \   0000006C   ........           _BLF     ??AnsiString_1,??AnsiString??rA_1
   \   00000070   0630A0E1           MOV      R3,R6
   \   00000074   0020A0E3           MOV      R2,#+0
   \   00000078   0010A0E1           MOV      R1,R0
   \   0000007C   0400A0E1           MOV      R0,R4
   \   00000080   ........           _BLF     ??assign,??assign??rA
   \   00000084   0520A0E1           MOV      R2,R5
   \   00000088   0110A0E3           MOV      R1,#+1
   \   0000008C   0D00A0E1           MOV      R0,SP
   \   00000090   ........           _BLF     ??_Tidy_1,??_Tidy??rA
    285                  Status     = GETVAL_NO_ERR;
   \   00000094   000000EA           B        ??GetStringValue_5
    286                  break;
    287              default:
    288                  Status = GETVAL_NOT_AVAILABLE;
   \                     ??GetStringValue_2:
   \   00000098   0150A0E3           MOV      R5,#+1
    289                  break;
    290          
    291              }
    292              return (Status);
   \                     ??GetStringValue_5:
   \   0000009C   0500A0E1           MOV      R0,R5
   \   000000A0   1CD08DE2           ADD      SP,SP,#+28
   \   000000A4                      REQUIRE ?Subroutine67
   \   000000A4                      ;; // Fall through to label ?Subroutine67
    293          }

   \                                 In segment CODE, align 4, keep-with-next
    294          int PRogramObjectBase::GetBitValue(int ValueId, int Index, bool &MyBit) {
    295              int Status = GETVAL_NO_ERR;
    296              switch ( ValueId ) {
    297              default:
    298                  Status = GETVAL_NOT_AVAILABLE;
    299                  break;
    300          
    301              }
    302              return (Status);
   \                     ??GetBitValue:
   \   00000000                      REQUIRE ?Subroutine71
   \   00000000                      ;; // Fall through to label ?Subroutine71
    303          }
    304          

   \                                 In segment CODE, align 4, keep-with-next
    305          int PRogramObjectBase::PutValue(int ValueId, int Index, AnsiString NewValue, bool Local, int *UnitId) {
   \                     ??PutValue:
   \   00000000   30402DE9           PUSH     {R4,R5,LR}
   \   00000004   10409DE5           LDR      R4,[SP, #+16]
   \   00000008   0120A0E1           MOV      R2,R1
   \   0000000C   0310A0E1           MOV      R1,R3
    306              int Status = E_NO_ERR, ValUnitId = NO_UNIT;
   \   00000010   0050A0E3           MOV      R5,#+0
    307              switch ( ValueId ) {
   \   00000014   1530A0E3           MOV      R3,#+21
   \   00000018   503E83E3           ORR      R3,R3,#0x500
   \   0000001C   030052E1           CMP      R2,R3
   \   00000020   0500001A           BNE      ??PutValue_1
    308              case SVT_PRO_NAME:
    309                  Name = NewValue;
   \   00000024   ........           LDR      R2,??DataTable35  ;; ??npos
   \   00000028   440080E2           ADD      R0,R0,#+68
   \   0000002C   003092E5           LDR      R3,[R2, #+0]
   \   00000030   0020A0E3           MOV      R2,#+0
   \   00000034   ........           _BLF     ??assign,??assign??rA
   \   00000038   000000EA           B        ??PutValue_2
    310                  break;
    311              default:
    312                  Status = E_INPUT_ERR;
   \                     ??PutValue_1:
   \   0000003C   0150A0E3           MOV      R5,#+1
    313                  break;
    314              }
    315              if ( UnitId ) {
   \                     ??PutValue_2:
   \   00000040   000054E3           CMP      R4,#+0
    316                  *UnitId = ValUnitId;
   \   00000044   0000A013           MOVNE    R0,#+0
   \   00000048   00008415           STRNE    R0,[R4, #+0]
    317              }
    318              return (Status);
   \   0000004C   ........           B        ?Subroutine63
    319          }
    320          

   \                                 In segment CODE, align 4, keep-with-next
    321          int PRogramObjectBase::PutFloatValue(int ValueId, float NewValue) {
    322              int Status = E_NO_ERR;
    323              //switch(ValueId){
    324              //  default:
    325              Status = E_INPUT_ERR;
    326              //    break;
    327              //}
    328              return (Status);
   \                     ??PutFloatValue:
   \   00000000   ........           B        ?Subroutine71
    329          }
    330          

   \                                 In segment CODE, align 4, keep-with-next
    331          int PRogramObjectBase::PutBitValue(int ValueId, int Index, bool NewValue) {
   \                     ??PutBitValue:
   \   00000000   30402DE9           PUSH     {R4,R5,LR}
   \   00000004   0040A0E1           MOV      R4,R0
   \   00000008   0150A0E1           MOV      R5,R1
   \   0000000C   0300A0E1           MOV      R0,R3
    332              int Status = E_NO_ERR;
    333              //switch(ValueId){
    334              //  default:
    335              Status = PutFloatValue(ValueId, float(NewValue));
   \   00000010   ........           _BLF     __ulongToFloat,??__ulongToFloat??rA
   \   00000014   A43094E5           LDR      R3,[R4, #+164]
   \   00000018   0020A0E1           MOV      R2,R0
   \   0000001C   343093E5           LDR      R3,[R3, #+52]
   \   00000020   0510A0E1           MOV      R1,R5
   \   00000024   0400A0E1           MOV      R0,R4
   \   00000028   0FE0A0E1           MOV      LR,PC
   \   0000002C   13FF2FE1           BX       R3
    336              //    break;
    337              //}
    338              return (Status);
   \   00000030   ........           B        ??Subroutine63_0
    339          }
    340          

   \                                 In segment CODE, align 4, keep-with-next
    341          ValueList* PRogramObjectBase::GetValueInfoTable(int &Entries, int Index) {
    342              return GetValueInfoTableStatic(Entries, Index);
   \                     ??GetValueInfoTable:
   \   00000000   ........           B        ?Subroutine64
    343          }

   \                                 In segment CODE, align 4, keep-with-next
   \                     ?Subroutine64:
   \   00000000   0000A0E3           MOV      R0,#+0
   \   00000004   000081E5           STR      R0,[R1, #+0]
   \   00000008   1EFF2FE1           BX       LR               ;; return
    344          

   \                                 In segment CODE, align 4, keep-with-next
    345          ValueList* PRogramObjectBase::GetServiceValueInfoTable(int &Entries) {
    346              return GetServiceValueInfoTableStatic(Entries);
   \                     ??GetServiceValueInfoTable:
   \   00000000                      REQUIRE ?Subroutine64
   \   00000000                      ;; // Fall through to label ?Subroutine64
    347          }
    348          

   \                                 In segment CODE, align 4, keep-with-next
    349          ValueList* PRogramObjectBase::GetValueInfoTableStatic(int &Entries, int Index, bool Redundancy) {
    350              Entries = 0;
   \                     ??GetValueInfoTableStatic:
   \   00000000   ........           B        ?Subroutine61
    351              return (NULL);
    352          }
    353          

   \                                 In segment CODE, align 4, keep-with-next
    354          ValueList* PRogramObjectBase::GetServiceValueInfoTableStatic(int &Entries) {
    355              Entries = 0;
   \                     ??GetServiceValueInfoTableStatic:
   \   00000000                      REQUIRE ?Subroutine61
   \   00000000                      ;; // Fall through to label ?Subroutine61
    356              return (NULL);
    357          }
    358          
    359          

   \                                 In segment CODE, align 4, keep-with-next
    360          vector<int>PRogramObjectBase::GetValueIdVector(int Index) {
   \                     ??GetValueIdVector:
   \   00000000   ........           B        ?Subroutine62
    361              vector<int>tmpList;
    362              return (tmpList);
    363          }
    364          

   \                                 In segment CODE, align 4, keep-with-next
    365          vector<ValueList>PRogramObjectBase::GetValueInfoVector(int Index) {
   \                     ??GetValueInfoVector:
   \   00000000                      REQUIRE ?Subroutine62
   \   00000000                      ;; // Fall through to label ?Subroutine62
    366              vector<ValueList>tmpList;
    367              return (tmpList);
    368          }
    369          

   \                                 In segment CODE, align 4, keep-with-next
    370          vector<ValueList>PRogramObjectBase::GetServiceValueInfoVector(void) {
   \                     ??GetServiceValueInfoVector:
   \   00000000   ........           B        ?Subroutine62
    371              vector<ValueList>tmpList;
    372              return (tmpList);
    373          }
    374          
    375          

   \                                 In segment CODE, align 4, keep-with-next
    376          int PRogramObjectBase::ReceiveData(U8 *data) {
    377              return (E_UNKNOWN_OBJECT);
   \                     ??ReceiveData:
   \   00000000   ........           B        ?Subroutine72
    378          }

   \                                 In segment CODE, align 4, keep-with-next
   \                     ?Subroutine72:
   \   00000000   0200A0E3           MOV      R0,#+2
   \   00000004   1EFF2FE1           BX       LR               ;; return
    379          

   \                                 In segment CODE, align 4, keep-with-next
    380          int PRogramObjectBase::SendData(U16 CommandNo) {
    381              return (E_UNKNOWN_OBJECT);
   \                     ??SendData:
   \   00000000                      REQUIRE ?Subroutine72
   \   00000000                      ;; // Fall through to label ?Subroutine72
    382          }
    383          
    384          

   \                                 In segment CODE, align 4, keep-with-next
    385          int PRogramObjectBase::SendModbusData(U16 ValueId, float Value, U16 Cmd) {
   \                     ??SendModbusData:
   \   00000000   00402DE9           PUSH     {LR}
   \   00000004   14D04DE2           SUB      SP,SP,#+20
    386              int ErrorStatus = E_OK;
    387              switch ( Cmd ) {
   \   00000008   670053E3           CMP      R3,#+103
   \   0000000C   1F00001A           BNE      ??SendModbusData_1
    388              case CMD_GENERIC_MODBUS_RT_DATA:
    389                  {
    390                      QueueANPRO10_COMMAND_2751 Cmd;
    391                      Cmd.TxInfo.Port         = NULL;
   \   00000010   00C0A0E3           MOV      R12,#+0
   \   00000014   00C08DE5           STR      R12,[SP, #+0]
    392                      Cmd.TxInfo.rxAddr       = DEVICE_BROADCAST_ADDR;
   \   00000018   FFC0A0E3           MOV      R12,#+255
   \   0000001C   04C0CDE5           STRB     R12,[SP, #+4]
    393                      Cmd.TxInfo.rxId         = DEVICE_BROADCAST_TXU;
   \   00000020   0EC0A0E3           MOV      R12,#+14
   \   00000024   05C0CDE5           STRB     R12,[SP, #+5]
    394                      Cmd.Data.ObjectId       = IDNumber;
   \   00000028   9C0090E5           LDR      R0,[R0, #+156]
    395                      Cmd.Data.ndb            = sizeof(Cmd) - sizeof(QueueANPRO10_CommandHeading);
   \   0000002C   0A30A0E3           MOV      R3,#+10
   \   00000030   0A00CDE5           STRB     R0,[SP, #+10]
   \   00000034   2004A0E1           LSR      R0,R0,#+8
   \   00000038   0B00CDE5           STRB     R0,[SP, #+11]
   \   0000003C   2004A0E1           LSR      R0,R0,#+8
   \   00000040   0C00CDE5           STRB     R0,[SP, #+12]
   \   00000044   2004A0E1           LSR      R0,R0,#+8
   \   00000048   0D00CDE5           STRB     R0,[SP, #+13]
    396                      Cmd.Data.CommandNo      = CMD_GENERIC_MODBUS_RT_DATA;
    397                      Cmd.Data.ValueKey       = ValueId;
    398                      Cmd.Data.Value          = Value;
    399                      bool hasSent;
    400                      if ( Master ) {
   \   0000004C   ........           LDR      R0,??DataTable39  ;; Master
   \   00000050   B830CDE1           STRH     R3,[SP, #+8]
   \   00000054   0000D0E5           LDRB     R0,[R0, #+0]
   \   00000058   6730A0E3           MOV      R3,#+103
   \   0000005C   B630CDE1           STRH     R3,[SP, #+6]
   \   00000060   BE10CDE1           STRH     R1,[SP, #+14]
   \   00000064   10208DE5           STR      R2,[SP, #+16]
   \   00000068   000050E3           CMP      R0,#+0
   \   0000006C   0D00A0E1           MOV      R0,SP
   \   00000070   0100000A           BEQ      ??SendModbusData_2
    401                          hasSent = ANPRO10SendNormal(&Cmd);
   \   00000074   ........           _BLF     ??ANPRO10SendNormal,??ANPRO10SendNormal??rA
   \   00000078   000000EA           B        ??SendModbusData_3
    402                      } else {
    403                          hasSent = ANPRO10SendUrgent(&Cmd);
   \                     ??SendModbusData_2:
   \   0000007C   ........           _BLF     ??ANPRO10SendUrgent,??ANPRO10SendUrgent??rA
    404                      }
    405                      if ( !hasSent ) ErrorStatus = E_QUEUE_FULL;
   \                     ??SendModbusData_3:
   \   00000080   000050E3           CMP      R0,#+0
   \   00000084   0000A013           MOVNE    R0,#+0
   \   00000088   0300A003           MOVEQ    R0,#+3
   \   0000008C   000000EA           B        ??SendModbusData_4
    406                      else ErrorStatus = E_OK;
    407                  }
    408                  break;
    409              default:
    410                  ErrorStatus = E_UNKNOWN_COMMAND;
   \                     ??SendModbusData_1:
   \   00000090   0100A0E3           MOV      R0,#+1
    411                  break;
    412              }
    413              return (ErrorStatus);
   \                     ??SendModbusData_4:
   \   00000094   14D08DE2           ADD      SP,SP,#+20
   \   00000098   ........           B        ??Subroutine62_0
    414          }
    415          #define STATIC_UPDATE_PERIOD_COM       (3*60 * 1000)
    416          #define STATIC_UPDATE_MIN_DELAY         100  // C00614 has 57 as calculated delay and it works on the Hudong series C00610 and related 

   \                                 In segment CODE, align 4, keep-with-next
    417          void PRogramObjectBase::SendStaticData(void) {
   \                     ??SendStaticData:
   \   00000000   F0402DE9           PUSH     {R4-R7,LR}
    418          #ifdef S2TXU
    419              TSN_Delay(START_DELAY);
    420              const int NumberOfObjects = PRogramObjectBaseSet.size(); // Not used, but informative when debugging
    421              const int ComDelay  = STATIC_UPDATE_MIN_DELAY; //STATIC_UPDATE_PERIOD_COM / PRogramObjectBaseSet.size();;
    422              bool FirstTime      = true;
    423              int Delay           = ComDelay;
   \   00000004   ........           LDR      R6,??DataTable41  ;; ??IdMap
   \   00000008   1000A0E3           MOV      R0,#+16
   \   0000000C   9C0D80E3           ORR      R0,R0,#0x2700
   \   00000010   ........           _BLF     OS_Delay,??OS_Delay??rA
   \   00000014   0140A0E3           MOV      R4,#+1
   \   00000018   6450A0E3           MOV      R5,#+100
   \   0000001C   060000EA           B        ??SendStaticData_1
    424              //int t0 = OS_GetTime();
    425              while ( true ) {
    426                  if ( SendFlashDataInProgress == FLASH_IDLE ) {
    427                      if ( FirstTime ) {
    428                          FirstTime = false;
    429                      } else {
    430                          int AvgIODelay = RS485_IO_PERIODE - PROTanksystemUnit::MySelf->GetIOLoadDelay();
    431                          if ( (Delay > STATIC_UPDATE_MIN_DELAY) && (AvgIODelay > 0 )  ){
    432                              Delay--;
    433                          } else if ( (Delay < STATIC_UPDATE_MIN_DELAY) || (AvgIODelay < 0 ) ) {
    434                              Delay++;
    435                          }
    436                      }
    437                      ANPRO10_SendTime(false);
    438                      //int t0 = OS_GetTime();
    439                      set<PRogramObjectBase *>::iterator pBIt;
    440                      for ( pBIt = PRogramObjectBaseSet.begin(); pBIt != PRogramObjectBaseSet.end(); pBIt++ ) {
    441                          int ret = (*pBIt)->SendData(CMD_GENERIC_STATIC_DATA);
    442                          switch ( ret ) {
    443                          case E_QUEUE_FULL:
    444                              Delay++;
    445                          case E_OK:
    446                              TSN_Delay(Delay);
    447                              break;
    448                          case E_UNKNOWN_OBJECT:
    449                          default:
    450                              TSN_Delay(0);
    451                              break;
    452                          }
    453                      }
    454                      //OS_DelayUntil(t0 += STATIC_UPDATE_PERIOD);
    455                  } else {
    456                      // Reset Delay when flashing
    457                      Delay = STATIC_UPDATE_PERIOD_COM / PRogramObjectBaseSet.size();
   \                     ??SendStaticData_2:
   \   00000020   281096E5           LDR      R1,[R6, #+40]
   \   00000024   AC0BA0E3           MOV      R0,#+176128
   \   00000028   F20E80E3           ORR      R0,R0,#0xF20
   \   0000002C   ........           _BLF     ??divu32_a,??rA??divu32_a
   \   00000030   0150A0E1           MOV      R5,R1
    458                      TSN_Delay(Delay);
   \   00000034   0500A0E1           MOV      R0,R5
   \   00000038   ........           _BLF     OS_Delay,??OS_Delay??rA
    459                  }
   \                     ??SendStaticData_1:
   \   0000003C   B8009FE5           LDR      R0,??SendStaticData_3  ;; SendFlashDataInProgress
   \   00000040   0000D0E5           LDRB     R0,[R0, #+0]
   \   00000044   000050E3           CMP      R0,#+0
   \   00000048   F4FFFF1A           BNE      ??SendStaticData_2
   \   0000004C   000054E3           CMP      R4,#+0
   \   00000050   0040A013           MOVNE    R4,#+0
   \   00000054   0E00001A           BNE      ??SendStaticData_4
   \   00000058   ........           LDR      R0,??DataTable40  ;; ??MySelf
   \   0000005C   000090E5           LDR      R0,[R0, #+0]
   \   00000060   ........           _BLF     ??GetIOLoadDelay,??GetIOLoadDelay??rA
   \   00000064   7D0E60E2           RSB      R0,R0,#+2000
   \   00000068   650055E3           CMP      R5,#+101
   \   0000006C   030000BA           BLT      ??SendStaticData_5
   \   00000070   010050E3           CMP      R0,#+1
   \   00000074   030000BA           BLT      ??SendStaticData_6
   \   00000078   015045E2           SUB      R5,R5,#+1
   \   0000007C   040000EA           B        ??SendStaticData_4
   \                     ??SendStaticData_5:
   \   00000080   640055E3           CMP      R5,#+100
   \   00000084   010000BA           BLT      ??SendStaticData_7
   \                     ??SendStaticData_6:
   \   00000088   000050E3           CMP      R0,#+0
   \   0000008C   0000005A           BPL      ??SendStaticData_4
   \                     ??SendStaticData_7:
   \   00000090   015085E2           ADD      R5,R5,#+1
   \                     ??SendStaticData_4:
   \   00000094   0000A0E3           MOV      R0,#+0
   \   00000098   ........           _BLF     ??ANPRO10_SendTime,??ANPRO10_SendTime??rA
   \   0000009C   187096E5           LDR      R7,[R6, #+24]
   \   000000A0   040000EA           B        ??SendStaticData_8
   \                     ??SendStaticData_9:
   \   000000A4   0000A0E3           MOV      R0,#+0
   \                     ??SendStaticData_10:
   \   000000A8   ........           _BLF     OS_Delay,??OS_Delay??rA
   \   000000AC   0700A0E1           MOV      R0,R7
   \   000000B0   ........           _BLF     ??_IncP,??_IncP??rA
   \   000000B4   0070A0E1           MOV      R7,R0
   \                     ??SendStaticData_8:
   \   000000B8   180086E2           ADD      R0,R6,#+24
   \   000000BC   000057E1           CMP      R7,R0
   \   000000C0   DDFFFF0A           BEQ      ??SendStaticData_1
   \   000000C4   102097E5           LDR      R2,[R7, #+16]
   \   000000C8   6610A0E3           MOV      R1,#+102
   \   000000CC   0200A0E1           MOV      R0,R2
   \   000000D0   A42092E5           LDR      R2,[R2, #+164]
   \   000000D4   402092E5           LDR      R2,[R2, #+64]
   \   000000D8   0FE0A0E1           MOV      LR,PC
   \   000000DC   12FF2FE1           BX       R2
   \   000000E0   000050E3           CMP      R0,#+0
   \   000000E4   0200000A           BEQ      ??SendStaticData_11
   \   000000E8   030050E2           SUBS     R0,R0,#+3
   \   000000EC   ECFFFF1A           BNE      ??SendStaticData_9
   \   000000F0   015085E2           ADD      R5,R5,#+1
   \                     ??SendStaticData_11:
   \   000000F4   0500A0E1           MOV      R0,R5
   \   000000F8   EAFFFFEA           B        ??SendStaticData_10
   \                     ??SendStaticData_3:
   \   000000FC   ........           DC32     SendFlashDataInProgress
    460              }
    461          #endif
    462          }
    463          
    464          
    465          

   \                                 In segment CODE, align 4, keep-with-next
    466          void PRogramObjectBase::InputTimeout(void) {
    467          }
   \                     ??InputTimeout:
   \   00000000   1EFF2FE1           BX       LR               ;; return

   \                                 In segment CODE, align 4, keep-with-next
    468          void PRogramObjectBase::StartTimer(void) {
    469          }
   \                     ??StartTimer:
   \   00000000   1EFF2FE1           BX       LR               ;; return
    470          
    471          

   \                                 In segment CODE, align 4, keep-with-next
    472          void PRogramObjectBase::SetModifiedFlag(void) {
   \                     ??SetModifiedFlag:
   \   00000000   00402DE9           PUSH     {LR}
    473              IsModified = true;
   \   00000004   0110A0E3           MOV      R1,#+1
   \   00000008   0010C0E5           STRB     R1,[R0, #+0]
    474              SignalSaveSettings(FLASH_SAVE_SETTINGS);
   \   0000000C   0100A0E3           MOV      R0,#+1
   \   00000010   ........           _BLF     ??SignalSaveSettings,??SignalSaveSettings??rA
    475          }
   \   00000014   ........           B        ??Subroutine62_0
    476          

   \                                 In segment CODE, align 4, keep-with-next
    477          unsigned PRogramObjectBase::GetMaxId(unsigned IdTypeKey) {
   \                     ??GetMaxId:
   \   00000000   F0402DE9           PUSH     {R4-R7,LR}
    478              unsigned MaxId = 0;
    479              IdTypeKey &= 0xffff0000;
    480              set<PRogramObjectBase *>::iterator pBIt;
    481              for ( pBIt = PRogramObjectBaseSet.begin(); pBIt != PRogramObjectBaseSet.end(); pBIt++ ) {
   \   00000004   ........           LDR      R7,??DataTable41  ;; ??IdMap
   \   00000008   0040A0E3           MOV      R4,#+0
   \   0000000C   FF54A0E3           MOV      R5,#-16777216
   \   00000010   FF5885E3           ORR      R5,R5,#0xFF0000
   \   00000014   006005E0           AND      R6,R5,R0
   \   00000018   180097E5           LDR      R0,[R7, #+24]
   \   0000001C   070000EA           B        ??GetMaxId_1
    482                  const PRogramObjectBase *tmpPtr = (const PRogramObjectBase *)*pBIt;
   \                     ??GetMaxId_2:
   \   00000020   101090E5           LDR      R1,[R0, #+16]
    483                  if ( (IdTypeKey == (tmpPtr->IDNumber & 0xffff0000))
    484                       && (MaxId < tmpPtr->IDNumber) ) {
   \   00000024   9C1091E5           LDR      R1,[R1, #+156]
   \   00000028   012005E0           AND      R2,R5,R1
   \   0000002C   020056E1           CMP      R6,R2
   \   00000030   0100001A           BNE      ??GetMaxId_3
   \   00000034   010054E1           CMP      R4,R1
    485                      MaxId = tmpPtr->IDNumber;
   \   00000038   0140A031           MOVCC    R4,R1
    486                  }
    487              }
   \                     ??GetMaxId_3:
   \   0000003C   ........           _BLF     ??_IncP,??_IncP??rA
   \                     ??GetMaxId_1:
   \   00000040   181087E2           ADD      R1,R7,#+24
   \   00000044   010050E1           CMP      R0,R1
   \   00000048   F4FFFF1A           BNE      ??GetMaxId_2
    488              return (MaxId);
   \   0000004C   0400A0E1           MOV      R0,R4
   \   00000050                      REQUIRE ?Subroutine68
   \   00000050                      ;; // Fall through to label ?Subroutine68
    489          }
    490          

   \                                 In segment CODE, align 4, keep-with-next
    491          int PRogramObjectBase::CorrectIds(void) {
   \                     ??CorrectIds:
   \   00000000   F0402DE9           PUSH     {R4-R7,LR}
   \   00000004   24D04DE2           SUB      SP,SP,#+36
    492              int Errors = 0;
    493              set<int>IDNumbers;
   \   00000008   0110A0E3           MOV      R1,#+1
    494              set<PRogramObjectBase *>::iterator pBIt;
    495              for ( pBIt = PRogramObjectBaseSet.begin(); pBIt != PRogramObjectBaseSet.end(); pBIt++ ) {
   \   0000000C   ........           LDR      R5,??DataTable41  ;; ??IdMap
   \   00000010   0D00A0E1           MOV      R0,SP
   \   00000014   ........           _BLF     __data_memzero,??__data_memzero??rA
   \   00000018   0C008DE2           ADD      R0,SP,#+12
   \   0000001C   ........           _BLF     ??_Clear,??_Clear??rA
   \   00000020   0010DDE5           LDRB     R1,[SP, #+0]
   \   00000024   0040A0E3           MOV      R4,#+0
   \   00000028   2010CDE5           STRB     R1,[SP, #+32]
   \   0000002C   186095E5           LDR      R6,[R5, #+24]
   \   00000030   140000EA           B        ??CorrectIds_1
    496                  PRogramObjectBase *tmpPtr = *pBIt;
   \                     ??CorrectIds_2:
   \   00000034   107096E5           LDR      R7,[R6, #+16]
    497                  pair<set<int>::iterator, bool> pr;
    498                  // Should not be required to loop here!
    499                  //int Cnt=0;
    500                  pr = IDNumbers.insert(tmpPtr->IDNumber);
   \   00000038   0C108DE2           ADD      R1,SP,#+12
   \   0000003C   9C2097E5           LDR      R2,[R7, #+156]
   \   00000040   04008DE2           ADD      R0,SP,#+4
   \   00000044   ........           _BLF     ??insert_2,??insert??rA_2
    501                  if ( !pr.second ) {
   \   00000048   0800DDE5           LDRB     R0,[SP, #+8]
   \   0000004C   000050E3           CMP      R0,#+0
   \   00000050   0900001A           BNE      ??CorrectIds_3
    502                      int NewId       = GetMaxId(*pr.first) + 1;
   \   00000054   04009DE5           LDR      R0,[SP, #+4]
    503                      tmpPtr->IDNumber = NewId;
    504                      // Try with the new Id
    505                      pr = IDNumbers.insert(tmpPtr->IDNumber);
    506                      Errors++;
   \   00000058   014084E2           ADD      R4,R4,#+1
   \   0000005C   100090E5           LDR      R0,[R0, #+16]
   \   00000060   ........           BL       ??GetMaxId
   \   00000064   010080E2           ADD      R0,R0,#+1
   \   00000068   9C0087E5           STR      R0,[R7, #+156]
   \   0000006C   0020A0E1           MOV      R2,R0
   \   00000070   0C108DE2           ADD      R1,SP,#+12
   \   00000074   04008DE2           ADD      R0,SP,#+4
   \   00000078   ........           _BLF     ??insert_2,??insert??rA_2
    507                  }
    508              }
   \                     ??CorrectIds_3:
   \   0000007C   0600A0E1           MOV      R0,R6
   \   00000080   ........           _BLF     ??_IncP,??_IncP??rA
   \   00000084   0060A0E1           MOV      R6,R0
   \                     ??CorrectIds_1:
   \   00000088   180085E2           ADD      R0,R5,#+24
   \   0000008C   000056E1           CMP      R6,R0
   \   00000090   E7FFFF1A           BNE      ??CorrectIds_2
    509              return (Errors);
   \   00000094   10109DE5           LDR      R1,[SP, #+16]
   \   00000098   0C008DE2           ADD      R0,SP,#+12
   \   0000009C   ........           _BLF     ??_Erase_1,??_Erase??rA_4
   \   000000A0   0C008DE2           ADD      R0,SP,#+12
   \   000000A4   ........           _BLF     ??_Clear,??_Clear??rA
   \   000000A8   0400A0E1           MOV      R0,R4
   \   000000AC   24D08DE2           ADD      SP,SP,#+36
   \   000000B0   ........           B        ?Subroutine68
    510          }
    511          

   \                                 In segment CODE, align 4, keep-with-next
    512          void PRogramObjectBase::InitObjTable(void) {
   \                     ??InitObjTable:
   \   00000000   10402DE9           PUSH     {R4,LR}
    513              PRogramObjectBaseSet.clear();
   \   00000004   ........           LDR      R4,??DataTable36  ;; ??IdMap
   \   00000008   180084E2           ADD      R0,R4,#+24
   \   0000000C   ........           _BLF     ??clear_1,??clear??rA_1
    514              IdMap.clear();
   \   00000010   0400A0E1           MOV      R0,R4
   \   00000014   ........           _BLF     ??clear_2,??clear??rA_2
    515          
    516          }
   \   00000018                      REQUIRE ?Subroutine66
   \   00000018                      ;; // Fall through to label ?Subroutine66

   \                                 In segment CODE, align 4, keep-with-next
   \                     ?Subroutine66:
   \   00000000   1040BDE8           POP      {R4,LR}
   \   00000004   1EFF2FE1           BX       LR               ;; return
    517          

   \                                 In segment CODE, align 4, keep-with-next
    518          pair_struct PRogramObjectBase::InsertInMap(void) {
   \                     ??InsertInMap:
   \   00000000   10402DE9           PUSH     {R4,LR}
   \   00000004   18D04DE2           SUB      SP,SP,#+24
    519              pair_struct RetStruct;
    520              pair<map<int, PRogramObjectBase *>::iterator, bool> Ret;
    521          
    522              Ret = IdMap.insert(pair<int, PRogramObjectBase *>(IDNumber, this));
   \   00000008   9C2091E5           LDR      R2,[R1, #+156]
   \   0000000C   04108DE5           STR      R1,[SP, #+4]
   \   00000010   ........           LDR      R1,??DataTable36  ;; ??IdMap
   \   00000014   0040A0E1           MOV      R4,R0
   \   00000018   00208DE5           STR      R2,[SP, #+0]
   \   0000001C   0D20A0E1           MOV      R2,SP
   \   00000020   10008DE2           ADD      R0,SP,#+16
   \   00000024   ........           _BLF     ??insert_3,??insert??rA_3
    523              RetStruct.Inserted = Ret.second;
   \   00000028   1410DDE5           LDRB     R1,[SP, #+20]
    524              RetStruct.Ptr      = Ret.first->second;
    525              return RetStruct;
   \   0000002C   08008DE2           ADD      R0,SP,#+8
   \   00000030   0810CDE5           STRB     R1,[SP, #+8]
   \   00000034   10109DE5           LDR      R1,[SP, #+16]
   \   00000038   141091E5           LDR      R1,[R1, #+20]
   \   0000003C   0C108DE5           STR      R1,[SP, #+12]
   \   00000040   030090E8           LDM      R0,{R0,R1}
   \   00000044   030084E8           STM      R4,{R0,R1}
   \   00000048   0400A0E1           MOV      R0,R4
   \   0000004C   18D08DE2           ADD      SP,SP,#+24
   \   00000050   ........           B        ?Subroutine66
    526          }
    527          

   \                                 In segment CODE, align 4, keep-with-next
    528          void PRogramObjectBase::InitMap(void) {
   \                     ??InitMap:
   \   00000000   F0472DE9           PUSH     {R4-R10,LR}
    529              int Cnt = 0;
    530              set<PRogramObjectBase *>::iterator pBIt;
    531              for ( pBIt = PRogramObjectBaseSet.begin(); pBIt != PRogramObjectBaseSet.end(); pBIt++ ) {
   \   00000004   ........           LDR      R5,??DataTable41  ;; ??IdMap
   \   00000008   20749FE5           LDR      R7,??InitMap_1+0x8  ;; `?<Constant "Object types are: [">`
   \   0000000C   9CDF4DE2           SUB      SP,SP,#+624
   \   00000010   184095E5           LDR      R4,[R5, #+24]
   \   00000014   0060A0E3           MOV      R6,#+0
   \   00000018   AAAF8FE2           ADR      R10,??InitMap_2  ;; "0"
   \   0000001C   9A0000EA           B        ??InitMap_3
    532                  pair_struct RetStruct = (*pBIt)->InsertInMap();
    533                  Cnt++;
    534          		if ( !RetStruct.Inserted ) {
    535                      AnsiString WarningStr;
    536                      AnsiString IdNumStr;
    537                      AnsiString LineNumStr;
    538                      PRogramObjectBase *ConflictPtr = FindObject((*pBIt)->IDNumber);
    539          			IdNumStr.cat_sprintf("Cnt %i %i (0x%0x)", Cnt, (*pBIt)->IDNumber, (*pBIt)->IDNumber);
    540                      LineNumStr.cat_sprintf(" Line numbers: %i and %i", ConflictPtr->GetLineNumber(), (*pBIt)->GetLineNumber());
    541          
    542                      if ( (*pBIt)->Name == "0" && RetStruct.Ptr->Name == "0" ) {
    543                          WarningStr = "Objects have no name. Double entry of ID: " + IdNumStr + LineNumStr;
    544                      } else {
    545                          WarningStr = "Object names: [" + (*pBIt)->Name + "][" + RetStruct.Ptr->Name + "] Double entry of ID: " + IdNumStr + LineNumStr;
   \                     ??InitMap_4:
   \   00000020   100094E5           LDR      R0,[R4, #+16]
   \   00000024   2C1087E2           ADD      R1,R7,#+44
   \   00000028   442080E2           ADD      R2,R0,#+68
   \   0000002C   08008DE2           ADD      R0,SP,#+8
   \   00000030   ........           _BLF     `??operator+_1`,`??operator+??rA_1`
   \   00000034   0820A0E1           MOV      R2,R8
   \   00000038   08108DE2           ADD      R1,SP,#+8
   \   0000003C   24008DE2           ADD      R0,SP,#+36
   \   00000040   ........           _BLF     `??operator+_2`,`??operator+??rA_2`
   \   00000044   442089E2           ADD      R2,R9,#+68
   \   00000048   24108DE2           ADD      R1,SP,#+36
   \   0000004C   40008DE2           ADD      R0,SP,#+64
   \   00000050   ........           _BLF     `??operator+`,`??operator+??rA`
   \   00000054   142087E2           ADD      R2,R7,#+20
   \   00000058   40108DE2           ADD      R1,SP,#+64
   \   0000005C   94008DE2           ADD      R0,SP,#+148
   \   00000060   ........           _BLF     `??operator+_2`,`??operator+??rA_2`
   \   00000064   6B2F8DE2           ADD      R2,SP,#+428
   \   00000068   94108DE2           ADD      R1,SP,#+148
   \   0000006C   78008DE2           ADD      R0,SP,#+120
   \   00000070   ........           _BLF     `??operator+`,`??operator+??rA`
   \   00000074   722F8DE2           ADD      R2,SP,#+456
   \   00000078   78108DE2           ADD      R1,SP,#+120
   \   0000007C   5C008DE2           ADD      R0,SP,#+92
   \   00000080   ........           _BLF     `??operator+`,`??operator+??rA`
   \   00000084   5C108DE2           ADD      R1,SP,#+92
   \   00000088   800F8DE2           ADD      R0,SP,#+512
   \   0000008C   ........           _BLF     ??AnsiString_3,??AnsiString??rA_3
   \   00000090   ........           LDR      R1,??DataTable35  ;; ??npos
   \   00000094   0020A0E3           MOV      R2,#+0
   \   00000098   003091E5           LDR      R3,[R1, #+0]
   \   0000009C   0010A0E1           MOV      R1,R0
   \   000000A0   640F8DE2           ADD      R0,SP,#+400
   \   000000A4   ........           _BLF     ??assign,??assign??rA
   \   000000A8   0020A0E3           MOV      R2,#+0
   \   000000AC   0110A0E3           MOV      R1,#+1
   \   000000B0   800F8DE2           ADD      R0,SP,#+512
   \   000000B4   ........           _BLF     ??_Tidy_1,??_Tidy??rA
   \   000000B8   0020A0E3           MOV      R2,#+0
   \   000000BC   0110A0E3           MOV      R1,#+1
   \   000000C0   5C008DE2           ADD      R0,SP,#+92
   \   000000C4   ........           _BLF     ??_Tidy_1,??_Tidy??rA
   \   000000C8   0020A0E3           MOV      R2,#+0
   \   000000CC   0110A0E3           MOV      R1,#+1
   \   000000D0   78008DE2           ADD      R0,SP,#+120
   \   000000D4   ........           _BLF     ??_Tidy_1,??_Tidy??rA
   \   000000D8   0020A0E3           MOV      R2,#+0
   \   000000DC   0110A0E3           MOV      R1,#+1
   \   000000E0   94008DE2           ADD      R0,SP,#+148
   \   000000E4   ........           _BLF     ??_Tidy_1,??_Tidy??rA
   \   000000E8   0020A0E3           MOV      R2,#+0
   \   000000EC   0110A0E3           MOV      R1,#+1
   \   000000F0   40008DE2           ADD      R0,SP,#+64
   \   000000F4   ........           _BLF     ??_Tidy_1,??_Tidy??rA
   \   000000F8   0020A0E3           MOV      R2,#+0
   \   000000FC   0110A0E3           MOV      R1,#+1
   \   00000100   24008DE2           ADD      R0,SP,#+36
   \   00000104   ........           _BLF     ??_Tidy_1,??_Tidy??rA
   \   00000108   0020A0E3           MOV      R2,#+0
   \   0000010C   0110A0E3           MOV      R1,#+1
   \   00000110   08008DE2           ADD      R0,SP,#+8
   \                     ??InitMap_5:
   \   00000114   ........           _BLF     ??_Tidy_1,??_Tidy??rA
    546          
    547          			}
    548                      AnsiString ObjectTypes = "Object types are: [" + KeyWord((*pBIt)->Type) + "][" + KeyWord(RetStruct.Ptr->Type) + "]";
   \   00000118   A01099E5           LDR      R1,[R9, #+160]
   \   0000011C   4F0F8DE2           ADD      R0,SP,#+316
   \   00000120   ........           _BLF     ??KeyWord,??KeyWord??rA
   \   00000124   100094E5           LDR      R0,[R4, #+16]
   \   00000128   A01090E5           LDR      R1,[R0, #+160]
   \   0000012C   480F8DE2           ADD      R0,SP,#+288
   \   00000130   ........           _BLF     ??KeyWord,??KeyWord??rA
   \   00000134   482F8DE2           ADD      R2,SP,#+288
   \   00000138   0710A0E1           MOV      R1,R7
   \   0000013C   410F8DE2           ADD      R0,SP,#+260
   \   00000140   ........           _BLF     `??operator+_1`,`??operator+??rA_1`
   \   00000144   0820A0E1           MOV      R2,R8
   \   00000148   411F8DE2           ADD      R1,SP,#+260
   \   0000014C   E8008DE2           ADD      R0,SP,#+232
   \   00000150   ........           _BLF     `??operator+_2`,`??operator+??rA_2`
   \   00000154   4F2F8DE2           ADD      R2,SP,#+316
   \   00000158   E8108DE2           ADD      R1,SP,#+232
   \   0000015C   CC008DE2           ADD      R0,SP,#+204
   \   00000160   ........           _BLF     `??operator+`,`??operator+??rA`
   \   00000164   AF2F8FE2           ADR      R2,??InitMap_1   ;; "]"
   \   00000168   CC108DE2           ADD      R1,SP,#+204
   \   0000016C   B0008DE2           ADD      R0,SP,#+176
   \   00000170   ........           _BLF     `??operator+_2`,`??operator+??rA_2`
   \   00000174   B0108DE2           ADD      R1,SP,#+176
   \   00000178   790F8DE2           ADD      R0,SP,#+484
   \   0000017C   ........           _BLF     ??AnsiString_3,??AnsiString??rA_3
   \   00000180   0020A0E3           MOV      R2,#+0
   \   00000184   0110A0E3           MOV      R1,#+1
   \   00000188   B0008DE2           ADD      R0,SP,#+176
   \   0000018C   ........           _BLF     ??_Tidy_1,??_Tidy??rA
   \   00000190   0020A0E3           MOV      R2,#+0
   \   00000194   0110A0E3           MOV      R1,#+1
   \   00000198   CC008DE2           ADD      R0,SP,#+204
   \   0000019C   ........           _BLF     ??_Tidy_1,??_Tidy??rA
   \   000001A0   0020A0E3           MOV      R2,#+0
   \   000001A4   0110A0E3           MOV      R1,#+1
   \   000001A8   4F0F8DE2           ADD      R0,SP,#+316
   \   000001AC   ........           _BLF     ??_Tidy_1,??_Tidy??rA
   \   000001B0   0020A0E3           MOV      R2,#+0
   \   000001B4   0110A0E3           MOV      R1,#+1
   \   000001B8   E8008DE2           ADD      R0,SP,#+232
   \   000001BC   ........           _BLF     ??_Tidy_1,??_Tidy??rA
   \   000001C0   0020A0E3           MOV      R2,#+0
   \   000001C4   0110A0E3           MOV      R1,#+1
   \   000001C8   410F8DE2           ADD      R0,SP,#+260
   \   000001CC   ........           _BLF     ??_Tidy_1,??_Tidy??rA
   \   000001D0   0020A0E3           MOV      R2,#+0
   \   000001D4   0110A0E3           MOV      R1,#+1
   \   000001D8   480F8DE2           ADD      R0,SP,#+288
   \   000001DC   ........           _BLF     ??_Tidy_1,??_Tidy??rA
    549                      GiveConfigWarning(WarningStr + CrLfStr + ObjectTypes);
   \   000001E0   ........           LDR      R2,??DataTable34  ;; CrLfStr
   \   000001E4   641F8DE2           ADD      R1,SP,#+400
   \   000001E8   5D0F8DE2           ADD      R0,SP,#+372
   \   000001EC   ........           _BLF     `??operator+`,`??operator+??rA`
   \   000001F0   792F8DE2           ADD      R2,SP,#+484
   \   000001F4   5D1F8DE2           ADD      R1,SP,#+372
   \   000001F8   560F8DE2           ADD      R0,SP,#+344
   \   000001FC   ........           _BLF     `??operator+`,`??operator+??rA`
   \   00000200   561F8DE2           ADD      R1,SP,#+344
   \   00000204   950F8DE2           ADD      R0,SP,#+596
   \   00000208   ........           _BLF     ??AnsiString_3,??AnsiString??rA_3
   \   0000020C   ........           _BLF     ??GiveConfigWarning_2,??GiveConfigWarning??rA_2
   \   00000210   0020A0E3           MOV      R2,#+0
   \   00000214   0110A0E3           MOV      R1,#+1
   \   00000218   950F8DE2           ADD      R0,SP,#+596
   \   0000021C   ........           _BLF     ??_Tidy_1,??_Tidy??rA
   \   00000220   0020A0E3           MOV      R2,#+0
   \   00000224   0110A0E3           MOV      R1,#+1
   \   00000228   560F8DE2           ADD      R0,SP,#+344
   \   0000022C   ........           _BLF     ??_Tidy_1,??_Tidy??rA
   \   00000230   0020A0E3           MOV      R2,#+0
   \   00000234   0110A0E3           MOV      R1,#+1
   \   00000238   5D0F8DE2           ADD      R0,SP,#+372
   \   0000023C   ........           _BLF     ??_Tidy_1,??_Tidy??rA
    550                  }
   \   00000240   0020A0E3           MOV      R2,#+0
   \   00000244   0110A0E3           MOV      R1,#+1
   \   00000248   790F8DE2           ADD      R0,SP,#+484
   \   0000024C   ........           _BLF     ??_Tidy_1,??_Tidy??rA
   \   00000250   0020A0E3           MOV      R2,#+0
   \   00000254   0110A0E3           MOV      R1,#+1
   \   00000258   720F8DE2           ADD      R0,SP,#+456
   \   0000025C   ........           _BLF     ??_Tidy_1,??_Tidy??rA
   \   00000260   0020A0E3           MOV      R2,#+0
   \   00000264   0110A0E3           MOV      R1,#+1
   \   00000268   6B0F8DE2           ADD      R0,SP,#+428
   \   0000026C   ........           _BLF     ??_Tidy_1,??_Tidy??rA
   \   00000270   0020A0E3           MOV      R2,#+0
   \   00000274   0110A0E3           MOV      R1,#+1
   \   00000278   640F8DE2           ADD      R0,SP,#+400
   \   0000027C   ........           _BLF     ??_Tidy_1,??_Tidy??rA
   \                     ??InitMap_6:
   \   00000280   0400A0E1           MOV      R0,R4
   \   00000284   ........           _BLF     ??_IncP,??_IncP??rA
   \   00000288   0040A0E1           MOV      R4,R0
   \                     ??InitMap_3:
   \   0000028C   180085E2           ADD      R0,R5,#+24
   \   00000290   000054E1           CMP      R4,R0
   \   00000294   0C00001A           BNE      ??InitMap_7
    551              }
    552          	DataTransferSet = PRogramObjectBaseSet;
   \   00000298   480085E2           ADD      R0,R5,#+72
   \   0000029C   181085E2           ADD      R1,R5,#+24
   \   000002A0   010050E1           CMP      R0,R1
   \   000002A4   0500000A           BEQ      ??InitMap_8
   \   000002A8   481095E5           LDR      R1,[R5, #+72]
   \   000002AC   482085E2           ADD      R2,R5,#+72
   \   000002B0   ........           _BLF     ??erase_1,??erase??rA
   \   000002B4   181085E2           ADD      R1,R5,#+24
   \   000002B8   480085E2           ADD      R0,R5,#+72
   \   000002BC   ........           _BLF     ??_Copy_1,??_Copy??rA_3
    553          #ifdef ANWIN
    554          	MainForm->StaticDataAdvProgress->Max = DataTransferSet.size();
    555          #endif
    556          }
   \                     ??InitMap_8:
   \   000002C0   9CDF8DE2           ADD      SP,SP,#+624
   \   000002C4   ........           B        ?Subroutine70
   \                     ??InitMap_2:
   \   000002C8   30000000           DC8      "0",+0,+0
   \                     ??InitMap_7:
   \   000002CC   101094E5           LDR      R1,[R4, #+16]
   \   000002D0   0D00A0E1           MOV      R0,SP
   \   000002D4   ........           BL       ??InsertInMap
   \   000002D8   0000DDE5           LDRB     R0,[SP, #+0]
   \   000002DC   016086E2           ADD      R6,R6,#+1
   \   000002E0   000050E3           CMP      R0,#+0
   \   000002E4   E5FFFF1A           BNE      ??InitMap_6
   \   000002E8   640F8DE2           ADD      R0,SP,#+400
   \   000002EC   ........           _BLF     ??AnsiString,??AnsiString??rA
   \   000002F0   6B0F8DE2           ADD      R0,SP,#+428
   \   000002F4   ........           _BLF     ??AnsiString,??AnsiString??rA
   \   000002F8   720F8DE2           ADD      R0,SP,#+456
   \   000002FC   ........           _BLF     ??AnsiString,??AnsiString??rA
   \   00000300   100094E5           LDR      R0,[R4, #+16]
   \   00000304   9C0090E5           LDR      R0,[R0, #+156]
   \   00000308   ........           BL       ??FindObject
   \   0000030C   0080A0E1           MOV      R8,R0
   \   00000310   100094E5           LDR      R0,[R4, #+16]
   \   00000314   0630A0E1           MOV      R3,R6
   \   00000318   9C0090E5           LDR      R0,[R0, #+156]
   \   0000031C   842087E2           ADD      R2,R7,#+132
   \   00000320   01002DE9           PUSH     {R0}
   \   00000324   100094E5           LDR      R0,[R4, #+16]
   \   00000328   9C0090E5           LDR      R0,[R0, #+156]
   \   0000032C   01002DE9           PUSH     {R0}
   \   00000330   891F8DE2           ADD      R1,SP,#+548
   \   00000334   6D0F8DE2           ADD      R0,SP,#+436
   \   00000338   ........           _BLF     ??cat_sprintf,??cat_sprintf??rA
   \   0000033C   0020A0E3           MOV      R2,#+0
   \   00000340   0110A0E3           MOV      R1,#+1
   \   00000344   890F8DE2           ADD      R0,SP,#+548
   \   00000348   ........           _BLF     ??_Tidy_1,??_Tidy??rA
   \   0000034C   100094E5           LDR      R0,[R4, #+16]
   \   00000350   682087E2           ADD      R2,R7,#+104
   \   00000354   040090E5           LDR      R0,[R0, #+4]
   \   00000358   01002DE9           PUSH     {R0}
   \   0000035C   043098E5           LDR      R3,[R8, #+4]
   \   00000360   911F8DE2           ADD      R1,SP,#+580
   \   00000364   750F8DE2           ADD      R0,SP,#+468
   \   00000368   ........           _BLF     ??cat_sprintf,??cat_sprintf??rA
   \   0000036C   0020A0E3           MOV      R2,#+0
   \   00000370   0110A0E3           MOV      R1,#+1
   \   00000374   910F8DE2           ADD      R0,SP,#+580
   \   00000378   ........           _BLF     ??_Tidy_1,??_Tidy??rA
   \   0000037C   100094E5           LDR      R0,[R4, #+16]
   \   00000380   10909DE5           LDR      R9,[SP, #+16]
   \   00000384   288F8FE2           ADR      R8,??InitMap_1+0x4  ;; "]["
   \   00000388   0A10A0E1           MOV      R1,R10
   \   0000038C   440080E2           ADD      R0,R0,#+68
   \   00000390   ........           _BLF     `??operator==`,`??operator==??rA`
   \   00000394   000050E3           CMP      R0,#+0
   \   00000398   0CD08DE2           ADD      SP,SP,#+12
   \   0000039C   1FFFFF0A           BEQ      ??InitMap_4
   \   000003A0   0A10A0E1           MOV      R1,R10
   \   000003A4   440089E2           ADD      R0,R9,#+68
   \   000003A8   ........           _BLF     `??operator==`,`??operator==??rA`
   \   000003AC   000050E3           CMP      R0,#+0
   \   000003B0   1AFFFF0A           BEQ      ??InitMap_4
   \   000003B4   6B2F8DE2           ADD      R2,SP,#+428
   \   000003B8   3C1087E2           ADD      R1,R7,#+60
   \   000003BC   40008DE2           ADD      R0,SP,#+64
   \   000003C0   ........           _BLF     `??operator+_1`,`??operator+??rA_1`
   \   000003C4   722F8DE2           ADD      R2,SP,#+456
   \   000003C8   40108DE2           ADD      R1,SP,#+64
   \   000003CC   24008DE2           ADD      R0,SP,#+36
   \   000003D0   ........           _BLF     `??operator+`,`??operator+??rA`
   \   000003D4   24108DE2           ADD      R1,SP,#+36
   \   000003D8   08008DE2           ADD      R0,SP,#+8
   \   000003DC   ........           _BLF     ??AnsiString_3,??AnsiString??rA_3
   \   000003E0   0010A0E1           MOV      R1,R0
   \   000003E4   ........           LDR      R0,??DataTable35  ;; ??npos
   \   000003E8   0020A0E3           MOV      R2,#+0
   \   000003EC   003090E5           LDR      R3,[R0, #+0]
   \   000003F0   640F8DE2           ADD      R0,SP,#+400
   \   000003F4   ........           _BLF     ??assign,??assign??rA
   \   000003F8   0020A0E3           MOV      R2,#+0
   \   000003FC   0110A0E3           MOV      R1,#+1
   \   00000400   08008DE2           ADD      R0,SP,#+8
   \   00000404   ........           _BLF     ??_Tidy_1,??_Tidy??rA
   \   00000408   0020A0E3           MOV      R2,#+0
   \   0000040C   0110A0E3           MOV      R1,#+1
   \   00000410   24008DE2           ADD      R0,SP,#+36
   \   00000414   ........           _BLF     ??_Tidy_1,??_Tidy??rA
   \   00000418   0020A0E3           MOV      R2,#+0
   \   0000041C   0110A0E3           MOV      R1,#+1
   \   00000420   40008DE2           ADD      R0,SP,#+64
   \   00000424   3AFFFFEA           B        ??InitMap_5
   \                     ??InitMap_1:
   \   00000428   5D000000           DC8      "]",+0,+0
   \   0000042C   5D5B0000           DC8      "][",+0
   \   00000430   ........           DC32     `?<Constant "Object types are: [">`
    557          

   \                                 In segment CODE, align 4, keep-with-next
    558          PRogramObjectBase* PRogramObjectBase::FindObject(int IdNum) {
   \                     ??FindObject:
   \   00000000   10402DE9           PUSH     {R4,LR}
    559              map<int, PRogramObjectBase *>::iterator ObjMapIterator;
    560              ObjMapIterator = IdMap.find(IdNum);
   \   00000004   ........           LDR      R4,??DataTable36  ;; ??IdMap
   \   00000008   0010A0E1           MOV      R1,R0
   \   0000000C   0400A0E1           MOV      R0,R4
   \   00000010   ........           _BLF     ??find_2,??find??rA_1
    561              PRogramObjectBase *ObjPtr;
    562              if ( ObjMapIterator != IdMap.end() ) {
   \   00000014   040050E1           CMP      R0,R4
    563                  ObjPtr = ObjMapIterator->second;
    564              } else {
    565                  ObjPtr = NULL;
   \   00000018   14009015           LDRNE    R0,[R0, #+20]
    566              }
    567              return (ObjPtr);
   \   0000001C   1040BDE8           POP      {R4,LR}
   \   00000020   0000A003           MOVEQ    R0,#+0
   \   00000024   1EFF2FE1           BX       LR               ;; return
    568          }
    569          

   \                                 In segment CODE, align 4, keep-with-next
    570          bool PRogramObjectBase::CheckReadPermissionSet(unsigned IdNum) {
   \                     ??CheckReadPermissionSet:
   \   00000000   30402DE9           PUSH     {R4,R5,LR}
   \   00000004   0040A0E1           MOV      R4,R0
    571              bool IsFound = false;
    572              if ( WritePermissionSet.empty() ) {
   \   00000008   300094E5           LDR      R0,[R4, #+48]
   \   0000000C   0050A0E3           MOV      R5,#+0
   \   00000010   000050E3           CMP      R0,#+0
   \   00000014   0400000A           BEQ      ??CheckReadPermissionSet_1
    573                  IsFound = true;
    574              } else {
    575                  set<unsigned>::iterator pBIt;
    576                  pBIt = ReadPermissionSet.find(IdNum);
   \   00000018   080084E2           ADD      R0,R4,#+8
   \   0000001C   ........           _BLF     ??find,??find??rA_2
    577                  if ( pBIt != ReadPermissionSet.end() ) {
   \   00000020   081084E2           ADD      R1,R4,#+8
   \   00000024   010050E1           CMP      R0,R1
   \   00000028   0000000A           BEQ      ??CheckReadPermissionSet_2
    578                      IsFound = true;
   \                     ??CheckReadPermissionSet_1:
   \   0000002C   0150A0E3           MOV      R5,#+1
    579                  }
    580              }
    581              return (IsFound);
   \                     ??CheckReadPermissionSet_2:
   \   00000030                      REQUIRE ?Subroutine63
   \   00000030                      ;; // Fall through to label ?Subroutine63
    582          
    583          }

   \                                 In segment CODE, align 4, keep-with-next
    584          bool PRogramObjectBase::ReadPermission(unsigned IdNum) {
    585              bool IsFound = false;
    586              if ( Master || ReadPermissionSet.empty() ) {
   \                     ??ReadPermission:
   \   00000000   ........           LDR      R2,??DataTable39  ;; Master
   \   00000004   00402DE9           PUSH     {LR}
   \   00000008   0020D2E5           LDRB     R2,[R2, #+0]
   \   0000000C   000052E3           CMP      R2,#+0
   \   00000010   0B00001A           BNE      ??ReadPermission_1
   \   00000014   182090E5           LDR      R2,[R0, #+24]
   \   00000018   000052E3           CMP      R2,#+0
   \   0000001C   0800000A           BEQ      ??ReadPermission_1
    587                  IsFound = true;
    588              } else if ( IdNum ) {
   \   00000020   000051E3           CMP      R1,#+0
   \   00000024   0400001A           BNE      ??ReadPermission_2
    589                  IsFound = CheckReadPermissionSet(IdNum);
    590              } else if ( PROTanksystemUnit::MySelf ) {
   \   00000028   ........           LDR      R1,??DataTable40  ;; ??MySelf
   \   0000002C   001091E5           LDR      R1,[R1, #+0]
   \   00000030   000051E3           CMP      R1,#+0
   \   00000034   0200000A           BEQ      ??ReadPermission_1
    591                  IsFound = CheckReadPermissionSet(PROTanksystemUnit::MySelf->IDNumber);
   \   00000038   9C1091E5           LDR      R1,[R1, #+156]
   \                     ??ReadPermission_2:
   \   0000003C   ........           BL       ??CheckReadPermissionSet
   \   00000040   000000EA           B        ??ReadPermission_3
    592              } else {
    593                  IsFound = true; // /* TODO -oErik -cPossible bug : Hva gjr vi her?? */
   \                     ??ReadPermission_1:
   \   00000044   0100A0E3           MOV      R0,#+1
    594              }
    595              return (IsFound);
   \                     ??ReadPermission_3:
   \   00000048   ........           B        ??Subroutine62_0
    596          }
    597          
    598          
    599          

   \                                 In segment CODE, align 4, keep-with-next
    600          bool PRogramObjectBase::CheckWritePermissionSet(unsigned IdNum) {
   \                     ??CheckWritePermissionSet:
   \   00000000   30402DE9           PUSH     {R4,R5,LR}
   \   00000004   0040A0E1           MOV      R4,R0
    601              bool IsFound = false;
    602              if ( WritePermissionSet.empty() ) {
   \   00000008   300094E5           LDR      R0,[R4, #+48]
   \   0000000C   0050A0E3           MOV      R5,#+0
   \   00000010   000050E3           CMP      R0,#+0
   \   00000014   0400000A           BEQ      ??CheckWritePermissionSet_1
    603                  IsFound = true;
    604              } else {
    605                  set<unsigned>::iterator pBIt;
    606                  pBIt = WritePermissionSet.find(IdNum);
   \   00000018   200084E2           ADD      R0,R4,#+32
   \   0000001C   ........           _BLF     ??find,??find??rA_2
    607                  if ( pBIt != WritePermissionSet.end() ) {
   \   00000020   201084E2           ADD      R1,R4,#+32
   \   00000024   010050E1           CMP      R0,R1
   \   00000028   0000000A           BEQ      ??CheckWritePermissionSet_2
    608                      IsFound = true;
   \                     ??CheckWritePermissionSet_1:
   \   0000002C   0150A0E3           MOV      R5,#+1
    609                  }
    610              }
    611              return (IsFound);
   \                     ??CheckWritePermissionSet_2:
   \   00000030   ........           B        ?Subroutine63
    612          }
    613          

   \                                 In segment CODE, align 4, keep-with-next
    614          bool PRogramObjectBase::WritePermission(unsigned IdNum) {
    615              bool IsFound = false;
    616              if ( Master || WritePermissionSet.empty()/* || !PROTanksystemUnit::MySelf*/ ) {
   \                     ??WritePermission:
   \   00000000   ........           LDR      R2,??DataTable39  ;; Master
   \   00000004   00402DE9           PUSH     {LR}
   \   00000008   0020D2E5           LDRB     R2,[R2, #+0]
   \   0000000C   000052E3           CMP      R2,#+0
   \   00000010   0B00001A           BNE      ??WritePermission_1
   \   00000014   302090E5           LDR      R2,[R0, #+48]
   \   00000018   000052E3           CMP      R2,#+0
   \   0000001C   0800000A           BEQ      ??WritePermission_1
    617                  IsFound = true;
    618              } else if ( IdNum ) {
   \   00000020   000051E3           CMP      R1,#+0
   \   00000024   0400001A           BNE      ??WritePermission_2
    619                  IsFound = CheckWritePermissionSet(IdNum);
    620              } else if ( PROTanksystemUnit::MySelf ) {
   \   00000028   ........           LDR      R1,??DataTable40  ;; ??MySelf
   \   0000002C   001091E5           LDR      R1,[R1, #+0]
   \   00000030   000051E3           CMP      R1,#+0
   \   00000034   0200000A           BEQ      ??WritePermission_1
    621                  IsFound = CheckWritePermissionSet(PROTanksystemUnit::MySelf->IDNumber);
   \   00000038   9C1091E5           LDR      R1,[R1, #+156]
   \                     ??WritePermission_2:
   \   0000003C   ........           BL       ??CheckWritePermissionSet
   \   00000040   000000EA           B        ??WritePermission_3
    622              } else {
    623                  IsFound = true;
   \                     ??WritePermission_1:
   \   00000044   0100A0E3           MOV      R0,#+1
    624              }
    625              return (IsFound);
   \                     ??WritePermission_3:
   \   00000048   ........           B        ??Subroutine62_0
    626          }
    627          

   \                                 In segment CODE, align 4, keep-with-next
    628          void PRogramObjectBase::DeleteAllObjects(void) {
   \                     ??DeleteAllObjects:
   \   00000000   30402DE9           PUSH     {R4,R5,LR}
    629              set<PRogramObjectBase *>::iterator pBIt;
    630              for ( pBIt = MySet.begin(); pBIt != MySet.end(); pBIt++ ) {
   \   00000004   ........           LDR      R4,??DataTable41  ;; ??IdMap
   \   00000008   305094E5           LDR      R5,[R4, #+48]
   \   0000000C   0B0000EA           B        ??DeleteAllObjects_1
    631                  delete (*pBIt);
   \                     ??DeleteAllObjects_2:
   \   00000010   102095E5           LDR      R2,[R5, #+16]
   \   00000014   000052E3           CMP      R2,#+0
   \   00000018   0500000A           BEQ      ??DeleteAllObjects_3
   \   0000001C   0200A0E1           MOV      R0,R2
   \   00000020   A42092E5           LDR      R2,[R2, #+164]
   \   00000024   0310A0E3           MOV      R1,#+3
   \   00000028   002092E5           LDR      R2,[R2, #+0]
   \   0000002C   0FE0A0E1           MOV      LR,PC
   \   00000030   12FF2FE1           BX       R2
    632              }
   \                     ??DeleteAllObjects_3:
   \   00000034   0500A0E1           MOV      R0,R5
   \   00000038   ........           _BLF     ??_IncP,??_IncP??rA
   \   0000003C   0050A0E1           MOV      R5,R0
   \                     ??DeleteAllObjects_1:
   \   00000040   300084E2           ADD      R0,R4,#+48
   \   00000044   000055E1           CMP      R5,R0
   \   00000048   F0FFFF1A           BNE      ??DeleteAllObjects_2
    633          }
   \   0000004C   ........           B        ??Subroutine63_0
    634          

   \                                 In segment CODE, align 4, keep-with-next
    635          void PRogramObjectBase::EraseFromVector(vector<PRogramObjectBase *> &MyVect, PRogramObjectBase *MyPtr) {
   \                     ??EraseFromVector:
   \   00000000   10402DE9           PUSH     {R4,LR}
   \   00000004   0140A0E1           MOV      R4,R1
    636              vector<PRogramObjectBase *>::iterator it;
    637              it = find(MyVect.begin(), MyVect.end(), MyPtr);
   \   00000008   041094E5           LDR      R1,[R4, #+4]
   \   0000000C   003094E5           LDR      R3,[R4, #+0]
   \   00000010   000000EA           B        ??EraseFromVector_1
   \                     ??EraseFromVector_2:
   \   00000014   043083E2           ADD      R3,R3,#+4
   \                     ??EraseFromVector_1:
   \   00000018   010053E1           CMP      R3,R1
   \   0000001C   0800000A           BEQ      ??EraseFromVector_3
   \   00000020   00C093E5           LDR      R12,[R3, #+0]
   \   00000024   02005CE1           CMP      R12,R2
   \   00000028   F9FFFF1A           BNE      ??EraseFromVector_2
    638              if ( it != MyVect.end() ) {
    639                  MyVect.erase(it);
   \   0000002C   0320A0E1           MOV      R2,R3
   \   00000030   040083E2           ADD      R0,R3,#+4
   \   00000034   ........           _BLF     _Copy_a4,??_Copy_a4??rA
   \   00000038   040094E5           LDR      R0,[R4, #+4]
   \   0000003C   040040E2           SUB      R0,R0,#+4
   \   00000040   040084E5           STR      R0,[R4, #+4]
    640              }
    641          }
   \                     ??EraseFromVector_3:
   \   00000044   ........           B        ?Subroutine66
    642          
    643          

   \                                 In segment CODE, align 4, keep-with-next
    644          unsigned PRogramObjectBase::GetIdNumber(void) {
    645              return IDNumber;
   \                     ??GetIdNumber:
   \   00000000   9C0090E5           LDR      R0,[R0, #+156]
   \   00000004   1EFF2FE1           BX       LR               ;; return
    646          }
    647          
    648          

   \                                 In segment CODE, align 4, keep-with-next
    649          void PRogramObjectBase::SetIdNumber(unsigned IDNum) {
    650              IDNumber = IDNum;
   \                     ??SetIdNumber:
   \   00000000   9C1080E5           STR      R1,[R0, #+156]
    651          }
   \   00000004   1EFF2FE1           BX       LR               ;; return
    652          

   \                                 In segment CODE, align 4, keep-with-next
    653          bool PRogramObjectBase::IsAvailableNewData(void) {
   \                     ??IsAvailableNewData:
   \   00000000   10402DE9           PUSH     {R4,LR}
   \   00000004   0040A0E1           MOV      R4,R0
    654              return bool(abs(clock() - TimeStamp)<DATA_EXPIRATION_TIME);
   \   00000008   ........           _BLF     clock,??clock??rA
   \   0000000C   401094E5           LDR      R1,[R4, #+64]
   \   00000010   1040BDE8           POP      {R4,LR}
   \   00000014   010050E0           SUBS     R0,R0,R1
   \   00000018   00006042           RSBMI    R0,R0,#+0
   \   0000001C   1010A0E3           MOV      R1,#+16
   \   00000020   9C1D81E3           ORR      R1,R1,#0x2700
   \   00000024   010050E1           CMP      R0,R1
   \   00000028   0100A0B3           MOVLT    R0,#+1
   \   0000002C   0000A0A3           MOVGE    R0,#+0
   \   00000030   1EFF2FE1           BX       LR               ;; return
    655          }
    656          
    657          

   \                                 In segment CODE, align 4, keep-with-next
    658          unsigned PRogramObjectBase::GetFirstFreeId(int ObjectType, vector<PRogramObjectBase *>ObjVector, bool ExcludeLast) {
   \                     ??GetFirstFreeId:
   \   00000000   F0412DE9           PUSH     {R4-R8,LR}
   \   00000004   24D04DE2           SUB      SP,SP,#+36
   \   00000008   0040A0E1           MOV      R4,R0
   \   0000000C   0150A0E1           MOV      R5,R1
   \   00000010   0260A0E1           MOV      R6,R2
    659              set<unsigned>IDSet;
   \   00000014   04008DE2           ADD      R0,SP,#+4
   \   00000018   ........           _BLF     ??set_1,??set??rA_1
    660              unsigned Size = ObjVector.size();
   \   0000001C   040095E5           LDR      R0,[R5, #+4]
   \   00000020   001095E5           LDR      R1,[R5, #+0]
    661              if ( ExcludeLast ) {
   \   00000024   000056E3           CMP      R6,#+0
   \   00000028   010040E0           SUB      R0,R0,R1
   \   0000002C   2071A0E1           LSR      R7,R0,#+2
   \   00000030   0900000A           BEQ      ??GetFirstFreeId_2
    662                  Size--;
   \   00000034   017047E2           SUB      R7,R7,#+1
    663              }
    664              for ( unsigned i = 0;  i < Size; i++ ) {
   \   00000038   0060A0E3           MOV      R6,#+0
   \   0000003C   060000EA           B        ??GetFirstFreeId_2
    665                  IDSet.insert(ObjVector[i]->IDNumber);
   \                     ??GetFirstFreeId_3:
   \   00000040   000095E5           LDR      R0,[R5, #+0]
   \   00000044   04108DE2           ADD      R1,SP,#+4
   \   00000048   060190E7           LDR      R0,[R0, +R6, LSL #+2]
    666              }
   \   0000004C   016086E2           ADD      R6,R6,#+1
   \   00000050   9C2090E5           LDR      R2,[R0, #+156]
   \   00000054   1C008DE2           ADD      R0,SP,#+28
   \   00000058   ........           _BLF     ??insert_1,??insert??rA_1
   \                     ??GetFirstFreeId_2:
   \   0000005C   070056E1           CMP      R6,R7
   \   00000060   F6FFFF3A           BCC      ??GetFirstFreeId_3
    667          
    668              unsigned FirstFreeId = 0;
   \   00000064   0050A0E3           MOV      R5,#+0
    669              unsigned MaxId       = (ObjectType << 16);
   \   00000068   0448A0E1           LSL      R4,R4,#+16
   \   0000006C   0460A0E1           MOV      R6,R4
    670              for ( unsigned i = 0; !FirstFreeId && i < IDSet.size(); i++ ) {
   \   00000070   0070A0E3           MOV      R7,#+0
   \   00000074   050000EA           B        ??GetFirstFreeId_4
    671                  unsigned IDNum = (ObjectType << 16) + i + 1;
    672                  set<unsigned>::iterator pBIt;
    673                  pBIt = IDSet.find(IDNum);
    674                  if ( pBIt == IDSet.end() ) {
    675                      FirstFreeId = IDNum;
    676                  } else if ( *pBIt > MaxId ) {
   \                     ??GetFirstFreeId_5:
   \   00000078   101090E5           LDR      R1,[R0, #+16]
   \   0000007C   010056E1           CMP      R6,R1
    677                      MaxId = *pBIt;
   \   00000080   0160A031           MOVCC    R6,R1
    678                  }
   \                     ??GetFirstFreeId_6:
   \   00000084   017087E2           ADD      R7,R7,#+1
   \   00000088   000055E3           CMP      R5,#+0
   \   0000008C   0D00001A           BNE      ??GetFirstFreeId_7
   \                     ??GetFirstFreeId_4:
   \   00000090   14009DE5           LDR      R0,[SP, #+20]
   \   00000094   000057E1           CMP      R7,R0
   \   00000098   0900002A           BCS      ??GetFirstFreeId_8
   \   0000009C   040087E0           ADD      R0,R7,R4
   \   000000A0   018080E2           ADD      R8,R0,#+1
   \   000000A4   0810A0E1           MOV      R1,R8
   \   000000A8   04008DE2           ADD      R0,SP,#+4
   \   000000AC   ........           _BLF     ??find,??find??rA_2
   \   000000B0   04108DE2           ADD      R1,SP,#+4
   \   000000B4   010050E1           CMP      R0,R1
   \   000000B8   EEFFFF1A           BNE      ??GetFirstFreeId_5
   \   000000BC   0850A0E1           MOV      R5,R8
   \   000000C0   EFFFFFEA           B        ??GetFirstFreeId_6
    679              }
    680              if ( !FirstFreeId ) {
    681                  FirstFreeId = MaxId + 1;
   \                     ??GetFirstFreeId_8:
   \   000000C4   015086E2           ADD      R5,R6,#+1
    682              }
    683              return (FirstFreeId);
   \                     ??GetFirstFreeId_7:
   \   000000C8   04008DE2           ADD      R0,SP,#+4
   \   000000CC   ........           _BLF     ??clear,??clear??rA
   \   000000D0   0500A0E1           MOV      R0,R5
   \   000000D4   ........           B        ?Subroutine65
    684          }
    685          

   \                                 In segment CODE, align 4, keep-with-next
    686          unsigned PRogramObjectBase::GetFirstFreeId(int ObjectType, set<PRogramObjectBase *>ObjSet, bool ExcludeLast) {
   \                     ??GetFirstFreeId_1:
   \   00000000   F0412DE9           PUSH     {R4-R8,LR}
   \   00000004   24D04DE2           SUB      SP,SP,#+36
   \   00000008   0050A0E1           MOV      R5,R0
   \   0000000C   0140A0E1           MOV      R4,R1
    687              set<unsigned>IDSet;
   \   00000010   04008DE2           ADD      R0,SP,#+4
   \   00000014   ........           _BLF     ??set_1,??set??rA_1
    688              unsigned Size = ObjSet.size();
    689              if ( ExcludeLast ) {
    690                  Size--;
    691              }
    692              set<PRogramObjectBase *>::iterator pBIt;
    693              for ( pBIt = ObjSet.begin(); pBIt != ObjSet.end(); pBIt++ ) {
   \   00000018   006094E5           LDR      R6,[R4, #+0]
   \   0000001C   070000EA           B        ??GetFirstFreeId_9
    694                  IDSet.insert((*pBIt)->IDNumber);
   \                     ??GetFirstFreeId_10:
   \   00000020   100096E5           LDR      R0,[R6, #+16]
   \   00000024   04108DE2           ADD      R1,SP,#+4
   \   00000028   9C2090E5           LDR      R2,[R0, #+156]
   \   0000002C   1C008DE2           ADD      R0,SP,#+28
   \   00000030   ........           _BLF     ??insert_1,??insert??rA_1
    695              }
   \   00000034   0600A0E1           MOV      R0,R6
   \   00000038   ........           _BLF     ??_IncP,??_IncP??rA
   \   0000003C   0060A0E1           MOV      R6,R0
   \                     ??GetFirstFreeId_9:
   \   00000040   040056E1           CMP      R6,R4
   \   00000044   F5FFFF1A           BNE      ??GetFirstFreeId_10
    696              unsigned FirstFreeId = 0;
   \   00000048   0040A0E3           MOV      R4,#+0
    697              unsigned MaxId       = (ObjectType << 16);
   \   0000004C   0558A0E1           LSL      R5,R5,#+16
   \   00000050   0560A0E1           MOV      R6,R5
    698              for ( unsigned i = 0; !FirstFreeId && i < IDSet.size(); i++ ) {
   \   00000054   0070A0E3           MOV      R7,#+0
   \   00000058   050000EA           B        ??GetFirstFreeId_11
    699                  unsigned IDNum = (ObjectType << 16) + i + 1;
    700                  set<unsigned>::iterator pBIt;
    701                  pBIt = IDSet.find(IDNum);
    702                  if ( pBIt == IDSet.end() ) {
    703                      FirstFreeId = IDNum;
    704                  } else if ( *pBIt > MaxId ) {
   \                     ??GetFirstFreeId_12:
   \   0000005C   101090E5           LDR      R1,[R0, #+16]
   \   00000060   010056E1           CMP      R6,R1
    705                      MaxId = *pBIt;
   \   00000064   0160A031           MOVCC    R6,R1
    706                  }
   \                     ??GetFirstFreeId_13:
   \   00000068   017087E2           ADD      R7,R7,#+1
   \   0000006C   000054E3           CMP      R4,#+0
   \   00000070   0D00001A           BNE      ??GetFirstFreeId_14
   \                     ??GetFirstFreeId_11:
   \   00000074   14009DE5           LDR      R0,[SP, #+20]
   \   00000078   000057E1           CMP      R7,R0
   \   0000007C   0900002A           BCS      ??GetFirstFreeId_15
   \   00000080   050087E0           ADD      R0,R7,R5
   \   00000084   018080E2           ADD      R8,R0,#+1
   \   00000088   0810A0E1           MOV      R1,R8
   \   0000008C   04008DE2           ADD      R0,SP,#+4
   \   00000090   ........           _BLF     ??find,??find??rA_2
   \   00000094   04108DE2           ADD      R1,SP,#+4
   \   00000098   010050E1           CMP      R0,R1
   \   0000009C   EEFFFF1A           BNE      ??GetFirstFreeId_12
   \   000000A0   0840A0E1           MOV      R4,R8
   \   000000A4   EFFFFFEA           B        ??GetFirstFreeId_13
    707              }
    708              if ( !FirstFreeId ) {
    709                  FirstFreeId = MaxId + 1;
   \                     ??GetFirstFreeId_15:
   \   000000A8   014086E2           ADD      R4,R6,#+1
    710              }
    711              return (FirstFreeId);
   \                     ??GetFirstFreeId_14:
   \   000000AC   04008DE2           ADD      R0,SP,#+4
   \   000000B0   ........           _BLF     ??clear,??clear??rA
   \   000000B4   0400A0E1           MOV      R0,R4
   \   000000B8                      REQUIRE ?Subroutine65
   \   000000B8                      ;; // Fall through to label ?Subroutine65
    712          }
    713          
    714          
    715          

   \                                 In segment CODE, align 4, keep-with-next
    716          void PRogramObjectBase::SetIdNumber(PRogramObjectBase *ObjPtr, int ProposedId, int ObjectType, vector<PRogramObjectBase *>ObjVector, bool CreatedFromOther) {
   \                     ??SetIdNumber_1:
   \   00000000   F0432DE9           PUSH     {R4-R9,LR}
   \   00000004   ECD04DE2           SUB      SP,SP,#+236
   \   00000008   0861DDE5           LDRB     R6,[SP, #+264]
   \   0000000C   0040A0E1           MOV      R4,R0
   \   00000010   0170A0E1           MOV      R7,R1
   \   00000014   0250A0E1           MOV      R5,R2
   \   00000018   0380A0E1           MOV      R8,R3
    717              if ( !ProposedId ) {
   \   0000001C   000057E3           CMP      R7,#+0
   \   00000020   0600001A           BNE      ??SetIdNumber_3
    718                  ObjPtr->IDNumber = (ObjectType << 16) + ObjVector.size();
   \   00000024   040098E5           LDR      R0,[R8, #+4]
   \   00000028   001098E5           LDR      R1,[R8, #+0]
   \   0000002C   010040E0           SUB      R0,R0,R1
   \   00000030   2001A0E1           LSR      R0,R0,#+2
   \   00000034   050880E0           ADD      R0,R0,R5, LSL #+16
   \   00000038   9C0084E5           STR      R0,[R4, #+156]
   \   0000003C   4E0000EA           B        ??SetIdNumber_4
    719              } else if ( (ProposedId >> 16) != ObjectType ) {
   \                     ??SetIdNumber_3:
   \   00000040   470855E1           CMP      R5,R7, ASR #+16
   \   00000044   4B00000A           BEQ      ??SetIdNumber_5
    720                  AnsiString IdNumStr;
    721                  IdNumStr.cat_sprintf("0x%0x", ProposedId);
   \   00000048   ........           LDR      R9,??DataTable43  ;; `?<Constant " don\\'t match object t...">`
   \   0000004C   7C008DE2           ADD      R0,SP,#+124
   \   00000050   ........           _BLF     ??AnsiString,??AnsiString??rA
   \   00000054   0730A0E1           MOV      R3,R7
   \   00000058   2C2089E2           ADD      R2,R9,#+44
   \   0000005C   98108DE2           ADD      R1,SP,#+152
   \   00000060   7C008DE2           ADD      R0,SP,#+124
   \   00000064   ........           _BLF     ??cat_sprintf,??cat_sprintf??rA
   \   00000068   0020A0E3           MOV      R2,#+0
   \   0000006C   0110A0E3           MOV      R1,#+1
   \   00000070   98008DE2           ADD      R0,SP,#+152
   \   00000074   ........           _BLF     ??_Tidy_1,??_Tidy??rA
    722                  ObjPtr->IDNumber = GetFirstFreeId(ObjectType, ObjVector, true);
   \   00000078   0D00A0E1           MOV      R0,SP
   \   0000007C   ........           _BLF     ??_Zero,??_Zero??rA
   \   00000080   0810A0E1           MOV      R1,R8
   \   00000084   0D00A0E1           MOV      R0,SP
   \   00000088   ........           _BLF     ??_Assign,??_Assign??rA
   \   0000008C   0120A0E3           MOV      R2,#+1
   \   00000090   0D10A0E1           MOV      R1,SP
   \   00000094   0500A0E1           MOV      R0,R5
   \   00000098   ........           BL       ??GetFirstFreeId
   \   0000009C   9C0084E5           STR      R0,[R4, #+156]
   \   000000A0   0D00A0E1           MOV      R0,SP
   \   000000A4   ........           _BLF     ??_Tidy,??_Tidy??rA_1
    723          
    724                  GiveConfigWarning((AnsiString)"Given objectId " + IdNumStr + " don't match object type " + KeyWord(ObjectType), ObjPtr->LineNumber);
   \   000000A8   0510A0E1           MOV      R1,R5
   \   000000AC   60008DE2           ADD      R0,SP,#+96
   \   000000B0   ........           _BLF     ??KeyWord,??KeyWord??rA
   \   000000B4   1C1089E2           ADD      R1,R9,#+28
   \   000000B8   D0008DE2           ADD      R0,SP,#+208
   \   000000BC   ........           _BLF     ??AnsiString_1,??AnsiString??rA_1
   \   000000C0   7C208DE2           ADD      R2,SP,#+124
   \   000000C4   0010A0E1           MOV      R1,R0
   \   000000C8   44008DE2           ADD      R0,SP,#+68
   \   000000CC   ........           _BLF     `??operator+`,`??operator+??rA`
   \   000000D0   0920A0E1           MOV      R2,R9
   \   000000D4   44108DE2           ADD      R1,SP,#+68
   \   000000D8   28008DE2           ADD      R0,SP,#+40
   \   000000DC   ........           _BLF     `??operator+_2`,`??operator+??rA_2`
   \   000000E0   60208DE2           ADD      R2,SP,#+96
   \   000000E4   28108DE2           ADD      R1,SP,#+40
   \   000000E8   0C008DE2           ADD      R0,SP,#+12
   \   000000EC   ........           _BLF     `??operator+`,`??operator+??rA`
   \   000000F0   0C108DE2           ADD      R1,SP,#+12
   \   000000F4   B4008DE2           ADD      R0,SP,#+180
   \   000000F8   ........           _BLF     ??AnsiString_3,??AnsiString??rA_3
   \   000000FC   041094E5           LDR      R1,[R4, #+4]
   \   00000100   ........           _BLF     ??GiveConfigWarning,??GiveConfigWarning??rA
   \   00000104   0020A0E3           MOV      R2,#+0
   \   00000108   0110A0E3           MOV      R1,#+1
   \   0000010C   B4008DE2           ADD      R0,SP,#+180
   \   00000110   ........           _BLF     ??_Tidy_1,??_Tidy??rA
   \   00000114   0020A0E3           MOV      R2,#+0
   \   00000118   0110A0E3           MOV      R1,#+1
   \   0000011C   0C008DE2           ADD      R0,SP,#+12
   \   00000120   ........           _BLF     ??_Tidy_1,??_Tidy??rA
   \   00000124   0020A0E3           MOV      R2,#+0
   \   00000128   0110A0E3           MOV      R1,#+1
   \   0000012C   60008DE2           ADD      R0,SP,#+96
   \   00000130   ........           _BLF     ??_Tidy_1,??_Tidy??rA
   \   00000134   0020A0E3           MOV      R2,#+0
   \   00000138   0110A0E3           MOV      R1,#+1
   \   0000013C   28008DE2           ADD      R0,SP,#+40
   \   00000140   ........           _BLF     ??_Tidy_1,??_Tidy??rA
   \   00000144   0020A0E3           MOV      R2,#+0
   \   00000148   0110A0E3           MOV      R1,#+1
   \   0000014C   44008DE2           ADD      R0,SP,#+68
   \   00000150   ........           _BLF     ??_Tidy_1,??_Tidy??rA
   \   00000154   0020A0E3           MOV      R2,#+0
   \   00000158   0110A0E3           MOV      R1,#+1
   \   0000015C   D0008DE2           ADD      R0,SP,#+208
   \   00000160   ........           _BLF     ??_Tidy_1,??_Tidy??rA
    725              } else {
   \   00000164   0020A0E3           MOV      R2,#+0
   \   00000168   0110A0E3           MOV      R1,#+1
   \   0000016C   7C008DE2           ADD      R0,SP,#+124
   \   00000170   ........           _BLF     ??_Tidy_1,??_Tidy??rA
   \   00000174   000000EA           B        ??SetIdNumber_4
    726                  ObjPtr->IDNumber = ProposedId;
   \                     ??SetIdNumber_5:
   \   00000178   9C7084E5           STR      R7,[R4, #+156]
    727              }
    728              if ( CreatedFromOther ) {
   \                     ??SetIdNumber_4:
   \   0000017C   000056E3           CMP      R6,#+0
    729                  ObjPtr->IDNumber += 0x8000; // Was 0x1000
   \   00000180   9C009415           LDRNE    R0,[R4, #+156]
   \   00000184   800C8012           ADDNE    R0,R0,#+32768
   \   00000188   9C008415           STRNE    R0,[R4, #+156]
    730              }
    731          }
   \   0000018C   ECD08DE2           ADD      SP,SP,#+236
   \   00000190                      REQUIRE ?Subroutine69
   \   00000190                      ;; // Fall through to label ?Subroutine69
    732          

   \                                 In segment CODE, align 4, keep-with-next
    733          void PRogramObjectBase::SetIdNumber(PRogramObjectBase *ObjPtr, int ProposedId, int ObjectType, set<PRogramObjectBase *>Objset, bool CreatedFromOther) {
   \                     ??SetIdNumber_2:
   \   00000000   F0432DE9           PUSH     {R4-R9,LR}
   \   00000004   F8D04DE2           SUB      SP,SP,#+248
   \   00000008   0040A0E1           MOV      R4,R0
   \   0000000C   0180A0E1           MOV      R8,R1
   \   00000010   0370A0E1           MOV      R7,R3
   \   00000014   1461DDE5           LDRB     R6,[SP, #+276]
    734              if ( !ProposedId ) {
   \   00000018   000058E3           CMP      R8,#+0
    735                  ObjPtr->IDNumber = (ObjectType << 16) + Objset.size();
   \   0000001C   10009705           LDREQ    R0,[R7, #+16]
   \   00000020   0250A0E1           MOV      R5,R2
   \   00000024   05088000           ADDEQ    R0,R0,R5, LSL #+16
   \   00000028   9C008405           STREQ    R0,[R4, #+156]
   \   0000002C   5000000A           BEQ      ??SetIdNumber_6
    736              } else if ( (ProposedId >> 16) != ObjectType ) {
   \   00000030   480855E1           CMP      R5,R8, ASR #+16
   \   00000034   4D00000A           BEQ      ??SetIdNumber_7
    737                  AnsiString IdNumStr;
    738                  IdNumStr.cat_sprintf("0x%0x", ProposedId);
   \   00000038   ........           LDR      R9,??DataTable43  ;; `?<Constant " don\\'t match object t...">`
   \   0000003C   88008DE2           ADD      R0,SP,#+136
   \   00000040   ........           _BLF     ??AnsiString,??AnsiString??rA
   \   00000044   0830A0E1           MOV      R3,R8
   \   00000048   2C2089E2           ADD      R2,R9,#+44
   \   0000004C   A4108DE2           ADD      R1,SP,#+164
   \   00000050   88008DE2           ADD      R0,SP,#+136
   \   00000054   ........           _BLF     ??cat_sprintf,??cat_sprintf??rA
   \   00000058   0020A0E3           MOV      R2,#+0
   \   0000005C   0110A0E3           MOV      R1,#+1
   \   00000060   A4008DE2           ADD      R0,SP,#+164
   \   00000064   ........           _BLF     ??_Tidy_1,??_Tidy??rA
    739          
    740                  ObjPtr->IDNumber = GetFirstFreeId(ObjectType, Objset, true);
   \   00000068   1480D7E5           LDRB     R8,[R7, #+20]
   \   0000006C   0D00A0E1           MOV      R0,SP
   \   00000070   ........           _BLF     ??_Clear,??_Clear??rA
   \   00000074   1480CDE5           STRB     R8,[SP, #+20]
   \   00000078   0710A0E1           MOV      R1,R7
   \   0000007C   0D00A0E1           MOV      R0,SP
   \   00000080   ........           _BLF     ??_Copy_1,??_Copy??rA_3
   \   00000084   0120A0E3           MOV      R2,#+1
   \   00000088   0D10A0E1           MOV      R1,SP
   \   0000008C   0500A0E1           MOV      R0,R5
   \   00000090   ........           BL       ??GetFirstFreeId_1
   \   00000094   9C0084E5           STR      R0,[R4, #+156]
   \   00000098   0D00A0E1           MOV      R0,SP
   \   0000009C   ........           _BLF     ??clear_1,??clear??rA_1
    741                  GiveConfigWarning((AnsiString)"Given objectId " + IdNumStr + " don't match object type " + KeyWord(ObjectType), ObjPtr->LineNumber);
   \   000000A0   0510A0E1           MOV      R1,R5
   \   000000A4   6C008DE2           ADD      R0,SP,#+108
   \   000000A8   ........           _BLF     ??KeyWord,??KeyWord??rA
   \   000000AC   1C1089E2           ADD      R1,R9,#+28
   \   000000B0   DC008DE2           ADD      R0,SP,#+220
   \   000000B4   ........           _BLF     ??AnsiString_1,??AnsiString??rA_1
   \   000000B8   88208DE2           ADD      R2,SP,#+136
   \   000000BC   0010A0E1           MOV      R1,R0
   \   000000C0   50008DE2           ADD      R0,SP,#+80
   \   000000C4   ........           _BLF     `??operator+`,`??operator+??rA`
   \   000000C8   0920A0E1           MOV      R2,R9
   \   000000CC   50108DE2           ADD      R1,SP,#+80
   \   000000D0   34008DE2           ADD      R0,SP,#+52
   \   000000D4   ........           _BLF     `??operator+_2`,`??operator+??rA_2`
   \   000000D8   6C208DE2           ADD      R2,SP,#+108
   \   000000DC   34108DE2           ADD      R1,SP,#+52
   \   000000E0   18008DE2           ADD      R0,SP,#+24
   \   000000E4   ........           _BLF     `??operator+`,`??operator+??rA`
   \   000000E8   18108DE2           ADD      R1,SP,#+24
   \   000000EC   C0008DE2           ADD      R0,SP,#+192
   \   000000F0   ........           _BLF     ??AnsiString_3,??AnsiString??rA_3
   \   000000F4   041094E5           LDR      R1,[R4, #+4]
   \   000000F8   ........           _BLF     ??GiveConfigWarning,??GiveConfigWarning??rA
   \   000000FC   0020A0E3           MOV      R2,#+0
   \   00000100   0110A0E3           MOV      R1,#+1
   \   00000104   C0008DE2           ADD      R0,SP,#+192
   \   00000108   ........           _BLF     ??_Tidy_1,??_Tidy??rA
   \   0000010C   0020A0E3           MOV      R2,#+0
   \   00000110   0110A0E3           MOV      R1,#+1
   \   00000114   18008DE2           ADD      R0,SP,#+24
   \   00000118   ........           _BLF     ??_Tidy_1,??_Tidy??rA
   \   0000011C   0020A0E3           MOV      R2,#+0
   \   00000120   0110A0E3           MOV      R1,#+1
   \   00000124   6C008DE2           ADD      R0,SP,#+108
   \   00000128   ........           _BLF     ??_Tidy_1,??_Tidy??rA
   \   0000012C   0020A0E3           MOV      R2,#+0
   \   00000130   0110A0E3           MOV      R1,#+1
   \   00000134   34008DE2           ADD      R0,SP,#+52
   \   00000138   ........           _BLF     ??_Tidy_1,??_Tidy??rA
   \   0000013C   0020A0E3           MOV      R2,#+0
   \   00000140   0110A0E3           MOV      R1,#+1
   \   00000144   50008DE2           ADD      R0,SP,#+80
   \   00000148   ........           _BLF     ??_Tidy_1,??_Tidy??rA
   \   0000014C   0020A0E3           MOV      R2,#+0
   \   00000150   0110A0E3           MOV      R1,#+1
   \   00000154   DC008DE2           ADD      R0,SP,#+220
   \   00000158   ........           _BLF     ??_Tidy_1,??_Tidy??rA
    742              } else {
   \   0000015C   0020A0E3           MOV      R2,#+0
   \   00000160   0110A0E3           MOV      R1,#+1
   \   00000164   88008DE2           ADD      R0,SP,#+136
   \   00000168   ........           _BLF     ??_Tidy_1,??_Tidy??rA
   \   0000016C   000000EA           B        ??SetIdNumber_6
    743                  ObjPtr->IDNumber = ProposedId;
   \                     ??SetIdNumber_7:
   \   00000170   9C8084E5           STR      R8,[R4, #+156]
    744              }
    745              if ( CreatedFromOther ) {
   \                     ??SetIdNumber_6:
   \   00000174   000056E3           CMP      R6,#+0
    746                  ObjPtr->IDNumber += 0x8000; // Was 0x1000
   \   00000178   9C009415           LDRNE    R0,[R4, #+156]
   \   0000017C   800C8012           ADDNE    R0,R0,#+32768
   \   00000180   9C008415           STRNE    R0,[R4, #+156]
    747              }
    748          }
   \   00000184   F8D08DE2           ADD      SP,SP,#+248
   \   00000188   ........           B        ?Subroutine69
    749          
    750          

   \                                 In segment CODE, align 4, keep-with-next
    751          void PRogramObjectBase::SetLineNumber(int pLineNumber) {
    752              LineNumber = pLineNumber;
   \                     ??SetLineNumber:
   \   00000000   041080E5           STR      R1,[R0, #+4]
    753          }
   \   00000004   1EFF2FE1           BX       LR               ;; return
    754          

   \                                 In segment CODE, align 4, keep-with-next
    755          int PRogramObjectBase::GetLineNumber(void) {
    756              return LineNumber;
   \                     ??GetLineNumber:
   \   00000000   040090E5           LDR      R0,[R0, #+4]
   \   00000004   1EFF2FE1           BX       LR               ;; return
    757          }
    758          
    759          

   \                                 In segment CODE, align 4, keep-with-next
    760          bool PRogramObjectBase::Compare(PRogramObjectBase *Ptr1, PRogramObjectBase *Ptr2) {
    761              if ( Ptr1 && Ptr2 ) {
   \                     ??Compare:
   \   00000000   000050E3           CMP      R0,#+0
   \   00000004   00005113           CMPNE    R1,#+0
   \   00000008   0400000A           BEQ      ??Compare_1
    762                  return Ptr1->SortNo < Ptr2->SortNo;
   \   0000000C   980090E5           LDR      R0,[R0, #+152]
   \   00000010   981091E5           LDR      R1,[R1, #+152]
   \   00000014   010050E1           CMP      R0,R1
   \   00000018   0000A0A3           MOVGE    R0,#+0
   \   0000001C   1EFF2FA1           BXGE     LR
    763              } else return true;
   \                     ??Compare_1:
   \   00000020   ........           B        ?Subroutine71
    764          }
    765          

   \                                 In segment CODE, align 4, keep-with-next
    766          void PRogramObjectBase::SetTimeStamp(void) {
   \                     ??SetTimeStamp:
   \   00000000   10402DE9           PUSH     {R4,LR}
   \   00000004   0040A0E1           MOV      R4,R0
    767              TimeStamp = clock();
   \   00000008   ........           _BLF     clock,??clock??rA
   \   0000000C   400084E5           STR      R0,[R4, #+64]
    768          }
   \   00000010   ........           B        ?Subroutine66

   \                                 In segment DATA_ID, align 1, align-sorted
   \                     `?<Initializer for WriteAll>`:
   \   00000000   01                 DC8 1

   \                                 In segment DIFUNCT, align 4, keep-with-next, root
   \   00000000                      REQUIRE ?call_ctors
   \   00000000   ........           DC32    ??__sti__routine

   \                                 In segment DATA_C, align 1, align-sorted
   \   00000000   00                 DC8 ""

   \                                 In segment DATA_C, align 4, align-sorted
   \                     `?<Constant " don\\'t match object t...">`:
   \   00000000   20646F6E2774       DC8 " don't match object type "
   \              206D61746368
   \              206F626A6563
   \              742074797065
   \              2000        
   \   0000001A   0000               DC8 0, 0
   \   0000001C   476976656E20       DC8 "Given objectId "
   \              6F626A656374
   \              49642000    
   \   0000002C   307825307800       DC8 "0x%0x"
   \   00000032   0000               DC8 0, 0

   \                                 In segment DATA_C, align 1, align-sorted
   \   00000000   5D00               DC8 "]"

   \                                 In segment DATA_C, align 4, align-sorted
   \                     `?<Constant "Object types are: [">`:
   \   00000000   4F626A656374       DC8 "Object types are: ["
   \              207479706573
   \              206172653A20
   \              5B00        
   \   00000014   5D20446F7562       DC8 "] Double entry of ID: "
   \              6C6520656E74
   \              7279206F6620
   \              49443A2000  
   \   0000002B   00                 DC8 0
   \   0000002C   4F626A656374       DC8 "Object names: ["
   \              206E616D6573
   \              3A205B00    
   \   0000003C   4F626A656374       DC8 "Objects have no name. Double entry of ID: "
   \              732068617665
   \              206E6F206E61
   \              6D652E20446F
   \              75626C652065
   \              6E747279206F
   \              662049443A20
   \              00          
   \   00000067   00                 DC8 0
   \   00000068   204C696E6520       DC8 " Line numbers: %i and %i"
   \              6E756D626572
   \              733A20256920
   \              616E64202569
   \              00          
   \   00000081   000000             DC8 0, 0, 0
   \   00000084   436E74202569       DC8 "Cnt %i %i (0x%0x)"
   \              202569202830
   \              782530782900
   \   00000096   0000               DC8 0, 0

   \                                 In segment DATA_C, align 1, align-sorted
   \   00000000   5D5B00             DC8 "]["

   \                                 In segment DATA_C, align 1, align-sorted
   \   00000000   3000               DC8 "0"

   \                                 In segment DATA_C, align 4, align-sorted
   \                     `?<Constant "PRogram object base">`:
   \   00000000   50526F677261       DC8 "PRogram object base"
   \              6D206F626A65
   \              637420626173
   \              6500        

   \                                 In segment DATA_C, align 1, align-sorted
   \   00000000   5700               DC8 "W"

   \                                 In segment DATA_C, align 1, align-sorted
   \   00000000   4100               DC8 "A"

   \                                 In segment DATA_C, align 1, align-sorted
   \   00000000   4500               DC8 "E"

   \                                 In segment DATA_C, align 1, align-sorted
   \   00000000   4C00               DC8 "L"

   \                                 In segment CODE, align 4, keep-with-next
   \   __??Code32?? __code __interwork __atpcs PRogramObjectBase &PRogramObjectBase::new PRogramObjectBase(bool)
   \                     `??new PRogramObjectBase`:
   \   00000000   10402DE9           PUSH     {R4,LR}
   \   00000004   0040A0E1           MOV      R4,R0
   \   00000008   A800A0E3           MOV      R0,#+168
   \   0000000C   ........           _BLF     `??operator new`,`??operator new??rA`
   \   00000010   000050E3           CMP      R0,#+0
   \   00000014   0100000A           BEQ      `??new PRogramObjectBase_1`
   \   00000018   0410A0E1           MOV      R1,R4
   \   0000001C   ........           BL       ??PRogramObjectBase
   \                     `??new PRogramObjectBase_1`:
   \   00000020   ........           B        ?Subroutine66

   \                                 In segment CODE, align 4, keep-with-next
   \                     ??DataTable1:
   \   00000000   30000000           DC8      "0",+0,+0

   \                                 In segment CODE, align 4, keep-with-next
   \                     ??DataTable2:
   \   00000000   ........           DC32     ??IdMap

   \                                 In segment CODE, align 4, keep-with-next
   \                     ??DataTable5:
   \   00000000   ........           DC32     ??__vtbl

   \                                 In segment CODE, align 4, keep-with-next
   \                     ??DataTable6:
   \   00000000   ........           DC32     ??IdMap

   \                                 In segment CODE, align 4, keep-with-next
   \                     ??DataTable12:
   \   00000000   ........           DC32     `?<Constant " don\\'t match object t...">` + 44

   \                                 In segment CODE, align 4, keep-with-next
   \                     ??DataTable13:
   \   00000000   ........           DC32     CrLfStr

   \                                 In segment CODE, align 4, keep-with-next
   \                     ??DataTable22:
   \   00000000   ........           DC32     ??npos

   \                                 In segment CODE, align 4, keep-with-next
   \                     ??DataTable34:
   \   00000000   ........           DC32     CrLfStr

   \                                 In segment CODE, align 4, keep-with-next
   \                     ??DataTable35:
   \   00000000   ........           DC32     ??npos

   \                                 In segment CODE, align 4, keep-with-next
   \                     ??DataTable36:
   \   00000000   ........           DC32     ??IdMap

   \                                 In segment CODE, align 4, keep-with-next
   \                     ??DataTable39:
   \   00000000   ........           DC32     Master

   \                                 In segment CODE, align 4, keep-with-next
   \                     ??DataTable40:
   \   00000000   ........           DC32     ??MySelf

   \                                 In segment CODE, align 4, keep-with-next
   \                     ??DataTable41:
   \   00000000   ........           DC32     ??IdMap

   \                                 In segment CODE, align 4, keep-with-next
   \                     ??DataTable43:
   \   00000000   ........           DC32     `?<Constant " don\\'t match object t...">`
    769          

   Maximum stack usage in bytes:

     Function                       CSTACK
     --------                       ------
     PRogramObjectBase::CheckReadPermissionSet(unsigned int)
                                       12
     PRogramObjectBase::CheckWritePermissionSet(unsigned int)
                                       12
     PRogramObjectBase::Compare(PRogramObjectBase *, PRogramObjectBase *)
                                        0
     PRogramObjectBase::ConvertFromSiUnit(char *, int, int, int)
                                       36
     PRogramObjectBase::CorrectIds()
                                       56
     PRogramObjectBase::DeleteAllObjects()
                                       12
     PRogramObjectBase::EraseFromVector(vector<PRogramObjectBase *> &, PRogramObjectBase *)
                                        8
     PRogramObjectBase::FindObject(int)
                                        8
     PRogramObjectBase::FindPROStatus(AnsiString &)
                                       36
     PRogramObjectBase::FindStatusChar(int)
                                      124
     PRogramObjectBase::GetBitValue(int, int, bool &)
                                        0
     PRogramObjectBase::GetFirstFreeId(int, set<PRogramObjectBase *>, bool)
                                       60
     PRogramObjectBase::GetFirstFreeId(int, vector<PRogramObjectBase *>, bool)
                                       60
     PRogramObjectBase::GetFloatValue(int, int, float &)
                                       20
     PRogramObjectBase::GetIdNumber()
                                        0
     PRogramObjectBase::GetLineNumber()
                                        0
     PRogramObjectBase::GetMaxId(unsigned int)
                                       20
     PRogramObjectBase::GetName()       4
     PRogramObjectBase::GetServiceValueInfoTable(int &)
                                        0
     PRogramObjectBase::GetServiceValueInfoTableStatic(int &)
                                        0
     PRogramObjectBase::GetServiceValueInfoVector()
                                        4
     PRogramObjectBase::GetStringValue(int, int, AnsiString &)
                                       44
     PRogramObjectBase::GetValue(int, int, float &, int &, int &)
                                       32
     PRogramObjectBase::GetValueIdVector(int)
                                        4
     PRogramObjectBase::GetValueInfoTable(int &, int)
                                        0
     PRogramObjectBase::GetValueInfoTableStatic(int &, int, bool)
                                        0
     PRogramObjectBase::GetValueInfoVector(int)
                                        4
     PRogramObjectBase::IdNumString()
                                       40
     PRogramObjectBase::InitMap()     668
     PRogramObjectBase::InitObjTable()
                                        8
     PRogramObjectBase::InputTimeout()
                                        0
     PRogramObjectBase::InsertInMap()
                                       32
     PRogramObjectBase::IsAvailableNewData()
                                        8
     PRogramObjectBase::LoadConfigFromFile(TSNConfigString &)
                                        0
     PRogramObjectBase::LoadConfigString(TSNConfigString &)
                                      396
     PRogramObjectBase::MakeConfigString(int)
                                      484
     PRogramObjectBase::MakeIdTableString(int)
                                       80
     PRogramObjectBase::MakeIdTableString(set<unsigned int>, int, int, int)
                                      364
     PRogramObjectBase::PRogramObjectBase(bool)
                                       88
     PRogramObjectBase::PutBitValue(int, int, bool)
                                       12
     PRogramObjectBase::PutFloatValue(int, float)
                                        0
     PRogramObjectBase::PutValue(int, int, AnsiString, bool, int *)
                                       12
     PRogramObjectBase::ReadIdTable(TSNConfigString &, int &, int)
                                       28
     PRogramObjectBase::ReadPermission(unsigned int)
                                        4
     PRogramObjectBase::ReceiveData(unsigned char *)
                                        0
     PRogramObjectBase::RestoreSettings(TSNConfigString *)
                                        0
     PRogramObjectBase::SendData(unsigned short)
                                        0
     PRogramObjectBase::SendModbusData(unsigned short, float, unsigned short)
                                       24
     PRogramObjectBase::SendStaticData()
                                       20
     PRogramObjectBase::SetIdNumber(PRogramObjectBase *, int, int, set<PRogramObjectBase *>, bool)
                                      276
     PRogramObjectBase::SetIdNumber(PRogramObjectBase *, int, int, vector<PRogramObjectBase *>, bool)
                                      264
     PRogramObjectBase::SetIdNumber(unsigned int)
                                        0
     PRogramObjectBase::SetLineNumber(int)
                                        0
     PRogramObjectBase::SetModifiedFlag()
                                        4
     PRogramObjectBase::SetTimeStamp()
                                        8
     PRogramObjectBase::StartTimer()
                                        0
     PRogramObjectBase::WriteConfigToFile(TSNConfigString &)
                                        0
     PRogramObjectBase::WritePermission(unsigned int)
                                        4
     PRogramObjectBase::new PRogramObjectBase(bool)
                                        8
     PRogramObjectBase::~PRogramObjectBase()
                                       16
     _Tree<_Tmap_traits<int, PRogramObjectBase *, less<int>, allocator<pair<int const, PRogramObjectBase *>>, false>>::_Erase(_Tree<_Tmap_traits<int, PRogramObjectBase *, less<int>, allocator<pair<int const, PRogramObjectBase *>>, false>>::_Nodeptr)
                                       16
     _Tree<_Tmap_traits<int, PRogramObjectBase *, less<int>, allocator<pair<int const, PRogramObjectBase *>>, false>>::_Insert(bool, _Tree<_Tmap_traits<int, PRogramObjectBase *, less<int>, allocator<pair<int const, PRogramObjectBase *>>, false>>::_Nodeptr, pair<int const, PRogramObjectBase *> const &)
                                       24
     _Tree<_Tmap_traits<int, PRogramObjectBase *, less<int>, allocator<pair<int const, PRogramObjectBase *>>, false>>::_Lbound(int) const
                                        0
     _Tree<_Tmap_traits<int, PRogramObjectBase *, less<int>, allocator<pair<int const, PRogramObjectBase *>>, false>>::_Ubound(int) const
                                        0
     _Tree<_Tmap_traits<int, PRogramObjectBase *, less<int>, allocator<pair<int const, PRogramObjectBase *>>, false>>::clear()
                                        8
     _Tree<_Tmap_traits<int, PRogramObjectBase *, less<int>, allocator<pair<int const, PRogramObjectBase *>>, false>>::equal_range(int)
                                       28
     _Tree<_Tmap_traits<int, PRogramObjectBase *, less<int>, allocator<pair<int const, PRogramObjectBase *>>, false>>::erase(_Tree<_Tmap_traits<int, PRogramObjectBase *, less<int>, allocator<pair<int const, PRogramObjectBase *>>, false>>::iterator, _Tree<_Tmap_traits<int, PRogramObjectBase *, less<int>, allocator<pair<int const, PRogramObjectBase *>>, false>>::iterator)
                                       20
     _Tree<_Tmap_traits<int, PRogramObjectBase *, less<int>, allocator<pair<int const, PRogramObjectBase *>>, false>>::erase(int)
                                       24
     _Tree<_Tmap_traits<int, PRogramObjectBase *, less<int>, allocator<pair<int const, PRogramObjectBase *>>, false>>::find(int)
                                       12
     _Tree<_Tmap_traits<int, PRogramObjectBase *, less<int>, allocator<pair<int const, PRogramObjectBase *>>, false>>::insert(pair<int const, PRogramObjectBase *> const &)
                                       40
     _Tree<_Tset_traits<PRogramObjectBase *, less<PRogramObjectBase *>, allocator<PRogramObjectBase *>, false>>::_Copy(_Tree<_Tset_traits<PRogramObjectBase *, less<PRogramObjectBase *>, allocator<PRogramObjectBase *>, false>> const &)
                                       12
     _Tree<_Tset_traits<PRogramObjectBase *, less<PRogramObjectBase *>, allocator<PRogramObjectBase *>, false>>::_Copy(_Tree<_Tset_traits<PRogramObjectBase *, less<PRogramObjectBase *>, allocator<PRogramObjectBase *>, false>>::_Nodeptr, _Tree<_Tset_traits<PRogramObjectBase *, less<PRogramObjectBase *>, allocator<PRogramObjectBase *>, false>>::_Nodeptr)
                                       32
     _Tree<_Tset_traits<PRogramObjectBase *, less<PRogramObjectBase *>, allocator<PRogramObjectBase *>, false>>::_Erase(_Tree<_Tset_traits<PRogramObjectBase *, less<PRogramObjectBase *>, allocator<PRogramObjectBase *>, false>>::_Nodeptr)
                                       16
     _Tree<_Tset_traits<PRogramObjectBase *, less<PRogramObjectBase *>, allocator<PRogramObjectBase *>, false>>::_Insert(bool, _Tree<_Tset_traits<PRogramObjectBase *, less<PRogramObjectBase *>, allocator<PRogramObjectBase *>, false>>::_Nodeptr, PRogramObjectBase *)
                                       24
     _Tree<_Tset_traits<PRogramObjectBase *, less<PRogramObjectBase *>, allocator<PRogramObjectBase *>, false>>::_Lbound(PRogramObjectBase *) const
                                        0
     _Tree<_Tset_traits<PRogramObjectBase *, less<PRogramObjectBase *>, allocator<PRogramObjectBase *>, false>>::_Ubound(PRogramObjectBase *) const
                                        0
     _Tree<_Tset_traits<PRogramObjectBase *, less<PRogramObjectBase *>, allocator<PRogramObjectBase *>, false>>::clear()
                                        8
     _Tree<_Tset_traits<PRogramObjectBase *, less<PRogramObjectBase *>, allocator<PRogramObjectBase *>, false>>::equal_range(PRogramObjectBase *)
                                       28
     _Tree<_Tset_traits<PRogramObjectBase *, less<PRogramObjectBase *>, allocator<PRogramObjectBase *>, false>>::erase(PRogramObjectBase *)
                                       24
     _Tree<_Tset_traits<PRogramObjectBase *, less<PRogramObjectBase *>, allocator<PRogramObjectBase *>, false>>::erase(_Tree<_Tset_traits<PRogramObjectBase *, less<PRogramObjectBase *>, allocator<PRogramObjectBase *>, false>>::iterator, _Tree<_Tset_traits<PRogramObjectBase *, less<PRogramObjectBase *>, allocator<PRogramObjectBase *>, false>>::iterator)
                                       20
     _Tree<_Tset_traits<PRogramObjectBase *, less<PRogramObjectBase *>, allocator<PRogramObjectBase *>, false>>::find(PRogramObjectBase *)
                                       12
     _Tree<_Tset_traits<PRogramObjectBase *, less<PRogramObjectBase *>, allocator<PRogramObjectBase *>, false>>::insert(PRogramObjectBase *)
                                       44
     _Tree<_Tset_traits<int, less<int>, allocator<int>, false>>::_Erase(_Tree<_Tset_traits<int, less<int>, allocator<int>, false>>::_Nodeptr)
                                       16
     _Tree<_Tset_traits<int, less<int>, allocator<int>, false>>::_Insert(bool, _Tree<_Tset_traits<int, less<int>, allocator<int>, false>>::_Nodeptr, int)
                                       24
     _Tree<_Tset_traits<int, less<int>, allocator<int>, false>>::insert(int)
                                       40
     _Tree<_Tset_traits<unsigned int, less<unsigned int>, allocator<unsigned int>, false>>::_Copy(_Tree<_Tset_traits<unsigned int, less<unsigned int>, allocator<unsigned int>, false>> const &)
                                       12
     _Tree<_Tset_traits<unsigned int, less<unsigned int>, allocator<unsigned int>, false>>::_Copy(_Tree<_Tset_traits<unsigned int, less<unsigned int>, allocator<unsigned int>, false>>::_Nodeptr, _Tree<_Tset_traits<unsigned int, less<unsigned int>, allocator<unsigned int>, false>>::_Nodeptr)
                                       32
     _Tree<_Tset_traits<unsigned int, less<unsigned int>, allocator<unsigned int>, false>>::_Erase(_Tree<_Tset_traits<unsigned int, less<unsigned int>, allocator<unsigned int>, false>>::_Nodeptr)
                                       16
     _Tree<_Tset_traits<unsigned int, less<unsigned int>, allocator<unsigned int>, false>>::_Insert(bool, _Tree<_Tset_traits<unsigned int, less<unsigned int>, allocator<unsigned int>, false>>::_Nodeptr, unsigned int)
                                       24
     _Tree<_Tset_traits<unsigned int, less<unsigned int>, allocator<unsigned int>, false>>::_Lbound(unsigned int) const
                                        0
     _Tree<_Tset_traits<unsigned int, less<unsigned int>, allocator<unsigned int>, false>>::clear()
                                        8
     _Tree<_Tset_traits<unsigned int, less<unsigned int>, allocator<unsigned int>, false>>::erase(_Tree<_Tset_traits<unsigned int, less<unsigned int>, allocator<unsigned int>, false>>::iterator, _Tree<_Tset_traits<unsigned int, less<unsigned int>, allocator<unsigned int>, false>>::iterator)
                                       20
     _Tree<_Tset_traits<unsigned int, less<unsigned int>, allocator<unsigned int>, false>>::find(unsigned int)
                                       12
     _Tree<_Tset_traits<unsigned int, less<unsigned int>, allocator<unsigned int>, false>>::insert(unsigned int)
                                       40
     _Tree_algobase<allocator<void>>::_Clear()
                                        0
     _Tree_algobase<allocator<void>>::_DecP(_Tree_algobase<allocator<void>>::_Genptr)
                                        4
     _Tree_algobase<allocator<void>>::_Erase(_Tree_algobase<allocator<void>>::_Genptr)
                                       32
     _Tree_algobase<allocator<void>>::_IncP(_Tree_algobase<allocator<void>>::_Genptr)
                                        0
     _Tree_algobase<allocator<void>>::_Insert(bool, _Tree_algobase<allocator<void>>::_Genptr, _Tree_algobase<allocator<void>>::_Genptr)
                                       20
     _Tree_algobase<allocator<void>>::_Lrotate(_Tree_algobase<allocator<void>>::_Genptr)
                                        0
     _Tree_algobase<allocator<void>>::_Max(_Tree_algobase<allocator<void>>::_Genptr)
                                        0
     _Tree_algobase<allocator<void>>::_Rrotate(_Tree_algobase<allocator<void>>::_Genptr)
                                        0
     _Vector_impl<PRogramObjectBase *, allocator<PRogramObjectBase *>>::_Assign(_Vector_impl<PRogramObjectBase *, allocator<PRogramObjectBase *>> const &)
                                       20
     _Vector_impl<PRogramObjectBase *, allocator<PRogramObjectBase *>>::_Tidy()
                                        8
     _Vector_value<allocator<void>>::_Zero()
                                        0
     __sti__routine()                  16
     map<int, PRogramObjectBase *>::~map()
                                        4
     operator+(char const *, string const &)
                                       44
     operator+(string const &, char const *)
                                       44
     operator+(string const &, string const &)
                                       40
     operator==(string const &, char const *)
                                       16
     set<PRogramObjectBase *>::set()
                                       12
     set<PRogramObjectBase *>::~set()
                                        4
     set<unsigned int>::operator=(set<unsigned int> const &)
                                       12
     set<unsigned int>::set()          12
     set<unsigned int>::set(set<unsigned int> const &)
                                       16
     string::string(string const &)    12


   Segment part sizes:

     Function/Label                 Bytes
     --------------                 -----
     string::string(string const &)   64
     _Tree_algobase<allocator<void>>::_Max(_Tree_algobase<allocator<void>>::_Genptr)
                                      28
     _Tree_algobase<allocator<void>>::_DecP(_Tree_algobase<allocator<void>>::_Genptr)
                                      88
     _Tree_algobase<allocator<void>>::_IncP(_Tree_algobase<allocator<void>>::_Genptr)
                                      92
     _Tree_algobase<allocator<void>>::_Clear()
                                      36
     _Tree_algobase<allocator<void>>::_Rrotate(_Tree_algobase<allocator<void>>::_Genptr)
                                      84
     _Tree_algobase<allocator<void>>::_Lrotate(_Tree_algobase<allocator<void>>::_Genptr)
                                      84
     _Tree_algobase<allocator<void>>::_Erase(_Tree_algobase<allocator<void>>::_Genptr)
                                     780
     _Tree_algobase<allocator<void>>::_Insert(bool, _Tree_algobase<allocator<void>>::_Genptr, _Tree_algobase<allocator<void>>::_Genptr)
                                     356
     _Tree<_Tset_traits<PRogramObjectBase *, less<PRogramObjectBase *>, allocator<PRogramObjectBase *>, false>>::insert(PRogramObjectBase *)
                                     200
     _Tree<_Tset_traits<unsigned int, less<unsigned int>, allocator<unsigned int>, false>>::insert(unsigned int)
                                     200
     _Tree<_Tset_traits<int, less<int>, allocator<int>, false>>::insert(int)
                                     200
     _Tree<_Tmap_traits<int, PRogramObjectBase *, less<int>, allocator<pair<int const, PRogramObjectBase *>>, false>>::insert(pair<int const, PRogramObjectBase *> const &)
                                     208
     _Tree<_Tset_traits<unsigned int, less<unsigned int>, allocator<unsigned int>, false>>::erase(_Tree<_Tset_traits<unsigned int, less<unsigned int>, allocator<unsigned int>, false>>::iterator, _Tree<_Tset_traits<unsigned int, less<unsigned int>, allocator<unsigned int>, false>>::iterator)
                                     108
     _Tree<_Tset_traits<PRogramObjectBase *, less<PRogramObjectBase *>, allocator<PRogramObjectBase *>, false>>::erase(_Tree<_Tset_traits<PRogramObjectBase *, less<PRogramObjectBase *>, allocator<PRogramObjectBase *>, false>>::iterator, _Tree<_Tset_traits<PRogramObjectBase *, less<PRogramObjectBase *>, allocator<PRogramObjectBase *>, false>>::iterator)
                                     108
     _Tree<_Tmap_traits<int, PRogramObjectBase *, less<int>, allocator<pair<int const, PRogramObjectBase *>>, false>>::erase(_Tree<_Tmap_traits<int, PRogramObjectBase *, less<int>, allocator<pair<int const, PRogramObjectBase *>>, false>>::iterator, _Tree<_Tmap_traits<int, PRogramObjectBase *, less<int>, allocator<pair<int const, PRogramObjectBase *>>, false>>::iterator)
                                     108
     _Tree<_Tset_traits<PRogramObjectBase *, less<PRogramObjectBase *>, allocator<PRogramObjectBase *>, false>>::erase(PRogramObjectBase *)
                                      84
     _Tree<_Tmap_traits<int, PRogramObjectBase *, less<int>, allocator<pair<int const, PRogramObjectBase *>>, false>>::erase(int)
                                      84
     _Tree<_Tset_traits<unsigned int, less<unsigned int>, allocator<unsigned int>, false>>::clear()
                                      32
     _Tree<_Tset_traits<PRogramObjectBase *, less<PRogramObjectBase *>, allocator<PRogramObjectBase *>, false>>::clear()
                                      32
     _Tree<_Tmap_traits<int, PRogramObjectBase *, less<int>, allocator<pair<int const, PRogramObjectBase *>>, false>>::clear()
                                      32
     _Tree<_Tset_traits<unsigned int, less<unsigned int>, allocator<unsigned int>, false>>::find(unsigned int)
                                      48
     _Tree<_Tset_traits<PRogramObjectBase *, less<PRogramObjectBase *>, allocator<PRogramObjectBase *>, false>>::find(PRogramObjectBase *)
                                      48
     _Tree<_Tmap_traits<int, PRogramObjectBase *, less<int>, allocator<pair<int const, PRogramObjectBase *>>, false>>::find(int)
                                      48
     _Tree<_Tmap_traits<int, PRogramObjectBase *, less<int>, allocator<pair<int const, PRogramObjectBase *>>, false>>::equal_range(int)
                                      76
     _Tree<_Tset_traits<PRogramObjectBase *, less<PRogramObjectBase *>, allocator<PRogramObjectBase *>, false>>::equal_range(PRogramObjectBase *)
                                      76
     _Tree<_Tset_traits<unsigned int, less<unsigned int>, allocator<unsigned int>, false>>::_Copy(_Tree<_Tset_traits<unsigned int, less<unsigned int>, allocator<unsigned int>, false>> const &)
                                     112
     _Tree<_Tset_traits<PRogramObjectBase *, less<PRogramObjectBase *>, allocator<PRogramObjectBase *>, false>>::_Copy(_Tree<_Tset_traits<PRogramObjectBase *, less<PRogramObjectBase *>, allocator<PRogramObjectBase *>, false>> const &)
                                     112
     _Tree<_Tset_traits<unsigned int, less<unsigned int>, allocator<unsigned int>, false>>::_Copy(_Tree<_Tset_traits<unsigned int, less<unsigned int>, allocator<unsigned int>, false>>::_Nodeptr, _Tree<_Tset_traits<unsigned int, less<unsigned int>, allocator<unsigned int>, false>>::_Nodeptr)
                                     148
     _Tree<_Tset_traits<PRogramObjectBase *, less<PRogramObjectBase *>, allocator<PRogramObjectBase *>, false>>::_Copy(_Tree<_Tset_traits<PRogramObjectBase *, less<PRogramObjectBase *>, allocator<PRogramObjectBase *>, false>>::_Nodeptr, _Tree<_Tset_traits<PRogramObjectBase *, less<PRogramObjectBase *>, allocator<PRogramObjectBase *>, false>>::_Nodeptr)
                                     148
     _Tree<_Tset_traits<int, less<int>, allocator<int>, false>>::_Erase(_Tree<_Tset_traits<int, less<int>, allocator<int>, false>>::_Nodeptr)
                                      68
     _Tree<_Tset_traits<unsigned int, less<unsigned int>, allocator<unsigned int>, false>>::_Erase(_Tree<_Tset_traits<unsigned int, less<unsigned int>, allocator<unsigned int>, false>>::_Nodeptr)
                                      68
     _Tree<_Tset_traits<PRogramObjectBase *, less<PRogramObjectBase *>, allocator<PRogramObjectBase *>, false>>::_Erase(_Tree<_Tset_traits<PRogramObjectBase *, less<PRogramObjectBase *>, allocator<PRogramObjectBase *>, false>>::_Nodeptr)
                                      68
     _Tree<_Tmap_traits<int, PRogramObjectBase *, less<int>, allocator<pair<int const, PRogramObjectBase *>>, false>>::_Erase(_Tree<_Tmap_traits<int, PRogramObjectBase *, less<int>, allocator<pair<int const, PRogramObjectBase *>>, false>>::_Nodeptr)
                                      68
     _Tree<_Tset_traits<int, less<int>, allocator<int>, false>>::_Insert(bool, _Tree<_Tset_traits<int, less<int>, allocator<int>, false>>::_Nodeptr, int)
                                      96
     _Tree<_Tset_traits<unsigned int, less<unsigned int>, allocator<unsigned int>, false>>::_Insert(bool, _Tree<_Tset_traits<unsigned int, less<unsigned int>, allocator<unsigned int>, false>>::_Nodeptr, unsigned int)
                                      96
     _Tree<_Tmap_traits<int, PRogramObjectBase *, less<int>, allocator<pair<int const, PRogramObjectBase *>>, false>>::_Insert(bool, _Tree<_Tmap_traits<int, PRogramObjectBase *, less<int>, allocator<pair<int const, PRogramObjectBase *>>, false>>::_Nodeptr, pair<int const, PRogramObjectBase *> const &)
                                     112
     _Tree<_Tset_traits<PRogramObjectBase *, less<PRogramObjectBase *>, allocator<PRogramObjectBase *>, false>>::_Insert(bool, _Tree<_Tset_traits<PRogramObjectBase *, less<PRogramObjectBase *>, allocator<PRogramObjectBase *>, false>>::_Nodeptr, PRogramObjectBase *)
                                      96
     _Tree<_Tmap_traits<int, PRogramObjectBase *, less<int>, allocator<pair<int const, PRogramObjectBase *>>, false>>::_Lbound(int) const
                                      40
     _Tree<_Tset_traits<PRogramObjectBase *, less<PRogramObjectBase *>, allocator<PRogramObjectBase *>, false>>::_Lbound(PRogramObjectBase *) const
                                      40
     _Tree<_Tset_traits<unsigned int, less<unsigned int>, allocator<unsigned int>, false>>::_Lbound(unsigned int) const
                                      40
     _Tree<_Tmap_traits<int, PRogramObjectBase *, less<int>, allocator<pair<int const, PRogramObjectBase *>>, false>>::_Ubound(int) const
                                      40
     _Tree<_Tset_traits<PRogramObjectBase *, less<PRogramObjectBase *>, allocator<PRogramObjectBase *>, false>>::_Ubound(PRogramObjectBase *) const
                                      40
     set<unsigned int>::operator=(set<unsigned int> const &)
                                      56
     set<PRogramObjectBase *>::~set()
                                      16
     set<unsigned int>::set(set<unsigned int> const &)
                                      48
     set<unsigned int>::set()         48
     set<PRogramObjectBase *>::set()
                                      48
     map<int, PRogramObjectBase *>::~map()
                                      16
     _Vector_value<allocator<void>>::_Zero()
                                      20
     _Vector_impl<PRogramObjectBase *, allocator<PRogramObjectBase *>>::_Tidy()
                                      44
     _Vector_impl<PRogramObjectBase *, allocator<PRogramObjectBase *>>::_Assign(_Vector_impl<PRogramObjectBase *, allocator<PRogramObjectBase *>> const &)
                                     216
     operator+(string const &, string const &)
                                      88
     operator+(char const *, string const &)
                                     128
     operator+(string const &, char const *)
                                      92
     operator==(string const &, char const *)
                                      68
     PRogramObjectBase::WriteAll       1
     __sti__routine()                108
     ?_0                              48
     PRogramObjectBase::IdMap         96
     PRogramObjectBase::PRogramObjectBase(bool)
                                     300
     ?Subroutine65                    12
     PRogramObjectBase::~PRogramObjectBase()
                                     176
     ?Subroutine67                    12
     PRogramObjectBase::IdNumString()
                                      68
     ?Subroutine63                    12
     PRogramObjectBase::ReadIdTable(TSNConfigString &, int &, int)
                                     104
     PRogramObjectBase::MakeIdTableString(int)
                                     260
     ?Subroutine68                     8
     PRogramObjectBase::MakeIdTableString(set<unsigned int>, int, int, int)
                                     516
     ?Subroutine69                     8
     PRogramObjectBase::WriteConfigToFile(TSNConfigString &)
                                       4
     PRogramObjectBase::LoadConfigFromFile(TSNConfigString &)
                                      12
     ?Subroutine61                    16
     PRogramObjectBase::MakeConfigString(int)
                                    1040
     PRogramObjectBase::LoadConfigString(TSNConfigString &)
                                     896
     ?Subroutine70                     8
     PRogramObjectBase::RestoreSettings(TSNConfigString *)
                                       4
     ?Subroutine71                     8
     PRogramObjectBase::FindStatusChar(int)
                                     288
     PRogramObjectBase::FindPROStatus(AnsiString &)
                                      88
     PRogramObjectBase::GetName()     24
     ?Subroutine62                    16
     PRogramObjectBase::ConvertFromSiUnit(char *, int, int, int)
                                     108
     PRogramObjectBase::GetFloatValue(int, int, float &)
                                      52
     PRogramObjectBase::GetValue(int, int, float &, int &, int &)
                                     128
     PRogramObjectBase::GetStringValue(int, int, AnsiString &)
                                     164
     PRogramObjectBase::GetBitValue(int, int, bool &)
                                       0
     PRogramObjectBase::PutValue(int, int, AnsiString, bool, int *)
                                      80
     PRogramObjectBase::PutFloatValue(int, float)
                                       4
     PRogramObjectBase::PutBitValue(int, int, bool)
                                      52
     PRogramObjectBase::GetValueInfoTable(int &, int)
                                       4
     ?Subroutine64                    12
     PRogramObjectBase::GetServiceValueInfoTable(int &)
                                       0
     PRogramObjectBase::GetValueInfoTableStatic(int &, int, bool)
                                       4
     PRogramObjectBase::GetServiceValueInfoTableStatic(int &)
                                       0
     PRogramObjectBase::GetValueIdVector(int)
                                       4
     PRogramObjectBase::GetValueInfoVector(int)
                                       0
     PRogramObjectBase::GetServiceValueInfoVector()
                                       4
     PRogramObjectBase::ReceiveData(unsigned char *)
                                       4
     ?Subroutine72                     8
     PRogramObjectBase::SendData(unsigned short)
                                       0
     PRogramObjectBase::SendModbusData(unsigned short, float, unsigned short)
                                     156
     PRogramObjectBase::SendStaticData()
                                     256
     PRogramObjectBase::InputTimeout()
                                       4
     PRogramObjectBase::StartTimer()
                                       4
     PRogramObjectBase::SetModifiedFlag()
                                      24
     PRogramObjectBase::GetMaxId(unsigned int)
                                      80
     PRogramObjectBase::CorrectIds()
                                     180
     PRogramObjectBase::InitObjTable()
                                      24
     ?Subroutine66                     8
     PRogramObjectBase::InsertInMap()
                                      84
     PRogramObjectBase::InitMap()   1076
     PRogramObjectBase::FindObject(int)
                                      40
     PRogramObjectBase::CheckReadPermissionSet(unsigned int)
                                      48
     PRogramObjectBase::ReadPermission(unsigned int)
                                      76
     PRogramObjectBase::CheckWritePermissionSet(unsigned int)
                                      52
     PRogramObjectBase::WritePermission(unsigned int)
                                      76
     PRogramObjectBase::DeleteAllObjects()
                                      80
     PRogramObjectBase::EraseFromVector(vector<PRogramObjectBase *> &, PRogramObjectBase *)
                                      72
     PRogramObjectBase::GetIdNumber()
                                       8
     PRogramObjectBase::SetIdNumber(unsigned int)
                                       8
     PRogramObjectBase::IsAvailableNewData()
                                      52
     PRogramObjectBase::GetFirstFreeId(int, vector<PRogramObjectBase *>, bool)
                                     216
     PRogramObjectBase::GetFirstFreeId(int, set<PRogramObjectBase *>, bool)
                                     184
     PRogramObjectBase::SetIdNumber(PRogramObjectBase *, int, int, vector<PRogramObjectBase *>, bool)
                                     400
     PRogramObjectBase::SetIdNumber(PRogramObjectBase *, int, int, set<PRogramObjectBase *>, bool)
                                     396
     PRogramObjectBase::SetLineNumber(int)
                                       8
     PRogramObjectBase::GetLineNumber()
                                       8
     PRogramObjectBase::Compare(PRogramObjectBase *, PRogramObjectBase *)
                                      36
     PRogramObjectBase::SetTimeStamp()
                                      20
     ?<Initializer for WriteAll>       1
     ?<Constant "">                    1
     ?<Constant " don\'t match object t...">
                                      52
     ?<Constant "]">                   2
     ?<Constant "Object types are: [">
                                     152
     ?<Constant "][">                  3
     ?<Constant "0">                   2
     ?<Constant "PRogram object base">
                                      20
     ?<Constant "W">                   2
     ?<Constant "A">                   2
     ?<Constant "E">                   2
     ?<Constant "L">                   2
     PRogramObjectBase::new PRogramObjectBase(bool)
                                      36
     ??DataTable1                      4
     ??DataTable2                      4
     ??DataTable5                      4
     ??DataTable6                      4
     ??DataTable12                     4
     ??DataTable13                     4
     ??DataTable22                     4
     ??DataTable34                     4
     ??DataTable35                     4
     ??DataTable36                     4
     ??DataTable39                     4
     ??DataTable40                     4
     ??DataTable41                     4
     ??DataTable43                     4
      Others                        1508

 
 15 340 bytes in segment CODE
    380 bytes in segment DATA_C
      1 byte  in segment DATA_I
      1 byte  in segment DATA_ID
    112 bytes in segment DATA_Z
      4 bytes in segment DIFUNCT
     24 bytes in segment INITTAB
 
 8 388 bytes of CODE  memory (+ 6 980 bytes shared)
   381 bytes of CONST memory
   113 bytes of DATA  memory

Errors: none
Warnings: none
