##############################################################################
#                                                                            #
# IAR ARM ANSI C/C++ Compiler V4.42A/W32               14/Sep/2022  15:15:48 #
# Copyright 1999-2005 IAR Systems. All rights reserved.                      #
#                                                                            #
#    Cpu mode        =  interwork                                            #
#    Endian          =  little                                               #
#    Stack alignment =  4                                                    #
#    Source file     =  D:\S2Prog\Shared\Src\PROProjectInfo.cpp              #
#    Command line    =  D:\S2Prog\Shared\Src\PROProjectInfo.cpp --fpu None   #
#                       -D OS_LIBMODE_SP -D CPU_S3C2410 -D OS_RAMVECT=0 -D   #
#                       OS_UART=-1 -D S2TXU -D USE_LZO=1 -D __ARM_LIBRARY__  #
#                       -D WATCHDOG=1 -D NETWORK=1 -lCN                      #
#                       D:\S2Prog\TXU\Debug\List\ -o                         #
#                       D:\S2Prog\TXU\Debug\Obj\ -z9 --debug --cpu_mode arm  #
#                       --endian little --cpu ARM920T --stack_align 4        #
#                       --interwork -e --enable_multibytes --eec++           #
#                       --dlib_config "C:\Program Files (x86)\IAR            #
#                       Systems\Embedded Workbench                           #
#                       4.0\arm\LIB\dl4tpainl8n.h" -I                        #
#                       D:\S2Prog\TXU\GUI\CORE\ -I D:\S2Prog\TXU\GUI\WM\ -I  #
#                       D:\S2Prog\TXU\GUI\WIDGET\ -I D:\S2Prog\TXU\CONFIG\   #
#                       -I D:\S2Prog\TXU\INC\ -I D:\S2Prog\TXU\..\SHARED\INC #
#                       \ -I D:\S2Prog\TXU\..\SHARED\SRC\ -I                 #
#                       D:\S2Prog\TXU\..\SHARED\LZO\minilzo.210\ -I          #
#                       D:\S2Prog\TXU\lwip-1.4.1\src\include\ -I             #
#                       D:\S2Prog\TXU\lwip-1.4.1\src\include\ipv4\ -I        #
#                       D:\S2Prog\TXU\lwip-1.4.1\src\ -I                     #
#                       D:\S2Prog\TXU\..\SHARED\Database\ -I                 #
#                       D:\S2Prog\TXU\src\ -I "C:\Program Files (x86)\IAR    #
#                       Systems\Embedded Workbench 4.0\arm\INC\"             #
#                       --inline_threshold=2                                 #
#    List file       =  D:\S2Prog\TXU\Debug\List\PROProjectInfo.lst          #
#    Object file     =  D:\S2Prog\TXU\Debug\Obj\PROProjectInfo.r79           #
#                                                                            #
#                                                                            #
##############################################################################

D:\S2Prog\Shared\Src\PROProjectInfo.cpp
      1          #include "TSNIncludes.h"

   \                                 In segment CODE, align 4, keep-with-next
   \   __??Code32?? __code __interwork __atpcs string::string(string const &)
   \                     ??string:
   \   00000000   30402DE9           PUSH     {R4,R5,LR}
   \   00000004   0040A0E1           MOV      R4,R0
   \   00000008   0150A0E1           MOV      R5,R1
   \   0000000C   0020A0E3           MOV      R2,#+0
   \   00000010   0010A0E3           MOV      R1,#+0
   \   00000014   ........           _BLF     ??_Tidy,??_Tidy??rA
   \   00000018   1C009FE5           LDR      R0,??string_1    ;; ??npos
   \   0000001C   0020A0E3           MOV      R2,#+0
   \   00000020   003090E5           LDR      R3,[R0, #+0]
   \   00000024   0510A0E1           MOV      R1,R5
   \   00000028   0400A0E1           MOV      R0,R4
   \   0000002C   ........           _BLF     ??assign,??assign??rA
   \   00000030   0400A0E1           MOV      R0,R4
   \   00000034   3040BDE8           POP      {R4,R5,LR}
   \   00000038   1EFF2FE1           BX       LR               ;; return
   \                     ??string_1:
   \   0000003C   ........           DC32     ??npos

   \                                 In segment CODE, align 4, keep-with-next
   \   __??Code32?? __code __interwork __atpcs _Tree_algobase<allocator<void>>::_Genptr _Tree_algobase<allocator<void>>::_IncP(_Tree_algobase<allocator<void>>::_Genptr)
   \                     ??_IncP:
   \   00000000   0D10D0E5           LDRB     R1,[R0, #+13]
   \   00000004   000051E3           CMP      R1,#+0
   \   00000008   1EFF2F11           BXNE     LR
   \   0000000C   081090E5           LDR      R1,[R0, #+8]
   \   00000010   0D20D1E5           LDRB     R2,[R1, #+13]
   \   00000014   000052E3           CMP      R2,#+0
   \   00000018   0700001A           BNE      ??_IncP_1
   \   0000001C   000000EA           B        ??_IncP_2
   \                     ??_IncP_3:
   \   00000020   0010A0E1           MOV      R1,R0
   \                     ??_IncP_2:
   \   00000024   000091E5           LDR      R0,[R1, #+0]
   \   00000028   0D20D0E5           LDRB     R2,[R0, #+13]
   \   0000002C   000052E3           CMP      R2,#+0
   \   00000030   FAFFFF0A           BEQ      ??_IncP_3
   \   00000034   060000EA           B        ??_IncP_4
   \                     ??_IncP_5:
   \   00000038   0100A0E1           MOV      R0,R1
   \                     ??_IncP_1:
   \   0000003C   041090E5           LDR      R1,[R0, #+4]
   \   00000040   0D20D1E5           LDRB     R2,[R1, #+13]
   \   00000044   000052E3           CMP      R2,#+0
   \   00000048   08209105           LDREQ    R2,[R1, #+8]
   \   0000004C   02005001           CMPEQ    R0,R2
   \   00000050   F8FFFF0A           BEQ      ??_IncP_5
   \                     ??_IncP_4:
   \   00000054   0100A0E1           MOV      R0,R1
   \   00000058   1EFF2FE1           BX       LR               ;; return

   \                                 In segment CODE, align 4, keep-with-next
   \   __??Code32?? __code __interwork __atpcs void _Tree_algobase<allocator<void>>::_Clear()
   \                     ??_Clear:
   \   00000000   040080E5           STR      R0,[R0, #+4]
   \   00000004   000080E5           STR      R0,[R0, #+0]
   \   00000008   080080E5           STR      R0,[R0, #+8]
   \   0000000C   0110A0E3           MOV      R1,#+1
   \   00000010   0D10C0E5           STRB     R1,[R0, #+13]
   \   00000014   0C10C0E5           STRB     R1,[R0, #+12]
   \   00000018   0010A0E3           MOV      R1,#+0
   \   0000001C   101080E5           STR      R1,[R0, #+16]
   \   00000020   1EFF2FE1           BX       LR               ;; return

   \                                 In segment CODE, align 4, keep-with-next
   \   __??Code32?? __code __interwork __atpcs void _Tree_algobase<allocator<void>>::_Rrotate(_Tree_algobase<allocator<void>>::_Genptr)
   \                     ??_Rrotate:
   \   00000000   002091E5           LDR      R2,[R1, #+0]
   \   00000004   083092E5           LDR      R3,[R2, #+8]
   \   00000008   003081E5           STR      R3,[R1, #+0]
   \   0000000C   083092E5           LDR      R3,[R2, #+8]
   \   00000010   0DC0D3E5           LDRB     R12,[R3, #+13]
   \   00000014   00005CE3           CMP      R12,#+0
   \   00000018   04108305           STREQ    R1,[R3, #+4]
   \   0000001C   043091E5           LDR      R3,[R1, #+4]
   \   00000020   043082E5           STR      R3,[R2, #+4]
   \   00000024   043090E5           LDR      R3,[R0, #+4]
   \   00000028   030051E1           CMP      R1,R3
   \   0000002C   04208005           STREQ    R2,[R0, #+4]
   \   00000030   0400000A           BEQ      ??_Rrotate_1
   \   00000034   040091E5           LDR      R0,[R1, #+4]
   \   00000038   083090E5           LDR      R3,[R0, #+8]
   \   0000003C   030051E1           CMP      R1,R3
   \   00000040   08208005           STREQ    R2,[R0, #+8]
   \   00000044   00208015           STRNE    R2,[R0, #+0]
   \                     ??_Rrotate_1:
   \   00000048   081082E5           STR      R1,[R2, #+8]
   \   0000004C   042081E5           STR      R2,[R1, #+4]
   \   00000050   1EFF2FE1           BX       LR               ;; return

   \                                 In segment CODE, align 4, keep-with-next
   \   __??Code32?? __code __interwork __atpcs void _Tree_algobase<allocator<void>>::_Lrotate(_Tree_algobase<allocator<void>>::_Genptr)
   \                     ??_Lrotate:
   \   00000000   082091E5           LDR      R2,[R1, #+8]
   \   00000004   003092E5           LDR      R3,[R2, #+0]
   \   00000008   083081E5           STR      R3,[R1, #+8]
   \   0000000C   003092E5           LDR      R3,[R2, #+0]
   \   00000010   0DC0D3E5           LDRB     R12,[R3, #+13]
   \   00000014   00005CE3           CMP      R12,#+0
   \   00000018   04108305           STREQ    R1,[R3, #+4]
   \   0000001C   043091E5           LDR      R3,[R1, #+4]
   \   00000020   043082E5           STR      R3,[R2, #+4]
   \   00000024   043090E5           LDR      R3,[R0, #+4]
   \   00000028   030051E1           CMP      R1,R3
   \   0000002C   04208005           STREQ    R2,[R0, #+4]
   \   00000030   0400000A           BEQ      ??_Lrotate_1
   \   00000034   040091E5           LDR      R0,[R1, #+4]
   \   00000038   003090E5           LDR      R3,[R0, #+0]
   \   0000003C   030051E1           CMP      R1,R3
   \   00000040   00208005           STREQ    R2,[R0, #+0]
   \   00000044   08208015           STRNE    R2,[R0, #+8]
   \                     ??_Lrotate_1:
   \   00000048   001082E5           STR      R1,[R2, #+0]
   \   0000004C   042081E5           STR      R2,[R1, #+4]
   \   00000050   1EFF2FE1           BX       LR               ;; return

   \                                 In segment CODE, align 4, keep-with-next
   \   __??Code32?? __code __interwork __atpcs _Tree_algobase<allocator<void>>::_Genptr _Tree_algobase<allocator<void>>::_Erase(_Tree_algobase<allocator<void>>::_Genptr)
   \                     ??_Erase:
   \   00000000   F0472DE9           PUSH     {R4-R10,LR}
   \   00000004   0040A0E1           MOV      R4,R0
   \   00000008   0160A0E1           MOV      R6,R1
   \   0000000C   0680A0E1           MOV      R8,R6
   \   00000010   0600A0E1           MOV      R0,R6
   \   00000014   ........           _BLF     ??_IncP,??_IncP??rA
   \   00000018   007098E5           LDR      R7,[R8, #+0]
   \   0000001C   0D10D7E5           LDRB     R1,[R7, #+13]
   \   00000020   000051E3           CMP      R1,#+0
   \   00000024   0400001A           BNE      ??_Erase_2
   \   00000028   081098E5           LDR      R1,[R8, #+8]
   \   0000002C   0D10D1E5           LDRB     R1,[R1, #+13]
   \   00000030   000051E3           CMP      R1,#+0
   \   00000034   0100001A           BNE      ??_Erase_3
   \   00000038   0080A0E1           MOV      R8,R0
   \                     ??_Erase_2:
   \   0000003C   087098E5           LDR      R7,[R8, #+8]
   \                     ??_Erase_3:
   \   00000040   060058E1           CMP      R8,R6
   \   00000044   2B00001A           BNE      ??_Erase_4
   \   00000048   0D00D7E5           LDRB     R0,[R7, #+13]
   \   0000004C   045096E5           LDR      R5,[R6, #+4]
   \   00000050   000050E3           CMP      R0,#+0
   \   00000054   04508705           STREQ    R5,[R7, #+4]
   \   00000058   040094E5           LDR      R0,[R4, #+4]
   \   0000005C   060050E1           CMP      R0,R6
   \   00000060   04708405           STREQ    R7,[R4, #+4]
   \   00000064   0300000A           BEQ      ??_Erase_5
   \   00000068   000095E5           LDR      R0,[R5, #+0]
   \   0000006C   060050E1           CMP      R0,R6
   \   00000070   00708505           STREQ    R7,[R5, #+0]
   \   00000074   08708515           STRNE    R7,[R5, #+8]
   \                     ??_Erase_5:
   \   00000078   000094E5           LDR      R0,[R4, #+0]
   \   0000007C   060050E1           CMP      R0,R6
   \   00000080   0B00001A           BNE      ??_Erase_6
   \   00000084   0D00D7E5           LDRB     R0,[R7, #+13]
   \   00000088   000050E3           CMP      R0,#+0
   \   0000008C   0500A011           MOVNE    R0,R5
   \   00000090   0600001A           BNE      ??_Erase_7
   \   00000094   0700A0E1           MOV      R0,R7
   \   00000098   000000EA           B        ??_Erase_8
   \                     ??_Erase_9:
   \   0000009C   0100A0E1           MOV      R0,R1
   \                     ??_Erase_8:
   \   000000A0   001090E5           LDR      R1,[R0, #+0]
   \   000000A4   0D20D1E5           LDRB     R2,[R1, #+13]
   \   000000A8   000052E3           CMP      R2,#+0
   \   000000AC   FAFFFF0A           BEQ      ??_Erase_9
   \                     ??_Erase_7:
   \   000000B0   000084E5           STR      R0,[R4, #+0]
   \                     ??_Erase_6:
   \   000000B4   080094E5           LDR      R0,[R4, #+8]
   \   000000B8   060050E1           CMP      R0,R6
   \   000000BC   2F00001A           BNE      ??_Erase_10
   \   000000C0   0D10D7E5           LDRB     R1,[R7, #+13]
   \   000000C4   080084E2           ADD      R0,R4,#+8
   \   000000C8   000051E3           CMP      R1,#+0
   \   000000CC   0510A011           MOVNE    R1,R5
   \   000000D0   0600001A           BNE      ??_Erase_11
   \   000000D4   0710A0E1           MOV      R1,R7
   \   000000D8   000000EA           B        ??_Erase_12
   \                     ??_Erase_13:
   \   000000DC   0210A0E1           MOV      R1,R2
   \                     ??_Erase_12:
   \   000000E0   082091E5           LDR      R2,[R1, #+8]
   \   000000E4   0D30D2E5           LDRB     R3,[R2, #+13]
   \   000000E8   000053E3           CMP      R3,#+0
   \   000000EC   FAFFFF0A           BEQ      ??_Erase_13
   \                     ??_Erase_11:
   \   000000F0   001080E5           STR      R1,[R0, #+0]
   \   000000F4   210000EA           B        ??_Erase_10
   \                     ??_Erase_4:
   \   000000F8   000096E5           LDR      R0,[R6, #+0]
   \   000000FC   048080E5           STR      R8,[R0, #+4]
   \   00000100   000096E5           LDR      R0,[R6, #+0]
   \   00000104   000088E5           STR      R0,[R8, #+0]
   \   00000108   080096E5           LDR      R0,[R6, #+8]
   \   0000010C   000058E1           CMP      R8,R0
   \   00000110   0850A001           MOVEQ    R5,R8
   \   00000114   0800000A           BEQ      ??_Erase_14
   \   00000118   0D00D7E5           LDRB     R0,[R7, #+13]
   \   0000011C   045098E5           LDR      R5,[R8, #+4]
   \   00000120   000050E3           CMP      R0,#+0
   \   00000124   04508705           STREQ    R5,[R7, #+4]
   \   00000128   007085E5           STR      R7,[R5, #+0]
   \   0000012C   080096E5           LDR      R0,[R6, #+8]
   \   00000130   080088E5           STR      R0,[R8, #+8]
   \   00000134   080096E5           LDR      R0,[R6, #+8]
   \   00000138   048080E5           STR      R8,[R0, #+4]
   \                     ??_Erase_14:
   \   0000013C   040094E5           LDR      R0,[R4, #+4]
   \   00000140   060050E1           CMP      R0,R6
   \   00000144   04808405           STREQ    R8,[R4, #+4]
   \   00000148   0400000A           BEQ      ??_Erase_15
   \   0000014C   040096E5           LDR      R0,[R6, #+4]
   \   00000150   001090E5           LDR      R1,[R0, #+0]
   \   00000154   060051E1           CMP      R1,R6
   \   00000158   00808005           STREQ    R8,[R0, #+0]
   \   0000015C   08808015           STRNE    R8,[R0, #+8]
   \                     ??_Erase_15:
   \   00000160   040096E5           LDR      R0,[R6, #+4]
   \   00000164   0C1088E2           ADD      R1,R8,#+12
   \   00000168   040088E5           STR      R0,[R8, #+4]
   \   0000016C   0020D1E5           LDRB     R2,[R1, #+0]
   \   00000170   0C0086E2           ADD      R0,R6,#+12
   \   00000174   0030D0E5           LDRB     R3,[R0, #+0]
   \   00000178   0030C1E5           STRB     R3,[R1, #+0]
   \   0000017C   0020C0E5           STRB     R2,[R0, #+0]
   \                     ??_Erase_10:
   \   00000180   0C00D6E5           LDRB     R0,[R6, #+12]
   \   00000184   010050E3           CMP      R0,#+1
   \   00000188   5E00001A           BNE      ??_Erase_16
   \   0000018C   0090A0E3           MOV      R9,#+0
   \   00000190   01A0A0E3           MOV      R10,#+1
   \   00000194   060000EA           B        ??_Erase_17
   \                     ??_Erase_18:
   \   00000198   080098E5           LDR      R0,[R8, #+8]
   \   0000019C   0C00D0E5           LDRB     R0,[R0, #+12]
   \   000001A0   010050E3           CMP      R0,#+1
   \   000001A4   1C00001A           BNE      ??_Erase_19
   \                     ??_Erase_20:
   \   000001A8   0C90C8E5           STRB     R9,[R8, #+12]
   \                     ??_Erase_21:
   \   000001AC   0570A0E1           MOV      R7,R5
   \   000001B0   045097E5           LDR      R5,[R7, #+4]
   \                     ??_Erase_17:
   \   000001B4   040094E5           LDR      R0,[R4, #+4]
   \   000001B8   000057E1           CMP      R7,R0
   \   000001BC   5000000A           BEQ      ??_Erase_22
   \   000001C0   0C00D7E5           LDRB     R0,[R7, #+12]
   \   000001C4   010050E3           CMP      R0,#+1
   \   000001C8   4D00001A           BNE      ??_Erase_22
   \   000001CC   008095E5           LDR      R8,[R5, #+0]
   \   000001D0   080057E1           CMP      R7,R8
   \   000001D4   2400001A           BNE      ??_Erase_23
   \   000001D8   088095E5           LDR      R8,[R5, #+8]
   \   000001DC   0C00D8E5           LDRB     R0,[R8, #+12]
   \   000001E0   000050E3           CMP      R0,#+0
   \   000001E4   0500001A           BNE      ??_Erase_24
   \   000001E8   0CA0C8E5           STRB     R10,[R8, #+12]
   \   000001EC   0C90C5E5           STRB     R9,[R5, #+12]
   \   000001F0   0510A0E1           MOV      R1,R5
   \   000001F4   0400A0E1           MOV      R0,R4
   \   000001F8   ........           _BLF     ??_Lrotate,??_Lrotate??rA
   \   000001FC   088095E5           LDR      R8,[R5, #+8]
   \                     ??_Erase_24:
   \   00000200   0D00D8E5           LDRB     R0,[R8, #+13]
   \   00000204   000050E3           CMP      R0,#+0
   \   00000208   E7FFFF1A           BNE      ??_Erase_21
   \   0000020C   000098E5           LDR      R0,[R8, #+0]
   \   00000210   0C00D0E5           LDRB     R0,[R0, #+12]
   \   00000214   010050E3           CMP      R0,#+1
   \   00000218   DEFFFF0A           BEQ      ??_Erase_18
   \                     ??_Erase_19:
   \   0000021C   080098E5           LDR      R0,[R8, #+8]
   \   00000220   0C00D0E5           LDRB     R0,[R0, #+12]
   \   00000224   010050E3           CMP      R0,#+1
   \   00000228   0600001A           BNE      ??_Erase_25
   \   0000022C   000098E5           LDR      R0,[R8, #+0]
   \   00000230   0810A0E1           MOV      R1,R8
   \   00000234   0CA0C0E5           STRB     R10,[R0, #+12]
   \   00000238   0C90C8E5           STRB     R9,[R8, #+12]
   \   0000023C   0400A0E1           MOV      R0,R4
   \   00000240   ........           _BLF     ??_Rrotate,??_Rrotate??rA
   \   00000244   088095E5           LDR      R8,[R5, #+8]
   \                     ??_Erase_25:
   \   00000248   0C00D5E5           LDRB     R0,[R5, #+12]
   \   0000024C   0510A0E1           MOV      R1,R5
   \   00000250   0C00C8E5           STRB     R0,[R8, #+12]
   \   00000254   0CA0C5E5           STRB     R10,[R5, #+12]
   \   00000258   080098E5           LDR      R0,[R8, #+8]
   \   0000025C   0CA0C0E5           STRB     R10,[R0, #+12]
   \   00000260   0400A0E1           MOV      R0,R4
   \   00000264   ........           _BLF     ??_Lrotate,??_Lrotate??rA
   \   00000268   250000EA           B        ??_Erase_22
   \                     ??_Erase_23:
   \   0000026C   0C00D8E5           LDRB     R0,[R8, #+12]
   \   00000270   000050E3           CMP      R0,#+0
   \   00000274   0500001A           BNE      ??_Erase_26
   \   00000278   0CA0C8E5           STRB     R10,[R8, #+12]
   \   0000027C   0C90C5E5           STRB     R9,[R5, #+12]
   \   00000280   0510A0E1           MOV      R1,R5
   \   00000284   0400A0E1           MOV      R0,R4
   \   00000288   ........           _BLF     ??_Rrotate,??_Rrotate??rA
   \   0000028C   008095E5           LDR      R8,[R5, #+0]
   \                     ??_Erase_26:
   \   00000290   0D00D8E5           LDRB     R0,[R8, #+13]
   \   00000294   000050E3           CMP      R0,#+0
   \   00000298   C3FFFF1A           BNE      ??_Erase_21
   \   0000029C   080098E5           LDR      R0,[R8, #+8]
   \   000002A0   0C00D0E5           LDRB     R0,[R0, #+12]
   \   000002A4   010050E3           CMP      R0,#+1
   \   000002A8   00009805           LDREQ    R0,[R8, #+0]
   \   000002AC   0C00D005           LDRBEQ   R0,[R0, #+12]
   \   000002B0   01005003           CMPEQ    R0,#+1
   \   000002B4   BBFFFF0A           BEQ      ??_Erase_20
   \   000002B8   000098E5           LDR      R0,[R8, #+0]
   \   000002BC   0C00D0E5           LDRB     R0,[R0, #+12]
   \   000002C0   010050E3           CMP      R0,#+1
   \   000002C4   0600001A           BNE      ??_Erase_27
   \   000002C8   080098E5           LDR      R0,[R8, #+8]
   \   000002CC   0810A0E1           MOV      R1,R8
   \   000002D0   0CA0C0E5           STRB     R10,[R0, #+12]
   \   000002D4   0C90C8E5           STRB     R9,[R8, #+12]
   \   000002D8   0400A0E1           MOV      R0,R4
   \   000002DC   ........           _BLF     ??_Lrotate,??_Lrotate??rA
   \   000002E0   008095E5           LDR      R8,[R5, #+0]
   \                     ??_Erase_27:
   \   000002E4   0C00D5E5           LDRB     R0,[R5, #+12]
   \   000002E8   0510A0E1           MOV      R1,R5
   \   000002EC   0C00C8E5           STRB     R0,[R8, #+12]
   \   000002F0   0CA0C5E5           STRB     R10,[R5, #+12]
   \   000002F4   000098E5           LDR      R0,[R8, #+0]
   \   000002F8   0CA0C0E5           STRB     R10,[R0, #+12]
   \   000002FC   0400A0E1           MOV      R0,R4
   \   00000300   ........           _BLF     ??_Rrotate,??_Rrotate??rA
   \                     ??_Erase_22:
   \   00000304   0CA0C7E5           STRB     R10,[R7, #+12]
   \                     ??_Erase_16:
   \   00000308   100094E5           LDR      R0,[R4, #+16]
   \   0000030C   000050E3           CMP      R0,#+0
   \   00000310   01004012           SUBNE    R0,R0,#+1
   \   00000314   10008415           STRNE    R0,[R4, #+16]
   \   00000318   0600A0E1           MOV      R0,R6
   \   0000031C   F047BDE8           POP      {R4-R10,LR}
   \   00000320   1EFF2FE1           BX       LR               ;; return

   \                                 In segment CODE, align 4, keep-with-next
   \   __??Code32?? __code __interwork __atpcs _Tree<_Tset_traits<unsigned int, less<unsigned int>, allocator<unsigned int>, false>>::iterator _Tree<_Tset_traits<unsigned int, less<unsigned int>, allocator<unsigned int>, false>>::erase(_Tree<_Tset_traits<unsigned int, less<unsigned int>, allocator<unsigned int>, false>>::iterator, _Tree<_Tset_traits<unsigned int, less<unsigned int>, allocator<unsigned int>, false>>::iterator)
   \                     ??erase:
   \   00000000   F0402DE9           PUSH     {R4-R7,LR}
   \   00000004   0040A0E1           MOV      R4,R0
   \   00000008   000094E5           LDR      R0,[R4, #+0]
   \   0000000C   0150A0E1           MOV      R5,R1
   \   00000010   0260A0E1           MOV      R6,R2
   \   00000014   000055E1           CMP      R5,R0
   \   00000018   04005601           CMPEQ    R6,R4
   \   0000001C   0D00001A           BNE      ??erase_1
   \   00000020   0400A0E1           MOV      R0,R4
   \   00000024   ........           _BLF     ??clear,??clear??rA
   \   00000028   000094E5           LDR      R0,[R4, #+0]
   \   0000002C   0C0000EA           B        ??erase_2
   \                     ??erase_3:
   \   00000030   0570A0E1           MOV      R7,R5
   \   00000034   0500A0E1           MOV      R0,R5
   \   00000038   ........           _BLF     ??_IncP,??_IncP??rA
   \   0000003C   0050A0E1           MOV      R5,R0
   \   00000040   0700A0E1           MOV      R0,R7
   \   00000044   ........           _BLF     ??_IncP,??_IncP??rA
   \   00000048   0710A0E1           MOV      R1,R7
   \   0000004C   0400A0E1           MOV      R0,R4
   \   00000050   ........           _BLF     ??_Erase,??_Erase??rA
   \   00000054   ........           _BLF     `??operator delete`,`??operator delete??rA`
   \                     ??erase_1:
   \   00000058   060055E1           CMP      R5,R6
   \   0000005C   F3FFFF1A           BNE      ??erase_3
   \   00000060   0500A0E1           MOV      R0,R5
   \                     ??erase_2:
   \   00000064   F040BDE8           POP      {R4-R7,LR}
   \   00000068   1EFF2FE1           BX       LR               ;; return

   \                                 In segment CODE, align 4, keep-with-next
   \   __??Code32?? __code __interwork __atpcs void _Tree<_Tset_traits<unsigned int, less<unsigned int>, allocator<unsigned int>, false>>::clear()
   \                     ??clear:
   \   00000000   10402DE9           PUSH     {R4,LR}
   \   00000004   0040A0E1           MOV      R4,R0
   \   00000008   041094E5           LDR      R1,[R4, #+4]
   \   0000000C   ........           _BLF     ??_Erase_1,??_Erase??rA_1
   \   00000010   0400A0E1           MOV      R0,R4
   \   00000014   ........           _BLF     ??_Clear,??_Clear??rA
   \   00000018   1040BDE8           POP      {R4,LR}
   \   0000001C   1EFF2FE1           BX       LR               ;; return

   \                                 In segment CODE, align 4, keep-with-next
   \   __??Code32?? __code __interwork __atpcs void _Tree<_Tset_traits<unsigned int, less<unsigned int>, allocator<unsigned int>, false>>::_Copy(_Tree<_Tset_traits<unsigned int, less<unsigned int>, allocator<unsigned int>, false>> const &)
   \                     ??_Copy:
   \   00000000   30402DE9           PUSH     {R4,R5,LR}
   \   00000004   0150A0E1           MOV      R5,R1
   \   00000008   041095E5           LDR      R1,[R5, #+4]
   \   0000000C   0040A0E1           MOV      R4,R0
   \   00000010   0420A0E1           MOV      R2,R4
   \   00000014   ........           _BLF     ??_Copy_1,??_Copy??rA
   \   00000018   040084E5           STR      R0,[R4, #+4]
   \   0000001C   100095E5           LDR      R0,[R5, #+16]
   \   00000020   100084E5           STR      R0,[R4, #+16]
   \   00000024   040094E5           LDR      R0,[R4, #+4]
   \   00000028   0D10D0E5           LDRB     R1,[R0, #+13]
   \   0000002C   000051E3           CMP      R1,#+0
   \   00000030   1000001A           BNE      ??_Copy_2
   \   00000034   0010A0E1           MOV      R1,R0
   \   00000038   000000EA           B        ??_Copy_3
   \                     ??_Copy_4:
   \   0000003C   0210A0E1           MOV      R1,R2
   \                     ??_Copy_3:
   \   00000040   002091E5           LDR      R2,[R1, #+0]
   \   00000044   0D30D2E5           LDRB     R3,[R2, #+13]
   \   00000048   000053E3           CMP      R3,#+0
   \   0000004C   FAFFFF0A           BEQ      ??_Copy_4
   \   00000050   001084E5           STR      R1,[R4, #+0]
   \   00000054   081084E2           ADD      R1,R4,#+8
   \   00000058   000000EA           B        ??_Copy_5
   \                     ??_Copy_6:
   \   0000005C   0200A0E1           MOV      R0,R2
   \                     ??_Copy_5:
   \   00000060   082090E5           LDR      R2,[R0, #+8]
   \   00000064   0D30D2E5           LDRB     R3,[R2, #+13]
   \   00000068   000053E3           CMP      R3,#+0
   \   0000006C   FAFFFF0A           BEQ      ??_Copy_6
   \   00000070   000081E5           STR      R0,[R1, #+0]
   \   00000074   010000EA           B        ??_Copy_7
   \                     ??_Copy_2:
   \   00000078   004084E5           STR      R4,[R4, #+0]
   \   0000007C   084084E5           STR      R4,[R4, #+8]
   \                     ??_Copy_7:
   \   00000080   3040BDE8           POP      {R4,R5,LR}
   \   00000084   1EFF2FE1           BX       LR               ;; return

   \                                 In segment CODE, align 4, keep-with-next
   \   __??Code32?? __code __interwork __atpcs _Tree<_Tset_traits<unsigned int, less<unsigned int>, allocator<unsigned int>, false>>::_Nodeptr _Tree<_Tset_traits<unsigned int, less<unsigned int>, allocator<unsigned int>, false>>::_Copy(_Tree<_Tset_traits<unsigned int, less<unsigned int>, allocator<unsigned int>, false>>::_Nodeptr, _Tree<_Tset_traits<unsigned int, less<unsigned int>, allocator<unsigned int>, false>>::_Nodeptr)
   \                     ??_Copy_1:
   \   00000000   F0472DE9           PUSH     {R4-R10,LR}
   \   00000004   0040A0E1           MOV      R4,R0
   \   00000008   0150A0E1           MOV      R5,R1
   \   0000000C   0D00D5E5           LDRB     R0,[R5, #+13]
   \   00000010   0280A0E1           MOV      R8,R2
   \   00000014   0460A0E1           MOV      R6,R4
   \   00000018   000050E3           CMP      R0,#+0
   \   0000001C   1900001A           BNE      ??_Copy_8
   \   00000020   0C90D5E5           LDRB     R9,[R5, #+12]
   \   00000024   10A095E5           LDR      R10,[R5, #+16]
   \   00000028   1400A0E3           MOV      R0,#+20
   \   0000002C   ........           _BLF     `??operator new`,`??operator new??rA`
   \   00000030   0070B0E1           MOVS     R7,R0
   \   00000034   0600000A           BEQ      ??_Copy_9
   \   00000038   004087E5           STR      R4,[R7, #+0]
   \   0000003C   048087E5           STR      R8,[R7, #+4]
   \   00000040   084087E5           STR      R4,[R7, #+8]
   \   00000044   0C90C7E5           STRB     R9,[R7, #+12]
   \   00000048   0000A0E3           MOV      R0,#+0
   \   0000004C   0D00C7E5           STRB     R0,[R7, #+13]
   \   00000050   10A087E5           STR      R10,[R7, #+16]
   \                     ??_Copy_9:
   \   00000054   0D00D6E5           LDRB     R0,[R6, #+13]
   \   00000058   001095E5           LDR      R1,[R5, #+0]
   \   0000005C   0720A0E1           MOV      R2,R7
   \   00000060   000050E3           CMP      R0,#+0
   \   00000064   0760A011           MOVNE    R6,R7
   \   00000068   0400A0E1           MOV      R0,R4
   \   0000006C   E3FFFFEB           BL       ??_Copy_1
   \   00000070   000087E5           STR      R0,[R7, #+0]
   \   00000074   081095E5           LDR      R1,[R5, #+8]
   \   00000078   0720A0E1           MOV      R2,R7
   \   0000007C   0400A0E1           MOV      R0,R4
   \   00000080   DEFFFFEB           BL       ??_Copy_1
   \   00000084   080087E5           STR      R0,[R7, #+8]
   \                     ??_Copy_8:
   \   00000088   0600A0E1           MOV      R0,R6
   \   0000008C   F047BDE8           POP      {R4-R10,LR}
   \   00000090   1EFF2FE1           BX       LR               ;; return

   \                                 In segment CODE, align 4, keep-with-next
   \   __??Code32?? __code __interwork __atpcs void _Tree<_Tset_traits<unsigned int, less<unsigned int>, allocator<unsigned int>, false>>::_Erase(_Tree<_Tset_traits<unsigned int, less<unsigned int>, allocator<unsigned int>, false>>::_Nodeptr)
   \                     ??_Erase_1:
   \   00000000   70402DE9           PUSH     {R4-R6,LR}
   \   00000004   0040A0E1           MOV      R4,R0
   \   00000008   0150A0E1           MOV      R5,R1
   \   0000000C   0560A0E1           MOV      R6,R5
   \   00000010   060000EA           B        ??_Erase_28
   \                     ??_Erase_29:
   \   00000014   081096E5           LDR      R1,[R6, #+8]
   \   00000018   0400A0E1           MOV      R0,R4
   \   0000001C   F7FFFFEB           BL       ??_Erase_1
   \   00000020   006096E5           LDR      R6,[R6, #+0]
   \   00000024   0500A0E1           MOV      R0,R5
   \   00000028   ........           _BLF     `??operator delete`,`??operator delete??rA`
   \   0000002C   0650A0E1           MOV      R5,R6
   \                     ??_Erase_28:
   \   00000030   0D00D6E5           LDRB     R0,[R6, #+13]
   \   00000034   000050E3           CMP      R0,#+0
   \   00000038   F5FFFF0A           BEQ      ??_Erase_29
   \   0000003C   7040BDE8           POP      {R4-R6,LR}
   \   00000040   1EFF2FE1           BX       LR               ;; return

   \                                 In segment CODE, align 4, keep-with-next
   \   __??Code32?? __code __interwork __atpcs set<unsigned int> &set<unsigned int>::operator=(set<unsigned int> const &)
   \                     `??operator=`:
   \   00000000   30402DE9           PUSH     {R4,R5,LR}
   \   00000004   0040A0E1           MOV      R4,R0
   \   00000008   0150A0E1           MOV      R5,R1
   \   0000000C   050054E1           CMP      R4,R5
   \   00000010   0500000A           BEQ      `??operator=_1`
   \   00000014   001094E5           LDR      R1,[R4, #+0]
   \   00000018   0420A0E1           MOV      R2,R4
   \   0000001C   ........           _BLF     ??erase,??erase??rA
   \   00000020   0510A0E1           MOV      R1,R5
   \   00000024   0400A0E1           MOV      R0,R4
   \   00000028   ........           _BLF     ??_Copy,??_Copy??rA_1
   \                     `??operator=_1`:
   \   0000002C   0400A0E1           MOV      R0,R4
   \   00000030   3040BDE8           POP      {R4,R5,LR}
   \   00000034   1EFF2FE1           BX       LR               ;; return

   \                                 In segment CODE, align 4, keep-with-next
   \   __??Code32?? __code __interwork __atpcs void operator+(string const &, string const &)
   \                     `??operator+`:
   \   00000000   30402DE9           PUSH     {R4,R5,LR}
   \   00000004   1CD04DE2           SUB      SP,SP,#+28
   \   00000008   0040A0E1           MOV      R4,R0
   \   0000000C   0250A0E1           MOV      R5,R2
   \   00000010   0D00A0E1           MOV      R0,SP
   \   00000014   ........           _BLF     ??string,??string??rA
   \   00000018   34109FE5           LDR      R1,`??operator+_2`  ;; ??npos
   \   0000001C   0020A0E3           MOV      R2,#+0
   \   00000020   003091E5           LDR      R3,[R1, #+0]
   \   00000024   0510A0E1           MOV      R1,R5
   \   00000028   ........           _BLF     ??append,??append??rA
   \   0000002C   0010A0E1           MOV      R1,R0
   \   00000030   0400A0E1           MOV      R0,R4
   \   00000034   ........           _BLF     ??string,??string??rA
   \   00000038   0020A0E3           MOV      R2,#+0
   \   0000003C   0110A0E3           MOV      R1,#+1
   \   00000040   0D00A0E1           MOV      R0,SP
   \   00000044   ........           _BLF     ??_Tidy,??_Tidy??rA
   \   00000048   1CD08DE2           ADD      SP,SP,#+28
   \   0000004C   3040BDE8           POP      {R4,R5,LR}
   \   00000050   1EFF2FE1           BX       LR               ;; return
   \                     `??operator+_2`:
   \   00000054   ........           DC32     ??npos

   \                                 In segment CODE, align 4, keep-with-next
   \   __??Code32?? __code __interwork __atpcs void operator+(string const &, char const *)
   \                     `??operator+_1`:
   \   00000000   70402DE9           PUSH     {R4-R6,LR}
   \   00000004   1CD04DE2           SUB      SP,SP,#+28
   \   00000008   0040A0E1           MOV      R4,R0
   \   0000000C   0250A0E1           MOV      R5,R2
   \   00000010   0D00A0E1           MOV      R0,SP
   \   00000014   ........           _BLF     ??string,??string??rA
   \   00000018   0060A0E1           MOV      R6,R0
   \   0000001C   0500A0E1           MOV      R0,R5
   \   00000020   ........           _BLF     strlen,??strlen??rA
   \   00000024   0020A0E1           MOV      R2,R0
   \   00000028   0510A0E1           MOV      R1,R5
   \   0000002C   0600A0E1           MOV      R0,R6
   \   00000030   ........           _BLF     ??append_1,??append??rA_1
   \   00000034   0010A0E1           MOV      R1,R0
   \   00000038   0400A0E1           MOV      R0,R4
   \   0000003C   ........           _BLF     ??string,??string??rA
   \   00000040   0020A0E3           MOV      R2,#+0
   \   00000044   0110A0E3           MOV      R1,#+1
   \   00000048   0D00A0E1           MOV      R0,SP
   \   0000004C   ........           _BLF     ??_Tidy,??_Tidy??rA
   \   00000050   1CD08DE2           ADD      SP,SP,#+28
   \   00000054   7040BDE8           POP      {R4-R6,LR}
   \   00000058   1EFF2FE1           BX       LR               ;; return

   \                                 In segment CODE, align 4, keep-with-next
   \   __??Code32?? __code __interwork __atpcs AnsiString::~AnsiString()
   \                     `?~AnsiString`:
   \   00000000   00402DE9           PUSH     {LR}
   \   00000004   0020A0E3           MOV      R2,#+0
   \   00000008   0110A0E3           MOV      R1,#+1
   \   0000000C   ........           _BLF     ??_Tidy,??_Tidy??rA
   \   00000010   0040BDE8           POP      {LR}
   \   00000014   1EFF2FE1           BX       LR               ;; return
      2          #pragma hdrstop
      3          #ifdef BORLAND
      4              #pragma package(smart_init)
      5          #endif
      6          //#include "lwip/inet.h"
      7          #ifndef ANTDUSIM
      8          #include "anpro_net.h"
      9          #else
     10          #define ANPRO_NET_GATEWAY               1
     11          #define ANPRO_NET_TCU_MASTER            30
     12          #define ANPRO_NET_TCU_MASTER_END        49  // Not in use
     13          #define ANPRO_NET_TCU_SLAVE_START       50
     14          #define ANPRO_NET_TCU_SLAVE_END         69
     15          #define ANPRO_NET_PC_START              80
     16          #define ANPRO_NET_PC_END                149
     17          #define ANPRO_NET_TDU_START             150
     18          #define ANPRO_NET_TDU_END               199
     19          
     20          #endif
     21          
     22          #define ANPRO_TCP_SERVER_PORT           15533
     23          #define ANPRO_NET_UDP_PORT              15534
     24          #define ANPRO_TCP_FLASH_PROG_PORT       16000
     25          
     26          //---------------------------------------------------------------------------
     27          PROProjectInfo *PROProjectInfo::PROProjectInfoPtr = NULL;
     28          int PROProjectInfo::AlarmSystemStartUpDelay     = ALARM_SYSTEM_DELAY;
     29          bool PROProjectInfo::isChemGasProject           = false;
     30          
     31          float PROProjectInfo::LengthBetweenPP           = 0.0;
     32          float PROProjectInfo::LengthBetweenMarks        = 0.0;
     33          float PROProjectInfo::Width                     = 0.0;
     34          int PROProjectInfo::NumberOfPRO                 = 0;
     35          int PROProjectInfo::DecimalPointVolume          = 1;
     36          int PROProjectInfo::DecimalPointWeight          = 1;

   \                                 In segment CODE, align 4, keep-with-next
   \   static __??Code32?? __intrinsic __code __interwork __atpcs void __sti__routine()
   \                     ??__sti__routine:
   \   00000000   30402DE9           PUSH     {R4,R5,LR}
     37          AnsiString PROProjectInfo::ProjOwner;
   \   00000004   ........           LDR      R4,??DataTable7  ;; ??UserUnits
   \   00000008   64509FE5           LDR      R5,??__sti__routine_1  ;; `?<Constant "192.168.227.0">`
   \   0000000C   620F84E2           ADD      R0,R4,#+392
   \   00000010   ........           _BLF     ??AnsiString,??AnsiString??rA
   \   00000014   100085E2           ADD      R0,R5,#+16
   \   00000018   ........           _BLF     __record_needed_destruction,??__record_needed_destruction??rA
     38          AnsiString PROProjectInfo::ProjTypeName;
   \   0000001C   690F84E2           ADD      R0,R4,#+420
   \   00000020   ........           _BLF     ??AnsiString,??AnsiString??rA
   \   00000024   1C0085E2           ADD      R0,R5,#+28
   \   00000028   ........           _BLF     __record_needed_destruction,??__record_needed_destruction??rA
     39          AnsiString PROProjectInfo::ProjectName;
   \   0000002C   700F84E2           ADD      R0,R4,#+448
   \   00000030   ........           _BLF     ??AnsiString,??AnsiString??rA
   \   00000034   280085E2           ADD      R0,R5,#+40
   \   00000038   ........           _BLF     __record_needed_destruction,??__record_needed_destruction??rA
     40          AnsiString PROProjectInfo::CallSign;
   \   0000003C   770F84E2           ADD      R0,R4,#+476
   \   00000040   ........           _BLF     ??AnsiString,??AnsiString??rA
   \   00000044   340085E2           ADD      R0,R5,#+52
   \   00000048   ........           _BLF     __record_needed_destruction,??__record_needed_destruction??rA
     41          AnsiString PROProjectInfo::IMONumber;
   \   0000004C   7E0F84E2           ADD      R0,R4,#+504
   \   00000050   ........           _BLF     ??AnsiString,??AnsiString??rA
   \   00000054   400085E2           ADD      R0,R5,#+64
   \   00000058   ........           _BLF     __record_needed_destruction,??__record_needed_destruction??rA
     42          float PROProjectInfo::NoiseLimCargoB            = LEVEL_NOISE_LIMIT_CARGO_B;
     43          float PROProjectInfo::NoiseLimCargoU            = LEVEL_NOISE_LIMIT_CARGO_U;
     44          float PROProjectInfo::NoiseLimBallastB          = LEVEL_NOISE_LIMIT_BALLAST_B;
     45          float PROProjectInfo::NoiseLimBallastU          = LEVEL_NOISE_LIMIT_BALLAST_U;
     46          float PROProjectInfo::NoiseLimServiceB          = LEVEL_NOISE_LIMIT_SERVICE_B;
     47          float PROProjectInfo::NoiseLimServiceU          = LEVEL_NOISE_LIMIT_SERVICE_U;
     48          float PROProjectInfo::NoiseLimDefaultB          = LEVEL_NOISE_LIMIT_DEFAULT_B;
     49          float PROProjectInfo::NoiseLimDefaultU          = LEVEL_NOISE_LIMIT_DEFAULT_U;
     50          float PROProjectInfo::NoiseLimDefaultR          = LEVEL_NOISE_LIMIT_RADAR;
     51          float PROProjectInfo::NoiseLimVoidSpace         = LEVEL_NOISE_LIMIT_VOIDSPACE;
     52          
     53          float PROProjectInfo::OverfillLimit             = LIMIT_OVERFILL;
     54          float PROProjectInfo::HighLevelLimit            = LIMIT_HIGH_LEVEL;
     55          float PROProjectInfo::LowLevelLimit             = LIMIT_LOW_LEVEL;
     56          float PROProjectInfo::LoLoLevelLimit            = LIMIT_LOLO_LEVEL;
     57          float PROProjectInfo::VoidSpaceLimit            = LIMIT_VOIDSPACE;
     58          float PROProjectInfo::LevelDiffLimit            = LIMIT_LEVEL_DIFF;
     59          
     60          float PROProjectInfo::HighTempLimit             = LIMIT_HIGH_TEMP;
     61          float PROProjectInfo::LowTempLimit              = LIMIT_LOW_TEMP;
     62          float PROProjectInfo::HighTankPressLimit        = LIMIT_HIGH_TANKPRESS;
     63          float PROProjectInfo::IntLowTankPressLimit1     = LIMIT_LOW_TANKPRESS;
     64          float PROProjectInfo::IntHighTankPressLimit1    = LIMIT_HIGH_TANKPRESS;
     65          float PROProjectInfo::IntLowTankPressLimit2     = LIMIT_LOW_TANKPRESS;
     66          float PROProjectInfo::IntHighTankPressLimit2    = LIMIT_HIGH_TANKPRESS;
     67          float PROProjectInfo::LowTankPressLimit         = LIMIT_LOW_TANKPRESS;
     68          float PROProjectInfo::HighVapourRetLimit     	= LIMIT_HIGH_VAPOUR;   // Should be 90% of PV
     69          float PROProjectInfo::LowVapourRetLimit      	= LIMIT_LOW_VAPOUR;    // Should be 90% of PV
     70          float PROProjectInfo::HighPressVacLimit         = LIMIT_HIGH_TANKPRESS; // Should be 110% of PV
     71          float PROProjectInfo::LowPressVacLimit          = LIMIT_LOW_TANKPRESS;  // Should be 110% of PV
     72          float PROProjectInfo::HighIGP_Limit             = LIMIT_HIGH_INERT_GAS_PRESS; // Should be 90% of PV
     73          float PROProjectInfo::LowIGP_Limit              = LIMIT_LOW_INERT_GAS_PRESS ; // should be 100 mm H2O
     74          float PROProjectInfo::HiHiLinePressLimit        = LIMIT_HIHI_LINEPRESS;  // Should be set according to max allowed pressure
     75          float PROProjectInfo::HighLinePressLimit        = LIMIT_HIGH_LINEPRESS;  // Should be set according to max allowed pressure intially
     76          float PROProjectInfo::LowLinePressLimit         = LIMIT_LOW_LINEPRESS;
     77          
     78          
     79          bool PROProjectInfo::hasHighVapourRetLimit   	= false;
     80          bool PROProjectInfo::hasLowVapourRetLimit   	= false;
     81          bool PROProjectInfo::hasHighPressVacLimit       = false;
     82          bool PROProjectInfo::hasLowPressVacLimit        = false;
     83          bool PROProjectInfo::hasHighIGP_Limit           = false;
     84          bool PROProjectInfo::hasLowIGP_Limit            = false;
     85          bool PROProjectInfo::hasLoLoLevelLimit          = false;
     86          
     87          
     88          bool PROProjectInfo::OverfillLocked             = false;     // Changed by EHS from false 26.01.2022
     89          bool PROProjectInfo::HighLevelLocked            = false;
     90          bool PROProjectInfo::LowLevelLocked             = false;
     91          bool PROProjectInfo::LowLowLevelLocked          = false;
     92          bool PROProjectInfo::HighTempLocked             = false;
     93          bool PROProjectInfo::LowTempLocked              = false;
     94          bool PROProjectInfo::HighTankPressLocked        = false;
     95          bool PROProjectInfo::LowTankPressLocked         = false;
     96          bool PROProjectInfo::HighIGP_Locked             = false;
     97          bool PROProjectInfo::LowIGP_Locked              = false;
     98          bool PROProjectInfo::HighLinePressLocked        = false;
     99          bool PROProjectInfo::LowLinePressLocked         = false;
    100          bool PROProjectInfo::IntegratedLoadingComputer  = false;
    101          
    102          bool PROProjectInfo::IsInlandVessel             = false;
    103          bool PROProjectInfo::IsCustodyTransferSys       = false;
    104          int  PROProjectInfo::RequestConfig              = FLASH_RET_MODE_NONE;
    105          bool PROProjectInfo::L_English                  = true;    // Assume always true
    106          bool PROProjectInfo::L_Norwegian                = false;
    107          bool PROProjectInfo::L_German                   = false;
    108          bool PROProjectInfo::L_French                   = false;
    109          bool PROProjectInfo::L_Spanish                  = false;
    110          bool PROProjectInfo::L_Portuguese               = false;
    111          bool PROProjectInfo::L_Dutch                    = false;
    112          
    113          
    114          float    PROProjectInfo::TankMaxLoadTime          = DEFAULT_LOAD_TIME;
    115          int      PROProjectInfo::NumberOfHandheldUnits    = 0;
    116          bool     PROProjectInfo::AutoAcknowledge          = false;
    117          int      PROProjectInfo::ProjectType              = 0;
    118          
    119          
    120          bool     PROProjectInfo::SimulateIO               = false;
    121          bool     PROProjectInfo::SimulateFixedValues      = false;
    122          
    123          float    PROProjectInfo::Default_SwitchOn_mA      = LEVELSWITCH_VALCOM_MA_ON;
    124          float    PROProjectInfo::Default_SwitchOff_mA     = LEVELSWITCH_VALCOM_MA_OFF;
    125          float    PROProjectInfo::Default_SwitchWindow     = LEVELSWITCH_VALCOM_MA_WIN;
    126          
    127          float    PROProjectInfo::CableResistanceShip      = SHIP_BOARD_CABLE_RES;
    128          float    PROProjectInfo::CableResistanceSensor    = TEMP_SENS_CABLE_RES;
    129          bool     PROProjectInfo::hasCableResistanceShip   = false;
    130          bool     PROProjectInfo::hasCableResistanceSensor = false;
    131          
    132          bool     PROProjectInfo::UseTemperatureWindow     = false;
    133          unsigned PROProjectInfo::TemperatureWindowMaxCnt  = MAX_OUTSIDE_WIN_CNT;
    134          float    PROProjectInfo::TemperatureWindowTmpLim  = MAX_OUTSIDE_TEMP_LIM;
    135          
    136          AnsiString PROProjectInfo::IP_Address("192.168.227.0");
   \   0000005C   0510A0E1           MOV      R1,R5
   \   00000060   740084E2           ADD      R0,R4,#+116
   \   00000064   ........           _BLF     ??AnsiString_1,??AnsiString??rA_1
   \   00000068   4C0085E2           ADD      R0,R5,#+76
   \   0000006C   ........           _BLF     __record_needed_destruction,??__record_needed_destruction??rA
   \   00000070   ........           B        ?Subroutine13
   \                     ??__sti__routine_1:
   \   00000074   ........           DC32     `?<Constant "192.168.227.0">`

   \                                 In segment DATA_C, align 4, align-sorted
   \                     `?<Constant "192.168.227.0">`:
   \   00000000   3139322E3136       DC8 "192.168.227.0"
   \              382E3232372E
   \              3000        
   \   0000000E   0000               DC8 0, 0
   \   00000010   ............       DC32 ?_1, ??ProjOwner, `?~AnsiString`
   \              ............
   \   0000001C   ............       DC32 ?_3, ??ProjTypeName, `?~AnsiString`
   \              ............
   \   00000028   ............       DC32 ?_5, ??ProjectName, `?~AnsiString`
   \              ............
   \   00000034   ............       DC32 ?_7, ??CallSign, `?~AnsiString`
   \              ............
   \   00000040   ............       DC32 ?_9, ??IMONumber, `?~AnsiString`
   \              ............
   \   0000004C   ............       DC32 ?_11, ??IP_Address, `?~AnsiString`
   \              ............

   \                                 In segment DATA_I, align 4, align-sorted
    137          U32  PROProjectInfo::IP_AddressMain            = 0;
    138          U8   PROProjectInfo::IP_AddressGateWay         = ANPRO_NET_GATEWAY;
    139          U8   PROProjectInfo::IP_AddressTCU_Master      = ANPRO_NET_TCU_MASTER;
    140          U8   PROProjectInfo::IP_AddressTCUSlaveStart   = ANPRO_NET_TCU_SLAVE_START;
    141          U8   PROProjectInfo::IP_AddressTCUSlaveEnd     = ANPRO_NET_TCU_SLAVE_END;
    142          U8   PROProjectInfo::IP_AddressTDUStart        = ANPRO_NET_TDU_START;
    143          U8   PROProjectInfo::IP_AddressTDUEnd          = ANPRO_NET_TDU_END;
    144          U8   PROProjectInfo::IP_AddressPCStart         = ANPRO_NET_PC_START;
    145          U8   PROProjectInfo::IP_AddressPCEnd           = ANPRO_NET_PC_END;
    146          U32  PROProjectInfo::IP_TCP_ServerPort         = ANPRO_TCP_SERVER_PORT;
    147          U32  PROProjectInfo::IP_UDP_NetPort            = ANPRO_NET_UDP_PORT;
    148          //U32  PROProjectInfo::IP_TCP_FlashPort          = ANPRO_TCP_FLASH_PROG_PORT;
    149          
    150          bool PROProjectInfo::PressLim_mBar = false;
    151          
    152          
    153          int PROProjectInfo::UserUnits[UNIT_SETS] = {
   \                     ??UserUnits:
   \   00000000                      DS8 116
   \   00000074                      REQUIRE `?<Initializer for UserUnits>`
   \                     ??IP_Address:
   \   00000074                      DS8 28
   \   00000090                      REQUIRE `?<Initializer for IP_Address>`
   \                     ??PROProjectInfoPtr:
   \   00000090                      DS8 4
   \   00000094                      REQUIRE `?<Initializer for PROProjectInfoPtr>`
   \                     ??AlarmSystemStartUpDelay:
   \   00000094                      DS8 4
   \   00000098                      REQUIRE `?<Initializer for AlarmSystemStartUpDelay>`
   \                     ??LengthBetweenPP:
   \   00000098                      DS8 4
   \   0000009C                      REQUIRE `?<Initializer for LengthBetweenPP>`
   \                     ??LengthBetweenMarks:
   \   0000009C                      DS8 4
   \   000000A0                      REQUIRE `?<Initializer for LengthBetweenMarks>`
   \                     ??Width:
   \   000000A0                      DS8 4
   \   000000A4                      REQUIRE `?<Initializer for Width>`
   \                     ??NumberOfPRO:
   \   000000A4                      DS8 4
   \   000000A8                      REQUIRE `?<Initializer for NumberOfPRO>`
   \                     ??DecimalPointVolume:
   \   000000A8                      DS8 4
   \   000000AC                      REQUIRE `?<Initializer for DecimalPointVolume>`
   \                     ??DecimalPointWeight:
   \   000000AC                      DS8 4
   \   000000B0                      REQUIRE `?<Initializer for DecimalPointWeight>`
   \                     ??NoiseLimCargoB:
   \   000000B0                      DS8 4
   \   000000B4                      REQUIRE `?<Initializer for NoiseLimCargoB>`
   \                     ??NoiseLimCargoU:
   \   000000B4                      DS8 4
   \   000000B8                      REQUIRE `?<Initializer for NoiseLimCargoU>`
   \                     ??NoiseLimBallastB:
   \   000000B8                      DS8 4
   \   000000BC                      REQUIRE `?<Initializer for NoiseLimBallastB>`
   \                     ??NoiseLimBallastU:
   \   000000BC                      DS8 4
   \   000000C0                      REQUIRE `?<Initializer for NoiseLimBallastU>`
   \                     ??NoiseLimServiceB:
   \   000000C0                      DS8 4
   \   000000C4                      REQUIRE `?<Initializer for NoiseLimServiceB>`
   \                     ??NoiseLimServiceU:
   \   000000C4                      DS8 4
   \   000000C8                      REQUIRE `?<Initializer for NoiseLimServiceU>`
   \                     ??NoiseLimDefaultR:
   \   000000C8                      DS8 4
   \   000000CC                      REQUIRE `?<Initializer for NoiseLimDefaultR>`
   \                     ??NoiseLimVoidSpace:
   \   000000CC                      DS8 4
   \   000000D0                      REQUIRE `?<Initializer for NoiseLimVoidSpace>`
   \                     ??OverfillLimit:
   \   000000D0                      DS8 4
   \   000000D4                      REQUIRE `?<Initializer for OverfillLimit>`
   \                     ??HighLevelLimit:
   \   000000D4                      DS8 4
   \   000000D8                      REQUIRE `?<Initializer for HighLevelLimit>`
   \                     ??LowLevelLimit:
   \   000000D8                      DS8 4
   \   000000DC                      REQUIRE `?<Initializer for LowLevelLimit>`
   \                     ??LoLoLevelLimit:
   \   000000DC                      DS8 4
   \   000000E0                      REQUIRE `?<Initializer for LoLoLevelLimit>`
   \                     ??VoidSpaceLimit:
   \   000000E0                      DS8 4
   \   000000E4                      REQUIRE `?<Initializer for VoidSpaceLimit>`
   \                     ??LevelDiffLimit:
   \   000000E4                      DS8 4
   \   000000E8                      REQUIRE `?<Initializer for LevelDiffLimit>`
   \                     ??HighTempLimit:
   \   000000E8                      DS8 4
   \   000000EC                      REQUIRE `?<Initializer for HighTempLimit>`
   \                     ??LowTempLimit:
   \   000000EC                      DS8 4
   \   000000F0                      REQUIRE `?<Initializer for LowTempLimit>`
   \                     ??HighTankPressLimit:
   \   000000F0                      DS8 4
   \   000000F4                      REQUIRE `?<Initializer for HighTankPressLimit>`
   \                     ??IntLowTankPressLimit1:
   \   000000F4                      DS8 4
   \   000000F8                      REQUIRE `?<Initializer for IntLowTankPressLimit1>`
   \                     ??IntHighTankPressLimit1:
   \   000000F8                      DS8 4
   \   000000FC                      REQUIRE `?<Initializer for IntHighTankPressLimit1>`
   \                     ??IntLowTankPressLimit2:
   \   000000FC                      DS8 4
   \   00000100                      REQUIRE `?<Initializer for IntLowTankPressLimit2>`
   \                     ??IntHighTankPressLimit2:
   \   00000100                      DS8 4
   \   00000104                      REQUIRE `?<Initializer for IntHighTankPressLimit2>`
   \                     ??LowTankPressLimit:
   \   00000104                      DS8 4
   \   00000108                      REQUIRE `?<Initializer for LowTankPressLimit>`
   \                     ??HighVapourRetLimit:
   \   00000108                      DS8 4
   \   0000010C                      REQUIRE `?<Initializer for HighVapourRetLimit>`
   \                     ??LowVapourRetLimit:
   \   0000010C                      DS8 4
   \   00000110                      REQUIRE `?<Initializer for LowVapourRetLimit>`
   \                     ??HighPressVacLimit:
   \   00000110                      DS8 4
   \   00000114                      REQUIRE `?<Initializer for HighPressVacLimit>`
   \                     ??LowPressVacLimit:
   \   00000114                      DS8 4
   \   00000118                      REQUIRE `?<Initializer for LowPressVacLimit>`
   \                     ??HighIGP_Limit:
   \   00000118                      DS8 4
   \   0000011C                      REQUIRE `?<Initializer for HighIGP_Limit>`
   \                     ??LowIGP_Limit:
   \   0000011C                      DS8 4
   \   00000120                      REQUIRE `?<Initializer for LowIGP_Limit>`
   \                     ??HiHiLinePressLimit:
   \   00000120                      DS8 4
   \   00000124                      REQUIRE `?<Initializer for HiHiLinePressLimit>`
   \                     ??HighLinePressLimit:
   \   00000124                      DS8 4
   \   00000128                      REQUIRE `?<Initializer for HighLinePressLimit>`
   \                     ??LowLinePressLimit:
   \   00000128                      DS8 4
   \   0000012C                      REQUIRE `?<Initializer for LowLinePressLimit>`
   \                     ??RequestConfig:
   \   0000012C                      DS8 4
   \   00000130                      REQUIRE `?<Initializer for RequestConfig>`
   \                     ??TankMaxLoadTime:
   \   00000130                      DS8 4
   \   00000134                      REQUIRE `?<Initializer for TankMaxLoadTime>`
   \                     ??NumberOfHandheldUnits:
   \   00000134                      DS8 4
   \   00000138                      REQUIRE `?<Initializer for NumberOfHandheldUnits>`
   \                     ??ProjectType:
   \   00000138                      DS8 4
   \   0000013C                      REQUIRE `?<Initializer for ProjectType>`
   \                     ??CableResistanceShip:
   \   0000013C                      DS8 4
   \   00000140                      REQUIRE `?<Initializer for CableResistanceShip>`
   \                     ??CableResistanceSensor:
   \   00000140                      DS8 4
   \   00000144                      REQUIRE `?<Initializer for CableResistanceSensor>`
   \                     ??TemperatureWindowMaxCnt:
   \   00000144                      DS8 4
   \   00000148                      REQUIRE `?<Initializer for TemperatureWindowMaxCnt>`
   \                     ??TemperatureWindowTmpLim:
   \   00000148                      DS8 4
   \   0000014C                      REQUIRE `?<Initializer for TemperatureWindowTmpLim>`
   \                     ??IP_AddressMain:
   \   0000014C                      DS8 4
   \   00000150                      REQUIRE `?<Initializer for IP_AddressMain>`
   \                     ??IP_TCP_ServerPort:
   \   00000150                      DS8 4
   \   00000154                      REQUIRE `?<Initializer for IP_TCP_ServerPort>`
   \                     ??IP_UDP_NetPort:
   \   00000154                      DS8 4
   \   00000158                      REQUIRE `?<Initializer for IP_UDP_NetPort>`
   \                     ??isChemGasProject:
   \   00000158                      DS8 1
   \   00000159                      REQUIRE `?<Initializer for isChemGasProject>`
   \                     ??hasHighVapourRetLimit:
   \   00000159                      DS8 1
   \   0000015A                      REQUIRE `?<Initializer for hasHighVapourRetLimit>`
   \                     ??hasLowVapourRetLimit:
   \   0000015A                      DS8 1
   \   0000015B                      REQUIRE `?<Initializer for hasLowVapourRetLimit>`
   \                     ??hasHighPressVacLimit:
   \   0000015B                      DS8 1
   \   0000015C                      REQUIRE `?<Initializer for hasHighPressVacLimit>`
   \                     ??hasLowPressVacLimit:
   \   0000015C                      DS8 1
   \   0000015D                      REQUIRE `?<Initializer for hasLowPressVacLimit>`
   \                     ??hasHighIGP_Limit:
   \   0000015D                      DS8 1
   \   0000015E                      REQUIRE `?<Initializer for hasHighIGP_Limit>`
   \                     ??hasLowIGP_Limit:
   \   0000015E                      DS8 1
   \   0000015F                      REQUIRE `?<Initializer for hasLowIGP_Limit>`
   \                     ??hasLoLoLevelLimit:
   \   0000015F                      DS8 1
   \   00000160                      REQUIRE `?<Initializer for hasLoLoLevelLimit>`
   \                     ??OverfillLocked:
   \   00000160                      DS8 1
   \   00000161                      REQUIRE `?<Initializer for OverfillLocked>`
   \                     ??HighLevelLocked:
   \   00000161                      DS8 1
   \   00000162                      REQUIRE `?<Initializer for HighLevelLocked>`
   \                     ??LowLevelLocked:
   \   00000162                      DS8 1
   \   00000163                      REQUIRE `?<Initializer for LowLevelLocked>`
   \                     ??LowLowLevelLocked:
   \   00000163                      DS8 1
   \   00000164                      REQUIRE `?<Initializer for LowLowLevelLocked>`
   \                     ??HighTempLocked:
   \   00000164                      DS8 1
   \   00000165                      REQUIRE `?<Initializer for HighTempLocked>`
   \                     ??LowTempLocked:
   \   00000165                      DS8 1
   \   00000166                      REQUIRE `?<Initializer for LowTempLocked>`
   \                     ??HighTankPressLocked:
   \   00000166                      DS8 1
   \   00000167                      REQUIRE `?<Initializer for HighTankPressLocked>`
   \                     ??LowTankPressLocked:
   \   00000167                      DS8 1
   \   00000168                      REQUIRE `?<Initializer for LowTankPressLocked>`
   \                     ??HighIGP_Locked:
   \   00000168                      DS8 1
   \   00000169                      REQUIRE `?<Initializer for HighIGP_Locked>`
   \                     ??LowIGP_Locked:
   \   00000169                      DS8 1
   \   0000016A                      REQUIRE `?<Initializer for LowIGP_Locked>`
   \                     ??HighLinePressLocked:
   \   0000016A                      DS8 1
   \   0000016B                      REQUIRE `?<Initializer for HighLinePressLocked>`
   \                     ??LowLinePressLocked:
   \   0000016B                      DS8 1
   \   0000016C                      REQUIRE `?<Initializer for LowLinePressLocked>`
   \                     ??IntegratedLoadingComputer:
   \   0000016C                      DS8 1
   \   0000016D                      REQUIRE `?<Initializer for IntegratedLoadingComputer>`
   \                     ??IsInlandVessel:
   \   0000016D                      DS8 1
   \   0000016E                      REQUIRE `?<Initializer for IsInlandVessel>`
   \                     ??IsCustodyTransferSys:
   \   0000016E                      DS8 1
   \   0000016F                      REQUIRE `?<Initializer for IsCustodyTransferSys>`
   \                     ??L_English:
   \   0000016F                      DS8 1
   \   00000170                      REQUIRE `?<Initializer for L_English>`
   \                     ??L_Norwegian:
   \   00000170                      DS8 1
   \   00000171                      REQUIRE `?<Initializer for L_Norwegian>`
   \                     ??L_German:
   \   00000171                      DS8 1
   \   00000172                      REQUIRE `?<Initializer for L_German>`
   \                     ??L_French:
   \   00000172                      DS8 1
   \   00000173                      REQUIRE `?<Initializer for L_French>`
   \                     ??L_Spanish:
   \   00000173                      DS8 1
   \   00000174                      REQUIRE `?<Initializer for L_Spanish>`
   \                     ??L_Portuguese:
   \   00000174                      DS8 1
   \   00000175                      REQUIRE `?<Initializer for L_Portuguese>`
   \                     ??L_Dutch:
   \   00000175                      DS8 1
   \   00000176                      REQUIRE `?<Initializer for L_Dutch>`
   \                     ??AutoAcknowledge:
   \   00000176                      DS8 1
   \   00000177                      REQUIRE `?<Initializer for AutoAcknowledge>`
   \                     ??SimulateIO:
   \   00000177                      DS8 1
   \   00000178                      REQUIRE `?<Initializer for SimulateIO>`
   \                     ??SimulateFixedValues:
   \   00000178                      DS8 1
   \   00000179                      REQUIRE `?<Initializer for SimulateFixedValues>`
   \                     ??hasCableResistanceShip:
   \   00000179                      DS8 1
   \   0000017A                      REQUIRE `?<Initializer for hasCableResistanceShip>`
   \                     ??hasCableResistanceSensor:
   \   0000017A                      DS8 1
   \   0000017B                      REQUIRE `?<Initializer for hasCableResistanceSensor>`
   \                     ??UseTemperatureWindow:
   \   0000017B                      DS8 1
   \   0000017C                      REQUIRE `?<Initializer for UseTemperatureWindow>`
   \                     ??IP_AddressGateWay:
   \   0000017C                      DS8 1
   \   0000017D                      REQUIRE `?<Initializer for IP_AddressGateWay>`
   \                     ??IP_AddressTCU_Master:
   \   0000017D                      DS8 1
   \   0000017E                      REQUIRE `?<Initializer for IP_AddressTCU_Master>`
   \                     ??IP_AddressTCUSlaveStart:
   \   0000017E                      DS8 1
   \   0000017F                      REQUIRE `?<Initializer for IP_AddressTCUSlaveStart>`
   \                     ??IP_AddressTCUSlaveEnd:
   \   0000017F                      DS8 1
   \   00000180                      REQUIRE `?<Initializer for IP_AddressTCUSlaveEnd>`
   \                     ??IP_AddressTDUStart:
   \   00000180                      DS8 1
   \   00000181                      REQUIRE `?<Initializer for IP_AddressTDUStart>`
   \                     ??IP_AddressTDUEnd:
   \   00000181                      DS8 1
   \   00000182                      REQUIRE `?<Initializer for IP_AddressTDUEnd>`
   \                     ??IP_AddressPCStart:
   \   00000182                      DS8 1
   \   00000183                      REQUIRE `?<Initializer for IP_AddressPCStart>`
   \                     ??IP_AddressPCEnd:
   \   00000183                      DS8 1
   \   00000184                      REQUIRE `?<Initializer for IP_AddressPCEnd>`
   \                     ??PressLim_mBar:
   \   00000184                      DS8 1
   \   00000185                      REQUIRE `?<Initializer for PressLim_mBar>`
   \   00000185                      DS8 3
   \                     ??ProjOwner:
   \   00000188                      DS8 28
   \   000001A4                      REQUIRE `?<Initializer for ProjOwner>`
   \                     ??ProjTypeName:
   \   000001A4                      DS8 28
   \   000001C0                      REQUIRE `?<Initializer for ProjTypeName>`
   \                     ??ProjectName:
   \   000001C0                      DS8 28
   \   000001DC                      REQUIRE `?<Initializer for ProjectName>`
   \                     ??CallSign:
   \   000001DC                      DS8 28
   \   000001F8                      REQUIRE `?<Initializer for CallSign>`
   \                     ??IMONumber:
   \   000001F8                      DS8 28
   \   00000214                      REQUIRE `?<Initializer for IMONumber>`

   \                                 In segment DATA_I, align 4, align-sorted
   \                     ??NoiseLimDefaultB:
   \   00000000                      DS8 4
   \   00000004                      REQUIRE `?<Initializer for NoiseLimDefaultB>`

   \                                 In segment DATA_I, align 4, align-sorted
   \                     ??NoiseLimDefaultU:
   \   00000000                      DS8 4
   \   00000004                      REQUIRE `?<Initializer for NoiseLimDefaultU>`

   \                                 In segment DATA_I, align 4, align-sorted
   \                     ??Default_SwitchOn_mA:
   \   00000000                      DS8 4
   \   00000004                      REQUIRE `?<Initializer for Default_SwitchOn_mA>`

   \                                 In segment DATA_I, align 4, align-sorted
   \                     ??Default_SwitchOff_mA:
   \   00000000                      DS8 4
   \   00000004                      REQUIRE `?<Initializer for Default_SwitchOff_mA>`

   \                                 In segment DATA_I, align 4, align-sorted
   \                     ??Default_SwitchWindow:
   \   00000000                      DS8 4
   \   00000004                      REQUIRE `?<Initializer for Default_SwitchWindow>`
    154              U_NO_UNIT,
    155              U_METER,
    156              U_METER3,
    157              U_TON,
    158              U_M3_HOUR,
    159              U_CELCIUS,
    160              U_MMH2O, // PRESSURE_UNIT1
    161              U_MMH2O, // PRESSURE_UNIT2
    162              U_BAR,
    163              U_TON_M3_VAC,
    164              U_DEGREES,
    165              U_TON_M3_C,
    166              U_METER4,
    167              U_TON_METER,
    168              U_TON_PER_CM,
    169              U_METER_RAD,
    170              U_PERCENT,
    171              U_MAMPERE,
    172              U_VOLT,
    173              U_HZ,
    174              U_SECONDS,
    175              U_MSECONDS,
    176              U_SECONDS,
    177              U_MINUTES,
    178              U_HOURS,
    179              U_DAYS,
    180          };
    181          
    182          
    183          
    184          

   \                                 In segment CODE, align 4, keep-with-next
    185          PROProjectInfo::PROProjectInfo(void):PRogramObjectBase(false) {
   \                     ??PROProjectInfo:
   \   00000000   F0412DE9           PUSH     {R4-R8,LR}
   \   00000004   00619FE5           LDR      R6,??PROProjectInfo_1  ;; ??__vtbl
    186              PROProjectInfoPtr = this;
   \   00000008   ........           LDR      R5,??DataTable7  ;; ??UserUnits
   \   0000000C   54D04DE2           SUB      SP,SP,#+84
   \   00000010   0040A0E1           MOV      R4,R0
   \   00000014   0010A0E3           MOV      R1,#+0
   \   00000018   ........           _BLF     ??PRogramObjectBase,??PRogramObjectBase??rA
   \   0000001C   A46084E5           STR      R6,[R4, #+164]
    187              NumberOfPRO++;
   \   00000020   A40095E5           LDR      R0,[R5, #+164]
   \   00000024   904085E5           STR      R4,[R5, #+144]
   \   00000028   010080E2           ADD      R0,R0,#+1
   \   0000002C   A40085E5           STR      R0,[R5, #+164]
    188              IDNumber = (C_PRO_PROJINFO << 16) + NumberOfPRO;
   \   00000030   C017A0E3           MOV      R1,#+50331648
   \   00000034   F21881E3           ORR      R1,R1,#0xF20000
   \   00000038   000081E0           ADD      R0,R1,R0
   \   0000003C   9C0084E5           STR      R0,[R4, #+156]
    189              NumberOfApp = 0;
   \   00000040   0070A0E3           MOV      R7,#+0
   \   00000044   A87084E5           STR      R7,[R4, #+168]
    190              for (int i = 0; i < MAX_APPL; i++) {
   \   00000048   0000A0E3           MOV      R0,#+0
    191                  ApplicationList[i] = NULL;
   \                     ??PROProjectInfo_2:
   \   0000004C   001184E0           ADD      R1,R4,R0, LSL #+2
   \   00000050   AC7081E5           STR      R7,[R1, #+172]
    192              }
   \   00000054   010080E2           ADD      R0,R0,#+1
   \   00000058   060050E3           CMP      R0,#+6
   \   0000005C   FAFFFFBA           BLT      ??PROProjectInfo_2
    193              ProjTypeName    = "Ship";
   \   00000060   641086E2           ADD      R1,R6,#+100
   \   00000064   0D00A0E1           MOV      R0,SP
   \   00000068   ........           _BLF     ??AnsiString_1,??AnsiString??rA_1
   \   0000006C   ........           LDR      R1,??DataTable5  ;; ??npos
   \   00000070   0020A0E3           MOV      R2,#+0
   \   00000074   008091E5           LDR      R8,[R1, #+0]
   \   00000078   0010A0E1           MOV      R1,R0
   \   0000007C   0830A0E1           MOV      R3,R8
   \   00000080   690F85E2           ADD      R0,R5,#+420
   \   00000084   ........           _BLF     ??assign,??assign??rA
   \   00000088   0720A0E1           MOV      R2,R7
   \   0000008C   0110A0E3           MOV      R1,#+1
   \   00000090   0D00A0E1           MOV      R0,SP
   \   00000094   ........           _BLF     ??_Tidy,??_Tidy??rA
    194              CallSign        = "None";
   \   00000098   5C1086E2           ADD      R1,R6,#+92
   \   0000009C   1C008DE2           ADD      R0,SP,#+28
   \   000000A0   ........           _BLF     ??AnsiString_1,??AnsiString??rA_1
   \   000000A4   0010A0E1           MOV      R1,R0
   \   000000A8   0830A0E1           MOV      R3,R8
   \   000000AC   0720A0E1           MOV      R2,R7
   \   000000B0   770F85E2           ADD      R0,R5,#+476
   \   000000B4   ........           _BLF     ??assign,??assign??rA
   \   000000B8   0720A0E1           MOV      R2,R7
   \   000000BC   0110A0E3           MOV      R1,#+1
   \   000000C0   1C008DE2           ADD      R0,SP,#+28
   \   000000C4   ........           _BLF     ??_Tidy,??_Tidy??rA
    195              IMONumber       = "None";
   \   000000C8   5C1086E2           ADD      R1,R6,#+92
   \   000000CC   38008DE2           ADD      R0,SP,#+56
   \   000000D0   ........           _BLF     ??AnsiString_1,??AnsiString??rA_1
   \   000000D4   0830A0E1           MOV      R3,R8
   \   000000D8   0720A0E1           MOV      R2,R7
   \   000000DC   0010A0E1           MOV      R1,R0
   \   000000E0   7E0F85E2           ADD      R0,R5,#+504
   \   000000E4   ........           _BLF     ??assign,??assign??rA
   \   000000E8   0720A0E1           MOV      R2,R7
   \   000000EC   0110A0E3           MOV      R1,#+1
   \   000000F0   38008DE2           ADD      R0,SP,#+56
   \   000000F4   ........           _BLF     ??_Tidy,??_Tidy??rA
    196          
    197              AlarmSettingsPINLock = false;
   \   000000F8   0700A0E1           MOV      R0,R7
   \   000000FC   C700C4E5           STRB     R0,[R4, #+199]
    198          
    199          }
   \   00000100   0400A0E1           MOV      R0,R4
   \   00000104   54D08DE2           ADD      SP,SP,#+84
   \   00000108   ........           B        ?Subroutine15
   \                     ??PROProjectInfo_1:
   \   0000010C   ........           DC32     ??__vtbl

   \                                 In segment CODE, align 4, keep-with-next
   \                     ?Subroutine15:
   \   00000000   F041BDE8           POP      {R4-R8,LR}
   \   00000004   1EFF2FE1           BX       LR               ;; return
    200          

   \                                 In segment CODE, align 4, keep-with-next
    201          PROProjectInfo::~PROProjectInfo(void) {
   \                     `?~PROProjectInfo`:
   \   00000000   30402DE9           PUSH     {R4,R5,LR}
   \   00000004   0040A0E1           MOV      R4,R0
   \   00000008   0150A0E1           MOV      R5,R1
   \   0000000C   000054E3           CMP      R4,#+0
   \   00000010   0500000A           BEQ      `?~PROProjectInfo_1`
    202          
    203          }
   \   00000014   0010A0E3           MOV      R1,#+0
   \   00000018   ........           _BLF     `?~PRogramObjectBase`,`?~PRogramObjectBase??rA`
   \   0000001C   010015E3           TST      R5,#0x1
   \   00000020   0100000A           BEQ      `?~PROProjectInfo_1`
   \   00000024   0400A0E1           MOV      R0,R4
   \   00000028   ........           _BLF     `??operator delete`,`??operator delete??rA`
   \                     `?~PROProjectInfo_1`:
   \   0000002C                      REQUIRE ?Subroutine13
   \   0000002C                      ;; // Fall through to label ?Subroutine13

   \                                 In segment CODE, align 4, keep-with-next
   \                     ?Subroutine13:
   \   00000000   3040BDE8           POP      {R4,R5,LR}
   \   00000004   1EFF2FE1           BX       LR               ;; return
    204          
    205          ///////////////////////////////////////////////////////////////
    206          //
    207          // Routines for Saving of Settings
    208          //
    209          ///////////////////////////////////////////////////////////////
    210          

   \                                 In segment CODE, align 4, keep-with-next
    211          void PROProjectInfo::SaveSettings(TSNConfigString *SettingsString) {
   \                     ??SaveSettings:
   \   00000000   70402DE9           PUSH     {R4-R6,LR}
   \   00000004   46DF4DE2           SUB      SP,SP,#+280
   \   00000008   0140A0E1           MOV      R4,R1
    212              if (IsModified || WriteAll) {
   \   0000000C   0010D0E5           LDRB     R1,[R0, #+0]
   \   00000010   000051E3           CMP      R1,#+0
   \   00000014   ........           LDREQ    R1,??DataTable8  ;; ??WriteAll
   \   00000018   0010D105           LDRBEQ   R1,[R1, #+0]
   \   0000001C   00005103           CMPEQ    R1,#+0
   \   00000020   6700000A           BEQ      ??SaveSettings_1
    213                  IsModified = false;
    214                  AnsiString LocalString;
    215                  // We don't need the IdNumber for this object, so it's not saved!
    216                  LocalString += KeyWord(C_PRO_PROJINFO) + CrLfStr;
   \   00000024   ........           LDR      R5,??DataTable4  ;; CrLfStr
   \   00000028   0010A0E3           MOV      R1,#+0
   \   0000002C   0010C0E5           STRB     R1,[R0, #+0]
   \   00000030   0D00A0E1           MOV      R0,SP
   \   00000034   ........           _BLF     ??AnsiString,??AnsiString??rA
   \   00000038   F210A0E3           MOV      R1,#+242
   \   0000003C   C01F81E3           ORR      R1,R1,#0x300
   \   00000040   38008DE2           ADD      R0,SP,#+56
   \   00000044   ........           _BLF     ??KeyWord,??KeyWord??rA
   \   00000048   0520A0E1           MOV      R2,R5
   \   0000004C   38108DE2           ADD      R1,SP,#+56
   \   00000050   1C008DE2           ADD      R0,SP,#+28
   \   00000054   ........           _BLF     `??operator+`,`??operator+??rA`
   \   00000058   ........           LDR      R0,??DataTable5  ;; ??npos
   \   0000005C   0020A0E3           MOV      R2,#+0
   \   00000060   006090E5           LDR      R6,[R0, #+0]
   \   00000064   1C108DE2           ADD      R1,SP,#+28
   \   00000068   0630A0E1           MOV      R3,R6
   \   0000006C   0D00A0E1           MOV      R0,SP
   \   00000070   ........           _BLF     ??append,??append??rA
   \   00000074   0020A0E3           MOV      R2,#+0
   \   00000078   0110A0E3           MOV      R1,#+1
   \   0000007C   1C008DE2           ADD      R0,SP,#+28
   \   00000080   ........           _BLF     ??_Tidy,??_Tidy??rA
   \   00000084   0020A0E3           MOV      R2,#+0
   \   00000088   0110A0E3           MOV      R1,#+1
   \   0000008C   38008DE2           ADD      R0,SP,#+56
   \   00000090   ........           _BLF     ??_Tidy,??_Tidy??rA
    217                  LocalString += TabStr1 + KeyWord(C_PROJ_NAME) + ProjectName + CrLfStr;
   \   00000094   B110A0E3           MOV      R1,#+177
   \   00000098   401E81E3           ORR      R1,R1,#0x400
   \   0000009C   A8008DE2           ADD      R0,SP,#+168
   \   000000A0   ........           _BLF     ??KeyWord,??KeyWord??rA
   \   000000A4   ........           LDR      R1,??DataTable6  ;; TabStr1
   \   000000A8   A8208DE2           ADD      R2,SP,#+168
   \   000000AC   8C008DE2           ADD      R0,SP,#+140
   \   000000B0   ........           _BLF     `??operator+`,`??operator+??rA`
   \   000000B4   10219FE5           LDR      R2,??SaveSettings_2  ;; ??UserUnits + 448
   \   000000B8   8C108DE2           ADD      R1,SP,#+140
   \   000000BC   70008DE2           ADD      R0,SP,#+112
   \   000000C0   ........           _BLF     `??operator+`,`??operator+??rA`
   \   000000C4   0520A0E1           MOV      R2,R5
   \   000000C8   70108DE2           ADD      R1,SP,#+112
   \   000000CC   54008DE2           ADD      R0,SP,#+84
   \   000000D0   ........           _BLF     `??operator+`,`??operator+??rA`
   \   000000D4   0630A0E1           MOV      R3,R6
   \   000000D8   0020A0E3           MOV      R2,#+0
   \   000000DC   54108DE2           ADD      R1,SP,#+84
   \   000000E0   0D00A0E1           MOV      R0,SP
   \   000000E4   ........           _BLF     ??append,??append??rA
   \   000000E8   0020A0E3           MOV      R2,#+0
   \   000000EC   0110A0E3           MOV      R1,#+1
   \   000000F0   54008DE2           ADD      R0,SP,#+84
   \   000000F4   ........           _BLF     ??_Tidy,??_Tidy??rA
   \   000000F8   0020A0E3           MOV      R2,#+0
   \   000000FC   0110A0E3           MOV      R1,#+1
   \   00000100   70008DE2           ADD      R0,SP,#+112
   \   00000104   ........           _BLF     ??_Tidy,??_Tidy??rA
   \   00000108   0020A0E3           MOV      R2,#+0
   \   0000010C   0110A0E3           MOV      R1,#+1
   \   00000110   8C008DE2           ADD      R0,SP,#+140
   \   00000114   ........           _BLF     ??_Tidy,??_Tidy??rA
   \   00000118   0020A0E3           MOV      R2,#+0
   \   0000011C   0110A0E3           MOV      R1,#+1
   \   00000120   A8008DE2           ADD      R0,SP,#+168
   \   00000124   ........           _BLF     ??_Tidy,??_Tidy??rA
    218                  LocalString += KeyWord(C_PRO_END) + CrLfStr;
   \   00000128   FA1FA0E3           MOV      R1,#+1000
   \   0000012C   E0008DE2           ADD      R0,SP,#+224
   \   00000130   ........           _BLF     ??KeyWord,??KeyWord??rA
   \   00000134   0520A0E1           MOV      R2,R5
   \   00000138   E0108DE2           ADD      R1,SP,#+224
   \   0000013C   C4008DE2           ADD      R0,SP,#+196
   \   00000140   ........           _BLF     `??operator+`,`??operator+??rA`
   \   00000144   0630A0E1           MOV      R3,R6
   \   00000148   0020A0E3           MOV      R2,#+0
   \   0000014C   C4108DE2           ADD      R1,SP,#+196
   \   00000150   0D00A0E1           MOV      R0,SP
   \   00000154   ........           _BLF     ??append,??append??rA
   \   00000158   0020A0E3           MOV      R2,#+0
   \   0000015C   0110A0E3           MOV      R1,#+1
   \   00000160   C4008DE2           ADD      R0,SP,#+196
   \   00000164   ........           _BLF     ??_Tidy,??_Tidy??rA
   \   00000168   0020A0E3           MOV      R2,#+0
   \   0000016C   0110A0E3           MOV      R1,#+1
   \   00000170   E0008DE2           ADD      R0,SP,#+224
   \   00000174   ........           _BLF     ??_Tidy,??_Tidy??rA
    219                  LocalString += CrLfStr;
   \   00000178   0630A0E1           MOV      R3,R6
   \   0000017C   0020A0E3           MOV      R2,#+0
   \   00000180   0510A0E1           MOV      R1,R5
   \   00000184   0D00A0E1           MOV      R0,SP
   \   00000188   ........           _BLF     ??append,??append??rA
    220                  SettingsString->AddString(LocalString);
   \   0000018C   0D10A0E1           MOV      R1,SP
   \   00000190   FC008DE2           ADD      R0,SP,#+252
   \   00000194   ........           _BLF     ??string,??string??rA
   \   00000198   FC108DE2           ADD      R1,SP,#+252
   \   0000019C   0400A0E1           MOV      R0,R4
   \   000001A0   ........           _BLF     ??AddString,??AddString??rA
   \   000001A4   0020A0E3           MOV      R2,#+0
   \   000001A8   0110A0E3           MOV      R1,#+1
   \   000001AC   FC008DE2           ADD      R0,SP,#+252
   \   000001B0   ........           _BLF     ??_Tidy,??_Tidy??rA
    221              }
   \   000001B4   0020A0E3           MOV      R2,#+0
   \   000001B8   0110A0E3           MOV      R1,#+1
   \   000001BC   0D00A0E1           MOV      R0,SP
   \   000001C0   ........           _BLF     ??_Tidy,??_Tidy??rA
    222          }
   \                     ??SaveSettings_1:
   \   000001C4   46DF8DE2           ADD      SP,SP,#+280
   \   000001C8   ........           B        ?Subroutine16
   \                     ??SaveSettings_2:
   \   000001CC   ........           DC32     ??UserUnits + 448

   \                                 In segment CODE, align 4, keep-with-next
   \                     ?Subroutine16:
   \   00000000   7040BDE8           POP      {R4-R6,LR}
   \   00000004   1EFF2FE1           BX       LR               ;; return
    223          

   \                                 In segment CODE, align 4, keep-with-next
    224          bool PROProjectInfo::RestoreSettings(TSNConfigString *SettingsString) {
   \                     ??RestoreSettings:
   \   00000000   F04F2DE9           PUSH     {R4-R11,LR}
    225              bool NoError = true;
    226              int ErrorLine = 0;
   \   00000004   F4929FE5           LDR      R9,??RestoreSettings_1  ;; `?<Constant "Project Info:\\nUnknown...">`
   \   00000008   ........           LDR      R11,??DataTable7  ;; ??UserUnits
   \   0000000C   5CDF4DE2           SUB      SP,SP,#+368
   \   00000010   0140A0E1           MOV      R4,R1
   \   00000014   0150A0E3           MOV      R5,#+1
   \   00000018   0010A0E3           MOV      R1,#+0
   \   0000001C   00108DE5           STR      R1,[SP, #+0]
   \   00000020   0160E0E1           MVN      R6,R1
    227              int Key;
    228          
    229              do {
    230                  AnsiString InputKeyWord = SettingsString->NextWord(ErrorLine);
   \                     ??RestoreSettings_2:
   \   00000024   0030A0E3           MOV      R3,#+0
   \   00000028   0D20A0E1           MOV      R2,SP
   \   0000002C   58108DE2           ADD      R1,SP,#+88
    231                  if (ErrorLine) {
   \   00000030   CC829FE5           LDR      R8,??RestoreSettings_1+0x4  ;; NewLineStr
   \   00000034   0400A0E1           MOV      R0,R4
   \   00000038   ........           _BLF     ??NextWord,??NextWord??rA
   \   0000003C   00009DE5           LDR      R0,[SP, #+0]
   \   00000040   000050E3           CMP      R0,#+0
   \   00000044   2900000A           BEQ      ??RestoreSettings_3
    232                      if (ErrorLine != EOF) {
   \   00000048   060050E1           CMP      R0,R6
   \   0000004C   9F00000A           BEQ      ??RestoreSettings_4
    233                          RestoreSettingsWarning((AnsiString)"Project Info:\nUnknown error started at line:" + (AnsiString)ErrorLine + NewLineStr);
   \   00000050   0010A0E1           MOV      R1,R0
   \   00000054   3C008DE2           ADD      R0,SP,#+60
   \   00000058   ........           _BLF     ??AnsiString_2,??AnsiString??rA_2
   \   0000005C   00A0A0E1           MOV      R10,R0
   \   00000060   0910A0E1           MOV      R1,R9
   \   00000064   90008DE2           ADD      R0,SP,#+144
   \   00000068   ........           _BLF     ??AnsiString_1,??AnsiString??rA_1
   \   0000006C   0A20A0E1           MOV      R2,R10
   \   00000070   0010A0E1           MOV      R1,R0
   \   00000074   04008DE2           ADD      R0,SP,#+4
   \   00000078   ........           _BLF     `??operator+`,`??operator+??rA`
   \   0000007C   0820A0E1           MOV      R2,R8
   \   00000080   04108DE2           ADD      R1,SP,#+4
   \   00000084   20008DE2           ADD      R0,SP,#+32
   \   00000088   ........           _BLF     `??operator+`,`??operator+??rA`
   \   0000008C   20108DE2           ADD      R1,SP,#+32
   \   00000090   74008DE2           ADD      R0,SP,#+116
   \   00000094   ........           _BLF     ??AnsiString_3,??AnsiString??rA_3
   \   00000098   ........           _BLF     ??RestoreSettingsWarning,??RestoreSettingsWarning??rA
   \   0000009C   0020A0E3           MOV      R2,#+0
   \   000000A0   0110A0E3           MOV      R1,#+1
   \   000000A4   74008DE2           ADD      R0,SP,#+116
   \   000000A8   ........           _BLF     ??_Tidy,??_Tidy??rA
   \   000000AC   0020A0E3           MOV      R2,#+0
   \   000000B0   0110A0E3           MOV      R1,#+1
   \   000000B4   20008DE2           ADD      R0,SP,#+32
   \   000000B8   ........           _BLF     ??_Tidy,??_Tidy??rA
   \   000000BC   0020A0E3           MOV      R2,#+0
   \   000000C0   0110A0E3           MOV      R1,#+1
   \   000000C4   04008DE2           ADD      R0,SP,#+4
   \   000000C8   ........           _BLF     ??_Tidy,??_Tidy??rA
   \   000000CC   0020A0E3           MOV      R2,#+0
   \   000000D0   0110A0E3           MOV      R1,#+1
   \   000000D4   3C008DE2           ADD      R0,SP,#+60
   \   000000D8   ........           _BLF     ??_Tidy,??_Tidy??rA
   \   000000DC   0020A0E3           MOV      R2,#+0
   \   000000E0   0110A0E3           MOV      R1,#+1
   \   000000E4   90008DE2           ADD      R0,SP,#+144
   \                     ??RestoreSettings_5:
   \   000000E8   ........           _BLF     ??_Tidy,??_Tidy??rA
   \   000000EC   770000EA           B        ??RestoreSettings_4
    234                      }
    235                  } else {
    236                      Key = FindConfigKey(InputKeyWord);
   \                     ??RestoreSettings_3:
   \   000000F0   58108DE2           ADD      R1,SP,#+88
   \   000000F4   04008DE2           ADD      R0,SP,#+4
   \   000000F8   ........           _BLF     ??string,??string??rA
   \   000000FC   04008DE2           ADD      R0,SP,#+4
   \   00000100   ........           _BLF     ??FindConfigKey,??FindConfigKey??rA
   \   00000104   0070A0E1           MOV      R7,R0
   \   00000108   0020A0E3           MOV      R2,#+0
   \   0000010C   0110A0E3           MOV      R1,#+1
   \   00000110   04008DE2           ADD      R0,SP,#+4
   \   00000114   ........           _BLF     ??_Tidy,??_Tidy??rA
    237                      switch (Key) {
   \   00000118   E90057E3           CMP      R7,#+233
   \   0000011C   6900000A           BEQ      ??RestoreSettings_6
   \   00000120   FA0F57E3           CMP      R7,#+1000
   \   00000124   EA10A013           MOVNE    R1,#+234
   \   00000128   C01F8113           ORRNE    R1,R1,#0x300
   \   0000012C   01005711           CMPNE    R7,R1
   \   00000130   FB0F5713           CMPNE    R7,#+1004
   \   00000134   4300000A           BEQ      ??RestoreSettings_7
   \   00000138   C71081E2           ADD      R1,R1,#+199
   \   0000013C   010057E1           CMP      R7,R1
   \   00000140   4200000A           BEQ      ??RestoreSettings_8
   \   00000144   FE1081E2           ADD      R1,R1,#+254
   \   00000148   010057E1           CMP      R7,R1
   \   0000014C   9810A013           MOVNE    R1,#+152
   \   00000150   801E8113           ORRNE    R1,R1,#0x800
   \   00000154   01005711           CMPNE    R7,R1
   \   00000158   B910A013           MOVNE    R1,#+185
   \   0000015C   B01E8113           ORRNE    R1,R1,#0xB00
   \   00000160   01005711           CMPNE    R7,R1
   \   00000164   3700000A           BEQ      ??RestoreSettings_7
    238                      default:
    239                          NoError = false;
    240                          RestoreSettingsWarning((AnsiString)"Project Info:\nThe keyword " + InputKeyWord + " is not allowed here!! Line:" + (AnsiString)SettingsString->LineCount + NewLineStr);
   \   00000168   1C1094E5           LDR      R1,[R4, #+28]
   \   0000016C   0050A0E3           MOV      R5,#+0
   \   00000170   550F8DE2           ADD      R0,SP,#+340
   \   00000174   ........           _BLF     ??AnsiString_2,??AnsiString??rA_2
   \   00000178   00A0A0E1           MOV      R10,R0
   \   0000017C   301089E2           ADD      R1,R9,#+48
   \   00000180   4E0F8DE2           ADD      R0,SP,#+312
   \   00000184   ........           _BLF     ??AnsiString_1,??AnsiString??rA_1
   \   00000188   0010A0E1           MOV      R1,R0
   \   0000018C   58208DE2           ADD      R2,SP,#+88
   \   00000190   470F8DE2           ADD      R0,SP,#+284
   \   00000194   ........           _BLF     `??operator+`,`??operator+??rA`
   \   00000198   4C2089E2           ADD      R2,R9,#+76
   \   0000019C   471F8DE2           ADD      R1,SP,#+284
   \   000001A0   400F8DE2           ADD      R0,SP,#+256
   \   000001A4   ........           _BLF     `??operator+_1`,`??operator+??rA_1`
   \   000001A8   0A20A0E1           MOV      R2,R10
   \   000001AC   401F8DE2           ADD      R1,SP,#+256
   \   000001B0   E4008DE2           ADD      R0,SP,#+228
   \   000001B4   ........           _BLF     `??operator+`,`??operator+??rA`
   \   000001B8   0820A0E1           MOV      R2,R8
   \   000001BC   E4108DE2           ADD      R1,SP,#+228
   \   000001C0   C8008DE2           ADD      R0,SP,#+200
   \   000001C4   ........           _BLF     `??operator+`,`??operator+??rA`
   \   000001C8   C8108DE2           ADD      R1,SP,#+200
   \   000001CC   AC008DE2           ADD      R0,SP,#+172
   \   000001D0   ........           _BLF     ??AnsiString_3,??AnsiString??rA_3
   \   000001D4   ........           _BLF     ??RestoreSettingsWarning,??RestoreSettingsWarning??rA
   \   000001D8   0020A0E3           MOV      R2,#+0
   \   000001DC   0110A0E3           MOV      R1,#+1
   \   000001E0   AC008DE2           ADD      R0,SP,#+172
   \   000001E4   ........           _BLF     ??_Tidy,??_Tidy??rA
   \   000001E8   0520A0E1           MOV      R2,R5
   \   000001EC   0110A0E3           MOV      R1,#+1
   \   000001F0   C8008DE2           ADD      R0,SP,#+200
   \   000001F4   ........           _BLF     ??_Tidy,??_Tidy??rA
   \   000001F8   0520A0E1           MOV      R2,R5
   \   000001FC   0110A0E3           MOV      R1,#+1
   \   00000200   E4008DE2           ADD      R0,SP,#+228
   \   00000204   ........           _BLF     ??_Tidy,??_Tidy??rA
   \   00000208   0520A0E1           MOV      R2,R5
   \   0000020C   0110A0E3           MOV      R1,#+1
   \   00000210   550F8DE2           ADD      R0,SP,#+340
   \   00000214   ........           _BLF     ??_Tidy,??_Tidy??rA
   \   00000218   0520A0E1           MOV      R2,R5
   \   0000021C   0110A0E3           MOV      R1,#+1
   \   00000220   400F8DE2           ADD      R0,SP,#+256
   \   00000224   ........           _BLF     ??_Tidy,??_Tidy??rA
   \   00000228   0520A0E1           MOV      R2,R5
   \   0000022C   0110A0E3           MOV      R1,#+1
   \   00000230   470F8DE2           ADD      R0,SP,#+284
   \   00000234   ........           _BLF     ??_Tidy,??_Tidy??rA
   \   00000238   0520A0E1           MOV      R2,R5
   \   0000023C   0110A0E3           MOV      R1,#+1
   \   00000240   4E0F8DE2           ADD      R0,SP,#+312
   \   00000244   A7FFFFEA           B        ??RestoreSettings_5
    241                          break;
    242                      case C_AI_END:          // If AI type not found can continue with this
    243                      case C_AL_END:
    244                      case C_CT_END:
    245                      case C_PRO_END:
    246                      case C_PRO_END_COMMON:
    247                      case C_PRO_END_PRO:
    248                          Key = C_PRO_END;
   \                     ??RestoreSettings_7:
   \   00000248   FA7FA0E3           MOV      R7,#+1000
   \   0000024C   1F0000EA           B        ??RestoreSettings_4
    249                          break;
    250                      case C_PROJ_NAME:
    251                          {
    252                              AnsiString TmpStr = SettingsString->GetRemainingLine(ErrorLine);
   \                     ??RestoreSettings_8:
   \   00000250   0D20A0E1           MOV      R2,SP
   \   00000254   3C108DE2           ADD      R1,SP,#+60
   \   00000258   0400A0E1           MOV      R0,R4
   \   0000025C   ........           _BLF     ??GetRemainingLine,??GetRemainingLine??rA
    253                              if (ProjectName.AnsiCompareIC(TmpStr)) {
   \   00000260   3C108DE2           ADD      R1,SP,#+60
   \   00000264   20008DE2           ADD      R0,SP,#+32
   \   00000268   ........           _BLF     ??string,??string??rA
   \   0000026C   20108DE2           ADD      R1,SP,#+32
   \   00000270   700F8BE2           ADD      R0,R11,#+448
   \   00000274   ........           _BLF     ??AnsiCompareIC,??AnsiCompareIC??rA
   \   00000278   0080A0E1           MOV      R8,R0
   \   0000027C   0020A0E3           MOV      R2,#+0
   \   00000280   0110A0E3           MOV      R1,#+1
   \   00000284   20008DE2           ADD      R0,SP,#+32
   \   00000288   ........           _BLF     ??_Tidy,??_Tidy??rA
   \   0000028C   ........           LDR      R0,??DataTable8  ;; ??WriteAll
   \   00000290   000058E3           CMP      R8,#+0
   \   00000294   0500000A           BEQ      ??RestoreSettings_9
    254                                  WriteAll = true;
   \   00000298   0110A0E3           MOV      R1,#+1
   \   0000029C   0010C0E5           STRB     R1,[R0, #+0]
    255                                  SignalSaveSettings(FLASH_SAVE_SETTINGS);
   \   000002A0   0100A0E3           MOV      R0,#+1
   \   000002A4   ........           _BLF     ??SignalSaveSettings,??SignalSaveSettings??rA
    256                                  NoError  = false;
   \   000002A8   0050A0E3           MOV      R5,#+0
   \   000002AC   010000EA           B        ??RestoreSettings_10
    257                              } else {
    258                                  WriteAll = false;
   \                     ??RestoreSettings_9:
   \   000002B0   0010A0E3           MOV      R1,#+0
   \   000002B4   0010C0E5           STRB     R1,[R0, #+0]
    259                              }
    260                          }
   \                     ??RestoreSettings_10:
   \   000002B8   0020A0E3           MOV      R2,#+0
   \   000002BC   0110A0E3           MOV      R1,#+1
   \   000002C0   3C008DE2           ADD      R0,SP,#+60
   \   000002C4   87FFFFEA           B        ??RestoreSettings_5
    261                          //WriteAll = true;
    262                          break;
    263                      case C_REQUEST_CONFIG:
    264                          RequestConfig = FLASH_RET_MODE_SETT;
   \                     ??RestoreSettings_6:
   \   000002C8   0200A0E3           MOV      R0,#+2
   \   000002CC   2C018BE5           STR      R0,[R11, #+300]
    265                          break;
    266                      }
    267                  }
    268              }while (NoError && (ErrorLine != EOF) && (Key != C_PRO_END));
   \                     ??RestoreSettings_4:
   \   000002D0   0020A0E3           MOV      R2,#+0
   \   000002D4   0110A0E3           MOV      R1,#+1
   \   000002D8   58008DE2           ADD      R0,SP,#+88
   \   000002DC   ........           _BLF     ??_Tidy,??_Tidy??rA
   \   000002E0   000055E3           CMP      R5,#+0
   \   000002E4   00009D15           LDRNE    R0,[SP, #+0]
   \   000002E8   06005011           CMPNE    R0,R6
   \   000002EC   FA0F5713           CMPNE    R7,#+1000
   \   000002F0   4BFFFF1A           BNE      ??RestoreSettings_2
    269              return (NoError);
   \   000002F4   0500A0E1           MOV      R0,R5
   \   000002F8   5CDF8DE2           ADD      SP,SP,#+368
   \   000002FC   ........           B        ?Subroutine17
   \                     ??RestoreSettings_1:
   \   00000300   ........           DC32     `?<Constant "Project Info:\\nUnknown...">`
   \   00000304   ........           DC32     NewLineStr
    270          }

   \                                 In segment CODE, align 4, keep-with-next
   \                     ?Subroutine17:
   \   00000000   F04FBDE8           POP      {R4-R11,LR}
   \   00000004   1EFF2FE1           BX       LR               ;; return
    271          
    272          
    273          //---------------------------------------------------------------------------
    274          
    275          

   \                                 In segment CODE, align 4, keep-with-next
    276          void PROProjectInfo::WriteConfigToFile(TSNConfigString &ConfigString) {
   \                     ??WriteConfigToFile:
   \   00000000   F24F2DE9           PUSH     {R1,R4-R11,LR}
    277              AnsiString LocalString;
    278              LocalString += KeyWord(C_PRO_PROJINFO) + CrLfStr;
   \   00000004   54419FE5           LDR      R4,??WriteConfigToFile_1  ;; CrLfStr
   \   00000008   91DF4DE2           SUB      SP,SP,#+580
   \   0000000C   40DD4DE2           SUB      SP,SP,#+4096
    279          
    280              LocalString += TabStr1 + KeyWord(C_PROJ_NAME) + ProjectName + CrLfStr;
   \   00000010   4C619FE5           LDR      R6,??WriteConfigToFile_1+0x4  ;; TabStr1
   \   00000014   4C719FE5           LDR      R7,??WriteConfigToFile_1+0x8  ;; ??UserUnits
   \   00000018   0080A0E1           MOV      R8,R0
   \   0000001C   54008DE2           ADD      R0,SP,#+84
   \   00000020   ........           _BLF     ??AnsiString,??AnsiString??rA
   \   00000024   F210A0E3           MOV      R1,#+242
   \   00000028   C01F81E3           ORR      R1,R1,#0x300
   \   0000002C   6C008DE2           ADD      R0,SP,#+108
   \   00000030   800E80E2           ADD      R0,R0,#+2048
   \   00000034   ........           _BLF     ??KeyWord,??KeyWord??rA
   \   00000038   0420A0E1           MOV      R2,R4
   \   0000003C   6C108DE2           ADD      R1,SP,#+108
   \   00000040   801E81E2           ADD      R1,R1,#+2048
   \   00000044   850E8DE2           ADD      R0,SP,#+2128
   \   00000048   ........           _BLF     `??operator+`,`??operator+??rA`
   \   0000004C   18019FE5           LDR      R0,??WriteConfigToFile_1+0xC  ;; ??npos
   \   00000050   0020A0E3           MOV      R2,#+0
   \   00000054   005090E5           LDR      R5,[R0, #+0]
   \   00000058   851E8DE2           ADD      R1,SP,#+2128
   \   0000005C   0530A0E1           MOV      R3,R5
   \   00000060   54008DE2           ADD      R0,SP,#+84
   \   00000064   ........           _BLF     ??append,??append??rA
   \   00000068   0020A0E3           MOV      R2,#+0
   \   0000006C   0110A0E3           MOV      R1,#+1
   \   00000070   850E8DE2           ADD      R0,SP,#+2128
   \   00000074   ........           _BLF     ??_Tidy,??_Tidy??rA
   \   00000078   0020A0E3           MOV      R2,#+0
   \   0000007C   0110A0E3           MOV      R1,#+1
   \   00000080   6C008DE2           ADD      R0,SP,#+108
   \   00000084   800E80E2           ADD      R0,R0,#+2048
   \   00000088   ........           _BLF     ??_Tidy,??_Tidy??rA
   \   0000008C   B110A0E3           MOV      R1,#+177
   \   00000090   401E81E3           ORR      R1,R1,#0x400
   \   00000094   DC008DE2           ADD      R0,SP,#+220
   \   00000098   800E80E2           ADD      R0,R0,#+2048
   \   0000009C   ........           _BLF     ??KeyWord,??KeyWord??rA
   \   000000A0   DC208DE2           ADD      R2,SP,#+220
   \   000000A4   802E82E2           ADD      R2,R2,#+2048
   \   000000A8   0610A0E1           MOV      R1,R6
   \   000000AC   8C0E8DE2           ADD      R0,SP,#+2240
   \   000000B0   ........           _BLF     `??operator+`,`??operator+??rA`
   \   000000B4   702F87E2           ADD      R2,R7,#+448
   \   000000B8   8C1E8DE2           ADD      R1,SP,#+2240
   \   000000BC   A4008DE2           ADD      R0,SP,#+164
   \   000000C0   800E80E2           ADD      R0,R0,#+2048
   \   000000C4   ........           _BLF     `??operator+`,`??operator+??rA`
   \   000000C8   0420A0E1           MOV      R2,R4
   \   000000CC   A4108DE2           ADD      R1,SP,#+164
   \   000000D0   801E81E2           ADD      R1,R1,#+2048
   \   000000D4   88008DE2           ADD      R0,SP,#+136
   \   000000D8   800E80E2           ADD      R0,R0,#+2048
   \   000000DC   ........           _BLF     `??operator+`,`??operator+??rA`
   \   000000E0   0530A0E1           MOV      R3,R5
   \   000000E4   0020A0E3           MOV      R2,#+0
   \   000000E8   88108DE2           ADD      R1,SP,#+136
   \   000000EC   801E81E2           ADD      R1,R1,#+2048
   \   000000F0   54008DE2           ADD      R0,SP,#+84
   \   000000F4   ........           _BLF     ??append,??append??rA
   \   000000F8   0020A0E3           MOV      R2,#+0
   \   000000FC   0110A0E3           MOV      R1,#+1
   \   00000100   88008DE2           ADD      R0,SP,#+136
   \   00000104   800E80E2           ADD      R0,R0,#+2048
   \   00000108   ........           _BLF     ??_Tidy,??_Tidy??rA
   \   0000010C   0020A0E3           MOV      R2,#+0
   \   00000110   0110A0E3           MOV      R1,#+1
   \   00000114   A4008DE2           ADD      R0,SP,#+164
   \   00000118   800E80E2           ADD      R0,R0,#+2048
   \   0000011C   ........           _BLF     ??_Tidy,??_Tidy??rA
   \   00000120   0020A0E3           MOV      R2,#+0
   \   00000124   0110A0E3           MOV      R1,#+1
   \   00000128   8C0E8DE2           ADD      R0,SP,#+2240
   \   0000012C   ........           _BLF     ??_Tidy,??_Tidy??rA
   \   00000130   0020A0E3           MOV      R2,#+0
   \   00000134   0110A0E3           MOV      R1,#+1
   \   00000138   DC008DE2           ADD      R0,SP,#+220
   \   0000013C   800E80E2           ADD      R0,R0,#+2048
   \   00000140   ........           _BLF     ??_Tidy,??_Tidy??rA
    281          
    282              LocalString += TabStr1;
   \   00000144   0530A0E1           MOV      R3,R5
   \   00000148   0020A0E3           MOV      R2,#+0
   \   0000014C   0610A0E1           MOV      R1,R6
   \   00000150   54008DE2           ADD      R0,SP,#+84
   \   00000154   ........           _BLF     ??append,??append??rA
    283              for (int i = 0; i < NumberOfApp; i++) {
   \   00000158   0090A0E3           MOV      R9,#+0
   \   0000015C   110000EA           B        ??WriteConfigToFile_2
   \                     ??WriteConfigToFile_1:
   \   00000160   ........           DC32     CrLfStr
   \   00000164   ........           DC32     TabStr1
   \   00000168   ........           DC32     ??UserUnits
   \   0000016C   ........           DC32     ??npos
    284                  LocalString += KeyWord(ApplicationList[i]);
   \                     ??WriteConfigToFile_3:
   \   00000170   090188E0           ADD      R0,R8,R9, LSL #+2
   \   00000174   AC1090E5           LDR      R1,[R0, #+172]
   \   00000178   0D00A0E1           MOV      R0,SP
   \   0000017C   ........           _BLF     ??KeyWord,??KeyWord??rA
   \   00000180   0530A0E1           MOV      R3,R5
   \   00000184   0020A0E3           MOV      R2,#+0
   \   00000188   0D10A0E1           MOV      R1,SP
   \   0000018C   54008DE2           ADD      R0,SP,#+84
   \   00000190   ........           _BLF     ??append,??append??rA
   \   00000194   0020A0E3           MOV      R2,#+0
   \   00000198   0110A0E3           MOV      R1,#+1
   \   0000019C   0D00A0E1           MOV      R0,SP
   \   000001A0   ........           _BLF     ??_Tidy,??_Tidy??rA
    285              }
   \   000001A4   019089E2           ADD      R9,R9,#+1
   \                     ??WriteConfigToFile_2:
   \   000001A8   A80098E5           LDR      R0,[R8, #+168]
   \   000001AC   000059E1           CMP      R9,R0
   \   000001B0   EEFFFFBA           BLT      ??WriteConfigToFile_3
    286              LocalString += CrLfStr;
   \   000001B4   0530A0E1           MOV      R3,R5
   \   000001B8   0020A0E3           MOV      R2,#+0
   \   000001BC   0410A0E1           MOV      R1,R4
   \   000001C0   54008DE2           ADD      R0,SP,#+84
   \   000001C4   ........           _BLF     ??append,??append??rA
    287              LocalString += TabStr1 + KeyWord(C_PROJ_TYPE) + (AnsiString)ProjectType + CrLfStr;
   \   000001C8   381197E5           LDR      R1,[R7, #+312]
   \   000001CC   830F8DE2           ADD      R0,SP,#+524
   \   000001D0   400D80E2           ADD      R0,R0,#+4096
   \   000001D4   ........           _BLF     ??AnsiString_2,??AnsiString??rA_2
   \   000001D8   0090A0E1           MOV      R9,R0
   \   000001DC   B410A0E3           MOV      R1,#+180
   \   000001E0   401E81E3           ORR      R1,R1,#0x400
   \   000001E4   530F8DE2           ADD      R0,SP,#+332
   \   000001E8   800E80E2           ADD      R0,R0,#+2048
   \   000001EC   ........           _BLF     ??KeyWord,??KeyWord??rA
   \   000001F0   532F8DE2           ADD      R2,SP,#+332
   \   000001F4   802E82E2           ADD      R2,R2,#+2048
   \   000001F8   0610A0E1           MOV      R1,R6
   \   000001FC   930E8DE2           ADD      R0,SP,#+2352
   \   00000200   ........           _BLF     `??operator+`,`??operator+??rA`
   \   00000204   0920A0E1           MOV      R2,R9
   \   00000208   931E8DE2           ADD      R1,SP,#+2352
   \   0000020C   450F8DE2           ADD      R0,SP,#+276
   \   00000210   800E80E2           ADD      R0,R0,#+2048
   \   00000214   ........           _BLF     `??operator+`,`??operator+??rA`
   \   00000218   0420A0E1           MOV      R2,R4
   \   0000021C   451F8DE2           ADD      R1,SP,#+276
   \   00000220   801E81E2           ADD      R1,R1,#+2048
   \   00000224   F8008DE2           ADD      R0,SP,#+248
   \   00000228   800E80E2           ADD      R0,R0,#+2048
   \   0000022C   ........           _BLF     `??operator+`,`??operator+??rA`
   \   00000230   0530A0E1           MOV      R3,R5
   \   00000234   0020A0E3           MOV      R2,#+0
   \   00000238   F8108DE2           ADD      R1,SP,#+248
   \   0000023C   801E81E2           ADD      R1,R1,#+2048
   \   00000240   54008DE2           ADD      R0,SP,#+84
   \   00000244   ........           _BLF     ??append,??append??rA
   \   00000248   0020A0E3           MOV      R2,#+0
   \   0000024C   0110A0E3           MOV      R1,#+1
   \   00000250   F8008DE2           ADD      R0,SP,#+248
   \   00000254   800E80E2           ADD      R0,R0,#+2048
   \   00000258   ........           _BLF     ??_Tidy,??_Tidy??rA
   \   0000025C   0020A0E3           MOV      R2,#+0
   \   00000260   0110A0E3           MOV      R1,#+1
   \   00000264   450F8DE2           ADD      R0,SP,#+276
   \   00000268   800E80E2           ADD      R0,R0,#+2048
   \   0000026C   ........           _BLF     ??_Tidy,??_Tidy??rA
   \   00000270   0020A0E3           MOV      R2,#+0
   \   00000274   0110A0E3           MOV      R1,#+1
   \   00000278   830F8DE2           ADD      R0,SP,#+524
   \   0000027C   400D80E2           ADD      R0,R0,#+4096
   \   00000280   ........           _BLF     ??_Tidy,??_Tidy??rA
   \   00000284   0020A0E3           MOV      R2,#+0
   \   00000288   0110A0E3           MOV      R1,#+1
   \   0000028C   930E8DE2           ADD      R0,SP,#+2352
   \   00000290   ........           _BLF     ??_Tidy,??_Tidy??rA
   \   00000294   0020A0E3           MOV      R2,#+0
   \   00000298   0110A0E3           MOV      R1,#+1
   \   0000029C   530F8DE2           ADD      R0,SP,#+332
   \   000002A0   800E80E2           ADD      R0,R0,#+2048
   \   000002A4   ........           _BLF     ??_Tidy,??_Tidy??rA
    288              LocalString += TabStr1 + KeyWord(C_PRO_NAME) + Name + CrLfStr;
   \   000002A8   1510A0E3           MOV      R1,#+21
   \   000002AC   501E81E3           ORR      R1,R1,#0x500
   \   000002B0   6F0F8DE2           ADD      R0,SP,#+444
   \   000002B4   800E80E2           ADD      R0,R0,#+2048
   \   000002B8   ........           _BLF     ??KeyWord,??KeyWord??rA
   \   000002BC   6F2F8DE2           ADD      R2,SP,#+444
   \   000002C0   802E82E2           ADD      R2,R2,#+2048
   \   000002C4   0610A0E1           MOV      R1,R6
   \   000002C8   9A0E8DE2           ADD      R0,SP,#+2464
   \   000002CC   ........           _BLF     `??operator+`,`??operator+??rA`
   \   000002D0   442088E2           ADD      R2,R8,#+68
   \   000002D4   9A1E8DE2           ADD      R1,SP,#+2464
   \   000002D8   610F8DE2           ADD      R0,SP,#+388
   \   000002DC   800E80E2           ADD      R0,R0,#+2048
   \   000002E0   ........           _BLF     `??operator+`,`??operator+??rA`
   \   000002E4   0420A0E1           MOV      R2,R4
   \   000002E8   611F8DE2           ADD      R1,SP,#+388
   \   000002EC   801E81E2           ADD      R1,R1,#+2048
   \   000002F0   5A0F8DE2           ADD      R0,SP,#+360
   \   000002F4   800E80E2           ADD      R0,R0,#+2048
   \   000002F8   ........           _BLF     `??operator+`,`??operator+??rA`
   \   000002FC   0530A0E1           MOV      R3,R5
   \   00000300   0020A0E3           MOV      R2,#+0
   \   00000304   5A1F8DE2           ADD      R1,SP,#+360
   \   00000308   801E81E2           ADD      R1,R1,#+2048
   \   0000030C   54008DE2           ADD      R0,SP,#+84
   \   00000310   ........           _BLF     ??append,??append??rA
   \   00000314   0020A0E3           MOV      R2,#+0
   \   00000318   0110A0E3           MOV      R1,#+1
   \   0000031C   5A0F8DE2           ADD      R0,SP,#+360
   \   00000320   800E80E2           ADD      R0,R0,#+2048
   \   00000324   ........           _BLF     ??_Tidy,??_Tidy??rA
   \   00000328   0020A0E3           MOV      R2,#+0
   \   0000032C   0110A0E3           MOV      R1,#+1
   \   00000330   610F8DE2           ADD      R0,SP,#+388
   \   00000334   800E80E2           ADD      R0,R0,#+2048
   \   00000338   ........           _BLF     ??_Tidy,??_Tidy??rA
   \   0000033C   0020A0E3           MOV      R2,#+0
   \   00000340   0110A0E3           MOV      R1,#+1
   \   00000344   9A0E8DE2           ADD      R0,SP,#+2464
   \   00000348   ........           _BLF     ??_Tidy,??_Tidy??rA
   \   0000034C   0020A0E3           MOV      R2,#+0
   \   00000350   0110A0E3           MOV      R1,#+1
   \   00000354   6F0F8DE2           ADD      R0,SP,#+444
   \   00000358   800E80E2           ADD      R0,R0,#+2048
   \   0000035C   ........           _BLF     ??_Tidy,??_Tidy??rA
    289              LocalString += TabStr1 + KeyWord(C_PROJ_TYPE_NAME) + ProjTypeName + CrLfStr;
   \   00000360   B510A0E3           MOV      R1,#+181
   \   00000364   401E81E3           ORR      R1,R1,#0x400
   \   00000368   8B0F8DE2           ADD      R0,SP,#+556
   \   0000036C   800E80E2           ADD      R0,R0,#+2048
   \   00000370   ........           _BLF     ??KeyWord,??KeyWord??rA
   \   00000374   8B2F8DE2           ADD      R2,SP,#+556
   \   00000378   802E82E2           ADD      R2,R2,#+2048
   \   0000037C   0610A0E1           MOV      R1,R6
   \   00000380   A10E8DE2           ADD      R0,SP,#+2576
   \   00000384   ........           _BLF     `??operator+`,`??operator+??rA`
   \   00000388   692F87E2           ADD      R2,R7,#+420
   \   0000038C   A11E8DE2           ADD      R1,SP,#+2576
   \   00000390   7D0F8DE2           ADD      R0,SP,#+500
   \   00000394   800E80E2           ADD      R0,R0,#+2048
   \   00000398   ........           _BLF     `??operator+`,`??operator+??rA`
   \   0000039C   0420A0E1           MOV      R2,R4
   \   000003A0   7D1F8DE2           ADD      R1,SP,#+500
   \   000003A4   801E81E2           ADD      R1,R1,#+2048
   \   000003A8   760F8DE2           ADD      R0,SP,#+472
   \   000003AC   800E80E2           ADD      R0,R0,#+2048
   \   000003B0   ........           _BLF     `??operator+`,`??operator+??rA`
   \   000003B4   0530A0E1           MOV      R3,R5
   \   000003B8   0020A0E3           MOV      R2,#+0
   \   000003BC   761F8DE2           ADD      R1,SP,#+472
   \   000003C0   801E81E2           ADD      R1,R1,#+2048
   \   000003C4   54008DE2           ADD      R0,SP,#+84
   \   000003C8   ........           _BLF     ??append,??append??rA
   \   000003CC   0020A0E3           MOV      R2,#+0
   \   000003D0   0110A0E3           MOV      R1,#+1
   \   000003D4   760F8DE2           ADD      R0,SP,#+472
   \   000003D8   800E80E2           ADD      R0,R0,#+2048
   \   000003DC   ........           _BLF     ??_Tidy,??_Tidy??rA
   \   000003E0   0020A0E3           MOV      R2,#+0
   \   000003E4   0110A0E3           MOV      R1,#+1
   \   000003E8   7D0F8DE2           ADD      R0,SP,#+500
   \   000003EC   800E80E2           ADD      R0,R0,#+2048
   \   000003F0   ........           _BLF     ??_Tidy,??_Tidy??rA
   \   000003F4   0020A0E3           MOV      R2,#+0
   \   000003F8   0110A0E3           MOV      R1,#+1
   \   000003FC   A10E8DE2           ADD      R0,SP,#+2576
   \   00000400   ........           _BLF     ??_Tidy,??_Tidy??rA
   \   00000404   0020A0E3           MOV      R2,#+0
   \   00000408   0110A0E3           MOV      R1,#+1
   \   0000040C   8B0F8DE2           ADD      R0,SP,#+556
   \   00000410   800E80E2           ADD      R0,R0,#+2048
   \   00000414   ........           _BLF     ??_Tidy,??_Tidy??rA
    290              LocalString += TabStr1 + KeyWord(C_PROJ_CALLSIGN) + CallSign + CrLfStr;
   \   00000418   B710A0E3           MOV      R1,#+183
   \   0000041C   401E81E3           ORR      R1,R1,#0x400
   \   00000420   A70F8DE2           ADD      R0,SP,#+668
   \   00000424   800E80E2           ADD      R0,R0,#+2048
   \   00000428   ........           _BLF     ??KeyWord,??KeyWord??rA
   \   0000042C   A72F8DE2           ADD      R2,SP,#+668
   \   00000430   802E82E2           ADD      R2,R2,#+2048
   \   00000434   0610A0E1           MOV      R1,R6
   \   00000438   A80E8DE2           ADD      R0,SP,#+2688
   \   0000043C   ........           _BLF     `??operator+`,`??operator+??rA`
   \   00000440   772F87E2           ADD      R2,R7,#+476
   \   00000444   A81E8DE2           ADD      R1,SP,#+2688
   \   00000448   990F8DE2           ADD      R0,SP,#+612
   \   0000044C   800E80E2           ADD      R0,R0,#+2048
   \   00000450   ........           _BLF     `??operator+`,`??operator+??rA`
   \   00000454   0420A0E1           MOV      R2,R4
   \   00000458   991F8DE2           ADD      R1,SP,#+612
   \   0000045C   801E81E2           ADD      R1,R1,#+2048
   \   00000460   920F8DE2           ADD      R0,SP,#+584
   \   00000464   800E80E2           ADD      R0,R0,#+2048
   \   00000468   ........           _BLF     `??operator+`,`??operator+??rA`
   \   0000046C   0530A0E1           MOV      R3,R5
   \   00000470   0020A0E3           MOV      R2,#+0
   \   00000474   921F8DE2           ADD      R1,SP,#+584
   \   00000478   801E81E2           ADD      R1,R1,#+2048
   \   0000047C   54008DE2           ADD      R0,SP,#+84
   \   00000480   ........           _BLF     ??append,??append??rA
   \   00000484   0020A0E3           MOV      R2,#+0
   \   00000488   0110A0E3           MOV      R1,#+1
   \   0000048C   920F8DE2           ADD      R0,SP,#+584
   \   00000490   800E80E2           ADD      R0,R0,#+2048
   \   00000494   ........           _BLF     ??_Tidy,??_Tidy??rA
   \   00000498   0020A0E3           MOV      R2,#+0
   \   0000049C   0110A0E3           MOV      R1,#+1
   \   000004A0   990F8DE2           ADD      R0,SP,#+612
   \   000004A4   800E80E2           ADD      R0,R0,#+2048
   \   000004A8   ........           _BLF     ??_Tidy,??_Tidy??rA
   \   000004AC   0020A0E3           MOV      R2,#+0
   \   000004B0   0110A0E3           MOV      R1,#+1
   \   000004B4   A80E8DE2           ADD      R0,SP,#+2688
   \   000004B8   ........           _BLF     ??_Tidy,??_Tidy??rA
   \   000004BC   0020A0E3           MOV      R2,#+0
   \   000004C0   0110A0E3           MOV      R1,#+1
   \   000004C4   A70F8DE2           ADD      R0,SP,#+668
   \   000004C8   800E80E2           ADD      R0,R0,#+2048
   \   000004CC   ........           _BLF     ??_Tidy,??_Tidy??rA
    291              LocalString += TabStr1 + KeyWord(C_PROJ_IMO_NUM) + IMONumber + CrLfStr;
   \   000004D0   B810A0E3           MOV      R1,#+184
   \   000004D4   401E81E3           ORR      R1,R1,#0x400
   \   000004D8   C30F8DE2           ADD      R0,SP,#+780
   \   000004DC   800E80E2           ADD      R0,R0,#+2048
   \   000004E0   ........           _BLF     ??KeyWord,??KeyWord??rA
   \   000004E4   C32F8DE2           ADD      R2,SP,#+780
   \   000004E8   802E82E2           ADD      R2,R2,#+2048
   \   000004EC   0610A0E1           MOV      R1,R6
   \   000004F0   AF0E8DE2           ADD      R0,SP,#+2800
   \   000004F4   ........           _BLF     `??operator+`,`??operator+??rA`
   \   000004F8   7E2F87E2           ADD      R2,R7,#+504
   \   000004FC   AF1E8DE2           ADD      R1,SP,#+2800
   \   00000500   B50F8DE2           ADD      R0,SP,#+724
   \   00000504   800E80E2           ADD      R0,R0,#+2048
   \   00000508   ........           _BLF     `??operator+`,`??operator+??rA`
   \   0000050C   0420A0E1           MOV      R2,R4
   \   00000510   B51F8DE2           ADD      R1,SP,#+724
   \   00000514   801E81E2           ADD      R1,R1,#+2048
   \   00000518   AE0F8DE2           ADD      R0,SP,#+696
   \   0000051C   800E80E2           ADD      R0,R0,#+2048
   \   00000520   ........           _BLF     `??operator+`,`??operator+??rA`
   \   00000524   0530A0E1           MOV      R3,R5
   \   00000528   0020A0E3           MOV      R2,#+0
   \   0000052C   AE1F8DE2           ADD      R1,SP,#+696
   \   00000530   801E81E2           ADD      R1,R1,#+2048
   \   00000534   54008DE2           ADD      R0,SP,#+84
   \   00000538   ........           _BLF     ??append,??append??rA
   \   0000053C   0020A0E3           MOV      R2,#+0
   \   00000540   0110A0E3           MOV      R1,#+1
   \   00000544   AE0F8DE2           ADD      R0,SP,#+696
   \   00000548   800E80E2           ADD      R0,R0,#+2048
   \   0000054C   ........           _BLF     ??_Tidy,??_Tidy??rA
   \   00000550   0020A0E3           MOV      R2,#+0
   \   00000554   0110A0E3           MOV      R1,#+1
   \   00000558   B50F8DE2           ADD      R0,SP,#+724
   \   0000055C   800E80E2           ADD      R0,R0,#+2048
   \   00000560   ........           _BLF     ??_Tidy,??_Tidy??rA
   \   00000564   0020A0E3           MOV      R2,#+0
   \   00000568   0110A0E3           MOV      R1,#+1
   \   0000056C   AF0E8DE2           ADD      R0,SP,#+2800
   \   00000570   ........           _BLF     ??_Tidy,??_Tidy??rA
   \   00000574   0020A0E3           MOV      R2,#+0
   \   00000578   0110A0E3           MOV      R1,#+1
   \   0000057C   C30F8DE2           ADD      R0,SP,#+780
   \   00000580   800E80E2           ADD      R0,R0,#+2048
   \   00000584   ........           _BLF     ??_Tidy,??_Tidy??rA
    292              LocalString += TabStr1 + KeyWord(C_PROJ_LENGTH_BETWEEN_PP   ) + FloatToAnsiString(LengthBetweenPP) + CrLfStr;
   \   00000588   981097E5           LDR      R1,[R7, #+152]
   \   0000058C   0330A0E3           MOV      R3,#+3
   \   00000590   0720A0E3           MOV      R2,#+7
   \   00000594   E60F8DE2           ADD      R0,SP,#+920
   \   00000598   800E80E2           ADD      R0,R0,#+2048
   \   0000059C   ........           _BLF     ??FloatToAnsiString,??FloatToAnsiString??rA
   \   000005A0   B910A0E3           MOV      R1,#+185
   \   000005A4   401E81E3           ORR      R1,R1,#0x400
   \   000005A8   DF0F8DE2           ADD      R0,SP,#+892
   \   000005AC   800E80E2           ADD      R0,R0,#+2048
   \   000005B0   ........           _BLF     ??KeyWord,??KeyWord??rA
   \   000005B4   DF2F8DE2           ADD      R2,SP,#+892
   \   000005B8   802E82E2           ADD      R2,R2,#+2048
   \   000005BC   0610A0E1           MOV      R1,R6
   \   000005C0   B60E8DE2           ADD      R0,SP,#+2912
   \   000005C4   ........           _BLF     `??operator+`,`??operator+??rA`
   \   000005C8   E62F8DE2           ADD      R2,SP,#+920
   \   000005CC   802E82E2           ADD      R2,R2,#+2048
   \   000005D0   B61E8DE2           ADD      R1,SP,#+2912
   \   000005D4   D10F8DE2           ADD      R0,SP,#+836
   \   000005D8   800E80E2           ADD      R0,R0,#+2048
   \   000005DC   ........           _BLF     `??operator+`,`??operator+??rA`
   \   000005E0   0420A0E1           MOV      R2,R4
   \   000005E4   D11F8DE2           ADD      R1,SP,#+836
   \   000005E8   801E81E2           ADD      R1,R1,#+2048
   \   000005EC   CA0F8DE2           ADD      R0,SP,#+808
   \   000005F0   800E80E2           ADD      R0,R0,#+2048
   \   000005F4   ........           _BLF     `??operator+`,`??operator+??rA`
   \   000005F8   0530A0E1           MOV      R3,R5
   \   000005FC   0020A0E3           MOV      R2,#+0
   \   00000600   CA1F8DE2           ADD      R1,SP,#+808
   \   00000604   801E81E2           ADD      R1,R1,#+2048
   \   00000608   54008DE2           ADD      R0,SP,#+84
   \   0000060C   ........           _BLF     ??append,??append??rA
   \   00000610   0020A0E3           MOV      R2,#+0
   \   00000614   0110A0E3           MOV      R1,#+1
   \   00000618   CA0F8DE2           ADD      R0,SP,#+808
   \   0000061C   800E80E2           ADD      R0,R0,#+2048
   \   00000620   ........           _BLF     ??_Tidy,??_Tidy??rA
   \   00000624   0020A0E3           MOV      R2,#+0
   \   00000628   0110A0E3           MOV      R1,#+1
   \   0000062C   D10F8DE2           ADD      R0,SP,#+836
   \   00000630   800E80E2           ADD      R0,R0,#+2048
   \   00000634   ........           _BLF     ??_Tidy,??_Tidy??rA
   \   00000638   0020A0E3           MOV      R2,#+0
   \   0000063C   0110A0E3           MOV      R1,#+1
   \   00000640   E60F8DE2           ADD      R0,SP,#+920
   \   00000644   800E80E2           ADD      R0,R0,#+2048
   \   00000648   ........           _BLF     ??_Tidy,??_Tidy??rA
   \   0000064C   0020A0E3           MOV      R2,#+0
   \   00000650   0110A0E3           MOV      R1,#+1
   \   00000654   B60E8DE2           ADD      R0,SP,#+2912
   \   00000658   ........           _BLF     ??_Tidy,??_Tidy??rA
   \   0000065C   0020A0E3           MOV      R2,#+0
   \   00000660   0110A0E3           MOV      R1,#+1
   \   00000664   DF0F8DE2           ADD      R0,SP,#+892
   \   00000668   800E80E2           ADD      R0,R0,#+2048
   \   0000066C   ........           _BLF     ??_Tidy,??_Tidy??rA
    293              LocalString += TabStr1 + KeyWord(C_PROJ_LENGTH_BETWEEN_MARKS) + FloatToAnsiString(LengthBetweenMarks) + CrLfStr;
   \   00000670   9C1097E5           LDR      R1,[R7, #+156]
   \   00000674   0330A0E3           MOV      R3,#+3
   \   00000678   0720A0E3           MOV      R2,#+7
   \   0000067C   24008DE2           ADD      R0,SP,#+36
   \   00000680   C00E80E2           ADD      R0,R0,#+3072
   \   00000684   ........           _BLF     ??FloatToAnsiString,??FloatToAnsiString??rA
   \   00000688   BA10A0E3           MOV      R1,#+186
   \   0000068C   401E81E3           ORR      R1,R1,#0x400
   \   00000690   08008DE2           ADD      R0,SP,#+8
   \   00000694   C00E80E2           ADD      R0,R0,#+3072
   \   00000698   ........           _BLF     ??KeyWord,??KeyWord??rA
   \   0000069C   08208DE2           ADD      R2,SP,#+8
   \   000006A0   C02E82E2           ADD      R2,R2,#+3072
   \   000006A4   0610A0E1           MOV      R1,R6
   \   000006A8   FB0F8DE2           ADD      R0,SP,#+1004
   \   000006AC   800E80E2           ADD      R0,R0,#+2048
   \   000006B0   ........           _BLF     `??operator+`,`??operator+??rA`
   \   000006B4   24208DE2           ADD      R2,SP,#+36
   \   000006B8   C02E82E2           ADD      R2,R2,#+3072
   \   000006BC   FB1F8DE2           ADD      R1,SP,#+1004
   \   000006C0   801E81E2           ADD      R1,R1,#+2048
   \   000006C4   BD0E8DE2           ADD      R0,SP,#+3024
   \   000006C8   ........           _BLF     `??operator+`,`??operator+??rA`
   \   000006CC   0420A0E1           MOV      R2,R4
   \   000006D0   BD1E8DE2           ADD      R1,SP,#+3024
   \   000006D4   ED0F8DE2           ADD      R0,SP,#+948
   \   000006D8   800E80E2           ADD      R0,R0,#+2048
   \   000006DC   ........           _BLF     `??operator+`,`??operator+??rA`
   \   000006E0   0530A0E1           MOV      R3,R5
   \   000006E4   0020A0E3           MOV      R2,#+0
   \   000006E8   ED1F8DE2           ADD      R1,SP,#+948
   \   000006EC   801E81E2           ADD      R1,R1,#+2048
   \   000006F0   54008DE2           ADD      R0,SP,#+84
   \   000006F4   ........           _BLF     ??append,??append??rA
   \   000006F8   0020A0E3           MOV      R2,#+0
   \   000006FC   0110A0E3           MOV      R1,#+1
   \   00000700   ED0F8DE2           ADD      R0,SP,#+948
   \   00000704   800E80E2           ADD      R0,R0,#+2048
   \   00000708   ........           _BLF     ??_Tidy,??_Tidy??rA
   \   0000070C   0020A0E3           MOV      R2,#+0
   \   00000710   0110A0E3           MOV      R1,#+1
   \   00000714   BD0E8DE2           ADD      R0,SP,#+3024
   \   00000718   ........           _BLF     ??_Tidy,??_Tidy??rA
   \   0000071C   0020A0E3           MOV      R2,#+0
   \   00000720   0110A0E3           MOV      R1,#+1
   \   00000724   24008DE2           ADD      R0,SP,#+36
   \   00000728   C00E80E2           ADD      R0,R0,#+3072
   \   0000072C   ........           _BLF     ??_Tidy,??_Tidy??rA
   \   00000730   0020A0E3           MOV      R2,#+0
   \   00000734   0110A0E3           MOV      R1,#+1
   \   00000738   FB0F8DE2           ADD      R0,SP,#+1004
   \   0000073C   800E80E2           ADD      R0,R0,#+2048
   \   00000740   ........           _BLF     ??_Tidy,??_Tidy??rA
   \   00000744   0020A0E3           MOV      R2,#+0
   \   00000748   0110A0E3           MOV      R1,#+1
   \   0000074C   08008DE2           ADD      R0,SP,#+8
   \   00000750   C00E80E2           ADD      R0,R0,#+3072
   \   00000754   ........           _BLF     ??_Tidy,??_Tidy??rA
    294              LocalString += TabStr1 + KeyWord(C_PROJ_TOT_WITH) + FloatToAnsiString(Width) + CrLfStr;
   \   00000758   A01097E5           LDR      R1,[R7, #+160]
   \   0000075C   0330A0E3           MOV      R3,#+3
   \   00000760   0720A0E3           MOV      R2,#+7
   \   00000764   CB0E8DE2           ADD      R0,SP,#+3248
   \   00000768   ........           _BLF     ??FloatToAnsiString,??FloatToAnsiString??rA
   \   0000076C   BB10A0E3           MOV      R1,#+187
   \   00000770   401E81E3           ORR      R1,R1,#0x400
   \   00000774   94008DE2           ADD      R0,SP,#+148
   \   00000778   C00E80E2           ADD      R0,R0,#+3072
   \   0000077C   ........           _BLF     ??KeyWord,??KeyWord??rA
   \   00000780   94208DE2           ADD      R2,SP,#+148
   \   00000784   C02E82E2           ADD      R2,R2,#+3072
   \   00000788   0610A0E1           MOV      R1,R6
   \   0000078C   78008DE2           ADD      R0,SP,#+120
   \   00000790   C00E80E2           ADD      R0,R0,#+3072
   \   00000794   ........           _BLF     `??operator+`,`??operator+??rA`
   \   00000798   CB2E8DE2           ADD      R2,SP,#+3248
   \   0000079C   78108DE2           ADD      R1,SP,#+120
   \   000007A0   C01E81E2           ADD      R1,R1,#+3072
   \   000007A4   5C008DE2           ADD      R0,SP,#+92
   \   000007A8   C00E80E2           ADD      R0,R0,#+3072
   \   000007AC   ........           _BLF     `??operator+`,`??operator+??rA`
   \   000007B0   0420A0E1           MOV      R2,R4
   \   000007B4   5C108DE2           ADD      R1,SP,#+92
   \   000007B8   C01E81E2           ADD      R1,R1,#+3072
   \   000007BC   C40E8DE2           ADD      R0,SP,#+3136
   \   000007C0   ........           _BLF     `??operator+`,`??operator+??rA`
   \   000007C4   0530A0E1           MOV      R3,R5
   \   000007C8   0020A0E3           MOV      R2,#+0
   \   000007CC   C41E8DE2           ADD      R1,SP,#+3136
   \   000007D0   54008DE2           ADD      R0,SP,#+84
   \   000007D4   ........           _BLF     ??append,??append??rA
   \   000007D8   0020A0E3           MOV      R2,#+0
   \   000007DC   0110A0E3           MOV      R1,#+1
   \   000007E0   C40E8DE2           ADD      R0,SP,#+3136
   \   000007E4   ........           _BLF     ??_Tidy,??_Tidy??rA
   \   000007E8   0020A0E3           MOV      R2,#+0
   \   000007EC   0110A0E3           MOV      R1,#+1
   \   000007F0   5C008DE2           ADD      R0,SP,#+92
   \   000007F4   C00E80E2           ADD      R0,R0,#+3072
   \   000007F8   ........           _BLF     ??_Tidy,??_Tidy??rA
   \   000007FC   0020A0E3           MOV      R2,#+0
   \   00000800   0110A0E3           MOV      R1,#+1
   \   00000804   CB0E8DE2           ADD      R0,SP,#+3248
   \   00000808   ........           _BLF     ??_Tidy,??_Tidy??rA
   \   0000080C   0020A0E3           MOV      R2,#+0
   \   00000810   0110A0E3           MOV      R1,#+1
   \   00000814   78008DE2           ADD      R0,SP,#+120
   \   00000818   C00E80E2           ADD      R0,R0,#+3072
   \   0000081C   ........           _BLF     ??_Tidy,??_Tidy??rA
   \   00000820   0020A0E3           MOV      R2,#+0
   \   00000824   0110A0E3           MOV      R1,#+1
   \   00000828   94008DE2           ADD      R0,SP,#+148
   \   0000082C   C00E80E2           ADD      R0,R0,#+3072
   \   00000830   ........           _BLF     ??_Tidy,??_Tidy??rA
    295              LocalString += MakeIdTableString();
   \   00000834   0020A0E3           MOV      R2,#+0
   \   00000838   CC108DE2           ADD      R1,SP,#+204
   \   0000083C   C01E81E2           ADD      R1,R1,#+3072
   \   00000840   0800A0E1           MOV      R0,R8
   \   00000844   ........           _BLF     ??MakeIdTableString,??MakeIdTableString??rA
   \   00000848   0530A0E1           MOV      R3,R5
   \   0000084C   0020A0E3           MOV      R2,#+0
   \   00000850   CC108DE2           ADD      R1,SP,#+204
   \   00000854   C01E81E2           ADD      R1,R1,#+3072
   \   00000858   54008DE2           ADD      R0,SP,#+84
   \   0000085C   ........           _BLF     ??append,??append??rA
   \   00000860   0020A0E3           MOV      R2,#+0
   \   00000864   0110A0E3           MOV      R1,#+1
   \   00000868   CC008DE2           ADD      R0,SP,#+204
   \   0000086C   C00E80E2           ADD      R0,R0,#+3072
   \   00000870   ........           _BLF     ??_Tidy,??_Tidy??rA
    296              if (IntegratedLoadingComputer) {
   \   00000874   6C01D7E5           LDRB     R0,[R7, #+364]
   \   00000878   000050E3           CMP      R0,#+0
   \   0000087C   1C00000A           BEQ      ??WriteConfigToFile_4
    297                  LocalString += TabStr1 + KeyWord(C_PROJ_LOADING_COMPUTER) + CrLfStr;
   \   00000880   BC10A0E3           MOV      R1,#+188
   \   00000884   401E81E3           ORR      R1,R1,#0x400
   \   00000888   38008DE2           ADD      R0,SP,#+56
   \   0000088C   ........           _BLF     ??KeyWord,??KeyWord??rA
   \   00000890   38208DE2           ADD      R2,SP,#+56
   \   00000894   0610A0E1           MOV      R1,R6
   \   00000898   1C008DE2           ADD      R0,SP,#+28
   \   0000089C   ........           _BLF     `??operator+`,`??operator+??rA`
   \   000008A0   0420A0E1           MOV      R2,R4
   \   000008A4   1C108DE2           ADD      R1,SP,#+28
   \   000008A8   0D00A0E1           MOV      R0,SP
   \   000008AC   ........           _BLF     `??operator+`,`??operator+??rA`
   \   000008B0   0530A0E1           MOV      R3,R5
   \   000008B4   0020A0E3           MOV      R2,#+0
   \   000008B8   0D10A0E1           MOV      R1,SP
   \   000008BC   54008DE2           ADD      R0,SP,#+84
   \   000008C0   ........           _BLF     ??append,??append??rA
   \   000008C4   0020A0E3           MOV      R2,#+0
   \   000008C8   0110A0E3           MOV      R1,#+1
   \   000008CC   0D00A0E1           MOV      R0,SP
   \   000008D0   ........           _BLF     ??_Tidy,??_Tidy??rA
   \   000008D4   0020A0E3           MOV      R2,#+0
   \   000008D8   0110A0E3           MOV      R1,#+1
   \   000008DC   1C008DE2           ADD      R0,SP,#+28
   \   000008E0   ........           _BLF     ??_Tidy,??_Tidy??rA
   \   000008E4   0020A0E3           MOV      R2,#+0
   \   000008E8   0110A0E3           MOV      R1,#+1
   \   000008EC   38008DE2           ADD      R0,SP,#+56
   \   000008F0   ........           _BLF     ??_Tidy,??_Tidy??rA
    298              }
    299              if (IsInlandVessel) {
   \                     ??WriteConfigToFile_4:
   \   000008F4   6D01D7E5           LDRB     R0,[R7, #+365]
   \   000008F8   000050E3           CMP      R0,#+0
   \   000008FC   1C00000A           BEQ      ??WriteConfigToFile_5
    300                  LocalString += TabStr1 + KeyWord(C_PROJ_IS_INLAND_VESSEL) + CrLfStr;
   \   00000900   BE10A0E3           MOV      R1,#+190
   \   00000904   401E81E3           ORR      R1,R1,#0x400
   \   00000908   1C008DE2           ADD      R0,SP,#+28
   \   0000090C   ........           _BLF     ??KeyWord,??KeyWord??rA
   \   00000910   1C208DE2           ADD      R2,SP,#+28
   \   00000914   0610A0E1           MOV      R1,R6
   \   00000918   38008DE2           ADD      R0,SP,#+56
   \   0000091C   ........           _BLF     `??operator+`,`??operator+??rA`
   \   00000920   0420A0E1           MOV      R2,R4
   \   00000924   38108DE2           ADD      R1,SP,#+56
   \   00000928   0D00A0E1           MOV      R0,SP
   \   0000092C   ........           _BLF     `??operator+`,`??operator+??rA`
   \   00000930   0530A0E1           MOV      R3,R5
   \   00000934   0020A0E3           MOV      R2,#+0
   \   00000938   0D10A0E1           MOV      R1,SP
   \   0000093C   54008DE2           ADD      R0,SP,#+84
   \   00000940   ........           _BLF     ??append,??append??rA
   \   00000944   0020A0E3           MOV      R2,#+0
   \   00000948   0110A0E3           MOV      R1,#+1
   \   0000094C   0D00A0E1           MOV      R0,SP
   \   00000950   ........           _BLF     ??_Tidy,??_Tidy??rA
   \   00000954   0020A0E3           MOV      R2,#+0
   \   00000958   0110A0E3           MOV      R1,#+1
   \   0000095C   38008DE2           ADD      R0,SP,#+56
   \   00000960   ........           _BLF     ??_Tidy,??_Tidy??rA
   \   00000964   0020A0E3           MOV      R2,#+0
   \   00000968   0110A0E3           MOV      R1,#+1
   \   0000096C   1C008DE2           ADD      R0,SP,#+28
   \   00000970   ........           _BLF     ??_Tidy,??_Tidy??rA
    301              }
    302              if (IsCustodyTransferSys) {
   \                     ??WriteConfigToFile_5:
   \   00000974   6E01D7E5           LDRB     R0,[R7, #+366]
   \   00000978   000050E3           CMP      R0,#+0
   \   0000097C   1C00000A           BEQ      ??WriteConfigToFile_6
    303                  LocalString += TabStr1 + KeyWord(C_PROJ_IS_CUSTODY_TRANSFER_SYS) + CrLfStr;
   \   00000980   BF10A0E3           MOV      R1,#+191
   \   00000984   401E81E3           ORR      R1,R1,#0x400
   \   00000988   38008DE2           ADD      R0,SP,#+56
   \   0000098C   ........           _BLF     ??KeyWord,??KeyWord??rA
   \   00000990   38208DE2           ADD      R2,SP,#+56
   \   00000994   0610A0E1           MOV      R1,R6
   \   00000998   1C008DE2           ADD      R0,SP,#+28
   \   0000099C   ........           _BLF     `??operator+`,`??operator+??rA`
   \   000009A0   0420A0E1           MOV      R2,R4
   \   000009A4   1C108DE2           ADD      R1,SP,#+28
   \   000009A8   0D00A0E1           MOV      R0,SP
   \   000009AC   ........           _BLF     `??operator+`,`??operator+??rA`
   \   000009B0   0530A0E1           MOV      R3,R5
   \   000009B4   0020A0E3           MOV      R2,#+0
   \   000009B8   0D10A0E1           MOV      R1,SP
   \   000009BC   54008DE2           ADD      R0,SP,#+84
   \   000009C0   ........           _BLF     ??append,??append??rA
   \   000009C4   0020A0E3           MOV      R2,#+0
   \   000009C8   0110A0E3           MOV      R1,#+1
   \   000009CC   0D00A0E1           MOV      R0,SP
   \   000009D0   ........           _BLF     ??_Tidy,??_Tidy??rA
   \   000009D4   0020A0E3           MOV      R2,#+0
   \   000009D8   0110A0E3           MOV      R1,#+1
   \   000009DC   1C008DE2           ADD      R0,SP,#+28
   \   000009E0   ........           _BLF     ??_Tidy,??_Tidy??rA
   \   000009E4   0020A0E3           MOV      R2,#+0
   \   000009E8   0110A0E3           MOV      R1,#+1
   \   000009EC   38008DE2           ADD      R0,SP,#+56
   \   000009F0   ........           _BLF     ??_Tidy,??_Tidy??rA
    304              }
    305          
    306              if (PressLim_mBar) {
   \                     ??WriteConfigToFile_6:
   \   000009F4   8411D7E5           LDRB     R1,[R7, #+388]
   \   000009F8   000051E3           CMP      R1,#+0
   \   000009FC   2A00000A           BEQ      ??WriteConfigToFile_7
    307                  LocalString += TabStr1 + KeyWord(C_PRESS_LIM_MBAR) + AnsiString(int(PressLim_mBar)) + CrLfStr;
   \   00000A00   70008DE2           ADD      R0,SP,#+112
   \   00000A04   ........           _BLF     ??AnsiString_2,??AnsiString??rA_2
   \   00000A08   0080A0E1           MOV      R8,R0
   \   00000A0C   6F10A0E3           MOV      R1,#+111
   \   00000A10   8C008DE2           ADD      R0,SP,#+140
   \   00000A14   ........           _BLF     ??KeyWord,??KeyWord??rA
   \   00000A18   8C208DE2           ADD      R2,SP,#+140
   \   00000A1C   0610A0E1           MOV      R1,R6
   \   00000A20   1C008DE2           ADD      R0,SP,#+28
   \   00000A24   ........           _BLF     `??operator+`,`??operator+??rA`
   \   00000A28   0820A0E1           MOV      R2,R8
   \   00000A2C   1C108DE2           ADD      R1,SP,#+28
   \   00000A30   38008DE2           ADD      R0,SP,#+56
   \   00000A34   ........           _BLF     `??operator+`,`??operator+??rA`
   \   00000A38   0420A0E1           MOV      R2,R4
   \   00000A3C   38108DE2           ADD      R1,SP,#+56
   \   00000A40   0D00A0E1           MOV      R0,SP
   \   00000A44   ........           _BLF     `??operator+`,`??operator+??rA`
   \   00000A48   0530A0E1           MOV      R3,R5
   \   00000A4C   0020A0E3           MOV      R2,#+0
   \   00000A50   0D10A0E1           MOV      R1,SP
   \   00000A54   54008DE2           ADD      R0,SP,#+84
   \   00000A58   ........           _BLF     ??append,??append??rA
   \   00000A5C   0020A0E3           MOV      R2,#+0
   \   00000A60   0110A0E3           MOV      R1,#+1
   \   00000A64   0D00A0E1           MOV      R0,SP
   \   00000A68   ........           _BLF     ??_Tidy,??_Tidy??rA
   \   00000A6C   0020A0E3           MOV      R2,#+0
   \   00000A70   0110A0E3           MOV      R1,#+1
   \   00000A74   38008DE2           ADD      R0,SP,#+56
   \   00000A78   ........           _BLF     ??_Tidy,??_Tidy??rA
   \   00000A7C   0020A0E3           MOV      R2,#+0
   \   00000A80   0110A0E3           MOV      R1,#+1
   \   00000A84   70008DE2           ADD      R0,SP,#+112
   \   00000A88   ........           _BLF     ??_Tidy,??_Tidy??rA
   \   00000A8C   0020A0E3           MOV      R2,#+0
   \   00000A90   0110A0E3           MOV      R1,#+1
   \   00000A94   1C008DE2           ADD      R0,SP,#+28
   \   00000A98   ........           _BLF     ??_Tidy,??_Tidy??rA
   \   00000A9C   0020A0E3           MOV      R2,#+0
   \   00000AA0   0110A0E3           MOV      R1,#+1
   \   00000AA4   8C008DE2           ADD      R0,SP,#+140
   \   00000AA8   ........           _BLF     ??_Tidy,??_Tidy??rA
    308              }
    309              /*
    310              // Skal resettes, ikke lagres
    311              if ( RequestConfig ) {
    312                  LocalString +=TabStr1+KeyWord(C_REQUEST_CONFIG)+CrLfStr;
    313              }
    314              */
    315              if (AutoAcknowledge) {
   \                     ??WriteConfigToFile_7:
   \   00000AAC   7601D7E5           LDRB     R0,[R7, #+374]
   \   00000AB0   000050E3           CMP      R0,#+0
   \   00000AB4   1C00000A           BEQ      ??WriteConfigToFile_8
    316                  LocalString += TabStr1 + KeyWord(C_PROJ_AUTO_ALARM_ACKN) + CrLfStr;
   \   00000AB8   C110A0E3           MOV      R1,#+193
   \   00000ABC   401E81E3           ORR      R1,R1,#0x400
   \   00000AC0   38008DE2           ADD      R0,SP,#+56
   \   00000AC4   ........           _BLF     ??KeyWord,??KeyWord??rA
   \   00000AC8   38208DE2           ADD      R2,SP,#+56
   \   00000ACC   0610A0E1           MOV      R1,R6
   \   00000AD0   1C008DE2           ADD      R0,SP,#+28
   \   00000AD4   ........           _BLF     `??operator+`,`??operator+??rA`
   \   00000AD8   0420A0E1           MOV      R2,R4
   \   00000ADC   1C108DE2           ADD      R1,SP,#+28
   \   00000AE0   0D00A0E1           MOV      R0,SP
   \   00000AE4   ........           _BLF     `??operator+`,`??operator+??rA`
   \   00000AE8   0530A0E1           MOV      R3,R5
   \   00000AEC   0020A0E3           MOV      R2,#+0
   \   00000AF0   0D10A0E1           MOV      R1,SP
   \   00000AF4   54008DE2           ADD      R0,SP,#+84
   \   00000AF8   ........           _BLF     ??append,??append??rA
   \   00000AFC   0020A0E3           MOV      R2,#+0
   \   00000B00   0110A0E3           MOV      R1,#+1
   \   00000B04   0D00A0E1           MOV      R0,SP
   \   00000B08   ........           _BLF     ??_Tidy,??_Tidy??rA
   \   00000B0C   0020A0E3           MOV      R2,#+0
   \   00000B10   0110A0E3           MOV      R1,#+1
   \   00000B14   1C008DE2           ADD      R0,SP,#+28
   \   00000B18   ........           _BLF     ??_Tidy,??_Tidy??rA
   \   00000B1C   0020A0E3           MOV      R2,#+0
   \   00000B20   0110A0E3           MOV      R1,#+1
   \   00000B24   38008DE2           ADD      R0,SP,#+56
   \   00000B28   ........           _BLF     ??_Tidy,??_Tidy??rA
    317              }
    318          
    319              if (TankMaxLoadTime != DEFAULT_LOAD_TIME) {
   \                     ??WriteConfigToFile_8:
   \   00000B2C   308197E5           LDR      R8,[R7, #+304]
   \   00000B30   0800A0E1           MOV      R0,R8
   \   00000B34   ........           _BLF     __floatToDouble,??__floatToDouble??rA
   \   00000B38   0020A0E1           MOV      R2,R0
   \   00000B3C   0130A0E1           MOV      R3,R1
   \   00000B40   0000A0E3           MOV      R0,#+0
   \   00000B44   4014A0E3           MOV      R1,#+1073741824
   \   00000B48   E01981E3           ORR      R1,R1,#0x380000
   \   00000B4C   ........           _BLF     __dNotEqual,??__dNotEqual??rA
   \   00000B50   000050E3           CMP      R0,#+0
   \   00000B54   2D00000A           BEQ      ??WriteConfigToFile_9
    320                  LocalString += TabStr1 + KeyWord(C_PROJ_LOADRATE_LOAD_TIME) + FloatToAnsiString(TankMaxLoadTime) + CrLfStr;
   \   00000B58   0330A0E3           MOV      R3,#+3
   \   00000B5C   0720A0E3           MOV      R2,#+7
   \   00000B60   0810A0E1           MOV      R1,R8
   \   00000B64   70008DE2           ADD      R0,SP,#+112
   \   00000B68   ........           _BLF     ??FloatToAnsiString,??FloatToAnsiString??rA
   \   00000B6C   BD10A0E3           MOV      R1,#+189
   \   00000B70   401E81E3           ORR      R1,R1,#0x400
   \   00000B74   8C008DE2           ADD      R0,SP,#+140
   \   00000B78   ........           _BLF     ??KeyWord,??KeyWord??rA
   \   00000B7C   8C208DE2           ADD      R2,SP,#+140
   \   00000B80   0610A0E1           MOV      R1,R6
   \   00000B84   1C008DE2           ADD      R0,SP,#+28
   \   00000B88   ........           _BLF     `??operator+`,`??operator+??rA`
   \   00000B8C   70208DE2           ADD      R2,SP,#+112
   \   00000B90   1C108DE2           ADD      R1,SP,#+28
   \   00000B94   38008DE2           ADD      R0,SP,#+56
   \   00000B98   ........           _BLF     `??operator+`,`??operator+??rA`
   \   00000B9C   0420A0E1           MOV      R2,R4
   \   00000BA0   38108DE2           ADD      R1,SP,#+56
   \   00000BA4   0D00A0E1           MOV      R0,SP
   \   00000BA8   ........           _BLF     `??operator+`,`??operator+??rA`
   \   00000BAC   0530A0E1           MOV      R3,R5
   \   00000BB0   0020A0E3           MOV      R2,#+0
   \   00000BB4   0D10A0E1           MOV      R1,SP
   \   00000BB8   54008DE2           ADD      R0,SP,#+84
   \   00000BBC   ........           _BLF     ??append,??append??rA
   \   00000BC0   0020A0E3           MOV      R2,#+0
   \   00000BC4   0110A0E3           MOV      R1,#+1
   \   00000BC8   0D00A0E1           MOV      R0,SP
   \   00000BCC   ........           _BLF     ??_Tidy,??_Tidy??rA
   \   00000BD0   0020A0E3           MOV      R2,#+0
   \   00000BD4   0110A0E3           MOV      R1,#+1
   \   00000BD8   38008DE2           ADD      R0,SP,#+56
   \   00000BDC   ........           _BLF     ??_Tidy,??_Tidy??rA
   \   00000BE0   0020A0E3           MOV      R2,#+0
   \   00000BE4   0110A0E3           MOV      R1,#+1
   \   00000BE8   70008DE2           ADD      R0,SP,#+112
   \   00000BEC   ........           _BLF     ??_Tidy,??_Tidy??rA
   \   00000BF0   0020A0E3           MOV      R2,#+0
   \   00000BF4   0110A0E3           MOV      R1,#+1
   \   00000BF8   1C008DE2           ADD      R0,SP,#+28
   \   00000BFC   ........           _BLF     ??_Tidy,??_Tidy??rA
   \   00000C00   0020A0E3           MOV      R2,#+0
   \   00000C04   0110A0E3           MOV      R1,#+1
   \   00000C08   8C008DE2           ADD      R0,SP,#+140
   \   00000C0C   ........           _BLF     ??_Tidy,??_Tidy??rA
    321              }
    322              if (AlarmSystemStartUpDelay != ALARM_SYSTEM_DELAY) {
   \                     ??WriteConfigToFile_9:
   \   00000C10   941097E5           LDR      R1,[R7, #+148]
   \   00000C14   780051E3           CMP      R1,#+120
   \   00000C18   2B00000A           BEQ      ??WriteConfigToFile_10
    323                  LocalString += TabStr1 + KeyWord(C_PROJ_ALARMSYS_DELAY) + AnsiString(AlarmSystemStartUpDelay) + CrLfStr;
   \   00000C1C   8C008DE2           ADD      R0,SP,#+140
   \   00000C20   ........           _BLF     ??AnsiString_2,??AnsiString??rA_2
   \   00000C24   0080A0E1           MOV      R8,R0
   \   00000C28   C210A0E3           MOV      R1,#+194
   \   00000C2C   401E81E3           ORR      R1,R1,#0x400
   \   00000C30   70008DE2           ADD      R0,SP,#+112
   \   00000C34   ........           _BLF     ??KeyWord,??KeyWord??rA
   \   00000C38   70208DE2           ADD      R2,SP,#+112
   \   00000C3C   0610A0E1           MOV      R1,R6
   \   00000C40   38008DE2           ADD      R0,SP,#+56
   \   00000C44   ........           _BLF     `??operator+`,`??operator+??rA`
   \   00000C48   0820A0E1           MOV      R2,R8
   \   00000C4C   38108DE2           ADD      R1,SP,#+56
   \   00000C50   1C008DE2           ADD      R0,SP,#+28
   \   00000C54   ........           _BLF     `??operator+`,`??operator+??rA`
   \   00000C58   0420A0E1           MOV      R2,R4
   \   00000C5C   1C108DE2           ADD      R1,SP,#+28
   \   00000C60   0D00A0E1           MOV      R0,SP
   \   00000C64   ........           _BLF     `??operator+`,`??operator+??rA`
   \   00000C68   0530A0E1           MOV      R3,R5
   \   00000C6C   0020A0E3           MOV      R2,#+0
   \   00000C70   0D10A0E1           MOV      R1,SP
   \   00000C74   54008DE2           ADD      R0,SP,#+84
   \   00000C78   ........           _BLF     ??append,??append??rA
   \   00000C7C   0020A0E3           MOV      R2,#+0
   \   00000C80   0110A0E3           MOV      R1,#+1
   \   00000C84   0D00A0E1           MOV      R0,SP
   \   00000C88   ........           _BLF     ??_Tidy,??_Tidy??rA
   \   00000C8C   0020A0E3           MOV      R2,#+0
   \   00000C90   0110A0E3           MOV      R1,#+1
   \   00000C94   1C008DE2           ADD      R0,SP,#+28
   \   00000C98   ........           _BLF     ??_Tidy,??_Tidy??rA
   \   00000C9C   0020A0E3           MOV      R2,#+0
   \   00000CA0   0110A0E3           MOV      R1,#+1
   \   00000CA4   8C008DE2           ADD      R0,SP,#+140
   \   00000CA8   ........           _BLF     ??_Tidy,??_Tidy??rA
   \   00000CAC   0020A0E3           MOV      R2,#+0
   \   00000CB0   0110A0E3           MOV      R1,#+1
   \   00000CB4   38008DE2           ADD      R0,SP,#+56
   \   00000CB8   ........           _BLF     ??_Tidy,??_Tidy??rA
   \   00000CBC   0020A0E3           MOV      R2,#+0
   \   00000CC0   0110A0E3           MOV      R1,#+1
   \   00000CC4   70008DE2           ADD      R0,SP,#+112
   \   00000CC8   ........           _BLF     ??_Tidy,??_Tidy??rA
    324              }
    325              if (isChemGasProject) {
   \                     ??WriteConfigToFile_10:
   \   00000CCC   5801D7E5           LDRB     R0,[R7, #+344]
   \   00000CD0   000050E3           CMP      R0,#+0
   \   00000CD4   1C00000A           BEQ      ??WriteConfigToFile_11
    326                  LocalString += TabStr1 + KeyWord(C_PROJ_IS_HSH_VESSEL) + CrLfStr;
   \   00000CD8   C310A0E3           MOV      R1,#+195
   \   00000CDC   401E81E3           ORR      R1,R1,#0x400
   \   00000CE0   1C008DE2           ADD      R0,SP,#+28
   \   00000CE4   ........           _BLF     ??KeyWord,??KeyWord??rA
   \   00000CE8   1C208DE2           ADD      R2,SP,#+28
   \   00000CEC   0610A0E1           MOV      R1,R6
   \   00000CF0   38008DE2           ADD      R0,SP,#+56
   \   00000CF4   ........           _BLF     `??operator+`,`??operator+??rA`
   \   00000CF8   0420A0E1           MOV      R2,R4
   \   00000CFC   38108DE2           ADD      R1,SP,#+56
   \   00000D00   0D00A0E1           MOV      R0,SP
   \   00000D04   ........           _BLF     `??operator+`,`??operator+??rA`
   \   00000D08   0530A0E1           MOV      R3,R5
   \   00000D0C   0020A0E3           MOV      R2,#+0
   \   00000D10   0D10A0E1           MOV      R1,SP
   \   00000D14   54008DE2           ADD      R0,SP,#+84
   \   00000D18   ........           _BLF     ??append,??append??rA
   \   00000D1C   0020A0E3           MOV      R2,#+0
   \   00000D20   0110A0E3           MOV      R1,#+1
   \   00000D24   0D00A0E1           MOV      R0,SP
   \   00000D28   ........           _BLF     ??_Tidy,??_Tidy??rA
   \   00000D2C   0020A0E3           MOV      R2,#+0
   \   00000D30   0110A0E3           MOV      R1,#+1
   \   00000D34   38008DE2           ADD      R0,SP,#+56
   \   00000D38   ........           _BLF     ??_Tidy,??_Tidy??rA
   \   00000D3C   0020A0E3           MOV      R2,#+0
   \   00000D40   0110A0E3           MOV      R1,#+1
   \   00000D44   1C008DE2           ADD      R0,SP,#+28
   \   00000D48   ........           _BLF     ??_Tidy,??_Tidy??rA
    327              }
    328          
    329              LocalString += TabStr1 + KeyWord(AL_LIM_OVERFILL) + FloatToAnsiString(OverfillLimit) + CrLfStr;
   \                     ??WriteConfigToFile_11:
   \   00000D4C   D01097E5           LDR      R1,[R7, #+208]
   \   00000D50   0330A0E3           MOV      R3,#+3
   \   00000D54   0720A0E3           MOV      R2,#+7
   \   00000D58   560F8DE2           ADD      R0,SP,#+344
   \   00000D5C   C00E80E2           ADD      R0,R0,#+3072
   \   00000D60   ........           _BLF     ??FloatToAnsiString,??FloatToAnsiString??rA
   \   00000D64   1A10A0E3           MOV      R1,#+26
   \   00000D68   E01E81E3           ORR      R1,R1,#0xE00
   \   00000D6C   4F0F8DE2           ADD      R0,SP,#+316
   \   00000D70   C00E80E2           ADD      R0,R0,#+3072
   \   00000D74   ........           _BLF     ??KeyWord,??KeyWord??rA
   \   00000D78   4F2F8DE2           ADD      R2,SP,#+316
   \   00000D7C   C02E82E2           ADD      R2,R2,#+3072
   \   00000D80   0610A0E1           MOV      R1,R6
   \   00000D84   D20E8DE2           ADD      R0,SP,#+3360
   \   00000D88   ........           _BLF     `??operator+`,`??operator+??rA`
   \   00000D8C   562F8DE2           ADD      R2,SP,#+344
   \   00000D90   C02E82E2           ADD      R2,R2,#+3072
   \   00000D94   D21E8DE2           ADD      R1,SP,#+3360
   \   00000D98   410F8DE2           ADD      R0,SP,#+260
   \   00000D9C   C00E80E2           ADD      R0,R0,#+3072
   \   00000DA0   ........           _BLF     `??operator+`,`??operator+??rA`
   \   00000DA4   0420A0E1           MOV      R2,R4
   \   00000DA8   411F8DE2           ADD      R1,SP,#+260
   \   00000DAC   C01E81E2           ADD      R1,R1,#+3072
   \   00000DB0   E8008DE2           ADD      R0,SP,#+232
   \   00000DB4   C00E80E2           ADD      R0,R0,#+3072
   \   00000DB8   ........           _BLF     `??operator+`,`??operator+??rA`
   \   00000DBC   0530A0E1           MOV      R3,R5
   \   00000DC0   0020A0E3           MOV      R2,#+0
   \   00000DC4   E8108DE2           ADD      R1,SP,#+232
   \   00000DC8   C01E81E2           ADD      R1,R1,#+3072
   \   00000DCC   54008DE2           ADD      R0,SP,#+84
   \   00000DD0   ........           _BLF     ??append,??append??rA
   \   00000DD4   0020A0E3           MOV      R2,#+0
   \   00000DD8   0110A0E3           MOV      R1,#+1
   \   00000DDC   E8008DE2           ADD      R0,SP,#+232
   \   00000DE0   C00E80E2           ADD      R0,R0,#+3072
   \   00000DE4   ........           _BLF     ??_Tidy,??_Tidy??rA
   \   00000DE8   0020A0E3           MOV      R2,#+0
   \   00000DEC   0110A0E3           MOV      R1,#+1
   \   00000DF0   410F8DE2           ADD      R0,SP,#+260
   \   00000DF4   C00E80E2           ADD      R0,R0,#+3072
   \   00000DF8   ........           _BLF     ??_Tidy,??_Tidy??rA
   \   00000DFC   0020A0E3           MOV      R2,#+0
   \   00000E00   0110A0E3           MOV      R1,#+1
   \   00000E04   560F8DE2           ADD      R0,SP,#+344
   \   00000E08   C00E80E2           ADD      R0,R0,#+3072
   \   00000E0C   ........           _BLF     ??_Tidy,??_Tidy??rA
   \   00000E10   0020A0E3           MOV      R2,#+0
   \   00000E14   0110A0E3           MOV      R1,#+1
   \   00000E18   D20E8DE2           ADD      R0,SP,#+3360
   \   00000E1C   ........           _BLF     ??_Tidy,??_Tidy??rA
   \   00000E20   0020A0E3           MOV      R2,#+0
   \   00000E24   0110A0E3           MOV      R1,#+1
   \   00000E28   4F0F8DE2           ADD      R0,SP,#+316
   \   00000E2C   C00E80E2           ADD      R0,R0,#+3072
   \   00000E30   ........           _BLF     ??_Tidy,??_Tidy??rA
    330              LocalString += TabStr1 + KeyWord(AL_LIM_HIGHLEVEL) + FloatToAnsiString(HighLevelLimit) + CrLfStr;
   \   00000E34   D41097E5           LDR      R1,[R7, #+212]
   \   00000E38   0330A0E3           MOV      R3,#+3
   \   00000E3C   0720A0E3           MOV      R2,#+7
   \   00000E40   790F8DE2           ADD      R0,SP,#+484
   \   00000E44   C00E80E2           ADD      R0,R0,#+3072
   \   00000E48   ........           _BLF     ??FloatToAnsiString,??FloatToAnsiString??rA
   \   00000E4C   1B10A0E3           MOV      R1,#+27
   \   00000E50   E01E81E3           ORR      R1,R1,#0xE00
   \   00000E54   720F8DE2           ADD      R0,SP,#+456
   \   00000E58   C00E80E2           ADD      R0,R0,#+3072
   \   00000E5C   ........           _BLF     ??KeyWord,??KeyWord??rA
   \   00000E60   722F8DE2           ADD      R2,SP,#+456
   \   00000E64   C02E82E2           ADD      R2,R2,#+3072
   \   00000E68   0610A0E1           MOV      R1,R6
   \   00000E6C   6B0F8DE2           ADD      R0,SP,#+428
   \   00000E70   C00E80E2           ADD      R0,R0,#+3072
   \   00000E74   ........           _BLF     `??operator+`,`??operator+??rA`
   \   00000E78   792F8DE2           ADD      R2,SP,#+484
   \   00000E7C   C02E82E2           ADD      R2,R2,#+3072
   \   00000E80   6B1F8DE2           ADD      R1,SP,#+428
   \   00000E84   C01E81E2           ADD      R1,R1,#+3072
   \   00000E88   D90E8DE2           ADD      R0,SP,#+3472
   \   00000E8C   ........           _BLF     `??operator+`,`??operator+??rA`
   \   00000E90   0420A0E1           MOV      R2,R4
   \   00000E94   D91E8DE2           ADD      R1,SP,#+3472
   \   00000E98   5D0F8DE2           ADD      R0,SP,#+372
   \   00000E9C   C00E80E2           ADD      R0,R0,#+3072
   \   00000EA0   ........           _BLF     `??operator+`,`??operator+??rA`
   \   00000EA4   0530A0E1           MOV      R3,R5
   \   00000EA8   0020A0E3           MOV      R2,#+0
   \   00000EAC   5D1F8DE2           ADD      R1,SP,#+372
   \   00000EB0   C01E81E2           ADD      R1,R1,#+3072
   \   00000EB4   54008DE2           ADD      R0,SP,#+84
   \   00000EB8   ........           _BLF     ??append,??append??rA
   \   00000EBC   0020A0E3           MOV      R2,#+0
   \   00000EC0   0110A0E3           MOV      R1,#+1
   \   00000EC4   5D0F8DE2           ADD      R0,SP,#+372
   \   00000EC8   C00E80E2           ADD      R0,R0,#+3072
   \   00000ECC   ........           _BLF     ??_Tidy,??_Tidy??rA
   \   00000ED0   0020A0E3           MOV      R2,#+0
   \   00000ED4   0110A0E3           MOV      R1,#+1
   \   00000ED8   D90E8DE2           ADD      R0,SP,#+3472
   \   00000EDC   ........           _BLF     ??_Tidy,??_Tidy??rA
   \   00000EE0   0020A0E3           MOV      R2,#+0
   \   00000EE4   0110A0E3           MOV      R1,#+1
   \   00000EE8   790F8DE2           ADD      R0,SP,#+484
   \   00000EEC   C00E80E2           ADD      R0,R0,#+3072
   \   00000EF0   ........           _BLF     ??_Tidy,??_Tidy??rA
   \   00000EF4   0020A0E3           MOV      R2,#+0
   \   00000EF8   0110A0E3           MOV      R1,#+1
   \   00000EFC   6B0F8DE2           ADD      R0,SP,#+428
   \   00000F00   C00E80E2           ADD      R0,R0,#+3072
   \   00000F04   ........           _BLF     ??_Tidy,??_Tidy??rA
   \   00000F08   0020A0E3           MOV      R2,#+0
   \   00000F0C   0110A0E3           MOV      R1,#+1
   \   00000F10   720F8DE2           ADD      R0,SP,#+456
   \   00000F14   C00E80E2           ADD      R0,R0,#+3072
   \   00000F18   ........           _BLF     ??_Tidy,??_Tidy??rA
    331              LocalString += TabStr1 + KeyWord(AL_LIM_LOWLEVEL) + FloatToAnsiString(LowLevelLimit) + CrLfStr;
   \   00000F1C   D81097E5           LDR      R1,[R7, #+216]
   \   00000F20   0330A0E3           MOV      R3,#+3
   \   00000F24   0720A0E3           MOV      R2,#+7
   \   00000F28   E70E8DE2           ADD      R0,SP,#+3696
   \   00000F2C   ........           _BLF     ??FloatToAnsiString,??FloatToAnsiString??rA
   \   00000F30   1C10A0E3           MOV      R1,#+28
   \   00000F34   E01E81E3           ORR      R1,R1,#0xE00
   \   00000F38   950F8DE2           ADD      R0,SP,#+596
   \   00000F3C   C00E80E2           ADD      R0,R0,#+3072
   \   00000F40   ........           _BLF     ??KeyWord,??KeyWord??rA
   \   00000F44   952F8DE2           ADD      R2,SP,#+596
   \   00000F48   C02E82E2           ADD      R2,R2,#+3072
   \   00000F4C   0610A0E1           MOV      R1,R6
   \   00000F50   8E0F8DE2           ADD      R0,SP,#+568
   \   00000F54   C00E80E2           ADD      R0,R0,#+3072
   \   00000F58   ........           _BLF     `??operator+`,`??operator+??rA`
   \   00000F5C   E72E8DE2           ADD      R2,SP,#+3696
   \   00000F60   8E1F8DE2           ADD      R1,SP,#+568
   \   00000F64   C01E81E2           ADD      R1,R1,#+3072
   \   00000F68   870F8DE2           ADD      R0,SP,#+540
   \   00000F6C   C00E80E2           ADD      R0,R0,#+3072
   \   00000F70   ........           _BLF     `??operator+`,`??operator+??rA`
   \   00000F74   0420A0E1           MOV      R2,R4
   \   00000F78   871F8DE2           ADD      R1,SP,#+540
   \   00000F7C   C01E81E2           ADD      R1,R1,#+3072
   \   00000F80   E00E8DE2           ADD      R0,SP,#+3584
   \   00000F84   ........           _BLF     `??operator+`,`??operator+??rA`
   \   00000F88   0530A0E1           MOV      R3,R5
   \   00000F8C   0020A0E3           MOV      R2,#+0
   \   00000F90   E01E8DE2           ADD      R1,SP,#+3584
   \   00000F94   54008DE2           ADD      R0,SP,#+84
   \   00000F98   ........           _BLF     ??append,??append??rA
   \   00000F9C   0020A0E3           MOV      R2,#+0
   \   00000FA0   0110A0E3           MOV      R1,#+1
   \   00000FA4   E00E8DE2           ADD      R0,SP,#+3584
   \   00000FA8   ........           _BLF     ??_Tidy,??_Tidy??rA
   \   00000FAC   0020A0E3           MOV      R2,#+0
   \   00000FB0   0110A0E3           MOV      R1,#+1
   \   00000FB4   870F8DE2           ADD      R0,SP,#+540
   \   00000FB8   C00E80E2           ADD      R0,R0,#+3072
   \   00000FBC   ........           _BLF     ??_Tidy,??_Tidy??rA
   \   00000FC0   0020A0E3           MOV      R2,#+0
   \   00000FC4   0110A0E3           MOV      R1,#+1
   \   00000FC8   E70E8DE2           ADD      R0,SP,#+3696
   \   00000FCC   ........           _BLF     ??_Tidy,??_Tidy??rA
   \   00000FD0   0020A0E3           MOV      R2,#+0
   \   00000FD4   0110A0E3           MOV      R1,#+1
   \   00000FD8   8E0F8DE2           ADD      R0,SP,#+568
   \   00000FDC   C00E80E2           ADD      R0,R0,#+3072
   \   00000FE0   ........           _BLF     ??_Tidy,??_Tidy??rA
   \   00000FE4   0020A0E3           MOV      R2,#+0
   \   00000FE8   0110A0E3           MOV      R1,#+1
   \   00000FEC   950F8DE2           ADD      R0,SP,#+596
   \   00000FF0   C00E80E2           ADD      R0,R0,#+3072
   \   00000FF4   ........           _BLF     ??_Tidy,??_Tidy??rA
    332              LocalString += TabStr1 + KeyWord(AL_LIM_LOWLOW_LEVEL) + FloatToAnsiString(LoLoLevelLimit) + CrLfStr;
   \   00000FF8   DC1097E5           LDR      R1,[R7, #+220]
   \   00000FFC   0330A0E3           MOV      R3,#+3
   \   00001000   0720A0E3           MOV      R2,#+7
   \   00001004   BF0F8DE2           ADD      R0,SP,#+764
   \   00001008   C00E80E2           ADD      R0,R0,#+3072
   \   0000100C   ........           _BLF     ??FloatToAnsiString,??FloatToAnsiString??rA
   \   00001010   1D10A0E3           MOV      R1,#+29
   \   00001014   E01E81E3           ORR      R1,R1,#0xE00
   \   00001018   EE0E8DE2           ADD      R0,SP,#+3808
   \   0000101C   ........           _BLF     ??KeyWord,??KeyWord??rA
   \   00001020   EE2E8DE2           ADD      R2,SP,#+3808
   \   00001024   0610A0E1           MOV      R1,R6
   \   00001028   B10F8DE2           ADD      R0,SP,#+708
   \   0000102C   C00E80E2           ADD      R0,R0,#+3072
   \   00001030   ........           _BLF     `??operator+`,`??operator+??rA`
   \   00001034   BF2F8DE2           ADD      R2,SP,#+764
   \   00001038   C02E82E2           ADD      R2,R2,#+3072
   \   0000103C   B11F8DE2           ADD      R1,SP,#+708
   \   00001040   C01E81E2           ADD      R1,R1,#+3072
   \   00001044   AA0F8DE2           ADD      R0,SP,#+680
   \   00001048   C00E80E2           ADD      R0,R0,#+3072
   \   0000104C   ........           _BLF     `??operator+`,`??operator+??rA`
   \   00001050   0420A0E1           MOV      R2,R4
   \   00001054   AA1F8DE2           ADD      R1,SP,#+680
   \   00001058   C01E81E2           ADD      R1,R1,#+3072
   \   0000105C   A30F8DE2           ADD      R0,SP,#+652
   \   00001060   C00E80E2           ADD      R0,R0,#+3072
   \   00001064   ........           _BLF     `??operator+`,`??operator+??rA`
   \   00001068   0530A0E1           MOV      R3,R5
   \   0000106C   0020A0E3           MOV      R2,#+0
   \   00001070   A31F8DE2           ADD      R1,SP,#+652
   \   00001074   C01E81E2           ADD      R1,R1,#+3072
   \   00001078   54008DE2           ADD      R0,SP,#+84
   \   0000107C   ........           _BLF     ??append,??append??rA
   \   00001080   0020A0E3           MOV      R2,#+0
   \   00001084   0110A0E3           MOV      R1,#+1
   \   00001088   A30F8DE2           ADD      R0,SP,#+652
   \   0000108C   C00E80E2           ADD      R0,R0,#+3072
   \   00001090   ........           _BLF     ??_Tidy,??_Tidy??rA
   \   00001094   0020A0E3           MOV      R2,#+0
   \   00001098   0110A0E3           MOV      R1,#+1
   \   0000109C   AA0F8DE2           ADD      R0,SP,#+680
   \   000010A0   C00E80E2           ADD      R0,R0,#+3072
   \   000010A4   ........           _BLF     ??_Tidy,??_Tidy??rA
   \   000010A8   0020A0E3           MOV      R2,#+0
   \   000010AC   0110A0E3           MOV      R1,#+1
   \   000010B0   BF0F8DE2           ADD      R0,SP,#+764
   \   000010B4   C00E80E2           ADD      R0,R0,#+3072
   \   000010B8   ........           _BLF     ??_Tidy,??_Tidy??rA
   \   000010BC   0020A0E3           MOV      R2,#+0
   \   000010C0   0110A0E3           MOV      R1,#+1
   \   000010C4   B10F8DE2           ADD      R0,SP,#+708
   \   000010C8   C00E80E2           ADD      R0,R0,#+3072
   \   000010CC   ........           _BLF     ??_Tidy,??_Tidy??rA
   \   000010D0   0020A0E3           MOV      R2,#+0
   \   000010D4   0110A0E3           MOV      R1,#+1
   \   000010D8   EE0E8DE2           ADD      R0,SP,#+3808
   \   000010DC   ........           _BLF     ??_Tidy,??_Tidy??rA
    333              LocalString += TabStr1 + KeyWord(AL_LIM_LEVELDIFF) + FloatToAnsiString(LevelDiffLimit) + CrLfStr;
   \   000010E0   E41097E5           LDR      R1,[R7, #+228]
   \   000010E4   0330A0E3           MOV      R3,#+3
   \   000010E8   0720A0E3           MOV      R2,#+7
   \   000010EC   E20F8DE2           ADD      R0,SP,#+904
   \   000010F0   C00E80E2           ADD      R0,R0,#+3072
   \   000010F4   ........           _BLF     ??FloatToAnsiString,??FloatToAnsiString??rA
   \   000010F8   3810A0E3           MOV      R1,#+56
   \   000010FC   E01E81E3           ORR      R1,R1,#0xE00
   \   00001100   DB0F8DE2           ADD      R0,SP,#+876
   \   00001104   C00E80E2           ADD      R0,R0,#+3072
   \   00001108   ........           _BLF     ??KeyWord,??KeyWord??rA
   \   0000110C   DB2F8DE2           ADD      R2,SP,#+876
   \   00001110   C02E82E2           ADD      R2,R2,#+3072
   \   00001114   0610A0E1           MOV      R1,R6
   \   00001118   F50E8DE2           ADD      R0,SP,#+3920
   \   0000111C   ........           _BLF     `??operator+`,`??operator+??rA`
   \   00001120   E22F8DE2           ADD      R2,SP,#+904
   \   00001124   C02E82E2           ADD      R2,R2,#+3072
   \   00001128   F51E8DE2           ADD      R1,SP,#+3920
   \   0000112C   CD0F8DE2           ADD      R0,SP,#+820
   \   00001130   C00E80E2           ADD      R0,R0,#+3072
   \   00001134   ........           _BLF     `??operator+`,`??operator+??rA`
   \   00001138   0420A0E1           MOV      R2,R4
   \   0000113C   CD1F8DE2           ADD      R1,SP,#+820
   \   00001140   C01E81E2           ADD      R1,R1,#+3072
   \   00001144   C60F8DE2           ADD      R0,SP,#+792
   \   00001148   C00E80E2           ADD      R0,R0,#+3072
   \   0000114C   ........           _BLF     `??operator+`,`??operator+??rA`
   \   00001150   0530A0E1           MOV      R3,R5
   \   00001154   0020A0E3           MOV      R2,#+0
   \   00001158   C61F8DE2           ADD      R1,SP,#+792
   \   0000115C   C01E81E2           ADD      R1,R1,#+3072
   \   00001160   54008DE2           ADD      R0,SP,#+84
   \   00001164   ........           _BLF     ??append,??append??rA
   \   00001168   0020A0E3           MOV      R2,#+0
   \   0000116C   0110A0E3           MOV      R1,#+1
   \   00001170   C60F8DE2           ADD      R0,SP,#+792
   \   00001174   C00E80E2           ADD      R0,R0,#+3072
   \   00001178   ........           _BLF     ??_Tidy,??_Tidy??rA
   \   0000117C   0020A0E3           MOV      R2,#+0
   \   00001180   0110A0E3           MOV      R1,#+1
   \   00001184   CD0F8DE2           ADD      R0,SP,#+820
   \   00001188   C00E80E2           ADD      R0,R0,#+3072
   \   0000118C   ........           _BLF     ??_Tidy,??_Tidy??rA
   \   00001190   0020A0E3           MOV      R2,#+0
   \   00001194   0110A0E3           MOV      R1,#+1
   \   00001198   E20F8DE2           ADD      R0,SP,#+904
   \   0000119C   C00E80E2           ADD      R0,R0,#+3072
   \   000011A0   ........           _BLF     ??_Tidy,??_Tidy??rA
   \   000011A4   0020A0E3           MOV      R2,#+0
   \   000011A8   0110A0E3           MOV      R1,#+1
   \   000011AC   F50E8DE2           ADD      R0,SP,#+3920
   \   000011B0   ........           _BLF     ??_Tidy,??_Tidy??rA
   \   000011B4   0020A0E3           MOV      R2,#+0
   \   000011B8   0110A0E3           MOV      R1,#+1
   \   000011BC   DB0F8DE2           ADD      R0,SP,#+876
   \   000011C0   C00E80E2           ADD      R0,R0,#+3072
   \   000011C4   ........           _BLF     ??_Tidy,??_Tidy??rA
    334              LocalString += TabStr1 + KeyWord(AL_LIM_VOIDSPACE) + FloatToAnsiString(VoidSpaceLimit) + CrLfStr;
   \   000011C8   E01097E5           LDR      R1,[R7, #+224]
   \   000011CC   0330A0E3           MOV      R3,#+3
   \   000011D0   0720A0E3           MOV      R2,#+7
   \   000011D4   14008DE2           ADD      R0,SP,#+20
   \   000011D8   400D80E2           ADD      R0,R0,#+4096
   \   000011DC   ........           _BLF     ??FloatToAnsiString,??FloatToAnsiString??rA
   \   000011E0   3710A0E3           MOV      R1,#+55
   \   000011E4   E01E81E3           ORR      R1,R1,#0xE00
   \   000011E8   FE0F8DE2           ADD      R0,SP,#+1016
   \   000011EC   C00E80E2           ADD      R0,R0,#+3072
   \   000011F0   ........           _BLF     ??KeyWord,??KeyWord??rA
   \   000011F4   FE2F8DE2           ADD      R2,SP,#+1016
   \   000011F8   C02E82E2           ADD      R2,R2,#+3072
   \   000011FC   0610A0E1           MOV      R1,R6
   \   00001200   F70F8DE2           ADD      R0,SP,#+988
   \   00001204   C00E80E2           ADD      R0,R0,#+3072
   \   00001208   ........           _BLF     `??operator+`,`??operator+??rA`
   \   0000120C   14208DE2           ADD      R2,SP,#+20
   \   00001210   402D82E2           ADD      R2,R2,#+4096
   \   00001214   F71F8DE2           ADD      R1,SP,#+988
   \   00001218   C01E81E2           ADD      R1,R1,#+3072
   \   0000121C   FC0E8DE2           ADD      R0,SP,#+4032
   \   00001220   ........           _BLF     `??operator+`,`??operator+??rA`
   \   00001224   0420A0E1           MOV      R2,R4
   \   00001228   FC1E8DE2           ADD      R1,SP,#+4032
   \   0000122C   E90F8DE2           ADD      R0,SP,#+932
   \   00001230   C00E80E2           ADD      R0,R0,#+3072
   \   00001234   ........           _BLF     `??operator+`,`??operator+??rA`
   \   00001238   0530A0E1           MOV      R3,R5
   \   0000123C   0020A0E3           MOV      R2,#+0
   \   00001240   E91F8DE2           ADD      R1,SP,#+932
   \   00001244   C01E81E2           ADD      R1,R1,#+3072
   \   00001248   54008DE2           ADD      R0,SP,#+84
   \   0000124C   ........           _BLF     ??append,??append??rA
   \   00001250   0020A0E3           MOV      R2,#+0
   \   00001254   0110A0E3           MOV      R1,#+1
   \   00001258   E90F8DE2           ADD      R0,SP,#+932
   \   0000125C   C00E80E2           ADD      R0,R0,#+3072
   \   00001260   ........           _BLF     ??_Tidy,??_Tidy??rA
   \   00001264   0020A0E3           MOV      R2,#+0
   \   00001268   0110A0E3           MOV      R1,#+1
   \   0000126C   FC0E8DE2           ADD      R0,SP,#+4032
   \   00001270   ........           _BLF     ??_Tidy,??_Tidy??rA
   \   00001274   0020A0E3           MOV      R2,#+0
   \   00001278   0110A0E3           MOV      R1,#+1
   \   0000127C   14008DE2           ADD      R0,SP,#+20
   \   00001280   400D80E2           ADD      R0,R0,#+4096
   \   00001284   ........           _BLF     ??_Tidy,??_Tidy??rA
   \   00001288   0020A0E3           MOV      R2,#+0
   \   0000128C   0110A0E3           MOV      R1,#+1
   \   00001290   F70F8DE2           ADD      R0,SP,#+988
   \   00001294   C00E80E2           ADD      R0,R0,#+3072
   \   00001298   ........           _BLF     ??_Tidy,??_Tidy??rA
   \   0000129C   0020A0E3           MOV      R2,#+0
   \   000012A0   0110A0E3           MOV      R1,#+1
   \   000012A4   FE0F8DE2           ADD      R0,SP,#+1016
   \   000012A8   C00E80E2           ADD      R0,R0,#+3072
   \   000012AC   ........           _BLF     ??_Tidy,??_Tidy??rA
    335              LocalString += TabStr1 + KeyWord(AL_LIM_HIGHTEMP) + FloatToAnsiString(HighTempLimit) + CrLfStr;
   \   000012B0   E81097E5           LDR      R1,[R7, #+232]
   \   000012B4   0330A0E3           MOV      R3,#+3
   \   000012B8   0720A0E3           MOV      R2,#+7
   \   000012BC   A0008DE2           ADD      R0,SP,#+160
   \   000012C0   400D80E2           ADD      R0,R0,#+4096
   \   000012C4   ........           _BLF     ??FloatToAnsiString,??FloatToAnsiString??rA
   \   000012C8   1E10A0E3           MOV      R1,#+30
   \   000012CC   E01E81E3           ORR      R1,R1,#0xE00
   \   000012D0   84008DE2           ADD      R0,SP,#+132
   \   000012D4   400D80E2           ADD      R0,R0,#+4096
   \   000012D8   ........           _BLF     ??KeyWord,??KeyWord??rA
   \   000012DC   84208DE2           ADD      R2,SP,#+132
   \   000012E0   402D82E2           ADD      R2,R2,#+4096
   \   000012E4   0610A0E1           MOV      R1,R6
   \   000012E8   68008DE2           ADD      R0,SP,#+104
   \   000012EC   400D80E2           ADD      R0,R0,#+4096
   \   000012F0   ........           _BLF     `??operator+`,`??operator+??rA`
   \   000012F4   A0208DE2           ADD      R2,SP,#+160
   \   000012F8   402D82E2           ADD      R2,R2,#+4096
   \   000012FC   68108DE2           ADD      R1,SP,#+104
   \   00001300   401D81E2           ADD      R1,R1,#+4096
   \   00001304   4C008DE2           ADD      R0,SP,#+76
   \   00001308   400D80E2           ADD      R0,R0,#+4096
   \   0000130C   ........           _BLF     `??operator+`,`??operator+??rA`
   \   00001310   0420A0E1           MOV      R2,R4
   \   00001314   4C108DE2           ADD      R1,SP,#+76
   \   00001318   401D81E2           ADD      R1,R1,#+4096
   \   0000131C   30008DE2           ADD      R0,SP,#+48
   \   00001320   400D80E2           ADD      R0,R0,#+4096
   \   00001324   ........           _BLF     `??operator+`,`??operator+??rA`
   \   00001328   0530A0E1           MOV      R3,R5
   \   0000132C   0020A0E3           MOV      R2,#+0
   \   00001330   30108DE2           ADD      R1,SP,#+48
   \   00001334   401D81E2           ADD      R1,R1,#+4096
   \   00001338   54008DE2           ADD      R0,SP,#+84
   \   0000133C   ........           _BLF     ??append,??append??rA
   \   00001340   0020A0E3           MOV      R2,#+0
   \   00001344   0110A0E3           MOV      R1,#+1
   \   00001348   30008DE2           ADD      R0,SP,#+48
   \   0000134C   400D80E2           ADD      R0,R0,#+4096
   \   00001350   ........           _BLF     ??_Tidy,??_Tidy??rA
   \   00001354   0020A0E3           MOV      R2,#+0
   \   00001358   0110A0E3           MOV      R1,#+1
   \   0000135C   4C008DE2           ADD      R0,SP,#+76
   \   00001360   400D80E2           ADD      R0,R0,#+4096
   \   00001364   ........           _BLF     ??_Tidy,??_Tidy??rA
   \   00001368   0020A0E3           MOV      R2,#+0
   \   0000136C   0110A0E3           MOV      R1,#+1
   \   00001370   A0008DE2           ADD      R0,SP,#+160
   \   00001374   400D80E2           ADD      R0,R0,#+4096
   \   00001378   ........           _BLF     ??_Tidy,??_Tidy??rA
   \   0000137C   0020A0E3           MOV      R2,#+0
   \   00001380   0110A0E3           MOV      R1,#+1
   \   00001384   68008DE2           ADD      R0,SP,#+104
   \   00001388   400D80E2           ADD      R0,R0,#+4096
   \   0000138C   ........           _BLF     ??_Tidy,??_Tidy??rA
   \   00001390   0020A0E3           MOV      R2,#+0
   \   00001394   0110A0E3           MOV      R1,#+1
   \   00001398   84008DE2           ADD      R0,SP,#+132
   \   0000139C   400D80E2           ADD      R0,R0,#+4096
   \   000013A0   ........           _BLF     ??_Tidy,??_Tidy??rA
    336              LocalString += TabStr1 + KeyWord(AL_LIM_LOWTEMP) + FloatToAnsiString(LowTempLimit) + CrLfStr;
   \   000013A4   EC1097E5           LDR      R1,[R7, #+236]
   \   000013A8   0330A0E3           MOV      R3,#+3
   \   000013AC   0720A0E3           MOV      R2,#+7
   \   000013B0   4B0F8DE2           ADD      R0,SP,#+300
   \   000013B4   400D80E2           ADD      R0,R0,#+4096
   \   000013B8   ........           _BLF     ??FloatToAnsiString,??FloatToAnsiString??rA
   \   000013BC   1F10A0E3           MOV      R1,#+31
   \   000013C0   E01E81E3           ORR      R1,R1,#0xE00
   \   000013C4   440F8DE2           ADD      R0,SP,#+272
   \   000013C8   400D80E2           ADD      R0,R0,#+4096
   \   000013CC   ........           _BLF     ??KeyWord,??KeyWord??rA
   \   000013D0   442F8DE2           ADD      R2,SP,#+272
   \   000013D4   402D82E2           ADD      R2,R2,#+4096
   \   000013D8   0610A0E1           MOV      R1,R6
   \   000013DC   F4008DE2           ADD      R0,SP,#+244
   \   000013E0   400D80E2           ADD      R0,R0,#+4096
   \   000013E4   ........           _BLF     `??operator+`,`??operator+??rA`
   \   000013E8   4B2F8DE2           ADD      R2,SP,#+300
   \   000013EC   402D82E2           ADD      R2,R2,#+4096
   \   000013F0   F4108DE2           ADD      R1,SP,#+244
   \   000013F4   401D81E2           ADD      R1,R1,#+4096
   \   000013F8   D8008DE2           ADD      R0,SP,#+216
   \   000013FC   400D80E2           ADD      R0,R0,#+4096
   \   00001400   ........           _BLF     `??operator+`,`??operator+??rA`
   \   00001404   0420A0E1           MOV      R2,R4
   \   00001408   D8108DE2           ADD      R1,SP,#+216
   \   0000140C   401D81E2           ADD      R1,R1,#+4096
   \   00001410   BC008DE2           ADD      R0,SP,#+188
   \   00001414   400D80E2           ADD      R0,R0,#+4096
   \   00001418   ........           _BLF     `??operator+`,`??operator+??rA`
   \   0000141C   0530A0E1           MOV      R3,R5
   \   00001420   0020A0E3           MOV      R2,#+0
   \   00001424   BC108DE2           ADD      R1,SP,#+188
   \   00001428   401D81E2           ADD      R1,R1,#+4096
   \   0000142C   54008DE2           ADD      R0,SP,#+84
   \   00001430   ........           _BLF     ??append,??append??rA
   \   00001434   0020A0E3           MOV      R2,#+0
   \   00001438   0110A0E3           MOV      R1,#+1
   \   0000143C   BC008DE2           ADD      R0,SP,#+188
   \   00001440   400D80E2           ADD      R0,R0,#+4096
   \   00001444   ........           _BLF     ??_Tidy,??_Tidy??rA
   \   00001448   0020A0E3           MOV      R2,#+0
   \   0000144C   0110A0E3           MOV      R1,#+1
   \   00001450   D8008DE2           ADD      R0,SP,#+216
   \   00001454   400D80E2           ADD      R0,R0,#+4096
   \   00001458   ........           _BLF     ??_Tidy,??_Tidy??rA
   \   0000145C   0020A0E3           MOV      R2,#+0
   \   00001460   0110A0E3           MOV      R1,#+1
   \   00001464   4B0F8DE2           ADD      R0,SP,#+300
   \   00001468   400D80E2           ADD      R0,R0,#+4096
   \   0000146C   ........           _BLF     ??_Tidy,??_Tidy??rA
   \   00001470   0020A0E3           MOV      R2,#+0
   \   00001474   0110A0E3           MOV      R1,#+1
   \   00001478   F4008DE2           ADD      R0,SP,#+244
   \   0000147C   400D80E2           ADD      R0,R0,#+4096
   \   00001480   ........           _BLF     ??_Tidy,??_Tidy??rA
   \   00001484   0020A0E3           MOV      R2,#+0
   \   00001488   0110A0E3           MOV      R1,#+1
   \   0000148C   440F8DE2           ADD      R0,SP,#+272
   \   00001490   400D80E2           ADD      R0,R0,#+4096
   \   00001494   ........           _BLF     ??_Tidy,??_Tidy??rA
    337              if ( hasLoLoLevelLimit ) {
   \   00001498   5F01D7E5           LDRB     R0,[R7, #+351]
   \   0000149C   000050E3           CMP      R0,#+0
   \   000014A0   1C00000A           BEQ      ??WriteConfigToFile_12
    338                  LocalString += TabStr1 + KeyWord(AL_LIM_HAS_LOLO_LEVEL)  + CrLfStr;
   \   000014A4   3610A0E3           MOV      R1,#+54
   \   000014A8   E01E81E3           ORR      R1,R1,#0xE00
   \   000014AC   38008DE2           ADD      R0,SP,#+56
   \   000014B0   ........           _BLF     ??KeyWord,??KeyWord??rA
   \   000014B4   38208DE2           ADD      R2,SP,#+56
   \   000014B8   0610A0E1           MOV      R1,R6
   \   000014BC   1C008DE2           ADD      R0,SP,#+28
   \   000014C0   ........           _BLF     `??operator+`,`??operator+??rA`
   \   000014C4   0420A0E1           MOV      R2,R4
   \   000014C8   1C108DE2           ADD      R1,SP,#+28
   \   000014CC   0D00A0E1           MOV      R0,SP
   \   000014D0   ........           _BLF     `??operator+`,`??operator+??rA`
   \   000014D4   0530A0E1           MOV      R3,R5
   \   000014D8   0020A0E3           MOV      R2,#+0
   \   000014DC   0D10A0E1           MOV      R1,SP
   \   000014E0   54008DE2           ADD      R0,SP,#+84
   \   000014E4   ........           _BLF     ??append,??append??rA
   \   000014E8   0020A0E3           MOV      R2,#+0
   \   000014EC   0110A0E3           MOV      R1,#+1
   \   000014F0   0D00A0E1           MOV      R0,SP
   \   000014F4   ........           _BLF     ??_Tidy,??_Tidy??rA
   \   000014F8   0020A0E3           MOV      R2,#+0
   \   000014FC   0110A0E3           MOV      R1,#+1
   \   00001500   1C008DE2           ADD      R0,SP,#+28
   \   00001504   ........           _BLF     ??_Tidy,??_Tidy??rA
   \   00001508   0020A0E3           MOV      R2,#+0
   \   0000150C   0110A0E3           MOV      R1,#+1
   \   00001510   38008DE2           ADD      R0,SP,#+56
   \   00001514   ........           _BLF     ??_Tidy,??_Tidy??rA
    339              }
    340          
    341              if (PressLim_mBar) {
   \                     ??WriteConfigToFile_12:
   \   00001518   8411D7E5           LDRB     R1,[R7, #+388]
   \   0000151C   F00097E5           LDR      R0,[R7, #+240]
   \   00001520   2CB0A0E3           MOV      R11,#+44
   \   00001524   E0BE8BE3           ORR      R11,R11,#0xE00
   \   00001528   03A04BE2           SUB      R10,R11,#+3
   \   0000152C   02904AE2           SUB      R9,R10,#+2
   \   00001530   0680C9E3           BIC      R8,R9,#0x6
   \   00001534   000051E3           CMP      R1,#+0
   \   00001538   0330A0E3           MOV      R3,#+3
   \   0000153C   0720A0E3           MOV      R2,#+7
   \   00001540   6C03000A           BEQ      ??WriteConfigToFile_13
    342                  LocalString += TabStr1 + KeyWord(AL_LIM_HIGHTANK_PRESS) + FloatToAnsiString(HighTankPressLimit * MH2O_TO_MBAR) + CrLfStr;
   \   00001544   04002DE9           PUSH     {R2}
   \   00001548   08002DE9           PUSH     {R3}
   \   0000154C   ........           _BLF     __floatToDouble,??__floatToDouble??rA
   \   00001550   0020A0E1           MOV      R2,R0
   \   00001554   940D9FE5           LDR      R0,??WriteConfigToFile_14  ;; 0xffffffff89374bc7
   \   00001558   0130A0E1           MOV      R3,R1
   \   0000155C   901D9FE5           LDR      R1,??WriteConfigToFile_14+0x4  ;; 0x40588441
   \   00001560   ........           _BLF     __dMul,??__dMul??rA
   \   00001564   ........           _BLF     __doubleToFloat,??__doubleToFloat??rA
   \   00001568   0800BDE8           POP      {R3}
   \   0000156C   0400BDE8           POP      {R2}
   \   00001570   0010A0E1           MOV      R1,R0
   \   00001574   70008DE2           ADD      R0,SP,#+112
   \   00001578   ........           _BLF     ??FloatToAnsiString,??FloatToAnsiString??rA
   \   0000157C   E21EA0E3           MOV      R1,#+3616
   \   00001580   8C008DE2           ADD      R0,SP,#+140
   \   00001584   ........           _BLF     ??KeyWord,??KeyWord??rA
   \   00001588   8C208DE2           ADD      R2,SP,#+140
   \   0000158C   0610A0E1           MOV      R1,R6
   \   00001590   1C008DE2           ADD      R0,SP,#+28
   \   00001594   ........           _BLF     `??operator+`,`??operator+??rA`
   \   00001598   70208DE2           ADD      R2,SP,#+112
   \   0000159C   1C108DE2           ADD      R1,SP,#+28
   \   000015A0   38008DE2           ADD      R0,SP,#+56
   \   000015A4   ........           _BLF     `??operator+`,`??operator+??rA`
   \   000015A8   0420A0E1           MOV      R2,R4
   \   000015AC   38108DE2           ADD      R1,SP,#+56
   \   000015B0   0D00A0E1           MOV      R0,SP
   \   000015B4   ........           _BLF     `??operator+`,`??operator+??rA`
   \   000015B8   0530A0E1           MOV      R3,R5
   \   000015BC   0020A0E3           MOV      R2,#+0
   \   000015C0   0D10A0E1           MOV      R1,SP
   \   000015C4   54008DE2           ADD      R0,SP,#+84
   \   000015C8   ........           _BLF     ??append,??append??rA
   \   000015CC   0020A0E3           MOV      R2,#+0
   \   000015D0   0110A0E3           MOV      R1,#+1
   \   000015D4   0D00A0E1           MOV      R0,SP
   \   000015D8   ........           _BLF     ??_Tidy,??_Tidy??rA
   \   000015DC   0020A0E3           MOV      R2,#+0
   \   000015E0   0110A0E3           MOV      R1,#+1
   \   000015E4   38008DE2           ADD      R0,SP,#+56
   \   000015E8   ........           _BLF     ??_Tidy,??_Tidy??rA
   \   000015EC   0020A0E3           MOV      R2,#+0
   \   000015F0   0110A0E3           MOV      R1,#+1
   \   000015F4   70008DE2           ADD      R0,SP,#+112
   \   000015F8   ........           _BLF     ??_Tidy,??_Tidy??rA
   \   000015FC   0020A0E3           MOV      R2,#+0
   \   00001600   0110A0E3           MOV      R1,#+1
   \   00001604   1C008DE2           ADD      R0,SP,#+28
   \   00001608   ........           _BLF     ??_Tidy,??_Tidy??rA
   \   0000160C   0020A0E3           MOV      R2,#+0
   \   00001610   0110A0E3           MOV      R1,#+1
   \   00001614   8C008DE2           ADD      R0,SP,#+140
   \   00001618   ........           _BLF     ??_Tidy,??_Tidy??rA
    343                  LocalString += TabStr1 + KeyWord(AL_LIM_LOWTANK_PRESS) + FloatToAnsiString(LowTankPressLimit * MH2O_TO_MBAR) + CrLfStr;
   \   0000161C   0330A0E3           MOV      R3,#+3
   \   00001620   0720A0E3           MOV      R2,#+7
   \   00001624   04002DE9           PUSH     {R2}
   \   00001628   08002DE9           PUSH     {R3}
   \   0000162C   040197E5           LDR      R0,[R7, #+260]
   \   00001630   ........           _BLF     __floatToDouble,??__floatToDouble??rA
   \   00001634   0020A0E1           MOV      R2,R0
   \   00001638   B00C9FE5           LDR      R0,??WriteConfigToFile_14  ;; 0xffffffff89374bc7
   \   0000163C   0130A0E1           MOV      R3,R1
   \   00001640   AC1C9FE5           LDR      R1,??WriteConfigToFile_14+0x4  ;; 0x40588441
   \   00001644   ........           _BLF     __dMul,??__dMul??rA
   \   00001648   ........           _BLF     __doubleToFloat,??__doubleToFloat??rA
   \   0000164C   0800BDE8           POP      {R3}
   \   00001650   0400BDE8           POP      {R2}
   \   00001654   0010A0E1           MOV      R1,R0
   \   00001658   A8008DE2           ADD      R0,SP,#+168
   \   0000165C   ........           _BLF     ??FloatToAnsiString,??FloatToAnsiString??rA
   \   00001660   0810A0E1           MOV      R1,R8
   \   00001664   C4008DE2           ADD      R0,SP,#+196
   \   00001668   ........           _BLF     ??KeyWord,??KeyWord??rA
   \   0000166C   C4208DE2           ADD      R2,SP,#+196
   \   00001670   0610A0E1           MOV      R1,R6
   \   00001674   E0008DE2           ADD      R0,SP,#+224
   \   00001678   ........           _BLF     `??operator+`,`??operator+??rA`
   \   0000167C   A8208DE2           ADD      R2,SP,#+168
   \   00001680   E0108DE2           ADD      R1,SP,#+224
   \   00001684   FC008DE2           ADD      R0,SP,#+252
   \   00001688   ........           _BLF     `??operator+`,`??operator+??rA`
   \   0000168C   0420A0E1           MOV      R2,R4
   \   00001690   FC108DE2           ADD      R1,SP,#+252
   \   00001694   460F8DE2           ADD      R0,SP,#+280
   \   00001698   ........           _BLF     `??operator+`,`??operator+??rA`
   \   0000169C   0530A0E1           MOV      R3,R5
   \   000016A0   0020A0E3           MOV      R2,#+0
   \   000016A4   461F8DE2           ADD      R1,SP,#+280
   \   000016A8   54008DE2           ADD      R0,SP,#+84
   \   000016AC   ........           _BLF     ??append,??append??rA
   \   000016B0   0020A0E3           MOV      R2,#+0
   \   000016B4   0110A0E3           MOV      R1,#+1
   \   000016B8   460F8DE2           ADD      R0,SP,#+280
   \   000016BC   ........           _BLF     ??_Tidy,??_Tidy??rA
   \   000016C0   0020A0E3           MOV      R2,#+0
   \   000016C4   0110A0E3           MOV      R1,#+1
   \   000016C8   FC008DE2           ADD      R0,SP,#+252
   \   000016CC   ........           _BLF     ??_Tidy,??_Tidy??rA
   \   000016D0   0020A0E3           MOV      R2,#+0
   \   000016D4   0110A0E3           MOV      R1,#+1
   \   000016D8   A8008DE2           ADD      R0,SP,#+168
   \   000016DC   ........           _BLF     ??_Tidy,??_Tidy??rA
   \   000016E0   0020A0E3           MOV      R2,#+0
   \   000016E4   0110A0E3           MOV      R1,#+1
   \   000016E8   E0008DE2           ADD      R0,SP,#+224
   \   000016EC   ........           _BLF     ??_Tidy,??_Tidy??rA
   \   000016F0   0020A0E3           MOV      R2,#+0
   \   000016F4   0110A0E3           MOV      R1,#+1
   \   000016F8   C4008DE2           ADD      R0,SP,#+196
   \   000016FC   ........           _BLF     ??_Tidy,??_Tidy??rA
    344                  LocalString += TabStr1 + KeyWord(AL_LIM_HIGH_PV_PRESS) + FloatToAnsiString(HighPressVacLimit * MH2O_TO_MBAR) + CrLfStr;
   \   00001700   0720A0E3           MOV      R2,#+7
   \   00001704   04002DE9           PUSH     {R2}
   \   00001708   100197E5           LDR      R0,[R7, #+272]
   \   0000170C   0380A0E3           MOV      R8,#+3
   \   00001710   ........           _BLF     __floatToDouble,??__floatToDouble??rA
   \   00001714   0020A0E1           MOV      R2,R0
   \   00001718   D00B9FE5           LDR      R0,??WriteConfigToFile_14  ;; 0xffffffff89374bc7
   \   0000171C   0130A0E1           MOV      R3,R1
   \   00001720   CC1B9FE5           LDR      R1,??WriteConfigToFile_14+0x4  ;; 0x40588441
   \   00001724   ........           _BLF     __dMul,??__dMul??rA
   \   00001728   ........           _BLF     __doubleToFloat,??__doubleToFloat??rA
   \   0000172C   0400BDE8           POP      {R2}
   \   00001730   0010A0E1           MOV      R1,R0
   \   00001734   0330A0E3           MOV      R3,#+3
   \   00001738   690F8DE2           ADD      R0,SP,#+420
   \   0000173C   ........           _BLF     ??FloatToAnsiString,??FloatToAnsiString??rA
   \   00001740   0910A0E1           MOV      R1,R9
   \   00001744   620F8DE2           ADD      R0,SP,#+392
   \   00001748   ........           _BLF     ??KeyWord,??KeyWord??rA
   \   0000174C   622F8DE2           ADD      R2,SP,#+392
   \   00001750   0610A0E1           MOV      R1,R6
   \   00001754   5B0F8DE2           ADD      R0,SP,#+364
   \   00001758   ........           _BLF     `??operator+`,`??operator+??rA`
   \   0000175C   692F8DE2           ADD      R2,SP,#+420
   \   00001760   5B1F8DE2           ADD      R1,SP,#+364
   \   00001764   540F8DE2           ADD      R0,SP,#+336
   \   00001768   ........           _BLF     `??operator+`,`??operator+??rA`
   \   0000176C   0420A0E1           MOV      R2,R4
   \   00001770   541F8DE2           ADD      R1,SP,#+336
   \   00001774   4D0F8DE2           ADD      R0,SP,#+308
   \   00001778   ........           _BLF     `??operator+`,`??operator+??rA`
   \   0000177C   0530A0E1           MOV      R3,R5
   \   00001780   0020A0E3           MOV      R2,#+0
   \   00001784   4D1F8DE2           ADD      R1,SP,#+308
   \   00001788   54008DE2           ADD      R0,SP,#+84
   \   0000178C   ........           _BLF     ??append,??append??rA
   \   00001790   0020A0E3           MOV      R2,#+0
   \   00001794   0110A0E3           MOV      R1,#+1
   \   00001798   4D0F8DE2           ADD      R0,SP,#+308
   \   0000179C   ........           _BLF     ??_Tidy,??_Tidy??rA
   \   000017A0   0020A0E3           MOV      R2,#+0
   \   000017A4   0110A0E3           MOV      R1,#+1
   \   000017A8   540F8DE2           ADD      R0,SP,#+336
   \   000017AC   ........           _BLF     ??_Tidy,??_Tidy??rA
   \   000017B0   0020A0E3           MOV      R2,#+0
   \   000017B4   0110A0E3           MOV      R1,#+1
   \   000017B8   690F8DE2           ADD      R0,SP,#+420
   \   000017BC   ........           _BLF     ??_Tidy,??_Tidy??rA
   \   000017C0   0020A0E3           MOV      R2,#+0
   \   000017C4   0110A0E3           MOV      R1,#+1
   \   000017C8   5B0F8DE2           ADD      R0,SP,#+364
   \   000017CC   ........           _BLF     ??_Tidy,??_Tidy??rA
   \   000017D0   0020A0E3           MOV      R2,#+0
   \   000017D4   0110A0E3           MOV      R1,#+1
   \   000017D8   620F8DE2           ADD      R0,SP,#+392
   \   000017DC   ........           _BLF     ??_Tidy,??_Tidy??rA
    345                  LocalString += TabStr1 + KeyWord(AL_LIM_LOW_PV_PRESS) + FloatToAnsiString(LowPressVacLimit * MH2O_TO_MBAR) + CrLfStr;
   \   000017E0   140197E5           LDR      R0,[R7, #+276]
   \   000017E4   0720A0E3           MOV      R2,#+7
   \   000017E8   0290A0E1           MOV      R9,R2
   \   000017EC   ........           _BLF     __floatToDouble,??__floatToDouble??rA
   \   000017F0   0020A0E1           MOV      R2,R0
   \   000017F4   F40A9FE5           LDR      R0,??WriteConfigToFile_14  ;; 0xffffffff89374bc7
   \   000017F8   0130A0E1           MOV      R3,R1
   \   000017FC   F01A9FE5           LDR      R1,??WriteConfigToFile_14+0x4  ;; 0x40588441
   \   00001800   ........           _BLF     __dMul,??__dMul??rA
   \   00001804   ........           _BLF     __doubleToFloat,??__doubleToFloat??rA
   \   00001808   0010A0E1           MOV      R1,R0
   \   0000180C   0830A0E1           MOV      R3,R8
   \   00001810   0920A0E1           MOV      R2,R9
   \   00001814   8C0F8DE2           ADD      R0,SP,#+560
   \   00001818   ........           _BLF     ??FloatToAnsiString,??FloatToAnsiString??rA
   \   0000181C   0A10A0E1           MOV      R1,R10
   \   00001820   850F8DE2           ADD      R0,SP,#+532
   \   00001824   ........           _BLF     ??KeyWord,??KeyWord??rA
   \   00001828   852F8DE2           ADD      R2,SP,#+532
   \   0000182C   0610A0E1           MOV      R1,R6
   \   00001830   7E0F8DE2           ADD      R0,SP,#+504
   \   00001834   ........           _BLF     `??operator+`,`??operator+??rA`
   \   00001838   8C2F8DE2           ADD      R2,SP,#+560
   \   0000183C   7E1F8DE2           ADD      R1,SP,#+504
   \   00001840   770F8DE2           ADD      R0,SP,#+476
   \   00001844   ........           _BLF     `??operator+`,`??operator+??rA`
   \   00001848   0420A0E1           MOV      R2,R4
   \   0000184C   771F8DE2           ADD      R1,SP,#+476
   \   00001850   700F8DE2           ADD      R0,SP,#+448
   \   00001854   ........           _BLF     `??operator+`,`??operator+??rA`
   \   00001858   0530A0E1           MOV      R3,R5
   \   0000185C   0020A0E3           MOV      R2,#+0
   \   00001860   701F8DE2           ADD      R1,SP,#+448
   \   00001864   54008DE2           ADD      R0,SP,#+84
   \   00001868   ........           _BLF     ??append,??append??rA
   \   0000186C   0020A0E3           MOV      R2,#+0
   \   00001870   0110A0E3           MOV      R1,#+1
   \   00001874   700F8DE2           ADD      R0,SP,#+448
   \   00001878   ........           _BLF     ??_Tidy,??_Tidy??rA
   \   0000187C   0020A0E3           MOV      R2,#+0
   \   00001880   0110A0E3           MOV      R1,#+1
   \   00001884   770F8DE2           ADD      R0,SP,#+476
   \   00001888   ........           _BLF     ??_Tidy,??_Tidy??rA
   \   0000188C   0020A0E3           MOV      R2,#+0
   \   00001890   0110A0E3           MOV      R1,#+1
   \   00001894   8C0F8DE2           ADD      R0,SP,#+560
   \   00001898   ........           _BLF     ??_Tidy,??_Tidy??rA
   \   0000189C   0020A0E3           MOV      R2,#+0
   \   000018A0   0110A0E3           MOV      R1,#+1
   \   000018A4   7E0F8DE2           ADD      R0,SP,#+504
   \   000018A8   ........           _BLF     ??_Tidy,??_Tidy??rA
   \   000018AC   0020A0E3           MOV      R2,#+0
   \   000018B0   0110A0E3           MOV      R1,#+1
   \   000018B4   850F8DE2           ADD      R0,SP,#+532
   \   000018B8   ........           _BLF     ??_Tidy,??_Tidy??rA
    346                  LocalString += TabStr1 + KeyWord(AL_LIM_HIGH_IG_PRESS) + FloatToAnsiString(HighIGP_Limit * MH2O_TO_MBAR) + CrLfStr;
   \   000018BC   180197E5           LDR      R0,[R7, #+280]
   \   000018C0   ........           _BLF     __floatToDouble,??__floatToDouble??rA
   \   000018C4   0020A0E1           MOV      R2,R0
   \   000018C8   200A9FE5           LDR      R0,??WriteConfigToFile_14  ;; 0xffffffff89374bc7
   \   000018CC   0130A0E1           MOV      R3,R1
   \   000018D0   1C1A9FE5           LDR      R1,??WriteConfigToFile_14+0x4  ;; 0x40588441
   \   000018D4   ........           _BLF     __dMul,??__dMul??rA
   \   000018D8   ........           _BLF     __doubleToFloat,??__doubleToFloat??rA
   \   000018DC   0010A0E1           MOV      R1,R0
   \   000018E0   0830A0E1           MOV      R3,R8
   \   000018E4   0920A0E1           MOV      R2,R9
   \   000018E8   AF0F8DE2           ADD      R0,SP,#+700
   \   000018EC   ........           _BLF     ??FloatToAnsiString,??FloatToAnsiString??rA
   \   000018F0   0B10A0E1           MOV      R1,R11
   \   000018F4   A80F8DE2           ADD      R0,SP,#+672
   \   000018F8   ........           _BLF     ??KeyWord,??KeyWord??rA
   \   000018FC   A82F8DE2           ADD      R2,SP,#+672
   \   00001900   0610A0E1           MOV      R1,R6
   \   00001904   A10F8DE2           ADD      R0,SP,#+644
   \   00001908   ........           _BLF     `??operator+`,`??operator+??rA`
   \   0000190C   AF2F8DE2           ADD      R2,SP,#+700
   \   00001910   A11F8DE2           ADD      R1,SP,#+644
   \   00001914   9A0F8DE2           ADD      R0,SP,#+616
   \   00001918   ........           _BLF     `??operator+`,`??operator+??rA`
   \   0000191C   0420A0E1           MOV      R2,R4
   \   00001920   9A1F8DE2           ADD      R1,SP,#+616
   \   00001924   930F8DE2           ADD      R0,SP,#+588
   \   00001928   ........           _BLF     `??operator+`,`??operator+??rA`
   \   0000192C   0530A0E1           MOV      R3,R5
   \   00001930   0020A0E3           MOV      R2,#+0
   \   00001934   931F8DE2           ADD      R1,SP,#+588
   \   00001938   54008DE2           ADD      R0,SP,#+84
   \   0000193C   ........           _BLF     ??append,??append??rA
   \   00001940   0020A0E3           MOV      R2,#+0
   \   00001944   0110A0E3           MOV      R1,#+1
   \   00001948   930F8DE2           ADD      R0,SP,#+588
   \   0000194C   ........           _BLF     ??_Tidy,??_Tidy??rA
   \   00001950   0020A0E3           MOV      R2,#+0
   \   00001954   0110A0E3           MOV      R1,#+1
   \   00001958   9A0F8DE2           ADD      R0,SP,#+616
   \   0000195C   ........           _BLF     ??_Tidy,??_Tidy??rA
   \   00001960   0020A0E3           MOV      R2,#+0
   \   00001964   0110A0E3           MOV      R1,#+1
   \   00001968   AF0F8DE2           ADD      R0,SP,#+700
   \   0000196C   ........           _BLF     ??_Tidy,??_Tidy??rA
   \   00001970   0020A0E3           MOV      R2,#+0
   \   00001974   0110A0E3           MOV      R1,#+1
   \   00001978   A10F8DE2           ADD      R0,SP,#+644
   \   0000197C   ........           _BLF     ??_Tidy,??_Tidy??rA
   \   00001980   0020A0E3           MOV      R2,#+0
   \   00001984   0110A0E3           MOV      R1,#+1
   \   00001988   A80F8DE2           ADD      R0,SP,#+672
   \   0000198C   ........           _BLF     ??_Tidy,??_Tidy??rA
    347                  LocalString += TabStr1 + KeyWord(AL_LIM_LOW_IG_PRESS) + FloatToAnsiString(LowIGP_Limit * MH2O_TO_MBAR) + CrLfStr;
   \   00001990   1C0197E5           LDR      R0,[R7, #+284]
   \   00001994   ........           _BLF     __floatToDouble,??__floatToDouble??rA
   \   00001998   50299FE5           LDR      R2,??WriteConfigToFile_14  ;; 0xffffffff89374bc7
   \   0000199C   50399FE5           LDR      R3,??WriteConfigToFile_14+0x4  ;; 0x40588441
   \   000019A0   ........           _BLF     __dMul,??__dMul??rA
   \   000019A4   ........           _BLF     __doubleToFloat,??__doubleToFloat??rA
   \   000019A8   0010A0E1           MOV      R1,R0
   \   000019AC   0830A0E1           MOV      R3,R8
   \   000019B0   0920A0E1           MOV      R2,R9
   \   000019B4   D20F8DE2           ADD      R0,SP,#+840
   \   000019B8   ........           _BLF     ??FloatToAnsiString,??FloatToAnsiString??rA
   \   000019BC   04108AE3           ORR      R1,R10,#0x4
   \   000019C0   CB0F8DE2           ADD      R0,SP,#+812
   \   000019C4   ........           _BLF     ??KeyWord,??KeyWord??rA
   \   000019C8   CB2F8DE2           ADD      R2,SP,#+812
   \   000019CC   0610A0E1           MOV      R1,R6
   \   000019D0   C40F8DE2           ADD      R0,SP,#+784
   \   000019D4   ........           _BLF     `??operator+`,`??operator+??rA`
   \   000019D8   D22F8DE2           ADD      R2,SP,#+840
   \   000019DC   C41F8DE2           ADD      R1,SP,#+784
   \   000019E0   BD0F8DE2           ADD      R0,SP,#+756
   \   000019E4   ........           _BLF     `??operator+`,`??operator+??rA`
   \   000019E8   0420A0E1           MOV      R2,R4
   \   000019EC   BD1F8DE2           ADD      R1,SP,#+756
   \   000019F0   B60F8DE2           ADD      R0,SP,#+728
   \   000019F4   ........           _BLF     `??operator+`,`??operator+??rA`
   \   000019F8   0530A0E1           MOV      R3,R5
   \   000019FC   0020A0E3           MOV      R2,#+0
   \   00001A00   B61F8DE2           ADD      R1,SP,#+728
   \   00001A04   54008DE2           ADD      R0,SP,#+84
   \   00001A08   ........           _BLF     ??append,??append??rA
   \   00001A0C   0020A0E3           MOV      R2,#+0
   \   00001A10   0110A0E3           MOV      R1,#+1
   \   00001A14   B60F8DE2           ADD      R0,SP,#+728
   \   00001A18   ........           _BLF     ??_Tidy,??_Tidy??rA
   \   00001A1C   0020A0E3           MOV      R2,#+0
   \   00001A20   0110A0E3           MOV      R1,#+1
   \   00001A24   BD0F8DE2           ADD      R0,SP,#+756
   \   00001A28   ........           _BLF     ??_Tidy,??_Tidy??rA
   \   00001A2C   0020A0E3           MOV      R2,#+0
   \   00001A30   0110A0E3           MOV      R1,#+1
   \   00001A34   D20F8DE2           ADD      R0,SP,#+840
   \   00001A38   ........           _BLF     ??_Tidy,??_Tidy??rA
   \   00001A3C   0020A0E3           MOV      R2,#+0
   \   00001A40   0110A0E3           MOV      R1,#+1
   \   00001A44   C40F8DE2           ADD      R0,SP,#+784
   \   00001A48   ........           _BLF     ??_Tidy,??_Tidy??rA
   \   00001A4C   0020A0E3           MOV      R2,#+0
   \   00001A50   0110A0E3           MOV      R1,#+1
   \   00001A54   CB0F8DE2           ADD      R0,SP,#+812
   \   00001A58   ........           _BLF     ??_Tidy,??_Tidy??rA
    348                  LocalString += TabStr1 + KeyWord(AL_LIM_HIGHVAPOUR_RET) + FloatToAnsiString(HighVapourRetLimit * MH2O_TO_MBAR) + CrLfStr;
   \   00001A5C   080197E5           LDR      R0,[R7, #+264]
   \   00001A60   ........           _BLF     __floatToDouble,??__floatToDouble??rA
   \   00001A64   84289FE5           LDR      R2,??WriteConfigToFile_14  ;; 0xffffffff89374bc7
   \   00001A68   84389FE5           LDR      R3,??WriteConfigToFile_14+0x4  ;; 0x40588441
   \   00001A6C   ........           _BLF     __dMul,??__dMul??rA
   \   00001A70   ........           _BLF     __doubleToFloat,??__doubleToFloat??rA
   \   00001A74   0010A0E1           MOV      R1,R0
   \   00001A78   0830A0E1           MOV      R3,R8
   \   00001A7C   0920A0E1           MOV      R2,R9
   \   00001A80   F50F8DE2           ADD      R0,SP,#+980
   \   00001A84   ........           _BLF     ??FloatToAnsiString,??FloatToAnsiString??rA
   \   00001A88   07104AE2           SUB      R1,R10,#+7
   \   00001A8C   EE0F8DE2           ADD      R0,SP,#+952
   \   00001A90   ........           _BLF     ??KeyWord,??KeyWord??rA
   \   00001A94   EE2F8DE2           ADD      R2,SP,#+952
   \   00001A98   0610A0E1           MOV      R1,R6
   \   00001A9C   E70F8DE2           ADD      R0,SP,#+924
   \   00001AA0   ........           _BLF     `??operator+`,`??operator+??rA`
   \   00001AA4   F52F8DE2           ADD      R2,SP,#+980
   \   00001AA8   E71F8DE2           ADD      R1,SP,#+924
   \   00001AAC   E00F8DE2           ADD      R0,SP,#+896
   \   00001AB0   ........           _BLF     `??operator+`,`??operator+??rA`
   \   00001AB4   0420A0E1           MOV      R2,R4
   \   00001AB8   E01F8DE2           ADD      R1,SP,#+896
   \   00001ABC   D90F8DE2           ADD      R0,SP,#+868
   \   00001AC0   ........           _BLF     `??operator+`,`??operator+??rA`
   \   00001AC4   0530A0E1           MOV      R3,R5
   \   00001AC8   0020A0E3           MOV      R2,#+0
   \   00001ACC   D91F8DE2           ADD      R1,SP,#+868
   \   00001AD0   54008DE2           ADD      R0,SP,#+84
   \   00001AD4   ........           _BLF     ??append,??append??rA
   \   00001AD8   0020A0E3           MOV      R2,#+0
   \   00001ADC   0110A0E3           MOV      R1,#+1
   \   00001AE0   D90F8DE2           ADD      R0,SP,#+868
   \   00001AE4   ........           _BLF     ??_Tidy,??_Tidy??rA
   \   00001AE8   0020A0E3           MOV      R2,#+0
   \   00001AEC   0110A0E3           MOV      R1,#+1
   \   00001AF0   E00F8DE2           ADD      R0,SP,#+896
   \   00001AF4   ........           _BLF     ??_Tidy,??_Tidy??rA
   \   00001AF8   0020A0E3           MOV      R2,#+0
   \   00001AFC   0110A0E3           MOV      R1,#+1
   \   00001B00   F50F8DE2           ADD      R0,SP,#+980
   \   00001B04   ........           _BLF     ??_Tidy,??_Tidy??rA
   \   00001B08   0020A0E3           MOV      R2,#+0
   \   00001B0C   0110A0E3           MOV      R1,#+1
   \   00001B10   E70F8DE2           ADD      R0,SP,#+924
   \   00001B14   ........           _BLF     ??_Tidy,??_Tidy??rA
   \   00001B18   0020A0E3           MOV      R2,#+0
   \   00001B1C   0110A0E3           MOV      R1,#+1
   \   00001B20   EE0F8DE2           ADD      R0,SP,#+952
   \   00001B24   ........           _BLF     ??_Tidy,??_Tidy??rA
    349                  LocalString += TabStr1 + KeyWord(AL_LIM_LOWVAPOUR_RET) + FloatToAnsiString(LowVapourRetLimit * MH2O_TO_MBAR) + CrLfStr;
   \   00001B28   0C0197E5           LDR      R0,[R7, #+268]
   \   00001B2C   ........           _BLF     __floatToDouble,??__floatToDouble??rA
   \   00001B30   B8279FE5           LDR      R2,??WriteConfigToFile_14  ;; 0xffffffff89374bc7
   \   00001B34   B8379FE5           LDR      R3,??WriteConfigToFile_14+0x4  ;; 0x40588441
   \   00001B38   ........           _BLF     __dMul,??__dMul??rA
   \   00001B3C   ........           _BLF     __doubleToFloat,??__doubleToFloat??rA
   \   00001B40   0010A0E1           MOV      R1,R0
   \   00001B44   0830A0E1           MOV      R3,R8
   \   00001B48   0920A0E1           MOV      R2,R9
   \   00001B4C   460E8DE2           ADD      R0,SP,#+1120
   \   00001B50   ........           _BLF     ??FloatToAnsiString,??FloatToAnsiString??rA
   \   00001B54   E21E88E3           ORR      R1,R8,#0xE20
   \   00001B58   44008DE2           ADD      R0,SP,#+68
   \   00001B5C   400E80E2           ADD      R0,R0,#+1024
   \   00001B60   ........           _BLF     ??KeyWord,??KeyWord??rA
   \   00001B64   44208DE2           ADD      R2,SP,#+68
   \   00001B68   402E82E2           ADD      R2,R2,#+1024
   \   00001B6C   0610A0E1           MOV      R1,R6
   \   00001B70   28008DE2           ADD      R0,SP,#+40
   \   00001B74   400E80E2           ADD      R0,R0,#+1024
   \   00001B78   ........           _BLF     `??operator+`,`??operator+??rA`
   \   00001B7C   462E8DE2           ADD      R2,SP,#+1120
   \   00001B80   28108DE2           ADD      R1,SP,#+40
   \   00001B84   401E81E2           ADD      R1,R1,#+1024
   \   00001B88   0C008DE2           ADD      R0,SP,#+12
   \   00001B8C   400E80E2           ADD      R0,R0,#+1024
   \   00001B90   ........           _BLF     `??operator+`,`??operator+??rA`
   \   00001B94   0420A0E1           MOV      R2,R4
   \   00001B98   0C108DE2           ADD      R1,SP,#+12
   \   00001B9C   401E81E2           ADD      R1,R1,#+1024
   \   00001BA0   FC0F8DE2           ADD      R0,SP,#+1008
   \   00001BA4   ........           _BLF     `??operator+`,`??operator+??rA`
   \   00001BA8   0530A0E1           MOV      R3,R5
   \   00001BAC   0020A0E3           MOV      R2,#+0
   \   00001BB0   FC1F8DE2           ADD      R1,SP,#+1008
   \   00001BB4   54008DE2           ADD      R0,SP,#+84
   \   00001BB8   ........           _BLF     ??append,??append??rA
   \   00001BBC   0020A0E3           MOV      R2,#+0
   \   00001BC0   0110A0E3           MOV      R1,#+1
   \   00001BC4   FC0F8DE2           ADD      R0,SP,#+1008
   \   00001BC8   ........           _BLF     ??_Tidy,??_Tidy??rA
   \   00001BCC   0020A0E3           MOV      R2,#+0
   \   00001BD0   0110A0E3           MOV      R1,#+1
   \   00001BD4   0C008DE2           ADD      R0,SP,#+12
   \   00001BD8   400E80E2           ADD      R0,R0,#+1024
   \   00001BDC   ........           _BLF     ??_Tidy,??_Tidy??rA
   \   00001BE0   0020A0E3           MOV      R2,#+0
   \   00001BE4   0110A0E3           MOV      R1,#+1
   \   00001BE8   460E8DE2           ADD      R0,SP,#+1120
   \   00001BEC   ........           _BLF     ??_Tidy,??_Tidy??rA
   \   00001BF0   0020A0E3           MOV      R2,#+0
   \   00001BF4   0110A0E3           MOV      R1,#+1
   \   00001BF8   28008DE2           ADD      R0,SP,#+40
   \   00001BFC   400E80E2           ADD      R0,R0,#+1024
   \   00001C00   ........           _BLF     ??_Tidy,??_Tidy??rA
   \   00001C04   0020A0E3           MOV      R2,#+0
   \   00001C08   0110A0E3           MOV      R1,#+1
   \   00001C0C   44008DE2           ADD      R0,SP,#+68
   \   00001C10   400E80E2           ADD      R0,R0,#+1024
   \   00001C14   ........           _BLF     ??_Tidy,??_Tidy??rA
    350                  LocalString += TabStr1 + KeyWord(AL_LIM_X_HI_TNK_PRESS1) + FloatToAnsiString(IntHighTankPressLimit1 * MH2O_TO_MBAR) + CrLfStr;
   \   00001C18   F80097E5           LDR      R0,[R7, #+248]
   \   00001C1C   ........           _BLF     __floatToDouble,??__floatToDouble??rA
   \   00001C20   C8269FE5           LDR      R2,??WriteConfigToFile_14  ;; 0xffffffff89374bc7
   \   00001C24   C8369FE5           LDR      R3,??WriteConfigToFile_14+0x4  ;; 0x40588441
   \   00001C28   ........           _BLF     __dMul,??__dMul??rA
   \   00001C2C   ........           _BLF     __doubleToFloat,??__doubleToFloat??rA
   \   00001C30   0010A0E1           MOV      R1,R0
   \   00001C34   0830A0E1           MOV      R3,R8
   \   00001C38   0920A0E1           MOV      R2,R9
   \   00001C3C   EC008DE2           ADD      R0,SP,#+236
   \   00001C40   400E80E2           ADD      R0,R0,#+1024
   \   00001C44   ........           _BLF     ??FloatToAnsiString,??FloatToAnsiString??rA
   \   00001C48   05108AE2           ADD      R1,R10,#+5
   \   00001C4C   4D0E8DE2           ADD      R0,SP,#+1232
   \   00001C50   ........           _BLF     ??KeyWord,??KeyWord??rA
   \   00001C54   4D2E8DE2           ADD      R2,SP,#+1232
   \   00001C58   0610A0E1           MOV      R1,R6
   \   00001C5C   B4008DE2           ADD      R0,SP,#+180
   \   00001C60   400E80E2           ADD      R0,R0,#+1024
   \   00001C64   ........           _BLF     `??operator+`,`??operator+??rA`
   \   00001C68   EC208DE2           ADD      R2,SP,#+236
   \   00001C6C   402E82E2           ADD      R2,R2,#+1024
   \   00001C70   B4108DE2           ADD      R1,SP,#+180
   \   00001C74   401E81E2           ADD      R1,R1,#+1024
   \   00001C78   98008DE2           ADD      R0,SP,#+152
   \   00001C7C   400E80E2           ADD      R0,R0,#+1024
   \   00001C80   ........           _BLF     `??operator+`,`??operator+??rA`
   \   00001C84   0420A0E1           MOV      R2,R4
   \   00001C88   98108DE2           ADD      R1,SP,#+152
   \   00001C8C   401E81E2           ADD      R1,R1,#+1024
   \   00001C90   7C008DE2           ADD      R0,SP,#+124
   \   00001C94   400E80E2           ADD      R0,R0,#+1024
   \   00001C98   ........           _BLF     `??operator+`,`??operator+??rA`
   \   00001C9C   0530A0E1           MOV      R3,R5
   \   00001CA0   0020A0E3           MOV      R2,#+0
   \   00001CA4   7C108DE2           ADD      R1,SP,#+124
   \   00001CA8   401E81E2           ADD      R1,R1,#+1024
   \   00001CAC   54008DE2           ADD      R0,SP,#+84
   \   00001CB0   ........           _BLF     ??append,??append??rA
   \   00001CB4   0020A0E3           MOV      R2,#+0
   \   00001CB8   0110A0E3           MOV      R1,#+1
   \   00001CBC   7C008DE2           ADD      R0,SP,#+124
   \   00001CC0   400E80E2           ADD      R0,R0,#+1024
   \   00001CC4   ........           _BLF     ??_Tidy,??_Tidy??rA
   \   00001CC8   0020A0E3           MOV      R2,#+0
   \   00001CCC   0110A0E3           MOV      R1,#+1
   \   00001CD0   98008DE2           ADD      R0,SP,#+152
   \   00001CD4   400E80E2           ADD      R0,R0,#+1024
   \   00001CD8   ........           _BLF     ??_Tidy,??_Tidy??rA
   \   00001CDC   0020A0E3           MOV      R2,#+0
   \   00001CE0   0110A0E3           MOV      R1,#+1
   \   00001CE4   EC008DE2           ADD      R0,SP,#+236
   \   00001CE8   400E80E2           ADD      R0,R0,#+1024
   \   00001CEC   ........           _BLF     ??_Tidy,??_Tidy??rA
   \   00001CF0   0020A0E3           MOV      R2,#+0
   \   00001CF4   0110A0E3           MOV      R1,#+1
   \   00001CF8   B4008DE2           ADD      R0,SP,#+180
   \   00001CFC   400E80E2           ADD      R0,R0,#+1024
   \   00001D00   ........           _BLF     ??_Tidy,??_Tidy??rA
   \   00001D04   0020A0E3           MOV      R2,#+0
   \   00001D08   0110A0E3           MOV      R1,#+1
   \   00001D0C   4D0E8DE2           ADD      R0,SP,#+1232
   \   00001D10   ........           _BLF     ??_Tidy,??_Tidy??rA
    351                  LocalString += TabStr1 + KeyWord(AL_LIM_X_LO_TNK_PRESS1) + FloatToAnsiString(IntLowTankPressLimit2 * MH2O_TO_MBAR) + CrLfStr;
   \   00001D14   FC0097E5           LDR      R0,[R7, #+252]
   \   00001D18   ........           _BLF     __floatToDouble,??__floatToDouble??rA
   \   00001D1C   CC259FE5           LDR      R2,??WriteConfigToFile_14  ;; 0xffffffff89374bc7
   \   00001D20   CC359FE5           LDR      R3,??WriteConfigToFile_14+0x4  ;; 0x40588441
   \   00001D24   ........           _BLF     __dMul,??__dMul??rA
   \   00001D28   ........           _BLF     __doubleToFloat,??__doubleToFloat??rA
   \   00001D2C   0010A0E1           MOV      R1,R0
   \   00001D30   0830A0E1           MOV      R3,R8
   \   00001D34   0920A0E1           MOV      R2,R9
   \   00001D38   5E0F8DE2           ADD      R0,SP,#+376
   \   00001D3C   400E80E2           ADD      R0,R0,#+1024
   \   00001D40   ........           _BLF     ??FloatToAnsiString,??FloatToAnsiString??rA
   \   00001D44   06108AE3           ORR      R1,R10,#0x6
   \   00001D48   570F8DE2           ADD      R0,SP,#+348
   \   00001D4C   400E80E2           ADD      R0,R0,#+1024
   \   00001D50   ........           _BLF     ??KeyWord,??KeyWord??rA
   \   00001D54   572F8DE2           ADD      R2,SP,#+348
   \   00001D58   402E82E2           ADD      R2,R2,#+1024
   \   00001D5C   0610A0E1           MOV      R1,R6
   \   00001D60   540E8DE2           ADD      R0,SP,#+1344
   \   00001D64   ........           _BLF     `??operator+`,`??operator+??rA`
   \   00001D68   5E2F8DE2           ADD      R2,SP,#+376
   \   00001D6C   402E82E2           ADD      R2,R2,#+1024
   \   00001D70   541E8DE2           ADD      R1,SP,#+1344
   \   00001D74   490F8DE2           ADD      R0,SP,#+292
   \   00001D78   400E80E2           ADD      R0,R0,#+1024
   \   00001D7C   ........           _BLF     `??operator+`,`??operator+??rA`
   \   00001D80   0420A0E1           MOV      R2,R4
   \   00001D84   491F8DE2           ADD      R1,SP,#+292
   \   00001D88   401E81E2           ADD      R1,R1,#+1024
   \   00001D8C   420F8DE2           ADD      R0,SP,#+264
   \   00001D90   400E80E2           ADD      R0,R0,#+1024
   \   00001D94   ........           _BLF     `??operator+`,`??operator+??rA`
   \   00001D98   0530A0E1           MOV      R3,R5
   \   00001D9C   0020A0E3           MOV      R2,#+0
   \   00001DA0   421F8DE2           ADD      R1,SP,#+264
   \   00001DA4   401E81E2           ADD      R1,R1,#+1024
   \   00001DA8   54008DE2           ADD      R0,SP,#+84
   \   00001DAC   ........           _BLF     ??append,??append??rA
   \   00001DB0   0020A0E3           MOV      R2,#+0
   \   00001DB4   0110A0E3           MOV      R1,#+1
   \   00001DB8   420F8DE2           ADD      R0,SP,#+264
   \   00001DBC   400E80E2           ADD      R0,R0,#+1024
   \   00001DC0   ........           _BLF     ??_Tidy,??_Tidy??rA
   \   00001DC4   0020A0E3           MOV      R2,#+0
   \   00001DC8   0110A0E3           MOV      R1,#+1
   \   00001DCC   490F8DE2           ADD      R0,SP,#+292
   \   00001DD0   400E80E2           ADD      R0,R0,#+1024
   \   00001DD4   ........           _BLF     ??_Tidy,??_Tidy??rA
   \   00001DD8   0020A0E3           MOV      R2,#+0
   \   00001DDC   0110A0E3           MOV      R1,#+1
   \   00001DE0   5E0F8DE2           ADD      R0,SP,#+376
   \   00001DE4   400E80E2           ADD      R0,R0,#+1024
   \   00001DE8   ........           _BLF     ??_Tidy,??_Tidy??rA
   \   00001DEC   0020A0E3           MOV      R2,#+0
   \   00001DF0   0110A0E3           MOV      R1,#+1
   \   00001DF4   540E8DE2           ADD      R0,SP,#+1344
   \   00001DF8   ........           _BLF     ??_Tidy,??_Tidy??rA
   \   00001DFC   0020A0E3           MOV      R2,#+0
   \   00001E00   0110A0E3           MOV      R1,#+1
   \   00001E04   570F8DE2           ADD      R0,SP,#+348
   \   00001E08   400E80E2           ADD      R0,R0,#+1024
   \   00001E0C   ........           _BLF     ??_Tidy,??_Tidy??rA
    352                  LocalString += TabStr1 + KeyWord(AL_LIM_X_HI_TNK_PRESS2) + FloatToAnsiString(IntHighTankPressLimit2 * MH2O_TO_MBAR) + CrLfStr;
   \   00001E10   000197E5           LDR      R0,[R7, #+256]
   \   00001E14   ........           _BLF     __floatToDouble,??__floatToDouble??rA
   \   00001E18   D0249FE5           LDR      R2,??WriteConfigToFile_14  ;; 0xffffffff89374bc7
   \   00001E1C   D0349FE5           LDR      R3,??WriteConfigToFile_14+0x4  ;; 0x40588441
   \   00001E20   ........           _BLF     __dMul,??__dMul??rA
   \   00001E24   ........           _BLF     __doubleToFloat,??__doubleToFloat??rA
   \   00001E28   0010A0E1           MOV      R1,R0
   \   00001E2C   0830A0E1           MOV      R3,R8
   \   00001E30   0920A0E1           MOV      R2,R9
   \   00001E34   34008DE2           ADD      R0,SP,#+52
   \   00001E38   800E80E2           ADD      R0,R0,#+2048
   \   00001E3C   ........           _BLF     ??FloatToAnsiString,??FloatToAnsiString??rA
   \   00001E40   E31EA0E3           MOV      R1,#+3632
   \   00001E44   7A0F8DE2           ADD      R0,SP,#+488
   \   00001E48   400E80E2           ADD      R0,R0,#+1024
   \   00001E4C   ........           _BLF     ??KeyWord,??KeyWord??rA
   \   00001E50   7A2F8DE2           ADD      R2,SP,#+488
   \   00001E54   402E82E2           ADD      R2,R2,#+1024
   \   00001E58   0610A0E1           MOV      R1,R6
   \   00001E5C   730F8DE2           ADD      R0,SP,#+460
   \   00001E60   400E80E2           ADD      R0,R0,#+1024
   \   00001E64   ........           _BLF     `??operator+`,`??operator+??rA`
   \   00001E68   34208DE2           ADD      R2,SP,#+52
   \   00001E6C   802E82E2           ADD      R2,R2,#+2048
   \   00001E70   731F8DE2           ADD      R1,SP,#+460
   \   00001E74   401E81E2           ADD      R1,R1,#+1024
   \   00001E78   5B0E8DE2           ADD      R0,SP,#+1456
   \   00001E7C   ........           _BLF     `??operator+`,`??operator+??rA`
   \   00001E80   0420A0E1           MOV      R2,R4
   \   00001E84   5B1E8DE2           ADD      R1,SP,#+1456
   \   00001E88   650F8DE2           ADD      R0,SP,#+404
   \   00001E8C   400E80E2           ADD      R0,R0,#+1024
   \   00001E90   ........           _BLF     `??operator+`,`??operator+??rA`
   \   00001E94   0530A0E1           MOV      R3,R5
   \   00001E98   0020A0E3           MOV      R2,#+0
   \   00001E9C   651F8DE2           ADD      R1,SP,#+404
   \   00001EA0   401E81E2           ADD      R1,R1,#+1024
   \   00001EA4   54008DE2           ADD      R0,SP,#+84
   \   00001EA8   ........           _BLF     ??append,??append??rA
   \   00001EAC   0020A0E3           MOV      R2,#+0
   \   00001EB0   0110A0E3           MOV      R1,#+1
   \   00001EB4   650F8DE2           ADD      R0,SP,#+404
   \   00001EB8   400E80E2           ADD      R0,R0,#+1024
   \   00001EBC   ........           _BLF     ??_Tidy,??_Tidy??rA
   \   00001EC0   0020A0E3           MOV      R2,#+0
   \   00001EC4   0110A0E3           MOV      R1,#+1
   \   00001EC8   5B0E8DE2           ADD      R0,SP,#+1456
   \   00001ECC   ........           _BLF     ??_Tidy,??_Tidy??rA
   \   00001ED0   0020A0E3           MOV      R2,#+0
   \   00001ED4   0110A0E3           MOV      R1,#+1
   \   00001ED8   34008DE2           ADD      R0,SP,#+52
   \   00001EDC   800E80E2           ADD      R0,R0,#+2048
   \   00001EE0   ........           _BLF     ??_Tidy,??_Tidy??rA
   \   00001EE4   0020A0E3           MOV      R2,#+0
   \   00001EE8   0110A0E3           MOV      R1,#+1
   \   00001EEC   730F8DE2           ADD      R0,SP,#+460
   \   00001EF0   400E80E2           ADD      R0,R0,#+1024
   \   00001EF4   ........           _BLF     ??_Tidy,??_Tidy??rA
   \   00001EF8   0020A0E3           MOV      R2,#+0
   \   00001EFC   0110A0E3           MOV      R1,#+1
   \   00001F00   7A0F8DE2           ADD      R0,SP,#+488
   \   00001F04   400E80E2           ADD      R0,R0,#+1024
   \   00001F08   ........           _BLF     ??_Tidy,??_Tidy??rA
    353                  LocalString += TabStr1 + KeyWord(AL_LIM_X_LO_TNK_PRESS2) + FloatToAnsiString(IntLowTankPressLimit1 * MH2O_TO_MBAR) + CrLfStr;
   \   00001F0C   F40097E5           LDR      R0,[R7, #+244]
   \   00001F10   ........           _BLF     __floatToDouble,??__floatToDouble??rA
   \   00001F14   D4239FE5           LDR      R2,??WriteConfigToFile_14  ;; 0xffffffff89374bc7
   \   00001F18   D4339FE5           LDR      R3,??WriteConfigToFile_14+0x4  ;; 0x40588441
   \   00001F1C   ........           _BLF     __dMul,??__dMul??rA
   \   00001F20   ........           _BLF     __doubleToFloat,??__doubleToFloat??rA
   \   00001F24   0010A0E1           MOV      R1,R0
   \   00001F28   0830A0E1           MOV      R3,R8
   \   00001F2C   0920A0E1           MOV      R2,R9
   \   00001F30   EA0F8DE2           ADD      R0,SP,#+936
   \   00001F34   400E80E2           ADD      R0,R0,#+1024
   \   00001F38   ........           _BLF     ??FloatToAnsiString,??FloatToAnsiString??rA
   \   00001F3C   08108AE2           ADD      R1,R10,#+8
   \   00001F40   F10F8DE2           ADD      R0,SP,#+964
   \   00001F44   400E80E2           ADD      R0,R0,#+1024
   \   00001F48   ........           _BLF     ??KeyWord,??KeyWord??rA
   \   00001F4C   F12F8DE2           ADD      R2,SP,#+964
   \   00001F50   402E82E2           ADD      R2,R2,#+1024
   \   00001F54   0610A0E1           MOV      R1,R6
   \   00001F58   7E0E8DE2           ADD      R0,SP,#+2016
   \   00001F5C   ........           _BLF     `??operator+`,`??operator+??rA`
   \   00001F60   EA2F8DE2           ADD      R2,SP,#+936
   \   00001F64   402E82E2           ADD      R2,R2,#+1024
   \   00001F68   7E1E8DE2           ADD      R1,SP,#+2016
   \   00001F6C   FF0F8DE2           ADD      R0,SP,#+1020
   \   00001F70   400E80E2           ADD      R0,R0,#+1024
   \   00001F74   ........           _BLF     `??operator+`,`??operator+??rA`
   \   00001F78   0420A0E1           MOV      R2,R4
   \   00001F7C   FF1F8DE2           ADD      R1,SP,#+1020
   \   00001F80   401E81E2           ADD      R1,R1,#+1024
   \   00001F84   18008DE2           ADD      R0,SP,#+24
   \   00001F88   800E80E2           ADD      R0,R0,#+2048
   \   00001F8C   ........           _BLF     `??operator+`,`??operator+??rA`
   \   00001F90   0530A0E1           MOV      R3,R5
   \   00001F94   0020A0E3           MOV      R2,#+0
   \   00001F98   18108DE2           ADD      R1,SP,#+24
   \   00001F9C   801E81E2           ADD      R1,R1,#+2048
   \   00001FA0   54008DE2           ADD      R0,SP,#+84
   \   00001FA4   ........           _BLF     ??append,??append??rA
   \   00001FA8   0020A0E3           MOV      R2,#+0
   \   00001FAC   0110A0E3           MOV      R1,#+1
   \   00001FB0   18008DE2           ADD      R0,SP,#+24
   \   00001FB4   800E80E2           ADD      R0,R0,#+2048
   \   00001FB8   ........           _BLF     ??_Tidy,??_Tidy??rA
   \   00001FBC   0020A0E3           MOV      R2,#+0
   \   00001FC0   0110A0E3           MOV      R1,#+1
   \   00001FC4   FF0F8DE2           ADD      R0,SP,#+1020
   \   00001FC8   400E80E2           ADD      R0,R0,#+1024
   \   00001FCC   ........           _BLF     ??_Tidy,??_Tidy??rA
   \   00001FD0   0020A0E3           MOV      R2,#+0
   \   00001FD4   0110A0E3           MOV      R1,#+1
   \   00001FD8   EA0F8DE2           ADD      R0,SP,#+936
   \   00001FDC   400E80E2           ADD      R0,R0,#+1024
   \   00001FE0   ........           _BLF     ??_Tidy,??_Tidy??rA
   \   00001FE4   0020A0E3           MOV      R2,#+0
   \   00001FE8   0110A0E3           MOV      R1,#+1
   \   00001FEC   7E0E8DE2           ADD      R0,SP,#+2016
   \   00001FF0   ........           _BLF     ??_Tidy,??_Tidy??rA
   \   00001FF4   0020A0E3           MOV      R2,#+0
   \   00001FF8   0110A0E3           MOV      R1,#+1
   \   00001FFC   F10F8DE2           ADD      R0,SP,#+964
   \   00002000   400E80E2           ADD      R0,R0,#+1024
   \   00002004   ........           _BLF     ??_Tidy,??_Tidy??rA
    354                  LocalString += TabStr1 + KeyWord(AL_LIM_HIGHHIGHLINE_PRESS) + FloatToAnsiString(HiHiLinePressLimit * MH2O_TO_MBAR) + CrLfStr;
   \   00002008   200197E5           LDR      R0,[R7, #+288]
   \   0000200C   ........           _BLF     __floatToDouble,??__floatToDouble??rA
   \   00002010   D8229FE5           LDR      R2,??WriteConfigToFile_14  ;; 0xffffffff89374bc7
   \   00002014   D8329FE5           LDR      R3,??WriteConfigToFile_14+0x4  ;; 0x40588441
   \   00002018   ........           _BLF     __dMul,??__dMul??rA
   \   0000201C   ........           _BLF     __doubleToFloat,??__doubleToFloat??rA
   \   00002020   0010A0E1           MOV      R1,R0
   \   00002024   0830A0E1           MOV      R3,R8
   \   00002028   0920A0E1           MOV      R2,R9
   \   0000202C   C70F8DE2           ADD      R0,SP,#+796
   \   00002030   400E80E2           ADD      R0,R0,#+1024
   \   00002034   ........           _BLF     ??FloatToAnsiString,??FloatToAnsiString??rA
   \   00002038   05104AE2           SUB      R1,R10,#+5
   \   0000203C   CE0F8DE2           ADD      R0,SP,#+824
   \   00002040   400E80E2           ADD      R0,R0,#+1024
   \   00002044   ........           _BLF     ??KeyWord,??KeyWord??rA
   \   00002048   CE2F8DE2           ADD      R2,SP,#+824
   \   0000204C   402E82E2           ADD      R2,R2,#+1024
   \   00002050   0610A0E1           MOV      R1,R6
   \   00002054   D50F8DE2           ADD      R0,SP,#+852
   \   00002058   400E80E2           ADD      R0,R0,#+1024
   \   0000205C   ........           _BLF     `??operator+`,`??operator+??rA`
   \   00002060   C72F8DE2           ADD      R2,SP,#+796
   \   00002064   402E82E2           ADD      R2,R2,#+1024
   \   00002068   D51F8DE2           ADD      R1,SP,#+852
   \   0000206C   401E81E2           ADD      R1,R1,#+1024
   \   00002070   770E8DE2           ADD      R0,SP,#+1904
   \   00002074   ........           _BLF     `??operator+`,`??operator+??rA`
   \   00002078   0420A0E1           MOV      R2,R4
   \   0000207C   771E8DE2           ADD      R1,SP,#+1904
   \   00002080   E30F8DE2           ADD      R0,SP,#+908
   \   00002084   400E80E2           ADD      R0,R0,#+1024
   \   00002088   ........           _BLF     `??operator+`,`??operator+??rA`
   \   0000208C   0530A0E1           MOV      R3,R5
   \   00002090   0020A0E3           MOV      R2,#+0
   \   00002094   E31F8DE2           ADD      R1,SP,#+908
   \   00002098   401E81E2           ADD      R1,R1,#+1024
   \   0000209C   54008DE2           ADD      R0,SP,#+84
   \   000020A0   ........           _BLF     ??append,??append??rA
   \   000020A4   0020A0E3           MOV      R2,#+0
   \   000020A8   0110A0E3           MOV      R1,#+1
   \   000020AC   E30F8DE2           ADD      R0,SP,#+908
   \   000020B0   400E80E2           ADD      R0,R0,#+1024
   \   000020B4   ........           _BLF     ??_Tidy,??_Tidy??rA
   \   000020B8   0020A0E3           MOV      R2,#+0
   \   000020BC   0110A0E3           MOV      R1,#+1
   \   000020C0   770E8DE2           ADD      R0,SP,#+1904
   \   000020C4   ........           _BLF     ??_Tidy,??_Tidy??rA
   \   000020C8   0020A0E3           MOV      R2,#+0
   \   000020CC   0110A0E3           MOV      R1,#+1
   \   000020D0   C70F8DE2           ADD      R0,SP,#+796
   \   000020D4   400E80E2           ADD      R0,R0,#+1024
   \   000020D8   ........           _BLF     ??_Tidy,??_Tidy??rA
   \   000020DC   0020A0E3           MOV      R2,#+0
   \   000020E0   0110A0E3           MOV      R1,#+1
   \   000020E4   D50F8DE2           ADD      R0,SP,#+852
   \   000020E8   400E80E2           ADD      R0,R0,#+1024
   \   000020EC   ........           _BLF     ??_Tidy,??_Tidy??rA
   \   000020F0   0020A0E3           MOV      R2,#+0
   \   000020F4   0110A0E3           MOV      R1,#+1
   \   000020F8   CE0F8DE2           ADD      R0,SP,#+824
   \   000020FC   400E80E2           ADD      R0,R0,#+1024
   \   00002100   ........           _BLF     ??_Tidy,??_Tidy??rA
    355                  LocalString += TabStr1 + KeyWord(AL_LIM_HIGHLINE_PRESS) + FloatToAnsiString(HighLinePressLimit * MH2O_TO_MBAR) + CrLfStr;
   \   00002104   240197E5           LDR      R0,[R7, #+292]
   \   00002108   ........           _BLF     __floatToDouble,??__floatToDouble??rA
   \   0000210C   DC219FE5           LDR      R2,??WriteConfigToFile_14  ;; 0xffffffff89374bc7
   \   00002110   DC319FE5           LDR      R3,??WriteConfigToFile_14+0x4  ;; 0x40588441
   \   00002114   ........           _BLF     __dMul,??__dMul??rA
   \   00002118   ........           _BLF     __doubleToFloat,??__doubleToFloat??rA
   \   0000211C   0010A0E1           MOV      R1,R0
   \   00002120   0830A0E1           MOV      R3,R8
   \   00002124   0920A0E1           MOV      R2,R9
   \   00002128   690E8DE2           ADD      R0,SP,#+1680
   \   0000212C   ........           _BLF     ??FloatToAnsiString,??FloatToAnsiString??rA
   \   00002130   04104AE2           SUB      R1,R10,#+4
   \   00002134   AB0F8DE2           ADD      R0,SP,#+684
   \   00002138   400E80E2           ADD      R0,R0,#+1024
   \   0000213C   ........           _BLF     ??KeyWord,??KeyWord??rA
   \   00002140   AB2F8DE2           ADD      R2,SP,#+684
   \   00002144   402E82E2           ADD      R2,R2,#+1024
   \   00002148   0610A0E1           MOV      R1,R6
   \   0000214C   B20F8DE2           ADD      R0,SP,#+712
   \   00002150   400E80E2           ADD      R0,R0,#+1024
   \   00002154   ........           _BLF     `??operator+`,`??operator+??rA`
   \   00002158   692E8DE2           ADD      R2,SP,#+1680
   \   0000215C   B21F8DE2           ADD      R1,SP,#+712
   \   00002160   401E81E2           ADD      R1,R1,#+1024
   \   00002164   B90F8DE2           ADD      R0,SP,#+740
   \   00002168   400E80E2           ADD      R0,R0,#+1024
   \   0000216C   ........           _BLF     `??operator+`,`??operator+??rA`
   \   00002170   0420A0E1           MOV      R2,R4
   \   00002174   B91F8DE2           ADD      R1,SP,#+740
   \   00002178   401E81E2           ADD      R1,R1,#+1024
   \   0000217C   700E8DE2           ADD      R0,SP,#+1792
   \   00002180   ........           _BLF     `??operator+`,`??operator+??rA`
   \   00002184   0530A0E1           MOV      R3,R5
   \   00002188   0020A0E3           MOV      R2,#+0
   \   0000218C   701E8DE2           ADD      R1,SP,#+1792
   \   00002190   54008DE2           ADD      R0,SP,#+84
   \   00002194   ........           _BLF     ??append,??append??rA
   \   00002198   0020A0E3           MOV      R2,#+0
   \   0000219C   0110A0E3           MOV      R1,#+1
   \   000021A0   700E8DE2           ADD      R0,SP,#+1792
   \   000021A4   ........           _BLF     ??_Tidy,??_Tidy??rA
   \   000021A8   0020A0E3           MOV      R2,#+0
   \   000021AC   0110A0E3           MOV      R1,#+1
   \   000021B0   B90F8DE2           ADD      R0,SP,#+740
   \   000021B4   400E80E2           ADD      R0,R0,#+1024
   \   000021B8   ........           _BLF     ??_Tidy,??_Tidy??rA
   \   000021BC   0020A0E3           MOV      R2,#+0
   \   000021C0   0110A0E3           MOV      R1,#+1
   \   000021C4   690E8DE2           ADD      R0,SP,#+1680
   \   000021C8   ........           _BLF     ??_Tidy,??_Tidy??rA
   \   000021CC   0020A0E3           MOV      R2,#+0
   \   000021D0   0110A0E3           MOV      R1,#+1
   \   000021D4   B20F8DE2           ADD      R0,SP,#+712
   \   000021D8   400E80E2           ADD      R0,R0,#+1024
   \   000021DC   ........           _BLF     ??_Tidy,??_Tidy??rA
   \   000021E0   0020A0E3           MOV      R2,#+0
   \   000021E4   0110A0E3           MOV      R1,#+1
   \   000021E8   AB0F8DE2           ADD      R0,SP,#+684
   \   000021EC   400E80E2           ADD      R0,R0,#+1024
   \   000021F0   ........           _BLF     ??_Tidy,??_Tidy??rA
    356                  LocalString += TabStr1 + KeyWord(AL_LIM_LOWLINE_PRESS) + FloatToAnsiString(LowLinePressLimit * MH2O_TO_MBAR) + CrLfStr;
   \   000021F4   280197E5           LDR      R0,[R7, #+296]
   \   000021F8   ........           _BLF     __floatToDouble,??__floatToDouble??rA
   \   000021FC   EC209FE5           LDR      R2,??WriteConfigToFile_14  ;; 0xffffffff89374bc7
   \   00002200   EC309FE5           LDR      R3,??WriteConfigToFile_14+0x4  ;; 0x40588441
   \   00002204   ........           _BLF     __dMul,??__dMul??rA
   \   00002208   ........           _BLF     __doubleToFloat,??__doubleToFloat??rA
   \   0000220C   0010A0E1           MOV      R1,R0
   \   00002210   0830A0E1           MOV      R3,R8
   \   00002214   0920A0E1           MOV      R2,R9
   \   00002218   810F8DE2           ADD      R0,SP,#+516
   \   0000221C   400E80E2           ADD      R0,R0,#+1024
   \   00002220   ........           _BLF     ??FloatToAnsiString,??FloatToAnsiString??rA
   \   00002224   03104AE2           SUB      R1,R10,#+3
   \   00002228   620E8DE2           ADD      R0,SP,#+1568
   \   0000222C   ........           _BLF     ??KeyWord,??KeyWord??rA
   \   00002230   622E8DE2           ADD      R2,SP,#+1568
   \   00002234   0610A0E1           MOV      R1,R6
   \   00002238   8F0F8DE2           ADD      R0,SP,#+572
   \   0000223C   400E80E2           ADD      R0,R0,#+1024
   \   00002240   ........           _BLF     `??operator+`,`??operator+??rA`
   \   00002244   812F8DE2           ADD      R2,SP,#+516
   \   00002248   402E82E2           ADD      R2,R2,#+1024
   \   0000224C   8F1F8DE2           ADD      R1,SP,#+572
   \   00002250   401E81E2           ADD      R1,R1,#+1024
   \   00002254   960F8DE2           ADD      R0,SP,#+600
   \   00002258   400E80E2           ADD      R0,R0,#+1024
   \   0000225C   ........           _BLF     `??operator+`,`??operator+??rA`
   \   00002260   0420A0E1           MOV      R2,R4
   \   00002264   961F8DE2           ADD      R1,SP,#+600
   \   00002268   401E81E2           ADD      R1,R1,#+1024
   \   0000226C   9D0F8DE2           ADD      R0,SP,#+628
   \   00002270   400E80E2           ADD      R0,R0,#+1024
   \   00002274   ........           _BLF     `??operator+`,`??operator+??rA`
   \   00002278   0530A0E1           MOV      R3,R5
   \   0000227C   0020A0E3           MOV      R2,#+0
   \   00002280   9D1F8DE2           ADD      R1,SP,#+628
   \   00002284   401E81E2           ADD      R1,R1,#+1024
   \   00002288   54008DE2           ADD      R0,SP,#+84
   \   0000228C   ........           _BLF     ??append,??append??rA
   \   00002290   0020A0E3           MOV      R2,#+0
   \   00002294   0110A0E3           MOV      R1,#+1
   \   00002298   9D0F8DE2           ADD      R0,SP,#+628
   \   0000229C   400E80E2           ADD      R0,R0,#+1024
   \   000022A0   ........           _BLF     ??_Tidy,??_Tidy??rA
   \   000022A4   0020A0E3           MOV      R2,#+0
   \   000022A8   0110A0E3           MOV      R1,#+1
   \   000022AC   960F8DE2           ADD      R0,SP,#+600
   \   000022B0   400E80E2           ADD      R0,R0,#+1024
   \   000022B4   ........           _BLF     ??_Tidy,??_Tidy??rA
   \   000022B8   0020A0E3           MOV      R2,#+0
   \   000022BC   0110A0E3           MOV      R1,#+1
   \   000022C0   810F8DE2           ADD      R0,SP,#+516
   \   000022C4   400E80E2           ADD      R0,R0,#+1024
   \   000022C8   ........           _BLF     ??_Tidy,??_Tidy??rA
   \   000022CC   0020A0E3           MOV      R2,#+0
   \   000022D0   0110A0E3           MOV      R1,#+1
   \   000022D4   8F0F8DE2           ADD      R0,SP,#+572
   \   000022D8   400E80E2           ADD      R0,R0,#+1024
   \   000022DC   ........           _BLF     ??_Tidy,??_Tidy??rA
   \   000022E0   0020A0E3           MOV      R2,#+0
   \   000022E4   0110A0E3           MOV      R1,#+1
   \   000022E8   620E8DE2           ADD      R0,SP,#+1568
   \   000022EC   FB0200EA           B        ??WriteConfigToFile_15
   \                     ??WriteConfigToFile_14:
   \   000022F0   C74B3789           DC32     0xffffffff89374bc7
   \   000022F4   41845840           DC32     0x40588441
    357              } else {
    358                  LocalString += TabStr1 + KeyWord(AL_LIM_HIGHTANK_PRESS) + FloatToAnsiString(HighTankPressLimit) + CrLfStr;
   \                     ??WriteConfigToFile_13:
   \   000022F8   0010A0E1           MOV      R1,R0
   \   000022FC   8C008DE2           ADD      R0,SP,#+140
   \   00002300   ........           _BLF     ??FloatToAnsiString,??FloatToAnsiString??rA
   \   00002304   E21EA0E3           MOV      R1,#+3616
   \   00002308   70008DE2           ADD      R0,SP,#+112
   \   0000230C   ........           _BLF     ??KeyWord,??KeyWord??rA
   \   00002310   70208DE2           ADD      R2,SP,#+112
   \   00002314   0610A0E1           MOV      R1,R6
   \   00002318   38008DE2           ADD      R0,SP,#+56
   \   0000231C   ........           _BLF     `??operator+`,`??operator+??rA`
   \   00002320   8C208DE2           ADD      R2,SP,#+140
   \   00002324   38108DE2           ADD      R1,SP,#+56
   \   00002328   1C008DE2           ADD      R0,SP,#+28
   \   0000232C   ........           _BLF     `??operator+`,`??operator+??rA`
   \   00002330   0420A0E1           MOV      R2,R4
   \   00002334   1C108DE2           ADD      R1,SP,#+28
   \   00002338   0D00A0E1           MOV      R0,SP
   \   0000233C   ........           _BLF     `??operator+`,`??operator+??rA`
   \   00002340   0530A0E1           MOV      R3,R5
   \   00002344   0020A0E3           MOV      R2,#+0
   \   00002348   0D10A0E1           MOV      R1,SP
   \   0000234C   54008DE2           ADD      R0,SP,#+84
   \   00002350   ........           _BLF     ??append,??append??rA
   \   00002354   0020A0E3           MOV      R2,#+0
   \   00002358   0110A0E3           MOV      R1,#+1
   \   0000235C   0D00A0E1           MOV      R0,SP
   \   00002360   ........           _BLF     ??_Tidy,??_Tidy??rA
   \   00002364   0020A0E3           MOV      R2,#+0
   \   00002368   0110A0E3           MOV      R1,#+1
   \   0000236C   1C008DE2           ADD      R0,SP,#+28
   \   00002370   ........           _BLF     ??_Tidy,??_Tidy??rA
   \   00002374   0020A0E3           MOV      R2,#+0
   \   00002378   0110A0E3           MOV      R1,#+1
   \   0000237C   8C008DE2           ADD      R0,SP,#+140
   \   00002380   ........           _BLF     ??_Tidy,??_Tidy??rA
   \   00002384   0020A0E3           MOV      R2,#+0
   \   00002388   0110A0E3           MOV      R1,#+1
   \   0000238C   38008DE2           ADD      R0,SP,#+56
   \   00002390   ........           _BLF     ??_Tidy,??_Tidy??rA
   \   00002394   0020A0E3           MOV      R2,#+0
   \   00002398   0110A0E3           MOV      R1,#+1
   \   0000239C   70008DE2           ADD      R0,SP,#+112
   \   000023A0   ........           _BLF     ??_Tidy,??_Tidy??rA
    359                  LocalString += TabStr1 + KeyWord(AL_LIM_LOWTANK_PRESS) + FloatToAnsiString(LowTankPressLimit) + CrLfStr;
   \   000023A4   041197E5           LDR      R1,[R7, #+260]
   \   000023A8   0330A0E3           MOV      R3,#+3
   \   000023AC   0720A0E3           MOV      R2,#+7
   \   000023B0   9D0F8DE2           ADD      R0,SP,#+628
   \   000023B4   400E80E2           ADD      R0,R0,#+1024
   \   000023B8   ........           _BLF     ??FloatToAnsiString,??FloatToAnsiString??rA
   \   000023BC   0810A0E1           MOV      R1,R8
   \   000023C0   960F8DE2           ADD      R0,SP,#+600
   \   000023C4   400E80E2           ADD      R0,R0,#+1024
   \   000023C8   ........           _BLF     ??KeyWord,??KeyWord??rA
   \   000023CC   962F8DE2           ADD      R2,SP,#+600
   \   000023D0   402E82E2           ADD      R2,R2,#+1024
   \   000023D4   0610A0E1           MOV      R1,R6
   \   000023D8   8F0F8DE2           ADD      R0,SP,#+572
   \   000023DC   400E80E2           ADD      R0,R0,#+1024
   \   000023E0   ........           _BLF     `??operator+`,`??operator+??rA`
   \   000023E4   9D2F8DE2           ADD      R2,SP,#+628
   \   000023E8   402E82E2           ADD      R2,R2,#+1024
   \   000023EC   8F1F8DE2           ADD      R1,SP,#+572
   \   000023F0   401E81E2           ADD      R1,R1,#+1024
   \   000023F4   620E8DE2           ADD      R0,SP,#+1568
   \   000023F8   ........           _BLF     `??operator+`,`??operator+??rA`
   \   000023FC   0420A0E1           MOV      R2,R4
   \   00002400   621E8DE2           ADD      R1,SP,#+1568
   \   00002404   810F8DE2           ADD      R0,SP,#+516
   \   00002408   400E80E2           ADD      R0,R0,#+1024
   \   0000240C   ........           _BLF     `??operator+`,`??operator+??rA`
   \   00002410   0530A0E1           MOV      R3,R5
   \   00002414   0020A0E3           MOV      R2,#+0
   \   00002418   811F8DE2           ADD      R1,SP,#+516
   \   0000241C   401E81E2           ADD      R1,R1,#+1024
   \   00002420   54008DE2           ADD      R0,SP,#+84
   \   00002424   ........           _BLF     ??append,??append??rA
   \   00002428   0020A0E3           MOV      R2,#+0
   \   0000242C   0110A0E3           MOV      R1,#+1
   \   00002430   810F8DE2           ADD      R0,SP,#+516
   \   00002434   400E80E2           ADD      R0,R0,#+1024
   \   00002438   ........           _BLF     ??_Tidy,??_Tidy??rA
   \   0000243C   0020A0E3           MOV      R2,#+0
   \   00002440   0110A0E3           MOV      R1,#+1
   \   00002444   620E8DE2           ADD      R0,SP,#+1568
   \   00002448   ........           _BLF     ??_Tidy,??_Tidy??rA
   \   0000244C   0020A0E3           MOV      R2,#+0
   \   00002450   0110A0E3           MOV      R1,#+1
   \   00002454   9D0F8DE2           ADD      R0,SP,#+628
   \   00002458   400E80E2           ADD      R0,R0,#+1024
   \   0000245C   ........           _BLF     ??_Tidy,??_Tidy??rA
   \   00002460   0020A0E3           MOV      R2,#+0
   \   00002464   0110A0E3           MOV      R1,#+1
   \   00002468   8F0F8DE2           ADD      R0,SP,#+572
   \   0000246C   400E80E2           ADD      R0,R0,#+1024
   \   00002470   ........           _BLF     ??_Tidy,??_Tidy??rA
   \   00002474   0020A0E3           MOV      R2,#+0
   \   00002478   0110A0E3           MOV      R1,#+1
   \   0000247C   960F8DE2           ADD      R0,SP,#+600
   \   00002480   400E80E2           ADD      R0,R0,#+1024
   \   00002484   ........           _BLF     ??_Tidy,??_Tidy??rA
    360                  LocalString += TabStr1 + KeyWord(AL_LIM_HIGH_PV_PRESS) + FloatToAnsiString(HighPressVacLimit) + CrLfStr;
   \   00002488   101197E5           LDR      R1,[R7, #+272]
   \   0000248C   0330A0E3           MOV      R3,#+3
   \   00002490   0720A0E3           MOV      R2,#+7
   \   00002494   700E8DE2           ADD      R0,SP,#+1792
   \   00002498   ........           _BLF     ??FloatToAnsiString,??FloatToAnsiString??rA
   \   0000249C   0910A0E1           MOV      R1,R9
   \   000024A0   B90F8DE2           ADD      R0,SP,#+740
   \   000024A4   400E80E2           ADD      R0,R0,#+1024
   \   000024A8   ........           _BLF     ??KeyWord,??KeyWord??rA
   \   000024AC   B92F8DE2           ADD      R2,SP,#+740
   \   000024B0   402E82E2           ADD      R2,R2,#+1024
   \   000024B4   0610A0E1           MOV      R1,R6
   \   000024B8   B20F8DE2           ADD      R0,SP,#+712
   \   000024BC   400E80E2           ADD      R0,R0,#+1024
   \   000024C0   ........           _BLF     `??operator+`,`??operator+??rA`
   \   000024C4   702E8DE2           ADD      R2,SP,#+1792
   \   000024C8   B21F8DE2           ADD      R1,SP,#+712
   \   000024CC   401E81E2           ADD      R1,R1,#+1024
   \   000024D0   AB0F8DE2           ADD      R0,SP,#+684
   \   000024D4   400E80E2           ADD      R0,R0,#+1024
   \   000024D8   ........           _BLF     `??operator+`,`??operator+??rA`
   \   000024DC   0420A0E1           MOV      R2,R4
   \   000024E0   AB1F8DE2           ADD      R1,SP,#+684
   \   000024E4   401E81E2           ADD      R1,R1,#+1024
   \   000024E8   690E8DE2           ADD      R0,SP,#+1680
   \   000024EC   ........           _BLF     `??operator+`,`??operator+??rA`
   \   000024F0   0530A0E1           MOV      R3,R5
   \   000024F4   0020A0E3           MOV      R2,#+0
   \   000024F8   691E8DE2           ADD      R1,SP,#+1680
   \   000024FC   54008DE2           ADD      R0,SP,#+84
   \   00002500   ........           _BLF     ??append,??append??rA
   \   00002504   0020A0E3           MOV      R2,#+0
   \   00002508   0110A0E3           MOV      R1,#+1
   \   0000250C   690E8DE2           ADD      R0,SP,#+1680
   \   00002510   ........           _BLF     ??_Tidy,??_Tidy??rA
   \   00002514   0020A0E3           MOV      R2,#+0
   \   00002518   0110A0E3           MOV      R1,#+1
   \   0000251C   AB0F8DE2           ADD      R0,SP,#+684
   \   00002520   400E80E2           ADD      R0,R0,#+1024
   \   00002524   ........           _BLF     ??_Tidy,??_Tidy??rA
   \   00002528   0020A0E3           MOV      R2,#+0
   \   0000252C   0110A0E3           MOV      R1,#+1
   \   00002530   700E8DE2           ADD      R0,SP,#+1792
   \   00002534   ........           _BLF     ??_Tidy,??_Tidy??rA
   \   00002538   0020A0E3           MOV      R2,#+0
   \   0000253C   0110A0E3           MOV      R1,#+1
   \   00002540   B20F8DE2           ADD      R0,SP,#+712
   \   00002544   400E80E2           ADD      R0,R0,#+1024
   \   00002548   ........           _BLF     ??_Tidy,??_Tidy??rA
   \   0000254C   0020A0E3           MOV      R2,#+0
   \   00002550   0110A0E3           MOV      R1,#+1
   \   00002554   B90F8DE2           ADD      R0,SP,#+740
   \   00002558   400E80E2           ADD      R0,R0,#+1024
   \   0000255C   ........           _BLF     ??_Tidy,??_Tidy??rA
    361                  LocalString += TabStr1 + KeyWord(AL_LIM_LOW_PV_PRESS) + FloatToAnsiString(LowPressVacLimit) + CrLfStr;
   \   00002560   141197E5           LDR      R1,[R7, #+276]
   \   00002564   0330A0E3           MOV      R3,#+3
   \   00002568   0720A0E3           MOV      R2,#+7
   \   0000256C   E30F8DE2           ADD      R0,SP,#+908
   \   00002570   400E80E2           ADD      R0,R0,#+1024
   \   00002574   ........           _BLF     ??FloatToAnsiString,??FloatToAnsiString??rA
   \   00002578   0A10A0E1           MOV      R1,R10
   \   0000257C   770E8DE2           ADD      R0,SP,#+1904
   \   00002580   ........           _BLF     ??KeyWord,??KeyWord??rA
   \   00002584   772E8DE2           ADD      R2,SP,#+1904
   \   00002588   0610A0E1           MOV      R1,R6
   \   0000258C   D50F8DE2           ADD      R0,SP,#+852
   \   00002590   400E80E2           ADD      R0,R0,#+1024
   \   00002594   ........           _BLF     `??operator+`,`??operator+??rA`
   \   00002598   E32F8DE2           ADD      R2,SP,#+908
   \   0000259C   402E82E2           ADD      R2,R2,#+1024
   \   000025A0   D51F8DE2           ADD      R1,SP,#+852
   \   000025A4   401E81E2           ADD      R1,R1,#+1024
   \   000025A8   CE0F8DE2           ADD      R0,SP,#+824
   \   000025AC   400E80E2           ADD      R0,R0,#+1024
   \   000025B0   ........           _BLF     `??operator+`,`??operator+??rA`
   \   000025B4   0420A0E1           MOV      R2,R4
   \   000025B8   CE1F8DE2           ADD      R1,SP,#+824
   \   000025BC   401E81E2           ADD      R1,R1,#+1024
   \   000025C0   C70F8DE2           ADD      R0,SP,#+796
   \   000025C4   400E80E2           ADD      R0,R0,#+1024
   \   000025C8   ........           _BLF     `??operator+`,`??operator+??rA`
   \   000025CC   0530A0E1           MOV      R3,R5
   \   000025D0   0020A0E3           MOV      R2,#+0
   \   000025D4   C71F8DE2           ADD      R1,SP,#+796
   \   000025D8   401E81E2           ADD      R1,R1,#+1024
   \   000025DC   54008DE2           ADD      R0,SP,#+84
   \   000025E0   ........           _BLF     ??append,??append??rA
   \   000025E4   0020A0E3           MOV      R2,#+0
   \   000025E8   0110A0E3           MOV      R1,#+1
   \   000025EC   C70F8DE2           ADD      R0,SP,#+796
   \   000025F0   400E80E2           ADD      R0,R0,#+1024
   \   000025F4   ........           _BLF     ??_Tidy,??_Tidy??rA
   \   000025F8   0020A0E3           MOV      R2,#+0
   \   000025FC   0110A0E3           MOV      R1,#+1
   \   00002600   CE0F8DE2           ADD      R0,SP,#+824
   \   00002604   400E80E2           ADD      R0,R0,#+1024
   \   00002608   ........           _BLF     ??_Tidy,??_Tidy??rA
   \   0000260C   0020A0E3           MOV      R2,#+0
   \   00002610   0110A0E3           MOV      R1,#+1
   \   00002614   E30F8DE2           ADD      R0,SP,#+908
   \   00002618   400E80E2           ADD      R0,R0,#+1024
   \   0000261C   ........           _BLF     ??_Tidy,??_Tidy??rA
   \   00002620   0020A0E3           MOV      R2,#+0
   \   00002624   0110A0E3           MOV      R1,#+1
   \   00002628   D50F8DE2           ADD      R0,SP,#+852
   \   0000262C   400E80E2           ADD      R0,R0,#+1024
   \   00002630   ........           _BLF     ??_Tidy,??_Tidy??rA
   \   00002634   0020A0E3           MOV      R2,#+0
   \   00002638   0110A0E3           MOV      R1,#+1
   \   0000263C   770E8DE2           ADD      R0,SP,#+1904
   \   00002640   ........           _BLF     ??_Tidy,??_Tidy??rA
    362                  LocalString += TabStr1 + KeyWord(AL_LIM_HIGH_IG_PRESS) + FloatToAnsiString(HighIGP_Limit) + CrLfStr;
   \   00002644   181197E5           LDR      R1,[R7, #+280]
   \   00002648   0330A0E3           MOV      R3,#+3
   \   0000264C   0720A0E3           MOV      R2,#+7
   \   00002650   18008DE2           ADD      R0,SP,#+24
   \   00002654   800E80E2           ADD      R0,R0,#+2048
   \   00002658   ........           _BLF     ??FloatToAnsiString,??FloatToAnsiString??rA
   \   0000265C   0B10A0E1           MOV      R1,R11
   \   00002660   FF0F8DE2           ADD      R0,SP,#+1020
   \   00002664   400E80E2           ADD      R0,R0,#+1024
   \   00002668   ........           _BLF     ??KeyWord,??KeyWord??rA
   \   0000266C   FF2F8DE2           ADD      R2,SP,#+1020
   \   00002670   402E82E2           ADD      R2,R2,#+1024
   \   00002674   0610A0E1           MOV      R1,R6
   \   00002678   7E0E8DE2           ADD      R0,SP,#+2016
   \   0000267C   ........           _BLF     `??operator+`,`??operator+??rA`
   \   00002680   18208DE2           ADD      R2,SP,#+24
   \   00002684   802E82E2           ADD      R2,R2,#+2048
   \   00002688   7E1E8DE2           ADD      R1,SP,#+2016
   \   0000268C   F10F8DE2           ADD      R0,SP,#+964
   \   00002690   400E80E2           ADD      R0,R0,#+1024
   \   00002694   ........           _BLF     `??operator+`,`??operator+??rA`
   \   00002698   0420A0E1           MOV      R2,R4
   \   0000269C   F11F8DE2           ADD      R1,SP,#+964
   \   000026A0   401E81E2           ADD      R1,R1,#+1024
   \   000026A4   EA0F8DE2           ADD      R0,SP,#+936
   \   000026A8   400E80E2           ADD      R0,R0,#+1024
   \   000026AC   ........           _BLF     `??operator+`,`??operator+??rA`
   \   000026B0   0530A0E1           MOV      R3,R5
   \   000026B4   0020A0E3           MOV      R2,#+0
   \   000026B8   EA1F8DE2           ADD      R1,SP,#+936
   \   000026BC   401E81E2           ADD      R1,R1,#+1024
   \   000026C0   54008DE2           ADD      R0,SP,#+84
   \   000026C4   ........           _BLF     ??append,??append??rA
   \   000026C8   0020A0E3           MOV      R2,#+0
   \   000026CC   0110A0E3           MOV      R1,#+1
   \   000026D0   EA0F8DE2           ADD      R0,SP,#+936
   \   000026D4   400E80E2           ADD      R0,R0,#+1024
   \   000026D8   ........           _BLF     ??_Tidy,??_Tidy??rA
   \   000026DC   0020A0E3           MOV      R2,#+0
   \   000026E0   0110A0E3           MOV      R1,#+1
   \   000026E4   F10F8DE2           ADD      R0,SP,#+964
   \   000026E8   400E80E2           ADD      R0,R0,#+1024
   \   000026EC   ........           _BLF     ??_Tidy,??_Tidy??rA
   \   000026F0   0020A0E3           MOV      R2,#+0
   \   000026F4   0110A0E3           MOV      R1,#+1
   \   000026F8   18008DE2           ADD      R0,SP,#+24
   \   000026FC   800E80E2           ADD      R0,R0,#+2048
   \   00002700   ........           _BLF     ??_Tidy,??_Tidy??rA
   \   00002704   0020A0E3           MOV      R2,#+0
   \   00002708   0110A0E3           MOV      R1,#+1
   \   0000270C   7E0E8DE2           ADD      R0,SP,#+2016
   \   00002710   ........           _BLF     ??_Tidy,??_Tidy??rA
   \   00002714   0020A0E3           MOV      R2,#+0
   \   00002718   0110A0E3           MOV      R1,#+1
   \   0000271C   FF0F8DE2           ADD      R0,SP,#+1020
   \   00002720   400E80E2           ADD      R0,R0,#+1024
   \   00002724   ........           _BLF     ??_Tidy,??_Tidy??rA
    363                  LocalString += TabStr1 + KeyWord(AL_LIM_LOW_IG_PRESS) + FloatToAnsiString(LowIGP_Limit) + CrLfStr;
   \   00002728   1C1197E5           LDR      R1,[R7, #+284]
   \   0000272C   0330A0E3           MOV      R3,#+3
   \   00002730   0720A0E3           MOV      R2,#+7
   \   00002734   650F8DE2           ADD      R0,SP,#+404
   \   00002738   400E80E2           ADD      R0,R0,#+1024
   \   0000273C   ........           _BLF     ??FloatToAnsiString,??FloatToAnsiString??rA
   \   00002740   0C1088E3           ORR      R1,R8,#0xC
   \   00002744   5B0E8DE2           ADD      R0,SP,#+1456
   \   00002748   ........           _BLF     ??KeyWord,??KeyWord??rA
   \   0000274C   5B2E8DE2           ADD      R2,SP,#+1456
   \   00002750   0610A0E1           MOV      R1,R6
   \   00002754   730F8DE2           ADD      R0,SP,#+460
   \   00002758   400E80E2           ADD      R0,R0,#+1024
   \   0000275C   ........           _BLF     `??operator+`,`??operator+??rA`
   \   00002760   652F8DE2           ADD      R2,SP,#+404
   \   00002764   402E82E2           ADD      R2,R2,#+1024
   \   00002768   731F8DE2           ADD      R1,SP,#+460
   \   0000276C   401E81E2           ADD      R1,R1,#+1024
   \   00002770   7A0F8DE2           ADD      R0,SP,#+488
   \   00002774   400E80E2           ADD      R0,R0,#+1024
   \   00002778   ........           _BLF     `??operator+`,`??operator+??rA`
   \   0000277C   0420A0E1           MOV      R2,R4
   \   00002780   7A1F8DE2           ADD      R1,SP,#+488
   \   00002784   401E81E2           ADD      R1,R1,#+1024
   \   00002788   34008DE2           ADD      R0,SP,#+52
   \   0000278C   800E80E2           ADD      R0,R0,#+2048
   \   00002790   ........           _BLF     `??operator+`,`??operator+??rA`
   \   00002794   0530A0E1           MOV      R3,R5
   \   00002798   0020A0E3           MOV      R2,#+0
   \   0000279C   34108DE2           ADD      R1,SP,#+52
   \   000027A0   801E81E2           ADD      R1,R1,#+2048
   \   000027A4   54008DE2           ADD      R0,SP,#+84
   \   000027A8   ........           _BLF     ??append,??append??rA
   \   000027AC   0020A0E3           MOV      R2,#+0
   \   000027B0   0110A0E3           MOV      R1,#+1
   \   000027B4   34008DE2           ADD      R0,SP,#+52
   \   000027B8   800E80E2           ADD      R0,R0,#+2048
   \   000027BC   ........           _BLF     ??_Tidy,??_Tidy??rA
   \   000027C0   0020A0E3           MOV      R2,#+0
   \   000027C4   0110A0E3           MOV      R1,#+1
   \   000027C8   7A0F8DE2           ADD      R0,SP,#+488
   \   000027CC   400E80E2           ADD      R0,R0,#+1024
   \   000027D0   ........           _BLF     ??_Tidy,??_Tidy??rA
   \   000027D4   0020A0E3           MOV      R2,#+0
   \   000027D8   0110A0E3           MOV      R1,#+1
   \   000027DC   650F8DE2           ADD      R0,SP,#+404
   \   000027E0   400E80E2           ADD      R0,R0,#+1024
   \   000027E4   ........           _BLF     ??_Tidy,??_Tidy??rA
   \   000027E8   0020A0E3           MOV      R2,#+0
   \   000027EC   0110A0E3           MOV      R1,#+1
   \   000027F0   730F8DE2           ADD      R0,SP,#+460
   \   000027F4   400E80E2           ADD      R0,R0,#+1024
   \   000027F8   ........           _BLF     ??_Tidy,??_Tidy??rA
   \   000027FC   0020A0E3           MOV      R2,#+0
   \   00002800   0110A0E3           MOV      R1,#+1
   \   00002804   5B0E8DE2           ADD      R0,SP,#+1456
   \   00002808   ........           _BLF     ??_Tidy,??_Tidy??rA
    364                  LocalString += TabStr1 + KeyWord(AL_LIM_HIGHVAPOUR_RET) + FloatToAnsiString(HighVapourRetLimit) + CrLfStr;
   \   0000280C   081197E5           LDR      R1,[R7, #+264]
   \   00002810   0330A0E3           MOV      R3,#+3
   \   00002814   0720A0E3           MOV      R2,#+7
   \   00002818   420F8DE2           ADD      R0,SP,#+264
   \   0000281C   400E80E2           ADD      R0,R0,#+1024
   \   00002820   ........           _BLF     ??FloatToAnsiString,??FloatToAnsiString??rA
   \   00002824   011088E2           ADD      R1,R8,#+1
   \   00002828   490F8DE2           ADD      R0,SP,#+292
   \   0000282C   400E80E2           ADD      R0,R0,#+1024
   \   00002830   ........           _BLF     ??KeyWord,??KeyWord??rA
   \   00002834   492F8DE2           ADD      R2,SP,#+292
   \   00002838   402E82E2           ADD      R2,R2,#+1024
   \   0000283C   0610A0E1           MOV      R1,R6
   \   00002840   540E8DE2           ADD      R0,SP,#+1344
   \   00002844   ........           _BLF     `??operator+`,`??operator+??rA`
   \   00002848   422F8DE2           ADD      R2,SP,#+264
   \   0000284C   402E82E2           ADD      R2,R2,#+1024
   \   00002850   541E8DE2           ADD      R1,SP,#+1344
   \   00002854   570F8DE2           ADD      R0,SP,#+348
   \   00002858   400E80E2           ADD      R0,R0,#+1024
   \   0000285C   ........           _BLF     `??operator+`,`??operator+??rA`
   \   00002860   0420A0E1           MOV      R2,R4
   \   00002864   571F8DE2           ADD      R1,SP,#+348
   \   00002868   401E81E2           ADD      R1,R1,#+1024
   \   0000286C   5E0F8DE2           ADD      R0,SP,#+376
   \   00002870   400E80E2           ADD      R0,R0,#+1024
   \   00002874   ........           _BLF     `??operator+`,`??operator+??rA`
   \   00002878   0530A0E1           MOV      R3,R5
   \   0000287C   0020A0E3           MOV      R2,#+0
   \   00002880   5E1F8DE2           ADD      R1,SP,#+376
   \   00002884   401E81E2           ADD      R1,R1,#+1024
   \   00002888   54008DE2           ADD      R0,SP,#+84
   \   0000288C   ........           _BLF     ??append,??append??rA
   \   00002890   0020A0E3           MOV      R2,#+0
   \   00002894   0110A0E3           MOV      R1,#+1
   \   00002898   5E0F8DE2           ADD      R0,SP,#+376
   \   0000289C   400E80E2           ADD      R0,R0,#+1024
   \   000028A0   ........           _BLF     ??_Tidy,??_Tidy??rA
   \   000028A4   0020A0E3           MOV      R2,#+0
   \   000028A8   0110A0E3           MOV      R1,#+1
   \   000028AC   570F8DE2           ADD      R0,SP,#+348
   \   000028B0   400E80E2           ADD      R0,R0,#+1024
   \   000028B4   ........           _BLF     ??_Tidy,??_Tidy??rA
   \   000028B8   0020A0E3           MOV      R2,#+0
   \   000028BC   0110A0E3           MOV      R1,#+1
   \   000028C0   420F8DE2           ADD      R0,SP,#+264
   \   000028C4   400E80E2           ADD      R0,R0,#+1024
   \   000028C8   ........           _BLF     ??_Tidy,??_Tidy??rA
   \   000028CC   0020A0E3           MOV      R2,#+0
   \   000028D0   0110A0E3           MOV      R1,#+1
   \   000028D4   540E8DE2           ADD      R0,SP,#+1344
   \   000028D8   ........           _BLF     ??_Tidy,??_Tidy??rA
   \   000028DC   0020A0E3           MOV      R2,#+0
   \   000028E0   0110A0E3           MOV      R1,#+1
   \   000028E4   490F8DE2           ADD      R0,SP,#+292
   \   000028E8   400E80E2           ADD      R0,R0,#+1024
   \   000028EC   ........           _BLF     ??_Tidy,??_Tidy??rA
    365                  LocalString += TabStr1 + KeyWord(AL_LIM_LOWVAPOUR_RET) + FloatToAnsiString(LowVapourRetLimit) + CrLfStr;
   \   000028F0   0330A0E3           MOV      R3,#+3
   \   000028F4   0720A0E3           MOV      R2,#+7
   \   000028F8   0C1197E5           LDR      R1,[R7, #+268]
   \   000028FC   7C008DE2           ADD      R0,SP,#+124
   \   00002900   400E80E2           ADD      R0,R0,#+1024
   \   00002904   ........           _BLF     ??FloatToAnsiString,??FloatToAnsiString??rA
   \   00002908   021088E3           ORR      R1,R8,#0x2
   \   0000290C   98008DE2           ADD      R0,SP,#+152
   \   00002910   400E80E2           ADD      R0,R0,#+1024
   \   00002914   ........           _BLF     ??KeyWord,??KeyWord??rA
   \   00002918   98208DE2           ADD      R2,SP,#+152
   \   0000291C   402E82E2           ADD      R2,R2,#+1024
   \   00002920   0610A0E1           MOV      R1,R6
   \   00002924   B4008DE2           ADD      R0,SP,#+180
   \   00002928   400E80E2           ADD      R0,R0,#+1024
   \   0000292C   ........           _BLF     `??operator+`,`??operator+??rA`
   \   00002930   7C208DE2           ADD      R2,SP,#+124
   \   00002934   402E82E2           ADD      R2,R2,#+1024
   \   00002938   B4108DE2           ADD      R1,SP,#+180
   \   0000293C   401E81E2           ADD      R1,R1,#+1024
   \   00002940   4D0E8DE2           ADD      R0,SP,#+1232
   \   00002944   ........           _BLF     `??operator+`,`??operator+??rA`
   \   00002948   0420A0E1           MOV      R2,R4
   \   0000294C   4D1E8DE2           ADD      R1,SP,#+1232
   \   00002950   EC008DE2           ADD      R0,SP,#+236
   \   00002954   400E80E2           ADD      R0,R0,#+1024
   \   00002958   ........           _BLF     `??operator+`,`??operator+??rA`
   \   0000295C   0530A0E1           MOV      R3,R5
   \   00002960   0020A0E3           MOV      R2,#+0
   \   00002964   EC108DE2           ADD      R1,SP,#+236
   \   00002968   401E81E2           ADD      R1,R1,#+1024
   \   0000296C   54008DE2           ADD      R0,SP,#+84
   \   00002970   ........           _BLF     ??append,??append??rA
   \   00002974   0020A0E3           MOV      R2,#+0
   \   00002978   0110A0E3           MOV      R1,#+1
   \   0000297C   EC008DE2           ADD      R0,SP,#+236
   \   00002980   400E80E2           ADD      R0,R0,#+1024
   \   00002984   ........           _BLF     ??_Tidy,??_Tidy??rA
   \   00002988   0020A0E3           MOV      R2,#+0
   \   0000298C   0110A0E3           MOV      R1,#+1
   \   00002990   4D0E8DE2           ADD      R0,SP,#+1232
   \   00002994   ........           _BLF     ??_Tidy,??_Tidy??rA
   \   00002998   0020A0E3           MOV      R2,#+0
   \   0000299C   0110A0E3           MOV      R1,#+1
   \   000029A0   7C008DE2           ADD      R0,SP,#+124
   \   000029A4   400E80E2           ADD      R0,R0,#+1024
   \   000029A8   ........           _BLF     ??_Tidy,??_Tidy??rA
   \   000029AC   0020A0E3           MOV      R2,#+0
   \   000029B0   0110A0E3           MOV      R1,#+1
   \   000029B4   B4008DE2           ADD      R0,SP,#+180
   \   000029B8   400E80E2           ADD      R0,R0,#+1024
   \   000029BC   ........           _BLF     ??_Tidy,??_Tidy??rA
   \   000029C0   0020A0E3           MOV      R2,#+0
   \   000029C4   0110A0E3           MOV      R1,#+1
   \   000029C8   98008DE2           ADD      R0,SP,#+152
   \   000029CC   400E80E2           ADD      R0,R0,#+1024
   \   000029D0   ........           _BLF     ??_Tidy,??_Tidy??rA
    366                  LocalString += TabStr1 + KeyWord(AL_LIM_X_HI_TNK_PRESS1) + FloatToAnsiString(IntHighTankPressLimit1) + CrLfStr;
   \   000029D4   F81097E5           LDR      R1,[R7, #+248]
   \   000029D8   0330A0E3           MOV      R3,#+3
   \   000029DC   0720A0E3           MOV      R2,#+7
   \   000029E0   FC0F8DE2           ADD      R0,SP,#+1008
   \   000029E4   ........           _BLF     ??FloatToAnsiString,??FloatToAnsiString??rA
   \   000029E8   0D1088E2           ADD      R1,R8,#+13
   \   000029EC   0C008DE2           ADD      R0,SP,#+12
   \   000029F0   400E80E2           ADD      R0,R0,#+1024
   \   000029F4   ........           _BLF     ??KeyWord,??KeyWord??rA
   \   000029F8   0C208DE2           ADD      R2,SP,#+12
   \   000029FC   402E82E2           ADD      R2,R2,#+1024
   \   00002A00   0610A0E1           MOV      R1,R6
   \   00002A04   28008DE2           ADD      R0,SP,#+40
   \   00002A08   400E80E2           ADD      R0,R0,#+1024
   \   00002A0C   ........           _BLF     `??operator+`,`??operator+??rA`
   \   00002A10   FC2F8DE2           ADD      R2,SP,#+1008
   \   00002A14   28108DE2           ADD      R1,SP,#+40
   \   00002A18   401E81E2           ADD      R1,R1,#+1024
   \   00002A1C   44008DE2           ADD      R0,SP,#+68
   \   00002A20   400E80E2           ADD      R0,R0,#+1024
   \   00002A24   ........           _BLF     `??operator+`,`??operator+??rA`
   \   00002A28   0420A0E1           MOV      R2,R4
   \   00002A2C   44108DE2           ADD      R1,SP,#+68
   \   00002A30   401E81E2           ADD      R1,R1,#+1024
   \   00002A34   460E8DE2           ADD      R0,SP,#+1120
   \   00002A38   ........           _BLF     `??operator+`,`??operator+??rA`
   \   00002A3C   0530A0E1           MOV      R3,R5
   \   00002A40   0020A0E3           MOV      R2,#+0
   \   00002A44   461E8DE2           ADD      R1,SP,#+1120
   \   00002A48   54008DE2           ADD      R0,SP,#+84
   \   00002A4C   ........           _BLF     ??append,??append??rA
   \   00002A50   0020A0E3           MOV      R2,#+0
   \   00002A54   0110A0E3           MOV      R1,#+1
   \   00002A58   460E8DE2           ADD      R0,SP,#+1120
   \   00002A5C   ........           _BLF     ??_Tidy,??_Tidy??rA
   \   00002A60   0020A0E3           MOV      R2,#+0
   \   00002A64   0110A0E3           MOV      R1,#+1
   \   00002A68   44008DE2           ADD      R0,SP,#+68
   \   00002A6C   400E80E2           ADD      R0,R0,#+1024
   \   00002A70   ........           _BLF     ??_Tidy,??_Tidy??rA
   \   00002A74   0020A0E3           MOV      R2,#+0
   \   00002A78   0110A0E3           MOV      R1,#+1
   \   00002A7C   FC0F8DE2           ADD      R0,SP,#+1008
   \   00002A80   ........           _BLF     ??_Tidy,??_Tidy??rA
   \   00002A84   0020A0E3           MOV      R2,#+0
   \   00002A88   0110A0E3           MOV      R1,#+1
   \   00002A8C   28008DE2           ADD      R0,SP,#+40
   \   00002A90   400E80E2           ADD      R0,R0,#+1024
   \   00002A94   ........           _BLF     ??_Tidy,??_Tidy??rA
   \   00002A98   0020A0E3           MOV      R2,#+0
   \   00002A9C   0110A0E3           MOV      R1,#+1
   \   00002AA0   0C008DE2           ADD      R0,SP,#+12
   \   00002AA4   400E80E2           ADD      R0,R0,#+1024
   \   00002AA8   ........           _BLF     ??_Tidy,??_Tidy??rA
    367                  LocalString += TabStr1 + KeyWord(AL_LIM_X_LO_TNK_PRESS1) + FloatToAnsiString(IntLowTankPressLimit2) + CrLfStr;
   \   00002AAC   FC1097E5           LDR      R1,[R7, #+252]
   \   00002AB0   0330A0E3           MOV      R3,#+3
   \   00002AB4   0720A0E3           MOV      R2,#+7
   \   00002AB8   D90F8DE2           ADD      R0,SP,#+868
   \   00002ABC   ........           _BLF     ??FloatToAnsiString,??FloatToAnsiString??rA
   \   00002AC0   0E1088E3           ORR      R1,R8,#0xE
   \   00002AC4   E00F8DE2           ADD      R0,SP,#+896
   \   00002AC8   ........           _BLF     ??KeyWord,??KeyWord??rA
   \   00002ACC   E02F8DE2           ADD      R2,SP,#+896
   \   00002AD0   0610A0E1           MOV      R1,R6
   \   00002AD4   E70F8DE2           ADD      R0,SP,#+924
   \   00002AD8   ........           _BLF     `??operator+`,`??operator+??rA`
   \   00002ADC   D92F8DE2           ADD      R2,SP,#+868
   \   00002AE0   E71F8DE2           ADD      R1,SP,#+924
   \   00002AE4   EE0F8DE2           ADD      R0,SP,#+952
   \   00002AE8   ........           _BLF     `??operator+`,`??operator+??rA`
   \   00002AEC   0420A0E1           MOV      R2,R4
   \   00002AF0   EE1F8DE2           ADD      R1,SP,#+952
   \   00002AF4   F50F8DE2           ADD      R0,SP,#+980
   \   00002AF8   ........           _BLF     `??operator+`,`??operator+??rA`
   \   00002AFC   0530A0E1           MOV      R3,R5
   \   00002B00   0020A0E3           MOV      R2,#+0
   \   00002B04   F51F8DE2           ADD      R1,SP,#+980
   \   00002B08   54008DE2           ADD      R0,SP,#+84
   \   00002B0C   ........           _BLF     ??append,??append??rA
   \   00002B10   0020A0E3           MOV      R2,#+0
   \   00002B14   0110A0E3           MOV      R1,#+1
   \   00002B18   F50F8DE2           ADD      R0,SP,#+980
   \   00002B1C   ........           _BLF     ??_Tidy,??_Tidy??rA
   \   00002B20   0020A0E3           MOV      R2,#+0
   \   00002B24   0110A0E3           MOV      R1,#+1
   \   00002B28   EE0F8DE2           ADD      R0,SP,#+952
   \   00002B2C   ........           _BLF     ??_Tidy,??_Tidy??rA
   \   00002B30   0020A0E3           MOV      R2,#+0
   \   00002B34   0110A0E3           MOV      R1,#+1
   \   00002B38   D90F8DE2           ADD      R0,SP,#+868
   \   00002B3C   ........           _BLF     ??_Tidy,??_Tidy??rA
   \   00002B40   0020A0E3           MOV      R2,#+0
   \   00002B44   0110A0E3           MOV      R1,#+1
   \   00002B48   E70F8DE2           ADD      R0,SP,#+924
   \   00002B4C   ........           _BLF     ??_Tidy,??_Tidy??rA
   \   00002B50   0020A0E3           MOV      R2,#+0
   \   00002B54   0110A0E3           MOV      R1,#+1
   \   00002B58   E00F8DE2           ADD      R0,SP,#+896
   \   00002B5C   ........           _BLF     ??_Tidy,??_Tidy??rA
    368                  LocalString += TabStr1 + KeyWord(AL_LIM_X_HI_TNK_PRESS2) + FloatToAnsiString(IntHighTankPressLimit2) + CrLfStr;
   \   00002B60   001197E5           LDR      R1,[R7, #+256]
   \   00002B64   0330A0E3           MOV      R3,#+3
   \   00002B68   0720A0E3           MOV      R2,#+7
   \   00002B6C   B60F8DE2           ADD      R0,SP,#+728
   \   00002B70   ........           _BLF     ??FloatToAnsiString,??FloatToAnsiString??rA
   \   00002B74   E31EA0E3           MOV      R1,#+3632
   \   00002B78   BD0F8DE2           ADD      R0,SP,#+756
   \   00002B7C   ........           _BLF     ??KeyWord,??KeyWord??rA
   \   00002B80   BD2F8DE2           ADD      R2,SP,#+756
   \   00002B84   0610A0E1           MOV      R1,R6
   \   00002B88   C40F8DE2           ADD      R0,SP,#+784
   \   00002B8C   ........           _BLF     `??operator+`,`??operator+??rA`
   \   00002B90   B62F8DE2           ADD      R2,SP,#+728
   \   00002B94   C41F8DE2           ADD      R1,SP,#+784
   \   00002B98   CB0F8DE2           ADD      R0,SP,#+812
   \   00002B9C   ........           _BLF     `??operator+`,`??operator+??rA`
   \   00002BA0   0420A0E1           MOV      R2,R4
   \   00002BA4   CB1F8DE2           ADD      R1,SP,#+812
   \   00002BA8   D20F8DE2           ADD      R0,SP,#+840
   \   00002BAC   ........           _BLF     `??operator+`,`??operator+??rA`
   \   00002BB0   0530A0E1           MOV      R3,R5
   \   00002BB4   0020A0E3           MOV      R2,#+0
   \   00002BB8   D21F8DE2           ADD      R1,SP,#+840
   \   00002BBC   54008DE2           ADD      R0,SP,#+84
   \   00002BC0   ........           _BLF     ??append,??append??rA
   \   00002BC4   0020A0E3           MOV      R2,#+0
   \   00002BC8   0110A0E3           MOV      R1,#+1
   \   00002BCC   D20F8DE2           ADD      R0,SP,#+840
   \   00002BD0   ........           _BLF     ??_Tidy,??_Tidy??rA
   \   00002BD4   0020A0E3           MOV      R2,#+0
   \   00002BD8   0110A0E3           MOV      R1,#+1
   \   00002BDC   CB0F8DE2           ADD      R0,SP,#+812
   \   00002BE0   ........           _BLF     ??_Tidy,??_Tidy??rA
   \   00002BE4   0020A0E3           MOV      R2,#+0
   \   00002BE8   0110A0E3           MOV      R1,#+1
   \   00002BEC   B60F8DE2           ADD      R0,SP,#+728
   \   00002BF0   ........           _BLF     ??_Tidy,??_Tidy??rA
   \   00002BF4   0020A0E3           MOV      R2,#+0
   \   00002BF8   0110A0E3           MOV      R1,#+1
   \   00002BFC   C40F8DE2           ADD      R0,SP,#+784
   \   00002C00   ........           _BLF     ??_Tidy,??_Tidy??rA
   \   00002C04   0020A0E3           MOV      R2,#+0
   \   00002C08   0110A0E3           MOV      R1,#+1
   \   00002C0C   BD0F8DE2           ADD      R0,SP,#+756
   \   00002C10   ........           _BLF     ??_Tidy,??_Tidy??rA
    369                  LocalString += TabStr1 + KeyWord(AL_LIM_X_LO_TNK_PRESS2) + FloatToAnsiString(IntLowTankPressLimit1) + CrLfStr;
   \   00002C14   F41097E5           LDR      R1,[R7, #+244]
   \   00002C18   0330A0E3           MOV      R3,#+3
   \   00002C1C   0720A0E3           MOV      R2,#+7
   \   00002C20   930F8DE2           ADD      R0,SP,#+588
   \   00002C24   ........           _BLF     ??FloatToAnsiString,??FloatToAnsiString??rA
   \   00002C28   101088E3           ORR      R1,R8,#0x10
   \   00002C2C   9A0F8DE2           ADD      R0,SP,#+616
   \   00002C30   ........           _BLF     ??KeyWord,??KeyWord??rA
   \   00002C34   9A2F8DE2           ADD      R2,SP,#+616
   \   00002C38   0610A0E1           MOV      R1,R6
   \   00002C3C   A10F8DE2           ADD      R0,SP,#+644
   \   00002C40   ........           _BLF     `??operator+`,`??operator+??rA`
   \   00002C44   932F8DE2           ADD      R2,SP,#+588
   \   00002C48   A11F8DE2           ADD      R1,SP,#+644
   \   00002C4C   A80F8DE2           ADD      R0,SP,#+672
   \   00002C50   ........           _BLF     `??operator+`,`??operator+??rA`
   \   00002C54   0420A0E1           MOV      R2,R4
   \   00002C58   A81F8DE2           ADD      R1,SP,#+672
   \   00002C5C   AF0F8DE2           ADD      R0,SP,#+700
   \   00002C60   ........           _BLF     `??operator+`,`??operator+??rA`
   \   00002C64   0530A0E1           MOV      R3,R5
   \   00002C68   0020A0E3           MOV      R2,#+0
   \   00002C6C   AF1F8DE2           ADD      R1,SP,#+700
   \   00002C70   54008DE2           ADD      R0,SP,#+84
   \   00002C74   ........           _BLF     ??append,??append??rA
   \   00002C78   0020A0E3           MOV      R2,#+0
   \   00002C7C   0110A0E3           MOV      R1,#+1
   \   00002C80   AF0F8DE2           ADD      R0,SP,#+700
   \   00002C84   ........           _BLF     ??_Tidy,??_Tidy??rA
   \   00002C88   0020A0E3           MOV      R2,#+0
   \   00002C8C   0110A0E3           MOV      R1,#+1
   \   00002C90   A80F8DE2           ADD      R0,SP,#+672
   \   00002C94   ........           _BLF     ??_Tidy,??_Tidy??rA
   \   00002C98   0020A0E3           MOV      R2,#+0
   \   00002C9C   0110A0E3           MOV      R1,#+1
   \   00002CA0   930F8DE2           ADD      R0,SP,#+588
   \   00002CA4   ........           _BLF     ??_Tidy,??_Tidy??rA
   \   00002CA8   0020A0E3           MOV      R2,#+0
   \   00002CAC   0110A0E3           MOV      R1,#+1
   \   00002CB0   A10F8DE2           ADD      R0,SP,#+644
   \   00002CB4   ........           _BLF     ??_Tidy,??_Tidy??rA
   \   00002CB8   0020A0E3           MOV      R2,#+0
   \   00002CBC   0110A0E3           MOV      R1,#+1
   \   00002CC0   9A0F8DE2           ADD      R0,SP,#+616
   \   00002CC4   ........           _BLF     ??_Tidy,??_Tidy??rA
    370                  LocalString += TabStr1 + KeyWord(AL_LIM_HIGHHIGHLINE_PRESS) + FloatToAnsiString(HiHiLinePressLimit) + CrLfStr;
   \   00002CC8   201197E5           LDR      R1,[R7, #+288]
   \   00002CCC   0330A0E3           MOV      R3,#+3
   \   00002CD0   0720A0E3           MOV      R2,#+7
   \   00002CD4   700F8DE2           ADD      R0,SP,#+448
   \   00002CD8   ........           _BLF     ??FloatToAnsiString,??FloatToAnsiString??rA
   \   00002CDC   031088E2           ADD      R1,R8,#+3
   \   00002CE0   770F8DE2           ADD      R0,SP,#+476
   \   00002CE4   ........           _BLF     ??KeyWord,??KeyWord??rA
   \   00002CE8   772F8DE2           ADD      R2,SP,#+476
   \   00002CEC   0610A0E1           MOV      R1,R6
   \   00002CF0   7E0F8DE2           ADD      R0,SP,#+504
   \   00002CF4   ........           _BLF     `??operator+`,`??operator+??rA`
   \   00002CF8   702F8DE2           ADD      R2,SP,#+448
   \   00002CFC   7E1F8DE2           ADD      R1,SP,#+504
   \   00002D00   850F8DE2           ADD      R0,SP,#+532
   \   00002D04   ........           _BLF     `??operator+`,`??operator+??rA`
   \   00002D08   0420A0E1           MOV      R2,R4
   \   00002D0C   851F8DE2           ADD      R1,SP,#+532
   \   00002D10   8C0F8DE2           ADD      R0,SP,#+560
   \   00002D14   ........           _BLF     `??operator+`,`??operator+??rA`
   \   00002D18   0530A0E1           MOV      R3,R5
   \   00002D1C   0020A0E3           MOV      R2,#+0
   \   00002D20   8C1F8DE2           ADD      R1,SP,#+560
   \   00002D24   54008DE2           ADD      R0,SP,#+84
   \   00002D28   ........           _BLF     ??append,??append??rA
   \   00002D2C   0020A0E3           MOV      R2,#+0
   \   00002D30   0110A0E3           MOV      R1,#+1
   \   00002D34   8C0F8DE2           ADD      R0,SP,#+560
   \   00002D38   ........           _BLF     ??_Tidy,??_Tidy??rA
   \   00002D3C   0020A0E3           MOV      R2,#+0
   \   00002D40   0110A0E3           MOV      R1,#+1
   \   00002D44   850F8DE2           ADD      R0,SP,#+532
   \   00002D48   ........           _BLF     ??_Tidy,??_Tidy??rA
   \   00002D4C   0020A0E3           MOV      R2,#+0
   \   00002D50   0110A0E3           MOV      R1,#+1
   \   00002D54   700F8DE2           ADD      R0,SP,#+448
   \   00002D58   ........           _BLF     ??_Tidy,??_Tidy??rA
   \   00002D5C   0020A0E3           MOV      R2,#+0
   \   00002D60   0110A0E3           MOV      R1,#+1
   \   00002D64   7E0F8DE2           ADD      R0,SP,#+504
   \   00002D68   ........           _BLF     ??_Tidy,??_Tidy??rA
   \   00002D6C   0020A0E3           MOV      R2,#+0
   \   00002D70   0110A0E3           MOV      R1,#+1
   \   00002D74   770F8DE2           ADD      R0,SP,#+476
   \   00002D78   ........           _BLF     ??_Tidy,??_Tidy??rA
    371                  LocalString += TabStr1 + KeyWord(AL_LIM_HIGHLINE_PRESS) + FloatToAnsiString(HighLinePressLimit) + CrLfStr;
   \   00002D7C   241197E5           LDR      R1,[R7, #+292]
   \   00002D80   0330A0E3           MOV      R3,#+3
   \   00002D84   0720A0E3           MOV      R2,#+7
   \   00002D88   4D0F8DE2           ADD      R0,SP,#+308
   \   00002D8C   ........           _BLF     ??FloatToAnsiString,??FloatToAnsiString??rA
   \   00002D90   041088E3           ORR      R1,R8,#0x4
   \   00002D94   540F8DE2           ADD      R0,SP,#+336
   \   00002D98   ........           _BLF     ??KeyWord,??KeyWord??rA
   \   00002D9C   542F8DE2           ADD      R2,SP,#+336
   \   00002DA0   0610A0E1           MOV      R1,R6
   \   00002DA4   5B0F8DE2           ADD      R0,SP,#+364
   \   00002DA8   ........           _BLF     `??operator+`,`??operator+??rA`
   \   00002DAC   4D2F8DE2           ADD      R2,SP,#+308
   \   00002DB0   5B1F8DE2           ADD      R1,SP,#+364
   \   00002DB4   620F8DE2           ADD      R0,SP,#+392
   \   00002DB8   ........           _BLF     `??operator+`,`??operator+??rA`
   \   00002DBC   0420A0E1           MOV      R2,R4
   \   00002DC0   621F8DE2           ADD      R1,SP,#+392
   \   00002DC4   690F8DE2           ADD      R0,SP,#+420
   \   00002DC8   ........           _BLF     `??operator+`,`??operator+??rA`
   \   00002DCC   0530A0E1           MOV      R3,R5
   \   00002DD0   0020A0E3           MOV      R2,#+0
   \   00002DD4   691F8DE2           ADD      R1,SP,#+420
   \   00002DD8   54008DE2           ADD      R0,SP,#+84
   \   00002DDC   ........           _BLF     ??append,??append??rA
   \   00002DE0   0020A0E3           MOV      R2,#+0
   \   00002DE4   0110A0E3           MOV      R1,#+1
   \   00002DE8   690F8DE2           ADD      R0,SP,#+420
   \   00002DEC   ........           _BLF     ??_Tidy,??_Tidy??rA
   \   00002DF0   0020A0E3           MOV      R2,#+0
   \   00002DF4   0110A0E3           MOV      R1,#+1
   \   00002DF8   620F8DE2           ADD      R0,SP,#+392
   \   00002DFC   ........           _BLF     ??_Tidy,??_Tidy??rA
   \   00002E00   0020A0E3           MOV      R2,#+0
   \   00002E04   0110A0E3           MOV      R1,#+1
   \   00002E08   4D0F8DE2           ADD      R0,SP,#+308
   \   00002E0C   ........           _BLF     ??_Tidy,??_Tidy??rA
   \   00002E10   0020A0E3           MOV      R2,#+0
   \   00002E14   0110A0E3           MOV      R1,#+1
   \   00002E18   5B0F8DE2           ADD      R0,SP,#+364
   \   00002E1C   ........           _BLF     ??_Tidy,??_Tidy??rA
   \   00002E20   0020A0E3           MOV      R2,#+0
   \   00002E24   0110A0E3           MOV      R1,#+1
   \   00002E28   540F8DE2           ADD      R0,SP,#+336
   \   00002E2C   ........           _BLF     ??_Tidy,??_Tidy??rA
    372                  LocalString += TabStr1 + KeyWord(AL_LIM_LOWLINE_PRESS) + FloatToAnsiString(LowLinePressLimit) + CrLfStr;
   \   00002E30   281197E5           LDR      R1,[R7, #+296]
   \   00002E34   0330A0E3           MOV      R3,#+3
   \   00002E38   0720A0E3           MOV      R2,#+7
   \   00002E3C   460F8DE2           ADD      R0,SP,#+280
   \   00002E40   ........           _BLF     ??FloatToAnsiString,??FloatToAnsiString??rA
   \   00002E44   051088E2           ADD      R1,R8,#+5
   \   00002E48   FC008DE2           ADD      R0,SP,#+252
   \   00002E4C   ........           _BLF     ??KeyWord,??KeyWord??rA
   \   00002E50   FC208DE2           ADD      R2,SP,#+252
   \   00002E54   0610A0E1           MOV      R1,R6
   \   00002E58   E0008DE2           ADD      R0,SP,#+224
   \   00002E5C   ........           _BLF     `??operator+`,`??operator+??rA`
   \   00002E60   462F8DE2           ADD      R2,SP,#+280
   \   00002E64   E0108DE2           ADD      R1,SP,#+224
   \   00002E68   C4008DE2           ADD      R0,SP,#+196
   \   00002E6C   ........           _BLF     `??operator+`,`??operator+??rA`
   \   00002E70   0420A0E1           MOV      R2,R4
   \   00002E74   C4108DE2           ADD      R1,SP,#+196
   \   00002E78   A8008DE2           ADD      R0,SP,#+168
   \   00002E7C   ........           _BLF     `??operator+`,`??operator+??rA`
   \   00002E80   0530A0E1           MOV      R3,R5
   \   00002E84   0020A0E3           MOV      R2,#+0
   \   00002E88   A8108DE2           ADD      R1,SP,#+168
   \   00002E8C   54008DE2           ADD      R0,SP,#+84
   \   00002E90   ........           _BLF     ??append,??append??rA
   \   00002E94   0020A0E3           MOV      R2,#+0
   \   00002E98   0110A0E3           MOV      R1,#+1
   \   00002E9C   A8008DE2           ADD      R0,SP,#+168
   \   00002EA0   ........           _BLF     ??_Tidy,??_Tidy??rA
   \   00002EA4   0020A0E3           MOV      R2,#+0
   \   00002EA8   0110A0E3           MOV      R1,#+1
   \   00002EAC   C4008DE2           ADD      R0,SP,#+196
   \   00002EB0   ........           _BLF     ??_Tidy,??_Tidy??rA
   \   00002EB4   0020A0E3           MOV      R2,#+0
   \   00002EB8   0110A0E3           MOV      R1,#+1
   \   00002EBC   460F8DE2           ADD      R0,SP,#+280
   \   00002EC0   ........           _BLF     ??_Tidy,??_Tidy??rA
   \   00002EC4   0020A0E3           MOV      R2,#+0
   \   00002EC8   0110A0E3           MOV      R1,#+1
   \   00002ECC   E0008DE2           ADD      R0,SP,#+224
   \   00002ED0   ........           _BLF     ??_Tidy,??_Tidy??rA
   \   00002ED4   0020A0E3           MOV      R2,#+0
   \   00002ED8   0110A0E3           MOV      R1,#+1
   \   00002EDC   FC008DE2           ADD      R0,SP,#+252
   \                     ??WriteConfigToFile_15:
   \   00002EE0   ........           _BLF     ??_Tidy,??_Tidy??rA
    373              }
    374              if (PROProjectInfo::OverfillLocked      ) LocalString += TabStr1 + KeyWord(AL_LOCK_OVERFILL) + CrLfStr;
   \   00002EE4   6001D7E5           LDRB     R0,[R7, #+352]
   \   00002EE8   000050E3           CMP      R0,#+0
   \   00002EEC   1B00000A           BEQ      ??WriteConfigToFile_16
   \   00002EF0   10108AE3           ORR      R1,R10,#0x10
   \   00002EF4   1C008DE2           ADD      R0,SP,#+28
   \   00002EF8   ........           _BLF     ??KeyWord,??KeyWord??rA
   \   00002EFC   1C208DE2           ADD      R2,SP,#+28
   \   00002F00   0610A0E1           MOV      R1,R6
   \   00002F04   38008DE2           ADD      R0,SP,#+56
   \   00002F08   ........           _BLF     `??operator+`,`??operator+??rA`
   \   00002F0C   0420A0E1           MOV      R2,R4
   \   00002F10   38108DE2           ADD      R1,SP,#+56
   \   00002F14   0D00A0E1           MOV      R0,SP
   \   00002F18   ........           _BLF     `??operator+`,`??operator+??rA`
   \   00002F1C   0530A0E1           MOV      R3,R5
   \   00002F20   0020A0E3           MOV      R2,#+0
   \   00002F24   0D10A0E1           MOV      R1,SP
   \   00002F28   54008DE2           ADD      R0,SP,#+84
   \   00002F2C   ........           _BLF     ??append,??append??rA
   \   00002F30   0020A0E3           MOV      R2,#+0
   \   00002F34   0110A0E3           MOV      R1,#+1
   \   00002F38   0D00A0E1           MOV      R0,SP
   \   00002F3C   ........           _BLF     ??_Tidy,??_Tidy??rA
   \   00002F40   0020A0E3           MOV      R2,#+0
   \   00002F44   0110A0E3           MOV      R1,#+1
   \   00002F48   38008DE2           ADD      R0,SP,#+56
   \   00002F4C   ........           _BLF     ??_Tidy,??_Tidy??rA
   \   00002F50   0020A0E3           MOV      R2,#+0
   \   00002F54   0110A0E3           MOV      R1,#+1
   \   00002F58   1C008DE2           ADD      R0,SP,#+28
   \   00002F5C   ........           _BLF     ??_Tidy,??_Tidy??rA
    375              if (PROProjectInfo::HighLevelLocked     ) LocalString += TabStr1 + KeyWord(AL_LOCK_HIGHLEVEL) + CrLfStr;
   \                     ??WriteConfigToFile_16:
   \   00002F60   6101D7E5           LDRB     R0,[R7, #+353]
   \   00002F64   000050E3           CMP      R0,#+0
   \   00002F68   1B00000A           BEQ      ??WriteConfigToFile_17
   \   00002F6C   11108AE2           ADD      R1,R10,#+17
   \   00002F70   38008DE2           ADD      R0,SP,#+56
   \   00002F74   ........           _BLF     ??KeyWord,??KeyWord??rA
   \   00002F78   38208DE2           ADD      R2,SP,#+56
   \   00002F7C   0610A0E1           MOV      R1,R6
   \   00002F80   1C008DE2           ADD      R0,SP,#+28
   \   00002F84   ........           _BLF     `??operator+`,`??operator+??rA`
   \   00002F88   0420A0E1           MOV      R2,R4
   \   00002F8C   1C108DE2           ADD      R1,SP,#+28
   \   00002F90   0D00A0E1           MOV      R0,SP
   \   00002F94   ........           _BLF     `??operator+`,`??operator+??rA`
   \   00002F98   0530A0E1           MOV      R3,R5
   \   00002F9C   0020A0E3           MOV      R2,#+0
   \   00002FA0   0D10A0E1           MOV      R1,SP
   \   00002FA4   54008DE2           ADD      R0,SP,#+84
   \   00002FA8   ........           _BLF     ??append,??append??rA
   \   00002FAC   0020A0E3           MOV      R2,#+0
   \   00002FB0   0110A0E3           MOV      R1,#+1
   \   00002FB4   0D00A0E1           MOV      R0,SP
   \   00002FB8   ........           _BLF     ??_Tidy,??_Tidy??rA
   \   00002FBC   0020A0E3           MOV      R2,#+0
   \   00002FC0   0110A0E3           MOV      R1,#+1
   \   00002FC4   1C008DE2           ADD      R0,SP,#+28
   \   00002FC8   ........           _BLF     ??_Tidy,??_Tidy??rA
   \   00002FCC   0020A0E3           MOV      R2,#+0
   \   00002FD0   0110A0E3           MOV      R1,#+1
   \   00002FD4   38008DE2           ADD      R0,SP,#+56
   \   00002FD8   ........           _BLF     ??_Tidy,??_Tidy??rA
    376              if (PROProjectInfo::LowLevelLocked      ) LocalString += TabStr1 + KeyWord(AL_LOCK_LOWLEVEL) + CrLfStr;
   \                     ??WriteConfigToFile_17:
   \   00002FDC   6201D7E5           LDRB     R0,[R7, #+354]
   \   00002FE0   000050E3           CMP      R0,#+0
   \   00002FE4   1B00000A           BEQ      ??WriteConfigToFile_18
   \   00002FE8   12108AE3           ORR      R1,R10,#0x12
   \   00002FEC   1C008DE2           ADD      R0,SP,#+28
   \   00002FF0   ........           _BLF     ??KeyWord,??KeyWord??rA
   \   00002FF4   1C208DE2           ADD      R2,SP,#+28
   \   00002FF8   0610A0E1           MOV      R1,R6
   \   00002FFC   38008DE2           ADD      R0,SP,#+56
   \   00003000   ........           _BLF     `??operator+`,`??operator+??rA`
   \   00003004   0420A0E1           MOV      R2,R4
   \   00003008   38108DE2           ADD      R1,SP,#+56
   \   0000300C   0D00A0E1           MOV      R0,SP
   \   00003010   ........           _BLF     `??operator+`,`??operator+??rA`
   \   00003014   0530A0E1           MOV      R3,R5
   \   00003018   0020A0E3           MOV      R2,#+0
   \   0000301C   0D10A0E1           MOV      R1,SP
   \   00003020   54008DE2           ADD      R0,SP,#+84
   \   00003024   ........           _BLF     ??append,??append??rA
   \   00003028   0020A0E3           MOV      R2,#+0
   \   0000302C   0110A0E3           MOV      R1,#+1
   \   00003030   0D00A0E1           MOV      R0,SP
   \   00003034   ........           _BLF     ??_Tidy,??_Tidy??rA
   \   00003038   0020A0E3           MOV      R2,#+0
   \   0000303C   0110A0E3           MOV      R1,#+1
   \   00003040   38008DE2           ADD      R0,SP,#+56
   \   00003044   ........           _BLF     ??_Tidy,??_Tidy??rA
   \   00003048   0020A0E3           MOV      R2,#+0
   \   0000304C   0110A0E3           MOV      R1,#+1
   \   00003050   1C008DE2           ADD      R0,SP,#+28
   \   00003054   ........           _BLF     ??_Tidy,??_Tidy??rA
    377              if (PROProjectInfo::LowLowLevelLocked   ) LocalString += TabStr1 + KeyWord(AL_LOCK_LOWLOWLEVEL) + CrLfStr;
   \                     ??WriteConfigToFile_18:
   \   00003058   6301D7E5           LDRB     R0,[R7, #+355]
   \   0000305C   000050E3           CMP      R0,#+0
   \   00003060   1B00000A           BEQ      ??WriteConfigToFile_19
   \   00003064   13108AE2           ADD      R1,R10,#+19
   \   00003068   38008DE2           ADD      R0,SP,#+56
   \   0000306C   ........           _BLF     ??KeyWord,??KeyWord??rA
   \   00003070   38208DE2           ADD      R2,SP,#+56
   \   00003074   0610A0E1           MOV      R1,R6
   \   00003078   1C008DE2           ADD      R0,SP,#+28
   \   0000307C   ........           _BLF     `??operator+`,`??operator+??rA`
   \   00003080   0420A0E1           MOV      R2,R4
   \   00003084   1C108DE2           ADD      R1,SP,#+28
   \   00003088   0D00A0E1           MOV      R0,SP
   \   0000308C   ........           _BLF     `??operator+`,`??operator+??rA`
   \   00003090   0530A0E1           MOV      R3,R5
   \   00003094   0020A0E3           MOV      R2,#+0
   \   00003098   0D10A0E1           MOV      R1,SP
   \   0000309C   54008DE2           ADD      R0,SP,#+84
   \   000030A0   ........           _BLF     ??append,??append??rA
   \   000030A4   0020A0E3           MOV      R2,#+0
   \   000030A8   0110A0E3           MOV      R1,#+1
   \   000030AC   0D00A0E1           MOV      R0,SP
   \   000030B0   ........           _BLF     ??_Tidy,??_Tidy??rA
   \   000030B4   0020A0E3           MOV      R2,#+0
   \   000030B8   0110A0E3           MOV      R1,#+1
   \   000030BC   1C008DE2           ADD      R0,SP,#+28
   \   000030C0   ........           _BLF     ??_Tidy,??_Tidy??rA
   \   000030C4   0020A0E3           MOV      R2,#+0
   \   000030C8   0110A0E3           MOV      R1,#+1
   \   000030CC   38008DE2           ADD      R0,SP,#+56
   \   000030D0   ........           _BLF     ??_Tidy,??_Tidy??rA
    378              if (PROProjectInfo::HighTempLocked      ) LocalString += TabStr1 + KeyWord(AL_LOCK_HIGHTEMP) + CrLfStr;
   \                     ??WriteConfigToFile_19:
   \   000030D4   6401D7E5           LDRB     R0,[R7, #+356]
   \   000030D8   000050E3           CMP      R0,#+0
   \   000030DC   1B00000A           BEQ      ??WriteConfigToFile_20
   \   000030E0   14108AE3           ORR      R1,R10,#0x14
   \   000030E4   1C008DE2           ADD      R0,SP,#+28
   \   000030E8   ........           _BLF     ??KeyWord,??KeyWord??rA
   \   000030EC   1C208DE2           ADD      R2,SP,#+28
   \   000030F0   0610A0E1           MOV      R1,R6
   \   000030F4   38008DE2           ADD      R0,SP,#+56
   \   000030F8   ........           _BLF     `??operator+`,`??operator+??rA`
   \   000030FC   0420A0E1           MOV      R2,R4
   \   00003100   38108DE2           ADD      R1,SP,#+56
   \   00003104   0D00A0E1           MOV      R0,SP
   \   00003108   ........           _BLF     `??operator+`,`??operator+??rA`
   \   0000310C   0530A0E1           MOV      R3,R5
   \   00003110   0020A0E3           MOV      R2,#+0
   \   00003114   0D10A0E1           MOV      R1,SP
   \   00003118   54008DE2           ADD      R0,SP,#+84
   \   0000311C   ........           _BLF     ??append,??append??rA
   \   00003120   0020A0E3           MOV      R2,#+0
   \   00003124   0110A0E3           MOV      R1,#+1
   \   00003128   0D00A0E1           MOV      R0,SP
   \   0000312C   ........           _BLF     ??_Tidy,??_Tidy??rA
   \   00003130   0020A0E3           MOV      R2,#+0
   \   00003134   0110A0E3           MOV      R1,#+1
   \   00003138   38008DE2           ADD      R0,SP,#+56
   \   0000313C   ........           _BLF     ??_Tidy,??_Tidy??rA
   \   00003140   0020A0E3           MOV      R2,#+0
   \   00003144   0110A0E3           MOV      R1,#+1
   \   00003148   1C008DE2           ADD      R0,SP,#+28
   \   0000314C   ........           _BLF     ??_Tidy,??_Tidy??rA
    379              if (PROProjectInfo::LowTempLocked       ) LocalString += TabStr1 + KeyWord(AL_LOCK_LOWTEMP) + CrLfStr;
   \                     ??WriteConfigToFile_20:
   \   00003150   6501D7E5           LDRB     R0,[R7, #+357]
   \   00003154   000050E3           CMP      R0,#+0
   \   00003158   1B00000A           BEQ      ??WriteConfigToFile_21
   \   0000315C   15108AE2           ADD      R1,R10,#+21
   \   00003160   38008DE2           ADD      R0,SP,#+56
   \   00003164   ........           _BLF     ??KeyWord,??KeyWord??rA
   \   00003168   38208DE2           ADD      R2,SP,#+56
   \   0000316C   0610A0E1           MOV      R1,R6
   \   00003170   1C008DE2           ADD      R0,SP,#+28
   \   00003174   ........           _BLF     `??operator+`,`??operator+??rA`
   \   00003178   0420A0E1           MOV      R2,R4
   \   0000317C   1C108DE2           ADD      R1,SP,#+28
   \   00003180   0D00A0E1           MOV      R0,SP
   \   00003184   ........           _BLF     `??operator+`,`??operator+??rA`
   \   00003188   0530A0E1           MOV      R3,R5
   \   0000318C   0020A0E3           MOV      R2,#+0
   \   00003190   0D10A0E1           MOV      R1,SP
   \   00003194   54008DE2           ADD      R0,SP,#+84
   \   00003198   ........           _BLF     ??append,??append??rA
   \   0000319C   0020A0E3           MOV      R2,#+0
   \   000031A0   0110A0E3           MOV      R1,#+1
   \   000031A4   0D00A0E1           MOV      R0,SP
   \   000031A8   ........           _BLF     ??_Tidy,??_Tidy??rA
   \   000031AC   0020A0E3           MOV      R2,#+0
   \   000031B0   0110A0E3           MOV      R1,#+1
   \   000031B4   1C008DE2           ADD      R0,SP,#+28
   \   000031B8   ........           _BLF     ??_Tidy,??_Tidy??rA
   \   000031BC   0020A0E3           MOV      R2,#+0
   \   000031C0   0110A0E3           MOV      R1,#+1
   \   000031C4   38008DE2           ADD      R0,SP,#+56
   \   000031C8   ........           _BLF     ??_Tidy,??_Tidy??rA
    380              if (PROProjectInfo::HighTankPressLocked ) LocalString += TabStr1 + KeyWord(AL_LOCK_HIGHTANK_PRESS) + CrLfStr;
   \                     ??WriteConfigToFile_21:
   \   000031CC   6601D7E5           LDRB     R0,[R7, #+358]
   \   000031D0   000050E3           CMP      R0,#+0
   \   000031D4   1B00000A           BEQ      ??WriteConfigToFile_22
   \   000031D8   16108AE3           ORR      R1,R10,#0x16
   \   000031DC   1C008DE2           ADD      R0,SP,#+28
   \   000031E0   ........           _BLF     ??KeyWord,??KeyWord??rA
   \   000031E4   1C208DE2           ADD      R2,SP,#+28
   \   000031E8   0610A0E1           MOV      R1,R6
   \   000031EC   38008DE2           ADD      R0,SP,#+56
   \   000031F0   ........           _BLF     `??operator+`,`??operator+??rA`
   \   000031F4   0420A0E1           MOV      R2,R4
   \   000031F8   38108DE2           ADD      R1,SP,#+56
   \   000031FC   0D00A0E1           MOV      R0,SP
   \   00003200   ........           _BLF     `??operator+`,`??operator+??rA`
   \   00003204   0530A0E1           MOV      R3,R5
   \   00003208   0020A0E3           MOV      R2,#+0
   \   0000320C   0D10A0E1           MOV      R1,SP
   \   00003210   54008DE2           ADD      R0,SP,#+84
   \   00003214   ........           _BLF     ??append,??append??rA
   \   00003218   0020A0E3           MOV      R2,#+0
   \   0000321C   0110A0E3           MOV      R1,#+1
   \   00003220   0D00A0E1           MOV      R0,SP
   \   00003224   ........           _BLF     ??_Tidy,??_Tidy??rA
   \   00003228   0020A0E3           MOV      R2,#+0
   \   0000322C   0110A0E3           MOV      R1,#+1
   \   00003230   38008DE2           ADD      R0,SP,#+56
   \   00003234   ........           _BLF     ??_Tidy,??_Tidy??rA
   \   00003238   0020A0E3           MOV      R2,#+0
   \   0000323C   0110A0E3           MOV      R1,#+1
   \   00003240   1C008DE2           ADD      R0,SP,#+28
   \   00003244   ........           _BLF     ??_Tidy,??_Tidy??rA
    381              if (PROProjectInfo::LowTankPressLocked  ) LocalString += TabStr1 + KeyWord(AL_LOCK_LOWTANK_PRESS) + CrLfStr;
   \                     ??WriteConfigToFile_22:
   \   00003248   6701D7E5           LDRB     R0,[R7, #+359]
   \   0000324C   000050E3           CMP      R0,#+0
   \   00003250   1B00000A           BEQ      ??WriteConfigToFile_23
   \   00003254   E41EA0E3           MOV      R1,#+3648
   \   00003258   38008DE2           ADD      R0,SP,#+56
   \   0000325C   ........           _BLF     ??KeyWord,??KeyWord??rA
   \   00003260   38208DE2           ADD      R2,SP,#+56
   \   00003264   0610A0E1           MOV      R1,R6
   \   00003268   1C008DE2           ADD      R0,SP,#+28
   \   0000326C   ........           _BLF     `??operator+`,`??operator+??rA`
   \   00003270   0420A0E1           MOV      R2,R4
   \   00003274   1C108DE2           ADD      R1,SP,#+28
   \   00003278   0D00A0E1           MOV      R0,SP
   \   0000327C   ........           _BLF     `??operator+`,`??operator+??rA`
   \   00003280   0530A0E1           MOV      R3,R5
   \   00003284   0020A0E3           MOV      R2,#+0
   \   00003288   0D10A0E1           MOV      R1,SP
   \   0000328C   54008DE2           ADD      R0,SP,#+84
   \   00003290   ........           _BLF     ??append,??append??rA
   \   00003294   0020A0E3           MOV      R2,#+0
   \   00003298   0110A0E3           MOV      R1,#+1
   \   0000329C   0D00A0E1           MOV      R0,SP
   \   000032A0   ........           _BLF     ??_Tidy,??_Tidy??rA
   \   000032A4   0020A0E3           MOV      R2,#+0
   \   000032A8   0110A0E3           MOV      R1,#+1
   \   000032AC   1C008DE2           ADD      R0,SP,#+28
   \   000032B0   ........           _BLF     ??_Tidy,??_Tidy??rA
   \   000032B4   0020A0E3           MOV      R2,#+0
   \   000032B8   0110A0E3           MOV      R1,#+1
   \   000032BC   38008DE2           ADD      R0,SP,#+56
   \   000032C0   ........           _BLF     ??_Tidy,??_Tidy??rA
    382              if (PROProjectInfo::HighIGP_Locked      ) LocalString += TabStr1 + KeyWord(AL_LOCK_HIGH_IGP) + CrLfStr;
   \                     ??WriteConfigToFile_23:
   \   000032C4   6801D7E5           LDRB     R0,[R7, #+360]
   \   000032C8   000050E3           CMP      R0,#+0
   \   000032CC   1B00000A           BEQ      ??WriteConfigToFile_24
   \   000032D0   18108AE2           ADD      R1,R10,#+24
   \   000032D4   1C008DE2           ADD      R0,SP,#+28
   \   000032D8   ........           _BLF     ??KeyWord,??KeyWord??rA
   \   000032DC   1C208DE2           ADD      R2,SP,#+28
   \   000032E0   0610A0E1           MOV      R1,R6
   \   000032E4   38008DE2           ADD      R0,SP,#+56
   \   000032E8   ........           _BLF     `??operator+`,`??operator+??rA`
   \   000032EC   0420A0E1           MOV      R2,R4
   \   000032F0   38108DE2           ADD      R1,SP,#+56
   \   000032F4   0D00A0E1           MOV      R0,SP
   \   000032F8   ........           _BLF     `??operator+`,`??operator+??rA`
   \   000032FC   0530A0E1           MOV      R3,R5
   \   00003300   0020A0E3           MOV      R2,#+0
   \   00003304   0D10A0E1           MOV      R1,SP
   \   00003308   54008DE2           ADD      R0,SP,#+84
   \   0000330C   ........           _BLF     ??append,??append??rA
   \   00003310   0020A0E3           MOV      R2,#+0
   \   00003314   0110A0E3           MOV      R1,#+1
   \   00003318   0D00A0E1           MOV      R0,SP
   \   0000331C   ........           _BLF     ??_Tidy,??_Tidy??rA
   \   00003320   0020A0E3           MOV      R2,#+0
   \   00003324   0110A0E3           MOV      R1,#+1
   \   00003328   38008DE2           ADD      R0,SP,#+56
   \   0000332C   ........           _BLF     ??_Tidy,??_Tidy??rA
   \   00003330   0020A0E3           MOV      R2,#+0
   \   00003334   0110A0E3           MOV      R1,#+1
   \   00003338   1C008DE2           ADD      R0,SP,#+28
   \   0000333C   ........           _BLF     ??_Tidy,??_Tidy??rA
    383              if (PROProjectInfo::LowIGP_Locked       ) LocalString += TabStr1 + KeyWord(AL_LOCK_LOW_IGP) + CrLfStr;
   \                     ??WriteConfigToFile_24:
   \   00003340   6901D7E5           LDRB     R0,[R7, #+361]
   \   00003344   000050E3           CMP      R0,#+0
   \   00003348   1B00000A           BEQ      ??WriteConfigToFile_25
   \   0000334C   19108AE2           ADD      R1,R10,#+25
   \   00003350   38008DE2           ADD      R0,SP,#+56
   \   00003354   ........           _BLF     ??KeyWord,??KeyWord??rA
   \   00003358   38208DE2           ADD      R2,SP,#+56
   \   0000335C   0610A0E1           MOV      R1,R6
   \   00003360   1C008DE2           ADD      R0,SP,#+28
   \   00003364   ........           _BLF     `??operator+`,`??operator+??rA`
   \   00003368   0420A0E1           MOV      R2,R4
   \   0000336C   1C108DE2           ADD      R1,SP,#+28
   \   00003370   0D00A0E1           MOV      R0,SP
   \   00003374   ........           _BLF     `??operator+`,`??operator+??rA`
   \   00003378   0530A0E1           MOV      R3,R5
   \   0000337C   0020A0E3           MOV      R2,#+0
   \   00003380   0D10A0E1           MOV      R1,SP
   \   00003384   54008DE2           ADD      R0,SP,#+84
   \   00003388   ........           _BLF     ??append,??append??rA
   \   0000338C   0020A0E3           MOV      R2,#+0
   \   00003390   0110A0E3           MOV      R1,#+1
   \   00003394   0D00A0E1           MOV      R0,SP
   \   00003398   ........           _BLF     ??_Tidy,??_Tidy??rA
   \   0000339C   0020A0E3           MOV      R2,#+0
   \   000033A0   0110A0E3           MOV      R1,#+1
   \   000033A4   1C008DE2           ADD      R0,SP,#+28
   \   000033A8   ........           _BLF     ??_Tidy,??_Tidy??rA
   \   000033AC   0020A0E3           MOV      R2,#+0
   \   000033B0   0110A0E3           MOV      R1,#+1
   \   000033B4   38008DE2           ADD      R0,SP,#+56
   \   000033B8   ........           _BLF     ??_Tidy,??_Tidy??rA
    384              if (PROProjectInfo::HighLinePressLocked ) LocalString += TabStr1 + KeyWord(AL_LOCK_HIGHLINE_PRESS) + CrLfStr;
   \                     ??WriteConfigToFile_25:
   \   000033BC   6A01D7E5           LDRB     R0,[R7, #+362]
   \   000033C0   000050E3           CMP      R0,#+0
   \   000033C4   1B00000A           BEQ      ??WriteConfigToFile_26
   \   000033C8   1E108AE2           ADD      R1,R10,#+30
   \   000033CC   1C008DE2           ADD      R0,SP,#+28
   \   000033D0   ........           _BLF     ??KeyWord,??KeyWord??rA
   \   000033D4   1C208DE2           ADD      R2,SP,#+28
   \   000033D8   0610A0E1           MOV      R1,R6
   \   000033DC   38008DE2           ADD      R0,SP,#+56
   \   000033E0   ........           _BLF     `??operator+`,`??operator+??rA`
   \   000033E4   0420A0E1           MOV      R2,R4
   \   000033E8   38108DE2           ADD      R1,SP,#+56
   \   000033EC   0D00A0E1           MOV      R0,SP
   \   000033F0   ........           _BLF     `??operator+`,`??operator+??rA`
   \   000033F4   0530A0E1           MOV      R3,R5
   \   000033F8   0020A0E3           MOV      R2,#+0
   \   000033FC   0D10A0E1           MOV      R1,SP
   \   00003400   54008DE2           ADD      R0,SP,#+84
   \   00003404   ........           _BLF     ??append,??append??rA
   \   00003408   0020A0E3           MOV      R2,#+0
   \   0000340C   0110A0E3           MOV      R1,#+1
   \   00003410   0D00A0E1           MOV      R0,SP
   \   00003414   ........           _BLF     ??_Tidy,??_Tidy??rA
   \   00003418   0020A0E3           MOV      R2,#+0
   \   0000341C   0110A0E3           MOV      R1,#+1
   \   00003420   38008DE2           ADD      R0,SP,#+56
   \   00003424   ........           _BLF     ??_Tidy,??_Tidy??rA
   \   00003428   0020A0E3           MOV      R2,#+0
   \   0000342C   0110A0E3           MOV      R1,#+1
   \   00003430   1C008DE2           ADD      R0,SP,#+28
   \   00003434   ........           _BLF     ??_Tidy,??_Tidy??rA
    385              if (PROProjectInfo::LowLinePressLocked  ) LocalString += TabStr1 + KeyWord(AL_LOCK_LOWLINE_PRESS) + CrLfStr;
   \                     ??WriteConfigToFile_26:
   \   00003438   6B01D7E5           LDRB     R0,[R7, #+363]
   \   0000343C   000050E3           CMP      R0,#+0
   \   00003440   1B00000A           BEQ      ??WriteConfigToFile_27
   \   00003444   1F108AE2           ADD      R1,R10,#+31
   \   00003448   38008DE2           ADD      R0,SP,#+56
   \   0000344C   ........           _BLF     ??KeyWord,??KeyWord??rA
   \   00003450   38208DE2           ADD      R2,SP,#+56
   \   00003454   0610A0E1           MOV      R1,R6
   \   00003458   1C008DE2           ADD      R0,SP,#+28
   \   0000345C   ........           _BLF     `??operator+`,`??operator+??rA`
   \   00003460   0420A0E1           MOV      R2,R4
   \   00003464   1C108DE2           ADD      R1,SP,#+28
   \   00003468   0D00A0E1           MOV      R0,SP
   \   0000346C   ........           _BLF     `??operator+`,`??operator+??rA`
   \   00003470   0530A0E1           MOV      R3,R5
   \   00003474   0020A0E3           MOV      R2,#+0
   \   00003478   0D10A0E1           MOV      R1,SP
   \   0000347C   54008DE2           ADD      R0,SP,#+84
   \   00003480   ........           _BLF     ??append,??append??rA
   \   00003484   0020A0E3           MOV      R2,#+0
   \   00003488   0110A0E3           MOV      R1,#+1
   \   0000348C   0D00A0E1           MOV      R0,SP
   \   00003490   ........           _BLF     ??_Tidy,??_Tidy??rA
   \   00003494   0020A0E3           MOV      R2,#+0
   \   00003498   0110A0E3           MOV      R1,#+1
   \   0000349C   1C008DE2           ADD      R0,SP,#+28
   \   000034A0   ........           _BLF     ??_Tidy,??_Tidy??rA
   \   000034A4   0020A0E3           MOV      R2,#+0
   \   000034A8   0110A0E3           MOV      R1,#+1
   \   000034AC   38008DE2           ADD      R0,SP,#+56
   \   000034B0   ........           _BLF     ??_Tidy,??_Tidy??rA
    386          
    387              if (NoiseLimCargoB != (float)LEVEL_NOISE_LIMIT_CARGO_B) {
   \                     ??WriteConfigToFile_27:
   \   000034B4   B08097E5           LDR      R8,[R7, #+176]
   \   000034B8   800F9FE5           LDR      R0,??WriteConfigToFile_28  ;; 0x3d0f5c29
   \   000034BC   0810A0E1           MOV      R1,R8
   \   000034C0   ........           _BLF     __fNotEqual,??__fNotEqual??rA
   \   000034C4   000050E3           CMP      R0,#+0
   \   000034C8   2C00000A           BEQ      ??WriteConfigToFile_29
    388                  LocalString += TabStr1 + KeyWord(C_NOISE_LIM_CARGO_B) + FloatToAnsiString(NoiseLimCargoB, 6, 3) + CrLfStr;
   \   000034CC   0330A0E3           MOV      R3,#+3
   \   000034D0   0620A0E3           MOV      R2,#+6
   \   000034D4   0810A0E1           MOV      R1,R8
   \   000034D8   70008DE2           ADD      R0,SP,#+112
   \   000034DC   ........           _BLF     ??FloatToAnsiString,??FloatToAnsiString??rA
   \   000034E0   4D1EA0E3           MOV      R1,#+1232
   \   000034E4   8C008DE2           ADD      R0,SP,#+140
   \   000034E8   ........           _BLF     ??KeyWord,??KeyWord??rA
   \   000034EC   8C208DE2           ADD      R2,SP,#+140
   \   000034F0   0610A0E1           MOV      R1,R6
   \   000034F4   1C008DE2           ADD      R0,SP,#+28
   \   000034F8   ........           _BLF     `??operator+`,`??operator+??rA`
   \   000034FC   70208DE2           ADD      R2,SP,#+112
   \   00003500   1C108DE2           ADD      R1,SP,#+28
   \   00003504   38008DE2           ADD      R0,SP,#+56
   \   00003508   ........           _BLF     `??operator+`,`??operator+??rA`
   \   0000350C   0420A0E1           MOV      R2,R4
   \   00003510   38108DE2           ADD      R1,SP,#+56
   \   00003514   0D00A0E1           MOV      R0,SP
   \   00003518   ........           _BLF     `??operator+`,`??operator+??rA`
   \   0000351C   0530A0E1           MOV      R3,R5
   \   00003520   0020A0E3           MOV      R2,#+0
   \   00003524   0D10A0E1           MOV      R1,SP
   \   00003528   54008DE2           ADD      R0,SP,#+84
   \   0000352C   ........           _BLF     ??append,??append??rA
   \   00003530   0020A0E3           MOV      R2,#+0
   \   00003534   0110A0E3           MOV      R1,#+1
   \   00003538   0D00A0E1           MOV      R0,SP
   \   0000353C   ........           _BLF     ??_Tidy,??_Tidy??rA
   \   00003540   0020A0E3           MOV      R2,#+0
   \   00003544   0110A0E3           MOV      R1,#+1
   \   00003548   38008DE2           ADD      R0,SP,#+56
   \   0000354C   ........           _BLF     ??_Tidy,??_Tidy??rA
   \   00003550   0020A0E3           MOV      R2,#+0
   \   00003554   0110A0E3           MOV      R1,#+1
   \   00003558   70008DE2           ADD      R0,SP,#+112
   \   0000355C   ........           _BLF     ??_Tidy,??_Tidy??rA
   \   00003560   0020A0E3           MOV      R2,#+0
   \   00003564   0110A0E3           MOV      R1,#+1
   \   00003568   1C008DE2           ADD      R0,SP,#+28
   \   0000356C   ........           _BLF     ??_Tidy,??_Tidy??rA
   \   00003570   0020A0E3           MOV      R2,#+0
   \   00003574   0110A0E3           MOV      R1,#+1
   \   00003578   8C008DE2           ADD      R0,SP,#+140
   \   0000357C   ........           _BLF     ??_Tidy,??_Tidy??rA
    389              }
    390              if (NoiseLimCargoU != (float)LEVEL_NOISE_LIMIT_CARGO_U) {
   \                     ??WriteConfigToFile_29:
   \   00003580   B48097E5           LDR      R8,[R7, #+180]
   \   00003584   B80E9FE5           LDR      R0,??WriteConfigToFile_28+0x4  ;; 0x3e99999a
   \   00003588   0810A0E1           MOV      R1,R8
   \   0000358C   ........           _BLF     __fNotEqual,??__fNotEqual??rA
   \   00003590   000050E3           CMP      R0,#+0
   \   00003594   2D00000A           BEQ      ??WriteConfigToFile_30
    391                  LocalString += TabStr1 + KeyWord(C_NOISE_LIM_CARGO_U) + FloatToAnsiString(NoiseLimCargoU, 6, 3) + CrLfStr;
   \   00003598   0330A0E3           MOV      R3,#+3
   \   0000359C   0620A0E3           MOV      R2,#+6
   \   000035A0   0810A0E1           MOV      R1,R8
   \   000035A4   8C008DE2           ADD      R0,SP,#+140
   \   000035A8   ........           _BLF     ??FloatToAnsiString,??FloatToAnsiString??rA
   \   000035AC   D110A0E3           MOV      R1,#+209
   \   000035B0   401E81E3           ORR      R1,R1,#0x400
   \   000035B4   70008DE2           ADD      R0,SP,#+112
   \   000035B8   ........           _BLF     ??KeyWord,??KeyWord??rA
   \   000035BC   70208DE2           ADD      R2,SP,#+112
   \   000035C0   0610A0E1           MOV      R1,R6
   \   000035C4   38008DE2           ADD      R0,SP,#+56
   \   000035C8   ........           _BLF     `??operator+`,`??operator+??rA`
   \   000035CC   8C208DE2           ADD      R2,SP,#+140
   \   000035D0   38108DE2           ADD      R1,SP,#+56
   \   000035D4   1C008DE2           ADD      R0,SP,#+28
   \   000035D8   ........           _BLF     `??operator+`,`??operator+??rA`
   \   000035DC   0420A0E1           MOV      R2,R4
   \   000035E0   1C108DE2           ADD      R1,SP,#+28
   \   000035E4   0D00A0E1           MOV      R0,SP
   \   000035E8   ........           _BLF     `??operator+`,`??operator+??rA`
   \   000035EC   0530A0E1           MOV      R3,R5
   \   000035F0   0020A0E3           MOV      R2,#+0
   \   000035F4   0D10A0E1           MOV      R1,SP
   \   000035F8   54008DE2           ADD      R0,SP,#+84
   \   000035FC   ........           _BLF     ??append,??append??rA
   \   00003600   0020A0E3           MOV      R2,#+0
   \   00003604   0110A0E3           MOV      R1,#+1
   \   00003608   0D00A0E1           MOV      R0,SP
   \   0000360C   ........           _BLF     ??_Tidy,??_Tidy??rA
   \   00003610   0020A0E3           MOV      R2,#+0
   \   00003614   0110A0E3           MOV      R1,#+1
   \   00003618   1C008DE2           ADD      R0,SP,#+28
   \   0000361C   ........           _BLF     ??_Tidy,??_Tidy??rA
   \   00003620   0020A0E3           MOV      R2,#+0
   \   00003624   0110A0E3           MOV      R1,#+1
   \   00003628   8C008DE2           ADD      R0,SP,#+140
   \   0000362C   ........           _BLF     ??_Tidy,??_Tidy??rA
   \   00003630   0020A0E3           MOV      R2,#+0
   \   00003634   0110A0E3           MOV      R1,#+1
   \   00003638   38008DE2           ADD      R0,SP,#+56
   \   0000363C   ........           _BLF     ??_Tidy,??_Tidy??rA
   \   00003640   0020A0E3           MOV      R2,#+0
   \   00003644   0110A0E3           MOV      R1,#+1
   \   00003648   70008DE2           ADD      R0,SP,#+112
   \   0000364C   ........           _BLF     ??_Tidy,??_Tidy??rA
    392              }
    393              if (NoiseLimCargoB != (float)LEVEL_NOISE_LIMIT_BALLAST_B) {
   \                     ??WriteConfigToFile_30:
   \   00003650   F08D9FE5           LDR      R8,??WriteConfigToFile_28+0x8  ;; 0x3dcccccd
   \   00003654   B00097E5           LDR      R0,[R7, #+176]
   \   00003658   0810A0E1           MOV      R1,R8
   \   0000365C   ........           _BLF     __fNotEqual,??__fNotEqual??rA
   \   00003660   000050E3           CMP      R0,#+0
   \   00003664   2D00000A           BEQ      ??WriteConfigToFile_31
    394                  LocalString += TabStr1 + KeyWord(C_NOISE_LIM_BALLAST_B) + FloatToAnsiString(NoiseLimBallastB, 6, 3) + CrLfStr;
   \   00003668   B81097E5           LDR      R1,[R7, #+184]
   \   0000366C   0330A0E3           MOV      R3,#+3
   \   00003670   0620A0E3           MOV      R2,#+6
   \   00003674   70008DE2           ADD      R0,SP,#+112
   \   00003678   ........           _BLF     ??FloatToAnsiString,??FloatToAnsiString??rA
   \   0000367C   D210A0E3           MOV      R1,#+210
   \   00003680   401E81E3           ORR      R1,R1,#0x400
   \   00003684   8C008DE2           ADD      R0,SP,#+140
   \   00003688   ........           _BLF     ??KeyWord,??KeyWord??rA
   \   0000368C   8C208DE2           ADD      R2,SP,#+140
   \   00003690   0610A0E1           MOV      R1,R6
   \   00003694   1C008DE2           ADD      R0,SP,#+28
   \   00003698   ........           _BLF     `??operator+`,`??operator+??rA`
   \   0000369C   70208DE2           ADD      R2,SP,#+112
   \   000036A0   1C108DE2           ADD      R1,SP,#+28
   \   000036A4   38008DE2           ADD      R0,SP,#+56
   \   000036A8   ........           _BLF     `??operator+`,`??operator+??rA`
   \   000036AC   0420A0E1           MOV      R2,R4
   \   000036B0   38108DE2           ADD      R1,SP,#+56
   \   000036B4   0D00A0E1           MOV      R0,SP
   \   000036B8   ........           _BLF     `??operator+`,`??operator+??rA`
   \   000036BC   0530A0E1           MOV      R3,R5
   \   000036C0   0020A0E3           MOV      R2,#+0
   \   000036C4   0D10A0E1           MOV      R1,SP
   \   000036C8   54008DE2           ADD      R0,SP,#+84
   \   000036CC   ........           _BLF     ??append,??append??rA
   \   000036D0   0020A0E3           MOV      R2,#+0
   \   000036D4   0110A0E3           MOV      R1,#+1
   \   000036D8   0D00A0E1           MOV      R0,SP
   \   000036DC   ........           _BLF     ??_Tidy,??_Tidy??rA
   \   000036E0   0020A0E3           MOV      R2,#+0
   \   000036E4   0110A0E3           MOV      R1,#+1
   \   000036E8   38008DE2           ADD      R0,SP,#+56
   \   000036EC   ........           _BLF     ??_Tidy,??_Tidy??rA
   \   000036F0   0020A0E3           MOV      R2,#+0
   \   000036F4   0110A0E3           MOV      R1,#+1
   \   000036F8   70008DE2           ADD      R0,SP,#+112
   \   000036FC   ........           _BLF     ??_Tidy,??_Tidy??rA
   \   00003700   0020A0E3           MOV      R2,#+0
   \   00003704   0110A0E3           MOV      R1,#+1
   \   00003708   1C008DE2           ADD      R0,SP,#+28
   \   0000370C   ........           _BLF     ??_Tidy,??_Tidy??rA
   \   00003710   0020A0E3           MOV      R2,#+0
   \   00003714   0110A0E3           MOV      R1,#+1
   \   00003718   8C008DE2           ADD      R0,SP,#+140
   \   0000371C   ........           _BLF     ??_Tidy,??_Tidy??rA
    395              }
    396              if (NoiseLimCargoB != (float)LEVEL_NOISE_LIMIT_BALLAST_U) {
   \                     ??WriteConfigToFile_31:
   \   00003720   B00097E5           LDR      R0,[R7, #+176]
   \   00003724   0810A0E1           MOV      R1,R8
   \   00003728   ........           _BLF     __fNotEqual,??__fNotEqual??rA
   \   0000372C   000050E3           CMP      R0,#+0
   \   00003730   2D00000A           BEQ      ??WriteConfigToFile_32
    397                  LocalString += TabStr1 + KeyWord(C_NOISE_LIM_BALLAST_U) + FloatToAnsiString(NoiseLimBallastU, 6, 3) + CrLfStr;
   \   00003734   BC1097E5           LDR      R1,[R7, #+188]
   \   00003738   0330A0E3           MOV      R3,#+3
   \   0000373C   0620A0E3           MOV      R2,#+6
   \   00003740   8C008DE2           ADD      R0,SP,#+140
   \   00003744   ........           _BLF     ??FloatToAnsiString,??FloatToAnsiString??rA
   \   00003748   D310A0E3           MOV      R1,#+211
   \   0000374C   401E81E3           ORR      R1,R1,#0x400
   \   00003750   70008DE2           ADD      R0,SP,#+112
   \   00003754   ........           _BLF     ??KeyWord,??KeyWord??rA
   \   00003758   70208DE2           ADD      R2,SP,#+112
   \   0000375C   0610A0E1           MOV      R1,R6
   \   00003760   38008DE2           ADD      R0,SP,#+56
   \   00003764   ........           _BLF     `??operator+`,`??operator+??rA`
   \   00003768   8C208DE2           ADD      R2,SP,#+140
   \   0000376C   38108DE2           ADD      R1,SP,#+56
   \   00003770   1C008DE2           ADD      R0,SP,#+28
   \   00003774   ........           _BLF     `??operator+`,`??operator+??rA`
   \   00003778   0420A0E1           MOV      R2,R4
   \   0000377C   1C108DE2           ADD      R1,SP,#+28
   \   00003780   0D00A0E1           MOV      R0,SP
   \   00003784   ........           _BLF     `??operator+`,`??operator+??rA`
   \   00003788   0530A0E1           MOV      R3,R5
   \   0000378C   0020A0E3           MOV      R2,#+0
   \   00003790   0D10A0E1           MOV      R1,SP
   \   00003794   54008DE2           ADD      R0,SP,#+84
   \   00003798   ........           _BLF     ??append,??append??rA
   \   0000379C   0020A0E3           MOV      R2,#+0
   \   000037A0   0110A0E3           MOV      R1,#+1
   \   000037A4   0D00A0E1           MOV      R0,SP
   \   000037A8   ........           _BLF     ??_Tidy,??_Tidy??rA
   \   000037AC   0020A0E3           MOV      R2,#+0
   \   000037B0   0110A0E3           MOV      R1,#+1
   \   000037B4   1C008DE2           ADD      R0,SP,#+28
   \   000037B8   ........           _BLF     ??_Tidy,??_Tidy??rA
   \   000037BC   0020A0E3           MOV      R2,#+0
   \   000037C0   0110A0E3           MOV      R1,#+1
   \   000037C4   8C008DE2           ADD      R0,SP,#+140
   \   000037C8   ........           _BLF     ??_Tidy,??_Tidy??rA
   \   000037CC   0020A0E3           MOV      R2,#+0
   \   000037D0   0110A0E3           MOV      R1,#+1
   \   000037D4   38008DE2           ADD      R0,SP,#+56
   \   000037D8   ........           _BLF     ??_Tidy,??_Tidy??rA
   \   000037DC   0020A0E3           MOV      R2,#+0
   \   000037E0   0110A0E3           MOV      R1,#+1
   \   000037E4   70008DE2           ADD      R0,SP,#+112
   \   000037E8   ........           _BLF     ??_Tidy,??_Tidy??rA
    398              }
    399              if (NoiseLimCargoB != (float)LEVEL_NOISE_LIMIT_SERVICE_B) {
   \                     ??WriteConfigToFile_32:
   \   000037EC   B00097E5           LDR      R0,[R7, #+176]
   \   000037F0   0810A0E1           MOV      R1,R8
   \   000037F4   ........           _BLF     __fNotEqual,??__fNotEqual??rA
   \   000037F8   000050E3           CMP      R0,#+0
   \   000037FC   2D00000A           BEQ      ??WriteConfigToFile_33
    400                  LocalString += TabStr1 + KeyWord(C_NOISE_LIM_SERVICE_B) + FloatToAnsiString(NoiseLimServiceB, 6, 3) + CrLfStr;
   \   00003800   C01097E5           LDR      R1,[R7, #+192]
   \   00003804   0330A0E3           MOV      R3,#+3
   \   00003808   0620A0E3           MOV      R2,#+6
   \   0000380C   70008DE2           ADD      R0,SP,#+112
   \   00003810   ........           _BLF     ??FloatToAnsiString,??FloatToAnsiString??rA
   \   00003814   D410A0E3           MOV      R1,#+212
   \   00003818   401E81E3           ORR      R1,R1,#0x400
   \   0000381C   8C008DE2           ADD      R0,SP,#+140
   \   00003820   ........           _BLF     ??KeyWord,??KeyWord??rA
   \   00003824   8C208DE2           ADD      R2,SP,#+140
   \   00003828   0610A0E1           MOV      R1,R6
   \   0000382C   1C008DE2           ADD      R0,SP,#+28
   \   00003830   ........           _BLF     `??operator+`,`??operator+??rA`
   \   00003834   70208DE2           ADD      R2,SP,#+112
   \   00003838   1C108DE2           ADD      R1,SP,#+28
   \   0000383C   38008DE2           ADD      R0,SP,#+56
   \   00003840   ........           _BLF     `??operator+`,`??operator+??rA`
   \   00003844   0420A0E1           MOV      R2,R4
   \   00003848   38108DE2           ADD      R1,SP,#+56
   \   0000384C   0D00A0E1           MOV      R0,SP
   \   00003850   ........           _BLF     `??operator+`,`??operator+??rA`
   \   00003854   0530A0E1           MOV      R3,R5
   \   00003858   0020A0E3           MOV      R2,#+0
   \   0000385C   0D10A0E1           MOV      R1,SP
   \   00003860   54008DE2           ADD      R0,SP,#+84
   \   00003864   ........           _BLF     ??append,??append??rA
   \   00003868   0020A0E3           MOV      R2,#+0
   \   0000386C   0110A0E3           MOV      R1,#+1
   \   00003870   0D00A0E1           MOV      R0,SP
   \   00003874   ........           _BLF     ??_Tidy,??_Tidy??rA
   \   00003878   0020A0E3           MOV      R2,#+0
   \   0000387C   0110A0E3           MOV      R1,#+1
   \   00003880   38008DE2           ADD      R0,SP,#+56
   \   00003884   ........           _BLF     ??_Tidy,??_Tidy??rA
   \   00003888   0020A0E3           MOV      R2,#+0
   \   0000388C   0110A0E3           MOV      R1,#+1
   \   00003890   70008DE2           ADD      R0,SP,#+112
   \   00003894   ........           _BLF     ??_Tidy,??_Tidy??rA
   \   00003898   0020A0E3           MOV      R2,#+0
   \   0000389C   0110A0E3           MOV      R1,#+1
   \   000038A0   1C008DE2           ADD      R0,SP,#+28
   \   000038A4   ........           _BLF     ??_Tidy,??_Tidy??rA
   \   000038A8   0020A0E3           MOV      R2,#+0
   \   000038AC   0110A0E3           MOV      R1,#+1
   \   000038B0   8C008DE2           ADD      R0,SP,#+140
   \   000038B4   ........           _BLF     ??_Tidy,??_Tidy??rA
    401              }
    402              if (NoiseLimCargoB != (float)LEVEL_NOISE_LIMIT_SERVICE_U) {
   \                     ??WriteConfigToFile_33:
   \   000038B8   B00097E5           LDR      R0,[R7, #+176]
   \   000038BC   0810A0E1           MOV      R1,R8
   \   000038C0   ........           _BLF     __fNotEqual,??__fNotEqual??rA
   \   000038C4   000050E3           CMP      R0,#+0
   \   000038C8   2D00000A           BEQ      ??WriteConfigToFile_34
    403                  LocalString += TabStr1 + KeyWord(C_NOISE_LIM_SERVICE_U) + FloatToAnsiString(NoiseLimServiceU, 6, 3) + CrLfStr;
   \   000038CC   C41097E5           LDR      R1,[R7, #+196]
   \   000038D0   0330A0E3           MOV      R3,#+3
   \   000038D4   0620A0E3           MOV      R2,#+6
   \   000038D8   8C008DE2           ADD      R0,SP,#+140
   \   000038DC   ........           _BLF     ??FloatToAnsiString,??FloatToAnsiString??rA
   \   000038E0   D510A0E3           MOV      R1,#+213
   \   000038E4   401E81E3           ORR      R1,R1,#0x400
   \   000038E8   70008DE2           ADD      R0,SP,#+112
   \   000038EC   ........           _BLF     ??KeyWord,??KeyWord??rA
   \   000038F0   70208DE2           ADD      R2,SP,#+112
   \   000038F4   0610A0E1           MOV      R1,R6
   \   000038F8   38008DE2           ADD      R0,SP,#+56
   \   000038FC   ........           _BLF     `??operator+`,`??operator+??rA`
   \   00003900   8C208DE2           ADD      R2,SP,#+140
   \   00003904   38108DE2           ADD      R1,SP,#+56
   \   00003908   1C008DE2           ADD      R0,SP,#+28
   \   0000390C   ........           _BLF     `??operator+`,`??operator+??rA`
   \   00003910   0420A0E1           MOV      R2,R4
   \   00003914   1C108DE2           ADD      R1,SP,#+28
   \   00003918   0D00A0E1           MOV      R0,SP
   \   0000391C   ........           _BLF     `??operator+`,`??operator+??rA`
   \   00003920   0530A0E1           MOV      R3,R5
   \   00003924   0020A0E3           MOV      R2,#+0
   \   00003928   0D10A0E1           MOV      R1,SP
   \   0000392C   54008DE2           ADD      R0,SP,#+84
   \   00003930   ........           _BLF     ??append,??append??rA
   \   00003934   0020A0E3           MOV      R2,#+0
   \   00003938   0110A0E3           MOV      R1,#+1
   \   0000393C   0D00A0E1           MOV      R0,SP
   \   00003940   ........           _BLF     ??_Tidy,??_Tidy??rA
   \   00003944   0020A0E3           MOV      R2,#+0
   \   00003948   0110A0E3           MOV      R1,#+1
   \   0000394C   1C008DE2           ADD      R0,SP,#+28
   \   00003950   ........           _BLF     ??_Tidy,??_Tidy??rA
   \   00003954   0020A0E3           MOV      R2,#+0
   \   00003958   0110A0E3           MOV      R1,#+1
   \   0000395C   8C008DE2           ADD      R0,SP,#+140
   \   00003960   ........           _BLF     ??_Tidy,??_Tidy??rA
   \   00003964   0020A0E3           MOV      R2,#+0
   \   00003968   0110A0E3           MOV      R1,#+1
   \   0000396C   38008DE2           ADD      R0,SP,#+56
   \   00003970   ........           _BLF     ??_Tidy,??_Tidy??rA
   \   00003974   0020A0E3           MOV      R2,#+0
   \   00003978   0110A0E3           MOV      R1,#+1
   \   0000397C   70008DE2           ADD      R0,SP,#+112
   \   00003980   ........           _BLF     ??_Tidy,??_Tidy??rA
    404              }
    405              if (NoiseLimDefaultR != LEVEL_NOISE_LIMIT_RADAR) {
   \                     ??WriteConfigToFile_34:
   \   00003984   C88097E5           LDR      R8,[R7, #+200]
   \   00003988   0800A0E1           MOV      R0,R8
   \   0000398C   ........           _BLF     __floatToDouble,??__floatToDouble??rA
   \   00003990   0020A0E1           MOV      R2,R0
   \   00003994   B00A9FE5           LDR      R0,??WriteConfigToFile_28+0xC  ;; 0x47ae147b
   \   00003998   0130A0E1           MOV      R3,R1
   \   0000399C   AC1A9FE5           LDR      R1,??WriteConfigToFile_28+0x10  ;; 0x3f947ae1
   \   000039A0   ........           _BLF     __dNotEqual,??__dNotEqual??rA
   \   000039A4   000050E3           CMP      R0,#+0
   \   000039A8   2D00000A           BEQ      ??WriteConfigToFile_35
    406                  LocalString += TabStr1 + KeyWord(C_NOISE_LIM_RADAR) + FloatToAnsiString(NoiseLimDefaultR, 6, 3) + CrLfStr;
   \   000039AC   0330A0E3           MOV      R3,#+3
   \   000039B0   0620A0E3           MOV      R2,#+6
   \   000039B4   0810A0E1           MOV      R1,R8
   \   000039B8   70008DE2           ADD      R0,SP,#+112
   \   000039BC   ........           _BLF     ??FloatToAnsiString,??FloatToAnsiString??rA
   \   000039C0   D610A0E3           MOV      R1,#+214
   \   000039C4   401E81E3           ORR      R1,R1,#0x400
   \   000039C8   8C008DE2           ADD      R0,SP,#+140
   \   000039CC   ........           _BLF     ??KeyWord,??KeyWord??rA
   \   000039D0   8C208DE2           ADD      R2,SP,#+140
   \   000039D4   0610A0E1           MOV      R1,R6
   \   000039D8   1C008DE2           ADD      R0,SP,#+28
   \   000039DC   ........           _BLF     `??operator+`,`??operator+??rA`
   \   000039E0   70208DE2           ADD      R2,SP,#+112
   \   000039E4   1C108DE2           ADD      R1,SP,#+28
   \   000039E8   38008DE2           ADD      R0,SP,#+56
   \   000039EC   ........           _BLF     `??operator+`,`??operator+??rA`
   \   000039F0   0420A0E1           MOV      R2,R4
   \   000039F4   38108DE2           ADD      R1,SP,#+56
   \   000039F8   0D00A0E1           MOV      R0,SP
   \   000039FC   ........           _BLF     `??operator+`,`??operator+??rA`
   \   00003A00   0530A0E1           MOV      R3,R5
   \   00003A04   0020A0E3           MOV      R2,#+0
   \   00003A08   0D10A0E1           MOV      R1,SP
   \   00003A0C   54008DE2           ADD      R0,SP,#+84
   \   00003A10   ........           _BLF     ??append,??append??rA
   \   00003A14   0020A0E3           MOV      R2,#+0
   \   00003A18   0110A0E3           MOV      R1,#+1
   \   00003A1C   0D00A0E1           MOV      R0,SP
   \   00003A20   ........           _BLF     ??_Tidy,??_Tidy??rA
   \   00003A24   0020A0E3           MOV      R2,#+0
   \   00003A28   0110A0E3           MOV      R1,#+1
   \   00003A2C   38008DE2           ADD      R0,SP,#+56
   \   00003A30   ........           _BLF     ??_Tidy,??_Tidy??rA
   \   00003A34   0020A0E3           MOV      R2,#+0
   \   00003A38   0110A0E3           MOV      R1,#+1
   \   00003A3C   70008DE2           ADD      R0,SP,#+112
   \   00003A40   ........           _BLF     ??_Tidy,??_Tidy??rA
   \   00003A44   0020A0E3           MOV      R2,#+0
   \   00003A48   0110A0E3           MOV      R1,#+1
   \   00003A4C   1C008DE2           ADD      R0,SP,#+28
   \   00003A50   ........           _BLF     ??_Tidy,??_Tidy??rA
   \   00003A54   0020A0E3           MOV      R2,#+0
   \   00003A58   0110A0E3           MOV      R1,#+1
   \   00003A5C   8C008DE2           ADD      R0,SP,#+140
   \   00003A60   ........           _BLF     ??_Tidy,??_Tidy??rA
    407              }
    408              if (hasCableResistanceShip) {
   \                     ??WriteConfigToFile_35:
   \   00003A64   7901D7E5           LDRB     R0,[R7, #+377]
   \   00003A68   E4899FE5           LDR      R8,??WriteConfigToFile_28+0x14  ;; TabStr2
   \   00003A6C   000050E3           CMP      R0,#+0
   \   00003A70   2C00000A           BEQ      ??WriteConfigToFile_36
    409                  LocalString += TabStr2 + KeyWord(C_AI_CABLE_RES_SHIP) + FloatToAnsiString(CableResistanceShip) + CrLfStr;
   \   00003A74   3C1197E5           LDR      R1,[R7, #+316]
   \   00003A78   0330A0E3           MOV      R3,#+3
   \   00003A7C   0720A0E3           MOV      R2,#+7
   \   00003A80   8C008DE2           ADD      R0,SP,#+140
   \   00003A84   ........           _BLF     ??FloatToAnsiString,??FloatToAnsiString??rA
   \   00003A88   581E4AE2           SUB      R1,R10,#+1408
   \   00003A8C   70008DE2           ADD      R0,SP,#+112
   \   00003A90   ........           _BLF     ??KeyWord,??KeyWord??rA
   \   00003A94   70208DE2           ADD      R2,SP,#+112
   \   00003A98   0810A0E1           MOV      R1,R8
   \   00003A9C   38008DE2           ADD      R0,SP,#+56
   \   00003AA0   ........           _BLF     `??operator+`,`??operator+??rA`
   \   00003AA4   8C208DE2           ADD      R2,SP,#+140
   \   00003AA8   38108DE2           ADD      R1,SP,#+56
   \   00003AAC   1C008DE2           ADD      R0,SP,#+28
   \   00003AB0   ........           _BLF     `??operator+`,`??operator+??rA`
   \   00003AB4   0420A0E1           MOV      R2,R4
   \   00003AB8   1C108DE2           ADD      R1,SP,#+28
   \   00003ABC   0D00A0E1           MOV      R0,SP
   \   00003AC0   ........           _BLF     `??operator+`,`??operator+??rA`
   \   00003AC4   0530A0E1           MOV      R3,R5
   \   00003AC8   0020A0E3           MOV      R2,#+0
   \   00003ACC   0D10A0E1           MOV      R1,SP
   \   00003AD0   54008DE2           ADD      R0,SP,#+84
   \   00003AD4   ........           _BLF     ??append,??append??rA
   \   00003AD8   0020A0E3           MOV      R2,#+0
   \   00003ADC   0110A0E3           MOV      R1,#+1
   \   00003AE0   0D00A0E1           MOV      R0,SP
   \   00003AE4   ........           _BLF     ??_Tidy,??_Tidy??rA
   \   00003AE8   0020A0E3           MOV      R2,#+0
   \   00003AEC   0110A0E3           MOV      R1,#+1
   \   00003AF0   1C008DE2           ADD      R0,SP,#+28
   \   00003AF4   ........           _BLF     ??_Tidy,??_Tidy??rA
   \   00003AF8   0020A0E3           MOV      R2,#+0
   \   00003AFC   0110A0E3           MOV      R1,#+1
   \   00003B00   8C008DE2           ADD      R0,SP,#+140
   \   00003B04   ........           _BLF     ??_Tidy,??_Tidy??rA
   \   00003B08   0020A0E3           MOV      R2,#+0
   \   00003B0C   0110A0E3           MOV      R1,#+1
   \   00003B10   38008DE2           ADD      R0,SP,#+56
   \   00003B14   ........           _BLF     ??_Tidy,??_Tidy??rA
   \   00003B18   0020A0E3           MOV      R2,#+0
   \   00003B1C   0110A0E3           MOV      R1,#+1
   \   00003B20   70008DE2           ADD      R0,SP,#+112
   \   00003B24   ........           _BLF     ??_Tidy,??_Tidy??rA
    410              }
    411              if (hasCableResistanceSensor) {
   \                     ??WriteConfigToFile_36:
   \   00003B28   7A01D7E5           LDRB     R0,[R7, #+378]
   \   00003B2C   000050E3           CMP      R0,#+0
   \   00003B30   2D00000A           BEQ      ??WriteConfigToFile_37
    412                  LocalString += TabStr2 + KeyWord(C_AI_CABLE_RES_SENS) + FloatToAnsiString(CableResistanceSensor) + CrLfStr;
   \   00003B34   401197E5           LDR      R1,[R7, #+320]
   \   00003B38   0330A0E3           MOV      R3,#+3
   \   00003B3C   0720A0E3           MOV      R2,#+7
   \   00003B40   70008DE2           ADD      R0,SP,#+112
   \   00003B44   ........           _BLF     ??FloatToAnsiString,??FloatToAnsiString??rA
   \   00003B48   AA10A0E3           MOV      R1,#+170
   \   00003B4C   801E81E3           ORR      R1,R1,#0x800
   \   00003B50   8C008DE2           ADD      R0,SP,#+140
   \   00003B54   ........           _BLF     ??KeyWord,??KeyWord??rA
   \   00003B58   8C208DE2           ADD      R2,SP,#+140
   \   00003B5C   0810A0E1           MOV      R1,R8
   \   00003B60   1C008DE2           ADD      R0,SP,#+28
   \   00003B64   ........           _BLF     `??operator+`,`??operator+??rA`
   \   00003B68   70208DE2           ADD      R2,SP,#+112
   \   00003B6C   1C108DE2           ADD      R1,SP,#+28
   \   00003B70   38008DE2           ADD      R0,SP,#+56
   \   00003B74   ........           _BLF     `??operator+`,`??operator+??rA`
   \   00003B78   0420A0E1           MOV      R2,R4
   \   00003B7C   38108DE2           ADD      R1,SP,#+56
   \   00003B80   0D00A0E1           MOV      R0,SP
   \   00003B84   ........           _BLF     `??operator+`,`??operator+??rA`
   \   00003B88   0530A0E1           MOV      R3,R5
   \   00003B8C   0020A0E3           MOV      R2,#+0
   \   00003B90   0D10A0E1           MOV      R1,SP
   \   00003B94   54008DE2           ADD      R0,SP,#+84
   \   00003B98   ........           _BLF     ??append,??append??rA
   \   00003B9C   0020A0E3           MOV      R2,#+0
   \   00003BA0   0110A0E3           MOV      R1,#+1
   \   00003BA4   0D00A0E1           MOV      R0,SP
   \   00003BA8   ........           _BLF     ??_Tidy,??_Tidy??rA
   \   00003BAC   0020A0E3           MOV      R2,#+0
   \   00003BB0   0110A0E3           MOV      R1,#+1
   \   00003BB4   38008DE2           ADD      R0,SP,#+56
   \   00003BB8   ........           _BLF     ??_Tidy,??_Tidy??rA
   \   00003BBC   0020A0E3           MOV      R2,#+0
   \   00003BC0   0110A0E3           MOV      R1,#+1
   \   00003BC4   70008DE2           ADD      R0,SP,#+112
   \   00003BC8   ........           _BLF     ??_Tidy,??_Tidy??rA
   \   00003BCC   0020A0E3           MOV      R2,#+0
   \   00003BD0   0110A0E3           MOV      R1,#+1
   \   00003BD4   1C008DE2           ADD      R0,SP,#+28
   \   00003BD8   ........           _BLF     ??_Tidy,??_Tidy??rA
   \   00003BDC   0020A0E3           MOV      R2,#+0
   \   00003BE0   0110A0E3           MOV      R1,#+1
   \   00003BE4   8C008DE2           ADD      R0,SP,#+140
   \   00003BE8   ........           _BLF     ??_Tidy,??_Tidy??rA
    413              }
    414              if (UseTemperatureWindow) {
   \                     ??WriteConfigToFile_37:
   \   00003BEC   7B01D7E5           LDRB     R0,[R7, #+379]
   \   00003BF0   000050E3           CMP      R0,#+0
   \   00003BF4   5A00000A           BEQ      ??WriteConfigToFile_38
    415                  LocalString += TabStr2 + KeyWord(C_T_TEMP_WINDOW_COUNT) + AnsiString(TemperatureWindowMaxCnt) + CrLfStr;
   \   00003BF8   441197E5           LDR      R1,[R7, #+324]
   \   00003BFC   8C008DE2           ADD      R0,SP,#+140
   \   00003C00   ........           _BLF     ??AnsiString_4,??AnsiString??rA_4
   \   00003C04   0090A0E1           MOV      R9,R0
   \   00003C08   A710A0E3           MOV      R1,#+167
   \   00003C0C   501E81E3           ORR      R1,R1,#0x500
   \   00003C10   70008DE2           ADD      R0,SP,#+112
   \   00003C14   ........           _BLF     ??KeyWord,??KeyWord??rA
   \   00003C18   70208DE2           ADD      R2,SP,#+112
   \   00003C1C   0810A0E1           MOV      R1,R8
   \   00003C20   38008DE2           ADD      R0,SP,#+56
   \   00003C24   ........           _BLF     `??operator+`,`??operator+??rA`
   \   00003C28   0920A0E1           MOV      R2,R9
   \   00003C2C   38108DE2           ADD      R1,SP,#+56
   \   00003C30   1C008DE2           ADD      R0,SP,#+28
   \   00003C34   ........           _BLF     `??operator+`,`??operator+??rA`
   \   00003C38   0420A0E1           MOV      R2,R4
   \   00003C3C   1C108DE2           ADD      R1,SP,#+28
   \   00003C40   0D00A0E1           MOV      R0,SP
   \   00003C44   ........           _BLF     `??operator+`,`??operator+??rA`
   \   00003C48   0530A0E1           MOV      R3,R5
   \   00003C4C   0020A0E3           MOV      R2,#+0
   \   00003C50   0D10A0E1           MOV      R1,SP
   \   00003C54   54008DE2           ADD      R0,SP,#+84
   \   00003C58   ........           _BLF     ??append,??append??rA
   \   00003C5C   0020A0E3           MOV      R2,#+0
   \   00003C60   0110A0E3           MOV      R1,#+1
   \   00003C64   0D00A0E1           MOV      R0,SP
   \   00003C68   ........           _BLF     ??_Tidy,??_Tidy??rA
   \   00003C6C   0020A0E3           MOV      R2,#+0
   \   00003C70   0110A0E3           MOV      R1,#+1
   \   00003C74   1C008DE2           ADD      R0,SP,#+28
   \   00003C78   ........           _BLF     ??_Tidy,??_Tidy??rA
   \   00003C7C   0020A0E3           MOV      R2,#+0
   \   00003C80   0110A0E3           MOV      R1,#+1
   \   00003C84   8C008DE2           ADD      R0,SP,#+140
   \   00003C88   ........           _BLF     ??_Tidy,??_Tidy??rA
   \   00003C8C   0020A0E3           MOV      R2,#+0
   \   00003C90   0110A0E3           MOV      R1,#+1
   \   00003C94   38008DE2           ADD      R0,SP,#+56
   \   00003C98   ........           _BLF     ??_Tidy,??_Tidy??rA
   \   00003C9C   0020A0E3           MOV      R2,#+0
   \   00003CA0   0110A0E3           MOV      R1,#+1
   \   00003CA4   70008DE2           ADD      R0,SP,#+112
   \   00003CA8   ........           _BLF     ??_Tidy,??_Tidy??rA
    416                  LocalString += TabStr2 + KeyWord(C_T_TEMP_WINDOW_LIMIT) + FloatToAnsiString(TemperatureWindowTmpLim) + CrLfStr;
   \   00003CAC   481197E5           LDR      R1,[R7, #+328]
   \   00003CB0   0330A0E3           MOV      R3,#+3
   \   00003CB4   0720A0E3           MOV      R2,#+7
   \   00003CB8   A8008DE2           ADD      R0,SP,#+168
   \   00003CBC   ........           _BLF     ??FloatToAnsiString,??FloatToAnsiString??rA
   \   00003CC0   A810A0E3           MOV      R1,#+168
   \   00003CC4   501E81E3           ORR      R1,R1,#0x500
   \   00003CC8   C4008DE2           ADD      R0,SP,#+196
   \   00003CCC   ........           _BLF     ??KeyWord,??KeyWord??rA
   \   00003CD0   C4208DE2           ADD      R2,SP,#+196
   \   00003CD4   0810A0E1           MOV      R1,R8
   \   00003CD8   E0008DE2           ADD      R0,SP,#+224
   \   00003CDC   ........           _BLF     `??operator+`,`??operator+??rA`
   \   00003CE0   A8208DE2           ADD      R2,SP,#+168
   \   00003CE4   E0108DE2           ADD      R1,SP,#+224
   \   00003CE8   FC008DE2           ADD      R0,SP,#+252
   \   00003CEC   ........           _BLF     `??operator+`,`??operator+??rA`
   \   00003CF0   0420A0E1           MOV      R2,R4
   \   00003CF4   FC108DE2           ADD      R1,SP,#+252
   \   00003CF8   460F8DE2           ADD      R0,SP,#+280
   \   00003CFC   ........           _BLF     `??operator+`,`??operator+??rA`
   \   00003D00   0530A0E1           MOV      R3,R5
   \   00003D04   0020A0E3           MOV      R2,#+0
   \   00003D08   461F8DE2           ADD      R1,SP,#+280
   \   00003D0C   54008DE2           ADD      R0,SP,#+84
   \   00003D10   ........           _BLF     ??append,??append??rA
   \   00003D14   0020A0E3           MOV      R2,#+0
   \   00003D18   0110A0E3           MOV      R1,#+1
   \   00003D1C   460F8DE2           ADD      R0,SP,#+280
   \   00003D20   ........           _BLF     ??_Tidy,??_Tidy??rA
   \   00003D24   0020A0E3           MOV      R2,#+0
   \   00003D28   0110A0E3           MOV      R1,#+1
   \   00003D2C   FC008DE2           ADD      R0,SP,#+252
   \   00003D30   ........           _BLF     ??_Tidy,??_Tidy??rA
   \   00003D34   0020A0E3           MOV      R2,#+0
   \   00003D38   0110A0E3           MOV      R1,#+1
   \   00003D3C   A8008DE2           ADD      R0,SP,#+168
   \   00003D40   ........           _BLF     ??_Tidy,??_Tidy??rA
   \   00003D44   0020A0E3           MOV      R2,#+0
   \   00003D48   0110A0E3           MOV      R1,#+1
   \   00003D4C   E0008DE2           ADD      R0,SP,#+224
   \   00003D50   ........           _BLF     ??_Tidy,??_Tidy??rA
   \   00003D54   0020A0E3           MOV      R2,#+0
   \   00003D58   0110A0E3           MOV      R1,#+1
   \   00003D5C   C4008DE2           ADD      R0,SP,#+196
   \   00003D60   ........           _BLF     ??_Tidy,??_Tidy??rA
    417              }
    418              if (DecimalPointVolume != VOLUME_UNIT_DEC_P) {
   \                     ??WriteConfigToFile_38:
   \   00003D64   A81097E5           LDR      R1,[R7, #+168]
   \   00003D68   010051E3           CMP      R1,#+1
   \   00003D6C   2A00000A           BEQ      ??WriteConfigToFile_39
    419                  LocalString += TabStr1 + KeyWord(C_DEC_P_VOLUME) + AnsiString(DecimalPointVolume) + CrLfStr;
   \   00003D70   70008DE2           ADD      R0,SP,#+112
   \   00003D74   ........           _BLF     ??AnsiString_2,??AnsiString??rA_2
   \   00003D78   0080A0E1           MOV      R8,R0
   \   00003D7C   941E4BE2           SUB      R1,R11,#+2368
   \   00003D80   8C008DE2           ADD      R0,SP,#+140
   \   00003D84   ........           _BLF     ??KeyWord,??KeyWord??rA
   \   00003D88   8C208DE2           ADD      R2,SP,#+140
   \   00003D8C   0610A0E1           MOV      R1,R6
   \   00003D90   1C008DE2           ADD      R0,SP,#+28
   \   00003D94   ........           _BLF     `??operator+`,`??operator+??rA`
   \   00003D98   0820A0E1           MOV      R2,R8
   \   00003D9C   1C108DE2           ADD      R1,SP,#+28
   \   00003DA0   38008DE2           ADD      R0,SP,#+56
   \   00003DA4   ........           _BLF     `??operator+`,`??operator+??rA`
   \   00003DA8   0420A0E1           MOV      R2,R4
   \   00003DAC   38108DE2           ADD      R1,SP,#+56
   \   00003DB0   0D00A0E1           MOV      R0,SP
   \   00003DB4   ........           _BLF     `??operator+`,`??operator+??rA`
   \   00003DB8   0530A0E1           MOV      R3,R5
   \   00003DBC   0020A0E3           MOV      R2,#+0
   \   00003DC0   0D10A0E1           MOV      R1,SP
   \   00003DC4   54008DE2           ADD      R0,SP,#+84
   \   00003DC8   ........           _BLF     ??append,??append??rA
   \   00003DCC   0020A0E3           MOV      R2,#+0
   \   00003DD0   0110A0E3           MOV      R1,#+1
   \   00003DD4   0D00A0E1           MOV      R0,SP
   \   00003DD8   ........           _BLF     ??_Tidy,??_Tidy??rA
   \   00003DDC   0020A0E3           MOV      R2,#+0
   \   00003DE0   0110A0E3           MOV      R1,#+1
   \   00003DE4   38008DE2           ADD      R0,SP,#+56
   \   00003DE8   ........           _BLF     ??_Tidy,??_Tidy??rA
   \   00003DEC   0020A0E3           MOV      R2,#+0
   \   00003DF0   0110A0E3           MOV      R1,#+1
   \   00003DF4   70008DE2           ADD      R0,SP,#+112
   \   00003DF8   ........           _BLF     ??_Tidy,??_Tidy??rA
   \   00003DFC   0020A0E3           MOV      R2,#+0
   \   00003E00   0110A0E3           MOV      R1,#+1
   \   00003E04   1C008DE2           ADD      R0,SP,#+28
   \   00003E08   ........           _BLF     ??_Tidy,??_Tidy??rA
   \   00003E0C   0020A0E3           MOV      R2,#+0
   \   00003E10   0110A0E3           MOV      R1,#+1
   \   00003E14   8C008DE2           ADD      R0,SP,#+140
   \   00003E18   ........           _BLF     ??_Tidy,??_Tidy??rA
    420              }
    421              if (DecimalPointWeight != WEIGHT_UNIT_DEC_P) {
   \                     ??WriteConfigToFile_39:
   \   00003E1C   AC1097E5           LDR      R1,[R7, #+172]
   \   00003E20   010051E3           CMP      R1,#+1
   \   00003E24   2B00000A           BEQ      ??WriteConfigToFile_40
    422                  LocalString += TabStr1 + KeyWord(C_DEC_P_WEIGHT) + AnsiString(DecimalPointWeight) + CrLfStr;
   \   00003E28   8C008DE2           ADD      R0,SP,#+140
   \   00003E2C   ........           _BLF     ??AnsiString_2,??AnsiString??rA_2
   \   00003E30   0080A0E1           MOV      R8,R0
   \   00003E34   ED10A0E3           MOV      R1,#+237
   \   00003E38   401E81E3           ORR      R1,R1,#0x400
   \   00003E3C   70008DE2           ADD      R0,SP,#+112
   \   00003E40   ........           _BLF     ??KeyWord,??KeyWord??rA
   \   00003E44   70208DE2           ADD      R2,SP,#+112
   \   00003E48   0610A0E1           MOV      R1,R6
   \   00003E4C   38008DE2           ADD      R0,SP,#+56
   \   00003E50   ........           _BLF     `??operator+`,`??operator+??rA`
   \   00003E54   0820A0E1           MOV      R2,R8
   \   00003E58   38108DE2           ADD      R1,SP,#+56
   \   00003E5C   1C008DE2           ADD      R0,SP,#+28
   \   00003E60   ........           _BLF     `??operator+`,`??operator+??rA`
   \   00003E64   0420A0E1           MOV      R2,R4
   \   00003E68   1C108DE2           ADD      R1,SP,#+28
   \   00003E6C   0D00A0E1           MOV      R0,SP
   \   00003E70   ........           _BLF     `??operator+`,`??operator+??rA`
   \   00003E74   0530A0E1           MOV      R3,R5
   \   00003E78   0020A0E3           MOV      R2,#+0
   \   00003E7C   0D10A0E1           MOV      R1,SP
   \   00003E80   54008DE2           ADD      R0,SP,#+84
   \   00003E84   ........           _BLF     ??append,??append??rA
   \   00003E88   0020A0E3           MOV      R2,#+0
   \   00003E8C   0110A0E3           MOV      R1,#+1
   \   00003E90   0D00A0E1           MOV      R0,SP
   \   00003E94   ........           _BLF     ??_Tidy,??_Tidy??rA
   \   00003E98   0020A0E3           MOV      R2,#+0
   \   00003E9C   0110A0E3           MOV      R1,#+1
   \   00003EA0   1C008DE2           ADD      R0,SP,#+28
   \   00003EA4   ........           _BLF     ??_Tidy,??_Tidy??rA
   \   00003EA8   0020A0E3           MOV      R2,#+0
   \   00003EAC   0110A0E3           MOV      R1,#+1
   \   00003EB0   8C008DE2           ADD      R0,SP,#+140
   \   00003EB4   ........           _BLF     ??_Tidy,??_Tidy??rA
   \   00003EB8   0020A0E3           MOV      R2,#+0
   \   00003EBC   0110A0E3           MOV      R1,#+1
   \   00003EC0   38008DE2           ADD      R0,SP,#+56
   \   00003EC4   ........           _BLF     ??_Tidy,??_Tidy??rA
   \   00003EC8   0020A0E3           MOV      R2,#+0
   \   00003ECC   0110A0E3           MOV      R1,#+1
   \   00003ED0   70008DE2           ADD      R0,SP,#+112
   \   00003ED4   ........           _BLF     ??_Tidy,??_Tidy??rA
    423              }
    424          
    425          
    426              //if ( L_English    ) LocalString +=TabStr1+KeyWord(C_L_ENGLISH   )+CrLfStr;
    427              if (L_Norwegian)  LocalString += TabStr1 + KeyWord(C_L_NORWEGIAN) + CrLfStr;
   \                     ??WriteConfigToFile_40:
   \   00003ED8   7001D7E5           LDRB     R0,[R7, #+368]
   \   00003EDC   000050E3           CMP      R0,#+0
   \   00003EE0   1C00000A           BEQ      ??WriteConfigToFile_41
   \   00003EE4   E310A0E3           MOV      R1,#+227
   \   00003EE8   401E81E3           ORR      R1,R1,#0x400
   \   00003EEC   1C008DE2           ADD      R0,SP,#+28
   \   00003EF0   ........           _BLF     ??KeyWord,??KeyWord??rA
   \   00003EF4   1C208DE2           ADD      R2,SP,#+28
   \   00003EF8   0610A0E1           MOV      R1,R6
   \   00003EFC   38008DE2           ADD      R0,SP,#+56
   \   00003F00   ........           _BLF     `??operator+`,`??operator+??rA`
   \   00003F04   0420A0E1           MOV      R2,R4
   \   00003F08   38108DE2           ADD      R1,SP,#+56
   \   00003F0C   0D00A0E1           MOV      R0,SP
   \   00003F10   ........           _BLF     `??operator+`,`??operator+??rA`
   \   00003F14   0530A0E1           MOV      R3,R5
   \   00003F18   0020A0E3           MOV      R2,#+0
   \   00003F1C   0D10A0E1           MOV      R1,SP
   \   00003F20   54008DE2           ADD      R0,SP,#+84
   \   00003F24   ........           _BLF     ??append,??append??rA
   \   00003F28   0020A0E3           MOV      R2,#+0
   \   00003F2C   0110A0E3           MOV      R1,#+1
   \   00003F30   0D00A0E1           MOV      R0,SP
   \   00003F34   ........           _BLF     ??_Tidy,??_Tidy??rA
   \   00003F38   0020A0E3           MOV      R2,#+0
   \   00003F3C   0110A0E3           MOV      R1,#+1
   \   00003F40   38008DE2           ADD      R0,SP,#+56
   \   00003F44   ........           _BLF     ??_Tidy,??_Tidy??rA
   \   00003F48   0020A0E3           MOV      R2,#+0
   \   00003F4C   0110A0E3           MOV      R1,#+1
   \   00003F50   1C008DE2           ADD      R0,SP,#+28
   \   00003F54   ........           _BLF     ??_Tidy,??_Tidy??rA
    428              if (L_German)     LocalString += TabStr1 + KeyWord(C_L_GERMAN) + CrLfStr;
   \                     ??WriteConfigToFile_41:
   \   00003F58   7101D7E5           LDRB     R0,[R7, #+369]
   \   00003F5C   000050E3           CMP      R0,#+0
   \   00003F60   1C00000A           BEQ      ??WriteConfigToFile_42
   \   00003F64   E410A0E3           MOV      R1,#+228
   \   00003F68   401E81E3           ORR      R1,R1,#0x400
   \   00003F6C   38008DE2           ADD      R0,SP,#+56
   \   00003F70   ........           _BLF     ??KeyWord,??KeyWord??rA
   \   00003F74   38208DE2           ADD      R2,SP,#+56
   \   00003F78   0610A0E1           MOV      R1,R6
   \   00003F7C   1C008DE2           ADD      R0,SP,#+28
   \   00003F80   ........           _BLF     `??operator+`,`??operator+??rA`
   \   00003F84   0420A0E1           MOV      R2,R4
   \   00003F88   1C108DE2           ADD      R1,SP,#+28
   \   00003F8C   0D00A0E1           MOV      R0,SP
   \   00003F90   ........           _BLF     `??operator+`,`??operator+??rA`
   \   00003F94   0530A0E1           MOV      R3,R5
   \   00003F98   0020A0E3           MOV      R2,#+0
   \   00003F9C   0D10A0E1           MOV      R1,SP
   \   00003FA0   54008DE2           ADD      R0,SP,#+84
   \   00003FA4   ........           _BLF     ??append,??append??rA
   \   00003FA8   0020A0E3           MOV      R2,#+0
   \   00003FAC   0110A0E3           MOV      R1,#+1
   \   00003FB0   0D00A0E1           MOV      R0,SP
   \   00003FB4   ........           _BLF     ??_Tidy,??_Tidy??rA
   \   00003FB8   0020A0E3           MOV      R2,#+0
   \   00003FBC   0110A0E3           MOV      R1,#+1
   \   00003FC0   1C008DE2           ADD      R0,SP,#+28
   \   00003FC4   ........           _BLF     ??_Tidy,??_Tidy??rA
   \   00003FC8   0020A0E3           MOV      R2,#+0
   \   00003FCC   0110A0E3           MOV      R1,#+1
   \   00003FD0   38008DE2           ADD      R0,SP,#+56
   \   00003FD4   ........           _BLF     ??_Tidy,??_Tidy??rA
    429              if (L_Dutch)      LocalString += TabStr1 + KeyWord(C_L_DUTCH) + CrLfStr;
   \                     ??WriteConfigToFile_42:
   \   00003FD8   7501D7E5           LDRB     R0,[R7, #+373]
   \   00003FDC   000050E3           CMP      R0,#+0
   \   00003FE0   1C00000A           BEQ      ??WriteConfigToFile_43
   \   00003FE4   E510A0E3           MOV      R1,#+229
   \   00003FE8   401E81E3           ORR      R1,R1,#0x400
   \   00003FEC   1C008DE2           ADD      R0,SP,#+28
   \   00003FF0   ........           _BLF     ??KeyWord,??KeyWord??rA
   \   00003FF4   1C208DE2           ADD      R2,SP,#+28
   \   00003FF8   0610A0E1           MOV      R1,R6
   \   00003FFC   38008DE2           ADD      R0,SP,#+56
   \   00004000   ........           _BLF     `??operator+`,`??operator+??rA`
   \   00004004   0420A0E1           MOV      R2,R4
   \   00004008   38108DE2           ADD      R1,SP,#+56
   \   0000400C   0D00A0E1           MOV      R0,SP
   \   00004010   ........           _BLF     `??operator+`,`??operator+??rA`
   \   00004014   0530A0E1           MOV      R3,R5
   \   00004018   0020A0E3           MOV      R2,#+0
   \   0000401C   0D10A0E1           MOV      R1,SP
   \   00004020   54008DE2           ADD      R0,SP,#+84
   \   00004024   ........           _BLF     ??append,??append??rA
   \   00004028   0020A0E3           MOV      R2,#+0
   \   0000402C   0110A0E3           MOV      R1,#+1
   \   00004030   0D00A0E1           MOV      R0,SP
   \   00004034   ........           _BLF     ??_Tidy,??_Tidy??rA
   \   00004038   0020A0E3           MOV      R2,#+0
   \   0000403C   0110A0E3           MOV      R1,#+1
   \   00004040   38008DE2           ADD      R0,SP,#+56
   \   00004044   ........           _BLF     ??_Tidy,??_Tidy??rA
   \   00004048   0020A0E3           MOV      R2,#+0
   \   0000404C   0110A0E3           MOV      R1,#+1
   \   00004050   1C008DE2           ADD      R0,SP,#+28
   \   00004054   ........           _BLF     ??_Tidy,??_Tidy??rA
    430              if (L_French)     LocalString += TabStr1 + KeyWord(C_L_FRENCH) + CrLfStr;
   \                     ??WriteConfigToFile_43:
   \   00004058   7201D7E5           LDRB     R0,[R7, #+370]
   \   0000405C   000050E3           CMP      R0,#+0
   \   00004060   1C00000A           BEQ      ??WriteConfigToFile_44
   \   00004064   E610A0E3           MOV      R1,#+230
   \   00004068   401E81E3           ORR      R1,R1,#0x400
   \   0000406C   38008DE2           ADD      R0,SP,#+56
   \   00004070   ........           _BLF     ??KeyWord,??KeyWord??rA
   \   00004074   38208DE2           ADD      R2,SP,#+56
   \   00004078   0610A0E1           MOV      R1,R6
   \   0000407C   1C008DE2           ADD      R0,SP,#+28
   \   00004080   ........           _BLF     `??operator+`,`??operator+??rA`
   \   00004084   0420A0E1           MOV      R2,R4
   \   00004088   1C108DE2           ADD      R1,SP,#+28
   \   0000408C   0D00A0E1           MOV      R0,SP
   \   00004090   ........           _BLF     `??operator+`,`??operator+??rA`
   \   00004094   0530A0E1           MOV      R3,R5
   \   00004098   0020A0E3           MOV      R2,#+0
   \   0000409C   0D10A0E1           MOV      R1,SP
   \   000040A0   54008DE2           ADD      R0,SP,#+84
   \   000040A4   ........           _BLF     ??append,??append??rA
   \   000040A8   0020A0E3           MOV      R2,#+0
   \   000040AC   0110A0E3           MOV      R1,#+1
   \   000040B0   0D00A0E1           MOV      R0,SP
   \   000040B4   ........           _BLF     ??_Tidy,??_Tidy??rA
   \   000040B8   0020A0E3           MOV      R2,#+0
   \   000040BC   0110A0E3           MOV      R1,#+1
   \   000040C0   1C008DE2           ADD      R0,SP,#+28
   \   000040C4   ........           _BLF     ??_Tidy,??_Tidy??rA
   \   000040C8   0020A0E3           MOV      R2,#+0
   \   000040CC   0110A0E3           MOV      R1,#+1
   \   000040D0   38008DE2           ADD      R0,SP,#+56
   \   000040D4   ........           _BLF     ??_Tidy,??_Tidy??rA
    431              if (L_Spanish)    LocalString += TabStr1 + KeyWord(C_L_SPANISH) + CrLfStr;
   \                     ??WriteConfigToFile_44:
   \   000040D8   7301D7E5           LDRB     R0,[R7, #+371]
   \   000040DC   000050E3           CMP      R0,#+0
   \   000040E0   1C00000A           BEQ      ??WriteConfigToFile_45
   \   000040E4   E710A0E3           MOV      R1,#+231
   \   000040E8   401E81E3           ORR      R1,R1,#0x400
   \   000040EC   1C008DE2           ADD      R0,SP,#+28
   \   000040F0   ........           _BLF     ??KeyWord,??KeyWord??rA
   \   000040F4   1C208DE2           ADD      R2,SP,#+28
   \   000040F8   0610A0E1           MOV      R1,R6
   \   000040FC   38008DE2           ADD      R0,SP,#+56
   \   00004100   ........           _BLF     `??operator+`,`??operator+??rA`
   \   00004104   0420A0E1           MOV      R2,R4
   \   00004108   38108DE2           ADD      R1,SP,#+56
   \   0000410C   0D00A0E1           MOV      R0,SP
   \   00004110   ........           _BLF     `??operator+`,`??operator+??rA`
   \   00004114   0530A0E1           MOV      R3,R5
   \   00004118   0020A0E3           MOV      R2,#+0
   \   0000411C   0D10A0E1           MOV      R1,SP
   \   00004120   54008DE2           ADD      R0,SP,#+84
   \   00004124   ........           _BLF     ??append,??append??rA
   \   00004128   0020A0E3           MOV      R2,#+0
   \   0000412C   0110A0E3           MOV      R1,#+1
   \   00004130   0D00A0E1           MOV      R0,SP
   \   00004134   ........           _BLF     ??_Tidy,??_Tidy??rA
   \   00004138   0020A0E3           MOV      R2,#+0
   \   0000413C   0110A0E3           MOV      R1,#+1
   \   00004140   38008DE2           ADD      R0,SP,#+56
   \   00004144   ........           _BLF     ??_Tidy,??_Tidy??rA
   \   00004148   0020A0E3           MOV      R2,#+0
   \   0000414C   0110A0E3           MOV      R1,#+1
   \   00004150   1C008DE2           ADD      R0,SP,#+28
   \   00004154   ........           _BLF     ??_Tidy,??_Tidy??rA
    432              if (L_Portuguese) LocalString += TabStr1 + KeyWord(C_L_PORTUGUESE) + CrLfStr;
   \                     ??WriteConfigToFile_45:
   \   00004158   7401D7E5           LDRB     R0,[R7, #+372]
   \   0000415C   000050E3           CMP      R0,#+0
   \   00004160   1C00000A           BEQ      ??WriteConfigToFile_46
   \   00004164   E810A0E3           MOV      R1,#+232
   \   00004168   401E81E3           ORR      R1,R1,#0x400
   \   0000416C   38008DE2           ADD      R0,SP,#+56
   \   00004170   ........           _BLF     ??KeyWord,??KeyWord??rA
   \   00004174   38208DE2           ADD      R2,SP,#+56
   \   00004178   0610A0E1           MOV      R1,R6
   \   0000417C   1C008DE2           ADD      R0,SP,#+28
   \   00004180   ........           _BLF     `??operator+`,`??operator+??rA`
   \   00004184   0420A0E1           MOV      R2,R4
   \   00004188   1C108DE2           ADD      R1,SP,#+28
   \   0000418C   0D00A0E1           MOV      R0,SP
   \   00004190   ........           _BLF     `??operator+`,`??operator+??rA`
   \   00004194   0530A0E1           MOV      R3,R5
   \   00004198   0020A0E3           MOV      R2,#+0
   \   0000419C   0D10A0E1           MOV      R1,SP
   \   000041A0   54008DE2           ADD      R0,SP,#+84
   \   000041A4   ........           _BLF     ??append,??append??rA
   \   000041A8   0020A0E3           MOV      R2,#+0
   \   000041AC   0110A0E3           MOV      R1,#+1
   \   000041B0   0D00A0E1           MOV      R0,SP
   \   000041B4   ........           _BLF     ??_Tidy,??_Tidy??rA
   \   000041B8   0020A0E3           MOV      R2,#+0
   \   000041BC   0110A0E3           MOV      R1,#+1
   \   000041C0   1C008DE2           ADD      R0,SP,#+28
   \   000041C4   ........           _BLF     ??_Tidy,??_Tidy??rA
   \   000041C8   0020A0E3           MOV      R2,#+0
   \   000041CC   0110A0E3           MOV      R1,#+1
   \   000041D0   38008DE2           ADD      R0,SP,#+56
   \   000041D4   ........           _BLF     ??_Tidy,??_Tidy??rA
    433              if (UserUnits[VOLUME_UNIT] != U_METER3) {
   \                     ??WriteConfigToFile_46:
   \   000041D8   080097E5           LDR      R0,[R7, #+8]
   \   000041DC   F38F8BE2           ADD      R8,R11,#+972
   \   000041E0   000050E3           CMP      R0,#+0
   \   000041E4   2A00000A           BEQ      ??WriteConfigToFile_47
    434                  LocalString += TabStr1 + KeyWord(C_UNIT_VOLUME) + KeyWord(UserUnits[VOLUME_UNIT] + C_U_METER3) + CrLfStr;
   \   000041E8   001088E0           ADD      R1,R8,R0
   \   000041EC   70008DE2           ADD      R0,SP,#+112
   \   000041F0   ........           _BLF     ??KeyWord,??KeyWord??rA
   \   000041F4   251048E2           SUB      R1,R8,#+37
   \   000041F8   8C008DE2           ADD      R0,SP,#+140
   \   000041FC   ........           _BLF     ??KeyWord,??KeyWord??rA
   \   00004200   8C208DE2           ADD      R2,SP,#+140
   \   00004204   0610A0E1           MOV      R1,R6
   \   00004208   1C008DE2           ADD      R0,SP,#+28
   \   0000420C   ........           _BLF     `??operator+`,`??operator+??rA`
   \   00004210   70208DE2           ADD      R2,SP,#+112
   \   00004214   1C108DE2           ADD      R1,SP,#+28
   \   00004218   38008DE2           ADD      R0,SP,#+56
   \   0000421C   ........           _BLF     `??operator+`,`??operator+??rA`
   \   00004220   0420A0E1           MOV      R2,R4
   \   00004224   38108DE2           ADD      R1,SP,#+56
   \   00004228   0D00A0E1           MOV      R0,SP
   \   0000422C   ........           _BLF     `??operator+`,`??operator+??rA`
   \   00004230   0530A0E1           MOV      R3,R5
   \   00004234   0020A0E3           MOV      R2,#+0
   \   00004238   0D10A0E1           MOV      R1,SP
   \   0000423C   54008DE2           ADD      R0,SP,#+84
   \   00004240   ........           _BLF     ??append,??append??rA
   \   00004244   0020A0E3           MOV      R2,#+0
   \   00004248   0110A0E3           MOV      R1,#+1
   \   0000424C   0D00A0E1           MOV      R0,SP
   \   00004250   ........           _BLF     ??_Tidy,??_Tidy??rA
   \   00004254   0020A0E3           MOV      R2,#+0
   \   00004258   0110A0E3           MOV      R1,#+1
   \   0000425C   38008DE2           ADD      R0,SP,#+56
   \   00004260   ........           _BLF     ??_Tidy,??_Tidy??rA
   \   00004264   0020A0E3           MOV      R2,#+0
   \   00004268   0110A0E3           MOV      R1,#+1
   \   0000426C   70008DE2           ADD      R0,SP,#+112
   \   00004270   ........           _BLF     ??_Tidy,??_Tidy??rA
   \   00004274   0020A0E3           MOV      R2,#+0
   \   00004278   0110A0E3           MOV      R1,#+1
   \   0000427C   1C008DE2           ADD      R0,SP,#+28
   \   00004280   ........           _BLF     ??_Tidy,??_Tidy??rA
   \   00004284   0020A0E3           MOV      R2,#+0
   \   00004288   0110A0E3           MOV      R1,#+1
   \   0000428C   8C008DE2           ADD      R0,SP,#+140
   \   00004290   ........           _BLF     ??_Tidy,??_Tidy??rA
    435              }
    436              if (UserUnits[LENGTH_UNIT] != U_METER) {
   \                     ??WriteConfigToFile_47:
   \   00004294   040097E5           LDR      R0,[R7, #+4]
   \   00004298   000050E3           CMP      R0,#+0
   \   0000429C   2A00000A           BEQ      ??WriteConfigToFile_48
    437                  LocalString += TabStr1 + KeyWord(C_UNIT_LENGTH) + KeyWord(UserUnits[LENGTH_UNIT] + C_U_METER) + CrLfStr;
   \   000042A0   001088E0           ADD      R1,R8,R0
   \   000042A4   8C008DE2           ADD      R0,SP,#+140
   \   000042A8   ........           _BLF     ??KeyWord,??KeyWord??rA
   \   000042AC   261048E2           SUB      R1,R8,#+38
   \   000042B0   70008DE2           ADD      R0,SP,#+112
   \   000042B4   ........           _BLF     ??KeyWord,??KeyWord??rA
   \   000042B8   70208DE2           ADD      R2,SP,#+112
   \   000042BC   0610A0E1           MOV      R1,R6
   \   000042C0   38008DE2           ADD      R0,SP,#+56
   \   000042C4   ........           _BLF     `??operator+`,`??operator+??rA`
   \   000042C8   8C208DE2           ADD      R2,SP,#+140
   \   000042CC   38108DE2           ADD      R1,SP,#+56
   \   000042D0   1C008DE2           ADD      R0,SP,#+28
   \   000042D4   ........           _BLF     `??operator+`,`??operator+??rA`
   \   000042D8   0420A0E1           MOV      R2,R4
   \   000042DC   1C108DE2           ADD      R1,SP,#+28
   \   000042E0   0D00A0E1           MOV      R0,SP
   \   000042E4   ........           _BLF     `??operator+`,`??operator+??rA`
   \   000042E8   0530A0E1           MOV      R3,R5
   \   000042EC   0020A0E3           MOV      R2,#+0
   \   000042F0   0D10A0E1           MOV      R1,SP
   \   000042F4   54008DE2           ADD      R0,SP,#+84
   \   000042F8   ........           _BLF     ??append,??append??rA
   \   000042FC   0020A0E3           MOV      R2,#+0
   \   00004300   0110A0E3           MOV      R1,#+1
   \   00004304   0D00A0E1           MOV      R0,SP
   \   00004308   ........           _BLF     ??_Tidy,??_Tidy??rA
   \   0000430C   0020A0E3           MOV      R2,#+0
   \   00004310   0110A0E3           MOV      R1,#+1
   \   00004314   1C008DE2           ADD      R0,SP,#+28
   \   00004318   ........           _BLF     ??_Tidy,??_Tidy??rA
   \   0000431C   0020A0E3           MOV      R2,#+0
   \   00004320   0110A0E3           MOV      R1,#+1
   \   00004324   8C008DE2           ADD      R0,SP,#+140
   \   00004328   ........           _BLF     ??_Tidy,??_Tidy??rA
   \   0000432C   0020A0E3           MOV      R2,#+0
   \   00004330   0110A0E3           MOV      R1,#+1
   \   00004334   38008DE2           ADD      R0,SP,#+56
   \   00004338   ........           _BLF     ??_Tidy,??_Tidy??rA
   \   0000433C   0020A0E3           MOV      R2,#+0
   \   00004340   0110A0E3           MOV      R1,#+1
   \   00004344   70008DE2           ADD      R0,SP,#+112
   \   00004348   ........           _BLF     ??_Tidy,??_Tidy??rA
    438              }
    439              if (UserUnits[PRESSURE_UNIT1] != U_MBAR) {
   \                     ??WriteConfigToFile_48:
   \   0000434C   180097E5           LDR      R0,[R7, #+24]
   \   00004350   219048E2           SUB      R9,R8,#+33
   \   00004354   020050E3           CMP      R0,#+2
   \   00004358   2A00000A           BEQ      ??WriteConfigToFile_49
    440                  LocalString += TabStr1 + KeyWord(C_UNIT_PRESSURE1) + KeyWord(UserUnits[PRESSURE_UNIT1] + C_U_METERH2O) + CrLfStr;
   \   0000435C   001088E0           ADD      R1,R8,R0
   \   00004360   8C008DE2           ADD      R0,SP,#+140
   \   00004364   ........           _BLF     ??KeyWord,??KeyWord??rA
   \   00004368   0910A0E1           MOV      R1,R9
   \   0000436C   70008DE2           ADD      R0,SP,#+112
   \   00004370   ........           _BLF     ??KeyWord,??KeyWord??rA
   \   00004374   70208DE2           ADD      R2,SP,#+112
   \   00004378   0610A0E1           MOV      R1,R6
   \   0000437C   1C008DE2           ADD      R0,SP,#+28
   \   00004380   ........           _BLF     `??operator+`,`??operator+??rA`
   \   00004384   8C208DE2           ADD      R2,SP,#+140
   \   00004388   1C108DE2           ADD      R1,SP,#+28
   \   0000438C   38008DE2           ADD      R0,SP,#+56
   \   00004390   ........           _BLF     `??operator+`,`??operator+??rA`
   \   00004394   0420A0E1           MOV      R2,R4
   \   00004398   38108DE2           ADD      R1,SP,#+56
   \   0000439C   0D00A0E1           MOV      R0,SP
   \   000043A0   ........           _BLF     `??operator+`,`??operator+??rA`
   \   000043A4   0530A0E1           MOV      R3,R5
   \   000043A8   0020A0E3           MOV      R2,#+0
   \   000043AC   0D10A0E1           MOV      R1,SP
   \   000043B0   54008DE2           ADD      R0,SP,#+84
   \   000043B4   ........           _BLF     ??append,??append??rA
   \   000043B8   0020A0E3           MOV      R2,#+0
   \   000043BC   0110A0E3           MOV      R1,#+1
   \   000043C0   0D00A0E1           MOV      R0,SP
   \   000043C4   ........           _BLF     ??_Tidy,??_Tidy??rA
   \   000043C8   0020A0E3           MOV      R2,#+0
   \   000043CC   0110A0E3           MOV      R1,#+1
   \   000043D0   38008DE2           ADD      R0,SP,#+56
   \   000043D4   ........           _BLF     ??_Tidy,??_Tidy??rA
   \   000043D8   0020A0E3           MOV      R2,#+0
   \   000043DC   0110A0E3           MOV      R1,#+1
   \   000043E0   8C008DE2           ADD      R0,SP,#+140
   \   000043E4   ........           _BLF     ??_Tidy,??_Tidy??rA
   \   000043E8   0020A0E3           MOV      R2,#+0
   \   000043EC   0110A0E3           MOV      R1,#+1
   \   000043F0   1C008DE2           ADD      R0,SP,#+28
   \   000043F4   ........           _BLF     ??_Tidy,??_Tidy??rA
   \   000043F8   0020A0E3           MOV      R2,#+0
   \   000043FC   0110A0E3           MOV      R1,#+1
   \   00004400   70008DE2           ADD      R0,SP,#+112
   \   00004404   ........           _BLF     ??_Tidy,??_Tidy??rA
    441              }
    442              if (UserUnits[PRESSURE_UNIT2] != U_MMH2O) {
   \                     ??WriteConfigToFile_49:
   \   00004408   1C0097E5           LDR      R0,[R7, #+28]
   \   0000440C   010050E3           CMP      R0,#+1
   \   00004410   3100000A           BEQ      ??WriteConfigToFile_50
    443                  LocalString += TabStr1 + KeyWord(C_UNIT_PRESSURE1) + KeyWord(UserUnits[PRESSURE_UNIT2] + C_U_METERH2O) + CrLfStr;
   \   00004414   001088E0           ADD      R1,R8,R0
   \   00004418   70008DE2           ADD      R0,SP,#+112
   \   0000441C   ........           _BLF     ??KeyWord,??KeyWord??rA
   \   00004420   0910A0E1           MOV      R1,R9
   \   00004424   8C008DE2           ADD      R0,SP,#+140
   \   00004428   ........           _BLF     ??KeyWord,??KeyWord??rA
   \   0000442C   8C208DE2           ADD      R2,SP,#+140
   \   00004430   0610A0E1           MOV      R1,R6
   \   00004434   38008DE2           ADD      R0,SP,#+56
   \   00004438   ........           _BLF     `??operator+`,`??operator+??rA`
   \   0000443C   050000EA           B        ??WriteConfigToFile_51
   \                     ??WriteConfigToFile_28:
   \   00004440   295C0F3D           DC32     0x3d0f5c29
   \   00004444   9A99993E           DC32     0x3e99999a
   \   00004448   CDCCCC3D           DC32     0x3dcccccd
   \   0000444C   7B14AE47           DC32     0x47ae147b
   \   00004450   E17A943F           DC32     0x3f947ae1
   \   00004454   ........           DC32     TabStr2
   \                     ??WriteConfigToFile_51:
   \   00004458   70208DE2           ADD      R2,SP,#+112
   \   0000445C   38108DE2           ADD      R1,SP,#+56
   \   00004460   1C008DE2           ADD      R0,SP,#+28
   \   00004464   ........           _BLF     `??operator+`,`??operator+??rA`
   \   00004468   0420A0E1           MOV      R2,R4
   \   0000446C   1C108DE2           ADD      R1,SP,#+28
   \   00004470   0D00A0E1           MOV      R0,SP
   \   00004474   ........           _BLF     `??operator+`,`??operator+??rA`
   \   00004478   0530A0E1           MOV      R3,R5
   \   0000447C   0020A0E3           MOV      R2,#+0
   \   00004480   0D10A0E1           MOV      R1,SP
   \   00004484   54008DE2           ADD      R0,SP,#+84
   \   00004488   ........           _BLF     ??append,??append??rA
   \   0000448C   0020A0E3           MOV      R2,#+0
   \   00004490   0110A0E3           MOV      R1,#+1
   \   00004494   0D00A0E1           MOV      R0,SP
   \   00004498   ........           _BLF     ??_Tidy,??_Tidy??rA
   \   0000449C   0020A0E3           MOV      R2,#+0
   \   000044A0   0110A0E3           MOV      R1,#+1
   \   000044A4   1C008DE2           ADD      R0,SP,#+28
   \   000044A8   ........           _BLF     ??_Tidy,??_Tidy??rA
   \   000044AC   0020A0E3           MOV      R2,#+0
   \   000044B0   0110A0E3           MOV      R1,#+1
   \   000044B4   70008DE2           ADD      R0,SP,#+112
   \   000044B8   ........           _BLF     ??_Tidy,??_Tidy??rA
   \   000044BC   0020A0E3           MOV      R2,#+0
   \   000044C0   0110A0E3           MOV      R1,#+1
   \   000044C4   38008DE2           ADD      R0,SP,#+56
   \   000044C8   ........           _BLF     ??_Tidy,??_Tidy??rA
   \   000044CC   0020A0E3           MOV      R2,#+0
   \   000044D0   0110A0E3           MOV      R1,#+1
   \   000044D4   8C008DE2           ADD      R0,SP,#+140
   \   000044D8   ........           _BLF     ??_Tidy,??_Tidy??rA
    444              }
    445              if (UserUnits[PRESSURE_UNIT3] != U_BAR) {
   \                     ??WriteConfigToFile_50:
   \   000044DC   200097E5           LDR      R0,[R7, #+32]
   \   000044E0   030050E3           CMP      R0,#+3
   \   000044E4   2A00000A           BEQ      ??WriteConfigToFile_52
    446                  LocalString += TabStr1 + KeyWord(C_UNIT_PRESSURE1) + KeyWord(UserUnits[PRESSURE_UNIT3] + C_U_METERH2O) + CrLfStr;
   \   000044E8   001088E0           ADD      R1,R8,R0
   \   000044EC   8C008DE2           ADD      R0,SP,#+140
   \   000044F0   ........           _BLF     ??KeyWord,??KeyWord??rA
   \   000044F4   0910A0E1           MOV      R1,R9
   \   000044F8   70008DE2           ADD      R0,SP,#+112
   \   000044FC   ........           _BLF     ??KeyWord,??KeyWord??rA
   \   00004500   70208DE2           ADD      R2,SP,#+112
   \   00004504   0610A0E1           MOV      R1,R6
   \   00004508   1C008DE2           ADD      R0,SP,#+28
   \   0000450C   ........           _BLF     `??operator+`,`??operator+??rA`
   \   00004510   8C208DE2           ADD      R2,SP,#+140
   \   00004514   1C108DE2           ADD      R1,SP,#+28
   \   00004518   38008DE2           ADD      R0,SP,#+56
   \   0000451C   ........           _BLF     `??operator+`,`??operator+??rA`
   \   00004520   0420A0E1           MOV      R2,R4
   \   00004524   38108DE2           ADD      R1,SP,#+56
   \   00004528   0D00A0E1           MOV      R0,SP
   \   0000452C   ........           _BLF     `??operator+`,`??operator+??rA`
   \   00004530   0530A0E1           MOV      R3,R5
   \   00004534   0020A0E3           MOV      R2,#+0
   \   00004538   0D10A0E1           MOV      R1,SP
   \   0000453C   54008DE2           ADD      R0,SP,#+84
   \   00004540   ........           _BLF     ??append,??append??rA
   \   00004544   0020A0E3           MOV      R2,#+0
   \   00004548   0110A0E3           MOV      R1,#+1
   \   0000454C   0D00A0E1           MOV      R0,SP
   \   00004550   ........           _BLF     ??_Tidy,??_Tidy??rA
   \   00004554   0020A0E3           MOV      R2,#+0
   \   00004558   0110A0E3           MOV      R1,#+1
   \   0000455C   38008DE2           ADD      R0,SP,#+56
   \   00004560   ........           _BLF     ??_Tidy,??_Tidy??rA
   \   00004564   0020A0E3           MOV      R2,#+0
   \   00004568   0110A0E3           MOV      R1,#+1
   \   0000456C   8C008DE2           ADD      R0,SP,#+140
   \   00004570   ........           _BLF     ??_Tidy,??_Tidy??rA
   \   00004574   0020A0E3           MOV      R2,#+0
   \   00004578   0110A0E3           MOV      R1,#+1
   \   0000457C   1C008DE2           ADD      R0,SP,#+28
   \   00004580   ........           _BLF     ??_Tidy,??_Tidy??rA
   \   00004584   0020A0E3           MOV      R2,#+0
   \   00004588   0110A0E3           MOV      R1,#+1
   \   0000458C   70008DE2           ADD      R0,SP,#+112
   \   00004590   ........           _BLF     ??_Tidy,??_Tidy??rA
    447              }
    448              LocalString += TabStr1 + KeyWord(C_PRO_NUMBER_OF_HANHELD) + (AnsiString)NumberOfHandheldUnits + CrLfStr;
   \                     ??WriteConfigToFile_52:
   \   00004594   341197E5           LDR      R1,[R7, #+308]
   \   00004598   8A0F8DE2           ADD      R0,SP,#+552
   \   0000459C   400D80E2           ADD      R0,R0,#+4096
   \   000045A0   ........           _BLF     ??AnsiString_2,??AnsiString??rA_2
   \   000045A4   0080A0E1           MOV      R8,R0
   \   000045A8   AA10A0E3           MOV      R1,#+170
   \   000045AC   401E81E3           ORR      R1,R1,#0x400
   \   000045B0   670F8DE2           ADD      R0,SP,#+412
   \   000045B4   400D80E2           ADD      R0,R0,#+4096
   \   000045B8   ........           _BLF     ??KeyWord,??KeyWord??rA
   \   000045BC   672F8DE2           ADD      R2,SP,#+412
   \   000045C0   402D82E2           ADD      R2,R2,#+4096
   \   000045C4   0610A0E1           MOV      R1,R6
   \   000045C8   460D8DE2           ADD      R0,SP,#+4480
   \   000045CC   ........           _BLF     `??operator+`,`??operator+??rA`
   \   000045D0   0820A0E1           MOV      R2,R8
   \   000045D4   461D8DE2           ADD      R1,SP,#+4480
   \   000045D8   590F8DE2           ADD      R0,SP,#+356
   \   000045DC   400D80E2           ADD      R0,R0,#+4096
   \   000045E0   ........           _BLF     `??operator+`,`??operator+??rA`
   \   000045E4   0420A0E1           MOV      R2,R4
   \   000045E8   591F8DE2           ADD      R1,SP,#+356
   \   000045EC   401D81E2           ADD      R1,R1,#+4096
   \   000045F0   520F8DE2           ADD      R0,SP,#+328
   \   000045F4   400D80E2           ADD      R0,R0,#+4096
   \   000045F8   ........           _BLF     `??operator+`,`??operator+??rA`
   \   000045FC   0530A0E1           MOV      R3,R5
   \   00004600   0020A0E3           MOV      R2,#+0
   \   00004604   521F8DE2           ADD      R1,SP,#+328
   \   00004608   401D81E2           ADD      R1,R1,#+4096
   \   0000460C   54008DE2           ADD      R0,SP,#+84
   \   00004610   ........           _BLF     ??append,??append??rA
   \   00004614   0020A0E3           MOV      R2,#+0
   \   00004618   0110A0E3           MOV      R1,#+1
   \   0000461C   520F8DE2           ADD      R0,SP,#+328
   \   00004620   400D80E2           ADD      R0,R0,#+4096
   \   00004624   ........           _BLF     ??_Tidy,??_Tidy??rA
   \   00004628   0020A0E3           MOV      R2,#+0
   \   0000462C   0110A0E3           MOV      R1,#+1
   \   00004630   590F8DE2           ADD      R0,SP,#+356
   \   00004634   400D80E2           ADD      R0,R0,#+4096
   \   00004638   ........           _BLF     ??_Tidy,??_Tidy??rA
   \   0000463C   0020A0E3           MOV      R2,#+0
   \   00004640   0110A0E3           MOV      R1,#+1
   \   00004644   8A0F8DE2           ADD      R0,SP,#+552
   \   00004648   400D80E2           ADD      R0,R0,#+4096
   \   0000464C   ........           _BLF     ??_Tidy,??_Tidy??rA
   \   00004650   0020A0E3           MOV      R2,#+0
   \   00004654   0110A0E3           MOV      R1,#+1
   \   00004658   460D8DE2           ADD      R0,SP,#+4480
   \   0000465C   ........           _BLF     ??_Tidy,??_Tidy??rA
   \   00004660   0020A0E3           MOV      R2,#+0
   \   00004664   0110A0E3           MOV      R1,#+1
   \   00004668   670F8DE2           ADD      R0,SP,#+412
   \   0000466C   400D80E2           ADD      R0,R0,#+4096
   \   00004670   ........           _BLF     ??_Tidy,??_Tidy??rA
    449          
    450              if (SimulateIO)   LocalString += TabStr1 + KeyWord(C_SD_SIMULATE_IO) + CrLfStr;
   \   00004674   7701D7E5           LDRB     R0,[R7, #+375]
   \   00004678   000050E3           CMP      R0,#+0
   \   0000467C   1C00000A           BEQ      ??WriteConfigToFile_53
   \   00004680   F910A0E3           MOV      R1,#+249
   \   00004684   801D81E3           ORR      R1,R1,#0x2000
   \   00004688   38008DE2           ADD      R0,SP,#+56
   \   0000468C   ........           _BLF     ??KeyWord,??KeyWord??rA
   \   00004690   38208DE2           ADD      R2,SP,#+56
   \   00004694   0610A0E1           MOV      R1,R6
   \   00004698   1C008DE2           ADD      R0,SP,#+28
   \   0000469C   ........           _BLF     `??operator+`,`??operator+??rA`
   \   000046A0   0420A0E1           MOV      R2,R4
   \   000046A4   1C108DE2           ADD      R1,SP,#+28
   \   000046A8   0D00A0E1           MOV      R0,SP
   \   000046AC   ........           _BLF     `??operator+`,`??operator+??rA`
   \   000046B0   0530A0E1           MOV      R3,R5
   \   000046B4   0020A0E3           MOV      R2,#+0
   \   000046B8   0D10A0E1           MOV      R1,SP
   \   000046BC   54008DE2           ADD      R0,SP,#+84
   \   000046C0   ........           _BLF     ??append,??append??rA
   \   000046C4   0020A0E3           MOV      R2,#+0
   \   000046C8   0110A0E3           MOV      R1,#+1
   \   000046CC   0D00A0E1           MOV      R0,SP
   \   000046D0   ........           _BLF     ??_Tidy,??_Tidy??rA
   \   000046D4   0020A0E3           MOV      R2,#+0
   \   000046D8   0110A0E3           MOV      R1,#+1
   \   000046DC   1C008DE2           ADD      R0,SP,#+28
   \   000046E0   ........           _BLF     ??_Tidy,??_Tidy??rA
   \   000046E4   0020A0E3           MOV      R2,#+0
   \   000046E8   0110A0E3           MOV      R1,#+1
   \   000046EC   38008DE2           ADD      R0,SP,#+56
   \   000046F0   ........           _BLF     ??_Tidy,??_Tidy??rA
    451              if (SimulateFixedValues)   LocalString += TabStr1 + KeyWord(C_SD_SIMULATE_STATIC) + CrLfStr;
   \                     ??WriteConfigToFile_53:
   \   000046F4   7801D7E5           LDRB     R0,[R7, #+376]
   \   000046F8   000050E3           CMP      R0,#+0
   \   000046FC   1C00000A           BEQ      ??WriteConfigToFile_54
   \   00004700   FA10A0E3           MOV      R1,#+250
   \   00004704   801D81E3           ORR      R1,R1,#0x2000
   \   00004708   1C008DE2           ADD      R0,SP,#+28
   \   0000470C   ........           _BLF     ??KeyWord,??KeyWord??rA
   \   00004710   1C208DE2           ADD      R2,SP,#+28
   \   00004714   0610A0E1           MOV      R1,R6
   \   00004718   38008DE2           ADD      R0,SP,#+56
   \   0000471C   ........           _BLF     `??operator+`,`??operator+??rA`
   \   00004720   0420A0E1           MOV      R2,R4
   \   00004724   38108DE2           ADD      R1,SP,#+56
   \   00004728   0D00A0E1           MOV      R0,SP
   \   0000472C   ........           _BLF     `??operator+`,`??operator+??rA`
   \   00004730   0530A0E1           MOV      R3,R5
   \   00004734   0020A0E3           MOV      R2,#+0
   \   00004738   0D10A0E1           MOV      R1,SP
   \   0000473C   54008DE2           ADD      R0,SP,#+84
   \   00004740   ........           _BLF     ??append,??append??rA
   \   00004744   0020A0E3           MOV      R2,#+0
   \   00004748   0110A0E3           MOV      R1,#+1
   \   0000474C   0D00A0E1           MOV      R0,SP
   \   00004750   ........           _BLF     ??_Tidy,??_Tidy??rA
   \   00004754   0020A0E3           MOV      R2,#+0
   \   00004758   0110A0E3           MOV      R1,#+1
   \   0000475C   38008DE2           ADD      R0,SP,#+56
   \   00004760   ........           _BLF     ??_Tidy,??_Tidy??rA
   \   00004764   0020A0E3           MOV      R2,#+0
   \   00004768   0110A0E3           MOV      R1,#+1
   \   0000476C   1C008DE2           ADD      R0,SP,#+28
   \   00004770   ........           _BLF     ??_Tidy,??_Tidy??rA
    452              if (PROProjectInfo::PROProjectInfoPtr->AlarmSettingsPINLock) {
   \                     ??WriteConfigToFile_54:
   \   00004774   900097E5           LDR      R0,[R7, #+144]
   \   00004778   CF80A0E3           MOV      R8,#+207
   \   0000477C   C700D0E5           LDRB     R0,[R0, #+199]
   \   00004780   408E88E3           ORR      R8,R8,#0x400
   \   00004784   000050E3           CMP      R0,#+0
   \   00004788   2A00000A           BEQ      ??WriteConfigToFile_55
    453                  LocalString += TabStr1 + KeyWord(C_ALARM_SETTINGS_PIN_LOCK) + KeyWord(C_ENABLE) + CrLfStr;
   \   0000478C   6410A0E3           MOV      R1,#+100
   \   00004790   70008DE2           ADD      R0,SP,#+112
   \   00004794   ........           _BLF     ??KeyWord,??KeyWord??rA
   \   00004798   0810A0E1           MOV      R1,R8
   \   0000479C   8C008DE2           ADD      R0,SP,#+140
   \   000047A0   ........           _BLF     ??KeyWord,??KeyWord??rA
   \   000047A4   8C208DE2           ADD      R2,SP,#+140
   \   000047A8   0610A0E1           MOV      R1,R6
   \   000047AC   38008DE2           ADD      R0,SP,#+56
   \   000047B0   ........           _BLF     `??operator+`,`??operator+??rA`
   \   000047B4   70208DE2           ADD      R2,SP,#+112
   \   000047B8   38108DE2           ADD      R1,SP,#+56
   \   000047BC   1C008DE2           ADD      R0,SP,#+28
   \   000047C0   ........           _BLF     `??operator+`,`??operator+??rA`
   \   000047C4   0420A0E1           MOV      R2,R4
   \   000047C8   1C108DE2           ADD      R1,SP,#+28
   \   000047CC   0D00A0E1           MOV      R0,SP
   \   000047D0   ........           _BLF     `??operator+`,`??operator+??rA`
   \   000047D4   0530A0E1           MOV      R3,R5
   \   000047D8   0020A0E3           MOV      R2,#+0
   \   000047DC   0D10A0E1           MOV      R1,SP
   \   000047E0   54008DE2           ADD      R0,SP,#+84
   \   000047E4   ........           _BLF     ??append,??append??rA
   \   000047E8   0020A0E3           MOV      R2,#+0
   \   000047EC   0110A0E3           MOV      R1,#+1
   \   000047F0   0D00A0E1           MOV      R0,SP
   \   000047F4   ........           _BLF     ??_Tidy,??_Tidy??rA
   \   000047F8   0020A0E3           MOV      R2,#+0
   \   000047FC   0110A0E3           MOV      R1,#+1
   \   00004800   1C008DE2           ADD      R0,SP,#+28
   \   00004804   ........           _BLF     ??_Tidy,??_Tidy??rA
   \   00004808   0020A0E3           MOV      R2,#+0
   \   0000480C   0110A0E3           MOV      R1,#+1
   \   00004810   70008DE2           ADD      R0,SP,#+112
   \   00004814   ........           _BLF     ??_Tidy,??_Tidy??rA
   \   00004818   0020A0E3           MOV      R2,#+0
   \   0000481C   0110A0E3           MOV      R1,#+1
   \   00004820   38008DE2           ADD      R0,SP,#+56
   \   00004824   ........           _BLF     ??_Tidy,??_Tidy??rA
   \   00004828   0020A0E3           MOV      R2,#+0
   \   0000482C   0110A0E3           MOV      R1,#+1
   \   00004830   8C008DE2           ADD      R0,SP,#+140
   \   00004834   290000EA           B        ??WriteConfigToFile_56
    454              } else {
    455                  LocalString += TabStr1 + KeyWord(C_ALARM_SETTINGS_PIN_LOCK) + KeyWord(C_DISABLE) + CrLfStr;
   \                     ??WriteConfigToFile_55:
   \   00004838   6510A0E3           MOV      R1,#+101
   \   0000483C   8C008DE2           ADD      R0,SP,#+140
   \   00004840   ........           _BLF     ??KeyWord,??KeyWord??rA
   \   00004844   0810A0E1           MOV      R1,R8
   \   00004848   70008DE2           ADD      R0,SP,#+112
   \   0000484C   ........           _BLF     ??KeyWord,??KeyWord??rA
   \   00004850   70208DE2           ADD      R2,SP,#+112
   \   00004854   0610A0E1           MOV      R1,R6
   \   00004858   1C008DE2           ADD      R0,SP,#+28
   \   0000485C   ........           _BLF     `??operator+`,`??operator+??rA`
   \   00004860   8C208DE2           ADD      R2,SP,#+140
   \   00004864   1C108DE2           ADD      R1,SP,#+28
   \   00004868   38008DE2           ADD      R0,SP,#+56
   \   0000486C   ........           _BLF     `??operator+`,`??operator+??rA`
   \   00004870   0420A0E1           MOV      R2,R4
   \   00004874   38108DE2           ADD      R1,SP,#+56
   \   00004878   0D00A0E1           MOV      R0,SP
   \   0000487C   ........           _BLF     `??operator+`,`??operator+??rA`
   \   00004880   0530A0E1           MOV      R3,R5
   \   00004884   0020A0E3           MOV      R2,#+0
   \   00004888   0D10A0E1           MOV      R1,SP
   \   0000488C   54008DE2           ADD      R0,SP,#+84
   \   00004890   ........           _BLF     ??append,??append??rA
   \   00004894   0020A0E3           MOV      R2,#+0
   \   00004898   0110A0E3           MOV      R1,#+1
   \   0000489C   0D00A0E1           MOV      R0,SP
   \   000048A0   ........           _BLF     ??_Tidy,??_Tidy??rA
   \   000048A4   0020A0E3           MOV      R2,#+0
   \   000048A8   0110A0E3           MOV      R1,#+1
   \   000048AC   38008DE2           ADD      R0,SP,#+56
   \   000048B0   ........           _BLF     ??_Tidy,??_Tidy??rA
   \   000048B4   0020A0E3           MOV      R2,#+0
   \   000048B8   0110A0E3           MOV      R1,#+1
   \   000048BC   8C008DE2           ADD      R0,SP,#+140
   \   000048C0   ........           _BLF     ??_Tidy,??_Tidy??rA
   \   000048C4   0020A0E3           MOV      R2,#+0
   \   000048C8   0110A0E3           MOV      R1,#+1
   \   000048CC   1C008DE2           ADD      R0,SP,#+28
   \   000048D0   ........           _BLF     ??_Tidy,??_Tidy??rA
   \   000048D4   0020A0E3           MOV      R2,#+0
   \   000048D8   0110A0E3           MOV      R1,#+1
   \   000048DC   70008DE2           ADD      R0,SP,#+112
   \                     ??WriteConfigToFile_56:
   \   000048E0   ........           _BLF     ??_Tidy,??_Tidy??rA
    456              }
    457              if (!IP_Address.IsEmpty()) {
   \   000048E4   740087E2           ADD      R0,R7,#+116
   \   000048E8   ........           _BLF     ??IsEmpty,??IsEmpty??rA
   \   000048EC   000050E3           CMP      R0,#+0
   \   000048F0   0902001A           BNE      ??WriteConfigToFile_57
    458                  LocalString += TabStr1 + KeyWord(C_PROJ_IP_ADDRESS) + IP_Address + CrLfStr;
   \   000048F4   0B10C8E3           BIC      R1,R8,#0xB
   \   000048F8   8C008DE2           ADD      R0,SP,#+140
   \   000048FC   ........           _BLF     ??KeyWord,??KeyWord??rA
   \   00004900   8C208DE2           ADD      R2,SP,#+140
   \   00004904   0610A0E1           MOV      R1,R6
   \   00004908   38008DE2           ADD      R0,SP,#+56
   \   0000490C   ........           _BLF     `??operator+`,`??operator+??rA`
   \   00004910   742087E2           ADD      R2,R7,#+116
   \   00004914   38108DE2           ADD      R1,SP,#+56
   \   00004918   1C008DE2           ADD      R0,SP,#+28
   \   0000491C   ........           _BLF     `??operator+`,`??operator+??rA`
   \   00004920   0420A0E1           MOV      R2,R4
   \   00004924   1C108DE2           ADD      R1,SP,#+28
   \   00004928   0D00A0E1           MOV      R0,SP
   \   0000492C   ........           _BLF     `??operator+`,`??operator+??rA`
   \   00004930   0530A0E1           MOV      R3,R5
   \   00004934   0020A0E3           MOV      R2,#+0
   \   00004938   0D10A0E1           MOV      R1,SP
   \   0000493C   54008DE2           ADD      R0,SP,#+84
   \   00004940   ........           _BLF     ??append,??append??rA
   \   00004944   0020A0E3           MOV      R2,#+0
   \   00004948   0110A0E3           MOV      R1,#+1
   \   0000494C   0D00A0E1           MOV      R0,SP
   \   00004950   ........           _BLF     ??_Tidy,??_Tidy??rA
   \   00004954   0020A0E3           MOV      R2,#+0
   \   00004958   0110A0E3           MOV      R1,#+1
   \   0000495C   1C008DE2           ADD      R0,SP,#+28
   \   00004960   ........           _BLF     ??_Tidy,??_Tidy??rA
   \   00004964   0020A0E3           MOV      R2,#+0
   \   00004968   0110A0E3           MOV      R1,#+1
   \   0000496C   38008DE2           ADD      R0,SP,#+56
   \   00004970   ........           _BLF     ??_Tidy,??_Tidy??rA
   \   00004974   0020A0E3           MOV      R2,#+0
   \   00004978   0110A0E3           MOV      R1,#+1
   \   0000497C   8C008DE2           ADD      R0,SP,#+140
   \   00004980   ........           _BLF     ??_Tidy,??_Tidy??rA
    459                  LocalString += TabStr1 + KeyWord(C_PROJ_IP_ADDRESS_GATEWAY) + AnsiString(unsigned(IP_AddressGateWay)) + CrLfStr;
   \   00004984   7C11D7E5           LDRB     R1,[R7, #+380]
   \   00004988   FC008DE2           ADD      R0,SP,#+252
   \   0000498C   ........           _BLF     ??AnsiString_4,??AnsiString??rA_4
   \   00004990   0080A0E1           MOV      R8,R0
   \   00004994   C510A0E3           MOV      R1,#+197
   \   00004998   401E81E3           ORR      R1,R1,#0x400
   \   0000499C   E0008DE2           ADD      R0,SP,#+224
   \   000049A0   ........           _BLF     ??KeyWord,??KeyWord??rA
   \   000049A4   E0208DE2           ADD      R2,SP,#+224
   \   000049A8   0610A0E1           MOV      R1,R6
   \   000049AC   C4008DE2           ADD      R0,SP,#+196
   \   000049B0   ........           _BLF     `??operator+`,`??operator+??rA`
   \   000049B4   0820A0E1           MOV      R2,R8
   \   000049B8   C4108DE2           ADD      R1,SP,#+196
   \   000049BC   A8008DE2           ADD      R0,SP,#+168
   \   000049C0   ........           _BLF     `??operator+`,`??operator+??rA`
   \   000049C4   0420A0E1           MOV      R2,R4
   \   000049C8   A8108DE2           ADD      R1,SP,#+168
   \   000049CC   70008DE2           ADD      R0,SP,#+112
   \   000049D0   ........           _BLF     `??operator+`,`??operator+??rA`
   \   000049D4   0530A0E1           MOV      R3,R5
   \   000049D8   0020A0E3           MOV      R2,#+0
   \   000049DC   70108DE2           ADD      R1,SP,#+112
   \   000049E0   54008DE2           ADD      R0,SP,#+84
   \   000049E4   ........           _BLF     ??append,??append??rA
   \   000049E8   0020A0E3           MOV      R2,#+0
   \   000049EC   0110A0E3           MOV      R1,#+1
   \   000049F0   70008DE2           ADD      R0,SP,#+112
   \   000049F4   ........           _BLF     ??_Tidy,??_Tidy??rA
   \   000049F8   0020A0E3           MOV      R2,#+0
   \   000049FC   0110A0E3           MOV      R1,#+1
   \   00004A00   A8008DE2           ADD      R0,SP,#+168
   \   00004A04   ........           _BLF     ??_Tidy,??_Tidy??rA
   \   00004A08   0020A0E3           MOV      R2,#+0
   \   00004A0C   0110A0E3           MOV      R1,#+1
   \   00004A10   FC008DE2           ADD      R0,SP,#+252
   \   00004A14   ........           _BLF     ??_Tidy,??_Tidy??rA
   \   00004A18   0020A0E3           MOV      R2,#+0
   \   00004A1C   0110A0E3           MOV      R1,#+1
   \   00004A20   C4008DE2           ADD      R0,SP,#+196
   \   00004A24   ........           _BLF     ??_Tidy,??_Tidy??rA
   \   00004A28   0020A0E3           MOV      R2,#+0
   \   00004A2C   0110A0E3           MOV      R1,#+1
   \   00004A30   E0008DE2           ADD      R0,SP,#+224
   \   00004A34   ........           _BLF     ??_Tidy,??_Tidy??rA
    460                  LocalString += TabStr1 + KeyWord(C_PROJ_IP_ADDRESS_TCU_MASTER) + AnsiString(unsigned(IP_AddressTCU_Master)) + CrLfStr;
   \   00004A38   7D11D7E5           LDRB     R1,[R7, #+381]
   \   00004A3C   620F8DE2           ADD      R0,SP,#+392
   \   00004A40   ........           _BLF     ??AnsiString_4,??AnsiString??rA_4
   \   00004A44   0080A0E1           MOV      R8,R0
   \   00004A48   C610A0E3           MOV      R1,#+198
   \   00004A4C   401E81E3           ORR      R1,R1,#0x400
   \   00004A50   5B0F8DE2           ADD      R0,SP,#+364
   \   00004A54   ........           _BLF     ??KeyWord,??KeyWord??rA
   \   00004A58   5B2F8DE2           ADD      R2,SP,#+364
   \   00004A5C   0610A0E1           MOV      R1,R6
   \   00004A60   540F8DE2           ADD      R0,SP,#+336
   \   00004A64   ........           _BLF     `??operator+`,`??operator+??rA`
   \   00004A68   0820A0E1           MOV      R2,R8
   \   00004A6C   541F8DE2           ADD      R1,SP,#+336
   \   00004A70   4D0F8DE2           ADD      R0,SP,#+308
   \   00004A74   ........           _BLF     `??operator+`,`??operator+??rA`
   \   00004A78   0420A0E1           MOV      R2,R4
   \   00004A7C   4D1F8DE2           ADD      R1,SP,#+308
   \   00004A80   460F8DE2           ADD      R0,SP,#+280
   \   00004A84   ........           _BLF     `??operator+`,`??operator+??rA`
   \   00004A88   0530A0E1           MOV      R3,R5
   \   00004A8C   0020A0E3           MOV      R2,#+0
   \   00004A90   461F8DE2           ADD      R1,SP,#+280
   \   00004A94   54008DE2           ADD      R0,SP,#+84
   \   00004A98   ........           _BLF     ??append,??append??rA
   \   00004A9C   0020A0E3           MOV      R2,#+0
   \   00004AA0   0110A0E3           MOV      R1,#+1
   \   00004AA4   460F8DE2           ADD      R0,SP,#+280
   \   00004AA8   ........           _BLF     ??_Tidy,??_Tidy??rA
   \   00004AAC   0020A0E3           MOV      R2,#+0
   \   00004AB0   0110A0E3           MOV      R1,#+1
   \   00004AB4   4D0F8DE2           ADD      R0,SP,#+308
   \   00004AB8   ........           _BLF     ??_Tidy,??_Tidy??rA
   \   00004ABC   0020A0E3           MOV      R2,#+0
   \   00004AC0   0110A0E3           MOV      R1,#+1
   \   00004AC4   620F8DE2           ADD      R0,SP,#+392
   \   00004AC8   ........           _BLF     ??_Tidy,??_Tidy??rA
   \   00004ACC   0020A0E3           MOV      R2,#+0
   \   00004AD0   0110A0E3           MOV      R1,#+1
   \   00004AD4   540F8DE2           ADD      R0,SP,#+336
   \   00004AD8   ........           _BLF     ??_Tidy,??_Tidy??rA
   \   00004ADC   0020A0E3           MOV      R2,#+0
   \   00004AE0   0110A0E3           MOV      R1,#+1
   \   00004AE4   5B0F8DE2           ADD      R0,SP,#+364
   \   00004AE8   ........           _BLF     ??_Tidy,??_Tidy??rA
    461                  LocalString += TabStr1 + KeyWord(C_PROJ_IP_ADDRESS_TCU_SLAVE_START) + AnsiString(unsigned(IP_AddressTCUSlaveStart)) + CrLfStr;
   \   00004AEC   7E11D7E5           LDRB     R1,[R7, #+382]
   \   00004AF0   850F8DE2           ADD      R0,SP,#+532
   \   00004AF4   ........           _BLF     ??AnsiString_4,??AnsiString??rA_4
   \   00004AF8   0080A0E1           MOV      R8,R0
   \   00004AFC   D11E49E2           SUB      R1,R9,#+3344
   \   00004B00   7E0F8DE2           ADD      R0,SP,#+504
   \   00004B04   ........           _BLF     ??KeyWord,??KeyWord??rA
   \   00004B08   7E2F8DE2           ADD      R2,SP,#+504
   \   00004B0C   0610A0E1           MOV      R1,R6
   \   00004B10   770F8DE2           ADD      R0,SP,#+476
   \   00004B14   ........           _BLF     `??operator+`,`??operator+??rA`
   \   00004B18   0820A0E1           MOV      R2,R8
   \   00004B1C   771F8DE2           ADD      R1,SP,#+476
   \   00004B20   700F8DE2           ADD      R0,SP,#+448
   \   00004B24   ........           _BLF     `??operator+`,`??operator+??rA`
   \   00004B28   0420A0E1           MOV      R2,R4
   \   00004B2C   701F8DE2           ADD      R1,SP,#+448
   \   00004B30   690F8DE2           ADD      R0,SP,#+420
   \   00004B34   ........           _BLF     `??operator+`,`??operator+??rA`
   \   00004B38   0530A0E1           MOV      R3,R5
   \   00004B3C   0020A0E3           MOV      R2,#+0
   \   00004B40   691F8DE2           ADD      R1,SP,#+420
   \   00004B44   54008DE2           ADD      R0,SP,#+84
   \   00004B48   ........           _BLF     ??append,??append??rA
   \   00004B4C   0020A0E3           MOV      R2,#+0
   \   00004B50   0110A0E3           MOV      R1,#+1
   \   00004B54   690F8DE2           ADD      R0,SP,#+420
   \   00004B58   ........           _BLF     ??_Tidy,??_Tidy??rA
   \   00004B5C   0020A0E3           MOV      R2,#+0
   \   00004B60   0110A0E3           MOV      R1,#+1
   \   00004B64   700F8DE2           ADD      R0,SP,#+448
   \   00004B68   ........           _BLF     ??_Tidy,??_Tidy??rA
   \   00004B6C   0020A0E3           MOV      R2,#+0
   \   00004B70   0110A0E3           MOV      R1,#+1
   \   00004B74   850F8DE2           ADD      R0,SP,#+532
   \   00004B78   ........           _BLF     ??_Tidy,??_Tidy??rA
   \   00004B7C   0020A0E3           MOV      R2,#+0
   \   00004B80   0110A0E3           MOV      R1,#+1
   \   00004B84   770F8DE2           ADD      R0,SP,#+476
   \   00004B88   ........           _BLF     ??_Tidy,??_Tidy??rA
   \   00004B8C   0020A0E3           MOV      R2,#+0
   \   00004B90   0110A0E3           MOV      R1,#+1
   \   00004B94   7E0F8DE2           ADD      R0,SP,#+504
   \   00004B98   ........           _BLF     ??_Tidy,??_Tidy??rA
    462                  LocalString += TabStr1 + KeyWord(C_PROJ_IP_ADDRESS_TCU_SLAVE_END) + AnsiString(unsigned(IP_AddressTCUSlaveEnd)) + CrLfStr;
   \   00004B9C   7F11D7E5           LDRB     R1,[R7, #+383]
   \   00004BA0   A80F8DE2           ADD      R0,SP,#+672
   \   00004BA4   ........           _BLF     ??AnsiString_4,??AnsiString??rA_4
   \   00004BA8   0080A0E1           MOV      R8,R0
   \   00004BAC   C810A0E3           MOV      R1,#+200
   \   00004BB0   401E81E3           ORR      R1,R1,#0x400
   \   00004BB4   A10F8DE2           ADD      R0,SP,#+644
   \   00004BB8   ........           _BLF     ??KeyWord,??KeyWord??rA
   \   00004BBC   A12F8DE2           ADD      R2,SP,#+644
   \   00004BC0   0610A0E1           MOV      R1,R6
   \   00004BC4   9A0F8DE2           ADD      R0,SP,#+616
   \   00004BC8   ........           _BLF     `??operator+`,`??operator+??rA`
   \   00004BCC   0820A0E1           MOV      R2,R8
   \   00004BD0   9A1F8DE2           ADD      R1,SP,#+616
   \   00004BD4   930F8DE2           ADD      R0,SP,#+588
   \   00004BD8   ........           _BLF     `??operator+`,`??operator+??rA`
   \   00004BDC   0420A0E1           MOV      R2,R4
   \   00004BE0   931F8DE2           ADD      R1,SP,#+588
   \   00004BE4   8C0F8DE2           ADD      R0,SP,#+560
   \   00004BE8   ........           _BLF     `??operator+`,`??operator+??rA`
   \   00004BEC   0530A0E1           MOV      R3,R5
   \   00004BF0   0020A0E3           MOV      R2,#+0
   \   00004BF4   8C1F8DE2           ADD      R1,SP,#+560
   \   00004BF8   54008DE2           ADD      R0,SP,#+84
   \   00004BFC   ........           _BLF     ??append,??append??rA
   \   00004C00   0020A0E3           MOV      R2,#+0
   \   00004C04   0110A0E3           MOV      R1,#+1
   \   00004C08   8C0F8DE2           ADD      R0,SP,#+560
   \   00004C0C   ........           _BLF     ??_Tidy,??_Tidy??rA
   \   00004C10   0020A0E3           MOV      R2,#+0
   \   00004C14   0110A0E3           MOV      R1,#+1
   \   00004C18   930F8DE2           ADD      R0,SP,#+588
   \   00004C1C   ........           _BLF     ??_Tidy,??_Tidy??rA
   \   00004C20   0020A0E3           MOV      R2,#+0
   \   00004C24   0110A0E3           MOV      R1,#+1
   \   00004C28   A80F8DE2           ADD      R0,SP,#+672
   \   00004C2C   ........           _BLF     ??_Tidy,??_Tidy??rA
   \   00004C30   0020A0E3           MOV      R2,#+0
   \   00004C34   0110A0E3           MOV      R1,#+1
   \   00004C38   9A0F8DE2           ADD      R0,SP,#+616
   \   00004C3C   ........           _BLF     ??_Tidy,??_Tidy??rA
   \   00004C40   0020A0E3           MOV      R2,#+0
   \   00004C44   0110A0E3           MOV      R1,#+1
   \   00004C48   A10F8DE2           ADD      R0,SP,#+644
   \   00004C4C   ........           _BLF     ??_Tidy,??_Tidy??rA
    463                  LocalString += TabStr1 + KeyWord(C_PROJ_IP_ADDRESS_TDU_START) + AnsiString(unsigned(IP_AddressTDUStart)) + CrLfStr;
   \   00004C50   8011D7E5           LDRB     R1,[R7, #+384]
   \   00004C54   CB0F8DE2           ADD      R0,SP,#+812
   \   00004C58   ........           _BLF     ??AnsiString_4,??AnsiString??rA_4
   \   00004C5C   0080A0E1           MOV      R8,R0
   \   00004C60   961E4AE2           SUB      R1,R10,#+2400
   \   00004C64   C40F8DE2           ADD      R0,SP,#+784
   \   00004C68   ........           _BLF     ??KeyWord,??KeyWord??rA
   \   00004C6C   C42F8DE2           ADD      R2,SP,#+784
   \   00004C70   0610A0E1           MOV      R1,R6
   \   00004C74   BD0F8DE2           ADD      R0,SP,#+756
   \   00004C78   ........           _BLF     `??operator+`,`??operator+??rA`
   \   00004C7C   0820A0E1           MOV      R2,R8
   \   00004C80   BD1F8DE2           ADD      R1,SP,#+756
   \   00004C84   B60F8DE2           ADD      R0,SP,#+728
   \   00004C88   ........           _BLF     `??operator+`,`??operator+??rA`
   \   00004C8C   0420A0E1           MOV      R2,R4
   \   00004C90   B61F8DE2           ADD      R1,SP,#+728
   \   00004C94   AF0F8DE2           ADD      R0,SP,#+700
   \   00004C98   ........           _BLF     `??operator+`,`??operator+??rA`
   \   00004C9C   0530A0E1           MOV      R3,R5
   \   00004CA0   0020A0E3           MOV      R2,#+0
   \   00004CA4   AF1F8DE2           ADD      R1,SP,#+700
   \   00004CA8   54008DE2           ADD      R0,SP,#+84
   \   00004CAC   ........           _BLF     ??append,??append??rA
   \   00004CB0   0020A0E3           MOV      R2,#+0
   \   00004CB4   0110A0E3           MOV      R1,#+1
   \   00004CB8   AF0F8DE2           ADD      R0,SP,#+700
   \   00004CBC   ........           _BLF     ??_Tidy,??_Tidy??rA
   \   00004CC0   0020A0E3           MOV      R2,#+0
   \   00004CC4   0110A0E3           MOV      R1,#+1
   \   00004CC8   B60F8DE2           ADD      R0,SP,#+728
   \   00004CCC   ........           _BLF     ??_Tidy,??_Tidy??rA
   \   00004CD0   0020A0E3           MOV      R2,#+0
   \   00004CD4   0110A0E3           MOV      R1,#+1
   \   00004CD8   CB0F8DE2           ADD      R0,SP,#+812
   \   00004CDC   ........           _BLF     ??_Tidy,??_Tidy??rA
   \   00004CE0   0020A0E3           MOV      R2,#+0
   \   00004CE4   0110A0E3           MOV      R1,#+1
   \   00004CE8   BD0F8DE2           ADD      R0,SP,#+756
   \   00004CEC   ........           _BLF     ??_Tidy,??_Tidy??rA
   \   00004CF0   0020A0E3           MOV      R2,#+0
   \   00004CF4   0110A0E3           MOV      R1,#+1
   \   00004CF8   C40F8DE2           ADD      R0,SP,#+784
   \   00004CFC   ........           _BLF     ??_Tidy,??_Tidy??rA
    464                  LocalString += TabStr1 + KeyWord(C_PROJ_IP_ADDRESS_TDU_END) + AnsiString(unsigned(IP_AddressTDUEnd)) + CrLfStr;
   \   00004D00   8111D7E5           LDRB     R1,[R7, #+385]
   \   00004D04   EE0F8DE2           ADD      R0,SP,#+952
   \   00004D08   ........           _BLF     ??AnsiString_4,??AnsiString??rA_4
   \   00004D0C   0080A0E1           MOV      R8,R0
   \   00004D10   CA10A0E3           MOV      R1,#+202
   \   00004D14   401E81E3           ORR      R1,R1,#0x400
   \   00004D18   E70F8DE2           ADD      R0,SP,#+924
   \   00004D1C   ........           _BLF     ??KeyWord,??KeyWord??rA
   \   00004D20   E72F8DE2           ADD      R2,SP,#+924
   \   00004D24   0610A0E1           MOV      R1,R6
   \   00004D28   E00F8DE2           ADD      R0,SP,#+896
   \   00004D2C   ........           _BLF     `??operator+`,`??operator+??rA`
   \   00004D30   0820A0E1           MOV      R2,R8
   \   00004D34   E01F8DE2           ADD      R1,SP,#+896
   \   00004D38   D90F8DE2           ADD      R0,SP,#+868
   \   00004D3C   ........           _BLF     `??operator+`,`??operator+??rA`
   \   00004D40   0420A0E1           MOV      R2,R4
   \   00004D44   D91F8DE2           ADD      R1,SP,#+868
   \   00004D48   D20F8DE2           ADD      R0,SP,#+840
   \   00004D4C   ........           _BLF     `??operator+`,`??operator+??rA`
   \   00004D50   0530A0E1           MOV      R3,R5
   \   00004D54   0020A0E3           MOV      R2,#+0
   \   00004D58   D21F8DE2           ADD      R1,SP,#+840
   \   00004D5C   54008DE2           ADD      R0,SP,#+84
   \   00004D60   ........           _BLF     ??append,??append??rA
   \   00004D64   0020A0E3           MOV      R2,#+0
   \   00004D68   0110A0E3           MOV      R1,#+1
   \   00004D6C   D20F8DE2           ADD      R0,SP,#+840
   \   00004D70   ........           _BLF     ??_Tidy,??_Tidy??rA
   \   00004D74   0020A0E3           MOV      R2,#+0
   \   00004D78   0110A0E3           MOV      R1,#+1
   \   00004D7C   D90F8DE2           ADD      R0,SP,#+868
   \   00004D80   ........           _BLF     ??_Tidy,??_Tidy??rA
   \   00004D84   0020A0E3           MOV      R2,#+0
   \   00004D88   0110A0E3           MOV      R1,#+1
   \   00004D8C   EE0F8DE2           ADD      R0,SP,#+952
   \   00004D90   ........           _BLF     ??_Tidy,??_Tidy??rA
   \   00004D94   0020A0E3           MOV      R2,#+0
   \   00004D98   0110A0E3           MOV      R1,#+1
   \   00004D9C   E00F8DE2           ADD      R0,SP,#+896
   \   00004DA0   ........           _BLF     ??_Tidy,??_Tidy??rA
   \   00004DA4   0020A0E3           MOV      R2,#+0
   \   00004DA8   0110A0E3           MOV      R1,#+1
   \   00004DAC   E70F8DE2           ADD      R0,SP,#+924
   \   00004DB0   ........           _BLF     ??_Tidy,??_Tidy??rA
    465                  LocalString += TabStr1 + KeyWord(C_PROJ_IP_ADDRESS_PC_START) + AnsiString(unsigned(IP_AddressPCStart)) + CrLfStr;
   \   00004DB4   8211D7E5           LDRB     R1,[R7, #+386]
   \   00004DB8   44008DE2           ADD      R0,SP,#+68
   \   00004DBC   400E80E2           ADD      R0,R0,#+1024
   \   00004DC0   ........           _BLF     ??AnsiString_4,??AnsiString??rA_4
   \   00004DC4   0080A0E1           MOV      R8,R0
   \   00004DC8   CB10A0E3           MOV      R1,#+203
   \   00004DCC   401E81E3           ORR      R1,R1,#0x400
   \   00004DD0   28008DE2           ADD      R0,SP,#+40
   \   00004DD4   400E80E2           ADD      R0,R0,#+1024
   \   00004DD8   ........           _BLF     ??KeyWord,??KeyWord??rA
   \   00004DDC   28208DE2           ADD      R2,SP,#+40
   \   00004DE0   402E82E2           ADD      R2,R2,#+1024
   \   00004DE4   0610A0E1           MOV      R1,R6
   \   00004DE8   0C008DE2           ADD      R0,SP,#+12
   \   00004DEC   400E80E2           ADD      R0,R0,#+1024
   \   00004DF0   ........           _BLF     `??operator+`,`??operator+??rA`
   \   00004DF4   0820A0E1           MOV      R2,R8
   \   00004DF8   0C108DE2           ADD      R1,SP,#+12
   \   00004DFC   401E81E2           ADD      R1,R1,#+1024
   \   00004E00   FC0F8DE2           ADD      R0,SP,#+1008
   \   00004E04   ........           _BLF     `??operator+`,`??operator+??rA`
   \   00004E08   0420A0E1           MOV      R2,R4
   \   00004E0C   FC1F8DE2           ADD      R1,SP,#+1008
   \   00004E10   F50F8DE2           ADD      R0,SP,#+980
   \   00004E14   ........           _BLF     `??operator+`,`??operator+??rA`
   \   00004E18   0530A0E1           MOV      R3,R5
   \   00004E1C   0020A0E3           MOV      R2,#+0
   \   00004E20   F51F8DE2           ADD      R1,SP,#+980
   \   00004E24   54008DE2           ADD      R0,SP,#+84
   \   00004E28   ........           _BLF     ??append,??append??rA
   \   00004E2C   0020A0E3           MOV      R2,#+0
   \   00004E30   0110A0E3           MOV      R1,#+1
   \   00004E34   F50F8DE2           ADD      R0,SP,#+980
   \   00004E38   ........           _BLF     ??_Tidy,??_Tidy??rA
   \   00004E3C   0020A0E3           MOV      R2,#+0
   \   00004E40   0110A0E3           MOV      R1,#+1
   \   00004E44   FC0F8DE2           ADD      R0,SP,#+1008
   \   00004E48   ........           _BLF     ??_Tidy,??_Tidy??rA
   \   00004E4C   0020A0E3           MOV      R2,#+0
   \   00004E50   0110A0E3           MOV      R1,#+1
   \   00004E54   44008DE2           ADD      R0,SP,#+68
   \   00004E58   400E80E2           ADD      R0,R0,#+1024
   \   00004E5C   ........           _BLF     ??_Tidy,??_Tidy??rA
   \   00004E60   0020A0E3           MOV      R2,#+0
   \   00004E64   0110A0E3           MOV      R1,#+1
   \   00004E68   0C008DE2           ADD      R0,SP,#+12
   \   00004E6C   400E80E2           ADD      R0,R0,#+1024
   \   00004E70   ........           _BLF     ??_Tidy,??_Tidy??rA
   \   00004E74   0020A0E3           MOV      R2,#+0
   \   00004E78   0110A0E3           MOV      R1,#+1
   \   00004E7C   28008DE2           ADD      R0,SP,#+40
   \   00004E80   400E80E2           ADD      R0,R0,#+1024
   \   00004E84   ........           _BLF     ??_Tidy,??_Tidy??rA
    466                  LocalString += TabStr1 + KeyWord(C_PROJ_IP_ADDRESS_PC_END) + AnsiString(unsigned(IP_AddressPCEnd)) + CrLfStr;
   \   00004E88   8311D7E5           LDRB     R1,[R7, #+387]
   \   00004E8C   4D0E8DE2           ADD      R0,SP,#+1232
   \   00004E90   ........           _BLF     ??AnsiString_4,??AnsiString??rA_4
   \   00004E94   0080A0E1           MOV      R8,R0
   \   00004E98   961E4BE2           SUB      R1,R11,#+2400
   \   00004E9C   B4008DE2           ADD      R0,SP,#+180
   \   00004EA0   400E80E2           ADD      R0,R0,#+1024
   \   00004EA4   ........           _BLF     ??KeyWord,??KeyWord??rA
   \   00004EA8   B4208DE2           ADD      R2,SP,#+180
   \   00004EAC   402E82E2           ADD      R2,R2,#+1024
   \   00004EB0   0610A0E1           MOV      R1,R6
   \   00004EB4   98008DE2           ADD      R0,SP,#+152
   \   00004EB8   400E80E2           ADD      R0,R0,#+1024
   \   00004EBC   ........           _BLF     `??operator+`,`??operator+??rA`
   \   00004EC0   0820A0E1           MOV      R2,R8
   \   00004EC4   98108DE2           ADD      R1,SP,#+152
   \   00004EC8   401E81E2           ADD      R1,R1,#+1024
   \   00004ECC   7C008DE2           ADD      R0,SP,#+124
   \   00004ED0   400E80E2           ADD      R0,R0,#+1024
   \   00004ED4   ........           _BLF     `??operator+`,`??operator+??rA`
   \   00004ED8   0420A0E1           MOV      R2,R4
   \   00004EDC   7C108DE2           ADD      R1,SP,#+124
   \   00004EE0   401E81E2           ADD      R1,R1,#+1024
   \   00004EE4   460E8DE2           ADD      R0,SP,#+1120
   \   00004EE8   ........           _BLF     `??operator+`,`??operator+??rA`
   \   00004EEC   0530A0E1           MOV      R3,R5
   \   00004EF0   0020A0E3           MOV      R2,#+0
   \   00004EF4   461E8DE2           ADD      R1,SP,#+1120
   \   00004EF8   54008DE2           ADD      R0,SP,#+84
   \   00004EFC   ........           _BLF     ??append,??append??rA
   \   00004F00   0020A0E3           MOV      R2,#+0
   \   00004F04   0110A0E3           MOV      R1,#+1
   \   00004F08   460E8DE2           ADD      R0,SP,#+1120
   \   00004F0C   ........           _BLF     ??_Tidy,??_Tidy??rA
   \   00004F10   0020A0E3           MOV      R2,#+0
   \   00004F14   0110A0E3           MOV      R1,#+1
   \   00004F18   7C008DE2           ADD      R0,SP,#+124
   \   00004F1C   400E80E2           ADD      R0,R0,#+1024
   \   00004F20   ........           _BLF     ??_Tidy,??_Tidy??rA
   \   00004F24   0020A0E3           MOV      R2,#+0
   \   00004F28   0110A0E3           MOV      R1,#+1
   \   00004F2C   4D0E8DE2           ADD      R0,SP,#+1232
   \   00004F30   ........           _BLF     ??_Tidy,??_Tidy??rA
   \   00004F34   0020A0E3           MOV      R2,#+0
   \   00004F38   0110A0E3           MOV      R1,#+1
   \   00004F3C   98008DE2           ADD      R0,SP,#+152
   \   00004F40   400E80E2           ADD      R0,R0,#+1024
   \   00004F44   ........           _BLF     ??_Tidy,??_Tidy??rA
   \   00004F48   0020A0E3           MOV      R2,#+0
   \   00004F4C   0110A0E3           MOV      R1,#+1
   \   00004F50   B4008DE2           ADD      R0,SP,#+180
   \   00004F54   400E80E2           ADD      R0,R0,#+1024
   \   00004F58   ........           _BLF     ??_Tidy,??_Tidy??rA
    467                  LocalString += TabStr1 + KeyWord(C_PROJ_IP_TCP_SERVER_PORT) + AnsiString(IP_TCP_ServerPort) + CrLfStr;
   \   00004F5C   501197E5           LDR      R1,[R7, #+336]
   \   00004F60   570F8DE2           ADD      R0,SP,#+348
   \   00004F64   400E80E2           ADD      R0,R0,#+1024
   \   00004F68   ........           _BLF     ??AnsiString_5,??AnsiString??rA_5
   \   00004F6C   0080A0E1           MOV      R8,R0
   \   00004F70   CD10A0E3           MOV      R1,#+205
   \   00004F74   401E81E3           ORR      R1,R1,#0x400
   \   00004F78   540E8DE2           ADD      R0,SP,#+1344
   \   00004F7C   ........           _BLF     ??KeyWord,??KeyWord??rA
   \   00004F80   542E8DE2           ADD      R2,SP,#+1344
   \   00004F84   0610A0E1           MOV      R1,R6
   \   00004F88   490F8DE2           ADD      R0,SP,#+292
   \   00004F8C   400E80E2           ADD      R0,R0,#+1024
   \   00004F90   ........           _BLF     `??operator+`,`??operator+??rA`
   \   00004F94   0820A0E1           MOV      R2,R8
   \   00004F98   491F8DE2           ADD      R1,SP,#+292
   \   00004F9C   401E81E2           ADD      R1,R1,#+1024
   \   00004FA0   420F8DE2           ADD      R0,SP,#+264
   \   00004FA4   400E80E2           ADD      R0,R0,#+1024
   \   00004FA8   ........           _BLF     `??operator+`,`??operator+??rA`
   \   00004FAC   0420A0E1           MOV      R2,R4
   \   00004FB0   421F8DE2           ADD      R1,SP,#+264
   \   00004FB4   401E81E2           ADD      R1,R1,#+1024
   \   00004FB8   EC008DE2           ADD      R0,SP,#+236
   \   00004FBC   400E80E2           ADD      R0,R0,#+1024
   \   00004FC0   ........           _BLF     `??operator+`,`??operator+??rA`
   \   00004FC4   0530A0E1           MOV      R3,R5
   \   00004FC8   0020A0E3           MOV      R2,#+0
   \   00004FCC   EC108DE2           ADD      R1,SP,#+236
   \   00004FD0   401E81E2           ADD      R1,R1,#+1024
   \   00004FD4   54008DE2           ADD      R0,SP,#+84
   \   00004FD8   ........           _BLF     ??append,??append??rA
   \   00004FDC   0020A0E3           MOV      R2,#+0
   \   00004FE0   0110A0E3           MOV      R1,#+1
   \   00004FE4   EC008DE2           ADD      R0,SP,#+236
   \   00004FE8   400E80E2           ADD      R0,R0,#+1024
   \   00004FEC   ........           _BLF     ??_Tidy,??_Tidy??rA
   \   00004FF0   0020A0E3           MOV      R2,#+0
   \   00004FF4   0110A0E3           MOV      R1,#+1
   \   00004FF8   420F8DE2           ADD      R0,SP,#+264
   \   00004FFC   400E80E2           ADD      R0,R0,#+1024
   \   00005000   ........           _BLF     ??_Tidy,??_Tidy??rA
   \   00005004   0020A0E3           MOV      R2,#+0
   \   00005008   0110A0E3           MOV      R1,#+1
   \   0000500C   570F8DE2           ADD      R0,SP,#+348
   \   00005010   400E80E2           ADD      R0,R0,#+1024
   \   00005014   ........           _BLF     ??_Tidy,??_Tidy??rA
   \   00005018   0020A0E3           MOV      R2,#+0
   \   0000501C   0110A0E3           MOV      R1,#+1
   \   00005020   490F8DE2           ADD      R0,SP,#+292
   \   00005024   400E80E2           ADD      R0,R0,#+1024
   \   00005028   ........           _BLF     ??_Tidy,??_Tidy??rA
   \   0000502C   0020A0E3           MOV      R2,#+0
   \   00005030   0110A0E3           MOV      R1,#+1
   \   00005034   540E8DE2           ADD      R0,SP,#+1344
   \   00005038   ........           _BLF     ??_Tidy,??_Tidy??rA
    468                  LocalString += TabStr1 + KeyWord(C_PROJ_IP_UDP_NET_PORT) + AnsiString(IP_UDP_NetPort) + CrLfStr;
   \   0000503C   541197E5           LDR      R1,[R7, #+340]
   \   00005040   7A0F8DE2           ADD      R0,SP,#+488
   \   00005044   400E80E2           ADD      R0,R0,#+1024
   \   00005048   ........           _BLF     ??AnsiString_5,??AnsiString??rA_5
   \   0000504C   0070A0E1           MOV      R7,R0
   \   00005050   CE10A0E3           MOV      R1,#+206
   \   00005054   401E81E3           ORR      R1,R1,#0x400
   \   00005058   730F8DE2           ADD      R0,SP,#+460
   \   0000505C   400E80E2           ADD      R0,R0,#+1024
   \   00005060   ........           _BLF     ??KeyWord,??KeyWord??rA
   \   00005064   732F8DE2           ADD      R2,SP,#+460
   \   00005068   402E82E2           ADD      R2,R2,#+1024
   \   0000506C   0610A0E1           MOV      R1,R6
   \   00005070   5B0E8DE2           ADD      R0,SP,#+1456
   \   00005074   ........           _BLF     `??operator+`,`??operator+??rA`
   \   00005078   0720A0E1           MOV      R2,R7
   \   0000507C   5B1E8DE2           ADD      R1,SP,#+1456
   \   00005080   650F8DE2           ADD      R0,SP,#+404
   \   00005084   400E80E2           ADD      R0,R0,#+1024
   \   00005088   ........           _BLF     `??operator+`,`??operator+??rA`
   \   0000508C   0420A0E1           MOV      R2,R4
   \   00005090   651F8DE2           ADD      R1,SP,#+404
   \   00005094   401E81E2           ADD      R1,R1,#+1024
   \   00005098   5E0F8DE2           ADD      R0,SP,#+376
   \   0000509C   400E80E2           ADD      R0,R0,#+1024
   \   000050A0   ........           _BLF     `??operator+`,`??operator+??rA`
   \   000050A4   0530A0E1           MOV      R3,R5
   \   000050A8   0020A0E3           MOV      R2,#+0
   \   000050AC   5E1F8DE2           ADD      R1,SP,#+376
   \   000050B0   401E81E2           ADD      R1,R1,#+1024
   \   000050B4   54008DE2           ADD      R0,SP,#+84
   \   000050B8   ........           _BLF     ??append,??append??rA
   \   000050BC   0020A0E3           MOV      R2,#+0
   \   000050C0   0110A0E3           MOV      R1,#+1
   \   000050C4   5E0F8DE2           ADD      R0,SP,#+376
   \   000050C8   400E80E2           ADD      R0,R0,#+1024
   \   000050CC   ........           _BLF     ??_Tidy,??_Tidy??rA
   \   000050D0   0020A0E3           MOV      R2,#+0
   \   000050D4   0110A0E3           MOV      R1,#+1
   \   000050D8   650F8DE2           ADD      R0,SP,#+404
   \   000050DC   400E80E2           ADD      R0,R0,#+1024
   \   000050E0   ........           _BLF     ??_Tidy,??_Tidy??rA
   \   000050E4   0020A0E3           MOV      R2,#+0
   \   000050E8   0110A0E3           MOV      R1,#+1
   \   000050EC   7A0F8DE2           ADD      R0,SP,#+488
   \   000050F0   400E80E2           ADD      R0,R0,#+1024
   \   000050F4   ........           _BLF     ??_Tidy,??_Tidy??rA
   \   000050F8   0020A0E3           MOV      R2,#+0
   \   000050FC   0110A0E3           MOV      R1,#+1
   \   00005100   5B0E8DE2           ADD      R0,SP,#+1456
   \   00005104   ........           _BLF     ??_Tidy,??_Tidy??rA
   \   00005108   0020A0E3           MOV      R2,#+0
   \   0000510C   0110A0E3           MOV      R1,#+1
   \   00005110   730F8DE2           ADD      R0,SP,#+460
   \   00005114   400E80E2           ADD      R0,R0,#+1024
   \   00005118   ........           _BLF     ??_Tidy,??_Tidy??rA
    469                  //LocalString += TabStr1 + KeyWord(C_PROJ_IP_TCP_FLASH_PORT) + AnsiString(IP_TCP_FlashPort) + CrLfStr;
    470              }
    471              LocalString += KeyWord(C_PRO_END) + CrLfStr;
   \                     ??WriteConfigToFile_57:
   \   0000511C   FA1FA0E3           MOV      R1,#+1000
   \   00005120   750F8DE2           ADD      R0,SP,#+468
   \   00005124   400D80E2           ADD      R0,R0,#+4096
   \   00005128   ........           _BLF     ??KeyWord,??KeyWord??rA
   \   0000512C   0420A0E1           MOV      R2,R4
   \   00005130   751F8DE2           ADD      R1,SP,#+468
   \   00005134   401D81E2           ADD      R1,R1,#+4096
   \   00005138   6E0F8DE2           ADD      R0,SP,#+440
   \   0000513C   400D80E2           ADD      R0,R0,#+4096
   \   00005140   ........           _BLF     `??operator+`,`??operator+??rA`
   \   00005144   0530A0E1           MOV      R3,R5
   \   00005148   0020A0E3           MOV      R2,#+0
   \   0000514C   6E1F8DE2           ADD      R1,SP,#+440
   \   00005150   401D81E2           ADD      R1,R1,#+4096
   \   00005154   54008DE2           ADD      R0,SP,#+84
   \   00005158   ........           _BLF     ??append,??append??rA
   \   0000515C   0020A0E3           MOV      R2,#+0
   \   00005160   0110A0E3           MOV      R1,#+1
   \   00005164   6E0F8DE2           ADD      R0,SP,#+440
   \   00005168   400D80E2           ADD      R0,R0,#+4096
   \   0000516C   ........           _BLF     ??_Tidy,??_Tidy??rA
   \   00005170   0020A0E3           MOV      R2,#+0
   \   00005174   0110A0E3           MOV      R1,#+1
   \   00005178   750F8DE2           ADD      R0,SP,#+468
   \   0000517C   400D80E2           ADD      R0,R0,#+4096
   \   00005180   ........           _BLF     ??_Tidy,??_Tidy??rA
    472              LocalString += CrLfStr;
   \   00005184   0530A0E1           MOV      R3,R5
   \   00005188   0020A0E3           MOV      R2,#+0
   \   0000518C   0410A0E1           MOV      R1,R4
   \   00005190   54008DE2           ADD      R0,SP,#+84
   \   00005194   ........           _BLF     ??append,??append??rA
    473          
    474          
    475              ConfigString.AddString(LocalString);
   \   00005198   54108DE2           ADD      R1,SP,#+84
   \   0000519C   7C0F8DE2           ADD      R0,SP,#+496
   \   000051A0   400D80E2           ADD      R0,R0,#+4096
   \   000051A4   ........           _BLF     ??string,??string??rA
   \   000051A8   490D8DE2           ADD      R0,SP,#+4672
   \   000051AC   040090E5           LDR      R0,[R0, #+4]
   \   000051B0   7C1F8DE2           ADD      R1,SP,#+496
   \   000051B4   401D81E2           ADD      R1,R1,#+4096
   \   000051B8   ........           _BLF     ??AddString,??AddString??rA
   \   000051BC   0020A0E3           MOV      R2,#+0
   \   000051C0   0110A0E3           MOV      R1,#+1
   \   000051C4   7C0F8DE2           ADD      R0,SP,#+496
   \   000051C8   400D80E2           ADD      R0,R0,#+4096
   \   000051CC   ........           _BLF     ??_Tidy,??_Tidy??rA
    476          }
   \   000051D0   0020A0E3           MOV      R2,#+0
   \   000051D4   0110A0E3           MOV      R1,#+1
   \   000051D8   54008DE2           ADD      R0,SP,#+84
   \   000051DC   ........           _BLF     ??_Tidy,??_Tidy??rA
   \   000051E0   92DF8DE2           ADD      SP,SP,#+584
   \   000051E4   40DD8DE2           ADD      SP,SP,#+4096
   \   000051E8                      REQUIRE ?Subroutine17
   \   000051E8                      ;; // Fall through to label ?Subroutine17
    477          //---------------------------------------------------------------------------
    478          

   \                                 In segment CODE, align 4, keep-with-next
    479          int PROProjectInfo::LoadConfigFromFile(TSNConfigString &ConfigString) {
   \                     ??LoadConfigFromFile:
   \   00000000   F04F2DE9           PUSH     {R4-R11,LR}
   \   00000004   69DF4DE2           SUB      SP,SP,#+420
    480              SetLineNumber(ConfigString.LineCount);
    481              bool NoError = true;
    482              int ErrorLine = 0;
   \   00000008   886F9FE5           LDR      R6,??LoadConfigFromFile_2  ;; ??UserUnits
   \   0000000C   0140A0E1           MOV      R4,R1
   \   00000010   1C1094E5           LDR      R1,[R4, #+28]
   \   00000014   0080A0E1           MOV      R8,R0
   \   00000018   ........           _BLF     ??SetLineNumber,??SetLineNumber??rA
   \   0000001C   0150A0E3           MOV      R5,#+1
   \   00000020   0190A0E3           MOV      R9,#+1
   \   00000024   0010A0E3           MOV      R1,#+0
   \   00000028   00108DE5           STR      R1,[SP, #+0]
    483              int Key;
    484          
    485              do {
    486                  AnsiString InputKeyWord = ConfigString.NextWord(ErrorLine);
   \                     ??LoadConfigFromFile_3:
   \   0000002C   0030A0E3           MOV      R3,#+0
   \   00000030   0D20A0E1           MOV      R2,SP
   \   00000034   94108DE2           ADD      R1,SP,#+148
    487                  if (ErrorLine) {
   \   00000038   5CBF9FE5           LDR      R11,??LoadConfigFromFile_2+0x4  ;; `?<Constant "Project info">`
   \   0000003C   0400A0E1           MOV      R0,R4
   \   00000040   ........           _BLF     ??NextWord,??NextWord??rA
   \   00000044   00009DE5           LDR      R0,[SP, #+0]
   \   00000048   000050E3           CMP      R0,#+0
   \   0000004C   0B00000A           BEQ      ??LoadConfigFromFile_4
    488                      if (ErrorLine != EOF) {
   \   00000050   010070E3           CMN      R0,#+1
   \   00000054   F604000A           BEQ      ??LoadConfigFromFile_5
    489                          GiveConfigWarning("Project info", ErrorLine);
   \   00000058   0B10A0E1           MOV      R1,R11
   \   0000005C   04008DE2           ADD      R0,SP,#+4
   \   00000060   ........           _BLF     ??AnsiString_1,??AnsiString??rA_1
   \   00000064   00109DE5           LDR      R1,[SP, #+0]
   \   00000068   ........           _BLF     ??GiveConfigWarning,??GiveConfigWarning??rA
   \   0000006C   0020A0E3           MOV      R2,#+0
   \   00000070   0110A0E3           MOV      R1,#+1
   \   00000074   04008DE2           ADD      R0,SP,#+4
   \                     ??LoadConfigFromFile_6:
   \   00000078   ........           _BLF     ??_Tidy,??_Tidy??rA
   \   0000007C   EC0400EA           B        ??LoadConfigFromFile_5
    490                      }
    491                  } else {
    492                      Key = FindConfigKey(InputKeyWord);
   \                     ??LoadConfigFromFile_4:
   \   00000080   94108DE2           ADD      R1,SP,#+148
   \   00000084   78008DE2           ADD      R0,SP,#+120
   \   00000088   ........           _BLF     ??string,??string??rA
   \   0000008C   78008DE2           ADD      R0,SP,#+120
   \   00000090   ........           _BLF     ??FindConfigKey,??FindConfigKey??rA
   \   00000094   00A0A0E1           MOV      R10,R0
   \   00000098   0020A0E3           MOV      R2,#+0
   \   0000009C   0110A0E3           MOV      R1,#+1
   \   000000A0   78008DE2           ADD      R0,SP,#+120
   \   000000A4   ........           _BLF     ??_Tidy,??_Tidy??rA
    493                      switch (Key) {
   \   000000A8   4900A0E3           MOV      R0,#+73
   \   000000AC   500E80E3           ORR      R0,R0,#0x500
   \   000000B0   6F005AE3           CMP      R10,#+111
   \   000000B4   FC03000A           BEQ      ??LoadConfigFromFile_7
   \   000000B8   E9005AE3           CMP      R10,#+233
   \   000000BC   5004000A           BEQ      ??LoadConfigFromFile_8
   \   000000C0   FA0F5AE3           CMP      R10,#+1000
   \   000000C4   EA20A013           MOVNE    R2,#+234
   \   000000C8   C02F8213           ORRNE    R2,R2,#0x300
   \   000000CC   02005A11           CMPNE    R10,R2
   \   000000D0   FB0F5A13           CMPNE    R10,#+1004
   \   000000D4   D604000A           BEQ      ??LoadConfigFromFile_5
   \   000000D8   9F2040E2           SUB      R2,R0,#+159
   \   000000DC   02005AE1           CMP      R10,R2
   \   000000E0   CD03000A           BEQ      ??LoadConfigFromFile_9
   \   000000E4   982040E2           SUB      R2,R0,#+152
   \   000000E8   02005AE1           CMP      R10,R2
   \   000000EC   4801000A           BEQ      ??LoadConfigFromFile_10
   \   000000F0   972040E2           SUB      R2,R0,#+151
   \   000000F4   02005AE1           CMP      R10,R2
   \   000000F8   5B01000A           BEQ      ??LoadConfigFromFile_11
   \   000000FC   962040E2           SUB      R2,R0,#+150
   \   00000100   02005AE1           CMP      R10,R2
   \   00000104   6001000A           BEQ      ??LoadConfigFromFile_12
   \   00000108   952040E2           SUB      R2,R0,#+149
   \   0000010C   02005AE1           CMP      R10,R2
   \   00000110   6B01000A           BEQ      ??LoadConfigFromFile_13
   \   00000114   942040E2           SUB      R2,R0,#+148
   \   00000118   02005AE1           CMP      R10,R2
   \   0000011C   8E01000A           BEQ      ??LoadConfigFromFile_14
   \   00000120   922040E2           SUB      R2,R0,#+146
   \   00000124   02005AE1           CMP      R10,R2
   \   00000128   9D01000A           BEQ      ??LoadConfigFromFile_15
   \   0000012C   912040E2           SUB      R2,R0,#+145
   \   00000130   02005AE1           CMP      R10,R2
   \   00000134   AA01000A           BEQ      ??LoadConfigFromFile_16
   \   00000138   902040E2           SUB      R2,R0,#+144
   \   0000013C   02005AE1           CMP      R10,R2
   \   00000140   BA01000A           BEQ      ??LoadConfigFromFile_17
   \   00000144   8F2040E2           SUB      R2,R0,#+143
   \   00000148   02005AE1           CMP      R10,R2
   \   0000014C   BE01000A           BEQ      ??LoadConfigFromFile_18
   \   00000150   8E2040E2           SUB      R2,R0,#+142
   \   00000154   02005AE1           CMP      R10,R2
   \   00000158   C201000A           BEQ      ??LoadConfigFromFile_19
   \   0000015C   8D2040E2           SUB      R2,R0,#+141
   \   00000160   02005AE1           CMP      R10,R2
   \   00000164   C601000A           BEQ      ??LoadConfigFromFile_20
   \   00000168   8C2040E2           SUB      R2,R0,#+140
   \   0000016C   02005AE1           CMP      R10,R2
   \   00000170   CB01000A           BEQ      ??LoadConfigFromFile_21
   \   00000174   8B2040E2           SUB      R2,R0,#+139
   \   00000178   02005AE1           CMP      R10,R2
   \   0000017C   C201000A           BEQ      ??LoadConfigFromFile_22
   \   00000180   8A2040E2           SUB      R2,R0,#+138
   \   00000184   02005AE1           CMP      R10,R2
   \   00000188   C101000A           BEQ      ??LoadConfigFromFile_23
   \   0000018C   882040E2           SUB      R2,R0,#+136
   \   00000190   02005AE1           CMP      R10,R2
   \   00000194   C001000A           BEQ      ??LoadConfigFromFile_24
   \   00000198   872040E2           SUB      R2,R0,#+135
   \   0000019C   02005AE1           CMP      R10,R2
   \   000001A0   AF03000A           BEQ      ??LoadConfigFromFile_25
   \   000001A4   862040E2           SUB      R2,R0,#+134
   \   000001A8   02005AE1           CMP      R10,R2
   \   000001AC   B203000A           BEQ      ??LoadConfigFromFile_26
   \   000001B0   852040E2           SUB      R2,R0,#+133
   \   000001B4   02005AE1           CMP      R10,R2
   \   000001B8   1304000A           BEQ      ??LoadConfigFromFile_27
   \   000001BC   842040E2           SUB      R2,R0,#+132
   \   000001C0   02005AE1           CMP      R10,R2
   \   000001C4   3A04000A           BEQ      ??LoadConfigFromFile_28
   \   000001C8   832040E2           SUB      R2,R0,#+131
   \   000001CC   02005AE1           CMP      R10,R2
   \   000001D0   3D04000A           BEQ      ??LoadConfigFromFile_29
   \   000001D4   822040E2           SUB      R2,R0,#+130
   \   000001D8   02005AE1           CMP      R10,R2
   \   000001DC   4004000A           BEQ      ??LoadConfigFromFile_30
   \   000001E0   812040E2           SUB      R2,R0,#+129
   \   000001E4   02005AE1           CMP      R10,R2
   \   000001E8   4304000A           BEQ      ??LoadConfigFromFile_31
   \   000001EC   802040E2           SUB      R2,R0,#+128
   \   000001F0   02005AE1           CMP      R10,R2
   \   000001F4   4604000A           BEQ      ??LoadConfigFromFile_32
   \   000001F8   7F2040E2           SUB      R2,R0,#+127
   \   000001FC   02005AE1           CMP      R10,R2
   \   00000200   4904000A           BEQ      ??LoadConfigFromFile_33
   \   00000204   7E2040E2           SUB      R2,R0,#+126
   \   00000208   02005AE1           CMP      R10,R2
   \   0000020C   4C04000A           BEQ      ??LoadConfigFromFile_34
   \   00000210   7D2040E2           SUB      R2,R0,#+125
   \   00000214   02005AE1           CMP      R10,R2
   \   00000218   4F04000A           BEQ      ??LoadConfigFromFile_35
   \   0000021C   7C2040E2           SUB      R2,R0,#+124
   \   00000220   02005AE1           CMP      R10,R2
   \   00000224   5204000A           BEQ      ??LoadConfigFromFile_36
   \   00000228   7B2040E2           SUB      R2,R0,#+123
   \   0000022C   02005AE1           CMP      R10,R2
   \   00000230   5504000A           BEQ      ??LoadConfigFromFile_37
   \   00000234   7A2040E2           SUB      R2,R0,#+122
   \   00000238   02005AE1           CMP      R10,R2
   \   0000023C   D203000A           BEQ      ??LoadConfigFromFile_38
   \   00000240   4D0E5AE3           CMP      R10,#+1232
   \   00000244   E902000A           BEQ      ??LoadConfigFromFile_39
   \   00000248   782040E2           SUB      R2,R0,#+120
   \   0000024C   02005AE1           CMP      R10,R2
   \   00000250   ED02000A           BEQ      ??LoadConfigFromFile_40
   \   00000254   772040E2           SUB      R2,R0,#+119
   \   00000258   02005AE1           CMP      R10,R2
   \   0000025C   F102000A           BEQ      ??LoadConfigFromFile_41
   \   00000260   762040E2           SUB      R2,R0,#+118
   \   00000264   02005AE1           CMP      R10,R2
   \   00000268   F502000A           BEQ      ??LoadConfigFromFile_42
   \   0000026C   752040E2           SUB      R2,R0,#+117
   \   00000270   02005AE1           CMP      R10,R2
   \   00000274   F902000A           BEQ      ??LoadConfigFromFile_43
   \   00000278   742040E2           SUB      R2,R0,#+116
   \   0000027C   02005AE1           CMP      R10,R2
   \   00000280   FD02000A           BEQ      ??LoadConfigFromFile_44
   \   00000284   732040E2           SUB      R2,R0,#+115
   \   00000288   02005AE1           CMP      R10,R2
   \   0000028C   0103000A           BEQ      ??LoadConfigFromFile_45
   \   00000290   722040E2           SUB      R2,R0,#+114
   \   00000294   02005AE1           CMP      R10,R2
   \   00000298   0503000A           BEQ      ??LoadConfigFromFile_46
   \   0000029C   672040E2           SUB      R2,R0,#+103
   \   000002A0   02005AE1           CMP      R10,R2
   \   000002A4   2803000A           BEQ      ??LoadConfigFromFile_47
   \   000002A8   662040E2           SUB      R2,R0,#+102
   \   000002AC   02005AE1           CMP      R10,R2
   \   000002B0   2903000A           BEQ      ??LoadConfigFromFile_48
   \   000002B4   652040E2           SUB      R2,R0,#+101
   \   000002B8   02005AE1           CMP      R10,R2
   \   000002BC   2903000A           BEQ      ??LoadConfigFromFile_49
   \   000002C0   642040E2           SUB      R2,R0,#+100
   \   000002C4   02005AE1           CMP      R10,R2
   \   000002C8   2903000A           BEQ      ??LoadConfigFromFile_50
   \   000002CC   632040E2           SUB      R2,R0,#+99
   \   000002D0   02005AE1           CMP      R10,R2
   \   000002D4   2903000A           BEQ      ??LoadConfigFromFile_51
   \   000002D8   622040E2           SUB      R2,R0,#+98
   \   000002DC   02005AE1           CMP      R10,R2
   \   000002E0   2903000A           BEQ      ??LoadConfigFromFile_52
   \   000002E4   612040E2           SUB      R2,R0,#+97
   \   000002E8   02005AE1           CMP      R10,R2
   \   000002EC   2B03000A           BEQ      ??LoadConfigFromFile_53
   \   000002F0   5D2040E2           SUB      R2,R0,#+93
   \   000002F4   02005AE1           CMP      R10,R2
   \   000002F8   4D03000A           BEQ      ??LoadConfigFromFile_54
   \   000002FC   5C2040E2           SUB      R2,R0,#+92
   \   00000300   02005AE1           CMP      R10,R2
   \   00000304   5003000A           BEQ      ??LoadConfigFromFile_55
   \   00000308   342040E2           SUB      R2,R0,#+52
   \   0000030C   02005AE1           CMP      R10,R2
   \   00000310   0201000A           BEQ      ??LoadConfigFromFile_56
   \   00000314   302040E2           SUB      R2,R0,#+48
   \   00000318   02005AE1           CMP      R10,R2
   \   0000031C   2303000A           BEQ      ??LoadConfigFromFile_57
   \   00000320   2F2040E2           SUB      R2,R0,#+47
   \   00000324   02005AE1           CMP      R10,R2
   \   00000328   3003000A           BEQ      ??LoadConfigFromFile_58
   \   0000032C   5E2080E2           ADD      R2,R0,#+94
   \   00000330   02005AE1           CMP      R10,R2
   \   00000334   F502000A           BEQ      ??LoadConfigFromFile_59
   \   00000338   5F2080E2           ADD      R2,R0,#+95
   \   0000033C   02005AE1           CMP      R10,R2
   \   00000340   F902000A           BEQ      ??LoadConfigFromFile_60
   \   00000344   BC2F82E2           ADD      R2,R2,#+752
   \   00000348   02005AE1           CMP      R10,R2
   \   0000034C   3804000A           BEQ      ??LoadConfigFromFile_5
   \   00000350   D82F80E2           ADD      R2,R0,#+864
   \   00000354   02005AE1           CMP      R10,R2
   \   00000358   DC02000A           BEQ      ??LoadConfigFromFile_61
   \   0000035C   012082E2           ADD      R2,R2,#+1
   \   00000360   02005AE1           CMP      R10,R2
   \   00000364   E102000A           BEQ      ??LoadConfigFromFile_62
   \   00000368   672E80E2           ADD      R2,R0,#+1648
   \   0000036C   02005AE1           CMP      R10,R2
   \   00000370   2F04000A           BEQ      ??LoadConfigFromFile_5
   \   00000374   1A20A0E3           MOV      R2,#+26
   \   00000378   E02E82E3           ORR      R2,R2,#0xE00
   \   0000037C   02005AE1           CMP      R10,R2
   \   00000380   5101000A           BEQ      ??LoadConfigFromFile_63
   \   00000384   012082E3           ORR      R2,R2,#0x1
   \   00000388   02005AE1           CMP      R10,R2
   \   0000038C   5501000A           BEQ      ??LoadConfigFromFile_64
   \   00000390   012082E2           ADD      R2,R2,#+1
   \   00000394   02005AE1           CMP      R10,R2
   \   00000398   5901000A           BEQ      ??LoadConfigFromFile_65
   \   0000039C   012082E3           ORR      R2,R2,#0x1
   \   000003A0   02005AE1           CMP      R10,R2
   \   000003A4   6001000A           BEQ      ??LoadConfigFromFile_66
   \   000003A8   012082E2           ADD      R2,R2,#+1
   \   000003AC   02005AE1           CMP      R10,R2
   \   000003B0   7201000A           BEQ      ??LoadConfigFromFile_67
   \   000003B4   012082E3           ORR      R2,R2,#0x1
   \   000003B8   02005AE1           CMP      R10,R2
   \   000003BC   7901000A           BEQ      ??LoadConfigFromFile_68
   \   000003C0   E20E5AE3           CMP      R10,#+3616
   \   000003C4   7E01000A           BEQ      ??LoadConfigFromFile_69
   \   000003C8   022082E2           ADD      R2,R2,#+2
   \   000003CC   02005AE1           CMP      R10,R2
   \   000003D0   8A01000A           BEQ      ??LoadConfigFromFile_70
   \   000003D4   012082E2           ADD      R2,R2,#+1
   \   000003D8   02005AE1           CMP      R10,R2
   \   000003DC   9601000A           BEQ      ??LoadConfigFromFile_71
   \   000003E0   012082E3           ORR      R2,R2,#0x1
   \   000003E4   02005AE1           CMP      R10,R2
   \   000003E8   A301000A           BEQ      ??LoadConfigFromFile_72
   \   000003EC   012082E2           ADD      R2,R2,#+1
   \   000003F0   02005AE1           CMP      R10,R2
   \   000003F4   F301000A           BEQ      ??LoadConfigFromFile_73
   \   000003F8   012082E3           ORR      R2,R2,#0x1
   \   000003FC   02005AE1           CMP      R10,R2
   \   00000400   FF01000A           BEQ      ??LoadConfigFromFile_74
   \   00000404   012082E2           ADD      R2,R2,#+1
   \   00000408   02005AE1           CMP      R10,R2
   \   0000040C   0B02000A           BEQ      ??LoadConfigFromFile_75
   \   00000410   012082E3           ORR      R2,R2,#0x1
   \   00000414   02005AE1           CMP      R10,R2
   \   00000418   A701000A           BEQ      ??LoadConfigFromFile_76
   \   0000041C   8E2E80E2           ADD      R2,R0,#+2272
   \   00000420   02005AE1           CMP      R10,R2
   \   00000424   B401000A           BEQ      ??LoadConfigFromFile_77
   \   00000428   032082E2           ADD      R2,R2,#+3
   \   0000042C   02005AE1           CMP      R10,R2
   \   00000430   C101000A           BEQ      ??LoadConfigFromFile_78
   \   00000434   012082E3           ORR      R2,R2,#0x1
   \   00000438   02005AE1           CMP      R10,R2
   \   0000043C   D101000A           BEQ      ??LoadConfigFromFile_79
   \   00000440   012082E2           ADD      R2,R2,#+1
   \   00000444   02005AE1           CMP      R10,R2
   \   00000448   0B02000A           BEQ      ??LoadConfigFromFile_80
   \   0000044C   012082E3           ORR      R2,R2,#0x1
   \   00000450   02005AE1           CMP      R10,R2
   \   00000454   1702000A           BEQ      ??LoadConfigFromFile_81
   \   00000458   E30E5AE3           CMP      R10,#+3632
   \   0000045C   2402000A           BEQ      ??LoadConfigFromFile_82
   \   00000460   022082E2           ADD      R2,R2,#+2
   \   00000464   02005AE1           CMP      R10,R2
   \   00000468   3002000A           BEQ      ??LoadConfigFromFile_83
   \   0000046C   052082E2           ADD      R2,R2,#+5
   \   00000470   02005AE1           CMP      R10,R2
   \   00000474   4002000A           BEQ      ??LoadConfigFromFile_84
   \   00000478   012082E3           ORR      R2,R2,#0x1
   \   0000047C   02005AE1           CMP      R10,R2
   \   00000480   3001000A           BEQ      ??LoadConfigFromFile_85
   \   00000484   012082E2           ADD      R2,R2,#+1
   \   00000488   02005AE1           CMP      R10,R2
   \   0000048C   3401000A           BEQ      ??LoadConfigFromFile_86
   \   00000490   8F2E80E2           ADD      R2,R0,#+2288
   \   00000494   02005AE1           CMP      R10,R2
   \   00000498   3902000A           BEQ      ??LoadConfigFromFile_87
   \   0000049C   012082E2           ADD      R2,R2,#+1
   \   000004A0   02005AE1           CMP      R10,R2
   \   000004A4   3B02000A           BEQ      ??LoadConfigFromFile_88
   \   000004A8   012082E3           ORR      R2,R2,#0x1
   \   000004AC   02005AE1           CMP      R10,R2
   \   000004B0   3A02000A           BEQ      ??LoadConfigFromFile_89
   \   000004B4   012082E2           ADD      R2,R2,#+1
   \   000004B8   02005AE1           CMP      R10,R2
   \   000004BC   3902000A           BEQ      ??LoadConfigFromFile_90
   \   000004C0   012082E3           ORR      R2,R2,#0x1
   \   000004C4   02005AE1           CMP      R10,R2
   \   000004C8   3802000A           BEQ      ??LoadConfigFromFile_91
   \   000004CC   012082E2           ADD      R2,R2,#+1
   \   000004D0   02005AE1           CMP      R10,R2
   \   000004D4   3702000A           BEQ      ??LoadConfigFromFile_92
   \   000004D8   012082E3           ORR      R2,R2,#0x1
   \   000004DC   02005AE1           CMP      R10,R2
   \   000004E0   3602000A           BEQ      ??LoadConfigFromFile_93
   \   000004E4   E40E5AE3           CMP      R10,#+3648
   \   000004E8   3602000A           BEQ      ??LoadConfigFromFile_94
   \   000004EC   022082E2           ADD      R2,R2,#+2
   \   000004F0   02005AE1           CMP      R10,R2
   \   000004F4   3502000A           BEQ      ??LoadConfigFromFile_95
   \   000004F8   012082E2           ADD      R2,R2,#+1
   \   000004FC   02005AE1           CMP      R10,R2
   \   00000500   3402000A           BEQ      ??LoadConfigFromFile_96
   \   00000504   052082E3           ORR      R2,R2,#0x5
   \   00000508   02005AE1           CMP      R10,R2
   \   0000050C   3302000A           BEQ      ??LoadConfigFromFile_97
   \   00000510   012082E2           ADD      R2,R2,#+1
   \   00000514   02005AE1           CMP      R10,R2
   \   00000518   3202000A           BEQ      ??LoadConfigFromFile_98
   \   0000051C   902E80E2           ADD      R2,R0,#+2304
   \   00000520   02005AE1           CMP      R10,R2
   \   00000524   1802000A           BEQ      ??LoadConfigFromFile_99
   \   00000528   D220A0E3           MOV      R2,#+210
   \   0000052C   442D82E3           ORR      R2,R2,#0x1100
   \   00000530   02005AE1           CMP      R10,R2
   \   00000534   01208213           ORRNE    R2,R2,#0x1
   \   00000538   02005A11           CMPNE    R10,R2
   \   0000053C   04208213           ORRNE    R2,R2,#0x4
   \   00000540   02005A11           CMPNE    R10,R2
   \   00000544   01208212           ADDNE    R2,R2,#+1
   \   00000548   02005A11           CMPNE    R10,R2
   \   0000054C   C92E8012           ADDNE    R2,R0,#+3216
   \   00000550   02005A11           CMPNE    R10,R2
   \   00000554   DC02000A           BEQ      ??LoadConfigFromFile_100
   \   00000558   F22E82E2           ADD      R2,R2,#+3872
   \   0000055C   02005AE1           CMP      R10,R2
   \   00000560   CD02000A           BEQ      ??LoadConfigFromFile_101
   \   00000564   012082E2           ADD      R2,R2,#+1
   \   00000568   02005AE1           CMP      R10,R2
   \   0000056C   CC02000A           BEQ      ??LoadConfigFromFile_102
   \   00000570   2820A0E3           MOV      R2,#+40
   \   00000574   8C2D82E3           ORR      R2,R2,#0x2300
   \   00000578   02005AE1           CMP      R10,R2
   \   0000057C   01208213           ORRNE    R2,R2,#0x1
   \   00000580   02005A11           CMPNE    R10,R2
   \   00000584   01208212           ADDNE    R2,R2,#+1
   \   00000588   02005A11           CMPNE    R10,R2
   \   0000058C   01208213           ORRNE    R2,R2,#0x1
   \   00000590   02005A11           CMPNE    R10,R2
   \   00000594   01208212           ADDNE    R2,R2,#+1
   \   00000598   02005A11           CMPNE    R10,R2
   \   0000059C   01208213           ORRNE    R2,R2,#0x1
   \   000005A0   02005A11           CMPNE    R10,R2
   \   000005A4   01208212           ADDNE    R2,R2,#+1
   \   000005A8   02005A11           CMPNE    R10,R2
   \   000005AC   01208213           ORRNE    R2,R2,#0x1
   \   000005B0   02005A11           CMPNE    R10,R2
   \   000005B4   01208212           ADDNE    R2,R2,#+1
   \   000005B8   02005A11           CMPNE    R10,R2
   \   000005BC   3A00000A           BEQ      ??LoadConfigFromFile_103
   \   000005C0   5C20A0E3           MOV      R2,#+92
   \   000005C4   AC2D82E3           ORR      R2,R2,#0x2B00
   \   000005C8   02005AE1           CMP      R10,R2
   \   000005CC   7403000A           BEQ      ??LoadConfigFromFile_104
    494                      default:
    495                          GiveConfigWarning("Project info", InputKeyWord, ConfigString.LineCount);
   \   000005D0   94108DE2           ADD      R1,SP,#+148
   \   000005D4   E0008DE2           ADD      R0,SP,#+224
   \   000005D8   ........           _BLF     ??string,??string??rA
   \   000005DC   0B10A0E1           MOV      R1,R11
   \   000005E0   FC008DE2           ADD      R0,SP,#+252
   \   000005E4   ........           _BLF     ??AnsiString_1,??AnsiString??rA_1
   \   000005E8   1C2094E5           LDR      R2,[R4, #+28]
   \   000005EC   E0108DE2           ADD      R1,SP,#+224
   \   000005F0   ........           _BLF     ??GiveConfigWarning_1,??GiveConfigWarning??rA_1
   \   000005F4   0020A0E3           MOV      R2,#+0
   \   000005F8   0110A0E3           MOV      R1,#+1
   \   000005FC   E0008DE2           ADD      R0,SP,#+224
   \   00000600   ........           _BLF     ??_Tidy,??_Tidy??rA
   \   00000604   0020A0E3           MOV      R2,#+0
   \   00000608   0510A0E1           MOV      R1,R5
   \   0000060C   FC008DE2           ADD      R0,SP,#+252
   \   00000610   98FEFFEA           B        ??LoadConfigFromFile_6
    496                          break;
    497                      case C_AI_END:      // If AI type not found can continue with this
    498                      case C_AL_END:
    499                      case C_PRO_END:
    500                      case C_PRO_END_COMMON:
    501                      case C_PRO_END_PRO:
    502                          break;
    503                      case C_PROJ_NAME:
    504                          ProjectName = ConfigString.NextWord(ErrorLine);
   \                     ??LoadConfigFromFile_10:
   \   00000614   0030A0E3           MOV      R3,#+0
   \   00000618   0D20A0E1           MOV      R2,SP
   \   0000061C   461F8DE2           ADD      R1,SP,#+280
   \   00000620   0400A0E1           MOV      R0,R4
   \   00000624   ........           _BLF     ??NextWord,??NextWord??rA
   \   00000628   ........           LDR      R0,??DataTable44  ;; ??npos
   \   0000062C   0020A0E3           MOV      R2,#+0
   \   00000630   003090E5           LDR      R3,[R0, #+0]
   \   00000634   461F8DE2           ADD      R1,SP,#+280
   \   00000638   700F86E2           ADD      R0,R6,#+448
   \   0000063C   ........           _BLF     ??assign,??assign??rA
   \   00000640   0020A0E3           MOV      R2,#+0
   \   00000644   0110A0E3           MOV      R1,#+1
   \   00000648   460F8DE2           ADD      R0,SP,#+280
   \   0000064C   ........           _BLF     ??_Tidy,??_Tidy??rA
    505                          NoError = !ErrorLine;
   \   00000650   00009DE5           LDR      R0,[SP, #+0]
   \   00000654   000050E3           CMP      R0,#+0
   \   00000658   0100001A           BNE      ??LoadConfigFromFile_105
   \                     ??LoadConfigFromFile_106:
   \   0000065C   0190A0E3           MOV      R9,#+1
   \   00000660   730300EA           B        ??LoadConfigFromFile_5
   \                     ??LoadConfigFromFile_105:
   \   00000664   0090A0E3           MOV      R9,#+0
   \   00000668   710300EA           B        ??LoadConfigFromFile_5
    506                          break;
    507                      case C_PROJ_NUM_TCU:
    508                          {
    509                              /*int Dummy = */ConfigString.ReadLong(ErrorLine);
   \                     ??LoadConfigFromFile_11:
   \   0000066C   0020A0E3           MOV      R2,#+0
   \   00000670   0D10A0E1           MOV      R1,SP
   \   00000674   0400A0E1           MOV      R0,R4
   \   00000678   ........           _BLF     ??ReadLong,??ReadLong??rA
    510                              NoError = !ErrorLine;
   \                     ??LoadConfigFromFile_107:
   \   0000067C   00009DE5           LDR      R0,[SP, #+0]
   \   00000680   000050E3           CMP      R0,#+0
   \   00000684   F6FFFF1A           BNE      ??LoadConfigFromFile_105
   \   00000688   F3FFFFEA           B        ??LoadConfigFromFile_106
    511                          }
    512                          break;
    513                      case C_PROJ_NUM_TDU:
    514                          // Just to be backward compatible
    515                          {
    516                              /* int NumberOfTDU = */ConfigString.ReadLong(ErrorLine);
   \                     ??LoadConfigFromFile_12:
   \   0000068C   0020A0E3           MOV      R2,#+0
   \   00000690   0D10A0E1           MOV      R1,SP
   \   00000694   0400A0E1           MOV      R0,R4
   \   00000698   ........           _BLF     ??ReadLong,??ReadLong??rA
    517                              NoError = !ErrorLine;
   \   0000069C   00009DE5           LDR      R0,[SP, #+0]
   \   000006A0   000050E3           CMP      R0,#+0
   \   000006A4   ECFFFF0A           BEQ      ??LoadConfigFromFile_106
   \   000006A8   EDFFFFEA           B        ??LoadConfigFromFile_105
    518                          }
    519                          break;
    520                      case TSN_NONE_APP   :
    521                      case TSN_CARGO_APP:
    522                      case TSN_BALLAST_APP:
    523                      case TSN_SERVICE_APP:
    524                      case TSN_TANKPRESS_APP:
    525                      case TSN_LINEPRESS_APP:
    526                      case TSN_TEMP_APP:
    527                      case TSN_LEVELSWITCH_APP:
    528                      case TSN_WATERINGR_APP:
    529                          ApplicationList[NumberOfApp++] = Key;
   \                     ??LoadConfigFromFile_103:
   \   000006AC   A80098E5           LDR      R0,[R8, #+168]
   \   000006B0   011080E2           ADD      R1,R0,#+1
   \   000006B4   A81088E5           STR      R1,[R8, #+168]
   \   000006B8   000188E0           ADD      R0,R8,R0, LSL #+2
   \   000006BC   ACA080E5           STR      R10,[R0, #+172]
   \   000006C0   5B0300EA           B        ??LoadConfigFromFile_5
    530                          break;
    531                      case C_PROJ_TYPE:
    532                          ProjectType = ConfigString.ReadLong(ErrorLine);
   \                     ??LoadConfigFromFile_13:
   \   000006C4   0020A0E3           MOV      R2,#+0
   \   000006C8   0D10A0E1           MOV      R1,SP
   \   000006CC   0400A0E1           MOV      R0,R4
   \   000006D0   ........           _BLF     ??ReadLong,??ReadLong??rA
   \   000006D4   380186E5           STR      R0,[R6, #+312]
    533                          NoError = !ErrorLine;
   \   000006D8   00009DE5           LDR      R0,[SP, #+0]
   \   000006DC   000050E3           CMP      R0,#+0
   \   000006E0   0190A003           MOVEQ    R9,#+1
   \   000006E4   0090A013           MOVNE    R9,#+0
    534                          if (NoError) {
   \   000006E8   000059E3           CMP      R9,#+0
    535                              if (ProjectType == 2) {
   \   000006EC   38019615           LDRNE    R0,[R6, #+312]
   \   000006F0   02005013           CMPNE    R0,#+2
   \   000006F4   4E03000A           BEQ      ??LoadConfigFromFile_5
    536                                  switch (GlobalDeviceHWId) {
    537                                  case TDU_R1:
    538                                  case TDU_R2:
    539                                      break;
    540                                  case TCU_R1:
    541                                  case TCU_R2:
    542                                      break;
    543                                  }
    544                              } else {
    545                                  switch (GlobalDeviceHWId) {
   \   000006F8   880D9FE5           LDR      R0,??LoadConfigFromFile_108+0x4  ;; GlobalDeviceHWId
   \   000006FC   F000D0E1           LDRSH    R0,[R0, #+0]
   \   00000700   010050E3           CMP      R0,#+1
   \   00000704   4A03008A           BHI      ??LoadConfigFromFile_5
    546                                  case TDU_R1:
    547                                  case TDU_R2:
    548                                      break;
    549                                  case TCU_R1:
    550                                  case TCU_R2:
    551                                      // Activate interrupts for PWM inclinometer
    552          #ifdef S2TXU
    553                                      rEINTMASK  &= ~(BIT_SUB_EINT5 | BIT_SUB_EINT6 | BIT_SUB_EINT7 | BIT_SUB_EINT8);
   \   00000708   A400A0E3           MOV      R0,#+164
   \   0000070C   560480E3           ORR      R0,R0,#0x56000000
   \   00000710   001090E5           LDR      R1,[R0, #+0]
   \   00000714   781FC1E3           BIC      R1,R1,#0x1E0
   \                     ??LoadConfigFromFile_109:
   \   00000718   001080E5           STR      R1,[R0, #+0]
   \   0000071C   440300EA           B        ??LoadConfigFromFile_5
    554          #endif
    555                                      break;
    556                                  }
    557                              }
    558                          }
    559                          break;
    560                      case C_PRO_NAME:
    561                          Name = ConfigString.GetRemainingLine(ErrorLine);
   \                     ??LoadConfigFromFile_56:
   \   00000720   0D20A0E1           MOV      R2,SP
   \   00000724   4D1F8DE2           ADD      R1,SP,#+308
   \   00000728   0400A0E1           MOV      R0,R4
   \   0000072C   ........           _BLF     ??GetRemainingLine,??GetRemainingLine??rA
   \   00000730   ........           LDR      R0,??DataTable44  ;; ??npos
   \   00000734   0020A0E3           MOV      R2,#+0
   \   00000738   003090E5           LDR      R3,[R0, #+0]
   \   0000073C   4D1F8DE2           ADD      R1,SP,#+308
   \   00000740   440088E2           ADD      R0,R8,#+68
   \   00000744   ........           _BLF     ??assign,??assign??rA
   \   00000748   0020A0E3           MOV      R2,#+0
   \   0000074C   0110A0E3           MOV      R1,#+1
   \   00000750   4D0F8DE2           ADD      R0,SP,#+308
   \   00000754   ........           _BLF     ??_Tidy,??_Tidy??rA
    562                          NoError = !ErrorLine;
   \   00000758   C7FFFFEA           B        ??LoadConfigFromFile_107
    563                          break;
    564                      case C_PROJ_TYPE_NAME:
    565                          ProjTypeName = ConfigString.GetRemainingLine(ErrorLine);
   \                     ??LoadConfigFromFile_14:
   \   0000075C   0D20A0E1           MOV      R2,SP
   \   00000760   541F8DE2           ADD      R1,SP,#+336
   \   00000764   0400A0E1           MOV      R0,R4
   \   00000768   ........           _BLF     ??GetRemainingLine,??GetRemainingLine??rA
   \   0000076C   ........           LDR      R0,??DataTable44  ;; ??npos
   \   00000770   0020A0E3           MOV      R2,#+0
   \   00000774   003090E5           LDR      R3,[R0, #+0]
   \   00000778   541F8DE2           ADD      R1,SP,#+336
   \   0000077C   690F86E2           ADD      R0,R6,#+420
   \   00000780   ........           _BLF     ??assign,??assign??rA
   \   00000784   0020A0E3           MOV      R2,#+0
   \   00000788   0110A0E3           MOV      R1,#+1
   \   0000078C   540F8DE2           ADD      R0,SP,#+336
   \   00000790   ........           _BLF     ??_Tidy,??_Tidy??rA
    566                          NoError = !ErrorLine;
   \                     ??LoadConfigFromFile_110:
   \   00000794   00009DE5           LDR      R0,[SP, #+0]
   \   00000798   000050E3           CMP      R0,#+0
   \   0000079C   B0FFFF1A           BNE      ??LoadConfigFromFile_105
   \   000007A0   ADFFFFEA           B        ??LoadConfigFromFile_106
    567                          break;
    568                      case C_PROJ_CALLSIGN:
    569                          CallSign = ConfigString.NextWord(ErrorLine);
   \                     ??LoadConfigFromFile_15:
   \   000007A4   0030A0E3           MOV      R3,#+0
   \   000007A8   0D20A0E1           MOV      R2,SP
   \   000007AC   5B1F8DE2           ADD      R1,SP,#+364
   \   000007B0   0400A0E1           MOV      R0,R4
   \   000007B4   ........           _BLF     ??NextWord,??NextWord??rA
   \   000007B8   ........           LDR      R0,??DataTable44  ;; ??npos
   \   000007BC   0020A0E3           MOV      R2,#+0
   \   000007C0   003090E5           LDR      R3,[R0, #+0]
   \   000007C4   5B1F8DE2           ADD      R1,SP,#+364
   \   000007C8   770F86E2           ADD      R0,R6,#+476
   \   000007CC   ........           _BLF     ??assign,??assign??rA
   \   000007D0   0020A0E3           MOV      R2,#+0
   \   000007D4   0110A0E3           MOV      R1,#+1
   \   000007D8   5B0F8DE2           ADD      R0,SP,#+364
   \   000007DC   ........           _BLF     ??_Tidy,??_Tidy??rA
    570                          NoError = !ErrorLine;
   \   000007E0   A5FFFFEA           B        ??LoadConfigFromFile_107
    571                          break;
    572                      case C_PROJ_IMO_NUM:
    573                          IMONumber = ConfigString.NextWord(ErrorLine);
   \                     ??LoadConfigFromFile_16:
   \   000007E4   0030A0E3           MOV      R3,#+0
   \   000007E8   0D20A0E1           MOV      R2,SP
   \   000007EC   621F8DE2           ADD      R1,SP,#+392
   \   000007F0   0400A0E1           MOV      R0,R4
   \   000007F4   ........           _BLF     ??NextWord,??NextWord??rA
   \   000007F8   ........           LDR      R0,??DataTable44  ;; ??npos
   \   000007FC   0020A0E3           MOV      R2,#+0
   \   00000800   003090E5           LDR      R3,[R0, #+0]
   \   00000804   621F8DE2           ADD      R1,SP,#+392
   \   00000808   7E0F86E2           ADD      R0,R6,#+504
   \   0000080C   ........           _BLF     ??assign,??assign??rA
   \   00000810   0020A0E3           MOV      R2,#+0
   \   00000814   0110A0E3           MOV      R1,#+1
   \   00000818   620F8DE2           ADD      R0,SP,#+392
   \   0000081C   ........           _BLF     ??_Tidy,??_Tidy??rA
    574                          NoError = !ErrorLine;
   \   00000820   00009DE5           LDR      R0,[SP, #+0]
   \   00000824   000050E3           CMP      R0,#+0
   \   00000828   8BFFFF0A           BEQ      ??LoadConfigFromFile_106
   \   0000082C   8CFFFFEA           B        ??LoadConfigFromFile_105
    575                          break;
    576                      case C_PROJ_LENGTH_BETWEEN_PP:
    577                          LengthBetweenPP = ConfigString.ReadDouble(ErrorLine);
   \                     ??LoadConfigFromFile_17:
   \   00000830   0020A0E3           MOV      R2,#+0
   \   00000834   0D10A0E1           MOV      R1,SP
   \   00000838   0400A0E1           MOV      R0,R4
   \   0000083C   ........           _BLF     ??ReadDouble,??ReadDouble??rA
   \   00000840   ........           _BLF     __doubleToFloat,??__doubleToFloat??rA
   \   00000844   980086E5           STR      R0,[R6, #+152]
    578                          NoError = !ErrorLine;
   \   00000848   8BFFFFEA           B        ??LoadConfigFromFile_107
    579                          break;
    580                      case C_PROJ_LENGTH_BETWEEN_MARKS:
    581                          LengthBetweenMarks = ConfigString.ReadDouble(ErrorLine);
   \                     ??LoadConfigFromFile_18:
   \   0000084C   0020A0E3           MOV      R2,#+0
   \   00000850   0D10A0E1           MOV      R1,SP
   \   00000854   0400A0E1           MOV      R0,R4
   \   00000858   ........           _BLF     ??ReadDouble,??ReadDouble??rA
   \   0000085C   ........           _BLF     __doubleToFloat,??__doubleToFloat??rA
   \   00000860   9C0086E5           STR      R0,[R6, #+156]
    582                          NoError = !ErrorLine;
   \   00000864   CAFFFFEA           B        ??LoadConfigFromFile_110
    583                          break;
    584                      case C_PROJ_TOT_WITH:
    585                          Width = ConfigString.ReadDouble(ErrorLine);
   \                     ??LoadConfigFromFile_19:
   \   00000868   0020A0E3           MOV      R2,#+0
   \   0000086C   0D10A0E1           MOV      R1,SP
   \   00000870   0400A0E1           MOV      R0,R4
   \   00000874   ........           _BLF     ??ReadDouble,??ReadDouble??rA
   \   00000878   ........           _BLF     __doubleToFloat,??__doubleToFloat??rA
   \   0000087C   A00086E5           STR      R0,[R6, #+160]
    586                          NoError = !ErrorLine;
   \   00000880   7DFFFFEA           B        ??LoadConfigFromFile_107
    587                          break;
    588                      case C_PROJ_LOADING_COMPUTER    :
    589                          IntegratedLoadingComputer = true;
   \                     ??LoadConfigFromFile_20:
   \   00000884   6C51C6E5           STRB     R5,[R6, #+364]
   \   00000888   E90200EA           B        ??LoadConfigFromFile_5
    590                          break;
    591                      case C_PROJ_IS_INLAND_VESSEL    :
    592                          IsInlandVessel = true;
   \                     ??LoadConfigFromFile_22:
   \   0000088C   6D51C6E5           STRB     R5,[R6, #+365]
   \   00000890   E70200EA           B        ??LoadConfigFromFile_5
    593                          break;
    594                      case C_PROJ_IS_CUSTODY_TRANSFER_SYS:
    595                          IsCustodyTransferSys = true;
   \                     ??LoadConfigFromFile_23:
   \   00000894   6E51C6E5           STRB     R5,[R6, #+366]
   \   00000898   E50200EA           B        ??LoadConfigFromFile_5
    596                          break;
    597                      case C_PROJ_AUTO_ALARM_ACKN :
    598                          AutoAcknowledge = true;
   \                     ??LoadConfigFromFile_24:
   \   0000089C   7651C6E5           STRB     R5,[R6, #+374]
   \   000008A0   E30200EA           B        ??LoadConfigFromFile_5
    599                          break;
    600                      case C_PROJ_LOADRATE_LOAD_TIME:
    601                          TankMaxLoadTime = ConfigString.ReadDouble(ErrorLine);
   \                     ??LoadConfigFromFile_21:
   \   000008A4   0020A0E3           MOV      R2,#+0
   \   000008A8   0D10A0E1           MOV      R1,SP
   \   000008AC   0400A0E1           MOV      R0,R4
   \   000008B0   ........           _BLF     ??ReadDouble,??ReadDouble??rA
   \   000008B4   ........           _BLF     __doubleToFloat,??__doubleToFloat??rA
   \   000008B8   300186E5           STR      R0,[R6, #+304]
    602                          NoError = !ErrorLine;
   \   000008BC   00009DE5           LDR      R0,[SP, #+0]
   \   000008C0   000050E3           CMP      R0,#+0
   \   000008C4   66FFFF1A           BNE      ??LoadConfigFromFile_105
   \   000008C8   63FFFFEA           B        ??LoadConfigFromFile_106
    603                          break;
    604                      case AL_LIM_OVERFILL     :
    605                          OverfillLimit = ConfigString.ReadDouble(ErrorLine);
   \                     ??LoadConfigFromFile_63:
   \   000008CC   0020A0E3           MOV      R2,#+0
   \   000008D0   0D10A0E1           MOV      R1,SP
   \   000008D4   0400A0E1           MOV      R0,R4
   \   000008D8   ........           _BLF     ??ReadDouble,??ReadDouble??rA
   \   000008DC   ........           _BLF     __doubleToFloat,??__doubleToFloat??rA
   \   000008E0   D00086E5           STR      R0,[R6, #+208]
    606                          NoError = !ErrorLine;
   \   000008E4   AAFFFFEA           B        ??LoadConfigFromFile_110
    607                          break;
    608                      case AL_LIM_HIGHLEVEL    :
    609                          HighLevelLimit = ConfigString.ReadDouble(ErrorLine);
   \                     ??LoadConfigFromFile_64:
   \   000008E8   0020A0E3           MOV      R2,#+0
   \   000008EC   0D10A0E1           MOV      R1,SP
   \   000008F0   0400A0E1           MOV      R0,R4
   \   000008F4   ........           _BLF     ??ReadDouble,??ReadDouble??rA
   \   000008F8   ........           _BLF     __doubleToFloat,??__doubleToFloat??rA
   \   000008FC   D40086E5           STR      R0,[R6, #+212]
    610                          NoError = !ErrorLine;
   \   00000900   5DFFFFEA           B        ??LoadConfigFromFile_107
    611                          break;
    612                      case AL_LIM_LOWLEVEL     :
    613                          LowLevelLimit  = ConfigString.ReadDouble(ErrorLine);
   \                     ??LoadConfigFromFile_65:
   \   00000904   0020A0E3           MOV      R2,#+0
   \   00000908   0D10A0E1           MOV      R1,SP
   \   0000090C   0400A0E1           MOV      R0,R4
   \   00000910   ........           _BLF     ??ReadDouble,??ReadDouble??rA
   \   00000914   ........           _BLF     __doubleToFloat,??__doubleToFloat??rA
   \   00000918   D80086E5           STR      R0,[R6, #+216]
    614                          NoError = !ErrorLine;
   \                     ??LoadConfigFromFile_111:
   \   0000091C   00009DE5           LDR      R0,[SP, #+0]
   \   00000920   000050E3           CMP      R0,#+0
   \   00000924   4EFFFF1A           BNE      ??LoadConfigFromFile_105
   \   00000928   4BFFFFEA           B        ??LoadConfigFromFile_106
    615                          break;
    616                      case AL_LIM_LOWLOW_LEVEL     :
    617                          LoLoLevelLimit  = ConfigString.ReadDouble(ErrorLine);
   \                     ??LoadConfigFromFile_66:
   \   0000092C   0020A0E3           MOV      R2,#+0
   \   00000930   0D10A0E1           MOV      R1,SP
   \   00000934   0400A0E1           MOV      R0,R4
   \   00000938   ........           _BLF     ??ReadDouble,??ReadDouble??rA
   \   0000093C   ........           _BLF     __doubleToFloat,??__doubleToFloat??rA
   \   00000940   DC0086E5           STR      R0,[R6, #+220]
    618                          NoError = !ErrorLine;
   \   00000944   4CFFFFEA           B        ??LoadConfigFromFile_107
    619                          break;
    620                      case AL_LIM_VOIDSPACE     :
    621                          VoidSpaceLimit = ConfigString.ReadDouble(ErrorLine);
   \                     ??LoadConfigFromFile_85:
   \   00000948   0020A0E3           MOV      R2,#+0
   \   0000094C   0D10A0E1           MOV      R1,SP
   \   00000950   0400A0E1           MOV      R0,R4
   \   00000954   ........           _BLF     ??ReadDouble,??ReadDouble??rA
   \   00000958   ........           _BLF     __doubleToFloat,??__doubleToFloat??rA
   \   0000095C   E00086E5           STR      R0,[R6, #+224]
    622                          NoError = !ErrorLine;
   \   00000960   8BFFFFEA           B        ??LoadConfigFromFile_110
    623                          break;
    624                      case AL_LIM_LEVELDIFF     :
    625                          LevelDiffLimit = ConfigString.ReadDouble(ErrorLine);
   \                     ??LoadConfigFromFile_86:
   \   00000964   0020A0E3           MOV      R2,#+0
   \   00000968   0D10A0E1           MOV      R1,SP
   \   0000096C   0400A0E1           MOV      R0,R4
   \   00000970   ........           _BLF     ??ReadDouble,??ReadDouble??rA
   \   00000974   ........           _BLF     __doubleToFloat,??__doubleToFloat??rA
   \   00000978   E40086E5           STR      R0,[R6, #+228]
    626                          NoError = !ErrorLine;
   \   0000097C   3EFFFFEA           B        ??LoadConfigFromFile_107
    627                          break;
    628                      case AL_LIM_HIGHTEMP     :
    629                          HighTempLimit  = ConfigString.ReadDouble(ErrorLine);
   \                     ??LoadConfigFromFile_67:
   \   00000980   0020A0E3           MOV      R2,#+0
   \   00000984   0D10A0E1           MOV      R1,SP
   \   00000988   0400A0E1           MOV      R0,R4
   \   0000098C   ........           _BLF     ??ReadDouble,??ReadDouble??rA
   \   00000990   ........           _BLF     __doubleToFloat,??__doubleToFloat??rA
   \   00000994   E80086E5           STR      R0,[R6, #+232]
    630                          NoError = !ErrorLine;
   \   00000998   00009DE5           LDR      R0,[SP, #+0]
   \   0000099C   000050E3           CMP      R0,#+0
   \   000009A0   2DFFFF0A           BEQ      ??LoadConfigFromFile_106
   \   000009A4   2EFFFFEA           B        ??LoadConfigFromFile_105
    631                          break;
    632                      case AL_LIM_LOWTEMP      :
    633                          LowTempLimit   = ConfigString.ReadDouble(ErrorLine);
   \                     ??LoadConfigFromFile_68:
   \   000009A8   0020A0E3           MOV      R2,#+0
   \   000009AC   0D10A0E1           MOV      R1,SP
   \   000009B0   0400A0E1           MOV      R0,R4
   \   000009B4   ........           _BLF     ??ReadDouble,??ReadDouble??rA
   \   000009B8   ........           _BLF     __doubleToFloat,??__doubleToFloat??rA
   \   000009BC   EC0086E5           STR      R0,[R6, #+236]
    634                          NoError = !ErrorLine;
   \   000009C0   2DFFFFEA           B        ??LoadConfigFromFile_107
    635                          break;
    636                      case AL_LIM_HIGHTANK_PRESS:
    637                          HighTankPressLimit = ConfigString.ReadDouble(ErrorLine);
   \                     ??LoadConfigFromFile_69:
   \   000009C4   0020A0E3           MOV      R2,#+0
   \   000009C8   0D10A0E1           MOV      R1,SP
   \   000009CC   0400A0E1           MOV      R0,R4
   \   000009D0   ........           _BLF     ??ReadDouble,??ReadDouble??rA
   \   000009D4   ........           _BLF     __doubleToFloat,??__doubleToFloat??rA
    638                          if (PressLim_mBar) {
   \   000009D8   8411D6E5           LDRB     R1,[R6, #+388]
   \   000009DC   000051E3           CMP      R1,#+0
   \   000009E0   0400000A           BEQ      ??LoadConfigFromFile_112
    639                              HighTankPressLimit        /= MH2O_TO_MBAR;
   \   000009E4   ........           _BLF     __floatToDouble,??__floatToDouble??rA
   \   000009E8   ........           LDR      R2,??DataTable42  ;; 0xffffffff89374bc7
   \   000009EC   ........           LDR      R3,??DataTable43  ;; 0x40588441
   \   000009F0   ........           _BLF     __dDiv,??__dDiv??rA
   \   000009F4   ........           _BLF     __doubleToFloat,??__doubleToFloat??rA
   \                     ??LoadConfigFromFile_112:
   \   000009F8   F00086E5           STR      R0,[R6, #+240]
    640                          }
    641                          NoError = !ErrorLine;
   \   000009FC   64FFFFEA           B        ??LoadConfigFromFile_110
    642                          break;
    643                      case AL_LIM_LOWTANK_PRESS :
    644                          LowTankPressLimit = ConfigString.ReadDouble(ErrorLine);
   \                     ??LoadConfigFromFile_70:
   \   00000A00   0020A0E3           MOV      R2,#+0
   \   00000A04   0D10A0E1           MOV      R1,SP
   \   00000A08   0400A0E1           MOV      R0,R4
   \   00000A0C   ........           _BLF     ??ReadDouble,??ReadDouble??rA
   \   00000A10   ........           _BLF     __doubleToFloat,??__doubleToFloat??rA
    645                          if (PressLim_mBar) {
   \   00000A14   8411D6E5           LDRB     R1,[R6, #+388]
   \   00000A18   000051E3           CMP      R1,#+0
   \   00000A1C   0400000A           BEQ      ??LoadConfigFromFile_113
    646                              LowTankPressLimit         /= MH2O_TO_MBAR;
   \   00000A20   ........           _BLF     __floatToDouble,??__floatToDouble??rA
   \   00000A24   ........           LDR      R2,??DataTable42  ;; 0xffffffff89374bc7
   \   00000A28   ........           LDR      R3,??DataTable43  ;; 0x40588441
   \   00000A2C   ........           _BLF     __dDiv,??__dDiv??rA
   \   00000A30   ........           _BLF     __doubleToFloat,??__doubleToFloat??rA
   \                     ??LoadConfigFromFile_113:
   \   00000A34   040186E5           STR      R0,[R6, #+260]
    647                          }
    648                          NoError = !ErrorLine;
   \   00000A38   0FFFFFEA           B        ??LoadConfigFromFile_107
    649                          break;
    650                      case AL_LIM_HIGHVAPOUR_RET:
    651                          HighVapourRetLimit = ConfigString.ReadDouble(ErrorLine);
   \                     ??LoadConfigFromFile_71:
   \   00000A3C   0020A0E3           MOV      R2,#+0
   \   00000A40   0D10A0E1           MOV      R1,SP
   \   00000A44   0400A0E1           MOV      R0,R4
   \   00000A48   ........           _BLF     ??ReadDouble,??ReadDouble??rA
   \   00000A4C   ........           _BLF     __doubleToFloat,??__doubleToFloat??rA
    652                          if (PressLim_mBar) {
   \   00000A50   8411D6E5           LDRB     R1,[R6, #+388]
   \   00000A54   000051E3           CMP      R1,#+0
   \   00000A58   0400000A           BEQ      ??LoadConfigFromFile_114
    653                              HighVapourRetLimit        /= MH2O_TO_MBAR;
   \   00000A5C   ........           _BLF     __floatToDouble,??__floatToDouble??rA
   \   00000A60   ........           LDR      R2,??DataTable42  ;; 0xffffffff89374bc7
   \   00000A64   ........           LDR      R3,??DataTable43  ;; 0x40588441
   \   00000A68   ........           _BLF     __dDiv,??__dDiv??rA
   \   00000A6C   ........           _BLF     __doubleToFloat,??__doubleToFloat??rA
   \                     ??LoadConfigFromFile_114:
   \   00000A70   080186E5           STR      R0,[R6, #+264]
    654                          }
    655                          hasHighVapourRetLimit = true;
   \   00000A74   5951C6E5           STRB     R5,[R6, #+345]
    656                          NoError = !ErrorLine;
   \   00000A78   A7FFFFEA           B        ??LoadConfigFromFile_111
    657                          break;
    658                      case AL_LIM_LOWVAPOUR_RET :
    659                          LowVapourRetLimit = ConfigString.ReadDouble(ErrorLine);
   \                     ??LoadConfigFromFile_72:
   \   00000A7C   0020A0E3           MOV      R2,#+0
   \   00000A80   0D10A0E1           MOV      R1,SP
   \   00000A84   0400A0E1           MOV      R0,R4
   \   00000A88   ........           _BLF     ??ReadDouble,??ReadDouble??rA
   \   00000A8C   ........           _BLF     __doubleToFloat,??__doubleToFloat??rA
    660                          if (PressLim_mBar) {
   \   00000A90   8411D6E5           LDRB     R1,[R6, #+388]
   \   00000A94   000051E3           CMP      R1,#+0
   \   00000A98   0400000A           BEQ      ??LoadConfigFromFile_115
    661                              LowVapourRetLimit         /= MH2O_TO_MBAR;
   \   00000A9C   ........           _BLF     __floatToDouble,??__floatToDouble??rA
   \   00000AA0   ........           LDR      R2,??DataTable42  ;; 0xffffffff89374bc7
   \   00000AA4   ........           LDR      R3,??DataTable43  ;; 0x40588441
   \   00000AA8   ........           _BLF     __dDiv,??__dDiv??rA
   \   00000AAC   ........           _BLF     __doubleToFloat,??__doubleToFloat??rA
   \                     ??LoadConfigFromFile_115:
   \   00000AB0   0C0186E5           STR      R0,[R6, #+268]
    662                          }
    663                          hasLowVapourRetLimit  = true;
   \   00000AB4   5A51C6E5           STRB     R5,[R6, #+346]
    664                          NoError = !ErrorLine;
   \   00000AB8   EFFEFFEA           B        ??LoadConfigFromFile_107
    665                          break;
    666                      case AL_LIM_HIGH_PV_PRESS   :
    667                          HighPressVacLimit = ConfigString.ReadDouble(ErrorLine);
   \                     ??LoadConfigFromFile_76:
   \   00000ABC   0020A0E3           MOV      R2,#+0
   \   00000AC0   0D10A0E1           MOV      R1,SP
   \   00000AC4   0400A0E1           MOV      R0,R4
   \   00000AC8   ........           _BLF     ??ReadDouble,??ReadDouble??rA
   \   00000ACC   ........           _BLF     __doubleToFloat,??__doubleToFloat??rA
    668                          if (PressLim_mBar) {
   \   00000AD0   8411D6E5           LDRB     R1,[R6, #+388]
   \   00000AD4   000051E3           CMP      R1,#+0
   \   00000AD8   0400000A           BEQ      ??LoadConfigFromFile_116
    669                              HighPressVacLimit         /= MH2O_TO_MBAR;
   \   00000ADC   ........           _BLF     __floatToDouble,??__floatToDouble??rA
   \   00000AE0   ........           LDR      R2,??DataTable42  ;; 0xffffffff89374bc7
   \   00000AE4   ........           LDR      R3,??DataTable43  ;; 0x40588441
   \   00000AE8   ........           _BLF     __dDiv,??__dDiv??rA
   \   00000AEC   ........           _BLF     __doubleToFloat,??__doubleToFloat??rA
   \                     ??LoadConfigFromFile_116:
   \   00000AF0   100186E5           STR      R0,[R6, #+272]
    670                          }
    671                          hasHighPressVacLimit   = true;
   \   00000AF4   5B51C6E5           STRB     R5,[R6, #+347]
    672                          NoError = !ErrorLine;
   \   00000AF8   25FFFFEA           B        ??LoadConfigFromFile_110
    673                          break;
    674                      case AL_LIM_LOW_PV_PRESS    :
    675                          LowPressVacLimit = ConfigString.ReadDouble(ErrorLine);
   \                     ??LoadConfigFromFile_77:
   \   00000AFC   0020A0E3           MOV      R2,#+0
   \   00000B00   0D10A0E1           MOV      R1,SP
   \   00000B04   0400A0E1           MOV      R0,R4
   \   00000B08   ........           _BLF     ??ReadDouble,??ReadDouble??rA
   \   00000B0C   ........           _BLF     __doubleToFloat,??__doubleToFloat??rA
    676                          if (PressLim_mBar) {
   \   00000B10   8411D6E5           LDRB     R1,[R6, #+388]
   \   00000B14   000051E3           CMP      R1,#+0
   \   00000B18   0400000A           BEQ      ??LoadConfigFromFile_117
    677                              LowPressVacLimit          /= MH2O_TO_MBAR;
   \   00000B1C   ........           _BLF     __floatToDouble,??__floatToDouble??rA
   \   00000B20   ........           LDR      R2,??DataTable42  ;; 0xffffffff89374bc7
   \   00000B24   ........           LDR      R3,??DataTable43  ;; 0x40588441
   \   00000B28   ........           _BLF     __dDiv,??__dDiv??rA
   \   00000B2C   ........           _BLF     __doubleToFloat,??__doubleToFloat??rA
   \                     ??LoadConfigFromFile_117:
   \   00000B30   140186E5           STR      R0,[R6, #+276]
    678                          }
    679                          hasLowPressVacLimit    = true;
   \   00000B34   5C51C6E5           STRB     R5,[R6, #+348]
    680                          NoError = !ErrorLine;
   \   00000B38   CFFEFFEA           B        ??LoadConfigFromFile_107
    681                          break;
    682                      case AL_LIM_HIGH_IG_PRESS   :
    683                          HighIGP_Limit = ConfigString.ReadDouble(ErrorLine);
   \                     ??LoadConfigFromFile_78:
   \   00000B3C   0020A0E3           MOV      R2,#+0
   \   00000B40   0D10A0E1           MOV      R1,SP
   \   00000B44   0400A0E1           MOV      R0,R4
   \   00000B48   ........           _BLF     ??ReadDouble,??ReadDouble??rA
   \   00000B4C   ........           _BLF     __doubleToFloat,??__doubleToFloat??rA
    684                          if (PressLim_mBar) {
   \   00000B50   8411D6E5           LDRB     R1,[R6, #+388]
   \   00000B54   000051E3           CMP      R1,#+0
   \   00000B58   0400000A           BEQ      ??LoadConfigFromFile_118
    685                              HighIGP_Limit             /= MH2O_TO_MBAR;
   \   00000B5C   ........           _BLF     __floatToDouble,??__floatToDouble??rA
   \   00000B60   ........           LDR      R2,??DataTable42  ;; 0xffffffff89374bc7
   \   00000B64   ........           LDR      R3,??DataTable43  ;; 0x40588441
   \   00000B68   ........           _BLF     __dDiv,??__dDiv??rA
   \   00000B6C   ........           _BLF     __doubleToFloat,??__doubleToFloat??rA
   \                     ??LoadConfigFromFile_118:
   \   00000B70   180186E5           STR      R0,[R6, #+280]
    686                          }
    687                          hasHighIGP_Limit   = true;
   \   00000B74   5D51C6E5           STRB     R5,[R6, #+349]
    688                          NoError = !ErrorLine;
   \   00000B78   00009DE5           LDR      R0,[SP, #+0]
   \   00000B7C   000050E3           CMP      R0,#+0
   \   00000B80   B7FEFF1A           BNE      ??LoadConfigFromFile_105
   \   00000B84   B4FEFFEA           B        ??LoadConfigFromFile_106
    689                          break;
    690                      case AL_LIM_LOW_IG_PRESS    :
    691                          LowIGP_Limit = ConfigString.ReadDouble(ErrorLine);
   \                     ??LoadConfigFromFile_79:
   \   00000B88   0020A0E3           MOV      R2,#+0
   \   00000B8C   0D10A0E1           MOV      R1,SP
   \   00000B90   0400A0E1           MOV      R0,R4
   \   00000B94   ........           _BLF     ??ReadDouble,??ReadDouble??rA
   \   00000B98   ........           _BLF     __doubleToFloat,??__doubleToFloat??rA
    692                          if (PressLim_mBar) {
   \   00000B9C   8411D6E5           LDRB     R1,[R6, #+388]
   \   00000BA0   000051E3           CMP      R1,#+0
   \   00000BA4   0400000A           BEQ      ??LoadConfigFromFile_119
    693                              LowIGP_Limit              /= MH2O_TO_MBAR;
   \   00000BA8   ........           _BLF     __floatToDouble,??__floatToDouble??rA
   \   00000BAC   ........           LDR      R2,??DataTable42  ;; 0xffffffff89374bc7
   \   00000BB0   ........           LDR      R3,??DataTable43  ;; 0x40588441
   \   00000BB4   ........           _BLF     __dDiv,??__dDiv??rA
   \   00000BB8   ........           _BLF     __doubleToFloat,??__doubleToFloat??rA
   \                     ??LoadConfigFromFile_119:
   \   00000BBC   1C0186E5           STR      R0,[R6, #+284]
    694                          }
    695                          hasLowIGP_Limit    = true;
   \   00000BC0   5E51C6E5           STRB     R5,[R6, #+350]
    696                          NoError = !ErrorLine;
   \   00000BC4   ACFEFFEA           B        ??LoadConfigFromFile_107
    697                          break;
    698                      case AL_LIM_HIGHHIGHLINE_PRESS:
    699                          HiHiLinePressLimit = ConfigString.ReadDouble(ErrorLine);
   \                     ??LoadConfigFromFile_73:
   \   00000BC8   0020A0E3           MOV      R2,#+0
   \   00000BCC   0D10A0E1           MOV      R1,SP
   \   00000BD0   0400A0E1           MOV      R0,R4
   \   00000BD4   ........           _BLF     ??ReadDouble,??ReadDouble??rA
   \   00000BD8   ........           _BLF     __doubleToFloat,??__doubleToFloat??rA
    700                          if (PressLim_mBar) {
   \   00000BDC   8411D6E5           LDRB     R1,[R6, #+388]
   \   00000BE0   000051E3           CMP      R1,#+0
   \   00000BE4   0400000A           BEQ      ??LoadConfigFromFile_120
    701                              HiHiLinePressLimit        /= MH2O_TO_MBAR;
   \   00000BE8   ........           _BLF     __floatToDouble,??__floatToDouble??rA
   \   00000BEC   ........           LDR      R2,??DataTable42  ;; 0xffffffff89374bc7
   \   00000BF0   ........           LDR      R3,??DataTable43  ;; 0x40588441
   \   00000BF4   ........           _BLF     __dDiv,??__dDiv??rA
   \   00000BF8   ........           _BLF     __doubleToFloat,??__doubleToFloat??rA
   \                     ??LoadConfigFromFile_120:
   \   00000BFC   200186E5           STR      R0,[R6, #+288]
    702                          }
    703                          NoError = !ErrorLine;
   \   00000C00   E3FEFFEA           B        ??LoadConfigFromFile_110
    704                          break;
    705                      case AL_LIM_HIGHLINE_PRESS:
    706                          HighLinePressLimit = ConfigString.ReadDouble(ErrorLine);
   \                     ??LoadConfigFromFile_74:
   \   00000C04   0020A0E3           MOV      R2,#+0
   \   00000C08   0D10A0E1           MOV      R1,SP
   \   00000C0C   0400A0E1           MOV      R0,R4
   \   00000C10   ........           _BLF     ??ReadDouble,??ReadDouble??rA
   \   00000C14   ........           _BLF     __doubleToFloat,??__doubleToFloat??rA
    707                          if (PressLim_mBar) {
   \   00000C18   8411D6E5           LDRB     R1,[R6, #+388]
   \   00000C1C   000051E3           CMP      R1,#+0
   \   00000C20   0400000A           BEQ      ??LoadConfigFromFile_121
    708                              HighLinePressLimit        /= MH2O_TO_MBAR;
   \   00000C24   ........           _BLF     __floatToDouble,??__floatToDouble??rA
   \   00000C28   ........           LDR      R2,??DataTable42  ;; 0xffffffff89374bc7
   \   00000C2C   ........           LDR      R3,??DataTable43  ;; 0x40588441
   \   00000C30   ........           _BLF     __dDiv,??__dDiv??rA
   \   00000C34   ........           _BLF     __doubleToFloat,??__doubleToFloat??rA
   \                     ??LoadConfigFromFile_121:
   \   00000C38   240186E5           STR      R0,[R6, #+292]
    709                          }
    710                          NoError = !ErrorLine;
   \   00000C3C   8EFEFFEA           B        ??LoadConfigFromFile_107
    711                          break;
    712                      case AL_LIM_LOWLINE_PRESS :
    713                          LowLinePressLimit = ConfigString.ReadDouble(ErrorLine);
   \                     ??LoadConfigFromFile_75:
   \   00000C40   0020A0E3           MOV      R2,#+0
   \   00000C44   0D10A0E1           MOV      R1,SP
   \   00000C48   0400A0E1           MOV      R0,R4
   \   00000C4C   ........           _BLF     ??ReadDouble,??ReadDouble??rA
   \   00000C50   ........           _BLF     __doubleToFloat,??__doubleToFloat??rA
    714                          if (PressLim_mBar) {
   \   00000C54   8411D6E5           LDRB     R1,[R6, #+388]
   \   00000C58   000051E3           CMP      R1,#+0
   \   00000C5C   0400000A           BEQ      ??LoadConfigFromFile_122
    715                              LowLinePressLimit         /= MH2O_TO_MBAR;
   \   00000C60   ........           _BLF     __floatToDouble,??__floatToDouble??rA
   \   00000C64   ........           LDR      R2,??DataTable42  ;; 0xffffffff89374bc7
   \   00000C68   ........           LDR      R3,??DataTable43  ;; 0x40588441
   \   00000C6C   ........           _BLF     __dDiv,??__dDiv??rA
   \   00000C70   ........           _BLF     __doubleToFloat,??__doubleToFloat??rA
   \                     ??LoadConfigFromFile_122:
   \   00000C74   280186E5           STR      R0,[R6, #+296]
    716                          }
    717                          NoError = !ErrorLine;
   \   00000C78   27FFFFEA           B        ??LoadConfigFromFile_111
    718                          break;
    719                      case AL_LIM_X_HI_TNK_PRESS1:
    720                          IntHighTankPressLimit1 = ConfigString.ReadDouble(ErrorLine);
   \                     ??LoadConfigFromFile_80:
   \   00000C7C   0020A0E3           MOV      R2,#+0
   \   00000C80   0D10A0E1           MOV      R1,SP
   \   00000C84   0400A0E1           MOV      R0,R4
   \   00000C88   ........           _BLF     ??ReadDouble,??ReadDouble??rA
   \   00000C8C   ........           _BLF     __doubleToFloat,??__doubleToFloat??rA
    721                          if (PressLim_mBar) {
   \   00000C90   8411D6E5           LDRB     R1,[R6, #+388]
   \   00000C94   000051E3           CMP      R1,#+0
   \   00000C98   0400000A           BEQ      ??LoadConfigFromFile_123
    722                              IntHighTankPressLimit1    /= MH2O_TO_MBAR;
   \   00000C9C   ........           _BLF     __floatToDouble,??__floatToDouble??rA
   \   00000CA0   ........           LDR      R2,??DataTable42  ;; 0xffffffff89374bc7
   \   00000CA4   ........           LDR      R3,??DataTable43  ;; 0x40588441
   \   00000CA8   ........           _BLF     __dDiv,??__dDiv??rA
   \   00000CAC   ........           _BLF     __doubleToFloat,??__doubleToFloat??rA
   \                     ??LoadConfigFromFile_123:
   \   00000CB0   F80086E5           STR      R0,[R6, #+248]
    723                          }
    724                          NoError = !ErrorLine;
   \   00000CB4   70FEFFEA           B        ??LoadConfigFromFile_107
    725                          break;
    726                      case AL_LIM_X_LO_TNK_PRESS1 :
    727                          IntLowTankPressLimit1 = ConfigString.ReadDouble(ErrorLine);
   \                     ??LoadConfigFromFile_81:
   \   00000CB8   0020A0E3           MOV      R2,#+0
   \   00000CBC   0D10A0E1           MOV      R1,SP
   \   00000CC0   0400A0E1           MOV      R0,R4
   \   00000CC4   ........           _BLF     ??ReadDouble,??ReadDouble??rA
   \   00000CC8   ........           _BLF     __doubleToFloat,??__doubleToFloat??rA
    728                          if (PressLim_mBar) {
   \   00000CCC   8411D6E5           LDRB     R1,[R6, #+388]
   \   00000CD0   000051E3           CMP      R1,#+0
   \   00000CD4   0400000A           BEQ      ??LoadConfigFromFile_124
    729                              IntLowTankPressLimit1     /= MH2O_TO_MBAR;
   \   00000CD8   ........           _BLF     __floatToDouble,??__floatToDouble??rA
   \   00000CDC   ........           LDR      R2,??DataTable42  ;; 0xffffffff89374bc7
   \   00000CE0   ........           LDR      R3,??DataTable43  ;; 0x40588441
   \   00000CE4   ........           _BLF     __dDiv,??__dDiv??rA
   \   00000CE8   ........           _BLF     __doubleToFloat,??__doubleToFloat??rA
   \                     ??LoadConfigFromFile_124:
   \   00000CEC   F40086E5           STR      R0,[R6, #+244]
    730                          }
    731                          NoError = !ErrorLine;
   \   00000CF0   A7FEFFEA           B        ??LoadConfigFromFile_110
    732                          break;
    733                      case AL_LIM_X_HI_TNK_PRESS2:
    734                          IntHighTankPressLimit2 = ConfigString.ReadDouble(ErrorLine);
   \                     ??LoadConfigFromFile_82:
   \   00000CF4   0020A0E3           MOV      R2,#+0
   \   00000CF8   0D10A0E1           MOV      R1,SP
   \   00000CFC   0400A0E1           MOV      R0,R4
   \   00000D00   ........           _BLF     ??ReadDouble,??ReadDouble??rA
   \   00000D04   ........           _BLF     __doubleToFloat,??__doubleToFloat??rA
    735                          if (PressLim_mBar) {
   \   00000D08   8411D6E5           LDRB     R1,[R6, #+388]
   \   00000D0C   000051E3           CMP      R1,#+0
   \   00000D10   0400000A           BEQ      ??LoadConfigFromFile_125
    736                              IntHighTankPressLimit2    /= MH2O_TO_MBAR;
   \   00000D14   ........           _BLF     __floatToDouble,??__floatToDouble??rA
   \   00000D18   ........           LDR      R2,??DataTable42  ;; 0xffffffff89374bc7
   \   00000D1C   ........           LDR      R3,??DataTable43  ;; 0x40588441
   \   00000D20   ........           _BLF     __dDiv,??__dDiv??rA
   \   00000D24   ........           _BLF     __doubleToFloat,??__doubleToFloat??rA
   \                     ??LoadConfigFromFile_125:
   \   00000D28   000186E5           STR      R0,[R6, #+256]
    737                          }
    738                          NoError = !ErrorLine;
   \   00000D2C   52FEFFEA           B        ??LoadConfigFromFile_107
    739                          break;
    740                      case AL_LIM_X_LO_TNK_PRESS2 :
    741                          IntLowTankPressLimit2 = ConfigString.ReadDouble(ErrorLine);
   \                     ??LoadConfigFromFile_83:
   \   00000D30   0020A0E3           MOV      R2,#+0
   \   00000D34   0D10A0E1           MOV      R1,SP
   \   00000D38   0400A0E1           MOV      R0,R4
   \   00000D3C   ........           _BLF     ??ReadDouble,??ReadDouble??rA
   \   00000D40   ........           _BLF     __doubleToFloat,??__doubleToFloat??rA
    742                          if (PressLim_mBar) {
   \   00000D44   8411D6E5           LDRB     R1,[R6, #+388]
   \   00000D48   000051E3           CMP      R1,#+0
   \   00000D4C   0400000A           BEQ      ??LoadConfigFromFile_126
    743                              IntLowTankPressLimit2     /= MH2O_TO_MBAR;
   \   00000D50   ........           _BLF     __floatToDouble,??__floatToDouble??rA
   \   00000D54   ........           LDR      R2,??DataTable42  ;; 0xffffffff89374bc7
   \   00000D58   ........           LDR      R3,??DataTable43  ;; 0x40588441
   \   00000D5C   ........           _BLF     __dDiv,??__dDiv??rA
   \   00000D60   ........           _BLF     __doubleToFloat,??__doubleToFloat??rA
   \                     ??LoadConfigFromFile_126:
   \   00000D64   FC0086E5           STR      R0,[R6, #+252]
    744                          }
    745                          NoError = !ErrorLine;
   \   00000D68   00009DE5           LDR      R0,[SP, #+0]
   \   00000D6C   000050E3           CMP      R0,#+0
   \   00000D70   39FEFF0A           BEQ      ??LoadConfigFromFile_106
   \   00000D74   0090A0E3           MOV      R9,#+0
   \   00000D78   AD0100EA           B        ??LoadConfigFromFile_5
    746                          break;
    747                      case AL_LIM_HAS_LOLO_LEVEL:
    748                          hasLoLoLevelLimit = true;
   \                     ??LoadConfigFromFile_84:
   \   00000D7C   5F51C6E5           STRB     R5,[R6, #+351]
   \   00000D80   AB0100EA           B        ??LoadConfigFromFile_5
    749                          break;
    750                      case AL_LOCK_OVERFILL     :
    751                          OverfillLocked = true;
   \                     ??LoadConfigFromFile_87:
   \   00000D84   6051C6E5           STRB     R5,[R6, #+352]
   \   00000D88   A90100EA           B        ??LoadConfigFromFile_5
    752                          break;
    753                      case AL_UNLOCK_OVERFILL     :
    754                          OverfillLocked = false;
   \                     ??LoadConfigFromFile_99:
   \   00000D8C   0000A0E3           MOV      R0,#+0
   \   00000D90   6001C6E5           STRB     R0,[R6, #+352]
   \   00000D94   A60100EA           B        ??LoadConfigFromFile_5
    755                          break;
    756                      case AL_LOCK_HIGHLEVEL    :
    757                          HighLevelLocked = true;
   \                     ??LoadConfigFromFile_88:
   \   00000D98   6151C6E5           STRB     R5,[R6, #+353]
   \   00000D9C   A40100EA           B        ??LoadConfigFromFile_5
    758                          break;
    759                      case AL_LOCK_LOWLEVEL     :
    760                          LowLevelLocked = true;
   \                     ??LoadConfigFromFile_89:
   \   00000DA0   6251C6E5           STRB     R5,[R6, #+354]
   \   00000DA4   A20100EA           B        ??LoadConfigFromFile_5
    761                          break;
    762                      case AL_LOCK_LOWLOWLEVEL     :
    763                          LowLowLevelLocked = true;
   \                     ??LoadConfigFromFile_90:
   \   00000DA8   6351C6E5           STRB     R5,[R6, #+355]
   \   00000DAC   A00100EA           B        ??LoadConfigFromFile_5
    764                          break;
    765                      case AL_LOCK_HIGHTEMP     :
    766                          HighTempLocked = true;
   \                     ??LoadConfigFromFile_91:
   \   00000DB0   6451C6E5           STRB     R5,[R6, #+356]
   \   00000DB4   9E0100EA           B        ??LoadConfigFromFile_5
    767                          break;
    768                      case AL_LOCK_LOWTEMP      :
    769                          LowTempLocked = true;
   \                     ??LoadConfigFromFile_92:
   \   00000DB8   6551C6E5           STRB     R5,[R6, #+357]
   \   00000DBC   9C0100EA           B        ??LoadConfigFromFile_5
    770                          break;
    771                      case AL_LOCK_HIGHTANK_PRESS:
    772                          HighTankPressLocked = true;
   \                     ??LoadConfigFromFile_93:
   \   00000DC0   6651C6E5           STRB     R5,[R6, #+358]
   \   00000DC4   9A0100EA           B        ??LoadConfigFromFile_5
    773                          break;
    774                      case AL_LOCK_LOWTANK_PRESS :
    775                          LowTankPressLocked = true;
   \                     ??LoadConfigFromFile_94:
   \   00000DC8   6751C6E5           STRB     R5,[R6, #+359]
   \   00000DCC   980100EA           B        ??LoadConfigFromFile_5
    776                          break;
    777                      case AL_LOCK_HIGH_IGP      :
    778                          HighIGP_Locked = true;
   \                     ??LoadConfigFromFile_95:
   \   00000DD0   6851C6E5           STRB     R5,[R6, #+360]
   \   00000DD4   960100EA           B        ??LoadConfigFromFile_5
    779                          break;
    780                      case AL_LOCK_LOW_IGP       :
    781                          LowIGP_Locked = true;
   \                     ??LoadConfigFromFile_96:
   \   00000DD8   6951C6E5           STRB     R5,[R6, #+361]
   \   00000DDC   940100EA           B        ??LoadConfigFromFile_5
    782                          break;
    783                      case AL_LOCK_HIGHLINE_PRESS:
    784                          HighLinePressLocked = true;
   \                     ??LoadConfigFromFile_97:
   \   00000DE0   6A51C6E5           STRB     R5,[R6, #+362]
   \   00000DE4   920100EA           B        ??LoadConfigFromFile_5
    785                          break;
    786                      case AL_LOCK_LOWLINE_PRESS :
    787                          LowLinePressLocked = true;
   \                     ??LoadConfigFromFile_98:
   \   00000DE8   6B51C6E5           STRB     R5,[R6, #+363]
   \   00000DEC   900100EA           B        ??LoadConfigFromFile_5
    788                          break;
    789                      case C_NOISE_LIM_CARGO_B    :
    790                          NoiseLimCargoB = ConfigString.ReadDouble(ErrorLine);
   \                     ??LoadConfigFromFile_39:
   \   00000DF0   0020A0E3           MOV      R2,#+0
   \   00000DF4   0D10A0E1           MOV      R1,SP
   \   00000DF8   0400A0E1           MOV      R0,R4
   \   00000DFC   ........           _BLF     ??ReadDouble,??ReadDouble??rA
   \   00000E00   ........           _BLF     __doubleToFloat,??__doubleToFloat??rA
   \   00000E04   B00086E5           STR      R0,[R6, #+176]
   \   00000E08   890100EA           B        ??LoadConfigFromFile_5
    791                          break;
    792                      case C_NOISE_LIM_CARGO_U    :
    793                          NoiseLimCargoU = ConfigString.ReadDouble(ErrorLine);
   \                     ??LoadConfigFromFile_40:
   \   00000E0C   0020A0E3           MOV      R2,#+0
   \   00000E10   0D10A0E1           MOV      R1,SP
   \   00000E14   0400A0E1           MOV      R0,R4
   \   00000E18   ........           _BLF     ??ReadDouble,??ReadDouble??rA
   \   00000E1C   ........           _BLF     __doubleToFloat,??__doubleToFloat??rA
   \   00000E20   B40086E5           STR      R0,[R6, #+180]
   \   00000E24   820100EA           B        ??LoadConfigFromFile_5
    794                          break;
    795                      case C_NOISE_LIM_BALLAST_B  :
    796                          NoiseLimBallastB = ConfigString.ReadDouble(ErrorLine);
   \                     ??LoadConfigFromFile_41:
   \   00000E28   0020A0E3           MOV      R2,#+0
   \   00000E2C   0D10A0E1           MOV      R1,SP
   \   00000E30   0400A0E1           MOV      R0,R4
   \   00000E34   ........           _BLF     ??ReadDouble,??ReadDouble??rA
   \   00000E38   ........           _BLF     __doubleToFloat,??__doubleToFloat??rA
   \   00000E3C   B80086E5           STR      R0,[R6, #+184]
   \   00000E40   7B0100EA           B        ??LoadConfigFromFile_5
    797                          break;
    798                      case C_NOISE_LIM_BALLAST_U  :
    799                          NoiseLimBallastU = ConfigString.ReadDouble(ErrorLine);
   \                     ??LoadConfigFromFile_42:
   \   00000E44   0020A0E3           MOV      R2,#+0
   \   00000E48   0D10A0E1           MOV      R1,SP
   \   00000E4C   0400A0E1           MOV      R0,R4
   \   00000E50   ........           _BLF     ??ReadDouble,??ReadDouble??rA
   \   00000E54   ........           _BLF     __doubleToFloat,??__doubleToFloat??rA
   \   00000E58   BC0086E5           STR      R0,[R6, #+188]
   \   00000E5C   740100EA           B        ??LoadConfigFromFile_5
    800                          break;
    801                      case C_NOISE_LIM_SERVICE_B  :
    802                          NoiseLimServiceB = ConfigString.ReadDouble(ErrorLine);
   \                     ??LoadConfigFromFile_43:
   \   00000E60   0020A0E3           MOV      R2,#+0
   \   00000E64   0D10A0E1           MOV      R1,SP
   \   00000E68   0400A0E1           MOV      R0,R4
   \   00000E6C   ........           _BLF     ??ReadDouble,??ReadDouble??rA
   \   00000E70   ........           _BLF     __doubleToFloat,??__doubleToFloat??rA
   \   00000E74   C00086E5           STR      R0,[R6, #+192]
   \   00000E78   6D0100EA           B        ??LoadConfigFromFile_5
    803                          break;
    804                      case C_NOISE_LIM_SERVICE_U  :
    805                          NoiseLimServiceU = ConfigString.ReadDouble(ErrorLine);
   \                     ??LoadConfigFromFile_44:
   \   00000E7C   0020A0E3           MOV      R2,#+0
   \   00000E80   0D10A0E1           MOV      R1,SP
   \   00000E84   0400A0E1           MOV      R0,R4
   \   00000E88   ........           _BLF     ??ReadDouble,??ReadDouble??rA
   \   00000E8C   ........           _BLF     __doubleToFloat,??__doubleToFloat??rA
   \   00000E90   C40086E5           STR      R0,[R6, #+196]
   \   00000E94   660100EA           B        ??LoadConfigFromFile_5
    806                          break;
    807                      case C_NOISE_LIM_RADAR      :
    808                          NoiseLimDefaultR  = ConfigString.ReadDouble(ErrorLine);
   \                     ??LoadConfigFromFile_45:
   \   00000E98   0020A0E3           MOV      R2,#+0
   \   00000E9C   0D10A0E1           MOV      R1,SP
   \   00000EA0   0400A0E1           MOV      R0,R4
   \   00000EA4   ........           _BLF     ??ReadDouble,??ReadDouble??rA
   \   00000EA8   ........           _BLF     __doubleToFloat,??__doubleToFloat??rA
   \   00000EAC   C80086E5           STR      R0,[R6, #+200]
   \   00000EB0   5F0100EA           B        ??LoadConfigFromFile_5
    809                          break;
    810                      case C_NOISE_LIM_VOIDSPACE  :
    811                          NoiseLimVoidSpace = ConfigString.ReadDouble(ErrorLine);
   \                     ??LoadConfigFromFile_46:
   \   00000EB4   0020A0E3           MOV      R2,#+0
   \   00000EB8   0D10A0E1           MOV      R1,SP
   \   00000EBC   0400A0E1           MOV      R0,R4
   \   00000EC0   ........           _BLF     ??ReadDouble,??ReadDouble??rA
   \   00000EC4   ........           _BLF     __doubleToFloat,??__doubleToFloat??rA
   \   00000EC8   CC0086E5           STR      R0,[R6, #+204]
   \   00000ECC   580100EA           B        ??LoadConfigFromFile_5
    812                          break;
    813                      case C_AI_CABLE_RES_SHIP   :
    814                          hasCableResistanceShip = true;
   \                     ??LoadConfigFromFile_61:
   \   00000ED0   7951C6E5           STRB     R5,[R6, #+377]
    815                          CableResistanceShip    = ConfigString.ReadDouble(ErrorLine);
   \   00000ED4   0020A0E3           MOV      R2,#+0
   \   00000ED8   0D10A0E1           MOV      R1,SP
   \   00000EDC   0400A0E1           MOV      R0,R4
   \   00000EE0   ........           _BLF     ??ReadDouble,??ReadDouble??rA
   \   00000EE4   ........           _BLF     __doubleToFloat,??__doubleToFloat??rA
   \   00000EE8   3C0186E5           STR      R0,[R6, #+316]
    816                          NoError = !ErrorLine;
   \   00000EEC   E2FDFFEA           B        ??LoadConfigFromFile_107
    817                          break;
    818                      case C_AI_CABLE_RES_SENS   :
    819                          hasCableResistanceSensor = true;
   \                     ??LoadConfigFromFile_62:
   \   00000EF0   7A51C6E5           STRB     R5,[R6, #+378]
    820                          CableResistanceSensor    = ConfigString.ReadDouble(ErrorLine);
   \   00000EF4   0020A0E3           MOV      R2,#+0
   \   00000EF8   0D10A0E1           MOV      R1,SP
   \   00000EFC   0400A0E1           MOV      R0,R4
   \   00000F00   ........           _BLF     ??ReadDouble,??ReadDouble??rA
   \   00000F04   ........           _BLF     __doubleToFloat,??__doubleToFloat??rA
   \   00000F08   400186E5           STR      R0,[R6, #+320]
    821                          NoError = !ErrorLine;
   \   00000F0C   20FEFFEA           B        ??LoadConfigFromFile_110
    822                          break;
    823                      case C_T_TEMP_WINDOW_COUNT  :
    824                          UseTemperatureWindow     = true;
   \                     ??LoadConfigFromFile_59:
   \   00000F10   7B51C6E5           STRB     R5,[R6, #+379]
    825                          TemperatureWindowMaxCnt  = ConfigString.ReadLong(ErrorLine);
   \   00000F14   0020A0E3           MOV      R2,#+0
   \   00000F18   0D10A0E1           MOV      R1,SP
   \   00000F1C   0400A0E1           MOV      R0,R4
   \   00000F20   ........           _BLF     ??ReadLong,??ReadLong??rA
   \   00000F24   440186E5           STR      R0,[R6, #+324]
    826                          NoError = !ErrorLine;
   \   00000F28   D3FDFFEA           B        ??LoadConfigFromFile_107
    827                          break;
    828                      case C_T_TEMP_WINDOW_LIMIT  :
    829                          UseTemperatureWindow     = true;
   \                     ??LoadConfigFromFile_60:
   \   00000F2C   7B51C6E5           STRB     R5,[R6, #+379]
    830                          TemperatureWindowTmpLim    = ConfigString.ReadDouble(ErrorLine);
   \   00000F30   0020A0E3           MOV      R2,#+0
   \   00000F34   0D10A0E1           MOV      R1,SP
   \   00000F38   0400A0E1           MOV      R0,R4
   \   00000F3C   ........           _BLF     ??ReadDouble,??ReadDouble??rA
   \   00000F40   ........           _BLF     __doubleToFloat,??__doubleToFloat??rA
   \   00000F44   480186E5           STR      R0,[R6, #+328]
    831                          NoError = !ErrorLine;
   \   00000F48   73FEFFEA           B        ??LoadConfigFromFile_111
    832                          break;
    833                      case C_L_ENGLISH    :
    834                          L_English   = true;
   \                     ??LoadConfigFromFile_47:
   \   00000F4C   6F51C6E5           STRB     R5,[R6, #+367]
    835                          EnableLanguage(L_ENGLISH);
   \   00000F50   0000A0E3           MOV      R0,#+0
   \                     ??LoadConfigFromFile_127:
   \   00000F54   ........           _BLF     ??EnableLanguage,??EnableLanguage??rA
   \   00000F58   350100EA           B        ??LoadConfigFromFile_5
    836                          break;
    837                      case C_L_NORWEGIAN  :
    838                          L_Norwegian = true;
   \                     ??LoadConfigFromFile_48:
   \   00000F5C   7051C6E5           STRB     R5,[R6, #+368]
    839                          EnableLanguage(L_NORWEGIAN);
   \   00000F60   0100A0E3           MOV      R0,#+1
   \   00000F64   FAFFFFEA           B        ??LoadConfigFromFile_127
    840                          break;
    841                      case C_L_GERMAN     :
    842                          L_German    = true;
   \                     ??LoadConfigFromFile_49:
   \   00000F68   7151C6E5           STRB     R5,[R6, #+369]
    843                          EnableLanguage(L_GERMAN);
   \   00000F6C   0200A0E3           MOV      R0,#+2
   \   00000F70   F7FFFFEA           B        ??LoadConfigFromFile_127
    844                          break;
    845                      case C_L_DUTCH     :
    846                          L_Dutch    = true;
   \                     ??LoadConfigFromFile_50:
   \   00000F74   7551C6E5           STRB     R5,[R6, #+373]
    847                          EnableLanguage(L_DUTCH);
   \   00000F78   0300A0E3           MOV      R0,#+3
   \   00000F7C   F4FFFFEA           B        ??LoadConfigFromFile_127
    848                          break;
    849                      case C_L_FRENCH     :
    850                          L_French    = true;
   \                     ??LoadConfigFromFile_51:
   \   00000F80   7251C6E5           STRB     R5,[R6, #+370]
    851                          EnableLanguage(L_FRENCH);
   \   00000F84   000065E2           RSB      R0,R5,#+0
   \   00000F88   F1FFFFEA           B        ??LoadConfigFromFile_127
    852                          break;
    853                      case C_L_SPANISH    :
    854                          L_Spanish   = true;
   \                     ??LoadConfigFromFile_52:
   \   00000F8C   7351C6E5           STRB     R5,[R6, #+371]
    855                          EnableLanguage(L_SPANISH);
   \   00000F90   000065E2           RSB      R0,R5,#+0
   \   00000F94   EEFFFFEA           B        ??LoadConfigFromFile_127
   \                     ??LoadConfigFromFile_2:
   \   00000F98   ........           DC32     ??UserUnits
   \   00000F9C   ........           DC32     `?<Constant "Project info">`
    856                          break;
    857                      case C_L_PORTUGUESE :
    858                          L_Portuguese = true;
   \                     ??LoadConfigFromFile_53:
   \   00000FA0   7451C6E5           STRB     R5,[R6, #+372]
    859                          EnableLanguage(L_PORTUGUESE);
   \   00000FA4   000065E2           RSB      R0,R5,#+0
   \   00000FA8   ........           _BLF     ??EnableLanguage,??EnableLanguage??rA
   \   00000FAC   200100EA           B        ??LoadConfigFromFile_5
    860                          break;
    861                      case C_PRO_READ_PERMISSION:
    862                          ReadPermissionSet = ReadIdTable(ConfigString, ErrorLine, C_PROLIST_END);
   \                     ??LoadConfigFromFile_57:
   \   00000FB0   01002DE9           PUSH     {R0}
   \   00000FB4   04308DE2           ADD      R3,SP,#+4
   \   00000FB8   0420A0E1           MOV      R2,R4
   \   00000FBC   B4108DE2           ADD      R1,SP,#+180
   \   00000FC0   0800A0E1           MOV      R0,R8
   \   00000FC4   ........           _BLF     ??ReadIdTable,??ReadIdTable??rA
   \   00000FC8   B4108DE2           ADD      R1,SP,#+180
   \   00000FCC   080088E2           ADD      R0,R8,#+8
   \   00000FD0   ........           _BLF     `??operator=`,`??operator=??rA`
   \   00000FD4   B4008DE2           ADD      R0,SP,#+180
   \                     ??LoadConfigFromFile_128:
   \   00000FD8   ........           _BLF     ??clear,??clear??rA
    863                          if (ErrorLine) {
   \   00000FDC   04009DE5           LDR      R0,[SP, #+4]
   \   00000FE0   04D08DE2           ADD      SP,SP,#+4
   \   00000FE4   000050E3           CMP      R0,#+0
   \   00000FE8   1101000A           BEQ      ??LoadConfigFromFile_5
    864                              NoError = false;
   \   00000FEC   9CFDFFEA           B        ??LoadConfigFromFile_105
    865                          }
    866                          break;
    867                      case C_PRO_WRITE_PERMISSION:
    868                          WritePermissionSet = ReadIdTable(ConfigString, ErrorLine, C_PROLIST_END);
   \                     ??LoadConfigFromFile_58:
   \   00000FF0   01002DE9           PUSH     {R0}
   \   00000FF4   04308DE2           ADD      R3,SP,#+4
   \   00000FF8   0420A0E1           MOV      R2,R4
   \   00000FFC   CC108DE2           ADD      R1,SP,#+204
   \   00001000   0800A0E1           MOV      R0,R8
   \   00001004   ........           _BLF     ??ReadIdTable,??ReadIdTable??rA
   \   00001008   CC108DE2           ADD      R1,SP,#+204
   \   0000100C   200088E2           ADD      R0,R8,#+32
   \   00001010   ........           _BLF     `??operator=`,`??operator=??rA`
   \   00001014   CC008DE2           ADD      R0,SP,#+204
   \   00001018   EEFFFFEA           B        ??LoadConfigFromFile_128
    869                          if (ErrorLine) {
    870                              NoError = false;
    871                          }
    872                          break;
    873                      case C_PRO_NUMBER_OF_HANHELD:
    874                          NumberOfHandheldUnits = ConfigString.ReadInteger(ErrorLine);
   \                     ??LoadConfigFromFile_9:
   \   0000101C   0020A0E3           MOV      R2,#+0
   \   00001020   0D10A0E1           MOV      R1,SP
   \   00001024   0400A0E1           MOV      R0,R4
   \   00001028   ........           _BLF     ??ReadInteger,??ReadInteger??rA
   \   0000102C   340186E5           STR      R0,[R6, #+308]
   \   00001030   FF0000EA           B        ??LoadConfigFromFile_5
    875                          break;
    876                      case C_DEC_P_VOLUME:
    877                          DecimalPointVolume = ConfigString.ReadInteger(ErrorLine);
   \                     ??LoadConfigFromFile_54:
   \   00001034   0020A0E3           MOV      R2,#+0
   \   00001038   0D10A0E1           MOV      R1,SP
   \   0000103C   0400A0E1           MOV      R0,R4
   \   00001040   ........           _BLF     ??ReadInteger,??ReadInteger??rA
   \   00001044   A80086E5           STR      R0,[R6, #+168]
   \   00001048   F90000EA           B        ??LoadConfigFromFile_5
    878                          break;
    879                      case C_DEC_P_WEIGHT:
    880                          DecimalPointWeight = ConfigString.ReadInteger(ErrorLine);
   \                     ??LoadConfigFromFile_55:
   \   0000104C   0020A0E3           MOV      R2,#+0
   \   00001050   0D10A0E1           MOV      R1,SP
   \   00001054   0400A0E1           MOV      R0,R4
   \   00001058   ........           _BLF     ??ReadInteger,??ReadInteger??rA
   \   0000105C   AC0086E5           STR      R0,[R6, #+172]
   \   00001060   F30000EA           B        ??LoadConfigFromFile_5
    881                          break;
    882                      case C_PROJ_ALARMSYS_DELAY:
    883                          AlarmSystemStartUpDelay = ConfigString.ReadInteger(ErrorLine);
   \                     ??LoadConfigFromFile_25:
   \   00001064   0020A0E3           MOV      R2,#+0
   \   00001068   0D10A0E1           MOV      R1,SP
   \   0000106C   0400A0E1           MOV      R0,R4
   \   00001070   ........           _BLF     ??ReadInteger,??ReadInteger??rA
   \   00001074   940086E5           STR      R0,[R6, #+148]
   \   00001078   ED0000EA           B        ??LoadConfigFromFile_5
    884                          break;
    885                      case C_PROJ_IS_HSH_VESSEL:
    886                          isChemGasProject        = true;
    887                          BasicCargoNameList      = ChemGasCargoNameList;
   \                     ??LoadConfigFromFile_26:
   \   0000107C   08049FE5           LDR      R0,??LoadConfigFromFile_108+0x8  ;; BasicCargoNameList
   \   00001080   08149FE5           LDR      R1,??LoadConfigFromFile_108+0xC  ;; ChemGasCargoNameList
   \   00001084   5851C6E5           STRB     R5,[R6, #+344]
   \   00001088   001080E5           STR      R1,[R0, #+0]
    888                          SizeofBasicCargoNameList = SizeofChemGasCargoNameList;
   \   0000108C   00149FE5           LDR      R1,??LoadConfigFromFile_108+0x10  ;; SizeofChemGasCargoNameList
   \   00001090   00049FE5           LDR      R0,??LoadConfigFromFile_108+0x14  ;; SizeofBasicCargoNameList
   \   00001094   001091E5           LDR      R1,[R1, #+0]
   \   00001098   9EFDFFEA           B        ??LoadConfigFromFile_109
    889                          break;
    890                      case C_SD_SIMULATE_IO       :
    891                          SimulateIO          = true;
   \                     ??LoadConfigFromFile_101:
   \   0000109C   7751C6E5           STRB     R5,[R6, #+375]
   \   000010A0   E30000EA           B        ??LoadConfigFromFile_5
    892                          break;
    893                      case C_SD_SIMULATE_STATIC   :
    894                          SimulateFixedValues = true;
   \                     ??LoadConfigFromFile_102:
   \   000010A4   7851C6E5           STRB     R5,[R6, #+376]
   \   000010A8   E10000EA           B        ??LoadConfigFromFile_5
    895                          break;
    896                      case C_PRESS_LIM_MBAR:
    897                          PressLim_mBar = bool(ConfigString.ReadInteger(ErrorLine));
   \                     ??LoadConfigFromFile_7:
   \   000010AC   0020A0E3           MOV      R2,#+0
   \   000010B0   0D10A0E1           MOV      R1,SP
   \   000010B4   0400A0E1           MOV      R0,R4
   \   000010B8   ........           _BLF     ??ReadInteger,??ReadInteger??rA
   \   000010BC   000050E3           CMP      R0,#+0
   \   000010C0   0100A013           MOVNE    R0,#+1
   \   000010C4   8401C6E5           STRB     R0,[R6, #+388]
    898                          NoError = !ErrorLine;
   \   000010C8   6BFDFFEA           B        ??LoadConfigFromFile_107
    899                          break;
    900                      case C_UNIT_LENGTH   :
    901                      case C_UNIT_VOLUME   :
    902                      case C_UNIT_PRESSURE1:
    903                      case C_UNIT_PRESSURE2:
    904                      case C_UNIT_PRESSURE3:
    905                          {
    906                              AnsiString UnitName = ConfigString.NextWord(ErrorLine);
   \                     ??LoadConfigFromFile_100:
   \   000010CC   0030A0E3           MOV      R3,#+0
   \   000010D0   0D20A0E1           MOV      R2,SP
   \   000010D4   20108DE2           ADD      R1,SP,#+32
   \   000010D8   0400A0E1           MOV      R0,R4
   \   000010DC   ........           _BLF     ??NextWord,??NextWord??rA
    907                              NoError = !ErrorLine;
   \   000010E0   00009DE5           LDR      R0,[SP, #+0]
   \   000010E4   000050E3           CMP      R0,#+0
   \   000010E8   1A00001A           BNE      ??LoadConfigFromFile_129
   \   000010EC   0190A0E3           MOV      R9,#+1
    908                              if (NoError) {
    909                                  int UnitCode = FindConfigKey(UnitName);
   \   000010F0   20108DE2           ADD      R1,SP,#+32
   \   000010F4   04008DE2           ADD      R0,SP,#+4
   \   000010F8   ........           _BLF     ??string,??string??rA
   \   000010FC   04008DE2           ADD      R0,SP,#+4
   \   00001100   ........           _BLF     ??FindConfigKey,??FindConfigKey??rA
   \   00001104   0070A0E1           MOV      R7,R0
   \   00001108   0020A0E3           MOV      R2,#+0
   \   0000110C   0510A0E1           MOV      R1,R5
   \   00001110   04008DE2           ADD      R0,SP,#+4
   \   00001114   ........           _BLF     ??_Tidy,??_Tidy??rA
    910                                  if (UnitCode != NOT_FOUND) {
   \   00001118   010077E3           CMN      R7,#+1
   \   0000111C   1600000A           BEQ      ??LoadConfigFromFile_130
   \   00001120   F700E0E3           MVN      R0,#+247
   \   00001124   440DC0E3           BIC      R0,R0,#0x1100
   \   00001128   070080E0           ADD      R0,R0,R7
   \   0000112C   D2104AE2           SUB      R1,R10,#+210
   \   00001130   441D41E2           SUB      R1,R1,#+4352
   \   00001134   070051E3           CMP      R1,#+7
   \   00001138   0F00008A           BHI      ??LoadConfigFromFile_130
   \   0000113C   012F8FE2           ADR      R2,??LoadConfigFromFile_1
   \   00001140   0120D2E7           LDRB     R2,[R2, R1]
   \   00001144   02F18FE0           ADD      PC,PC,R2, LSL #+2
   \                     ??LoadConfigFromFile_1:
   \   00001148   05010C0C           DC8      +5,+1,+12,+12
   \   0000114C   0C07090B           DC8      +12,+7,+9,+11
    911                                      switch (Key) {
    912                                      case C_UNIT_VOLUME   :
    913                                          UnitCode -= C_U_METER3; // This is the first Unit code.
    914                                          UserUnits[VOLUME_UNIT] = UnitCode;
   \                     ??LoadConfigFromFile_131:
   \   00001150   080086E5           STR      R0,[R6, #+8]
   \   00001154   080000EA           B        ??LoadConfigFromFile_130
   \                     ??LoadConfigFromFile_129:
   \   00001158   0090A0E3           MOV      R9,#+0
   \   0000115C   060000EA           B        ??LoadConfigFromFile_130
    915                                          break;
    916                                      case C_UNIT_LENGTH   :
    917                                          UnitCode -= C_U_METER; // This is the first Unit code.
    918                                          UserUnits[LENGTH_UNIT] = UnitCode;
   \                     ??LoadConfigFromFile_132:
   \   00001160   040086E5           STR      R0,[R6, #+4]
   \   00001164   040000EA           B        ??LoadConfigFromFile_130
    919                                          break;
    920                                      case C_UNIT_PRESSURE1:
    921                                          UnitCode -= C_U_METERH2O; // This is the first Unit code.
    922                                          UserUnits[PRESSURE_UNIT1] = UnitCode;
   \                     ??LoadConfigFromFile_133:
   \   00001168   180086E5           STR      R0,[R6, #+24]
   \   0000116C   020000EA           B        ??LoadConfigFromFile_130
    923                                          break;
    924                                      case C_UNIT_PRESSURE2:
    925                                          UnitCode -= C_U_METERH2O; // This is the first Unit code.
    926                                          UserUnits[PRESSURE_UNIT2] = UnitCode;
   \                     ??LoadConfigFromFile_134:
   \   00001170   1C0086E5           STR      R0,[R6, #+28]
   \   00001174   000000EA           B        ??LoadConfigFromFile_130
    927                                          break;
    928                                      case C_UNIT_PRESSURE3:
    929                                          UnitCode -= C_U_METERH2O; // This is the first Unit code.
    930                                          UserUnits[PRESSURE_UNIT3] = UnitCode;
   \                     ??LoadConfigFromFile_135:
   \   00001178   200086E5           STR      R0,[R6, #+32]
    931                                          break;
    932                                      }
    933                                  }
    934                              }
    935                          }
   \                     ??LoadConfigFromFile_130:
   \   0000117C   0020A0E3           MOV      R2,#+0
   \   00001180   0110A0E3           MOV      R1,#+1
   \   00001184   20008DE2           ADD      R0,SP,#+32
   \   00001188   BAFBFFEA           B        ??LoadConfigFromFile_6
    936                          break;
    937                      case C_ALARM_SETTINGS_PIN_LOCK:
    938                          {
    939                              AnsiString alarmSettingsEnabled = ConfigString.NextWord(ErrorLine);
   \                     ??LoadConfigFromFile_38:
   \   0000118C   0030A0E3           MOV      R3,#+0
   \   00001190   0D20A0E1           MOV      R2,SP
   \   00001194   20108DE2           ADD      R1,SP,#+32
   \   00001198   0400A0E1           MOV      R0,R4
   \   0000119C   ........           _BLF     ??NextWord,??NextWord??rA
    940                              NoError = !ErrorLine;
   \   000011A0   00009DE5           LDR      R0,[SP, #+0]
   \   000011A4   000050E3           CMP      R0,#+0
   \   000011A8   1300001A           BNE      ??LoadConfigFromFile_136
    941          
    942                              if (NoError) {
    943                                  int localKey = FindConfigKey(alarmSettingsEnabled);
   \   000011AC   20108DE2           ADD      R1,SP,#+32
   \   000011B0   04008DE2           ADD      R0,SP,#+4
   \   000011B4   ........           _BLF     ??string,??string??rA
   \   000011B8   04008DE2           ADD      R0,SP,#+4
   \   000011BC   ........           _BLF     ??FindConfigKey,??FindConfigKey??rA
   \   000011C0   00B0A0E1           MOV      R11,R0
   \   000011C4   0020A0E3           MOV      R2,#+0
   \   000011C8   0510A0E1           MOV      R1,R5
   \   000011CC   04008DE2           ADD      R0,SP,#+4
   \   000011D0   ........           _BLF     ??_Tidy,??_Tidy??rA
    944                                  bool Enable = true;
    945                                  switch (localKey) {
    946                                  case C_ENABLE:
    947                                      Enable = true;
    948                                      break;
    949                                  case C_DISABLE:
    950                                      Enable = false;
    951                                      break;
    952                                  }
    953                                  PROProjectInfo::PROProjectInfoPtr->AlarmSettingsPINLock = Enable;
   \   000011D4   901096E5           LDR      R1,[R6, #+144]
   \   000011D8   0190A0E3           MOV      R9,#+1
   \   000011DC   0500A0E1           MOV      R0,R5
   \   000011E0   65005BE3           CMP      R11,#+101
   \   000011E4   0000A003           MOVEQ    R0,#+0
   \   000011E8   C700C1E5           STRB     R0,[R1, #+199]
    954                              }
    955                          }
   \                     ??LoadConfigFromFile_137:
   \   000011EC   0020A0E3           MOV      R2,#+0
   \   000011F0   0110A0E3           MOV      R1,#+1
   \   000011F4   20008DE2           ADD      R0,SP,#+32
   \   000011F8   9EFBFFEA           B        ??LoadConfigFromFile_6
   \                     ??LoadConfigFromFile_136:
   \   000011FC   0090A0E3           MOV      R9,#+0
   \   00001200   F9FFFFEA           B        ??LoadConfigFromFile_137
    956                          break;
    957                      case C_REQUEST_CONFIG:
    958                          RequestConfig = FLASH_RET_MODE_CONF;
   \                     ??LoadConfigFromFile_8:
   \   00001204   2C5186E5           STR      R5,[R6, #+300]
   \   00001208   890000EA           B        ??LoadConfigFromFile_5
    959                          break;
    960                      case C_PROJ_IP_ADDRESS    :
    961                          {
    962                              AnsiString tmpIP_Address = ConfigString.NextWord(ErrorLine);
   \                     ??LoadConfigFromFile_27:
   \   0000120C   0030A0E3           MOV      R3,#+0
   \   00001210   0D20A0E1           MOV      R2,SP
   \   00001214   3C108DE2           ADD      R1,SP,#+60
   \   00001218   0400A0E1           MOV      R0,R4
   \   0000121C   ........           _BLF     ??NextWord,??NextWord??rA
    963                              NoError = !ErrorLine;
   \   00001220   00009DE5           LDR      R0,[SP, #+0]
   \   00001224   000050E3           CMP      R0,#+0
   \   00001228   1600001A           BNE      ??LoadConfigFromFile_138
    964                              if (NoError) {
    965                                  IP_Address = tmpIP_Address + ".0";
   \   0000122C   942F8FE2           ADR      R2,??LoadConfigFromFile_108  ;; ".0"
   \   00001230   3C108DE2           ADD      R1,SP,#+60
   \   00001234   20008DE2           ADD      R0,SP,#+32
   \   00001238   ........           _BLF     `??operator+_1`,`??operator+??rA_1`
   \   0000123C   20108DE2           ADD      R1,SP,#+32
   \   00001240   04008DE2           ADD      R0,SP,#+4
   \   00001244   ........           _BLF     ??AnsiString_3,??AnsiString??rA_3
   \   00001248   0010A0E1           MOV      R1,R0
   \   0000124C   ........           LDR      R0,??DataTable44  ;; ??npos
   \   00001250   0190A0E3           MOV      R9,#+1
   \   00001254   003090E5           LDR      R3,[R0, #+0]
   \   00001258   0020A0E3           MOV      R2,#+0
   \   0000125C   740086E2           ADD      R0,R6,#+116
   \   00001260   ........           _BLF     ??assign,??assign??rA
   \   00001264   0020A0E3           MOV      R2,#+0
   \   00001268   0510A0E1           MOV      R1,R5
   \   0000126C   04008DE2           ADD      R0,SP,#+4
   \   00001270   ........           _BLF     ??_Tidy,??_Tidy??rA
   \   00001274   0020A0E3           MOV      R2,#+0
   \   00001278   0510A0E1           MOV      R1,R5
   \   0000127C   20008DE2           ADD      R0,SP,#+32
   \   00001280   ........           _BLF     ??_Tidy,??_Tidy??rA
   \   00001284   000000EA           B        ??LoadConfigFromFile_139
    966                              }
   \                     ??LoadConfigFromFile_138:
   \   00001288   0090A0E3           MOV      R9,#+0
    967                              IP_AddressMain = inet_addr(IP_Address.c_str());
   \                     ??LoadConfigFromFile_139:
   \   0000128C   8C0096E5           LDR      R0,[R6, #+140]
   \   00001290   100050E3           CMP      R0,#+16
   \   00001294   78009625           LDRCS    R0,[R6, #+120]
   \   00001298   78008632           ADDCC    R0,R6,#+120
   \   0000129C   ........           _BLF     ipaddr_addr,??ipaddr_addr??rA
   \   000012A0   4C0186E5           STR      R0,[R6, #+332]
    968                          }
   \   000012A4   0020A0E3           MOV      R2,#+0
   \   000012A8   0110A0E3           MOV      R1,#+1
   \   000012AC   3C008DE2           ADD      R0,SP,#+60
   \   000012B0   70FBFFEA           B        ??LoadConfigFromFile_6
    969                          break;
    970                      case C_PROJ_IP_ADDRESS_GATEWAY         :
    971                          IP_AddressGateWay = ConfigString.ReadInteger(ErrorLine);
   \                     ??LoadConfigFromFile_28:
   \   000012B4   0020A0E3           MOV      R2,#+0
   \   000012B8   0D10A0E1           MOV      R1,SP
   \   000012BC   0400A0E1           MOV      R0,R4
   \   000012C0   ........           _BLF     ??ReadInteger,??ReadInteger??rA
   \   000012C4   7C01C6E5           STRB     R0,[R6, #+380]
   \   000012C8   590000EA           B        ??LoadConfigFromFile_5
    972                          break;
    973                      case C_PROJ_IP_ADDRESS_TCU_MASTER      :
    974                          IP_AddressTCU_Master = ConfigString.ReadInteger(ErrorLine);
   \                     ??LoadConfigFromFile_29:
   \   000012CC   0020A0E3           MOV      R2,#+0
   \   000012D0   0D10A0E1           MOV      R1,SP
   \   000012D4   0400A0E1           MOV      R0,R4
   \   000012D8   ........           _BLF     ??ReadInteger,??ReadInteger??rA
   \   000012DC   7D01C6E5           STRB     R0,[R6, #+381]
   \   000012E0   530000EA           B        ??LoadConfigFromFile_5
    975                          break;
    976                      case C_PROJ_IP_ADDRESS_TCU_SLAVE_START :
    977                          IP_AddressTCUSlaveStart = ConfigString.ReadInteger(ErrorLine);
   \                     ??LoadConfigFromFile_30:
   \   000012E4   0020A0E3           MOV      R2,#+0
   \   000012E8   0D10A0E1           MOV      R1,SP
   \   000012EC   0400A0E1           MOV      R0,R4
   \   000012F0   ........           _BLF     ??ReadInteger,??ReadInteger??rA
   \   000012F4   7E01C6E5           STRB     R0,[R6, #+382]
   \   000012F8   4D0000EA           B        ??LoadConfigFromFile_5
    978                          break;
    979                      case C_PROJ_IP_ADDRESS_TCU_SLAVE_END   :
    980                          IP_AddressTCUSlaveEnd = ConfigString.ReadInteger(ErrorLine);
   \                     ??LoadConfigFromFile_31:
   \   000012FC   0020A0E3           MOV      R2,#+0
   \   00001300   0D10A0E1           MOV      R1,SP
   \   00001304   0400A0E1           MOV      R0,R4
   \   00001308   ........           _BLF     ??ReadInteger,??ReadInteger??rA
   \   0000130C   7F01C6E5           STRB     R0,[R6, #+383]
   \   00001310   470000EA           B        ??LoadConfigFromFile_5
    981                          break;
    982                      case C_PROJ_IP_ADDRESS_TDU_START       :
    983                          IP_AddressTDUStart = ConfigString.ReadInteger(ErrorLine);
   \                     ??LoadConfigFromFile_32:
   \   00001314   0020A0E3           MOV      R2,#+0
   \   00001318   0D10A0E1           MOV      R1,SP
   \   0000131C   0400A0E1           MOV      R0,R4
   \   00001320   ........           _BLF     ??ReadInteger,??ReadInteger??rA
   \   00001324   8001C6E5           STRB     R0,[R6, #+384]
   \   00001328   410000EA           B        ??LoadConfigFromFile_5
    984                          break;
    985                      case C_PROJ_IP_ADDRESS_TDU_END         :
    986                          IP_AddressTDUEnd = ConfigString.ReadInteger(ErrorLine);
   \                     ??LoadConfigFromFile_33:
   \   0000132C   0020A0E3           MOV      R2,#+0
   \   00001330   0D10A0E1           MOV      R1,SP
   \   00001334   0400A0E1           MOV      R0,R4
   \   00001338   ........           _BLF     ??ReadInteger,??ReadInteger??rA
   \   0000133C   8101C6E5           STRB     R0,[R6, #+385]
   \   00001340   3B0000EA           B        ??LoadConfigFromFile_5
    987                          break;
    988                      case C_PROJ_IP_ADDRESS_PC_START        :
    989                          IP_AddressPCStart = ConfigString.ReadInteger(ErrorLine);
   \                     ??LoadConfigFromFile_34:
   \   00001344   0020A0E3           MOV      R2,#+0
   \   00001348   0D10A0E1           MOV      R1,SP
   \   0000134C   0400A0E1           MOV      R0,R4
   \   00001350   ........           _BLF     ??ReadInteger,??ReadInteger??rA
   \   00001354   8201C6E5           STRB     R0,[R6, #+386]
   \   00001358   350000EA           B        ??LoadConfigFromFile_5
    990                          break;
    991                      case C_PROJ_IP_ADDRESS_PC_END          :
    992                          IP_AddressPCEnd = ConfigString.ReadInteger(ErrorLine);
   \                     ??LoadConfigFromFile_35:
   \   0000135C   0020A0E3           MOV      R2,#+0
   \   00001360   0D10A0E1           MOV      R1,SP
   \   00001364   0400A0E1           MOV      R0,R4
   \   00001368   ........           _BLF     ??ReadInteger,??ReadInteger??rA
   \   0000136C   8301C6E5           STRB     R0,[R6, #+387]
   \   00001370   2F0000EA           B        ??LoadConfigFromFile_5
    993                          break;
    994                      case C_PROJ_IP_TCP_SERVER_PORT:
    995                          IP_TCP_ServerPort = ConfigString.ReadInteger(ErrorLine);
   \                     ??LoadConfigFromFile_36:
   \   00001374   0020A0E3           MOV      R2,#+0
   \   00001378   0D10A0E1           MOV      R1,SP
   \   0000137C   0400A0E1           MOV      R0,R4
   \   00001380   ........           _BLF     ??ReadInteger,??ReadInteger??rA
   \   00001384   500186E5           STR      R0,[R6, #+336]
   \   00001388   290000EA           B        ??LoadConfigFromFile_5
    996                          break;
    997                      case C_PROJ_IP_UDP_NET_PORT   :
    998                          IP_UDP_NetPort = ConfigString.ReadInteger(ErrorLine);
   \                     ??LoadConfigFromFile_37:
   \   0000138C   0020A0E3           MOV      R2,#+0
   \   00001390   0D10A0E1           MOV      R1,SP
   \   00001394   0400A0E1           MOV      R0,R4
   \   00001398   ........           _BLF     ??ReadInteger,??ReadInteger??rA
   \   0000139C   540186E5           STR      R0,[R6, #+340]
   \   000013A0   230000EA           B        ??LoadConfigFromFile_5
    999                          break;
   1000                          /*
   1001                      case C_PROJ_IP_TCP_FLASH_PORT :
   1002                          IP_TCP_FlashPort = ConfigString.ReadInteger(ErrorLine);
   1003                          break;
   1004                          */
   1005                      case TWM_CLEANING_MEDIA_LIST:
   1006                          {
   1007                              TankWashingAPI twApi;
   \                     ??LoadConfigFromFile_104:
   \   000013A4   58008DE2           ADD      R0,SP,#+88
   \   000013A8   ........           _BLF     ??TankWashingAPI,??TankWashingAPI??rA
   1008                              NoError = twApi.LoadTankCleaningMediaList(ConfigString);
   \   000013AC   0410A0E1           MOV      R1,R4
   \   000013B0   58008DE2           ADD      R0,SP,#+88
   \   000013B4   ........           _BLF     ??LoadTankCleaningMediaList,??LoadTankCleaningMediaList??rA
   \   000013B8   0090B0E1           MOVS     R9,R0
   1009                              ErrorLine = 0;
   \   000013BC   0010A0E3           MOV      R1,#+0
   \   000013C0   00108DE5           STR      R1,[SP, #+0]
   1010          
   1011                              if (NoError == false) {
   \   000013C4   1800001A           BNE      ??LoadConfigFromFile_140
   1012          
   1013                                  AnsiString errorMsg("Failed to read tank cleaning media list");
   \   000013C8   10108BE2           ADD      R1,R11,#+16
   \   000013CC   3C008DE2           ADD      R0,SP,#+60
   \   000013D0   ........           _BLF     ??AnsiString_1,??AnsiString??rA_1
   1014                                  GiveConfigWarning(errorMsg, InputKeyWord, ConfigString.LineCount);
   \   000013D4   94108DE2           ADD      R1,SP,#+148
   \   000013D8   20008DE2           ADD      R0,SP,#+32
   \   000013DC   ........           _BLF     ??string,??string??rA
   \   000013E0   3C108DE2           ADD      R1,SP,#+60
   \   000013E4   04008DE2           ADD      R0,SP,#+4
   \   000013E8   ........           _BLF     ??string,??string??rA
   \   000013EC   1C2094E5           LDR      R2,[R4, #+28]
   \   000013F0   20108DE2           ADD      R1,SP,#+32
   \   000013F4   04008DE2           ADD      R0,SP,#+4
   \   000013F8   ........           _BLF     ??GiveConfigWarning_1,??GiveConfigWarning??rA_1
   \   000013FC   0020A0E3           MOV      R2,#+0
   \   00001400   0110A0E3           MOV      R1,#+1
   \   00001404   20008DE2           ADD      R0,SP,#+32
   \   00001408   ........           _BLF     ??_Tidy,??_Tidy??rA
   \   0000140C   0020A0E3           MOV      R2,#+0
   \   00001410   0510A0E1           MOV      R1,R5
   \   00001414   04008DE2           ADD      R0,SP,#+4
   \   00001418   ........           _BLF     ??_Tidy,??_Tidy??rA
   1015                              }
   \   0000141C   0020A0E3           MOV      R2,#+0
   \   00001420   0510A0E1           MOV      R1,R5
   \   00001424   3C008DE2           ADD      R0,SP,#+60
   \   00001428   ........           _BLF     ??_Tidy,??_Tidy??rA
   1016                          }
   \                     ??LoadConfigFromFile_140:
   \   0000142C   58008DE2           ADD      R0,SP,#+88
   \   00001430   ........           _BLF     `?~TankWashingAPI`,`?~TankWashingAPI??rA`
   1017                          break;
   1018                      }
   1019                  }
   1020              }while (NoError && (ErrorLine != EOF) && (Key != C_PRO_END));
   \                     ??LoadConfigFromFile_5:
   \   00001434   0020A0E3           MOV      R2,#+0
   \   00001438   0110A0E3           MOV      R1,#+1
   \   0000143C   94008DE2           ADD      R0,SP,#+148
   \   00001440   ........           _BLF     ??_Tidy,??_Tidy??rA
   \   00001444   000059E3           CMP      R9,#+0
   \   00001448   00009D15           LDRNE    R0,[SP, #+0]
   \   0000144C   01007013           CMNNE    R0,#+1
   \   00001450   FA0F5A13           CMPNE    R10,#+1000
   \   00001454   F4FAFF1A           BNE      ??LoadConfigFromFile_3
   1021          	//if (!LengthBetweenMarks) {
   1022          	//    LengthBetweenMarks = LengthBetweenPP;
   1023              //}
   1024              /*
   1025              // Check the extra pressure alarms. HighLim2 > HighLim1, LowLim2 < LowLim1
   1026              if (IntHighTankPressLimit1 > IntHighTankPressLimit2 ) {
   1027                  swap(IntHighTankPressLimit1, IntHighTankPressLimit2);
   1028                  //GiveConfigWarning("ExtraHighTankPressLimit1 > ExtraHighTankPressLimit2, line " + AnsiString(ConfigString.LineCount));
   1029              }
   1030              if ( IntLowTankPressLimit1  < IntLowTankPressLimit2 ) {
   1031                  swap(IntLowTankPressLimit1, IntLowTankPressLimit2);
   1032                  //GiveConfigWarning("ExtraHighTankPressLimit1 < ExtraHighTankPressLimit2, line " + AnsiString(ConfigString.LineCount));
   1033              }
   1034              */
   1035              if ( HighLinePressLimit > LIMIT_HIHI_LINEPRESS) {
   \   00001458   244196E5           LDR      R4,[R6, #+292]
   \   0000145C   0400A0E1           MOV      R0,R4
   \   00001460   ........           _BLF     __floatToDouble,??__floatToDouble??rA
   \   00001464   30209FE5           LDR      R2,??LoadConfigFromFile_108+0x18  ;; 0xb188782
   \   00001468   30309FE5           LDR      R3,??LoadConfigFromFile_108+0x1C  ;; 0x40597e2f
   \   0000146C   ........           _BLF     __dGreaterEqual,??__dGreaterEqual??rA
   \   00001470   000050E3           CMP      R0,#+0
   1036                  HiHiLinePressLimit = HighLinePressLimit;
   \   00001474   20418615           STRNE    R4,[R6, #+288]
   1037              }
   1038              return ErrorLine;
   \   00001478   00009DE5           LDR      R0,[SP, #+0]
   \   0000147C   69DF8DE2           ADD      SP,SP,#+420
   \   00001480   ........           B        ?Subroutine17
   \                     ??LoadConfigFromFile_108:
   \   00001484   2E300000           DC8      ".0",+0
   \   00001488   ........           DC32     GlobalDeviceHWId
   \   0000148C   ........           DC32     BasicCargoNameList
   \   00001490   ........           DC32     ChemGasCargoNameList
   \   00001494   ........           DC32     SizeofChemGasCargoNameList
   \   00001498   ........           DC32     SizeofBasicCargoNameList
   \   0000149C   8287180B           DC32     0xb188782
   \   000014A0   2F7E5940           DC32     0x40597e2f
   1039          }
   1040          //---------------------------------------------------------------------------
   1041          
   1042          ///////////////////////////////////////////////////////////////
   1043          //
   1044          // Routines for the librarian
   1045          //
   1046          ///////////////////////////////////////////////////////////////
   1047          

   \                                 In segment CODE, align 4, keep-with-next
   1048          int PROProjectInfo::GetValue(int ValueId, int Index, float &MyRetValue,  int &DecPnt, int &Unit) {
   \                     ??GetValue:
   \   00000000   F0472DE9           PUSH     {R4-R10,LR}
   \   00000004   20409DE5           LDR      R4,[SP, #+32]
   \   00000008   24509DE5           LDR      R5,[SP, #+36]
   1049              int Status = GETVAL_NO_ERR;
   1050              switch (ValueId) {
   \   0000000C   ........           LDR      R6,??DataTable47  ;; ??UserUnits
   \   00000010   02C0A0E1           MOV      R12,R2
   \   00000014   0020A0E3           MOV      R2,#+0
   \   00000018   0170A0E3           MOV      R7,#+1
   \   0000001C   0280A0E3           MOV      R8,#+2
   \   00000020   219041E2           SUB      R9,R1,#+33
   \   00000024   C09E49E2           SUB      R9,R9,#+3072
   \   00000028   040059E3           CMP      R9,#+4
   \   0000002C   0D00008A           BHI      ??GetValue_3
   \   00000030   01AF8FE2           ADR      R10,??GetValue_1
   \   00000034   09A0DAE7           LDRB     R10,[R10, R9]
   \   00000038   0AF18FE0           ADD      PC,PC,R10, LSL #+2
   \                     ??GetValue_1:
   \   0000003C   060A0A0A           DC8      +6,+10,+10,+10
   \   00000040   01000000           DC8      +1,+0,+0,+0
   1051              case SVT_SHIP_LPP:
   1052                  DecPnt     = 2;
   \                     ??GetValue_4:
   \   00000044   008084E5           STR      R8,[R4, #+0]
   1053                  Unit       = LENGTH_UNIT;
   \   00000048   007085E5           STR      R7,[R5, #+0]
   1054                  MyRetValue = LengthBetweenPP;
   \   0000004C   980096E5           LDR      R0,[R6, #+152]
   \                     ??GetValue_5:
   \   00000050   000083E5           STR      R0,[R3, #+0]
   \   00000054   090000EA           B        ??GetValue_6
   1055                  break;
   1056              case SVT_SHIP_WIDTH:
   1057                  DecPnt     = 2;
   \                     ??GetValue_7:
   \   00000058   008084E5           STR      R8,[R4, #+0]
   1058                  Unit       = LENGTH_UNIT;
   \   0000005C   007085E5           STR      R7,[R5, #+0]
   1059                  MyRetValue = Width;
   \   00000060   A00096E5           LDR      R0,[R6, #+160]
   \   00000064   F9FFFFEA           B        ??GetValue_5
   1060                  break;
   1061              default:
   1062                  Status = PRogramObjectBase::GetValue(ValueId, Index, MyRetValue,  DecPnt, Unit);
   \                     ??GetValue_3:
   \   00000068   20002DE9           PUSH     {R5}
   \   0000006C   10002DE9           PUSH     {R4}
   \   00000070   0C20A0E1           MOV      R2,R12
   \   00000074   ........           _BLF     ??GetValue_2,??GetValue??rA
   \   00000078   0020A0E1           MOV      R2,R0
   \   0000007C   08D08DE2           ADD      SP,SP,#+8
   1063                  break;
   1064              }
   1065              return (Status);
   \                     ??GetValue_6:
   \   00000080   F047BDE8           POP      {R4-R10,LR}
   \   00000084   0200A0E1           MOV      R0,R2
   \   00000088   1EFF2FE1           BX       LR               ;; return
   1066          }
   1067          

   \                                 In segment CODE, align 4, keep-with-next
   1068          int PROProjectInfo::GetStringValue(int ValueId, int Index, AnsiString &MyString) {
   \                     ??GetStringValue:
   \   00000000   00C0A0E1           MOV      R12,R0
   \   00000004   0300A0E1           MOV      R0,R3
   1069              int Status = GETVAL_NO_ERR;
   1070              switch (ValueId) {
   \   00000008   ........           LDR      R3,??DataTable46  ;; ??npos
   \   0000000C   70402DE9           PUSH     {R4-R6,LR}
   \   00000010   003093E5           LDR      R3,[R3, #+0]
   \   00000014   ........           LDR      LR,??DataTable47  ;; ??UserUnits
   \   00000018   0040A0E3           MOV      R4,#+0
   \   0000001C   1E5041E2           SUB      R5,R1,#+30
   \   00000020   C05E45E2           SUB      R5,R5,#+3072
   \   00000024   060055E3           CMP      R5,#+6
   \   00000028   1100008A           BHI      ??GetStringValue_3
   \   0000002C   016F8FE2           ADR      R6,??GetStringValue_1
   \   00000030   0560D6E7           LDRB     R6,[R6, R5]
   \   00000034   06F18FE0           ADD      PC,PC,R6, LSL #+2
   \                     ??GetStringValue_1:
   \   00000038   0B050E0E           DC8      +11,+5,+14,+14
   \   0000003C   0E080100           DC8      +14,+8,+1,+0
   1071              case SVT_CALL_SIGN:
   1072                  MyString =  CallSign;
   \                     ??GetStringValue_4:
   \   00000040   0020A0E3           MOV      R2,#+0
   \   00000044   771F8EE2           ADD      R1,LR,#+476
   \                     ??GetStringValue_5:
   \   00000048   ........           _BLF     ??assign,??assign??rA
   \   0000004C   0C0000EA           B        ??GetStringValue_6
   1073                  break;
   1074              case SVT_SHIP_OWNER:
   1075                  MyString =  ProjOwner;
   \                     ??GetStringValue_7:
   \   00000050   0020A0E3           MOV      R2,#+0
   \   00000054   621F8EE2           ADD      R1,LR,#+392
   \   00000058   FAFFFFEA           B        ??GetStringValue_5
   1076                  break;
   1077              case SVT_SYSTEM_ID:
   1078                  MyString =  ProjectName;
   \                     ??GetStringValue_8:
   \   0000005C   0020A0E3           MOV      R2,#+0
   \   00000060   701F8EE2           ADD      R1,LR,#+448
   \   00000064   F7FFFFEA           B        ??GetStringValue_5
   1079                  break;
   1080              case SVT_SHIP_NAME:
   1081                  MyString =  Name;
   \                     ??GetStringValue_9:
   \   00000068   0020A0E3           MOV      R2,#+0
   \   0000006C   44108CE2           ADD      R1,R12,#+68
   \   00000070   F4FFFFEA           B        ??GetStringValue_5
   1082                  break;
   1083              default:
   1084                  Status = PRogramObjectBase::GetStringValue(ValueId, Index, MyString);
   \                     ??GetStringValue_3:
   \   00000074   0030A0E1           MOV      R3,R0
   \   00000078   0C00A0E1           MOV      R0,R12
   \   0000007C   ........           _BLF     ??GetStringValue_2,??GetStringValue??rA
   \   00000080   0040A0E1           MOV      R4,R0
   1085                  break;
   1086              }
   1087              return (Status);
   \                     ??GetStringValue_6:
   \   00000084   0400A0E1           MOV      R0,R4
   \   00000088                      REQUIRE ?Subroutine16
   \   00000088                      ;; // Fall through to label ?Subroutine16
   1088          }
   1089          

   \                                 In segment CODE, align 4, keep-with-next
   1090          int PROProjectInfo::PutValue(int ValueId, int Index, AnsiString NewValue, bool Local, int *UnitId) {
   \                     ??PutValue:
   \   00000000   F0412DE9           PUSH     {R4-R8,LR}
   \   00000004   20D04DE2           SUB      SP,SP,#+32
   \   00000008   3870DDE5           LDRB     R7,[SP, #+56]
   \   0000000C   3C809DE5           LDR      R8,[SP, #+60]
   \   00000010   0040A0E1           MOV      R4,R0
   \   00000014   0150A0E1           MOV      R5,R1
   \   00000018   0260A0E1           MOV      R6,R2
   \   0000001C   0310A0E1           MOV      R1,R3
   1091              int Status = E_NO_ERR, ValUnitId = NO_UNIT;
   \   00000020   0020A0E3           MOV      R2,#+0
   \   00000024   00208DE5           STR      R2,[SP, #+0]
   1092              //switch ( ValueId ) {
   1093              //  default:
   1094              Status = PRogramObjectBase::PutValue(ValueId, Index, NewValue, Local, &ValUnitId);
   \   00000028   04008DE2           ADD      R0,SP,#+4
   \   0000002C   ........           _BLF     ??string,??string??rA
   \   00000030   0D00A0E1           MOV      R0,SP
   \   00000034   01002DE9           PUSH     {R0}
   \   00000038   80002DE9           PUSH     {R7}
   \   0000003C   0C308DE2           ADD      R3,SP,#+12
   \   00000040   0620A0E1           MOV      R2,R6
   \   00000044   0510A0E1           MOV      R1,R5
   \   00000048   0400A0E1           MOV      R0,R4
   \   0000004C   ........           _BLF     ??PutValue_1,??PutValue??rA
   \   00000050   0050A0E1           MOV      R5,R0
   \   00000054   0020A0E3           MOV      R2,#+0
   \   00000058   0110A0E3           MOV      R1,#+1
   \   0000005C   0C008DE2           ADD      R0,SP,#+12
   \   00000060   ........           _BLF     ??_Tidy,??_Tidy??rA
   1095              //     break;
   1096              //}
   1097              if (Status == E_NO_ERR) {
   \   00000064   000055E3           CMP      R5,#+0
   \   00000068   08D08DE2           ADD      SP,SP,#+8
   \   0000006C   0400001A           BNE      ??PutValue_2
   1098                  SetModifiedFlag();
   \   00000070   A41094E5           LDR      R1,[R4, #+164]
   \   00000074   0400A0E1           MOV      R0,R4
   \   00000078   541091E5           LDR      R1,[R1, #+84]
   \   0000007C   0FE0A0E1           MOV      LR,PC
   \   00000080   11FF2FE1           BX       R1
   1099              }
   1100              if (UnitId) {
   \                     ??PutValue_2:
   \   00000084   000058E3           CMP      R8,#+0
   1101                  *UnitId = ValUnitId;
   \   00000088   00009D15           LDRNE    R0,[SP, #+0]
   \   0000008C   00008815           STRNE    R0,[R8, #+0]
   1102              }
   1103              return (Status);
   \   00000090   0500A0E1           MOV      R0,R5
   \   00000094   20D08DE2           ADD      SP,SP,#+32
   \   00000098                      REQUIRE ?Subroutine15
   \   00000098                      ;; // Fall through to label ?Subroutine15
   1104          }
   1105          

   \                                 In segment CODE, align 4, keep-with-next
   1106          int PROProjectInfo::PutFloatValue(int ValueId, float NewValue) {
   \                     ??PutFloatValue:
   \   00000000   00402DE9           PUSH     {LR}
   1107              int Status = E_NO_ERR;
   1108              //switch ( ValueId ) {
   1109              //   default:
   1110              Status = PRogramObjectBase::PutFloatValue(ValueId, NewValue);
   1111              //     break;
   1112              //}
   1113              return (Status);
   \   00000004   ........           _BLF     ??PutFloatValue_1,??PutFloatValue??rA
   \   00000008                      REQUIRE ?Subroutine14
   \   00000008                      ;; // Fall through to label ?Subroutine14
   1114          }

   \                                 In segment CODE, align 4, keep-with-next
   \                     ?Subroutine14:
   \   00000000   0040BDE8           POP      {LR}
   \   00000004   1EFF2FE1           BX       LR               ;; return
   1115          

   \                                 In segment CODE, align 4, keep-with-next
   1116          ValueList* PROProjectInfo::GetValueInfoTableStatic(int &Entries, int Index) {
   1117              Entries = 0;
   \                     ??GetValueInfoTableStatic:
   \   00000000   0010A0E3           MOV      R1,#+0
   \   00000004   001080E5           STR      R1,[R0, #+0]
   1118              return (NULL);
   \   00000008   0000A0E3           MOV      R0,#+0
   \   0000000C   1EFF2FE1           BX       LR               ;; return
   1119          }

   \                                 In segment DATA_ID, align 4, align-sorted
   \                     `?<Initializer for UserUnits>`:
   \   00000000   000000000000       DC32 0, 0, 0, 0, 0, 0, 1, 1, 3, 0, 0, 0, 0, 0, 0, 0, 0, 0, 0, 0, 1, 0
   \              000000000000
   \              000000000000
   \              000000000000
   \              010000000100
   \              000003000000
   \              000000000000
   \              000000000000
   \              000000000000
   \              000000000000
   \              000000000000
   \              000000000000
   \              000000000000
   \              000001000000
   \              00000000    
   \   00000058   010000000200       DC32 1, 2, 3, 5
   \              000003000000
   \              05000000    
   \   00000068   000000000000       DC8 0, 0, 0, 0, 0, 0, 0, 0, 0, 0, 0, 0
   \              000000000000
   \                     `?<Initializer for IP_Address>`:
   \   00000074   000000000000       DC8 0, 0, 0, 0, 0, 0, 0, 0, 0, 0, 0, 0, 0, 0, 0, 0
   \              000000000000
   \              00000000    
   \   00000084   000000000000       DC8 0, 0, 0, 0, 0, 0, 0, 0, 0, 0, 0, 0
   \              000000000000
   \                     `?<Initializer for PROProjectInfoPtr>`:
   \   00000090   00000000           DC32 0H
   \                     `?<Initializer for AlarmSystemStartUpDelay>`:
   \   00000094   78000000           DC32 120
   \                     `?<Initializer for LengthBetweenPP>`:
   \   00000098   00000000           DC32 0H
   \                     `?<Initializer for LengthBetweenMarks>`:
   \   0000009C   00000000           DC32 0H
   \                     `?<Initializer for Width>`:
   \   000000A0   00000000           DC32 0H
   \                     `?<Initializer for NumberOfPRO>`:
   \   000000A4   00000000           DC32 0
   \                     `?<Initializer for DecimalPointVolume>`:
   \   000000A8   01000000           DC32 1
   \                     `?<Initializer for DecimalPointWeight>`:
   \   000000AC   01000000           DC32 1
   \                     `?<Initializer for NoiseLimCargoB>`:
   \   000000B0   295C0F3D           DC32 3D0F5C29H
   \                     `?<Initializer for NoiseLimCargoU>`:
   \   000000B4   9A99993E           DC32 3E99999AH
   \                     `?<Initializer for NoiseLimBallastB>`:
   \   000000B8   CDCCCC3D           DC32 3DCCCCCDH
   \                     `?<Initializer for NoiseLimBallastU>`:
   \   000000BC   CDCCCC3D           DC32 3DCCCCCDH
   \                     `?<Initializer for NoiseLimServiceB>`:
   \   000000C0   CDCCCC3D           DC32 3DCCCCCDH
   \                     `?<Initializer for NoiseLimServiceU>`:
   \   000000C4   CDCCCC3D           DC32 3DCCCCCDH
   \                     `?<Initializer for NoiseLimDefaultR>`:
   \   000000C8   0AD7A33C           DC32 3CA3D70AH
   \                     `?<Initializer for NoiseLimVoidSpace>`:
   \   000000CC   9A99193E           DC32 3E19999AH
   \                     `?<Initializer for OverfillLimit>`:
   \   000000D0   0000C442           DC32 42C40000H
   \                     `?<Initializer for HighLevelLimit>`:
   \   000000D4   0000BE42           DC32 42BE0000H
   \                     `?<Initializer for LowLevelLimit>`:
   \   000000D8   0000A040           DC32 40A00000H
   \                     `?<Initializer for LoLoLevelLimit>`:
   \   000000DC   00000040           DC32 40000000H
   \                     `?<Initializer for VoidSpaceLimit>`:
   \   000000E0   9A99993E           DC32 3E99999AH
   \                     `?<Initializer for LevelDiffLimit>`:
   \   000000E4   9A99993E           DC32 3E99999AH
   \                     `?<Initializer for HighTempLimit>`:
   \   000000E8   00007042           DC32 42700000H
   \                     `?<Initializer for LowTempLimit>`:
   \   000000EC   0000A040           DC32 40A00000H
   \                     `?<Initializer for HighTankPressLimit>`:
   \   000000F0   39E41F40           DC32 401FE439H
   \                     `?<Initializer for IntLowTankPressLimit1>`:
   \   000000F4   AFBB36BF           DC32 0BF36BBAFH
   \                     `?<Initializer for IntHighTankPressLimit1>`:
   \   000000F8   39E41F40           DC32 401FE439H
   \                     `?<Initializer for IntLowTankPressLimit2>`:
   \   000000FC   AFBB36BF           DC32 0BF36BBAFH
   \                     `?<Initializer for IntHighTankPressLimit2>`:
   \   00000100   39E41F40           DC32 401FE439H
   \                     `?<Initializer for LowTankPressLimit>`:
   \   00000104   AFBB36BF           DC32 0BF36BBAFH
   \                     `?<Initializer for HighVapourRetLimit>`:
   \   00000108   1086823F           DC32 3F828610H
   \                     `?<Initializer for LowVapourRetLimit>`:
   \   0000010C   DFA09CBE           DC32 0BE9CA0DFH
   \                     `?<Initializer for HighPressVacLimit>`:
   \   00000110   39E41F40           DC32 401FE439H
   \                     `?<Initializer for LowPressVacLimit>`:
   \   00000114   AFBB36BF           DC32 0BF36BBAFH
   \                     `?<Initializer for HighIGP_Limit>`:
   \   00000118   1086823F           DC32 3F828610H
   \                     `?<Initializer for LowIGP_Limit>`:
   \   0000011C   CDCCCC3D           DC32 3DCCCCCDH
   \                     `?<Initializer for HiHiLinePressLimit>`:
   \   00000120   78F1CB42           DC32 42CBF178H
   \                     `?<Initializer for HighLinePressLimit>`:
   \   00000124   78F1CB42           DC32 42CBF178H
   \                     `?<Initializer for LowLinePressLimit>`:
   \   00000128   932723C1           DC32 0C1232793H
   \                     `?<Initializer for RequestConfig>`:
   \   0000012C   00000000           DC32 0
   \                     `?<Initializer for TankMaxLoadTime>`:
   \   00000130   0000C041           DC32 41C00000H
   \                     `?<Initializer for NumberOfHandheldUnits>`:
   \   00000134   00000000           DC32 0
   \                     `?<Initializer for ProjectType>`:
   \   00000138   00000000           DC32 0
   \                     `?<Initializer for CableResistanceShip>`:
   \   0000013C   F4FD543D           DC32 3D54FDF4H
   \                     `?<Initializer for CableResistanceSensor>`:
   \   00000140   0000803F           DC32 3F800000H
   \                     `?<Initializer for TemperatureWindowMaxCnt>`:
   \   00000144   14000000           DC32 20
   \                     `?<Initializer for TemperatureWindowTmpLim>`:
   \   00000148   0000A040           DC32 40A00000H
   \                     `?<Initializer for IP_AddressMain>`:
   \   0000014C   00000000           DC32 0
   \                     `?<Initializer for IP_TCP_ServerPort>`:
   \   00000150   AD3C0000           DC32 15533
   \                     `?<Initializer for IP_UDP_NetPort>`:
   \   00000154   AE3C0000           DC32 15534
   \                     `?<Initializer for isChemGasProject>`:
   \   00000158   00                 DC8 0
   \                     `?<Initializer for hasHighVapourRetLimit>`:
   \   00000159   00                 DC8 0
   \                     `?<Initializer for hasLowVapourRetLimit>`:
   \   0000015A   00                 DC8 0
   \                     `?<Initializer for hasHighPressVacLimit>`:
   \   0000015B   00                 DC8 0
   \                     `?<Initializer for hasLowPressVacLimit>`:
   \   0000015C   00                 DC8 0
   \                     `?<Initializer for hasHighIGP_Limit>`:
   \   0000015D   00                 DC8 0
   \                     `?<Initializer for hasLowIGP_Limit>`:
   \   0000015E   00                 DC8 0
   \                     `?<Initializer for hasLoLoLevelLimit>`:
   \   0000015F   00                 DC8 0
   \                     `?<Initializer for OverfillLocked>`:
   \   00000160   00                 DC8 0
   \                     `?<Initializer for HighLevelLocked>`:
   \   00000161   00                 DC8 0
   \                     `?<Initializer for LowLevelLocked>`:
   \   00000162   00                 DC8 0
   \                     `?<Initializer for LowLowLevelLocked>`:
   \   00000163   00                 DC8 0
   \                     `?<Initializer for HighTempLocked>`:
   \   00000164   00                 DC8 0
   \                     `?<Initializer for LowTempLocked>`:
   \   00000165   00                 DC8 0
   \                     `?<Initializer for HighTankPressLocked>`:
   \   00000166   00                 DC8 0
   \                     `?<Initializer for LowTankPressLocked>`:
   \   00000167   00                 DC8 0
   \                     `?<Initializer for HighIGP_Locked>`:
   \   00000168   00                 DC8 0
   \                     `?<Initializer for LowIGP_Locked>`:
   \   00000169   00                 DC8 0
   \                     `?<Initializer for HighLinePressLocked>`:
   \   0000016A   00                 DC8 0
   \                     `?<Initializer for LowLinePressLocked>`:
   \   0000016B   00                 DC8 0
   \                     `?<Initializer for IntegratedLoadingComputer>`:
   \   0000016C   00                 DC8 0
   \                     `?<Initializer for IsInlandVessel>`:
   \   0000016D   00                 DC8 0
   \                     `?<Initializer for IsCustodyTransferSys>`:
   \   0000016E   00                 DC8 0
   \                     `?<Initializer for L_English>`:
   \   0000016F   01                 DC8 1
   \                     `?<Initializer for L_Norwegian>`:
   \   00000170   00                 DC8 0
   \                     `?<Initializer for L_German>`:
   \   00000171   00                 DC8 0
   \                     `?<Initializer for L_French>`:
   \   00000172   00                 DC8 0
   \                     `?<Initializer for L_Spanish>`:
   \   00000173   00                 DC8 0
   \                     `?<Initializer for L_Portuguese>`:
   \   00000174   00                 DC8 0
   \                     `?<Initializer for L_Dutch>`:
   \   00000175   00                 DC8 0
   \                     `?<Initializer for AutoAcknowledge>`:
   \   00000176   00                 DC8 0
   \                     `?<Initializer for SimulateIO>`:
   \   00000177   00                 DC8 0
   \                     `?<Initializer for SimulateFixedValues>`:
   \   00000178   00                 DC8 0
   \                     `?<Initializer for hasCableResistanceShip>`:
   \   00000179   00                 DC8 0
   \                     `?<Initializer for hasCableResistanceSensor>`:
   \   0000017A   00                 DC8 0
   \                     `?<Initializer for UseTemperatureWindow>`:
   \   0000017B   00                 DC8 0
   \                     `?<Initializer for IP_AddressGateWay>`:
   \   0000017C   01                 DC8 1
   \                     `?<Initializer for IP_AddressTCU_Master>`:
   \   0000017D   1E                 DC8 30
   \                     `?<Initializer for IP_AddressTCUSlaveStart>`:
   \   0000017E   32                 DC8 50
   \                     `?<Initializer for IP_AddressTCUSlaveEnd>`:
   \   0000017F   45                 DC8 69
   \                     `?<Initializer for IP_AddressTDUStart>`:
   \   00000180   96                 DC8 150
   \                     `?<Initializer for IP_AddressTDUEnd>`:
   \   00000181   C7                 DC8 199
   \                     `?<Initializer for IP_AddressPCStart>`:
   \   00000182   50                 DC8 80
   \                     `?<Initializer for IP_AddressPCEnd>`:
   \   00000183   95                 DC8 149
   \                     `?<Initializer for PressLim_mBar>`:
   \   00000184   00                 DC8 0
   \   00000185   000000             DC8 0, 0, 0
   \                     `?<Initializer for ProjOwner>`:
   \   00000188   000000000000       DC8 0, 0, 0, 0, 0, 0, 0, 0, 0, 0, 0, 0, 0, 0, 0, 0
   \              000000000000
   \              00000000    
   \   00000198   000000000000       DC8 0, 0, 0, 0, 0, 0, 0, 0, 0, 0, 0, 0
   \              000000000000
   \                     `?<Initializer for ProjTypeName>`:
   \   000001A4   000000000000       DC8 0, 0, 0, 0, 0, 0, 0, 0, 0, 0, 0, 0, 0, 0, 0, 0
   \              000000000000
   \              00000000    
   \   000001B4   000000000000       DC8 0, 0, 0, 0, 0, 0, 0, 0, 0, 0, 0, 0
   \              000000000000
   \                     `?<Initializer for ProjectName>`:
   \   000001C0   000000000000       DC8 0, 0, 0, 0, 0, 0, 0, 0, 0, 0, 0, 0, 0, 0, 0, 0
   \              000000000000
   \              00000000    
   \   000001D0   000000000000       DC8 0, 0, 0, 0, 0, 0, 0, 0, 0, 0, 0, 0
   \              000000000000
   \                     `?<Initializer for CallSign>`:
   \   000001DC   000000000000       DC8 0, 0, 0, 0, 0, 0, 0, 0, 0, 0, 0, 0, 0, 0, 0, 0
   \              000000000000
   \              00000000    
   \   000001EC   000000000000       DC8 0, 0, 0, 0, 0, 0, 0, 0, 0, 0, 0, 0
   \              000000000000
   \                     `?<Initializer for IMONumber>`:
   \   000001F8   000000000000       DC8 0, 0, 0, 0, 0, 0, 0, 0, 0, 0, 0, 0, 0, 0, 0, 0
   \              000000000000
   \              00000000    
   \   00000208   000000000000       DC8 0, 0, 0, 0, 0, 0, 0, 0, 0, 0, 0, 0
   \              000000000000

   \                                 In segment DATA_ID, align 4, align-sorted
   \                     `?<Initializer for NoiseLimDefaultB>`:
   \   00000000   CDCCCC3D           DC32 3DCCCCCDH

   \                                 In segment DATA_ID, align 4, align-sorted
   \                     `?<Initializer for NoiseLimDefaultU>`:
   \   00000000   CDCCCC3D           DC32 3DCCCCCDH

   \                                 In segment DATA_ID, align 4, align-sorted
   \                     `?<Initializer for Default_SwitchOn_mA>`:
   \   00000000   0AD7A33B           DC32 3BA3D70AH

   \                                 In segment DATA_ID, align 4, align-sorted
   \                     `?<Initializer for Default_SwitchOff_mA>`:
   \   00000000   F4FD543C           DC32 3C54FDF4H

   \                                 In segment DATA_ID, align 4, align-sorted
   \                     `?<Initializer for Default_SwitchWindow>`:
   \   00000000   6F12033B           DC32 3B03126FH

   \                                 In segment DIFUNCT, align 4, keep-with-next, root
   \   00000000                      REQUIRE ?call_ctors
   \   00000000   ........           DC32    ??__sti__routine

   \                                 In segment DATA_C, align 4, align-sorted
   \   __vtbl_entry const __data PROProjectInfo::__vtbl[23]
   \                     ??__vtbl:
   \   00000000   ............       DC32 `?~PROProjectInfo`, ??WriteConfigToFile, ??LoadConfigFromFile
   \              ............
   \   0000000C   ............       DC32 ??MakeConfigString, ??LoadConfigString, ??RestoreSettings
   \              ............
   \   00000018   ............       DC32 ??GetName, ??FindPROStatus, ??GetFloatValue, ??GetValue
   \              ............
   \              ........    
   \   00000028   ............       DC32 ??GetStringValue, ??GetBitValue, ??PutValue, ??PutFloatValue
   \              ............
   \              ........    
   \   00000038   ............       DC32 ??PutBitValue, ??ReceiveData, ??SendData, ??StartTimer
   \              ............
   \              ........    
   \   00000048   ............       DC32 ??InputTimeout, ??GetValueInfoTable, ??GetServiceValueInfoTable
   \              ............
   \   00000054   ............       DC32 ??SetModifiedFlag, ??IsAvailableNewData
   \              ....        
   \   0000005C   4E6F6E6500         DC8 "None"
   \   00000061   000000             DC8 0, 0, 0
   \   00000064   5368697000         DC8 "Ship"
   \   00000069   000000             DC8 0, 0, 0

   \                                 In segment DATA_C, align 4, align-sorted
   \                     `?<Constant "Project Info:\\nUnknown...">`:
   \   00000000   50726F6A6563       DC8 "Project Info:\012Unknown error started at line:"
   \              7420496E666F
   \              3A0A556E6B6E
   \              6F776E206572
   \              726F72207374
   \              617274656420
   \              6174206C696E
   \              653A00      
   \   0000002D   000000             DC8 0, 0, 0
   \   00000030   50726F6A6563       DC8 "Project Info:\012The keyword "
   \              7420496E666F
   \              3A0A54686520
   \              6B6579776F72
   \              642000      
   \   0000004B   00                 DC8 0
   \   0000004C   206973206E6F       DC8 " is not allowed here!! Line:"
   \              7420616C6C6F
   \              776564206865
   \              72652121204C
   \              696E653A00  
   \   00000069   000000             DC8 0, 0, 0

   \                                 In segment DATA_C, align 4, align-sorted
   \                     `?<Constant "Project info">`:
   \   00000000   50726F6A6563       DC8 "Project info"
   \              7420696E666F
   \              00          
   \   0000000D   000000             DC8 0, 0, 0
   \   00000010   4661696C6564       DC8 "Failed to read tank cleaning media list"
   \              20746F207265
   \              61642074616E
   \              6B20636C6561
   \              6E696E67206D
   \              65646961206C
   \              69737400    

   \                                 In segment DATA_C, align 1, align-sorted
   \   00000000   2E3000             DC8 ".0"

   \                                 In segment CODE, align 4, keep-with-next
   \   __??Code32?? __code __interwork __atpcs PROProjectInfo &PROProjectInfo::new PROProjectInfo()
   \                     `??new PROProjectInfo`:
   \   00000000   00402DE9           PUSH     {LR}
   \   00000004   C800A0E3           MOV      R0,#+200
   \   00000008   ........           _BLF     `??operator new`,`??operator new??rA`
   \   0000000C   000050E3           CMP      R0,#+0
   \   00000010   0000000A           BEQ      `??new PROProjectInfo_1`
   \   00000014   ........           BL       ??PROProjectInfo
   \                     `??new PROProjectInfo_1`:
   \   00000018   ........           B        ?Subroutine14

   \                                 In segment CODE, align 4, keep-with-next
   \                     ??DataTable4:
   \   00000000   ........           DC32     CrLfStr

   \                                 In segment CODE, align 4, keep-with-next
   \                     ??DataTable5:
   \   00000000   ........           DC32     ??npos

   \                                 In segment CODE, align 4, keep-with-next
   \                     ??DataTable6:
   \   00000000   ........           DC32     TabStr1

   \                                 In segment CODE, align 4, keep-with-next
   \                     ??DataTable7:
   \   00000000   ........           DC32     ??UserUnits

   \                                 In segment CODE, align 4, keep-with-next
   \                     ??DataTable8:
   \   00000000   ........           DC32     ??WriteAll

   \                                 In segment CODE, align 4, keep-with-next
   \                     ??DataTable42:
   \   00000000   C74B3789           DC32     0xffffffff89374bc7

   \                                 In segment CODE, align 4, keep-with-next
   \                     ??DataTable43:
   \   00000000   41845840           DC32     0x40588441

   \                                 In segment CODE, align 4, keep-with-next
   \                     ??DataTable44:
   \   00000000   ........           DC32     ??npos

   \                                 In segment CODE, align 4, keep-with-next
   \                     ??DataTable46:
   \   00000000   ........           DC32     ??npos

   \                                 In segment CODE, align 4, keep-with-next
   \                     ??DataTable47:
   \   00000000   ........           DC32     ??UserUnits
   1120          
   1121          
   1122          

   Maximum stack usage in bytes:

     Function                       CSTACK
     --------                       ------
     AnsiString::~AnsiString()          4
     PROProjectInfo::GetStringValue(int, int, AnsiString &)
                                       16
     PROProjectInfo::GetValue(int, int, float &, int &, int &)
                                       40
     PROProjectInfo::GetValueInfoTableStatic(int &, int)
                                        0
     PROProjectInfo::LoadConfigFromFile(TSNConfigString &)
                                      460
     PROProjectInfo::PROProjectInfo()
                                      108
     PROProjectInfo::PutFloatValue(int, float)
                                        4
     PROProjectInfo::PutValue(int, int, AnsiString, bool, int *)
                                       64
     PROProjectInfo::RestoreSettings(TSNConfigString *)
                                      404
     PROProjectInfo::SaveSettings(TSNConfigString *)
                                      296
     PROProjectInfo::WriteConfigToFile(TSNConfigString &)
                                     4724
     PROProjectInfo::new PROProjectInfo()
                                        4
     PROProjectInfo::~PROProjectInfo()
                                       12
     _Tree<_Tset_traits<unsigned int, less<unsigned int>, allocator<unsigned int>, false>>::_Copy(_Tree<_Tset_traits<unsigned int, less<unsigned int>, allocator<unsigned int>, false>> const &)
                                       12
     _Tree<_Tset_traits<unsigned int, less<unsigned int>, allocator<unsigned int>, false>>::_Copy(_Tree<_Tset_traits<unsigned int, less<unsigned int>, allocator<unsigned int>, false>>::_Nodeptr, _Tree<_Tset_traits<unsigned int, less<unsigned int>, allocator<unsigned int>, false>>::_Nodeptr)
                                       32
     _Tree<_Tset_traits<unsigned int, less<unsigned int>, allocator<unsigned int>, false>>::_Erase(_Tree<_Tset_traits<unsigned int, less<unsigned int>, allocator<unsigned int>, false>>::_Nodeptr)
                                       16
     _Tree<_Tset_traits<unsigned int, less<unsigned int>, allocator<unsigned int>, false>>::clear()
                                        8
     _Tree<_Tset_traits<unsigned int, less<unsigned int>, allocator<unsigned int>, false>>::erase(_Tree<_Tset_traits<unsigned int, less<unsigned int>, allocator<unsigned int>, false>>::iterator, _Tree<_Tset_traits<unsigned int, less<unsigned int>, allocator<unsigned int>, false>>::iterator)
                                       20
     _Tree_algobase<allocator<void>>::_Clear()
                                        0
     _Tree_algobase<allocator<void>>::_Erase(_Tree_algobase<allocator<void>>::_Genptr)
                                       32
     _Tree_algobase<allocator<void>>::_IncP(_Tree_algobase<allocator<void>>::_Genptr)
                                        0
     _Tree_algobase<allocator<void>>::_Lrotate(_Tree_algobase<allocator<void>>::_Genptr)
                                        0
     _Tree_algobase<allocator<void>>::_Rrotate(_Tree_algobase<allocator<void>>::_Genptr)
                                        0
     __sti__routine()                  12
     operator+(string const &, char const *)
                                       44
     operator+(string const &, string const &)
                                       40
     set<unsigned int>::operator=(set<unsigned int> const &)
                                       12
     string::string(string const &)    12


   Segment part sizes:

     Function/Label                 Bytes
     --------------                 -----
     string::string(string const &)    64
     _Tree_algobase<allocator<void>>::_IncP(_Tree_algobase<allocator<void>>::_Genptr)
                                       92
     _Tree_algobase<allocator<void>>::_Clear()
                                       36
     _Tree_algobase<allocator<void>>::_Rrotate(_Tree_algobase<allocator<void>>::_Genptr)
                                       84
     _Tree_algobase<allocator<void>>::_Lrotate(_Tree_algobase<allocator<void>>::_Genptr)
                                       84
     _Tree_algobase<allocator<void>>::_Erase(_Tree_algobase<allocator<void>>::_Genptr)
                                      804
     _Tree<_Tset_traits<unsigned int, less<unsigned int>, allocator<unsigned int>, false>>::erase(_Tree<_Tset_traits<unsigned int, less<unsigned int>, allocator<unsigned int>, false>>::iterator, _Tree<_Tset_traits<unsigned int, less<unsigned int>, allocator<unsigned int>, false>>::iterator)
                                      108
     _Tree<_Tset_traits<unsigned int, less<unsigned int>, allocator<unsigned int>, false>>::clear()
                                       32
     _Tree<_Tset_traits<unsigned int, less<unsigned int>, allocator<unsigned int>, false>>::_Copy(_Tree<_Tset_traits<unsigned int, less<unsigned int>, allocator<unsigned int>, false>> const &)
                                      136
     _Tree<_Tset_traits<unsigned int, less<unsigned int>, allocator<unsigned int>, false>>::_Copy(_Tree<_Tset_traits<unsigned int, less<unsigned int>, allocator<unsigned int>, false>>::_Nodeptr, _Tree<_Tset_traits<unsigned int, less<unsigned int>, allocator<unsigned int>, false>>::_Nodeptr)
                                      148
     _Tree<_Tset_traits<unsigned int, less<unsigned int>, allocator<unsigned int>, false>>::_Erase(_Tree<_Tset_traits<unsigned int, less<unsigned int>, allocator<unsigned int>, false>>::_Nodeptr)
                                       68
     set<unsigned int>::operator=(set<unsigned int> const &)
                                       56
     operator+(string const &, string const &)
                                       88
     operator+(string const &, char const *)
                                       92
     AnsiString::~AnsiString()         24
     __sti__routine()                 120
     ?<Constant "192.168.227.0">       88
     PROProjectInfo::UserUnits        532
     PROProjectInfo::NoiseLimDefaultB
                                        4
     PROProjectInfo::NoiseLimDefaultU
                                        4
     PROProjectInfo::Default_SwitchOn_mA
                                        4
     PROProjectInfo::Default_SwitchOff_mA
                                        4
     PROProjectInfo::Default_SwitchWindow
                                        4
     PROProjectInfo::PROProjectInfo()
                                      272
     ?Subroutine15                      8
     PROProjectInfo::~PROProjectInfo()
                                       44
     ?Subroutine13                      8
     PROProjectInfo::SaveSettings(TSNConfigString *)
                                      464
     ?Subroutine16                      8
     PROProjectInfo::RestoreSettings(TSNConfigString *)
                                      776
     ?Subroutine17                      8
     PROProjectInfo::WriteConfigToFile(TSNConfigString &)
                                    20968
     PROProjectInfo::LoadConfigFromFile(TSNConfigString &)
                                     5284
     PROProjectInfo::GetValue(int, int, float &, int &, int &)
                                      140
     PROProjectInfo::GetStringValue(int, int, AnsiString &)
                                      136
     PROProjectInfo::PutValue(int, int, AnsiString, bool, int *)
                                      152
     PROProjectInfo::PutFloatValue(int, float)
                                        8
     ?Subroutine14                      8
     PROProjectInfo::GetValueInfoTableStatic(int &, int)
                                       16
     ?<Initializer for UserUnits>     532
     ?<Initializer for NoiseLimDefaultB>
                                        4
     ?<Initializer for NoiseLimDefaultU>
                                        4
     ?<Initializer for Default_SwitchOn_mA>
                                        4
     ?<Initializer for Default_SwitchOff_mA>
                                        4
     ?<Initializer for Default_SwitchWindow>
                                        4
     PROProjectInfo::__vtbl           108
     ?<Constant "Project Info:\nUnknown...">
                                      108
     ?<Constant "Project info">        56
     ?<Constant ".0">                   3
     PROProjectInfo::new PROProjectInfo()
                                       28
     ??DataTable4                       4
     ??DataTable5                       4
     ??DataTable6                       4
     ??DataTable7                       4
     ??DataTable8                       4
     ??DataTable42                      4
     ??DataTable43                      4
     ??DataTable44                      4
     ??DataTable46                      4
     ??DataTable47                      4
      Others                          872

 
 31 224 bytes in segment CODE
    363 bytes in segment DATA_C
    552 bytes in segment DATA_I
    552 bytes in segment DATA_ID
     24 bytes in segment DATA_Z
      4 bytes in segment DIFUNCT
     24 bytes in segment INITTAB
 
 28 492 bytes of CODE  memory (+ 2 760 bytes shared)
    915 bytes of CONST memory
    576 bytes of DATA  memory

Errors: none
Warnings: none
