##############################################################################
#                                                                            #
# IAR ARM ANSI C/C++ Compiler V4.42A/W32               14/Sep/2022  15:20:18 #
# Copyright 1999-2005 IAR Systems. All rights reserved.                      #
#                                                                            #
#    Cpu mode        =  interwork                                            #
#    Endian          =  little                                               #
#    Stack alignment =  4                                                    #
#    Source file     =  D:\S2Prog\TXU\lwip-1.4.1\src\api\sockets.c           #
#    Command line    =  D:\S2Prog\TXU\lwip-1.4.1\src\api\sockets.c --fpu     #
#                       None -D OS_LIBMODE_SP -D CPU_S3C2410 -D              #
#                       OS_RAMVECT=0 -D OS_UART=-1 -D S2TXU -D USE_LZO=1 -D  #
#                       __ARM_LIBRARY__ -D WATCHDOG=1 -D NETWORK=1 -lCN      #
#                       D:\S2Prog\TXU\Debug\List\ -o                         #
#                       D:\S2Prog\TXU\Debug\Obj\ -s9 --debug --cpu_mode arm  #
#                       --endian little --cpu ARM920T --stack_align 4        #
#                       --interwork -e --enable_multibytes --dlib_config     #
#                       "C:\Program Files (x86)\IAR Systems\Embedded         #
#                       Workbench 4.0\arm\LIB\dl4tpainl8n.h" -I              #
#                       D:\S2Prog\TXU\GUI\CORE\ -I D:\S2Prog\TXU\GUI\WM\ -I  #
#                       D:\S2Prog\TXU\GUI\WIDGET\ -I D:\S2Prog\TXU\CONFIG\   #
#                       -I D:\S2Prog\TXU\INC\ -I D:\S2Prog\TXU\..\SHARED\INC #
#                       \ -I D:\S2Prog\TXU\..\SHARED\SRC\ -I                 #
#                       D:\S2Prog\TXU\..\SHARED\LZO\minilzo.210\ -I          #
#                       D:\S2Prog\TXU\lwip-1.4.1\src\include\ -I             #
#                       D:\S2Prog\TXU\lwip-1.4.1\src\include\ipv4\ -I        #
#                       D:\S2Prog\TXU\lwip-1.4.1\src\ -I                     #
#                       D:\S2Prog\TXU\..\SHARED\Database\ -I                 #
#                       D:\S2Prog\TXU\src\ -I "C:\Program Files (x86)\IAR    #
#                       Systems\Embedded Workbench 4.0\arm\INC\"             #
#                       --inline_threshold=2                                 #
#    List file       =  D:\S2Prog\TXU\Debug\List\sockets.lst                 #
#    Object file     =  D:\S2Prog\TXU\Debug\Obj\sockets.r79                  #
#                                                                            #
#                                                                            #
##############################################################################

D:\S2Prog\TXU\lwip-1.4.1\src\api\sockets.c
      1          /**
      2           * @file
      3           * Sockets BSD-Like API module
      4           *
      5           */
      6          
      7          /*
      8           * Copyright (c) 2001-2004 Swedish Institute of Computer Science.
      9           * All rights reserved.
     10           *
     11           * Redistribution and use in source and binary forms, with or without modification,
     12           * are permitted provided that the following conditions are met:
     13           *
     14           * 1. Redistributions of source code must retain the above copyright notice,
     15           *    this list of conditions and the following disclaimer.
     16           * 2. Redistributions in binary form must reproduce the above copyright notice,
     17           *    this list of conditions and the following disclaimer in the documentation
     18           *    and/or other materials provided with the distribution.
     19           * 3. The name of the author may not be used to endorse or promote products
     20           *    derived from this software without specific prior written permission.
     21           *
     22           * THIS SOFTWARE IS PROVIDED BY THE AUTHOR ``AS IS'' AND ANY EXPRESS OR IMPLIED
     23           * WARRANTIES, INCLUDING, BUT NOT LIMITED TO, THE IMPLIED WARRANTIES OF
     24           * MERCHANTABILITY AND FITNESS FOR A PARTICULAR PURPOSE ARE DISCLAIMED. IN NO EVENT
     25           * SHALL THE AUTHOR BE LIABLE FOR ANY DIRECT, INDIRECT, INCIDENTAL, SPECIAL,
     26           * EXEMPLARY, OR CONSEQUENTIAL DAMAGES (INCLUDING, BUT NOT LIMITED TO, PROCUREMENT
     27           * OF SUBSTITUTE GOODS OR SERVICES; LOSS OF USE, DATA, OR PROFITS; OR BUSINESS
     28           * INTERRUPTION) HOWEVER CAUSED AND ON ANY THEORY OF LIABILITY, WHETHER IN
     29           * CONTRACT, STRICT LIABILITY, OR TORT (INCLUDING NEGLIGENCE OR OTHERWISE) ARISING
     30           * IN ANY WAY OUT OF THE USE OF THIS SOFTWARE, EVEN IF ADVISED OF THE POSSIBILITY
     31           * OF SUCH DAMAGE.
     32           *
     33           * This file is part of the lwIP TCP/IP stack.
     34           *
     35           * Author: Adam Dunkels <adam@sics.se>
     36           *
     37           * Improved by Marc Boucher <marc@mbsi.ca> and David Haas <dhaas@alum.rpi.edu>
     38           *
     39           */
     40          
     41          #include "lwip/opt.h"
     42          
     43          #if LWIP_SOCKET /* don't build if not configured for use in lwipopts.h */
     44          
     45          #include "lwip/sockets.h"
     46          #include "lwip/api.h"
     47          #include "lwip/sys.h"
     48          #include "lwip/igmp.h"
     49          #include "lwip/inet.h"
     50          #include "lwip/tcp.h"
     51          #include "lwip/raw.h"
     52          #include "lwip/udp.h"
     53          #include "lwip/tcpip.h"
     54          #include "lwip/pbuf.h"
     55          #if LWIP_CHECKSUM_ON_COPY
     56          #include "lwip/inet_chksum.h"
     57          #endif
     58          
     59          #include <string.h>
     60          
     61          #define NUM_SOCKETS MEMP_NUM_NETCONN
     62          
     63          /** Contains all internal pointers and states used for a socket */
     64          struct lwip_sock {
     65            /** sockets currently are built on netconns, each socket has one netconn */
     66            struct netconn *conn;
     67            /** data that was left from the previous read */
     68            void *lastdata;
     69            /** offset in the data that was left from the previous read */
     70            u16_t lastoffset;
     71            /** number of times data was received, set by event_callback(),
     72                tested by the receive and select functions */
     73            s16_t rcvevent;
     74            /** number of times data was ACKed (free send buffer), set by event_callback(),
     75                tested by select */
     76            u16_t sendevent;
     77            /** error happened for this socket, set by event_callback(), tested by select */
     78            u16_t errevent; 
     79            /** last error that occurred on this socket */
     80            int err;
     81            /** counter of how many threads are waiting for this socket using select */
     82            int select_waiting;
     83          };
     84          
     85          /** Description for a task waiting in select */
     86          struct lwip_select_cb {
     87            /** Pointer to the next waiting task */
     88            struct lwip_select_cb *next;
     89            /** Pointer to the previous waiting task */
     90            struct lwip_select_cb *prev;
     91            /** readset passed to select */
     92            fd_set *readset;
     93            /** writeset passed to select */
     94            fd_set *writeset;
     95            /** unimplemented: exceptset passed to select */
     96            fd_set *exceptset;
     97            /** don't signal the same semaphore twice: set to 1 when signalled */
     98            int sem_signalled;
     99            /** semaphore to wake up a task waiting for select */
    100            sys_sem_t sem;
    101          };
    102          
    103          /** This struct is used to pass data to the set/getsockopt_internal
    104           * functions running in tcpip_thread context (only a void* is allowed) */
    105          struct lwip_setgetsockopt_data {
    106            /** socket struct for which to change options */
    107            struct lwip_sock *sock;
    108          #ifdef LWIP_DEBUG
    109            /** socket index for which to change options */
    110            int s;
    111          #endif /* LWIP_DEBUG */
    112            /** level of the option to process */
    113            int level;
    114            /** name of the option to process */
    115            int optname;
    116            /** set: value to set the option to
    117              * get: value of the option is stored here */
    118            void *optval;
    119            /** size of *optval */
    120            socklen_t *optlen;
    121            /** if an error occures, it is temporarily stored here */
    122            err_t err;
    123          };
    124          
    125          /** The global array of available sockets */

   \                                 In segment DATA_Z, align 4, align-sorted
    126          static struct lwip_sock sockets[NUM_SOCKETS];
   \                     sockets:
   \   00000000                      DS8 384
   \   00000180                      DS8 4
   \   00000184                      DS8 4
    127          /** The global list of tasks waiting for select */
    128          static struct lwip_select_cb *select_cb_list;
    129          /** This counter is increased from lwip_select when the list is chagned
    130              and checked in event_callback to see if it has changed. */
    131          static volatile int select_cb_ctr;
    132          
    133          /** Table to quickly map an lwIP error (err_t) to a socket error
    134            * by using -err as an index */

   \                                 In segment DATA_C, align 4, align-sorted
    135          static const int err_to_errno_table[] = {
   \                     err_to_errno_table:
   \   00000000   000000000C00       DC32 0, 12, 105, 11, 113, 115, 22, 11, 98, 114, 103, 104, 107, 107, 5
   \              000069000000
   \              0B0000007100
   \              000073000000
   \              160000000B00
   \              000062000000
   \              720000006700
   \              000068000000
   \              6B0000006B00
   \              000005000000
   \   0000003C   FFFFFFFF           DC32 -1
    136            0,             /* ERR_OK          0      No error, everything OK. */
    137            ENOMEM,        /* ERR_MEM        -1      Out of memory error.     */
    138            ENOBUFS,       /* ERR_BUF        -2      Buffer error.            */
    139            EWOULDBLOCK,   /* ERR_TIMEOUT    -3      Timeout                  */
    140            EHOSTUNREACH,  /* ERR_RTE        -4      Routing problem.         */
    141            EINPROGRESS,   /* ERR_INPROGRESS -5      Operation in progress    */
    142            EINVAL,        /* ERR_VAL        -6      Illegal value.           */
    143            EWOULDBLOCK,   /* ERR_WOULDBLOCK -7      Operation would block.   */
    144            EADDRINUSE,    /* ERR_USE        -8      Address in use.          */
    145            EALREADY,      /* ERR_ISCONN     -9      Already connected.       */
    146            ECONNABORTED,  /* ERR_ABRT       -10     Connection aborted.      */
    147            ECONNRESET,    /* ERR_RST        -11     Connection reset.        */
    148            ENOTCONN,      /* ERR_CLSD       -12     Connection closed.       */
    149            ENOTCONN,      /* ERR_CONN       -13     Not connected.           */
    150            EIO,           /* ERR_ARG        -14     Illegal argument.        */
    151            -1,            /* ERR_IF         -15     Low-level netif error    */
    152          };
    153          
    154          #define ERR_TO_ERRNO_TABLE_SIZE \
    155            (sizeof(err_to_errno_table)/sizeof(err_to_errno_table[0]))
    156          
    157          #define err_to_errno(err) \
    158            ((unsigned)(-(err)) < ERR_TO_ERRNO_TABLE_SIZE ? \
    159              err_to_errno_table[-(err)] : EIO)
    160          
    161          #ifdef ERRNO
    162          #ifndef set_errno
    163          #define set_errno(err) errno = (err)
    164          #endif
    165          #else /* ERRNO */
    166          #define set_errno(err)
    167          #endif /* ERRNO */
    168          
    169          #define sock_set_errno(sk, e) do { \
    170            sk->err = (e); \
    171            set_errno(sk->err); \
    172          } while (0)
    173          
    174          /* Forward delcaration of some functions */
    175          static void event_callback(struct netconn *conn, enum netconn_evt evt, u16_t len);
    176          static void lwip_getsockopt_internal(void *arg);
    177          static void lwip_setsockopt_internal(void *arg);
    178          
    179          /**
    180           * Initialize this module. This function has to be called before any other
    181           * functions in this module!
    182           */

   \                                 In segment CODE, align 4, keep-with-next
    183          void
    184          lwip_socket_init(void)
    185          {
    186          }
   \                     lwip_socket_init:
   \   00000000   1EFF2FE1           BX       LR               ;; return
    187          
    188          /**
    189           * Map a externally used socket index to the internal socket representation.
    190           *
    191           * @param s externally used socket index
    192           * @return struct lwip_sock for the socket or NULL if not found
    193           */

   \                                 In segment CODE, align 4, keep-with-next
    194          static struct lwip_sock *
    195          get_socket(int s)
    196          {
    197            struct lwip_sock *sock;
    198          
    199            if ((s < 0) || (s >= NUM_SOCKETS)) {
   \                     get_socket:
   \   00000000   000050E3           CMP      R0,#+0
   \   00000004   0100004A           BMI      ??get_socket_0
   \   00000008   100050E3           CMP      R0,#+16
   \   0000000C   010000BA           BLT      ??get_socket_1
    200              LWIP_DEBUGF(SOCKETS_DEBUG, ("get_socket(%d): invalid\n", s));
    201              set_errno(EBADF);
    202              return NULL;
   \                     ??get_socket_0:
   \   00000010   0000A0E3           MOV      R0,#+0
   \   00000014   1EFF2FE1           BX       LR
    203            }
    204          
    205            sock = &sockets[s];
   \                     ??get_socket_1:
   \   00000018   ........           LDR      R2,??DataTable10  ;; sockets
   \   0000001C   1810A0E3           MOV      R1,#+24
   \   00000020   912020E0           MLA      R0,R1,R0,R2
    206          
    207            if (!sock->conn) {
   \   00000024   001090E5           LDR      R1,[R0, #+0]
   \   00000028   000051E3           CMP      R1,#+0
    208              LWIP_DEBUGF(SOCKETS_DEBUG, ("get_socket(%d): not active\n", s));
    209              set_errno(EBADF);
    210              return NULL;
   \   0000002C   0000A003           MOVEQ    R0,#+0
    211            }
    212          
    213            return sock;
   \   00000030   1EFF2FE1           BX       LR               ;; return
    214          }
    215          
    216          /**
    217           * Same as get_socket but doesn't set errno
    218           *
    219           * @param s externally used socket index
    220           * @return struct lwip_sock for the socket or NULL if not found
    221           */
    222          static struct lwip_sock *
    223          tryget_socket(int s)
    224          {
    225            if ((s < 0) || (s >= NUM_SOCKETS)) {
    226              return NULL;
    227            }
    228            if (!sockets[s].conn) {
    229              return NULL;
    230            }
    231            return &sockets[s];
    232          }
    233          
    234          /**
    235           * Allocate a new socket for a given netconn.
    236           *
    237           * @param newconn the netconn for which to allocate a socket
    238           * @param accepted 1 if socket has been created by accept(),
    239           *                 0 if socket has been created by socket()
    240           * @return the index of the new socket; -1 on error
    241           */
    242          static int
    243          alloc_socket(struct netconn *newconn, int accepted)
    244          {
    245            int i;
    246            SYS_ARCH_DECL_PROTECT(lev);
    247          
    248            /* allocate a new socket identifier */
    249            for (i = 0; i < NUM_SOCKETS; ++i) {
    250              /* Protect socket array */
    251              SYS_ARCH_PROTECT(lev);
    252              if (!sockets[i].conn) {
    253                sockets[i].conn       = newconn;
    254                /* The socket is not yet known to anyone, so no need to protect
    255                   after having marked it as used. */
    256                SYS_ARCH_UNPROTECT(lev);
    257                sockets[i].lastdata   = NULL;
    258                sockets[i].lastoffset = 0;
    259                sockets[i].rcvevent   = 0;
    260                /* TCP sendbuf is empty, but the socket is not yet writable until connected
    261                 * (unless it has been created by accept()). */
    262                sockets[i].sendevent  = (newconn->type == NETCONN_TCP ? (accepted != 0) : 1);
    263                sockets[i].errevent   = 0;
    264                sockets[i].err        = 0;
    265                sockets[i].select_waiting = 0;
    266                return i;
    267              }
    268              SYS_ARCH_UNPROTECT(lev);
    269            }
    270            return -1;
    271          }
    272          
    273          /** Free a socket. The socket's netconn must have been
    274           * delete before!
    275           *
    276           * @param sock the socket to free
    277           * @param is_tcp != 0 for TCP sockets, used to free lastdata
    278           */
    279          static void
    280          free_socket(struct lwip_sock *sock, int is_tcp)
    281          {
    282            void *lastdata;
    283            SYS_ARCH_DECL_PROTECT(lev);
    284          
    285            lastdata         = sock->lastdata;
    286            sock->lastdata   = NULL;
    287            sock->lastoffset = 0;
    288            sock->err        = 0;
    289          
    290            /* Protect socket array */
    291            SYS_ARCH_PROTECT(lev);
    292            sock->conn       = NULL;
    293            SYS_ARCH_UNPROTECT(lev);
    294            /* don't use 'sock' after this line, as another task might have allocated it */
    295          
    296            if (lastdata != NULL) {
    297              if (is_tcp) {
    298                pbuf_free((struct pbuf *)lastdata);
    299              } else {
    300                netbuf_delete((struct netbuf *)lastdata);
    301              }
    302            }
    303          }
    304          
    305          /* Below this, the well-known socket functions are implemented.
    306           * Use google.com or opengroup.org to get a good description :-)
    307           *
    308           * Exceptions are documented!
    309           */
    310          

   \                                 In segment CODE, align 4, keep-with-next
    311          int
    312          lwip_accept(int s, struct sockaddr *addr, socklen_t *addrlen)
    313          {
   \                     lwip_accept:
   \   00000000   F0412DE9           PUSH     {R4-R8,LR}
   \   00000004   1CD04DE2           SUB      SP,SP,#+28
   \   00000008   0150A0E1           MOV      R5,R1
   \   0000000C   0260A0E1           MOV      R6,R2
    314            struct lwip_sock *sock, *nsock;
    315            struct netconn *newconn;
    316            ip_addr_t naddr;
    317            u16_t port;
    318            int newsock;
    319            struct sockaddr_in sin;
    320            err_t err;
    321            SYS_ARCH_DECL_PROTECT(lev);
    322          
    323            LWIP_DEBUGF(SOCKETS_DEBUG, ("lwip_accept(%d)...\n", s));
    324            sock = get_socket(s);
   \   00000010   ........           BL       get_socket
   \   00000014   0040B0E1           MOVS     R4,R0
    325            if (!sock) {
   \   00000018   0000001A           BNE      ??lwip_accept_0
    326              return -1;
   \                     ??lwip_accept_1:
   \   0000001C   2B0000EA           B        ??lwip_accept_2
    327            }
    328          
    329            if (netconn_is_nonblocking(sock->conn) && (sock->rcvevent <= 0)) {
   \                     ??lwip_accept_0:
   \   00000020   000094E5           LDR      R0,[R4, #+0]
   \   00000024   4C10D0E5           LDRB     R1,[R0, #+76]
   \   00000028   020011E3           TST      R1,#0x2
   \   0000002C   0400000A           BEQ      ??lwip_accept_3
   \   00000030   FA10D4E1           LDRSH    R1,[R4, #+10]
   \   00000034   010051E3           CMP      R1,#+1
    330              LWIP_DEBUGF(SOCKETS_DEBUG, ("lwip_accept(%d): returning EWOULDBLOCK\n", s));
    331              sock_set_errno(sock, EWOULDBLOCK);
   \   00000038   0B00A0B3           MOVLT    R0,#+11
   \   0000003C   100084B5           STRLT    R0,[R4, #+16]
    332              return -1;
   \   00000040   220000BA           BLT      ??lwip_accept_2
    333            }
    334          
    335            /* wait for a new connection */
    336            err = netconn_accept(sock->conn, &newconn);
    337            if (err != ERR_OK) {
   \                     ??lwip_accept_3:
   \   00000044   ........           LDR      R7,??DataTable8  ;; err_to_errno_table
   \   00000048   0D10A0E1           MOV      R1,SP
   \   0000004C   ........           _BLF     netconn_accept,??netconn_accept??rA
   \   00000050   0080B0E1           MOVS     R8,R0
   \   00000054   0B00000A           BEQ      ??lwip_accept_4
    338              LWIP_DEBUGF(SOCKETS_DEBUG, ("lwip_accept(%d): netconn_acept failed, err=%d\n", s, err));
    339              if (netconn_type(sock->conn) != NETCONN_TCP) {
   \   00000058   000094E5           LDR      R0,[R4, #+0]
   \   0000005C   0000D0E5           LDRB     R0,[R0, #+0]
   \   00000060   100050E3           CMP      R0,#+16
    340                sock_set_errno(sock, EOPNOTSUPP);
   \   00000064   5F00A013           MOVNE    R0,#+95
   \   00000068   10008415           STRNE    R0,[R4, #+16]
    341                return EOPNOTSUPP;
   \   0000006C   5300001A           BNE      ??lwip_accept_5
    342              }
    343              sock_set_errno(sock, err_to_errno(err));
   \   00000070   000068E2           RSB      R0,R8,#+0
   \   00000074   100050E3           CMP      R0,#+16
   \   00000078   00019737           LDRCC    R0,[R7, +R0, LSL #+2]
   \   0000007C   0500A023           MOVCS    R0,#+5
   \                     ??lwip_accept_6:
   \   00000080   100084E5           STR      R0,[R4, #+16]
    344              return -1;
   \   00000084   110000EA           B        ??lwip_accept_2
    345            }
    346            LWIP_ASSERT("newconn != NULL", newconn != NULL);
    347            /* Prevent automatic window updates, we do this on our own! */
    348            netconn_set_noautorecved(newconn, 1);
   \                     ??lwip_accept_4:
   \   00000088   00009DE5           LDR      R0,[SP, #+0]
    349          
    350            /* get the IP address and port of the remote host */
    351            err = netconn_peer(newconn, &naddr, &port);
   \   0000008C   0030A0E3           MOV      R3,#+0
   \   00000090   4C10D0E5           LDRB     R1,[R0, #+76]
   \   00000094   04208DE2           ADD      R2,SP,#+4
   \   00000098   081081E3           ORR      R1,R1,#0x8
   \   0000009C   4C10C0E5           STRB     R1,[R0, #+76]
   \   000000A0   00009DE5           LDR      R0,[SP, #+0]
   \   000000A4   08108DE2           ADD      R1,SP,#+8
   \   000000A8   ........           _BLF     netconn_getaddr,??netconn_getaddr??rA
   \   000000AC   0080B0E1           MOVS     R8,R0
    352            if (err != ERR_OK) {
   \   000000B0   0A00000A           BEQ      ??lwip_accept_7
    353              LWIP_DEBUGF(SOCKETS_DEBUG, ("lwip_accept(%d): netconn_peer failed, err=%d\n", s, err));
    354              netconn_delete(newconn);
   \   000000B4   00009DE5           LDR      R0,[SP, #+0]
   \   000000B8   ........           _BLF     netconn_delete,??netconn_delete??rA
    355              sock_set_errno(sock, err_to_errno(err));
   \   000000BC   000068E2           RSB      R0,R8,#+0
   \   000000C0   100050E3           CMP      R0,#+16
   \   000000C4   00019737           LDRCC    R0,[R7, +R0, LSL #+2]
   \   000000C8   0500A023           MOVCS    R0,#+5
   \   000000CC   100084E5           STR      R0,[R4, #+16]
    356              return -1;
   \                     ??lwip_accept_2:
   \   000000D0   1CD08DE2           ADD      SP,SP,#+28
   \   000000D4   F041BDE8           POP      {R4-R8,LR}
   \   000000D8   0000E0E3           MVN      R0,#+0
   \   000000DC   1EFF2FE1           BX       LR
    357            }
    358          
    359            /* Note that POSIX only requires us to check addr is non-NULL. addrlen must
    360             * not be NULL if addr is valid.
    361             */
    362            if (NULL != addr) {
   \                     ??lwip_accept_7:
   \   000000E0   000055E3           CMP      R5,#+0
   \   000000E4   1300000A           BEQ      ??lwip_accept_8
    363              LWIP_ASSERT("addr valid but addrlen NULL", addrlen != NULL);
    364              memset(&sin, 0, sizeof(sin));
   \   000000E8   1020A0E3           MOV      R2,#+16
   \   000000EC   0010A0E3           MOV      R1,#+0
   \   000000F0   0C008DE2           ADD      R0,SP,#+12
   \   000000F4   ........           _BLF     memset,??memset??rA
    365              sin.sin_len = sizeof(sin);
   \   000000F8   1070A0E3           MOV      R7,#+16
   \   000000FC   0C70CDE5           STRB     R7,[SP, #+12]
    366              sin.sin_family = AF_INET;
   \   00000100   0210A0E3           MOV      R1,#+2
   \   00000104   0D10CDE5           STRB     R1,[SP, #+13]
    367              sin.sin_port = htons(port);
   \   00000108   B400DDE1           LDRH     R0,[SP, #+4]
   \   0000010C   ........           _BLF     lwip_htons,??lwip_htons??rA
   \   00000110   BE00CDE1           STRH     R0,[SP, #+14]
    368              inet_addr_from_ipaddr(&sin.sin_addr, &naddr);
   \   00000114   08109DE5           LDR      R1,[SP, #+8]
   \   00000118   10108DE5           STR      R1,[SP, #+16]
    369          
    370              if (*addrlen > sizeof(sin))
   \   0000011C   000096E5           LDR      R0,[R6, #+0]
    371                *addrlen = sizeof(sin);
    372          
    373              MEMCPY(addr, &sin, *addrlen);
   \   00000120   0C108DE2           ADD      R1,SP,#+12
   \   00000124   110050E3           CMP      R0,#+17
   \   00000128   00708625           STRCS    R7,[R6, #+0]
   \   0000012C   002096E5           LDR      R2,[R6, #+0]
   \   00000130   0500A0E1           MOV      R0,R5
   \   00000134   ........           _BLF     memcpy,??memcpy??rA
    374            }
    375          
    376            newsock = alloc_socket(newconn, 1);
   \                     ??lwip_accept_8:
   \   00000138   00709DE5           LDR      R7,[SP, #+0]
   \   0000013C   0050A0E3           MOV      R5,#+0
   \                     ??lwip_accept_9:
   \   00000140   ........           _BLF     sys_arch_protect,??sys_arch_protect??rA
   \   00000144   ........           LDR      R2,??DataTable10  ;; sockets
   \   00000148   1810A0E3           MOV      R1,#+24
   \   0000014C   912526E0           MLA      R6,R1,R5,R2
   \   00000150   001096E5           LDR      R1,[R6, #+0]
   \   00000154   000051E3           CMP      R1,#+0
   \   00000158   1B00001A           BNE      ??lwip_accept_10
   \   0000015C   007086E5           STR      R7,[R6, #+0]
   \   00000160   ........           _BLF     sys_arch_unprotect,??sys_arch_unprotect??rA
   \   00000164   0070A0E3           MOV      R7,#+0
   \   00000168   047086E5           STR      R7,[R6, #+4]
   \   0000016C   B870C6E1           STRH     R7,[R6, #+8]
   \   00000170   BA70C6E1           STRH     R7,[R6, #+10]
   \   00000174   0100A0E3           MOV      R0,#+1
   \   00000178   BC00C6E1           STRH     R0,[R6, #+12]
   \   0000017C   BE70C6E1           STRH     R7,[R6, #+14]
   \   00000180   107086E5           STR      R7,[R6, #+16]
   \   00000184   147086E5           STR      R7,[R6, #+20]
    377            if (newsock == -1) {
   \   00000188   010075E3           CMN      R5,#+1
   \   0000018C   1200000A           BEQ      ??lwip_accept_11
    378              netconn_delete(newconn);
    379              sock_set_errno(sock, ENFILE);
    380              return -1;
    381            }
    382            LWIP_ASSERT("invalid socket index", (newsock >= 0) && (newsock < NUM_SOCKETS));
    383            LWIP_ASSERT("newconn->callback == event_callback", newconn->callback == event_callback);
    384            nsock = &sockets[newsock];
    385          
    386            /* See event_callback: If data comes in right away after an accept, even
    387             * though the server task might not have created a new socket yet.
    388             * In that case, newconn->socket is counted down (newconn->socket--),
    389             * so nsock->rcvevent is >= 1 here!
    390             */
    391            SYS_ARCH_PROTECT(lev);
   \   00000190   ........           _BLF     sys_arch_protect,??sys_arch_protect??rA
    392            nsock->rcvevent += (s16_t)(-1 - newconn->socket);
   \   00000194   FA10D6E1           LDRSH    R1,[R6, #+10]
   \   00000198   00209DE5           LDR      R2,[SP, #+0]
   \   0000019C   011041E2           SUB      R1,R1,#+1
   \   000001A0   442092E5           LDR      R2,[R2, #+68]
   \   000001A4   021041E0           SUB      R1,R1,R2
   \   000001A8   BA10C6E1           STRH     R1,[R6, #+10]
    393            newconn->socket = newsock;
   \   000001AC   00109DE5           LDR      R1,[SP, #+0]
   \   000001B0   445081E5           STR      R5,[R1, #+68]
    394            SYS_ARCH_UNPROTECT(lev);
   \   000001B4   ........           _BLF     sys_arch_unprotect,??sys_arch_unprotect??rA
    395          
    396            LWIP_DEBUGF(SOCKETS_DEBUG, ("lwip_accept(%d) returning new sock=%d addr=", s, newsock));
    397            ip_addr_debug_print(SOCKETS_DEBUG, &naddr);
    398            LWIP_DEBUGF(SOCKETS_DEBUG, (" port=%"U16_F"\n", port));
    399          
    400            sock_set_errno(sock, 0);
   \   000001B8   107084E5           STR      R7,[R4, #+16]
    401            return newsock;
   \   000001BC   0500A0E1           MOV      R0,R5
   \                     ??lwip_accept_5:
   \   000001C0   1CD08DE2           ADD      SP,SP,#+28
   \   000001C4   F041BDE8           POP      {R4-R8,LR}
   \   000001C8   1EFF2FE1           BX       LR               ;; return
   \                     ??lwip_accept_10:
   \   000001CC   ........           _BLF     sys_arch_unprotect,??sys_arch_unprotect??rA
   \   000001D0   015085E2           ADD      R5,R5,#+1
   \   000001D4   100055E3           CMP      R5,#+16
   \   000001D8   D8FFFFBA           BLT      ??lwip_accept_9
   \                     ??lwip_accept_11:
   \   000001DC   00009DE5           LDR      R0,[SP, #+0]
   \   000001E0   ........           _BLF     netconn_delete,??netconn_delete??rA
   \   000001E4   1700A0E3           MOV      R0,#+23
   \   000001E8   A4FFFFEA           B        ??lwip_accept_6
    402          }
    403          

   \                                 In segment CODE, align 4, keep-with-next
    404          int
    405          lwip_bind(int s, const struct sockaddr *name, socklen_t namelen)
    406          {
   \                     lwip_bind:
   \   00000000   30402DE9           PUSH     {R4,R5,LR}
   \   00000004   04D04DE2           SUB      SP,SP,#+4
   \   00000008   0150A0E1           MOV      R5,R1
    407            struct lwip_sock *sock;
    408            ip_addr_t local_addr;
    409            u16_t local_port;
    410            err_t err;
    411            const struct sockaddr_in *name_in;
    412          
    413            sock = get_socket(s);
   \   0000000C   ........           BL       get_socket
   \   00000010   0040B0E1           MOVS     R4,R0
    414            if (!sock) {
   \   00000014   0F00000A           BEQ      ??lwip_bind_0
    415              return -1;
    416            }
    417          
    418            /* check size, familiy and alignment of 'name' */
    419            /*
    420            LWIP_ERROR("lwip_bind: invalid address", ((namelen == sizeof(struct sockaddr_in)) &&
    421                       ((name->sa_family) == AF_INET) && ((((mem_ptr_t)name) % 4) == 0)),
    422                       sock_set_errno(sock, err_to_errno(ERR_ARG)); return -1;);
    423            */
    424            name_in = (const struct sockaddr_in *)(void*)name;
    425          
    426            inet_addr_to_ipaddr(&local_addr, &name_in->sin_addr);
   \                     ??lwip_bind_1:
   \   00000018   041095E5           LDR      R1,[R5, #+4]
   \   0000001C   00108DE5           STR      R1,[SP, #+0]
    427            local_port = name_in->sin_port;
    428          
    429            LWIP_DEBUGF(SOCKETS_DEBUG, ("lwip_bind(%d, addr=", s));
    430            ip_addr_debug_print(SOCKETS_DEBUG, &local_addr);
    431            LWIP_DEBUGF(SOCKETS_DEBUG, (" port=%"U16_F")\n", ntohs(local_port)));
    432          
    433            err = netconn_bind(sock->conn, &local_addr, ntohs(local_port));
   \   00000020   B200D5E1           LDRH     R0,[R5, #+2]
   \   00000024   ........           _BLF     lwip_ntohs,??lwip_ntohs??rA
   \   00000028   0020A0E1           MOV      R2,R0
   \   0000002C   000094E5           LDR      R0,[R4, #+0]
   \   00000030   0D10A0E1           MOV      R1,SP
   \   00000034   ........           _BLF     netconn_bind,??netconn_bind??rA
    434          
    435            if (err != ERR_OK) {
   \   00000038   000050E3           CMP      R0,#+0
   \   0000003C   0800000A           BEQ      ??lwip_bind_2
    436              LWIP_DEBUGF(SOCKETS_DEBUG, ("lwip_bind(%d) failed, err=%d\n", s, err));
    437              sock_set_errno(sock, err_to_errno(err));
   \   00000040   000060E2           RSB      R0,R0,#+0
   \   00000044   100050E3           CMP      R0,#+16
   \   00000048   ........           LDRCC    R1,??DataTable8  ;; err_to_errno_table
   \   0000004C   0500A023           MOVCS    R0,#+5
   \   00000050   00019137           LDRCC    R0,[R1, +R0, LSL #+2]
   \   00000054   100084E5           STR      R0,[R4, #+16]
    438              return -1;
   \                     ??lwip_bind_0:
   \   00000058   3240BDE8           POP      {R1,R4,R5,LR}
   \   0000005C   0000E0E3           MVN      R0,#+0
   \   00000060   1EFF2FE1           BX       LR
    439            }
    440          
    441            LWIP_DEBUGF(SOCKETS_DEBUG, ("lwip_bind(%d) succeeded\n", s));
    442            sock_set_errno(sock, 0);
   \                     ??lwip_bind_2:
   \   00000064   100084E5           STR      R0,[R4, #+16]
    443            return 0;
   \   00000068   3240BDE8           POP      {R1,R4,R5,LR}
   \   0000006C   1EFF2FE1           BX       LR               ;; return
    444          }
    445          

   \                                 In segment CODE, align 4, keep-with-next
    446          int
    447          lwip_close(int s)
    448          {
   \                     lwip_close:
   \   00000000   F0402DE9           PUSH     {R4-R7,LR}
    449            struct lwip_sock *sock;
    450            int is_tcp = 0;
   \   00000004   0040A0E3           MOV      R4,#+0
    451          
    452            LWIP_DEBUGF(SOCKETS_DEBUG, ("lwip_close(%d)\n", s));
    453          
    454            sock = get_socket(s);
   \   00000008   ........           BL       get_socket
   \   0000000C   0050B0E1           MOVS     R5,R0
    455            if (!sock) {
    456              return -1;
   \   00000010   0400E001           MVNEQ    R0,R4
   \   00000014   1700000A           BEQ      ??lwip_close_0
    457            }
    458          
    459            if(sock->conn != NULL) {
   \   00000018   000095E5           LDR      R0,[R5, #+0]
   \   0000001C   000050E3           CMP      R0,#+0
   \   00000020   0200000A           BEQ      ??lwip_close_1
    460              is_tcp = netconn_type(sock->conn) == NETCONN_TCP;
   \   00000024   0010D0E5           LDRB     R1,[R0, #+0]
   \   00000028   100051E3           CMP      R1,#+16
   \   0000002C   0140A003           MOVEQ    R4,#+1
    461            } else {
    462              LWIP_ASSERT("sock->lastdata == NULL", sock->lastdata == NULL);
    463            }
    464          
    465            netconn_delete(sock->conn);
   \                     ??lwip_close_1:
   \   00000030   ........           _BLF     netconn_delete,??netconn_delete??rA
    466          
    467            free_socket(sock, is_tcp);
   \   00000034   046095E5           LDR      R6,[R5, #+4]
   \   00000038   0070A0E3           MOV      R7,#+0
   \   0000003C   047085E5           STR      R7,[R5, #+4]
   \   00000040   B870C5E1           STRH     R7,[R5, #+8]
   \   00000044   107085E5           STR      R7,[R5, #+16]
   \   00000048   ........           _BLF     sys_arch_protect,??sys_arch_protect??rA
   \   0000004C   007085E5           STR      R7,[R5, #+0]
   \   00000050   ........           _BLF     sys_arch_unprotect,??sys_arch_unprotect??rA
   \   00000054   000056E3           CMP      R6,#+0
   \   00000058   0500000A           BEQ      ??lwip_close_2
   \   0000005C   000054E3           CMP      R4,#+0
   \   00000060   0600A0E1           MOV      R0,R6
   \   00000064   0100000A           BEQ      ??lwip_close_3
   \   00000068   ........           _BLF     pbuf_free,??pbuf_free??rA
   \   0000006C   000000EA           B        ??lwip_close_2
   \                     ??lwip_close_3:
   \   00000070   ........           _BLF     netbuf_delete,??netbuf_delete??rA
    468            set_errno(0);
    469            return 0;
   \                     ??lwip_close_2:
   \   00000074   0000A0E3           MOV      R0,#+0
   \                     ??lwip_close_0:
   \   00000078   F040BDE8           POP      {R4-R7,LR}
   \   0000007C   1EFF2FE1           BX       LR               ;; return
    470          }
    471          

   \                                 In segment CODE, align 4, keep-with-next
    472          int
    473          lwip_connect(int s, const struct sockaddr *name, socklen_t namelen)
    474          {
   \                     lwip_connect:
   \   00000000   30402DE9           PUSH     {R4,R5,LR}
   \   00000004   04D04DE2           SUB      SP,SP,#+4
   \   00000008   0150A0E1           MOV      R5,R1
    475            struct lwip_sock *sock;
    476            err_t err;
    477            const struct sockaddr_in *name_in;
    478          
    479            sock = get_socket(s);
   \   0000000C   ........           BL       get_socket
   \   00000010   0040B0E1           MOVS     R4,R0
    480            if (!sock) {
   \   00000014   1500000A           BEQ      ??lwip_connect_0
    481              return -1;
    482            }
    483          
    484            /* check size, familiy and alignment of 'name' */
    485            /*
    486            LWIP_ERROR("lwip_connect: invalid address", ((namelen == sizeof(struct sockaddr_in)) &&
    487                       ((name->sa_family) == AF_INET) && ((((mem_ptr_t)name) % 4) == 0)),
    488                       sock_set_errno(sock, err_to_errno(ERR_ARG)); return -1;);
    489            */
    490            name_in = (const struct sockaddr_in *)(void*)name;
    491          
    492            if (name_in->sin_family == AF_UNSPEC) {
   \                     ??lwip_connect_1:
   \   00000018   0100D5E5           LDRB     R0,[R5, #+1]
   \   0000001C   000050E3           CMP      R0,#+0
   \   00000020   0200001A           BNE      ??lwip_connect_2
    493              LWIP_DEBUGF(SOCKETS_DEBUG, ("lwip_connect(%d, AF_UNSPEC)\n", s));
    494              err = netconn_disconnect(sock->conn);
   \   00000024   000094E5           LDR      R0,[R4, #+0]
   \   00000028   ........           _BLF     netconn_disconnect,??netconn_disconnect??rA
   \   0000002C   070000EA           B        ??lwip_connect_3
    495            } else {
    496              ip_addr_t remote_addr;
    497              u16_t remote_port;
    498          
    499              inet_addr_to_ipaddr(&remote_addr, &name_in->sin_addr);
   \                     ??lwip_connect_2:
   \   00000030   041095E5           LDR      R1,[R5, #+4]
   \   00000034   00108DE5           STR      R1,[SP, #+0]
    500              remote_port = name_in->sin_port;
    501          
    502              LWIP_DEBUGF(SOCKETS_DEBUG, ("lwip_connect(%d, addr=", s));
    503              ip_addr_debug_print(SOCKETS_DEBUG, &remote_addr);
    504              LWIP_DEBUGF(SOCKETS_DEBUG, (" port=%"U16_F")\n", ntohs(remote_port)));
    505          
    506              err = netconn_connect(sock->conn, &remote_addr, ntohs(remote_port));
   \   00000038   B200D5E1           LDRH     R0,[R5, #+2]
   \   0000003C   ........           _BLF     lwip_ntohs,??lwip_ntohs??rA
   \   00000040   0020A0E1           MOV      R2,R0
   \   00000044   000094E5           LDR      R0,[R4, #+0]
   \   00000048   0D10A0E1           MOV      R1,SP
   \   0000004C   ........           _BLF     netconn_connect,??netconn_connect??rA
    507            }
    508          
    509            if (err != ERR_OK) {
   \                     ??lwip_connect_3:
   \   00000050   000050E3           CMP      R0,#+0
   \   00000054   0800000A           BEQ      ??lwip_connect_4
    510              LWIP_DEBUGF(SOCKETS_DEBUG, ("lwip_connect(%d) failed, err=%d\n", s, err));
    511              sock_set_errno(sock, err_to_errno(err));
   \   00000058   000060E2           RSB      R0,R0,#+0
   \   0000005C   100050E3           CMP      R0,#+16
   \   00000060   ........           LDRCC    R1,??DataTable8  ;; err_to_errno_table
   \   00000064   0500A023           MOVCS    R0,#+5
   \   00000068   00019137           LDRCC    R0,[R1, +R0, LSL #+2]
   \   0000006C   100084E5           STR      R0,[R4, #+16]
    512              return -1;
   \                     ??lwip_connect_0:
   \   00000070   3240BDE8           POP      {R1,R4,R5,LR}
   \   00000074   0000E0E3           MVN      R0,#+0
   \   00000078   1EFF2FE1           BX       LR
    513            }
    514          
    515            LWIP_DEBUGF(SOCKETS_DEBUG, ("lwip_connect(%d) succeeded\n", s));
    516            sock_set_errno(sock, 0);
   \                     ??lwip_connect_4:
   \   0000007C   100084E5           STR      R0,[R4, #+16]
    517            return 0;
   \   00000080   3240BDE8           POP      {R1,R4,R5,LR}
   \   00000084   1EFF2FE1           BX       LR               ;; return
    518          }
    519          
    520          /**
    521           * Set a socket into listen mode.
    522           * The socket may not have been used for another connection previously.
    523           *
    524           * @param s the socket to set to listening mode
    525           * @param backlog (ATTENTION: needs TCP_LISTEN_BACKLOG=1)
    526           * @return 0 on success, non-zero on failure
    527           */

   \                                 In segment CODE, align 4, keep-with-next
    528          int
    529          lwip_listen(int s, int backlog)
    530          {
   \                     lwip_listen:
   \   00000000   30402DE9           PUSH     {R4,R5,LR}
   \   00000004   0150A0E1           MOV      R5,R1
    531            struct lwip_sock *sock;
    532            err_t err;
    533          
    534            LWIP_DEBUGF(SOCKETS_DEBUG, ("lwip_listen(%d, backlog=%d)\n", s, backlog));
    535          
    536            sock = get_socket(s);
   \   00000008   ........           BL       get_socket
   \   0000000C   0040B0E1           MOVS     R4,R0
    537            if (!sock) {
   \   00000010   1600000A           BEQ      ??lwip_listen_0
    538              return -1;
    539            }
    540          
    541            /* limit the "backlog" parameter to fit in an u8_t */
    542            backlog = LWIP_MIN(LWIP_MAX(backlog, 0), 0xff);
   \                     ??lwip_listen_1:
   \   00000014   010055E3           CMP      R5,#+1
   \   00000018   0C0000BA           BLT      ??lwip_listen_2
   \   0000001C   FF0055E3           CMP      R5,#+255
   \   00000020   FF50A0A3           MOVGE    R5,#+255
    543          
    544            err = netconn_listen_with_backlog(sock->conn, (u8_t)backlog);
   \                     ??lwip_listen_3:
   \   00000024   000094E5           LDR      R0,[R4, #+0]
   \   00000028   FF1005E2           AND      R1,R5,#0xFF
   \   0000002C   ........           _BLF     netconn_listen_with_backlog,??netconn_listen_with_backlog??rA
    545          
    546            if (err != ERR_OK) {
   \   00000030   000050E3           CMP      R0,#+0
   \   00000034   1000000A           BEQ      ??lwip_listen_4
    547              LWIP_DEBUGF(SOCKETS_DEBUG, ("lwip_listen(%d) failed, err=%d\n", s, err));
    548              if (netconn_type(sock->conn) != NETCONN_TCP) {
   \   00000038   001094E5           LDR      R1,[R4, #+0]
   \   0000003C   0010D1E5           LDRB     R1,[R1, #+0]
   \   00000040   100051E3           CMP      R1,#+16
   \   00000044   0300000A           BEQ      ??lwip_listen_5
    549                sock_set_errno(sock, EOPNOTSUPP);
   \   00000048   5F00A0E3           MOV      R0,#+95
   \   0000004C   0A0000EA           B        ??lwip_listen_4
    550                return EOPNOTSUPP;
    551              }
   \                     ??lwip_listen_2:
   \   00000050   0050A0E3           MOV      R5,#+0
   \   00000054   F2FFFFEA           B        ??lwip_listen_3
    552              sock_set_errno(sock, err_to_errno(err));
   \                     ??lwip_listen_5:
   \   00000058   000060E2           RSB      R0,R0,#+0
   \   0000005C   100050E3           CMP      R0,#+16
   \   00000060   ........           LDRCC    R1,??DataTable8  ;; err_to_errno_table
   \   00000064   0500A023           MOVCS    R0,#+5
   \   00000068   00019137           LDRCC    R0,[R1, +R0, LSL #+2]
   \   0000006C   100084E5           STR      R0,[R4, #+16]
    553              return -1;
   \                     ??lwip_listen_0:
   \   00000070   3040BDE8           POP      {R4,R5,LR}
   \   00000074   0000E0E3           MVN      R0,#+0
   \   00000078   1EFF2FE1           BX       LR
    554            }
    555          
    556            sock_set_errno(sock, 0);
   \                     ??lwip_listen_4:
   \   0000007C   100084E5           STR      R0,[R4, #+16]
    557            return 0;
   \   00000080   3040BDE8           POP      {R4,R5,LR}
   \   00000084   1EFF2FE1           BX       LR               ;; return
    558          }
    559          

   \                                 In segment CODE, align 4, keep-with-next
    560          int
    561          lwip_recvfrom(int s, void *mem, size_t len, int flags,
    562                  struct sockaddr *from, socklen_t *fromlen)
    563          {
   \                     lwip_recvfrom:
   \   00000000   FA4F2DE9           PUSH     {R1,R3-R11,LR}
   \   00000004   1CD04DE2           SUB      SP,SP,#+28
   \   00000008   0240A0E1           MOV      R4,R2
    564            struct lwip_sock *sock;
    565            void             *buf = NULL;
   \   0000000C   0050A0E3           MOV      R5,#+0
   \   00000010   00508DE5           STR      R5,[SP, #+0]
    566            struct pbuf      *p;
    567            u16_t            buflen, copylen;
    568            int              off = 0;
   \   00000014   0060A0E3           MOV      R6,#+0
    569            ip_addr_t        *addr;
    570            u16_t            port;
    571            u8_t             done = 0;
   \   00000018   0570A0E1           MOV      R7,R5
    572            err_t            err;
    573          
    574            LWIP_DEBUGF(SOCKETS_DEBUG, ("lwip_recvfrom(%d, %p, %"SZT_F", 0x%x, ..)\n", s, mem, len, flags));
    575            sock = get_socket(s);
   \   0000001C   ........           BL       get_socket
   \   00000020   0080B0E1           MOVS     R8,R0
    576            if (!sock) {
   \   00000024   0100001A           BNE      ??lwip_recvfrom_0
    577              return -1;
   \                     ??lwip_recvfrom_1:
   \   00000028   0500E0E1           MVN      R0,R5
   \   0000002C   A00000EA           B        ??lwip_recvfrom_2
    578            }
    579          
    580            do {
    581              LWIP_DEBUGF(SOCKETS_DEBUG, ("lwip_recvfrom: top while sock->lastdata=%p\n", sock->lastdata));
    582              /* Check if there is data left from the last recv operation. */
    583              if (sock->lastdata) {
   \                     ??lwip_recvfrom_0:
   \   00000030   040098E5           LDR      R0,[R8, #+4]
   \   00000034   000050E3           CMP      R0,#+0
    584                buf = sock->lastdata;
   \   00000038   00008D15           STRNE    R0,[SP, #+0]
   \   0000003C   2800001A           BNE      ??lwip_recvfrom_3
    585              } else {
    586                /* If this is non-blocking call, then check first */
    587                if (((flags & MSG_DONTWAIT) || netconn_is_nonblocking(sock->conn)) && 
    588                    (sock->rcvevent <= 0)) {
   \   00000040   000098E5           LDR      R0,[R8, #+0]
   \   00000044   20109DE5           LDR      R1,[SP, #+32]
   \   00000048   080011E3           TST      R1,#0x8
   \   0000004C   4C10D005           LDRBEQ   R1,[R0, #+76]
   \   00000050   02001103           TSTEQ    R1,#0x2
   \   00000054   0800000A           BEQ      ??lwip_recvfrom_4
   \   00000058   FA10D8E1           LDRSH    R1,[R8, #+10]
   \   0000005C   010051E3           CMP      R1,#+1
   \   00000060   050000AA           BGE      ??lwip_recvfrom_4
    589                  if (off > 0) {
   \   00000064   010056E3           CMP      R6,#+1
   \   00000068   000000BA           BLT      ??lwip_recvfrom_5
    590                    /* update receive window */
    591                    netconn_recved(sock->conn, (u32_t)off);
   \                     ??lwip_recvfrom_6:
   \   0000006C   8B0000EA           B        ??lwip_recvfrom_7
    592                    /* already received data, return that */
    593                    sock_set_errno(sock, 0);
    594                    return off;
    595                  }
    596                  LWIP_DEBUGF(SOCKETS_DEBUG, ("lwip_recvfrom(%d): returning EWOULDBLOCK\n", s));
    597                  sock_set_errno(sock, EWOULDBLOCK);
   \                     ??lwip_recvfrom_5:
   \   00000070   0B00A0E3           MOV      R0,#+11
   \   00000074   100088E5           STR      R0,[R8, #+16]
    598                  return -1;
   \   00000078   EAFFFFEA           B        ??lwip_recvfrom_1
    599                }
    600          
    601                /* No data was left from the previous operation, so we try to get
    602                   some from the network. */
    603                if (netconn_type(sock->conn) == NETCONN_TCP) {
   \                     ??lwip_recvfrom_4:
   \   0000007C   0010D0E5           LDRB     R1,[R0, #+0]
   \   00000080   100051E3           CMP      R1,#+16
   \   00000084   0D10A0E1           MOV      R1,SP
   \   00000088   0100001A           BNE      ??lwip_recvfrom_8
    604                  err = netconn_recv_tcp_pbuf(sock->conn, (struct pbuf **)&buf);
   \   0000008C   ........           _BLF     netconn_recv_tcp_pbuf,??netconn_recv_tcp_pbuf??rA
   \   00000090   000000EA           B        ??lwip_recvfrom_9
    605                } else {
    606                  err = netconn_recv(sock->conn, (struct netbuf **)&buf);
   \                     ??lwip_recvfrom_8:
   \   00000094   ........           _BLF     netconn_recv,??netconn_recv??rA
    607                }
    608                LWIP_DEBUGF(SOCKETS_DEBUG, ("lwip_recvfrom: netconn_recv err=%d, netbuf=%p\n",
    609                  err, buf));
    610          
    611                if (err != ERR_OK) {
   \                     ??lwip_recvfrom_9:
   \   00000098   000050E3           CMP      R0,#+0
   \   0000009C   0E00000A           BEQ      ??lwip_recvfrom_10
    612                  if (off > 0) {
   \   000000A0   010056E3           CMP      R6,#+1
   \   000000A4   7D0000AA           BGE      ??lwip_recvfrom_7
    613                    /* update receive window */
    614                    netconn_recved(sock->conn, (u32_t)off);
    615                    /* already received data, return that */
    616                    sock_set_errno(sock, 0);
    617                    return off;
    618                  }
    619                  /* We should really do some error checking here. */
    620                  LWIP_DEBUGF(SOCKETS_DEBUG, ("lwip_recvfrom(%d): buf == NULL, error is \"%s\"!\n",
    621                    s, lwip_strerr(err)));
    622                  sock_set_errno(sock, err_to_errno(err));
   \   000000A8   0010A0E1           MOV      R1,R0
   \   000000AC   001061E2           RSB      R1,R1,#+0
   \   000000B0   100051E3           CMP      R1,#+16
   \   000000B4   ........           LDRCC    R2,??DataTable8  ;; err_to_errno_table
   \   000000B8   0510A023           MOVCS    R1,#+5
   \   000000BC   01119237           LDRCC    R1,[R2, +R1, LSL #+2]
    623                  if (err == ERR_CLSD) {
   \   000000C0   0C0070E3           CMN      R0,#+12
   \   000000C4   101088E5           STR      R1,[R8, #+16]
   \   000000C8   D6FFFF1A           BNE      ??lwip_recvfrom_1
    624                    return 0;
   \   000000CC   24D08DE2           ADD      SP,SP,#+36
   \   000000D0   F04FBDE8           POP      {R4-R11,LR}
   \   000000D4   0000A0E3           MOV      R0,#+0
   \   000000D8   1EFF2FE1           BX       LR
    625                  } else {
    626                    return -1;
    627                  }
    628                }
    629                LWIP_ASSERT("buf != NULL", buf != NULL);
    630                sock->lastdata = buf;
   \                     ??lwip_recvfrom_10:
   \   000000DC   00009DE5           LDR      R0,[SP, #+0]
   \   000000E0   040088E5           STR      R0,[R8, #+4]
    631              }
    632          
    633              if (netconn_type(sock->conn) == NETCONN_TCP) {
   \                     ??lwip_recvfrom_3:
   \   000000E4   000098E5           LDR      R0,[R8, #+0]
    634                p = (struct pbuf *)buf;
    635              } else {
    636                p = ((struct netbuf *)buf)->p;
    637              }
    638              buflen = p->tot_len;
    639              LWIP_DEBUGF(SOCKETS_DEBUG, ("lwip_recvfrom: buflen=%"U16_F" len=%"SZT_F" off=%d sock->lastoffset=%"U16_F"\n",
    640                buflen, len, off, sock->lastoffset));
    641          
    642              buflen -= sock->lastoffset;
   \   000000E8   B830D8E1           LDRH     R3,[R8, #+8]
   \   000000EC   0000D0E5           LDRB     R0,[R0, #+0]
   \   000000F0   100050E3           CMP      R0,#+16
   \   000000F4   00009D15           LDRNE    R0,[SP, #+0]
   \   000000F8   00B09D05           LDREQ    R11,[SP, #+0]
   \   000000FC   00B09015           LDRNE    R11,[R0, #+0]
   \   00000100   B800DBE1           LDRH     R0,[R11, #+8]
   \   00000104   039040E0           SUB      R9,R0,R3
    643          
    644              if (len > buflen) {
    645                copylen = buflen;
    646              } else {
    647                copylen = (u16_t)len;
    648              }
    649          
    650              /* copy the contents of the received buffer into
    651              the supplied memory pointer mem */
    652              pbuf_copy_partial(p, (u8_t*)mem + off, copylen, sock->lastoffset);
   \   00000108   1C009DE5           LDR      R0,[SP, #+28]
   \   0000010C   0998A0E1           MOV      R9,R9, LSL #+16
   \   00000110   2998A0E1           MOV      R9,R9, LSR #+16
   \   00000114   040059E1           CMP      R9,R4
   \   00000118   09A0A031           MOVCC    R10,R9
   \   0000011C   04A8A021           MOVCS    R10,R4, LSL #+16
   \   00000120   2AA8A021           MOVCS    R10,R10, LSR #+16
   \   00000124   0A20A0E1           MOV      R2,R10
   \   00000128   001086E0           ADD      R1,R6,R0
   \   0000012C   0B00A0E1           MOV      R0,R11
   \   00000130   ........           _BLF     pbuf_copy_partial,??pbuf_copy_partial??rA
    653          
    654              off += copylen;
    655          
    656              if (netconn_type(sock->conn) == NETCONN_TCP) {
   \   00000134   000098E5           LDR      R0,[R8, #+0]
   \   00000138   06608AE0           ADD      R6,R10,R6
   \   0000013C   0010D0E5           LDRB     R1,[R0, #+0]
   \   00000140   100051E3           CMP      R1,#+16
   \   00000144   0A00001A           BNE      ??lwip_recvfrom_11
    657                LWIP_ASSERT("invalid copylen, len would underflow", len >= copylen);
    658                len -= copylen;
   \   00000148   0A4054E0           SUBS     R4,R4,R10
    659                if ( (len <= 0) || 
    660                     (p->flags & PBUF_FLAG_PUSH) || 
    661                     (sock->rcvevent <= 0) || 
    662                     ((flags & MSG_PEEK)!=0)) {
   \   0000014C   0800000A           BEQ      ??lwip_recvfrom_11
   \   00000150   0D10DBE5           LDRB     R1,[R11, #+13]
   \   00000154   010011E3           TST      R1,#0x1
   \   00000158   0500001A           BNE      ??lwip_recvfrom_11
   \   0000015C   FA10D8E1           LDRSH    R1,[R8, #+10]
   \   00000160   010051E3           CMP      R1,#+1
   \   00000164   020000BA           BLT      ??lwip_recvfrom_11
   \   00000168   20109DE5           LDR      R1,[SP, #+32]
   \   0000016C   010011E3           TST      R1,#0x1
   \   00000170   0100000A           BEQ      ??lwip_recvfrom_12
    663                  done = 1;
   \                     ??lwip_recvfrom_11:
   \   00000174   0170A0E3           MOV      R7,#+1
   \   00000178   010000EA           B        ??lwip_recvfrom_13
    664                }
    665              } else {
    666                done = 1;
    667              }
    668          
    669              /* Check to see from where the data was.*/
    670              if (done) {
   \                     ??lwip_recvfrom_12:
   \   0000017C   000057E3           CMP      R7,#+0
   \   00000180   2C00000A           BEQ      ??lwip_recvfrom_14
    671                ip_addr_t fromaddr;
    672                if (from && fromlen) {
   \                     ??lwip_recvfrom_13:
   \   00000184   48109DE5           LDR      R1,[SP, #+72]
   \   00000188   000051E3           CMP      R1,#+0
   \   0000018C   4C109D15           LDRNE    R1,[SP, #+76]
   \   00000190   00005113           CMPNE    R1,#+0
   \   00000194   2400000A           BEQ      ??lwip_recvfrom_15
    673                  struct sockaddr_in sin;
    674          
    675                  if (netconn_type(sock->conn) == NETCONN_TCP) {
   \   00000198   0010D0E5           LDRB     R1,[R0, #+0]
   \   0000019C   100051E3           CMP      R1,#+16
   \   000001A0   0500001A           BNE      ??lwip_recvfrom_16
    676                    addr = &fromaddr;
   \   000001A4   08B08DE2           ADD      R11,SP,#+8
    677                    netconn_getaddr(sock->conn, addr, &port, 0);
   \   000001A8   0030A0E3           MOV      R3,#+0
   \   000001AC   04208DE2           ADD      R2,SP,#+4
   \   000001B0   08108DE2           ADD      R1,SP,#+8
   \   000001B4   ........           _BLF     netconn_getaddr,??netconn_getaddr??rA
   \   000001B8   030000EA           B        ??lwip_recvfrom_17
    678                  } else {
    679                    addr = netbuf_fromaddr((struct netbuf *)buf);
   \                     ??lwip_recvfrom_16:
   \   000001BC   00009DE5           LDR      R0,[SP, #+0]
   \   000001C0   08B080E2           ADD      R11,R0,#+8
    680                    port = netbuf_fromport((struct netbuf *)buf);
   \   000001C4   BC10D0E1           LDRH     R1,[R0, #+12]
   \   000001C8   B410CDE1           STRH     R1,[SP, #+4]
    681                  }
    682          
    683                  memset(&sin, 0, sizeof(sin));
   \                     ??lwip_recvfrom_17:
   \   000001CC   1020A0E3           MOV      R2,#+16
   \   000001D0   0010A0E3           MOV      R1,#+0
   \   000001D4   0C008DE2           ADD      R0,SP,#+12
   \   000001D8   ........           _BLF     memset,??memset??rA
   \   000001DC   1010A0E3           MOV      R1,#+16
   \   000001E0   0C10CDE5           STRB     R1,[SP, #+12]
    684                  sin.sin_len = sizeof(sin);
    685                  sin.sin_family = AF_INET;
   \   000001E4   0210A0E3           MOV      R1,#+2
   \   000001E8   0D10CDE5           STRB     R1,[SP, #+13]
    686                  sin.sin_port = htons(port);
   \   000001EC   B400DDE1           LDRH     R0,[SP, #+4]
   \   000001F0   ........           _BLF     lwip_htons,??lwip_htons??rA
   \   000001F4   BE00CDE1           STRH     R0,[SP, #+14]
    687                  inet_addr_from_ipaddr(&sin.sin_addr, addr);
   \   000001F8   00109BE5           LDR      R1,[R11, #+0]
   \   000001FC   10108DE5           STR      R1,[SP, #+16]
    688          
    689                  if (*fromlen > sizeof(sin)) {
   \   00000200   4C009DE5           LDR      R0,[SP, #+76]
   \   00000204   000090E5           LDR      R0,[R0, #+0]
   \   00000208   110050E3           CMP      R0,#+17
    690                    *fromlen = sizeof(sin);
   \   0000020C   4C009D25           LDRCS    R0,[SP, #+76]
   \   00000210   1010A023           MOVCS    R1,#+16
   \   00000214   00108025           STRCS    R1,[R0, #+0]
    691                  }
    692          
    693                  MEMCPY(from, &sin, *fromlen);
   \   00000218   4C009DE5           LDR      R0,[SP, #+76]
   \   0000021C   0C108DE2           ADD      R1,SP,#+12
   \   00000220   002090E5           LDR      R2,[R0, #+0]
   \   00000224   48009DE5           LDR      R0,[SP, #+72]
   \   00000228   ........           _BLF     memcpy,??memcpy??rA
    694          
    695                  LWIP_DEBUGF(SOCKETS_DEBUG, ("lwip_recvfrom(%d): addr=", s));
    696                  ip_addr_debug_print(SOCKETS_DEBUG, addr);
    697                  LWIP_DEBUGF(SOCKETS_DEBUG, (" port=%"U16_F" len=%d\n", port, off));
    698                } else {
    699          #if SOCKETS_DEBUG
    700                  if (netconn_type(sock->conn) == NETCONN_TCP) {
    701                    addr = &fromaddr;
    702                    netconn_getaddr(sock->conn, addr, &port, 0);
    703                  } else {
    704                    addr = netbuf_fromaddr((struct netbuf *)buf);
    705                    port = netbuf_fromport((struct netbuf *)buf);
    706                  }
    707          
    708                  LWIP_DEBUGF(SOCKETS_DEBUG, ("lwip_recvfrom(%d): addr=", s));
    709                  ip_addr_debug_print(SOCKETS_DEBUG, addr);
    710                  LWIP_DEBUGF(SOCKETS_DEBUG, (" port=%"U16_F" len=%d\n", port, off));
    711          #endif /*  SOCKETS_DEBUG */
    712                }
    713              }
    714          
    715              /* If we don't peek the incoming message... */
    716              if ((flags & MSG_PEEK) == 0) {
   \                     ??lwip_recvfrom_15:
   \   0000022C   20009DE5           LDR      R0,[SP, #+32]
   \   00000230   010010E3           TST      R0,#0x1
   \   00000234   1500001A           BNE      ??lwip_recvfrom_18
    717                /* If this is a TCP socket, check if there is data left in the
    718                   buffer. If so, it should be saved in the sock structure for next
    719                   time around. */
    720                if ((netconn_type(sock->conn) == NETCONN_TCP) && (buflen - copylen > 0)) {
   \                     ??lwip_recvfrom_14:
   \   00000238   000098E5           LDR      R0,[R8, #+0]
   \   0000023C   0010D0E5           LDRB     R1,[R0, #+0]
   \   00000240   100051E3           CMP      R1,#+16
   \   00000244   0800001A           BNE      ??lwip_recvfrom_19
   \   00000248   0A1049E0           SUB      R1,R9,R10
   \   0000024C   010051E3           CMP      R1,#+1
   \   00000250   050000BA           BLT      ??lwip_recvfrom_19
    721                  sock->lastdata = buf;
   \   00000254   00009DE5           LDR      R0,[SP, #+0]
   \   00000258   040088E5           STR      R0,[R8, #+4]
    722                  sock->lastoffset += copylen;
   \   0000025C   B800D8E1           LDRH     R0,[R8, #+8]
   \   00000260   00008AE0           ADD      R0,R10,R0
   \   00000264   B800C8E1           STRH     R0,[R8, #+8]
   \   00000268   080000EA           B        ??lwip_recvfrom_18
    723                  LWIP_DEBUGF(SOCKETS_DEBUG, ("lwip_recvfrom: lastdata now netbuf=%p\n", buf));
    724                } else {
    725                  sock->lastdata = NULL;
   \                     ??lwip_recvfrom_19:
   \   0000026C   045088E5           STR      R5,[R8, #+4]
    726                  sock->lastoffset = 0;
   \   00000270   B850C8E1           STRH     R5,[R8, #+8]
    727                  LWIP_DEBUGF(SOCKETS_DEBUG, ("lwip_recvfrom: deleting netbuf=%p\n", buf));
    728                  if (netconn_type(sock->conn) == NETCONN_TCP) {
   \   00000274   0000D0E5           LDRB     R0,[R0, #+0]
   \   00000278   100050E3           CMP      R0,#+16
   \   0000027C   00009DE5           LDR      R0,[SP, #+0]
   \   00000280   0100001A           BNE      ??lwip_recvfrom_20
    729                    pbuf_free((struct pbuf *)buf);
   \   00000284   ........           _BLF     pbuf_free,??pbuf_free??rA
   \   00000288   000000EA           B        ??lwip_recvfrom_18
    730                  } else {
    731                    netbuf_delete((struct netbuf *)buf);
   \                     ??lwip_recvfrom_20:
   \   0000028C   ........           _BLF     netbuf_delete,??netbuf_delete??rA
    732                  }
    733                }
    734              }
    735            } while (!done);
   \                     ??lwip_recvfrom_18:
   \   00000290   000057E3           CMP      R7,#+0
   \   00000294   65FFFF0A           BEQ      ??lwip_recvfrom_0
    736          
    737            if (off > 0) {
   \   00000298   010056E3           CMP      R6,#+1
   \   0000029C   020000BA           BLT      ??lwip_recvfrom_21
    738              /* update receive window */
    739              netconn_recved(sock->conn, (u32_t)off);
   \                     ??lwip_recvfrom_7:
   \   000002A0   000098E5           LDR      R0,[R8, #+0]
   \   000002A4   0610A0E1           MOV      R1,R6
   \   000002A8   ........           _BLF     netconn_recved,??netconn_recved??rA
    740            }
    741            sock_set_errno(sock, 0);
   \                     ??lwip_recvfrom_21:
   \   000002AC   105088E5           STR      R5,[R8, #+16]
    742            return off;
   \   000002B0   0600A0E1           MOV      R0,R6
   \                     ??lwip_recvfrom_2:
   \   000002B4   24D08DE2           ADD      SP,SP,#+36
   \   000002B8   F04FBDE8           POP      {R4-R11,LR}
   \   000002BC   1EFF2FE1           BX       LR               ;; return
    743          }
    744          

   \                                 In segment CODE, align 4, keep-with-next
    745          int
    746          lwip_read(int s, void *mem, size_t len)
    747          {
   \                     lwip_read:
   \   00000000   00402DE9           PUSH     {LR}
    748            return lwip_recvfrom(s, mem, len, 0, NULL, NULL);
   \   00000004   0030A0E3           MOV      R3,#+0
   \   00000008   08002DE9           PUSH     {R3}
   \   0000000C   08002DE9           PUSH     {R3}
   \   00000010   ........           BL       lwip_recvfrom
   \   00000014   0640BDE8           POP      {R1,R2,LR}
   \   00000018   1EFF2FE1           BX       LR               ;; return
    749          }
    750          

   \                                 In segment CODE, align 4, keep-with-next
    751          int
    752          lwip_recv(int s, void *mem, size_t len, int flags)
    753          {
   \                     lwip_recv:
   \   00000000   00402DE9           PUSH     {LR}
    754            return lwip_recvfrom(s, mem, len, flags, NULL, NULL);
   \   00000004   00C0A0E3           MOV      R12,#+0
   \   00000008   00102DE9           PUSH     {R12}
   \   0000000C   00102DE9           PUSH     {R12}
   \   00000010   ........           BL       lwip_recvfrom
   \   00000014   0640BDE8           POP      {R1,R2,LR}
   \   00000018   1EFF2FE1           BX       LR               ;; return
    755          }
    756          

   \                                 In segment CODE, align 4, keep-with-next
    757          int
    758          lwip_send(int s, const void *data, size_t size, int flags)
    759          {
   \                     lwip_send:
   \   00000000   F0412DE9           PUSH     {R4-R8,LR}
   \   00000004   04D04DE2           SUB      SP,SP,#+4
   \   00000008   0080A0E1           MOV      R8,R0
   \   0000000C   0150A0E1           MOV      R5,R1
   \   00000010   0260A0E1           MOV      R6,R2
   \   00000014   0370A0E1           MOV      R7,R3
    760            struct lwip_sock *sock;
    761            err_t err;
    762            u8_t write_flags;
    763            size_t written;
    764          
    765            LWIP_DEBUGF(SOCKETS_DEBUG, ("lwip_send(%d, data=%p, size=%"SZT_F", flags=0x%x)\n",
    766                                        s, data, size, flags));
    767          
    768            sock = get_socket(s);
   \   00000018   ........           BL       get_socket
   \   0000001C   0040B0E1           MOVS     R4,R0
    769            if (!sock) {
   \   00000020   2800000A           BEQ      ??lwip_send_0
    770              return -1;
    771            }
    772          
    773            if (sock->conn->type != NETCONN_TCP) {
   \   00000024   000094E5           LDR      R0,[R4, #+0]
   \   00000028   0010D0E5           LDRB     R1,[R0, #+0]
   \   0000002C   100051E3           CMP      R1,#+16
   \   00000030   0900000A           BEQ      ??lwip_send_1
    774          #if (LWIP_UDP || LWIP_RAW)
    775              return lwip_sendto(s, data, size, flags, NULL, 0);
   \   00000034   0000A0E3           MOV      R0,#+0
   \   00000038   01002DE9           PUSH     {R0}
   \   0000003C   01002DE9           PUSH     {R0}
   \   00000040   0730A0E1           MOV      R3,R7
   \   00000044   0620A0E1           MOV      R2,R6
   \   00000048   0510A0E1           MOV      R1,R5
   \   0000004C   0800A0E1           MOV      R0,R8
   \   00000050   ........           BL       lwip_sendto
   \   00000054   08D08DE2           ADD      SP,SP,#+8
   \   00000058   1B0000EA           B        ??lwip_send_2
    776          #else /* (LWIP_UDP || LWIP_RAW) */
    777              sock_set_errno(sock, err_to_errno(ERR_ARG));
    778              return -1;
    779          #endif /* (LWIP_UDP || LWIP_RAW) */
    780            }
    781          
    782            write_flags = NETCONN_COPY |
    783              ((flags & MSG_MORE)     ? NETCONN_MORE      : 0) |
    784              ((flags & MSG_DONTWAIT) ? NETCONN_DONTBLOCK : 0);
   \                     ??lwip_send_1:
   \   0000005C   100017E3           TST      R7,#0x10
   \   00000060   0210A013           MOVNE    R1,#+2
   \   00000064   0010A003           MOVEQ    R1,#+0
   \   00000068   080017E3           TST      R7,#0x8
   \   0000006C   0420A013           MOVNE    R2,#+4
   \   00000070   0020A003           MOVEQ    R2,#+0
   \   00000074   011082E1           ORR      R1,R2,R1
   \   00000078   013081E3           ORR      R3,R1,#0x1
   \   0000007C   FF3003E2           AND      R3,R3,#0xFF
    785            written = 0;
   \   00000080   0020A0E3           MOV      R2,#+0
   \   00000084   00208DE5           STR      R2,[SP, #+0]
    786            err = netconn_write_partly(sock->conn, data, size, write_flags, &written);
   \   00000088   0D10A0E1           MOV      R1,SP
   \   0000008C   02002DE9           PUSH     {R1}
   \   00000090   0620A0E1           MOV      R2,R6
   \   00000094   0510A0E1           MOV      R1,R5
   \   00000098   ........           _BLF     netconn_write_partly,??netconn_write_partly??rA
    787          
    788            LWIP_DEBUGF(SOCKETS_DEBUG, ("lwip_send(%d) err=%d written=%"SZT_F"\n", s, err, written));
    789            sock_set_errno(sock, err_to_errno(err));
   \   0000009C   0010A0E1           MOV      R1,R0
   \   000000A0   001061E2           RSB      R1,R1,#+0
   \   000000A4   100051E3           CMP      R1,#+16
   \   000000A8   ........           LDRCC    R2,??DataTable8  ;; err_to_errno_table
   \   000000AC   04D08DE2           ADD      SP,SP,#+4
   \   000000B0   01119237           LDRCC    R1,[R2, +R1, LSL #+2]
   \   000000B4   0510A023           MOVCS    R1,#+5
   \   000000B8   101084E5           STR      R1,[R4, #+16]
    790            return (err == ERR_OK ? (int)written : -1);
   \   000000BC   000050E3           CMP      R0,#+0
   \   000000C0   00009D05           LDREQ    R0,[SP, #+0]
   \   000000C4   0000000A           BEQ      ??lwip_send_2
   \                     ??lwip_send_0:
   \   000000C8   0000E0E3           MVN      R0,#+0
   \                     ??lwip_send_2:
   \   000000CC   F241BDE8           POP      {R1,R4-R8,LR}
   \   000000D0   1EFF2FE1           BX       LR               ;; return
    791          }
    792          

   \                                 In segment CODE, align 4, keep-with-next
    793          int
    794          lwip_sendto(int s, const void *data, size_t size, int flags,
    795                 const struct sockaddr *to, socklen_t tolen)
    796          {
   \                     lwip_sendto:
   \   00000000   F0432DE9           PUSH     {R4-R9,LR}
   \   00000004   10D04DE2           SUB      SP,SP,#+16
   \   00000008   2C909DE5           LDR      R9,[SP, #+44]
   \   0000000C   0070A0E1           MOV      R7,R0
   \   00000010   0160A0E1           MOV      R6,R1
   \   00000014   0250A0E1           MOV      R5,R2
   \   00000018   0380A0E1           MOV      R8,R3
    797            struct lwip_sock *sock;
    798            err_t err;
    799            u16_t short_size;
    800            const struct sockaddr_in *to_in;
    801            u16_t remote_port;
    802          #if !LWIP_TCPIP_CORE_LOCKING
    803            struct netbuf buf;
    804          #endif
    805          
    806            sock = get_socket(s);
   \   0000001C   ........           BL       get_socket
   \   00000020   0040B0E1           MOVS     R4,R0
    807            if (!sock) {
    808              return -1;
   \   00000024   0000E003           MVNEQ    R0,#+0
   \   00000028   2D00000A           BEQ      ??lwip_sendto_0
    809            }
    810          
    811            if (sock->conn->type == NETCONN_TCP) {
   \   0000002C   000094E5           LDR      R0,[R4, #+0]
   \   00000030   0000D0E5           LDRB     R0,[R0, #+0]
   \   00000034   100050E3           CMP      R0,#+16
   \   00000038   0500001A           BNE      ??lwip_sendto_1
    812          #if LWIP_TCP
    813              return lwip_send(s, data, size, flags);
   \   0000003C   0830A0E1           MOV      R3,R8
   \   00000040   0520A0E1           MOV      R2,R5
   \   00000044   0610A0E1           MOV      R1,R6
   \   00000048   0700A0E1           MOV      R0,R7
   \   0000004C   ........           BL       lwip_send
   \   00000050   230000EA           B        ??lwip_sendto_0
    814          #else /* LWIP_TCP */
    815              LWIP_UNUSED_ARG(flags);
    816              sock_set_errno(sock, err_to_errno(ERR_ARG));
    817              return -1;
    818          #endif /* LWIP_TCP */
    819            }
    820          
    821            /* @todo: split into multiple sendto's? */
    822            LWIP_ASSERT("lwip_sendto: size must fit in u16_t", size <= 0xffff);
    823            short_size = (u16_t)size;
   \                     ??lwip_sendto_1:
   \   00000054   0558A0E1           MOV      R5,R5, LSL #+16
   \   00000058   2558A0E1           MOV      R5,R5, LSR #+16
    824            /*
    825            LWIP_ERROR("lwip_sendto: invalid address", (((to == NULL) && (tolen == 0)) ||
    826                       ((tolen == sizeof(struct sockaddr_in)) &&
    827                       ((to->sa_family) == AF_INET) && ((((mem_ptr_t)to) % 4) == 0))),
    828                       sock_set_errno(sock, err_to_errno(ERR_ARG)); return -1;);
    829            */
    830            to_in = (const struct sockaddr_in *)(void*)to;
    831          
    832          #if LWIP_TCPIP_CORE_LOCKING
    833            /* Should only be consider like a sample or a simple way to experiment this option (no check of "to" field...) */
    834            {
    835              struct pbuf* p;
    836              ip_addr_t *remote_addr;
    837          
    838          #if LWIP_NETIF_TX_SINGLE_PBUF
    839              p = pbuf_alloc(PBUF_TRANSPORT, short_size, PBUF_RAM);
    840              if (p != NULL) {
    841          #if LWIP_CHECKSUM_ON_COPY
    842                u16_t chksum = 0;
    843                if (sock->conn->type != NETCONN_RAW) {
    844                  chksum = LWIP_CHKSUM_COPY(p->payload, data, short_size);
    845                } else
    846          #endif /* LWIP_CHECKSUM_ON_COPY */
    847                MEMCPY(p->payload, data, size);
    848          #else /* LWIP_NETIF_TX_SINGLE_PBUF */
    849              p = pbuf_alloc(PBUF_TRANSPORT, short_size, PBUF_REF);
    850              if (p != NULL) {
    851                p->payload = (void*)data;
    852          #endif /* LWIP_NETIF_TX_SINGLE_PBUF */
    853          
    854                if (to_in != NULL) {
    855                  inet_addr_to_ipaddr_p(remote_addr, &to_in->sin_addr);
    856                  remote_port = ntohs(to_in->sin_port);
    857                } else {
    858                  remote_addr = &sock->conn->pcb.ip->remote_ip;
    859          #if LWIP_UDP
    860                  if (NETCONNTYPE_GROUP(sock->conn->type) == NETCONN_UDP) {
    861                    remote_port = sock->conn->pcb.udp->remote_port;
    862                  } else
    863          #endif /* LWIP_UDP */
    864                  {
    865                    remote_port = 0;
    866                  }
    867                }
    868          
    869                LOCK_TCPIP_CORE();
    870                if (netconn_type(sock->conn) == NETCONN_RAW) {
    871          #if LWIP_RAW
    872                  err = sock->conn->last_err = raw_sendto(sock->conn->pcb.raw, p, remote_addr);
    873          #else /* LWIP_RAW */
    874                  err = ERR_ARG;
    875          #endif /* LWIP_RAW */
    876                }
    877          #if LWIP_UDP && LWIP_RAW
    878                else
    879          #endif /* LWIP_UDP && LWIP_RAW */
    880                {
    881          #if LWIP_UDP
    882          #if LWIP_CHECKSUM_ON_COPY && LWIP_NETIF_TX_SINGLE_PBUF
    883                  err = sock->conn->last_err = udp_sendto_chksum(sock->conn->pcb.udp, p,
    884                    remote_addr, remote_port, 1, chksum);
    885          #else /* LWIP_CHECKSUM_ON_COPY && LWIP_NETIF_TX_SINGLE_PBUF */
    886                  err = sock->conn->last_err = udp_sendto(sock->conn->pcb.udp, p,
    887                    remote_addr, remote_port);
    888          #endif /* LWIP_CHECKSUM_ON_COPY && LWIP_NETIF_TX_SINGLE_PBUF */
    889          #else /* LWIP_UDP */
    890                  err = ERR_ARG;
    891          #endif /* LWIP_UDP */
    892                }
    893                UNLOCK_TCPIP_CORE();
    894                
    895                pbuf_free(p);
    896              } else {
    897                err = ERR_MEM;
    898              }
    899            }
    900          #else /* LWIP_TCPIP_CORE_LOCKING */
    901            /* initialize a buffer */
    902            buf.p = buf.ptr = NULL;
   \   0000005C   0000A0E3           MOV      R0,#+0
   \   00000060   04008DE5           STR      R0,[SP, #+4]
   \   00000064   00008DE5           STR      R0,[SP, #+0]
    903          #if LWIP_CHECKSUM_ON_COPY
    904            buf.flags = 0;
    905          #endif /* LWIP_CHECKSUM_ON_COPY */
    906            if (to) {
   \   00000068   000059E3           CMP      R9,#+0
   \   0000006C   0400000A           BEQ      ??lwip_sendto_2
    907              inet_addr_to_ipaddr(&buf.addr, &to_in->sin_addr);
   \   00000070   041099E5           LDR      R1,[R9, #+4]
   \   00000074   08108DE5           STR      R1,[SP, #+8]
    908              remote_port           = ntohs(to_in->sin_port);
    909              netbuf_fromport(&buf) = remote_port;
   \   00000078   B200D9E1           LDRH     R0,[R9, #+2]
   \   0000007C   ........           _BLF     lwip_ntohs,??lwip_ntohs??rA
   \   00000080   000000EA           B        ??lwip_sendto_3
    910            } else {
    911              remote_port           = 0;
    912              ip_addr_set_any(&buf.addr);
   \                     ??lwip_sendto_2:
   \   00000084   08008DE5           STR      R0,[SP, #+8]
    913              netbuf_fromport(&buf) = 0;
   \                     ??lwip_sendto_3:
   \   00000088   BC00CDE1           STRH     R0,[SP, #+12]
    914            }
    915          
    916            LWIP_DEBUGF(SOCKETS_DEBUG, ("lwip_sendto(%d, data=%p, short_size=%"U16_F", flags=0x%x to=",
    917                        s, data, short_size, flags));
    918            ip_addr_debug_print(SOCKETS_DEBUG, &buf.addr);
    919            LWIP_DEBUGF(SOCKETS_DEBUG, (" port=%"U16_F"\n", remote_port));
    920          
    921            /* make the buffer point to the data that should be sent */
    922          #if LWIP_NETIF_TX_SINGLE_PBUF
    923            /* Allocate a new netbuf and copy the data into it. */
    924            if (netbuf_alloc(&buf, short_size) == NULL) {
    925              err = ERR_MEM;
    926            } else {
    927          #if LWIP_CHECKSUM_ON_COPY
    928              if (sock->conn->type != NETCONN_RAW) {
    929                u16_t chksum = LWIP_CHKSUM_COPY(buf.p->payload, data, short_size);
    930                netbuf_set_chksum(&buf, chksum);
    931                err = ERR_OK;
    932              } else
    933          #endif /* LWIP_CHECKSUM_ON_COPY */
    934              {
    935                err = netbuf_take(&buf, data, short_size);
    936              }
    937            }
    938          #else /* LWIP_NETIF_TX_SINGLE_PBUF */
    939            err = netbuf_ref(&buf, data, short_size);
   \   0000008C   0520A0E1           MOV      R2,R5
   \   00000090   0610A0E1           MOV      R1,R6
   \   00000094   0D00A0E1           MOV      R0,SP
   \   00000098   ........           _BLF     netbuf_ref,??netbuf_ref??rA
   \   0000009C   0060B0E1           MOVS     R6,R0
    940          #endif /* LWIP_NETIF_TX_SINGLE_PBUF */
    941            if (err == ERR_OK) {
   \   000000A0   0300001A           BNE      ??lwip_sendto_4
    942              /* send the data */
    943              err = netconn_send(sock->conn, &buf);
   \   000000A4   000094E5           LDR      R0,[R4, #+0]
   \   000000A8   0D10A0E1           MOV      R1,SP
   \   000000AC   ........           _BLF     netconn_send,??netconn_send??rA
   \   000000B0   0060A0E1           MOV      R6,R0
    944            }
    945          
    946            /* deallocated the buffer */
    947            netbuf_free(&buf);
   \                     ??lwip_sendto_4:
   \   000000B4   0D00A0E1           MOV      R0,SP
   \   000000B8   ........           _BLF     netbuf_free,??netbuf_free??rA
    948          #endif /* LWIP_TCPIP_CORE_LOCKING */
    949            sock_set_errno(sock, err_to_errno(err));
   \   000000BC   0600A0E1           MOV      R0,R6
   \   000000C0   000060E2           RSB      R0,R0,#+0
   \   000000C4   100050E3           CMP      R0,#+16
   \   000000C8   ........           LDRCC    R1,??DataTable8  ;; err_to_errno_table
   \   000000CC   0500A023           MOVCS    R0,#+5
   \   000000D0   00019137           LDRCC    R0,[R1, +R0, LSL #+2]
    950            return (err == ERR_OK ? short_size : -1);
   \   000000D4   000056E3           CMP      R6,#+0
   \   000000D8   100084E5           STR      R0,[R4, #+16]
   \   000000DC   0050E013           MVNNE    R5,#+0
   \   000000E0   0500A0E1           MOV      R0,R5
   \                     ??lwip_sendto_0:
   \   000000E4   10D08DE2           ADD      SP,SP,#+16
   \   000000E8   F043BDE8           POP      {R4-R9,LR}
   \   000000EC   1EFF2FE1           BX       LR               ;; return
    951          }
    952          

   \                                 In segment CODE, align 4, keep-with-next
    953          int
    954          lwip_socket(int domain, int type, int protocol)
    955          {
   \                     lwip_socket:
   \   00000000   70402DE9           PUSH     {R4-R6,LR}
   \   00000004   0200A0E1           MOV      R0,R2
    956            struct netconn *conn;
    957            int i;
    958          
    959            LWIP_UNUSED_ARG(domain);
    960          
    961            /* create a netconn */
    962            switch (type) {
   \   00000008   F8209FE5           LDR      R2,??lwip_socket_0  ;; event_callback
   \   0000000C   011051E2           SUBS     R1,R1,#+1
   \   00000010   0F00000A           BEQ      ??lwip_socket_1
   \   00000014   011051E2           SUBS     R1,R1,#+1
   \   00000018   0800000A           BEQ      ??lwip_socket_2
   \   0000001C   011051E2           SUBS     R1,R1,#+1
   \   00000020   3500001A           BNE      ??lwip_socket_3
    963            case SOCK_RAW:
    964              conn = netconn_new_with_proto_and_callback(NETCONN_RAW, (u8_t)protocol, event_callback);
   \   00000024   FF1000E2           AND      R1,R0,#0xFF
   \   00000028   4000A0E3           MOV      R0,#+64
   \                     ??lwip_socket_4:
   \   0000002C   ........           _BLF     netconn_new_with_proto_and_callback,??netconn_new_with_proto_and_callback??rA
   \   00000030   0040A0E1           MOV      R4,R0
    965              LWIP_DEBUGF(SOCKETS_DEBUG, ("lwip_socket(%s, SOCK_RAW, %d) = ",
    966                                           domain == PF_INET ? "PF_INET" : "UNKNOWN", protocol));
    967              break;
    968            case SOCK_DGRAM:
    969              conn = netconn_new_with_callback( (protocol == IPPROTO_UDPLITE) ?
    970                           NETCONN_UDPLITE : NETCONN_UDP, event_callback);
    971              LWIP_DEBUGF(SOCKETS_DEBUG, ("lwip_socket(%s, SOCK_DGRAM, %d) = ",
    972                                           domain == PF_INET ? "PF_INET" : "UNKNOWN", protocol));
    973              break;
    974            case SOCK_STREAM:
    975              conn = netconn_new_with_callback(NETCONN_TCP, event_callback);
    976              LWIP_DEBUGF(SOCKETS_DEBUG, ("lwip_socket(%s, SOCK_STREAM, %d) = ",
    977                                           domain == PF_INET ? "PF_INET" : "UNKNOWN", protocol));
    978              if (conn != NULL) {
    979                /* Prevent automatic window updates, we do this on our own! */
    980                netconn_set_noautorecved(conn, 1);
    981              }
    982              break;
    983            default:
    984              LWIP_DEBUGF(SOCKETS_DEBUG, ("lwip_socket(%d, %d/UNKNOWN, %d) = -1\n",
    985                                           domain, type, protocol));
    986              set_errno(EINVAL);
    987              return -1;
    988            }
    989          
    990            if (!conn) {
   \                     ??lwip_socket_5:
   \   00000034   000054E3           CMP      R4,#+0
   \   00000038   0D00001A           BNE      ??lwip_socket_6
    991              LWIP_DEBUGF(SOCKETS_DEBUG, ("-1 / ENOBUFS (could not create netconn)\n"));
    992              set_errno(ENOBUFS);
    993              return -1;
   \                     ??lwip_socket_7:
   \   0000003C   2E0000EA           B        ??lwip_socket_3
    994            }
   \                     ??lwip_socket_2:
   \   00000040   880050E3           CMP      R0,#+136
   \   00000044   2100A003           MOVEQ    R0,#+33
   \   00000048   2000A013           MOVNE    R0,#+32
   \   0000004C   0010A0E3           MOV      R1,#+0
   \   00000050   F5FFFFEA           B        ??lwip_socket_4
   \                     ??lwip_socket_1:
   \   00000054   0010A0E3           MOV      R1,#+0
   \   00000058   1000A0E3           MOV      R0,#+16
   \   0000005C   ........           _BLF     netconn_new_with_proto_and_callback,??netconn_new_with_proto_and_callback??rA
   \   00000060   0040B0E1           MOVS     R4,R0
   \   00000064   F2FFFF0A           BEQ      ??lwip_socket_5
   \   00000068   4C00D4E5           LDRB     R0,[R4, #+76]
   \   0000006C   080080E3           ORR      R0,R0,#0x8
   \   00000070   4C00C4E5           STRB     R0,[R4, #+76]
    995          
    996            i = alloc_socket(conn, 0);
   \                     ??lwip_socket_6:
   \   00000074   0050A0E3           MOV      R5,#+0
   \                     ??lwip_socket_8:
   \   00000078   ........           _BLF     sys_arch_protect,??sys_arch_protect??rA
   \   0000007C   ........           LDR      R2,??DataTable10  ;; sockets
   \   00000080   1810A0E3           MOV      R1,#+24
   \   00000084   912526E0           MLA      R6,R1,R5,R2
   \   00000088   001096E5           LDR      R1,[R6, #+0]
   \   0000008C   000051E3           CMP      R1,#+0
   \   00000090   1300001A           BNE      ??lwip_socket_9
   \   00000094   004086E5           STR      R4,[R6, #+0]
   \   00000098   ........           _BLF     sys_arch_unprotect,??sys_arch_unprotect??rA
   \   0000009C   0000A0E3           MOV      R0,#+0
   \   000000A0   040086E5           STR      R0,[R6, #+4]
   \   000000A4   B800C6E1           STRH     R0,[R6, #+8]
   \   000000A8   BA00C6E1           STRH     R0,[R6, #+10]
   \   000000AC   0010D4E5           LDRB     R1,[R4, #+0]
   \   000000B0   100051E3           CMP      R1,#+16
   \   000000B4   0010A003           MOVEQ    R1,#+0
   \   000000B8   0110A013           MOVNE    R1,#+1
   \   000000BC   BC10C6E1           STRH     R1,[R6, #+12]
   \   000000C0   BE00C6E1           STRH     R0,[R6, #+14]
   \   000000C4   100086E5           STR      R0,[R6, #+16]
   \   000000C8   140086E5           STR      R0,[R6, #+20]
    997          
    998            if (i == -1) {
   \   000000CC   010075E3           CMN      R5,#+1
   \   000000D0   0700000A           BEQ      ??lwip_socket_10
    999              netconn_delete(conn);
   1000              set_errno(ENFILE);
   1001              return -1;
   1002            }
   1003            conn->socket = i;
   \   000000D4   445084E5           STR      R5,[R4, #+68]
   1004            LWIP_DEBUGF(SOCKETS_DEBUG, ("%d\n", i));
   1005            set_errno(0);
   1006            return i;
   \   000000D8   0500A0E1           MOV      R0,R5
   \   000000DC   7040BDE8           POP      {R4-R6,LR}
   \   000000E0   1EFF2FE1           BX       LR               ;; return
   \                     ??lwip_socket_9:
   \   000000E4   ........           _BLF     sys_arch_unprotect,??sys_arch_unprotect??rA
   \   000000E8   015085E2           ADD      R5,R5,#+1
   \   000000EC   100055E3           CMP      R5,#+16
   \   000000F0   E0FFFFBA           BLT      ??lwip_socket_8
   \                     ??lwip_socket_10:
   \   000000F4   0400A0E1           MOV      R0,R4
   \   000000F8   ........           _BLF     netconn_delete,??netconn_delete??rA
   \                     ??lwip_socket_3:
   \   000000FC   7040BDE8           POP      {R4-R6,LR}
   \   00000100   0000E0E3           MVN      R0,#+0
   \   00000104   1EFF2FE1           BX       LR
   \                     ??lwip_socket_0:
   \   00000108   ........           DC32     event_callback
   1007          }
   1008          

   \                                 In segment CODE, align 4, keep-with-next
   1009          int
   1010          lwip_write(int s, const void *data, size_t size)
   1011          {
   \                     lwip_write:
   \   00000000   00402DE9           PUSH     {LR}
   1012            return lwip_send(s, data, size, 0);
   \   00000004   0030A0E3           MOV      R3,#+0
   \   00000008   ........           BL       lwip_send
   \   0000000C   0040BDE8           POP      {LR}
   \   00000010   1EFF2FE1           BX       LR               ;; return
   1013          }
   1014          
   1015          /**
   1016           * Go through the readset and writeset lists and see which socket of the sockets
   1017           * set in the sets has events. On return, readset, writeset and exceptset have
   1018           * the sockets enabled that had events.
   1019           *
   1020           * exceptset is not used for now!!!
   1021           *
   1022           * @param maxfdp1 the highest socket index in the sets
   1023           * @param readset_in:    set of sockets to check for read events
   1024           * @param writeset_in:   set of sockets to check for write events
   1025           * @param exceptset_in:  set of sockets to check for error events
   1026           * @param readset_out:   set of sockets that had read events
   1027           * @param writeset_out:  set of sockets that had write events
   1028           * @param exceptset_out: set os sockets that had error events
   1029           * @return number of sockets that had events (read/write/exception) (>= 0)
   1030           */

   \                                 In segment CODE, align 4, keep-with-next
   1031          static int
   1032          lwip_selscan(int maxfdp1, fd_set *readset_in, fd_set *writeset_in, fd_set *exceptset_in,
   1033                       fd_set *readset_out, fd_set *writeset_out, fd_set *exceptset_out)
   1034          {
   \                     lwip_selscan:
   \   00000000   F34F2DE9           PUSH     {R0,R1,R4-R11,LR}
   \   00000004   08D04DE2           SUB      SP,SP,#+8
   \   00000008   0250A0E1           MOV      R5,R2
   \   0000000C   0360A0E1           MOV      R6,R3
   1035            int i, nready = 0;
   \   00000010   0040A0E3           MOV      R4,#+0
   1036            fd_set lreadset, lwriteset, lexceptset;
   1037            struct lwip_sock *sock;
   1038            SYS_ARCH_DECL_PROTECT(lev);
   1039          
   1040            FD_ZERO(&lreadset);
   \   00000014   0220A0E3           MOV      R2,#+2
   \   00000018   0010A0E3           MOV      R1,#+0
   \   0000001C   0D00A0E1           MOV      R0,SP
   \   00000020   ........           _BLF     memset,??memset??rA
   1041            FD_ZERO(&lwriteset);
   \   00000024   0220A0E3           MOV      R2,#+2
   \   00000028   0410A0E1           MOV      R1,R4
   \   0000002C   02008DE2           ADD      R0,SP,#+2
   \   00000030   ........           _BLF     memset,??memset??rA
   1042            FD_ZERO(&lexceptset);
   \   00000034   0220A0E3           MOV      R2,#+2
   \   00000038   0410A0E1           MOV      R1,R4
   \   0000003C   04008DE2           ADD      R0,SP,#+4
   \   00000040   ........           _BLF     memset,??memset??rA
   1043          
   1044            /* Go through each socket in each list to count number of sockets which
   1045               currently match */
   1046            for(i = 0; i < maxfdp1; i++) {
   \   00000044   08009DE5           LDR      R0,[SP, #+8]
   \   00000048   0470A0E1           MOV      R7,R4
   \   0000004C   010050E3           CMP      R0,#+1
   \   00000050   400000AA           BGE      ??lwip_selscan_0
   \   00000054   420000EA           B        ??lwip_selscan_1
   1047              void* lastdata = NULL;
   \                     ??lwip_selscan_2:
   \   00000058   00B0A0E3           MOV      R11,#+0
   \   0000005C   00A0A0E3           MOV      R10,#+0
   1048              s16_t rcvevent = 0;
   \   00000060   0A80A0E1           MOV      R8,R10
   1049              u16_t sendevent = 0;
   \   00000064   0B90A0E1           MOV      R9,R11
   1050              u16_t errevent = 0;
   1051              /* First get the socket's status (protected)... */
   1052              SYS_ARCH_PROTECT(lev);
   \   00000068   ........           _BLF     sys_arch_protect,??sys_arch_protect??rA
   1053              sock = tryget_socket(i);
   \   0000006C   000057E3           CMP      R7,#+0
   \   00000070   0B00004A           BMI      ??lwip_selscan_3
   \   00000074   100057E3           CMP      R7,#+16
   \   00000078   090000AA           BGE      ??lwip_selscan_3
   \   0000007C   ........           LDR      R1,??DataTable10  ;; sockets
   \   00000080   1820A0E3           MOV      R2,#+24
   \   00000084   921721E0           MLA      R1,R2,R7,R1
   \   00000088   002091E5           LDR      R2,[R1, #+0]
   \   0000008C   000052E3           CMP      R2,#+0
   \   00000090   0300000A           BEQ      ??lwip_selscan_3
   1054              if (sock != NULL) {
   1055                lastdata = sock->lastdata;
   \   00000094   04A091E5           LDR      R10,[R1, #+4]
   1056                rcvevent = sock->rcvevent;
   \   00000098   FA80D1E1           LDRSH    R8,[R1, #+10]
   1057                sendevent = sock->sendevent;
   \   0000009C   BC90D1E1           LDRH     R9,[R1, #+12]
   1058                errevent = sock->errevent;
   \   000000A0   BEB0D1E1           LDRH     R11,[R1, #+14]
   1059              }
   1060              SYS_ARCH_UNPROTECT(lev);
   \                     ??lwip_selscan_3:
   \   000000A4   ........           _BLF     sys_arch_unprotect,??sys_arch_unprotect??rA
   1061              /* ... then examine it: */
   1062              /* See if netconn of this socket is ready for read */
   1063              if (readset_in && FD_ISSET(i, readset_in) && ((lastdata != NULL) || (rcvevent > 0))) {
   \   000000A8   0110A0E3           MOV      R1,#+1
   \   000000AC   072007E2           AND      R2,R7,#0x7
   \   000000B0   1112A0E1           LSL      R1,R1,R2
   \   000000B4   0C209DE5           LDR      R2,[SP, #+12]
   \   000000B8   4701A0E1           ASR      R0,R7,#+2
   \   000000BC   A00E87E0           ADD      R0,R7,R0, LSR #+29
   \   000000C0   C001A0E1           ASR      R0,R0,#+3
   \   000000C4   000052E3           CMP      R2,#+0
   \   000000C8   0220D017           LDRBNE   R2,[R0, +R2]
   \   000000CC   02001111           TSTNE    R1,R2
   \   000000D0   0900000A           BEQ      ??lwip_selscan_4
   \   000000D4   00005AE3           CMP      R10,#+0
   \   000000D8   0100001A           BNE      ??lwip_selscan_5
   \   000000DC   010058E3           CMP      R8,#+1
   \   000000E0   050000BA           BLT      ??lwip_selscan_4
   1064                FD_SET(i, &lreadset);
   \                     ??lwip_selscan_5:
   \   000000E4   0D20A0E1           MOV      R2,SP
   \   000000E8   022080E0           ADD      R2,R0,R2
   \   000000EC   0030D2E5           LDRB     R3,[R2, #+0]
   1065                LWIP_DEBUGF(SOCKETS_DEBUG, ("lwip_selscan: fd=%d ready for reading\n", i));
   1066                nready++;
   \   000000F0   014084E2           ADD      R4,R4,#+1
   \   000000F4   033081E1           ORR      R3,R1,R3
   \   000000F8   0030C2E5           STRB     R3,[R2, #+0]
   1067              }
   1068              /* See if netconn of this socket is ready for write */
   1069              if (writeset_in && FD_ISSET(i, writeset_in) && (sendevent != 0)) {
   \                     ??lwip_selscan_4:
   \   000000FC   000055E3           CMP      R5,#+0
   \   00000100   0520D017           LDRBNE   R2,[R0, +R5]
   \   00000104   02001111           TSTNE    R1,R2
   \   00000108   00005913           CMPNE    R9,#+0
   \   0000010C   0500000A           BEQ      ??lwip_selscan_6
   1070                FD_SET(i, &lwriteset);
   \   00000110   02208DE2           ADD      R2,SP,#+2
   \   00000114   022080E0           ADD      R2,R0,R2
   \   00000118   0030D2E5           LDRB     R3,[R2, #+0]
   1071                LWIP_DEBUGF(SOCKETS_DEBUG, ("lwip_selscan: fd=%d ready for writing\n", i));
   1072                nready++;
   \   0000011C   014084E2           ADD      R4,R4,#+1
   \   00000120   033081E1           ORR      R3,R1,R3
   \   00000124   0030C2E5           STRB     R3,[R2, #+0]
   1073              }
   1074              /* See if netconn of this socket had an error */
   1075              if (exceptset_in && FD_ISSET(i, exceptset_in) && (errevent != 0)) {
   \                     ??lwip_selscan_6:
   \   00000128   000056E3           CMP      R6,#+0
   \   0000012C   0620D017           LDRBNE   R2,[R0, +R6]
   \   00000130   02001111           TSTNE    R1,R2
   \   00000134   00005B13           CMPNE    R11,#+0
   \   00000138   0500000A           BEQ      ??lwip_selscan_7
   1076                FD_SET(i, &lexceptset);
   \   0000013C   04208DE2           ADD      R2,SP,#+4
   \   00000140   020080E0           ADD      R0,R0,R2
   \   00000144   0020D0E5           LDRB     R2,[R0, #+0]
   1077                LWIP_DEBUGF(SOCKETS_DEBUG, ("lwip_selscan: fd=%d ready for exception\n", i));
   1078                nready++;
   \   00000148   014084E2           ADD      R4,R4,#+1
   \   0000014C   021081E1           ORR      R1,R1,R2
   \   00000150   0010C0E5           STRB     R1,[R0, #+0]
   1079              }
   1080            }
   \                     ??lwip_selscan_7:
   \   00000154   017087E2           ADD      R7,R7,#+1
   \                     ??lwip_selscan_0:
   \   00000158   08009DE5           LDR      R0,[SP, #+8]
   \   0000015C   000057E1           CMP      R7,R0
   \   00000160   BCFFFFBA           BLT      ??lwip_selscan_2
   1081            /* copy local sets to the ones provided as arguments */
   1082            *readset_out = lreadset;
   \                     ??lwip_selscan_1:
   \   00000164   34009DE5           LDR      R0,[SP, #+52]
   \   00000168   0D10A0E1           MOV      R1,SP
   \   0000016C   0020D1E5           LDRB     R2,[R1, #0]
   \   00000170   0020C0E5           STRB     R2,[R0, #+0]
   \   00000174   0120D1E5           LDRB     R2,[R1, #+1]
   1083            *writeset_out = lwriteset;
   \   00000178   02108DE2           ADD      R1,SP,#+2
   \   0000017C   0120C0E5           STRB     R2,[R0, #+1]
   \   00000180   0020D1E5           LDRB     R2,[R1, #0]
   \   00000184   38009DE5           LDR      R0,[SP, #+56]
   \   00000188   0020C0E5           STRB     R2,[R0, #+0]
   \   0000018C   0120D1E5           LDRB     R2,[R1, #+1]
   1084            *exceptset_out = lexceptset;
   \   00000190   04108DE2           ADD      R1,SP,#+4
   \   00000194   0120C0E5           STRB     R2,[R0, #+1]
   \   00000198   0020D1E5           LDRB     R2,[R1, #0]
   \   0000019C   3C009DE5           LDR      R0,[SP, #+60]
   \   000001A0   0020C0E5           STRB     R2,[R0, #+0]
   \   000001A4   0120D1E5           LDRB     R2,[R1, #+1]
   \   000001A8   0120C0E5           STRB     R2,[R0, #+1]
   1085          
   1086            LWIP_ASSERT("nready >= 0", nready >= 0);
   1087            return nready;
   \   000001AC   0400A0E1           MOV      R0,R4
   \   000001B0   10D08DE2           ADD      SP,SP,#+16
   \   000001B4   F04FBDE8           POP      {R4-R11,LR}
   \   000001B8   1EFF2FE1           BX       LR               ;; return
   1088          }
   1089          
   1090          /**
   1091           * Processing exceptset is not yet implemented.
   1092           */

   \                                 In segment CODE, align 4, keep-with-next
   1093          int
   1094          lwip_select(int maxfdp1, fd_set *readset, fd_set *writeset, fd_set *exceptset,
   1095                      struct timeval *timeout)
   1096          {
   \                     lwip_select:
   \   00000000   F04F2DE9           PUSH     {R4-R11,LR}
   \   00000004   30D04DE2           SUB      SP,SP,#+48
   \   00000008   54B09DE5           LDR      R11,[SP, #+84]
   \   0000000C   0040A0E1           MOV      R4,R0
   \   00000010   0150A0E1           MOV      R5,R1
   \   00000014   0260A0E1           MOV      R6,R2
   \   00000018   0370A0E1           MOV      R7,R3
   1097            u32_t waitres = 0;
   \   0000001C   00A0A0E3           MOV      R10,#+0
   \   00000020   0CA08DE5           STR      R10,[SP, #+12]
   1098            int nready;
   1099            fd_set lreadset, lwriteset, lexceptset;
   1100            u32_t msectimeout;
   1101            struct lwip_select_cb select_cb;
   1102            err_t err;
   1103            int i;
   1104            SYS_ARCH_DECL_PROTECT(lev);
   1105          
   1106            LWIP_DEBUGF(SOCKETS_DEBUG, ("lwip_select(%d, %p, %p, %p, tvsec=%"S32_F" tvusec=%"S32_F")\n",
   1107                            maxfdp1, (void *)readset, (void *) writeset, (void *) exceptset,
   1108                            timeout ? (s32_t)timeout->tv_sec : (s32_t)-1,
   1109                            timeout ? (s32_t)timeout->tv_usec : (s32_t)-1));
   1110          
   1111            /* Go through each socket in each list to count number of sockets which
   1112               currently match */
   1113            nready = lwip_selscan(maxfdp1, readset, writeset, exceptset, &lreadset, &lwriteset, &lexceptset);
   \   00000024   08008DE2           ADD      R0,SP,#+8
   \   00000028   01002DE9           PUSH     {R0}
   \   0000002C   06008DE2           ADD      R0,SP,#+6
   \   00000030   01002DE9           PUSH     {R0}
   \   00000034   08008DE2           ADD      R0,SP,#+8
   \   00000038   01002DE9           PUSH     {R0}
   \   0000003C   0400A0E1           MOV      R0,R4
   \   00000040   ........           BL       lwip_selscan
   \   00000044   0080B0E1           MOVS     R8,R0
   1114          
   1115            /* If we don't have any current events, then suspend if we are supposed to */
   1116            if (!nready) {
   \   00000048   0CD08DE2           ADD      SP,SP,#+12
   \   0000004C   B900001A           BNE      ??lwip_select_0
   1117              if (timeout && timeout->tv_sec == 0 && timeout->tv_usec == 0) {
   \   00000050   00005BE3           CMP      R11,#+0
   \   00000054   0400000A           BEQ      ??lwip_select_1
   \   00000058   00009BE5           LDR      R0,[R11, #+0]
   \   0000005C   000050E3           CMP      R0,#+0
   \   00000060   04009B05           LDREQ    R0,[R11, #+4]
   \   00000064   00005003           CMPEQ    R0,#+0
   \   00000068   B200000A           BEQ      ??lwip_select_0
   1118                LWIP_DEBUGF(SOCKETS_DEBUG, ("lwip_select: no timeout, returning 0\n"));
   1119                /* This is OK as the local fdsets are empty and nready is zero,
   1120                   or we would have returned earlier. */
   1121                goto return_copy_fdsets;
   1122              }
   1123          
   1124              /* None ready: add our semaphore to list:
   1125                 We don't actually need any dynamic memory. Our entry on the
   1126                 list is only valid while we are in this function, so it's ok
   1127                 to use local variables. */
   1128          
   1129              select_cb.next = NULL;
   \                     ??lwip_select_1:
   \   0000006C   10A08DE5           STR      R10,[SP, #+16]
   1130              select_cb.prev = NULL;
   \   00000070   14A08DE5           STR      R10,[SP, #+20]
   1131              select_cb.readset = readset;
   \   00000074   18508DE5           STR      R5,[SP, #+24]
   1132              select_cb.writeset = writeset;
   \   00000078   1C608DE5           STR      R6,[SP, #+28]
   1133              select_cb.exceptset = exceptset;
   \   0000007C   20708DE5           STR      R7,[SP, #+32]
   1134              select_cb.sem_signalled = 0;
   \   00000080   24A08DE5           STR      R10,[SP, #+36]
   1135              err = sys_sem_new(&select_cb.sem, 0);
   \   00000084   0010A0E3           MOV      R1,#+0
   \   00000088   28008DE2           ADD      R0,SP,#+40
   \   0000008C   ........           _BLF     sys_sem_new,??sys_sem_new??rA
   1136              if (err != ERR_OK) {
   \   00000090   000050E3           CMP      R0,#+0
   1137                /* failed to create semaphore */
   1138                set_errno(ENOMEM);
   1139                return -1;
   \   00000094   0A00E011           MVNNE    R0,R10
   \   00000098   BC00001A           BNE      ??lwip_select_2
   1140              }
   1141          
   1142              /* Protect the select_cb_list */
   1143              SYS_ARCH_PROTECT(lev);
   1144          
   1145              /* Put this select_cb on top of list */
   1146              select_cb.next = select_cb_list;
   \   0000009C   ........           LDR      R9,??DataTable11  ;; sockets
   \   000000A0   ........           _BLF     sys_arch_protect,??sys_arch_protect??rA
   \   000000A4   801199E5           LDR      R1,[R9, #+384]
   \   000000A8   10108DE5           STR      R1,[SP, #+16]
   1147              if (select_cb_list != NULL) {
   \   000000AC   000051E3           CMP      R1,#+0
   1148                select_cb_list->prev = &select_cb;
   \   000000B0   10208D12           ADDNE    R2,SP,#+16
   \   000000B4   04208115           STRNE    R2,[R1, #+4]
   1149              }
   1150              select_cb_list = &select_cb;
   \   000000B8   10108DE2           ADD      R1,SP,#+16
   \   000000BC   801189E5           STR      R1,[R9, #+384]
   1151              /* Increasing this counter tells even_callback that the list has changed. */
   1152              select_cb_ctr++;
   \   000000C0   841199E5           LDR      R1,[R9, #+388]
   1153          
   1154              /* Now we can safely unprotect */
   1155              SYS_ARCH_UNPROTECT(lev);
   1156          
   1157              /* Increase select_waiting for each socket we are interested in */
   1158              for(i = 0; i < maxfdp1; i++) {
   \   000000C4   0080A0E3           MOV      R8,#+0
   \   000000C8   011081E2           ADD      R1,R1,#+1
   \   000000CC   841189E5           STR      R1,[R9, #+388]
   \   000000D0   ........           _BLF     sys_arch_unprotect,??sys_arch_unprotect??rA
   \   000000D4   010054E3           CMP      R4,#+1
   \   000000D8   190000AA           BGE      ??lwip_select_3
   1159                if ((readset && FD_ISSET(i, readset)) ||
   1160                    (writeset && FD_ISSET(i, writeset)) ||
   1161                    (exceptset && FD_ISSET(i, exceptset))) {
   1162                  struct lwip_sock *sock = tryget_socket(i);
   1163                  LWIP_ASSERT("sock != NULL", sock != NULL);
   1164                  SYS_ARCH_PROTECT(lev);
   1165                  sock->select_waiting++;
   1166                  LWIP_ASSERT("sock->select_waiting > 0", sock->select_waiting > 0);
   1167                  SYS_ARCH_UNPROTECT(lev);
   1168                }
   1169              }
   1170          
   1171              /* Call lwip_selscan again: there could have been events between
   1172                 the last scan (whithout us on the list) and putting us on the list! */
   1173              nready = lwip_selscan(maxfdp1, readset, writeset, exceptset, &lreadset, &lwriteset, &lexceptset);
   \                     ??lwip_select_4:
   \   000000DC   08008DE2           ADD      R0,SP,#+8
   \   000000E0   01002DE9           PUSH     {R0}
   \   000000E4   06008DE2           ADD      R0,SP,#+6
   \   000000E8   01002DE9           PUSH     {R0}
   \   000000EC   08008DE2           ADD      R0,SP,#+8
   \   000000F0   01002DE9           PUSH     {R0}
   \   000000F4   0730A0E1           MOV      R3,R7
   \   000000F8   0620A0E1           MOV      R2,R6
   \   000000FC   0510A0E1           MOV      R1,R5
   \   00000100   0400A0E1           MOV      R0,R4
   \   00000104   ........           BL       lwip_selscan
   \   00000108   0080B0E1           MOVS     R8,R0
   1174              if (!nready) {
   \   0000010C   0CD08DE2           ADD      SP,SP,#+12
   \   00000110   3900001A           BNE      ??lwip_select_5
   1175                /* Still none ready, just wait to be woken */
   1176                if (timeout == 0) {
   \   00000114   00005BE3           CMP      R11,#+0
   \   00000118   2900001A           BNE      ??lwip_select_6
   1177                  /* Wait forever */
   1178                  msectimeout = 0;
   \   0000011C   0010A0E3           MOV      R1,#+0
   \   00000120   320000EA           B        ??lwip_select_7
   1179                } else {
   \                     ??lwip_select_8:
   \   00000124   04008DE5           STR      R0,[SP, #+4]
   \   00000128   ........           _BLF     sys_arch_protect,??sys_arch_protect??rA
   \   0000012C   04109DE5           LDR      R1,[SP, #+4]
   \   00000130   142091E5           LDR      R2,[R1, #+20]
   \   00000134   012082E2           ADD      R2,R2,#+1
   \   00000138   142081E5           STR      R2,[R1, #+20]
   \   0000013C   ........           _BLF     sys_arch_unprotect,??sys_arch_unprotect??rA
   \                     ??lwip_select_9:
   \   00000140   018088E2           ADD      R8,R8,#+1
   \                     ??lwip_select_3:
   \   00000144   040058E1           CMP      R8,R4
   \   00000148   E3FFFFAA           BGE      ??lwip_select_4
   \   0000014C   4801A0E1           ASR      R0,R8,#+2
   \   00000150   A00E88E0           ADD      R0,R8,R0, LSR #+29
   \   00000154   C001A0E1           ASR      R0,R0,#+3
   \   00000158   0110A0E3           MOV      R1,#+1
   \   0000015C   072008E2           AND      R2,R8,#0x7
   \   00000160   1112A0E1           LSL      R1,R1,R2
   \   00000164   000055E3           CMP      R5,#+0
   \   00000168   0520D017           LDRBNE   R2,[R0, +R5]
   \   0000016C   02001111           TSTNE    R1,R2
   \   00000170   0700001A           BNE      ??lwip_select_10
   \   00000174   000056E3           CMP      R6,#+0
   \   00000178   0620D017           LDRBNE   R2,[R0, +R6]
   \   0000017C   02001111           TSTNE    R1,R2
   \   00000180   0300001A           BNE      ??lwip_select_10
   \   00000184   000057E3           CMP      R7,#+0
   \   00000188   0700D017           LDRBNE   R0,[R0, +R7]
   \   0000018C   00001111           TSTNE    R1,R0
   \   00000190   EAFFFF0A           BEQ      ??lwip_select_9
   \                     ??lwip_select_10:
   \   00000194   000058E3           CMP      R8,#+0
   \   00000198   0100004A           BMI      ??lwip_select_11
   \   0000019C   100058E3           CMP      R8,#+16
   \   000001A0   010000BA           BLT      ??lwip_select_12
   \                     ??lwip_select_11:
   \   000001A4   0000A0E3           MOV      R0,#+0
   \   000001A8   DDFFFFEA           B        ??lwip_select_8
   \                     ??lwip_select_12:
   \   000001AC   1810A0E3           MOV      R1,#+24
   \   000001B0   919820E0           MLA      R0,R1,R8,R9
   \   000001B4   001090E5           LDR      R1,[R0, #+0]
   \   000001B8   000051E3           CMP      R1,#+0
   \   000001BC   D8FFFF1A           BNE      ??lwip_select_8
   \   000001C0   F7FFFFEA           B        ??lwip_select_11
   1180                  msectimeout =  ((timeout->tv_sec * 1000) + ((timeout->tv_usec + 500)/1000));
   \                     ??lwip_select_6:
   \   000001C4   00109BE5           LDR      R1,[R11, #+0]
   \   000001C8   04209BE5           LDR      R2,[R11, #+4]
   \   000001CC   ........           LDR      R3,??DataTable12  ;; 0x10624dd3
   \   000001D0   FA0FA0E3           MOV      R0,#+1000
   \   000001D4   7D2F82E2           ADD      R2,R2,#+500
   \   000001D8   93B2CCE0           SMULL    R11,R12,R3,R2
   \   000001DC   4CC3A0E1           ASR      R12,R12,#+6
   \   000001E0   A22F8CE0           ADD      R2,R12,R2, LSR #+31
   \   000001E4   902121E0           MLA      R1,R0,R1,R2
   1181                  if (msectimeout == 0) {
   \   000001E8   000051E3           CMP      R1,#+0
   1182                    /* Wait 1ms at least (0 means wait forever) */
   1183                    msectimeout = 1;
   \   000001EC   0110A003           MOVEQ    R1,#+1
   1184                  }
   1185                }
   1186          
   1187                waitres = sys_arch_sem_wait(&select_cb.sem, msectimeout);
   \                     ??lwip_select_7:
   \   000001F0   28008DE2           ADD      R0,SP,#+40
   \   000001F4   ........           _BLF     sys_arch_sem_wait,??sys_arch_sem_wait??rA
   \   000001F8   0C008DE5           STR      R0,[SP, #+12]
   1188              }
   1189              /* Increase select_waiting for each socket we are interested in */
   1190              for(i = 0; i < maxfdp1; i++) {
   \                     ??lwip_select_5:
   \   000001FC   00B0A0E3           MOV      R11,#+0
   \   00000200   010054E3           CMP      R4,#+1
   \   00000204   150000AA           BGE      ??lwip_select_13
   1191                if ((readset && FD_ISSET(i, readset)) ||
   1192                    (writeset && FD_ISSET(i, writeset)) ||
   1193                    (exceptset && FD_ISSET(i, exceptset))) {
   1194                  struct lwip_sock *sock = tryget_socket(i);
   1195                  LWIP_ASSERT("sock != NULL", sock != NULL);
   1196                  SYS_ARCH_PROTECT(lev);
   1197                  sock->select_waiting--;
   1198                  LWIP_ASSERT("sock->select_waiting >= 0", sock->select_waiting >= 0);
   1199                  SYS_ARCH_UNPROTECT(lev);
   1200                }
   1201              }
   1202              /* Take us off the list */
   1203              SYS_ARCH_PROTECT(lev);
   \                     ??lwip_select_14:
   \   00000208   ........           _BLF     sys_arch_protect,??sys_arch_protect??rA
   1204              if (select_cb.next != NULL) {
   \   0000020C   10109DE5           LDR      R1,[SP, #+16]
   \   00000210   000051E3           CMP      R1,#+0
   1205                select_cb.next->prev = select_cb.prev;
   \   00000214   14209D15           LDRNE    R2,[SP, #+20]
   \   00000218   04208115           STRNE    R2,[R1, #+4]
   1206              }
   1207              if (select_cb_list == &select_cb) {
   \   0000021C   801199E5           LDR      R1,[R9, #+384]
   \   00000220   10208DE2           ADD      R2,SP,#+16
   \   00000224   020051E1           CMP      R1,R2
   \   00000228   14109D15           LDRNE    R1,[SP, #+20]
   \   0000022C   10209D15           LDRNE    R2,[SP, #+16]
   1208                LWIP_ASSERT("select_cb.prev == NULL", select_cb.prev == NULL);
   1209                select_cb_list = select_cb.next;
   \   00000230   10109D05           LDREQ    R1,[SP, #+16]
   \   00000234   00208115           STRNE    R2,[R1, #+0]
   \   00000238   80118905           STREQ    R1,[R9, #+384]
   \   0000023C   270000EA           B        ??lwip_select_15
   1210              } else {
   \                     ??lwip_select_16:
   \   00000240   04008DE5           STR      R0,[SP, #+4]
   \   00000244   ........           _BLF     sys_arch_protect,??sys_arch_protect??rA
   \   00000248   04109DE5           LDR      R1,[SP, #+4]
   \   0000024C   142091E5           LDR      R2,[R1, #+20]
   \   00000250   012042E2           SUB      R2,R2,#+1
   \   00000254   142081E5           STR      R2,[R1, #+20]
   \   00000258   ........           _BLF     sys_arch_unprotect,??sys_arch_unprotect??rA
   \                     ??lwip_select_17:
   \   0000025C   01B08BE2           ADD      R11,R11,#+1
   \                     ??lwip_select_13:
   \   00000260   04005BE1           CMP      R11,R4
   \   00000264   E7FFFFAA           BGE      ??lwip_select_14
   \   00000268   4B01A0E1           ASR      R0,R11,#+2
   \   0000026C   A00E8BE0           ADD      R0,R11,R0, LSR #+29
   \   00000270   C001A0E1           ASR      R0,R0,#+3
   \   00000274   0110A0E3           MOV      R1,#+1
   \   00000278   07200BE2           AND      R2,R11,#0x7
   \   0000027C   1112A0E1           LSL      R1,R1,R2
   \   00000280   000055E3           CMP      R5,#+0
   \   00000284   0520D017           LDRBNE   R2,[R0, +R5]
   \   00000288   02001111           TSTNE    R1,R2
   \   0000028C   0700001A           BNE      ??lwip_select_18
   \   00000290   000056E3           CMP      R6,#+0
   \   00000294   0620D017           LDRBNE   R2,[R0, +R6]
   \   00000298   02001111           TSTNE    R1,R2
   \   0000029C   0300001A           BNE      ??lwip_select_18
   \   000002A0   000057E3           CMP      R7,#+0
   \   000002A4   0700D017           LDRBNE   R0,[R0, +R7]
   \   000002A8   00001111           TSTNE    R1,R0
   \   000002AC   EAFFFF0A           BEQ      ??lwip_select_17
   \                     ??lwip_select_18:
   \   000002B0   00005BE3           CMP      R11,#+0
   \   000002B4   0100004A           BMI      ??lwip_select_19
   \   000002B8   10005BE3           CMP      R11,#+16
   \   000002BC   010000BA           BLT      ??lwip_select_20
   \                     ??lwip_select_19:
   \   000002C0   0000A0E3           MOV      R0,#+0
   \   000002C4   DDFFFFEA           B        ??lwip_select_16
   \                     ??lwip_select_20:
   \   000002C8   1810A0E3           MOV      R1,#+24
   \   000002CC   919B20E0           MLA      R0,R1,R11,R9
   \   000002D0   001090E5           LDR      R1,[R0, #+0]
   \   000002D4   000051E3           CMP      R1,#+0
   \   000002D8   D8FFFF1A           BNE      ??lwip_select_16
   \   000002DC   F7FFFFEA           B        ??lwip_select_19
   1211                LWIP_ASSERT("select_cb.prev != NULL", select_cb.prev != NULL);
   1212                select_cb.prev->next = select_cb.next;
   1213              }
   1214              /* Increasing this counter tells even_callback that the list has changed. */
   1215              select_cb_ctr++;
   \                     ??lwip_select_15:
   \   000002E0   841199E5           LDR      R1,[R9, #+388]
   \   000002E4   011081E2           ADD      R1,R1,#+1
   \   000002E8   841189E5           STR      R1,[R9, #+388]
   1216              SYS_ARCH_UNPROTECT(lev);
   \   000002EC   ........           _BLF     sys_arch_unprotect,??sys_arch_unprotect??rA
   1217          
   1218              sys_sem_free(&select_cb.sem);
   \   000002F0   28008DE2           ADD      R0,SP,#+40
   \   000002F4   ........           _BLF     sys_sem_free,??sys_sem_free??rA
   1219              if (waitres == SYS_ARCH_TIMEOUT)  {
   \   000002F8   0C009DE5           LDR      R0,[SP, #+12]
   \   000002FC   010070E3           CMN      R0,#+1
   \   00000300   0C00000A           BEQ      ??lwip_select_0
   1220                /* Timeout */
   1221                LWIP_DEBUGF(SOCKETS_DEBUG, ("lwip_select: timeout expired\n"));
   1222                /* This is OK as the local fdsets are empty and nready is zero,
   1223                   or we would have returned earlier. */
   1224                goto return_copy_fdsets;
   1225              }
   1226          
   1227              /* See what's set */
   1228              nready = lwip_selscan(maxfdp1, readset, writeset, exceptset, &lreadset, &lwriteset, &lexceptset);
   \   00000304   08008DE2           ADD      R0,SP,#+8
   \   00000308   01002DE9           PUSH     {R0}
   \   0000030C   06008DE2           ADD      R0,SP,#+6
   \   00000310   01002DE9           PUSH     {R0}
   \   00000314   08008DE2           ADD      R0,SP,#+8
   \   00000318   01002DE9           PUSH     {R0}
   \   0000031C   0730A0E1           MOV      R3,R7
   \   00000320   0620A0E1           MOV      R2,R6
   \   00000324   0510A0E1           MOV      R1,R5
   \   00000328   0400A0E1           MOV      R0,R4
   \   0000032C   ........           BL       lwip_selscan
   \   00000330   0080A0E1           MOV      R8,R0
   \   00000334   0CD08DE2           ADD      SP,SP,#+12
   1229            }
   1230          
   1231            LWIP_DEBUGF(SOCKETS_DEBUG, ("lwip_select: nready=%d\n", nready));
   1232          return_copy_fdsets:
   1233            set_errno(0);
   1234            if (readset) {
   \                     ??lwip_select_0:
   \   00000338   000055E3           CMP      R5,#+0
   \   0000033C   0400000A           BEQ      ??lwip_select_21
   1235              *readset = lreadset;
   \   00000340   0D00A0E1           MOV      R0,SP
   \   00000344   0010D0E5           LDRB     R1,[R0, #0]
   \   00000348   0010C5E5           STRB     R1,[R5, #+0]
   \   0000034C   0110D0E5           LDRB     R1,[R0, #+1]
   \   00000350   0110C5E5           STRB     R1,[R5, #+1]
   1236            }
   1237            if (writeset) {
   \                     ??lwip_select_21:
   \   00000354   000056E3           CMP      R6,#+0
   \   00000358   0400000A           BEQ      ??lwip_select_22
   1238              *writeset = lwriteset;
   \   0000035C   02008DE2           ADD      R0,SP,#+2
   \   00000360   0010D0E5           LDRB     R1,[R0, #0]
   \   00000364   0010C6E5           STRB     R1,[R6, #+0]
   \   00000368   0110D0E5           LDRB     R1,[R0, #+1]
   \   0000036C   0110C6E5           STRB     R1,[R6, #+1]
   1239            }
   1240            if (exceptset) {
   \                     ??lwip_select_22:
   \   00000370   000057E3           CMP      R7,#+0
   \   00000374   0400000A           BEQ      ??lwip_select_23
   1241              *exceptset = lexceptset;
   \   00000378   08008DE2           ADD      R0,SP,#+8
   \   0000037C   0010D0E5           LDRB     R1,[R0, #0]
   \   00000380   0010C7E5           STRB     R1,[R7, #+0]
   \   00000384   0110D0E5           LDRB     R1,[R0, #+1]
   \   00000388   0110C7E5           STRB     R1,[R7, #+1]
   1242            }
   1243          
   1244          
   1245            return nready;
   \                     ??lwip_select_23:
   \   0000038C   0800A0E1           MOV      R0,R8
   \                     ??lwip_select_2:
   \   00000390   30D08DE2           ADD      SP,SP,#+48
   \   00000394   F04FBDE8           POP      {R4-R11,LR}
   \   00000398   1EFF2FE1           BX       LR               ;; return
   1246          }
   1247          
   1248          /**
   1249           * Callback registered in the netconn layer for each socket-netconn.
   1250           * Processes recvevent (data available) and wakes up tasks waiting for select.
   1251           */

   \                                 In segment CODE, align 4, keep-with-next
   1252          static void
   1253          event_callback(struct netconn *conn, enum netconn_evt evt, u16_t len)
   1254          {
   \                     event_callback:
   \   00000000   F0472DE9           PUSH     {R4-R10,LR}
   \   00000004   0060A0E1           MOV      R6,R0
   \   00000008   0180A0E1           MOV      R8,R1
   1255            int s;
   1256            struct lwip_sock *sock;
   1257            struct lwip_select_cb *scb;
   1258            int last_select_cb_ctr;
   1259            SYS_ARCH_DECL_PROTECT(lev);
   1260          
   1261            LWIP_UNUSED_ARG(len);
   1262          
   1263            /* Get socket */
   1264            if (conn) {
   \   0000000C   000056E3           CMP      R6,#+0
   \   00000010   0C00000A           BEQ      ??event_callback_1
   1265              s = conn->socket;
   \   00000014   444096E5           LDR      R4,[R6, #+68]
   1266              if (s < 0) {
   \   00000018   000054E3           CMP      R4,#+0
   \   0000001C   0C00005A           BPL      ??event_callback_2
   1267                /* Data comes in right away after an accept, even though
   1268                 * the server task might not have created a new socket yet.
   1269                 * Just count down (or up) if that's the case and we
   1270                 * will use the data later. Note that only receive events
   1271                 * can happen before the new socket is set up. */
   1272                SYS_ARCH_PROTECT(lev);
   \   00000020   ........           _BLF     sys_arch_protect,??sys_arch_protect??rA
   1273                if (conn->socket < 0) {
   \   00000024   444096E5           LDR      R4,[R6, #+68]
   \   00000028   0050A0E1           MOV      R5,R0
   \   0000002C   000054E3           CMP      R4,#+0
   \   00000030   0600005A           BPL      ??event_callback_3
   1274                  if (evt == NETCONN_EVT_RCVPLUS) {
   \   00000034   000058E3           CMP      R8,#+0
   1275                    conn->socket--;
   \   00000038   01004402           SUBEQ    R0,R4,#+1
   \   0000003C   44008605           STREQ    R0,[R6, #+68]
   1276                  }
   1277                  SYS_ARCH_UNPROTECT(lev);
   \                     ??event_callback_4:
   \   00000040   0500A0E1           MOV      R0,R5
   \   00000044   ........           _BLF     sys_arch_unprotect,??sys_arch_unprotect??rA
   1278                  return;
   \                     ??event_callback_1:
   \   00000048   F047BDE8           POP      {R4-R10,LR}
   \   0000004C   1EFF2FE1           BX       LR               ;; return
   1279                }
   1280                s = conn->socket;
   1281                SYS_ARCH_UNPROTECT(lev);
   \                     ??event_callback_3:
   \   00000050   ........           _BLF     sys_arch_unprotect,??sys_arch_unprotect??rA
   1282              }
   1283          
   1284              sock = get_socket(s);
   \                     ??event_callback_2:
   \   00000054   0400A0E1           MOV      R0,R4
   \   00000058   ........           BL       get_socket
   \   0000005C   0060B0E1           MOVS     R6,R0
   1285              if (!sock) {
   \   00000060   F8FFFF0A           BEQ      ??event_callback_1
   1286                return;
   1287              }
   1288            } else {
   1289              return;
   1290            }
   1291          
   1292            SYS_ARCH_PROTECT(lev);
   \   00000064   ........           _BLF     sys_arch_protect,??sys_arch_protect??rA
   \   00000068   0050A0E1           MOV      R5,R0
   1293            /* Set event as required */
   1294            switch (evt) {
   \   0000006C   FA00D6E1           LDRSH    R0,[R6, #+10]
   \   00000070   0170A0E3           MOV      R7,#+1
   \   00000074   040058E3           CMP      R8,#+4
   \   00000078   0E00008A           BHI      ??event_callback_5
   \   0000007C   011F8FE2           ADR      R1,??event_callback_0
   \   00000080   0810D1E7           LDRB     R1,[R1, R8]
   \   00000084   01F18FE0           ADD      PC,PC,R1, LSL #+2
   \                     ??event_callback_0:
   \   00000088   01030507           DC8      +1,+3,+5,+7
   \   0000008C   0A000000           DC8      +10,+0,+0,+0
   1295              case NETCONN_EVT_RCVPLUS:
   1296                sock->rcvevent++;
   \                     ??event_callback_6:
   \   00000090   010080E2           ADD      R0,R0,#+1
   \   00000094   070000EA           B        ??event_callback_5
   1297                break;
   1298              case NETCONN_EVT_RCVMINUS:
   1299                sock->rcvevent--;
   \                     ??event_callback_7:
   \   00000098   010040E2           SUB      R0,R0,#+1
   \   0000009C   050000EA           B        ??event_callback_5
   1300                break;
   1301              case NETCONN_EVT_SENDPLUS:
   1302                sock->sendevent = 1;
   \                     ??event_callback_8:
   \   000000A0   BC70C6E1           STRH     R7,[R6, #+12]
   \   000000A4   030000EA           B        ??event_callback_5
   1303                break;
   1304              case NETCONN_EVT_SENDMINUS:
   1305                sock->sendevent = 0;
   \                     ??event_callback_9:
   \   000000A8   0010A0E3           MOV      R1,#+0
   \   000000AC   BC10C6E1           STRH     R1,[R6, #+12]
   \   000000B0   000000EA           B        ??event_callback_5
   1306                break;
   1307              case NETCONN_EVT_ERROR:
   1308                sock->errevent = 1;
   \                     ??event_callback_10:
   \   000000B4   BE70C6E1           STRH     R7,[R6, #+14]
   1309                break;
   1310              default:
   1311                LWIP_ASSERT("unknown event", 0);
   1312                break;
   1313            }
   1314          
   1315            if (sock->select_waiting == 0) {
   \                     ??event_callback_5:
   \   000000B8   F0809FE5           LDR      R8,??event_callback_11  ;; sockets
   \   000000BC   BA00C6E1           STRH     R0,[R6, #+10]
   \   000000C0   140096E5           LDR      R0,[R6, #+20]
   \   000000C4   000050E3           CMP      R0,#+0
   \   000000C8   DCFFFF0A           BEQ      ??event_callback_4
   1316              /* noone is waiting for this socket, no need to check select_cb_list */
   1317              SYS_ARCH_UNPROTECT(lev);
   1318              return;
   1319            }
   1320          
   1321            /* Now decide if anyone is waiting for this socket */
   1322            /* NOTE: This code goes through the select_cb_list list multiple times
   1323               ONLY IF a select was actually waiting. We go through the list the number
   1324               of waiting select calls + 1. This list is expected to be small. */
   1325          
   1326            /* At this point, SYS_ARCH is still protected! */
   1327          again:
   1328            for (scb = select_cb_list; scb != NULL; scb = scb->next) {
   \                     ??event_callback_12:
   \   000000CC   809198E5           LDR      R9,[R8, #+384]
   \   000000D0   0D0000EA           B        ??event_callback_13
   1329              if (scb->sem_signalled == 0) {
   1330                /* semaphore not signalled yet */
   1331                int do_signal = 0;
   1332                /* Test this select call for our socket */
   1333                if (sock->rcvevent > 0) {
   1334                  if (scb->readset && FD_ISSET(s, scb->readset)) {
   1335                    do_signal = 1;
   1336                  }
   1337                }
   1338                if (sock->sendevent != 0) {
   1339                  if (!do_signal && scb->writeset && FD_ISSET(s, scb->writeset)) {
   1340                    do_signal = 1;
   1341                  }
   1342                }
   1343                if (sock->errevent != 0) {
   1344                  if (!do_signal && scb->exceptset && FD_ISSET(s, scb->exceptset)) {
   1345                    do_signal = 1;
   1346                  }
   1347                }
   1348                if (do_signal) {
   \                     ??event_callback_14:
   \   000000D4   000050E3           CMP      R0,#+0
   \   000000D8   0200000A           BEQ      ??event_callback_15
   1349                  scb->sem_signalled = 1;
   \                     ??event_callback_16:
   \   000000DC   147089E5           STR      R7,[R9, #+20]
   1350                  /* Don't call SYS_ARCH_UNPROTECT() before signaling the semaphore, as this might
   1351                     lead to the select thread taking itself off the list, invalidagin the semaphore. */
   1352                  sys_sem_signal(&scb->sem);
   \   000000E0   180089E2           ADD      R0,R9,#+24
   \   000000E4   ........           _BLF     sys_sem_signal,??sys_sem_signal??rA
   1353                }
   1354              }
   1355              /* unlock interrupts with each step */
   1356              last_select_cb_ctr = select_cb_ctr;
   \                     ??event_callback_15:
   \   000000E8   84A198E5           LDR      R10,[R8, #+388]
   1357              SYS_ARCH_UNPROTECT(lev);
   \   000000EC   0500A0E1           MOV      R0,R5
   \   000000F0   ........           _BLF     sys_arch_unprotect,??sys_arch_unprotect??rA
   1358              /* this makes sure interrupt protection time is short */
   1359              SYS_ARCH_PROTECT(lev);
   \   000000F4   ........           _BLF     sys_arch_protect,??sys_arch_protect??rA
   \   000000F8   0050A0E1           MOV      R5,R0
   1360              if (last_select_cb_ctr != select_cb_ctr) {
   \   000000FC   840198E5           LDR      R0,[R8, #+388]
   \   00000100   00005AE1           CMP      R10,R0
   \   00000104   F0FFFF1A           BNE      ??event_callback_12
   \   00000108   009099E5           LDR      R9,[R9, #+0]
   \                     ??event_callback_13:
   \   0000010C   000059E3           CMP      R9,#+0
   \   00000110   CAFFFF0A           BEQ      ??event_callback_4
   \   00000114   140099E5           LDR      R0,[R9, #+20]
   \   00000118   000050E3           CMP      R0,#+0
   \   0000011C   F1FFFF1A           BNE      ??event_callback_15
   \   00000120   0120A0E3           MOV      R2,#+1
   \   00000124   073004E2           AND      R3,R4,#0x7
   \   00000128   1223A0E1           LSL      R2,R2,R3
   \   0000012C   FA30D6E1           LDRSH    R3,[R6, #+10]
   \   00000130   4411A0E1           ASR      R1,R4,#+2
   \   00000134   A11E84E0           ADD      R1,R4,R1, LSR #+29
   \   00000138   C111A0E1           ASR      R1,R1,#+3
   \   0000013C   010053E3           CMP      R3,#+1
   \   00000140   040000BA           BLT      ??event_callback_17
   \   00000144   083099E5           LDR      R3,[R9, #+8]
   \   00000148   000053E3           CMP      R3,#+0
   \   0000014C   0330D117           LDRBNE   R3,[R1, +R3]
   \   00000150   03001211           TSTNE    R2,R3
   \   00000154   0100A013           MOVNE    R0,#+1
   \                     ??event_callback_17:
   \   00000158   BC30D6E1           LDRH     R3,[R6, #+12]
   \   0000015C   000053E3           CMP      R3,#+0
   \   00000160   0600000A           BEQ      ??event_callback_18
   \   00000164   000050E3           CMP      R0,#+0
   \   00000168   0400001A           BNE      ??event_callback_18
   \   0000016C   0C3099E5           LDR      R3,[R9, #+12]
   \   00000170   000053E3           CMP      R3,#+0
   \   00000174   0330D117           LDRBNE   R3,[R1, +R3]
   \   00000178   03001211           TSTNE    R2,R3
   \   0000017C   0100A013           MOVNE    R0,#+1
   \                     ??event_callback_18:
   \   00000180   BE30D6E1           LDRH     R3,[R6, #+14]
   \   00000184   000053E3           CMP      R3,#+0
   \   00000188   D1FFFF0A           BEQ      ??event_callback_14
   \   0000018C   000050E3           CMP      R0,#+0
   \   00000190   CFFFFF1A           BNE      ??event_callback_14
   \   00000194   100099E5           LDR      R0,[R9, #+16]
   \   00000198   000050E3           CMP      R0,#+0
   \   0000019C   D1FFFF0A           BEQ      ??event_callback_15
   \   000001A0   0000D1E7           LDRB     R0,[R1, +R0]
   \   000001A4   000012E1           TST      R2,R0
   \   000001A8   CBFFFF1A           BNE      ??event_callback_16
   \   000001AC   CDFFFFEA           B        ??event_callback_15
   \                     ??event_callback_11:
   \   000001B0   ........           DC32     sockets
   1361                /* someone has changed select_cb_list, restart at the beginning */
   1362                goto again;
   1363              }
   1364            }
   1365            SYS_ARCH_UNPROTECT(lev);
   1366          }
   1367          
   1368          /**
   1369           * Unimplemented: Close one end of a full-duplex connection.
   1370           * Currently, the full connection is closed.
   1371           */

   \                                 In segment CODE, align 4, keep-with-next
   1372          int
   1373          lwip_shutdown(int s, int how)
   1374          {
   \                     lwip_shutdown:
   \   00000000   F0402DE9           PUSH     {R4-R7,LR}
   \   00000004   0150A0E1           MOV      R5,R1
   1375            struct lwip_sock *sock;
   1376            err_t err;
   1377            u8_t shut_rx = 0, shut_tx = 0;
   \   00000008   0060A0E3           MOV      R6,#+0
   \   0000000C   0070A0E3           MOV      R7,#+0
   1378          
   1379            LWIP_DEBUGF(SOCKETS_DEBUG, ("lwip_shutdown(%d, how=%d)\n", s, how));
   1380          
   1381            sock = get_socket(s);
   \   00000010   ........           BL       get_socket
   \   00000014   0040B0E1           MOVS     R4,R0
   1382            if (!sock) {
   1383              return -1;
   \   00000018   0600E001           MVNEQ    R0,R6
   \   0000001C   1600000A           BEQ      ??lwip_shutdown_0
   1384            }
   1385          
   1386            if (sock->conn != NULL) {
   \   00000020   000094E5           LDR      R0,[R4, #+0]
   \   00000024   000050E3           CMP      R0,#+0
   \   00000028   1100000A           BEQ      ??lwip_shutdown_1
   1387              if (netconn_type(sock->conn) != NETCONN_TCP) {
   \   0000002C   0010D0E5           LDRB     R1,[R0, #+0]
   \   00000030   100051E3           CMP      R1,#+16
   \   00000034   0100000A           BEQ      ??lwip_shutdown_2
   1388                sock_set_errno(sock, EOPNOTSUPP);
   \   00000038   5F00A0E3           MOV      R0,#+95
   \   0000003C   0D0000EA           B        ??lwip_shutdown_3
   1389                return EOPNOTSUPP;
   1390              }
   1391            } else {
   1392              sock_set_errno(sock, ENOTCONN);
   1393              return ENOTCONN;
   1394            }
   1395          
   1396            if (how == SHUT_RD) {
   \                     ??lwip_shutdown_2:
   \   00000040   000055E3           CMP      R5,#+0
   \   00000044   0E00001A           BNE      ??lwip_shutdown_4
   1397              shut_rx = 1;
   \   00000048   0170A0E3           MOV      R7,#+1
   1398            } else if (how == SHUT_WR) {
   1399              shut_tx = 1;
   1400            } else if(how == SHUT_RDWR) {
   1401              shut_rx = 1;
   1402              shut_tx = 1;
   1403            } else {
   1404              sock_set_errno(sock, EINVAL);
   1405              return EINVAL;
   1406            }
   1407            err = netconn_shutdown(sock->conn, shut_rx, shut_tx);
   \                     ??lwip_shutdown_5:
   \   0000004C   0620A0E1           MOV      R2,R6
   \   00000050   0710A0E1           MOV      R1,R7
   \   00000054   ........           _BLF     netconn_shutdown,??netconn_shutdown??rA
   1408          
   1409            sock_set_errno(sock, err_to_errno(err));
   \   00000058   0010A0E1           MOV      R1,R0
   \   0000005C   001061E2           RSB      R1,R1,#+0
   \   00000060   100051E3           CMP      R1,#+16
   \   00000064   ........           LDRCC    R2,??DataTable13  ;; err_to_errno_table
   \   00000068   0510A023           MOVCS    R1,#+5
   \   0000006C   01119237           LDRCC    R1,[R2, +R1, LSL #+2]
   \   00000070   0C0000EA           B        ??lwip_shutdown_6
   \                     ??lwip_shutdown_1:
   \   00000074   6B00A0E3           MOV      R0,#+107
   \                     ??lwip_shutdown_3:
   \   00000078   100084E5           STR      R0,[R4, #+16]
   \                     ??lwip_shutdown_0:
   \   0000007C   F040BDE8           POP      {R4-R7,LR}
   \   00000080   1EFF2FE1           BX       LR
   \                     ??lwip_shutdown_4:
   \   00000084   010055E3           CMP      R5,#+1
   \   00000088   0160A003           MOVEQ    R6,#+1
   \   0000008C   EEFFFF0A           BEQ      ??lwip_shutdown_5
   \   00000090   020055E3           CMP      R5,#+2
   \   00000094   0170A003           MOVEQ    R7,#+1
   \   00000098   0160A003           MOVEQ    R6,#+1
   \   0000009C   EAFFFF0A           BEQ      ??lwip_shutdown_5
   \   000000A0   1600A0E3           MOV      R0,#+22
   \   000000A4   F3FFFFEA           B        ??lwip_shutdown_3
   \                     ??lwip_shutdown_6:
   \   000000A8   101084E5           STR      R1,[R4, #+16]
   1410            return (err == ERR_OK ? 0 : -1);
   \   000000AC   000050E3           CMP      R0,#+0
   \   000000B0   0000E013           MVNNE    R0,#+0
   \                     ??lwip_shutdown_7:
   \   000000B4   F0FFFFEA           B        ??lwip_shutdown_0
   1411          }
   1412          
   1413          static int
   1414          lwip_getaddrname(int s, struct sockaddr *name, socklen_t *namelen, u8_t local)
   1415          {
   1416            struct lwip_sock *sock;
   1417            struct sockaddr_in sin;
   1418            ip_addr_t naddr;
   1419          
   1420            sock = get_socket(s);
   1421            if (!sock) {
   1422              return -1;
   1423            }
   1424          
   1425            memset(&sin, 0, sizeof(sin));
   1426            sin.sin_len = sizeof(sin);
   1427            sin.sin_family = AF_INET;
   1428          
   1429            /* get the IP address and port */
   1430            netconn_getaddr(sock->conn, &naddr, &sin.sin_port, local);
   1431          
   1432            LWIP_DEBUGF(SOCKETS_DEBUG, ("lwip_getaddrname(%d, addr=", s));
   1433            ip_addr_debug_print(SOCKETS_DEBUG, &naddr);
   1434            LWIP_DEBUGF(SOCKETS_DEBUG, (" port=%"U16_F")\n", sin.sin_port));
   1435          
   1436            sin.sin_port = htons(sin.sin_port);
   1437            inet_addr_from_ipaddr(&sin.sin_addr, &naddr);
   1438          
   1439            if (*namelen > sizeof(sin)) {
   1440              *namelen = sizeof(sin);
   1441            }
   1442          
   1443            MEMCPY(name, &sin, *namelen);
   1444            sock_set_errno(sock, 0);
   1445            return 0;
   1446          }
   1447          

   \                                 In segment CODE, align 4, keep-with-next
   1448          int
   1449          lwip_getpeername(int s, struct sockaddr *name, socklen_t *namelen)
   1450          {
   \                     lwip_getpeername:
   \   00000000   F0402DE9           PUSH     {R4-R7,LR}
   \   00000004   14D04DE2           SUB      SP,SP,#+20
   \   00000008   0140A0E1           MOV      R4,R1
   \   0000000C   0250A0E1           MOV      R5,R2
   1451            return lwip_getaddrname(s, name, namelen, 0);
   \   00000010   ........           BL       get_socket
   \   00000014   0060B0E1           MOVS     R6,R0
   \   00000018   0000E003           MVNEQ    R0,#+0
   \   0000001C   1A00000A           BEQ      ??lwip_getpeername_0
   \   00000020   1020A0E3           MOV      R2,#+16
   \   00000024   0010A0E3           MOV      R1,#+0
   \   00000028   04008DE2           ADD      R0,SP,#+4
   \   0000002C   ........           _BLF     memset,??memset??rA
   \   00000030   1070A0E3           MOV      R7,#+16
   \   00000034   0470CDE5           STRB     R7,[SP, #+4]
   \   00000038   0210A0E3           MOV      R1,#+2
   \   0000003C   0510CDE5           STRB     R1,[SP, #+5]
   \   00000040   000096E5           LDR      R0,[R6, #+0]
   \   00000044   0030A0E3           MOV      R3,#+0
   \   00000048   06208DE2           ADD      R2,SP,#+6
   \   0000004C   0D10A0E1           MOV      R1,SP
   \   00000050   ........           _BLF     netconn_getaddr,??netconn_getaddr??rA
   \   00000054   B600DDE1           LDRH     R0,[SP, #+6]
   \   00000058   ........           _BLF     lwip_htons,??lwip_htons??rA
   \   0000005C   B600CDE1           STRH     R0,[SP, #+6]
   \   00000060   00109DE5           LDR      R1,[SP, #+0]
   \   00000064   08108DE5           STR      R1,[SP, #+8]
   \   00000068   000095E5           LDR      R0,[R5, #+0]
   \   0000006C   04108DE2           ADD      R1,SP,#+4
   \   00000070   110050E3           CMP      R0,#+17
   \   00000074   00708525           STRCS    R7,[R5, #+0]
   \   00000078   002095E5           LDR      R2,[R5, #+0]
   \   0000007C   0400A0E1           MOV      R0,R4
   \   00000080   ........           _BLF     memcpy,??memcpy??rA
   \   00000084   0000A0E3           MOV      R0,#+0
   \   00000088   100086E5           STR      R0,[R6, #+16]
   \                     ??lwip_getpeername_0:
   \   0000008C   14D08DE2           ADD      SP,SP,#+20
   \   00000090   F040BDE8           POP      {R4-R7,LR}
   \   00000094   1EFF2FE1           BX       LR               ;; return
   1452          }
   1453          

   \                                 In segment CODE, align 4, keep-with-next
   1454          int
   1455          lwip_getsockname(int s, struct sockaddr *name, socklen_t *namelen)
   1456          {
   \                     lwip_getsockname:
   \   00000000   F0402DE9           PUSH     {R4-R7,LR}
   \   00000004   14D04DE2           SUB      SP,SP,#+20
   \   00000008   0140A0E1           MOV      R4,R1
   \   0000000C   0250A0E1           MOV      R5,R2
   1457            return lwip_getaddrname(s, name, namelen, 1);
   \   00000010   ........           BL       get_socket
   \   00000014   0060B0E1           MOVS     R6,R0
   \   00000018   0000E003           MVNEQ    R0,#+0
   \   0000001C   1A00000A           BEQ      ??lwip_getsockname_0
   \   00000020   1020A0E3           MOV      R2,#+16
   \   00000024   0010A0E3           MOV      R1,#+0
   \   00000028   04008DE2           ADD      R0,SP,#+4
   \   0000002C   ........           _BLF     memset,??memset??rA
   \   00000030   1070A0E3           MOV      R7,#+16
   \   00000034   0470CDE5           STRB     R7,[SP, #+4]
   \   00000038   0210A0E3           MOV      R1,#+2
   \   0000003C   0510CDE5           STRB     R1,[SP, #+5]
   \   00000040   000096E5           LDR      R0,[R6, #+0]
   \   00000044   0130A0E3           MOV      R3,#+1
   \   00000048   06208DE2           ADD      R2,SP,#+6
   \   0000004C   0D10A0E1           MOV      R1,SP
   \   00000050   ........           _BLF     netconn_getaddr,??netconn_getaddr??rA
   \   00000054   B600DDE1           LDRH     R0,[SP, #+6]
   \   00000058   ........           _BLF     lwip_htons,??lwip_htons??rA
   \   0000005C   B600CDE1           STRH     R0,[SP, #+6]
   \   00000060   00109DE5           LDR      R1,[SP, #+0]
   \   00000064   08108DE5           STR      R1,[SP, #+8]
   \   00000068   000095E5           LDR      R0,[R5, #+0]
   \   0000006C   04108DE2           ADD      R1,SP,#+4
   \   00000070   110050E3           CMP      R0,#+17
   \   00000074   00708525           STRCS    R7,[R5, #+0]
   \   00000078   002095E5           LDR      R2,[R5, #+0]
   \   0000007C   0400A0E1           MOV      R0,R4
   \   00000080   ........           _BLF     memcpy,??memcpy??rA
   \   00000084   0000A0E3           MOV      R0,#+0
   \   00000088   100086E5           STR      R0,[R6, #+16]
   \                     ??lwip_getsockname_0:
   \   0000008C   14D08DE2           ADD      SP,SP,#+20
   \   00000090   F040BDE8           POP      {R4-R7,LR}
   \   00000094   1EFF2FE1           BX       LR               ;; return
   1458          }
   1459          

   \                                 In segment CODE, align 4, keep-with-next
   1460          int
   1461          lwip_getsockopt(int s, int level, int optname, void *optval, socklen_t *optlen)
   1462          {
   \                     lwip_getsockopt:
   \   00000000   F0472DE9           PUSH     {R4-R10,LR}
   \   00000004   18D04DE2           SUB      SP,SP,#+24
   \   00000008   38709DE5           LDR      R7,[SP, #+56]
   \   0000000C   0140A0E1           MOV      R4,R1
   \   00000010   0250A0E1           MOV      R5,R2
   \   00000014   0360A0E1           MOV      R6,R3
   1463            err_t err = ERR_OK;
   \   00000018   0080A0E3           MOV      R8,#+0
   \   0000001C   0090A0E3           MOV      R9,#+0
   1464            struct lwip_sock *sock = get_socket(s);
   \   00000020   ........           BL       get_socket
   \   00000024   00A0B0E1           MOVS     R10,R0
   1465            struct lwip_setgetsockopt_data data;
   1466          
   1467            if (!sock) {
   \   00000028   0100001A           BNE      ??lwip_getsockopt_1
   1468              return -1;
   \                     ??lwip_getsockopt_2:
   \   0000002C   0800E0E1           MVN      R0,R8
   \   00000030   510800EA           B        ??lwip_getsockopt_3
   1469            }
   1470          
   1471            if ((NULL == optval) || (NULL == optlen)) {
   \                     ??lwip_getsockopt_1:
   \   00000034   000056E3           CMP      R6,#+0
   \   00000038   00005713           CMPNE    R7,#+0
   1472              sock_set_errno(sock, EFAULT);
   \   0000003C   0E00A003           MOVEQ    R0,#+14
   \   00000040   10008A05           STREQ    R0,[R10, #+16]
   1473              return -1;
   \   00000044   F8FFFF0A           BEQ      ??lwip_getsockopt_2
   1474            }
   1475          
   1476            /* Do length and type checks for the various options first, to keep it readable. */
   1477            switch (level) {
   \   00000048   00009AE5           LDR      R0,[R10, #+0]
   \   0000004C   001097E5           LDR      R1,[R7, #+0]
   \   00000050   0420B0E1           MOVS     R2,R4
   \   00000054   2308000A           BEQ      ??lwip_getsockopt_4
   \   00000058   060054E3           CMP      R4,#+6
   \   0000005C   2508000A           BEQ      ??lwip_getsockopt_5
   \   00000060   FF30A0E3           MOV      R3,#+255
   \   00000064   F03E83E3           ORR      R3,R3,#0xF00
   \   00000068   030054E1           CMP      R4,R3
   \   0000006C   1B08001A           BNE      ??lwip_getsockopt_6
   1478             
   1479          /* Level: SOL_SOCKET */
   1480            case SOL_SOCKET:
   1481              switch (optname) {
   \   00000070   022045E2           SUB      R2,R5,#+2
   \   00000074   093083E2           ADD      R3,R3,#+9
   \   00000078   030052E1           CMP      R2,R3
   \   0000007C   1708008A           BHI      ??lwip_getsockopt_6
   \   00000080   023F8FE2           ADR      R3,??lwip_getsockopt_0
   \   00000084   8220A0E1           MOV      R2,R2, LSL #+1
   \   00000088   B23093E1           LDRH     R3,[R3, R2]
   \   0000008C   03F18FE0           ADD      PC,PC,R3, LSL #+2
   \                     ??lwip_getsockopt_0:
   \   00000090   040813080408       DC16     +2052,+2067,+2052,+2067
   \              1308        
   \   00000098   130813080408       DC16     +2067,+2067,+2052,+2067
   \              1308        
   \   000000A0   130813081308       DC16     +2067,+2067,+2067,+2067
   \              1308        
   \   000000A8   130813081308       DC16     +2067,+2067,+2067,+2067
   \              1308        
   \   000000B0   130813081308       DC16     +2067,+2067,+2067,+2067
   \              1308        
   \   000000B8   130813081308       DC16     +2067,+2067,+2067,+2067
   \              1308        
   \   000000C0   130813081308       DC16     +2067,+2067,+2067,+2067
   \              1308        
   \   000000C8   130813080408       DC16     +2067,+2067,+2052,+2067
   \              1308        
   \   000000D0   130813081308       DC16     +2067,+2067,+2067,+2067
   \              1308        
   \   000000D8   130813081308       DC16     +2067,+2067,+2067,+2067
   \              1308        
   \   000000E0   130813081308       DC16     +2067,+2067,+2067,+2067
   \              1308        
   \   000000E8   130813081308       DC16     +2067,+2067,+2067,+2067
   \              1308        
   \   000000F0   130813081308       DC16     +2067,+2067,+2067,+2067
   \              1308        
   \   000000F8   130813081308       DC16     +2067,+2067,+2067,+2067
   \              1308        
   \   00000100   130813081308       DC16     +2067,+2067,+2067,+2067
   \              1308        
   \   00000108   130813081308       DC16     +2067,+2067,+2067,+2067
   \              1308        
   \   00000110   130813081308       DC16     +2067,+2067,+2067,+2067
   \              1308        
   \   00000118   130813081308       DC16     +2067,+2067,+2067,+2067
   \              1308        
   \   00000120   130813081308       DC16     +2067,+2067,+2067,+2067
   \              1308        
   \   00000128   130813081308       DC16     +2067,+2067,+2067,+2067
   \              1308        
   \   00000130   130813081308       DC16     +2067,+2067,+2067,+2067
   \              1308        
   \   00000138   130813081308       DC16     +2067,+2067,+2067,+2067
   \              1308        
   \   00000140   130813081308       DC16     +2067,+2067,+2067,+2067
   \              1308        
   \   00000148   130813081308       DC16     +2067,+2067,+2067,+2067
   \              1308        
   \   00000150   130813081308       DC16     +2067,+2067,+2067,+2067
   \              1308        
   \   00000158   130813081308       DC16     +2067,+2067,+2067,+2067
   \              1308        
   \   00000160   130813081308       DC16     +2067,+2067,+2067,+2067
   \              1308        
   \   00000168   130813081308       DC16     +2067,+2067,+2067,+2067
   \              1308        
   \   00000170   130813081308       DC16     +2067,+2067,+2067,+2067
   \              1308        
   \   00000178   130813081308       DC16     +2067,+2067,+2067,+2067
   \              1308        
   \   00000180   130813081308       DC16     +2067,+2067,+2067,+2067
   \              1308        
   \   00000188   130813081308       DC16     +2067,+2067,+2067,+2067
   \              1308        
   \   00000190   130813081308       DC16     +2067,+2067,+2067,+2067
   \              1308        
   \   00000198   130813081308       DC16     +2067,+2067,+2067,+2067
   \              1308        
   \   000001A0   130813081308       DC16     +2067,+2067,+2067,+2067
   \              1308        
   \   000001A8   130813081308       DC16     +2067,+2067,+2067,+2067
   \              1308        
   \   000001B0   130813081308       DC16     +2067,+2067,+2067,+2067
   \              1308        
   \   000001B8   130813081308       DC16     +2067,+2067,+2067,+2067
   \              1308        
   \   000001C0   130813081308       DC16     +2067,+2067,+2067,+2067
   \              1308        
   \   000001C8   130813081308       DC16     +2067,+2067,+2067,+2067
   \              1308        
   \   000001D0   130813081308       DC16     +2067,+2067,+2067,+2067
   \              1308        
   \   000001D8   130813081308       DC16     +2067,+2067,+2067,+2067
   \              1308        
   \   000001E0   130813081308       DC16     +2067,+2067,+2067,+2067
   \              1308        
   \   000001E8   130813081308       DC16     +2067,+2067,+2067,+2067
   \              1308        
   \   000001F0   130813081308       DC16     +2067,+2067,+2067,+2067
   \              1308        
   \   000001F8   130813081308       DC16     +2067,+2067,+2067,+2067
   \              1308        
   \   00000200   130813081308       DC16     +2067,+2067,+2067,+2067
   \              1308        
   \   00000208   130813081308       DC16     +2067,+2067,+2067,+2067
   \              1308        
   \   00000210   130813081308       DC16     +2067,+2067,+2067,+2067
   \              1308        
   \   00000218   130813081308       DC16     +2067,+2067,+2067,+2067
   \              1308        
   \   00000220   130813081308       DC16     +2067,+2067,+2067,+2067
   \              1308        
   \   00000228   130813081308       DC16     +2067,+2067,+2067,+2067
   \              1308        
   \   00000230   130813081308       DC16     +2067,+2067,+2067,+2067
   \              1308        
   \   00000238   130813081308       DC16     +2067,+2067,+2067,+2067
   \              1308        
   \   00000240   130813081308       DC16     +2067,+2067,+2067,+2067
   \              1308        
   \   00000248   130813081308       DC16     +2067,+2067,+2067,+2067
   \              1308        
   \   00000250   130813081308       DC16     +2067,+2067,+2067,+2067
   \              1308        
   \   00000258   130813081308       DC16     +2067,+2067,+2067,+2067
   \              1308        
   \   00000260   130813081308       DC16     +2067,+2067,+2067,+2067
   \              1308        
   \   00000268   130813081308       DC16     +2067,+2067,+2067,+2067
   \              1308        
   \   00000270   130813081308       DC16     +2067,+2067,+2067,+2067
   \              1308        
   \   00000278   130813081308       DC16     +2067,+2067,+2067,+2067
   \              1308        
   \   00000280   130813081308       DC16     +2067,+2067,+2067,+2067
   \              1308        
   \   00000288   130813081308       DC16     +2067,+2067,+2067,+2067
   \              1308        
   \   00000290   130813081308       DC16     +2067,+2067,+2067,+2067
   \              1308        
   \   00000298   130813081308       DC16     +2067,+2067,+2067,+2067
   \              1308        
   \   000002A0   130813081308       DC16     +2067,+2067,+2067,+2067
   \              1308        
   \   000002A8   130813081308       DC16     +2067,+2067,+2067,+2067
   \              1308        
   \   000002B0   130813081308       DC16     +2067,+2067,+2067,+2067
   \              1308        
   \   000002B8   130813081308       DC16     +2067,+2067,+2067,+2067
   \              1308        
   \   000002C0   130813081308       DC16     +2067,+2067,+2067,+2067
   \              1308        
   \   000002C8   130813081308       DC16     +2067,+2067,+2067,+2067
   \              1308        
   \   000002D0   130813081308       DC16     +2067,+2067,+2067,+2067
   \              1308        
   \   000002D8   130813081308       DC16     +2067,+2067,+2067,+2067
   \              1308        
   \   000002E0   130813081308       DC16     +2067,+2067,+2067,+2067
   \              1308        
   \   000002E8   130813081308       DC16     +2067,+2067,+2067,+2067
   \              1308        
   \   000002F0   130813081308       DC16     +2067,+2067,+2067,+2067
   \              1308        
   \   000002F8   130813081308       DC16     +2067,+2067,+2067,+2067
   \              1308        
   \   00000300   130813081308       DC16     +2067,+2067,+2067,+2067
   \              1308        
   \   00000308   130813081308       DC16     +2067,+2067,+2067,+2067
   \              1308        
   \   00000310   130813081308       DC16     +2067,+2067,+2067,+2067
   \              1308        
   \   00000318   130813081308       DC16     +2067,+2067,+2067,+2067
   \              1308        
   \   00000320   130813081308       DC16     +2067,+2067,+2067,+2067
   \              1308        
   \   00000328   130813081308       DC16     +2067,+2067,+2067,+2067
   \              1308        
   \   00000330   130813081308       DC16     +2067,+2067,+2067,+2067
   \              1308        
   \   00000338   130813081308       DC16     +2067,+2067,+2067,+2067
   \              1308        
   \   00000340   130813081308       DC16     +2067,+2067,+2067,+2067
   \              1308        
   \   00000348   130813081308       DC16     +2067,+2067,+2067,+2067
   \              1308        
   \   00000350   130813081308       DC16     +2067,+2067,+2067,+2067
   \              1308        
   \   00000358   130813081308       DC16     +2067,+2067,+2067,+2067
   \              1308        
   \   00000360   130813081308       DC16     +2067,+2067,+2067,+2067
   \              1308        
   \   00000368   130813081308       DC16     +2067,+2067,+2067,+2067
   \              1308        
   \   00000370   130813081308       DC16     +2067,+2067,+2067,+2067
   \              1308        
   \   00000378   130813081308       DC16     +2067,+2067,+2067,+2067
   \              1308        
   \   00000380   130813081308       DC16     +2067,+2067,+2067,+2067
   \              1308        
   \   00000388   130813081308       DC16     +2067,+2067,+2067,+2067
   \              1308        
   \   00000390   130813081308       DC16     +2067,+2067,+2067,+2067
   \              1308        
   \   00000398   130813081308       DC16     +2067,+2067,+2067,+2067
   \              1308        
   \   000003A0   130813081308       DC16     +2067,+2067,+2067,+2067
   \              1308        
   \   000003A8   130813081308       DC16     +2067,+2067,+2067,+2067
   \              1308        
   \   000003B0   130813081308       DC16     +2067,+2067,+2067,+2067
   \              1308        
   \   000003B8   130813081308       DC16     +2067,+2067,+2067,+2067
   \              1308        
   \   000003C0   130813081308       DC16     +2067,+2067,+2067,+2067
   \              1308        
   \   000003C8   130813081308       DC16     +2067,+2067,+2067,+2067
   \              1308        
   \   000003D0   130813081308       DC16     +2067,+2067,+2067,+2067
   \              1308        
   \   000003D8   130813081308       DC16     +2067,+2067,+2067,+2067
   \              1308        
   \   000003E0   130813081308       DC16     +2067,+2067,+2067,+2067
   \              1308        
   \   000003E8   130813081308       DC16     +2067,+2067,+2067,+2067
   \              1308        
   \   000003F0   130813081308       DC16     +2067,+2067,+2067,+2067
   \              1308        
   \   000003F8   130813081308       DC16     +2067,+2067,+2067,+2067
   \              1308        
   \   00000400   130813081308       DC16     +2067,+2067,+2067,+2067
   \              1308        
   \   00000408   130813081308       DC16     +2067,+2067,+2067,+2067
   \              1308        
   \   00000410   130813081308       DC16     +2067,+2067,+2067,+2067
   \              1308        
   \   00000418   130813081308       DC16     +2067,+2067,+2067,+2067
   \              1308        
   \   00000420   130813081308       DC16     +2067,+2067,+2067,+2067
   \              1308        
   \   00000428   130813081308       DC16     +2067,+2067,+2067,+2067
   \              1308        
   \   00000430   130813081308       DC16     +2067,+2067,+2067,+2067
   \              1308        
   \   00000438   130813081308       DC16     +2067,+2067,+2067,+2067
   \              1308        
   \   00000440   130813081308       DC16     +2067,+2067,+2067,+2067
   \              1308        
   \   00000448   130813081308       DC16     +2067,+2067,+2067,+2067
   \              1308        
   \   00000450   130813081308       DC16     +2067,+2067,+2067,+2067
   \              1308        
   \   00000458   130813081308       DC16     +2067,+2067,+2067,+2067
   \              1308        
   \   00000460   130813081308       DC16     +2067,+2067,+2067,+2067
   \              1308        
   \   00000468   130813081308       DC16     +2067,+2067,+2067,+2067
   \              1308        
   \   00000470   130813081308       DC16     +2067,+2067,+2067,+2067
   \              1308        
   \   00000478   130813081308       DC16     +2067,+2067,+2067,+2067
   \              1308        
   \   00000480   130813081308       DC16     +2067,+2067,+2067,+2067
   \              1308        
   \   00000488   130813080408       DC16     +2067,+2067,+2052,+2067
   \              1308        
   \   00000490   130813081308       DC16     +2067,+2067,+2067,+2067
   \              1308        
   \   00000498   130813081308       DC16     +2067,+2067,+2067,+2067
   \              1308        
   \   000004A0   130813081308       DC16     +2067,+2067,+2067,+2067
   \              1308        
   \   000004A8   130813081308       DC16     +2067,+2067,+2067,+2067
   \              1308        
   \   000004B0   130813081308       DC16     +2067,+2067,+2067,+2067
   \              1308        
   \   000004B8   130813081308       DC16     +2067,+2067,+2067,+2067
   \              1308        
   \   000004C0   130813081308       DC16     +2067,+2067,+2067,+2067
   \              1308        
   \   000004C8   130813081308       DC16     +2067,+2067,+2067,+2067
   \              1308        
   \   000004D0   130813081308       DC16     +2067,+2067,+2067,+2067
   \              1308        
   \   000004D8   130813081308       DC16     +2067,+2067,+2067,+2067
   \              1308        
   \   000004E0   130813081308       DC16     +2067,+2067,+2067,+2067
   \              1308        
   \   000004E8   130813081308       DC16     +2067,+2067,+2067,+2067
   \              1308        
   \   000004F0   130813081308       DC16     +2067,+2067,+2067,+2067
   \              1308        
   \   000004F8   130813081308       DC16     +2067,+2067,+2067,+2067
   \              1308        
   \   00000500   130813081308       DC16     +2067,+2067,+2067,+2067
   \              1308        
   \   00000508   130813081308       DC16     +2067,+2067,+2067,+2067
   \              1308        
   \   00000510   130813081308       DC16     +2067,+2067,+2067,+2067
   \              1308        
   \   00000518   130813081308       DC16     +2067,+2067,+2067,+2067
   \              1308        
   \   00000520   130813081308       DC16     +2067,+2067,+2067,+2067
   \              1308        
   \   00000528   130813081308       DC16     +2067,+2067,+2067,+2067
   \              1308        
   \   00000530   130813081308       DC16     +2067,+2067,+2067,+2067
   \              1308        
   \   00000538   130813081308       DC16     +2067,+2067,+2067,+2067
   \              1308        
   \   00000540   130813081308       DC16     +2067,+2067,+2067,+2067
   \              1308        
   \   00000548   130813081308       DC16     +2067,+2067,+2067,+2067
   \              1308        
   \   00000550   130813081308       DC16     +2067,+2067,+2067,+2067
   \              1308        
   \   00000558   130813081308       DC16     +2067,+2067,+2067,+2067
   \              1308        
   \   00000560   130813081308       DC16     +2067,+2067,+2067,+2067
   \              1308        
   \   00000568   130813081308       DC16     +2067,+2067,+2067,+2067
   \              1308        
   \   00000570   130813081308       DC16     +2067,+2067,+2067,+2067
   \              1308        
   \   00000578   130813081308       DC16     +2067,+2067,+2067,+2067
   \              1308        
   \   00000580   130813081308       DC16     +2067,+2067,+2067,+2067
   \              1308        
   \   00000588   130813081308       DC16     +2067,+2067,+2067,+2067
   \              1308        
   \   00000590   130813081308       DC16     +2067,+2067,+2067,+2067
   \              1308        
   \   00000598   130813081308       DC16     +2067,+2067,+2067,+2067
   \              1308        
   \   000005A0   130813081308       DC16     +2067,+2067,+2067,+2067
   \              1308        
   \   000005A8   130813081308       DC16     +2067,+2067,+2067,+2067
   \              1308        
   \   000005B0   130813081308       DC16     +2067,+2067,+2067,+2067
   \              1308        
   \   000005B8   130813081308       DC16     +2067,+2067,+2067,+2067
   \              1308        
   \   000005C0   130813081308       DC16     +2067,+2067,+2067,+2067
   \              1308        
   \   000005C8   130813081308       DC16     +2067,+2067,+2067,+2067
   \              1308        
   \   000005D0   130813081308       DC16     +2067,+2067,+2067,+2067
   \              1308        
   \   000005D8   130813081308       DC16     +2067,+2067,+2067,+2067
   \              1308        
   \   000005E0   130813081308       DC16     +2067,+2067,+2067,+2067
   \              1308        
   \   000005E8   130813081308       DC16     +2067,+2067,+2067,+2067
   \              1308        
   \   000005F0   130813081308       DC16     +2067,+2067,+2067,+2067
   \              1308        
   \   000005F8   130813081308       DC16     +2067,+2067,+2067,+2067
   \              1308        
   \   00000600   130813081308       DC16     +2067,+2067,+2067,+2067
   \              1308        
   \   00000608   130813081308       DC16     +2067,+2067,+2067,+2067
   \              1308        
   \   00000610   130813081308       DC16     +2067,+2067,+2067,+2067
   \              1308        
   \   00000618   130813081308       DC16     +2067,+2067,+2067,+2067
   \              1308        
   \   00000620   130813081308       DC16     +2067,+2067,+2067,+2067
   \              1308        
   \   00000628   130813081308       DC16     +2067,+2067,+2067,+2067
   \              1308        
   \   00000630   130813081308       DC16     +2067,+2067,+2067,+2067
   \              1308        
   \   00000638   130813081308       DC16     +2067,+2067,+2067,+2067
   \              1308        
   \   00000640   130813081308       DC16     +2067,+2067,+2067,+2067
   \              1308        
   \   00000648   130813081308       DC16     +2067,+2067,+2067,+2067
   \              1308        
   \   00000650   130813081308       DC16     +2067,+2067,+2067,+2067
   \              1308        
   \   00000658   130813081308       DC16     +2067,+2067,+2067,+2067
   \              1308        
   \   00000660   130813081308       DC16     +2067,+2067,+2067,+2067
   \              1308        
   \   00000668   130813081308       DC16     +2067,+2067,+2067,+2067
   \              1308        
   \   00000670   130813081308       DC16     +2067,+2067,+2067,+2067
   \              1308        
   \   00000678   130813081308       DC16     +2067,+2067,+2067,+2067
   \              1308        
   \   00000680   130813081308       DC16     +2067,+2067,+2067,+2067
   \              1308        
   \   00000688   130813081308       DC16     +2067,+2067,+2067,+2067
   \              1308        
   \   00000690   130813081308       DC16     +2067,+2067,+2067,+2067
   \              1308        
   \   00000698   130813081308       DC16     +2067,+2067,+2067,+2067
   \              1308        
   \   000006A0   130813081308       DC16     +2067,+2067,+2067,+2067
   \              1308        
   \   000006A8   130813081308       DC16     +2067,+2067,+2067,+2067
   \              1308        
   \   000006B0   130813081308       DC16     +2067,+2067,+2067,+2067
   \              1308        
   \   000006B8   130813081308       DC16     +2067,+2067,+2067,+2067
   \              1308        
   \   000006C0   130813081308       DC16     +2067,+2067,+2067,+2067
   \              1308        
   \   000006C8   130813081308       DC16     +2067,+2067,+2067,+2067
   \              1308        
   \   000006D0   130813081308       DC16     +2067,+2067,+2067,+2067
   \              1308        
   \   000006D8   130813081308       DC16     +2067,+2067,+2067,+2067
   \              1308        
   \   000006E0   130813081308       DC16     +2067,+2067,+2067,+2067
   \              1308        
   \   000006E8   130813081308       DC16     +2067,+2067,+2067,+2067
   \              1308        
   \   000006F0   130813081308       DC16     +2067,+2067,+2067,+2067
   \              1308        
   \   000006F8   130813081308       DC16     +2067,+2067,+2067,+2067
   \              1308        
   \   00000700   130813081308       DC16     +2067,+2067,+2067,+2067
   \              1308        
   \   00000708   130813081308       DC16     +2067,+2067,+2067,+2067
   \              1308        
   \   00000710   130813081308       DC16     +2067,+2067,+2067,+2067
   \              1308        
   \   00000718   130813081308       DC16     +2067,+2067,+2067,+2067
   \              1308        
   \   00000720   130813081308       DC16     +2067,+2067,+2067,+2067
   \              1308        
   \   00000728   130813081308       DC16     +2067,+2067,+2067,+2067
   \              1308        
   \   00000730   130813081308       DC16     +2067,+2067,+2067,+2067
   \              1308        
   \   00000738   130813081308       DC16     +2067,+2067,+2067,+2067
   \              1308        
   \   00000740   130813081308       DC16     +2067,+2067,+2067,+2067
   \              1308        
   \   00000748   130813081308       DC16     +2067,+2067,+2067,+2067
   \              1308        
   \   00000750   130813081308       DC16     +2067,+2067,+2067,+2067
   \              1308        
   \   00000758   130813081308       DC16     +2067,+2067,+2067,+2067
   \              1308        
   \   00000760   130813081308       DC16     +2067,+2067,+2067,+2067
   \              1308        
   \   00000768   130813081308       DC16     +2067,+2067,+2067,+2067
   \              1308        
   \   00000770   130813081308       DC16     +2067,+2067,+2067,+2067
   \              1308        
   \   00000778   130813081308       DC16     +2067,+2067,+2067,+2067
   \              1308        
   \   00000780   130813081308       DC16     +2067,+2067,+2067,+2067
   \              1308        
   \   00000788   130813081308       DC16     +2067,+2067,+2067,+2067
   \              1308        
   \   00000790   130813081308       DC16     +2067,+2067,+2067,+2067
   \              1308        
   \   00000798   130813081308       DC16     +2067,+2067,+2067,+2067
   \              1308        
   \   000007A0   130813081308       DC16     +2067,+2067,+2067,+2067
   \              1308        
   \   000007A8   130813081308       DC16     +2067,+2067,+2067,+2067
   \              1308        
   \   000007B0   130813081308       DC16     +2067,+2067,+2067,+2067
   \              1308        
   \   000007B8   130813081308       DC16     +2067,+2067,+2067,+2067
   \              1308        
   \   000007C0   130813081308       DC16     +2067,+2067,+2067,+2067
   \              1308        
   \   000007C8   130813081308       DC16     +2067,+2067,+2067,+2067
   \              1308        
   \   000007D0   130813081308       DC16     +2067,+2067,+2067,+2067
   \              1308        
   \   000007D8   130813081308       DC16     +2067,+2067,+2067,+2067
   \              1308        
   \   000007E0   130813081308       DC16     +2067,+2067,+2067,+2067
   \              1308        
   \   000007E8   130813081308       DC16     +2067,+2067,+2067,+2067
   \              1308        
   \   000007F0   130813081308       DC16     +2067,+2067,+2067,+2067
   \              1308        
   \   000007F8   130813081308       DC16     +2067,+2067,+2067,+2067
   \              1308        
   \   00000800   130813081308       DC16     +2067,+2067,+2067,+2067
   \              1308        
   \   00000808   130813081308       DC16     +2067,+2067,+2067,+2067
   \              1308        
   \   00000810   130813081308       DC16     +2067,+2067,+2067,+2067
   \              1308        
   \   00000818   130813081308       DC16     +2067,+2067,+2067,+2067
   \              1308        
   \   00000820   130813081308       DC16     +2067,+2067,+2067,+2067
   \              1308        
   \   00000828   130813081308       DC16     +2067,+2067,+2067,+2067
   \              1308        
   \   00000830   130813081308       DC16     +2067,+2067,+2067,+2067
   \              1308        
   \   00000838   130813081308       DC16     +2067,+2067,+2067,+2067
   \              1308        
   \   00000840   130813081308       DC16     +2067,+2067,+2067,+2067
   \              1308        
   \   00000848   130813081308       DC16     +2067,+2067,+2067,+2067
   \              1308        
   \   00000850   130813081308       DC16     +2067,+2067,+2067,+2067
   \              1308        
   \   00000858   130813081308       DC16     +2067,+2067,+2067,+2067
   \              1308        
   \   00000860   130813081308       DC16     +2067,+2067,+2067,+2067
   \              1308        
   \   00000868   130813081308       DC16     +2067,+2067,+2067,+2067
   \              1308        
   \   00000870   130813081308       DC16     +2067,+2067,+2067,+2067
   \              1308        
   \   00000878   130813081308       DC16     +2067,+2067,+2067,+2067
   \              1308        
   \   00000880   130813081308       DC16     +2067,+2067,+2067,+2067
   \              1308        
   \   00000888   130813081308       DC16     +2067,+2067,+2067,+2067
   \              1308        
   \   00000890   130813081308       DC16     +2067,+2067,+2067,+2067
   \              1308        
   \   00000898   130813081308       DC16     +2067,+2067,+2067,+2067
   \              1308        
   \   000008A0   130813081308       DC16     +2067,+2067,+2067,+2067
   \              1308        
   \   000008A8   130813081308       DC16     +2067,+2067,+2067,+2067
   \              1308        
   \   000008B0   130813081308       DC16     +2067,+2067,+2067,+2067
   \              1308        
   \   000008B8   130813081308       DC16     +2067,+2067,+2067,+2067
   \              1308        
   \   000008C0   130813081308       DC16     +2067,+2067,+2067,+2067
   \              1308        
   \   000008C8   130813081308       DC16     +2067,+2067,+2067,+2067
   \              1308        
   \   000008D0   130813081308       DC16     +2067,+2067,+2067,+2067
   \              1308        
   \   000008D8   130813081308       DC16     +2067,+2067,+2067,+2067
   \              1308        
   \   000008E0   130813081308       DC16     +2067,+2067,+2067,+2067
   \              1308        
   \   000008E8   130813081308       DC16     +2067,+2067,+2067,+2067
   \              1308        
   \   000008F0   130813081308       DC16     +2067,+2067,+2067,+2067
   \              1308        
   \   000008F8   130813081308       DC16     +2067,+2067,+2067,+2067
   \              1308        
   \   00000900   130813081308       DC16     +2067,+2067,+2067,+2067
   \              1308        
   \   00000908   130813081308       DC16     +2067,+2067,+2067,+2067
   \              1308        
   \   00000910   130813081308       DC16     +2067,+2067,+2067,+2067
   \              1308        
   \   00000918   130813081308       DC16     +2067,+2067,+2067,+2067
   \              1308        
   \   00000920   130813081308       DC16     +2067,+2067,+2067,+2067
   \              1308        
   \   00000928   130813081308       DC16     +2067,+2067,+2067,+2067
   \              1308        
   \   00000930   130813081308       DC16     +2067,+2067,+2067,+2067
   \              1308        
   \   00000938   130813081308       DC16     +2067,+2067,+2067,+2067
   \              1308        
   \   00000940   130813081308       DC16     +2067,+2067,+2067,+2067
   \              1308        
   \   00000948   130813081308       DC16     +2067,+2067,+2067,+2067
   \              1308        
   \   00000950   130813081308       DC16     +2067,+2067,+2067,+2067
   \              1308        
   \   00000958   130813081308       DC16     +2067,+2067,+2067,+2067
   \              1308        
   \   00000960   130813081308       DC16     +2067,+2067,+2067,+2067
   \              1308        
   \   00000968   130813081308       DC16     +2067,+2067,+2067,+2067
   \              1308        
   \   00000970   130813081308       DC16     +2067,+2067,+2067,+2067
   \              1308        
   \   00000978   130813081308       DC16     +2067,+2067,+2067,+2067
   \              1308        
   \   00000980   130813081308       DC16     +2067,+2067,+2067,+2067
   \              1308        
   \   00000988   130813081308       DC16     +2067,+2067,+2067,+2067
   \              1308        
   \   00000990   130813081308       DC16     +2067,+2067,+2067,+2067
   \              1308        
   \   00000998   130813081308       DC16     +2067,+2067,+2067,+2067
   \              1308        
   \   000009A0   130813081308       DC16     +2067,+2067,+2067,+2067
   \              1308        
   \   000009A8   130813081308       DC16     +2067,+2067,+2067,+2067
   \              1308        
   \   000009B0   130813081308       DC16     +2067,+2067,+2067,+2067
   \              1308        
   \   000009B8   130813081308       DC16     +2067,+2067,+2067,+2067
   \              1308        
   \   000009C0   130813081308       DC16     +2067,+2067,+2067,+2067
   \              1308        
   \   000009C8   130813081308       DC16     +2067,+2067,+2067,+2067
   \              1308        
   \   000009D0   130813081308       DC16     +2067,+2067,+2067,+2067
   \              1308        
   \   000009D8   130813081308       DC16     +2067,+2067,+2067,+2067
   \              1308        
   \   000009E0   130813081308       DC16     +2067,+2067,+2067,+2067
   \              1308        
   \   000009E8   130813081308       DC16     +2067,+2067,+2067,+2067
   \              1308        
   \   000009F0   130813081308       DC16     +2067,+2067,+2067,+2067
   \              1308        
   \   000009F8   130813081308       DC16     +2067,+2067,+2067,+2067
   \              1308        
   \   00000A00   130813081308       DC16     +2067,+2067,+2067,+2067
   \              1308        
   \   00000A08   130813081308       DC16     +2067,+2067,+2067,+2067
   \              1308        
   \   00000A10   130813081308       DC16     +2067,+2067,+2067,+2067
   \              1308        
   \   00000A18   130813081308       DC16     +2067,+2067,+2067,+2067
   \              1308        
   \   00000A20   130813081308       DC16     +2067,+2067,+2067,+2067
   \              1308        
   \   00000A28   130813081308       DC16     +2067,+2067,+2067,+2067
   \              1308        
   \   00000A30   130813081308       DC16     +2067,+2067,+2067,+2067
   \              1308        
   \   00000A38   130813081308       DC16     +2067,+2067,+2067,+2067
   \              1308        
   \   00000A40   130813081308       DC16     +2067,+2067,+2067,+2067
   \              1308        
   \   00000A48   130813081308       DC16     +2067,+2067,+2067,+2067
   \              1308        
   \   00000A50   130813081308       DC16     +2067,+2067,+2067,+2067
   \              1308        
   \   00000A58   130813081308       DC16     +2067,+2067,+2067,+2067
   \              1308        
   \   00000A60   130813081308       DC16     +2067,+2067,+2067,+2067
   \              1308        
   \   00000A68   130813081308       DC16     +2067,+2067,+2067,+2067
   \              1308        
   \   00000A70   130813081308       DC16     +2067,+2067,+2067,+2067
   \              1308        
   \   00000A78   130813081308       DC16     +2067,+2067,+2067,+2067
   \              1308        
   \   00000A80   130813081308       DC16     +2067,+2067,+2067,+2067
   \              1308        
   \   00000A88   130813081308       DC16     +2067,+2067,+2067,+2067
   \              1308        
   \   00000A90   130813081308       DC16     +2067,+2067,+2067,+2067
   \              1308        
   \   00000A98   130813081308       DC16     +2067,+2067,+2067,+2067
   \              1308        
   \   00000AA0   130813081308       DC16     +2067,+2067,+2067,+2067
   \              1308        
   \   00000AA8   130813081308       DC16     +2067,+2067,+2067,+2067
   \              1308        
   \   00000AB0   130813081308       DC16     +2067,+2067,+2067,+2067
   \              1308        
   \   00000AB8   130813081308       DC16     +2067,+2067,+2067,+2067
   \              1308        
   \   00000AC0   130813081308       DC16     +2067,+2067,+2067,+2067
   \              1308        
   \   00000AC8   130813081308       DC16     +2067,+2067,+2067,+2067
   \              1308        
   \   00000AD0   130813081308       DC16     +2067,+2067,+2067,+2067
   \              1308        
   \   00000AD8   130813081308       DC16     +2067,+2067,+2067,+2067
   \              1308        
   \   00000AE0   130813081308       DC16     +2067,+2067,+2067,+2067
   \              1308        
   \   00000AE8   130813081308       DC16     +2067,+2067,+2067,+2067
   \              1308        
   \   00000AF0   130813081308       DC16     +2067,+2067,+2067,+2067
   \              1308        
   \   00000AF8   130813081308       DC16     +2067,+2067,+2067,+2067
   \              1308        
   \   00000B00   130813081308       DC16     +2067,+2067,+2067,+2067
   \              1308        
   \   00000B08   130813081308       DC16     +2067,+2067,+2067,+2067
   \              1308        
   \   00000B10   130813081308       DC16     +2067,+2067,+2067,+2067
   \              1308        
   \   00000B18   130813081308       DC16     +2067,+2067,+2067,+2067
   \              1308        
   \   00000B20   130813081308       DC16     +2067,+2067,+2067,+2067
   \              1308        
   \   00000B28   130813081308       DC16     +2067,+2067,+2067,+2067
   \              1308        
   \   00000B30   130813081308       DC16     +2067,+2067,+2067,+2067
   \              1308        
   \   00000B38   130813081308       DC16     +2067,+2067,+2067,+2067
   \              1308        
   \   00000B40   130813081308       DC16     +2067,+2067,+2067,+2067
   \              1308        
   \   00000B48   130813081308       DC16     +2067,+2067,+2067,+2067
   \              1308        
   \   00000B50   130813081308       DC16     +2067,+2067,+2067,+2067
   \              1308        
   \   00000B58   130813081308       DC16     +2067,+2067,+2067,+2067
   \              1308        
   \   00000B60   130813081308       DC16     +2067,+2067,+2067,+2067
   \              1308        
   \   00000B68   130813081308       DC16     +2067,+2067,+2067,+2067
   \              1308        
   \   00000B70   130813081308       DC16     +2067,+2067,+2067,+2067
   \              1308        
   \   00000B78   130813081308       DC16     +2067,+2067,+2067,+2067
   \              1308        
   \   00000B80   130813081308       DC16     +2067,+2067,+2067,+2067
   \              1308        
   \   00000B88   130813081308       DC16     +2067,+2067,+2067,+2067
   \              1308        
   \   00000B90   130813081308       DC16     +2067,+2067,+2067,+2067
   \              1308        
   \   00000B98   130813081308       DC16     +2067,+2067,+2067,+2067
   \              1308        
   \   00000BA0   130813081308       DC16     +2067,+2067,+2067,+2067
   \              1308        
   \   00000BA8   130813081308       DC16     +2067,+2067,+2067,+2067
   \              1308        
   \   00000BB0   130813081308       DC16     +2067,+2067,+2067,+2067
   \              1308        
   \   00000BB8   130813081308       DC16     +2067,+2067,+2067,+2067
   \              1308        
   \   00000BC0   130813081308       DC16     +2067,+2067,+2067,+2067
   \              1308        
   \   00000BC8   130813081308       DC16     +2067,+2067,+2067,+2067
   \              1308        
   \   00000BD0   130813081308       DC16     +2067,+2067,+2067,+2067
   \              1308        
   \   00000BD8   130813081308       DC16     +2067,+2067,+2067,+2067
   \              1308        
   \   00000BE0   130813081308       DC16     +2067,+2067,+2067,+2067
   \              1308        
   \   00000BE8   130813081308       DC16     +2067,+2067,+2067,+2067
   \              1308        
   \   00000BF0   130813081308       DC16     +2067,+2067,+2067,+2067
   \              1308        
   \   00000BF8   130813081308       DC16     +2067,+2067,+2067,+2067
   \              1308        
   \   00000C00   130813081308       DC16     +2067,+2067,+2067,+2067
   \              1308        
   \   00000C08   130813081308       DC16     +2067,+2067,+2067,+2067
   \              1308        
   \   00000C10   130813081308       DC16     +2067,+2067,+2067,+2067
   \              1308        
   \   00000C18   130813081308       DC16     +2067,+2067,+2067,+2067
   \              1308        
   \   00000C20   130813081308       DC16     +2067,+2067,+2067,+2067
   \              1308        
   \   00000C28   130813081308       DC16     +2067,+2067,+2067,+2067
   \              1308        
   \   00000C30   130813081308       DC16     +2067,+2067,+2067,+2067
   \              1308        
   \   00000C38   130813081308       DC16     +2067,+2067,+2067,+2067
   \              1308        
   \   00000C40   130813081308       DC16     +2067,+2067,+2067,+2067
   \              1308        
   \   00000C48   130813081308       DC16     +2067,+2067,+2067,+2067
   \              1308        
   \   00000C50   130813081308       DC16     +2067,+2067,+2067,+2067
   \              1308        
   \   00000C58   130813081308       DC16     +2067,+2067,+2067,+2067
   \              1308        
   \   00000C60   130813081308       DC16     +2067,+2067,+2067,+2067
   \              1308        
   \   00000C68   130813081308       DC16     +2067,+2067,+2067,+2067
   \              1308        
   \   00000C70   130813081308       DC16     +2067,+2067,+2067,+2067
   \              1308        
   \   00000C78   130813081308       DC16     +2067,+2067,+2067,+2067
   \              1308        
   \   00000C80   130813081308       DC16     +2067,+2067,+2067,+2067
   \              1308        
   \   00000C88   130813081308       DC16     +2067,+2067,+2067,+2067
   \              1308        
   \   00000C90   130813081308       DC16     +2067,+2067,+2067,+2067
   \              1308        
   \   00000C98   130813081308       DC16     +2067,+2067,+2067,+2067
   \              1308        
   \   00000CA0   130813081308       DC16     +2067,+2067,+2067,+2067
   \              1308        
   \   00000CA8   130813081308       DC16     +2067,+2067,+2067,+2067
   \              1308        
   \   00000CB0   130813081308       DC16     +2067,+2067,+2067,+2067
   \              1308        
   \   00000CB8   130813081308       DC16     +2067,+2067,+2067,+2067
   \              1308        
   \   00000CC0   130813081308       DC16     +2067,+2067,+2067,+2067
   \              1308        
   \   00000CC8   130813081308       DC16     +2067,+2067,+2067,+2067
   \              1308        
   \   00000CD0   130813081308       DC16     +2067,+2067,+2067,+2067
   \              1308        
   \   00000CD8   130813081308       DC16     +2067,+2067,+2067,+2067
   \              1308        
   \   00000CE0   130813081308       DC16     +2067,+2067,+2067,+2067
   \              1308        
   \   00000CE8   130813081308       DC16     +2067,+2067,+2067,+2067
   \              1308        
   \   00000CF0   130813081308       DC16     +2067,+2067,+2067,+2067
   \              1308        
   \   00000CF8   130813081308       DC16     +2067,+2067,+2067,+2067
   \              1308        
   \   00000D00   130813081308       DC16     +2067,+2067,+2067,+2067
   \              1308        
   \   00000D08   130813081308       DC16     +2067,+2067,+2067,+2067
   \              1308        
   \   00000D10   130813081308       DC16     +2067,+2067,+2067,+2067
   \              1308        
   \   00000D18   130813081308       DC16     +2067,+2067,+2067,+2067
   \              1308        
   \   00000D20   130813081308       DC16     +2067,+2067,+2067,+2067
   \              1308        
   \   00000D28   130813081308       DC16     +2067,+2067,+2067,+2067
   \              1308        
   \   00000D30   130813081308       DC16     +2067,+2067,+2067,+2067
   \              1308        
   \   00000D38   130813081308       DC16     +2067,+2067,+2067,+2067
   \              1308        
   \   00000D40   130813081308       DC16     +2067,+2067,+2067,+2067
   \              1308        
   \   00000D48   130813081308       DC16     +2067,+2067,+2067,+2067
   \              1308        
   \   00000D50   130813081308       DC16     +2067,+2067,+2067,+2067
   \              1308        
   \   00000D58   130813081308       DC16     +2067,+2067,+2067,+2067
   \              1308        
   \   00000D60   130813081308       DC16     +2067,+2067,+2067,+2067
   \              1308        
   \   00000D68   130813081308       DC16     +2067,+2067,+2067,+2067
   \              1308        
   \   00000D70   130813081308       DC16     +2067,+2067,+2067,+2067
   \              1308        
   \   00000D78   130813081308       DC16     +2067,+2067,+2067,+2067
   \              1308        
   \   00000D80   130813081308       DC16     +2067,+2067,+2067,+2067
   \              1308        
   \   00000D88   130813081308       DC16     +2067,+2067,+2067,+2067
   \              1308        
   \   00000D90   130813081308       DC16     +2067,+2067,+2067,+2067
   \              1308        
   \   00000D98   130813081308       DC16     +2067,+2067,+2067,+2067
   \              1308        
   \   00000DA0   130813081308       DC16     +2067,+2067,+2067,+2067
   \              1308        
   \   00000DA8   130813081308       DC16     +2067,+2067,+2067,+2067
   \              1308        
   \   00000DB0   130813081308       DC16     +2067,+2067,+2067,+2067
   \              1308        
   \   00000DB8   130813081308       DC16     +2067,+2067,+2067,+2067
   \              1308        
   \   00000DC0   130813081308       DC16     +2067,+2067,+2067,+2067
   \              1308        
   \   00000DC8   130813081308       DC16     +2067,+2067,+2067,+2067
   \              1308        
   \   00000DD0   130813081308       DC16     +2067,+2067,+2067,+2067
   \              1308        
   \   00000DD8   130813081308       DC16     +2067,+2067,+2067,+2067
   \              1308        
   \   00000DE0   130813081308       DC16     +2067,+2067,+2067,+2067
   \              1308        
   \   00000DE8   130813081308       DC16     +2067,+2067,+2067,+2067
   \              1308        
   \   00000DF0   130813081308       DC16     +2067,+2067,+2067,+2067
   \              1308        
   \   00000DF8   130813081308       DC16     +2067,+2067,+2067,+2067
   \              1308        
   \   00000E00   130813081308       DC16     +2067,+2067,+2067,+2067
   \              1308        
   \   00000E08   130813081308       DC16     +2067,+2067,+2067,+2067
   \              1308        
   \   00000E10   130813081308       DC16     +2067,+2067,+2067,+2067
   \              1308        
   \   00000E18   130813081308       DC16     +2067,+2067,+2067,+2067
   \              1308        
   \   00000E20   130813081308       DC16     +2067,+2067,+2067,+2067
   \              1308        
   \   00000E28   130813081308       DC16     +2067,+2067,+2067,+2067
   \              1308        
   \   00000E30   130813081308       DC16     +2067,+2067,+2067,+2067
   \              1308        
   \   00000E38   130813081308       DC16     +2067,+2067,+2067,+2067
   \              1308        
   \   00000E40   130813081308       DC16     +2067,+2067,+2067,+2067
   \              1308        
   \   00000E48   130813081308       DC16     +2067,+2067,+2067,+2067
   \              1308        
   \   00000E50   130813081308       DC16     +2067,+2067,+2067,+2067
   \              1308        
   \   00000E58   130813081308       DC16     +2067,+2067,+2067,+2067
   \              1308        
   \   00000E60   130813081308       DC16     +2067,+2067,+2067,+2067
   \              1308        
   \   00000E68   130813081308       DC16     +2067,+2067,+2067,+2067
   \              1308        
   \   00000E70   130813081308       DC16     +2067,+2067,+2067,+2067
   \              1308        
   \   00000E78   130813081308       DC16     +2067,+2067,+2067,+2067
   \              1308        
   \   00000E80   130813081308       DC16     +2067,+2067,+2067,+2067
   \              1308        
   \   00000E88   130813081308       DC16     +2067,+2067,+2067,+2067
   \              1308        
   \   00000E90   130813081308       DC16     +2067,+2067,+2067,+2067
   \              1308        
   \   00000E98   130813081308       DC16     +2067,+2067,+2067,+2067
   \              1308        
   \   00000EA0   130813081308       DC16     +2067,+2067,+2067,+2067
   \              1308        
   \   00000EA8   130813081308       DC16     +2067,+2067,+2067,+2067
   \              1308        
   \   00000EB0   130813081308       DC16     +2067,+2067,+2067,+2067
   \              1308        
   \   00000EB8   130813081308       DC16     +2067,+2067,+2067,+2067
   \              1308        
   \   00000EC0   130813081308       DC16     +2067,+2067,+2067,+2067
   \              1308        
   \   00000EC8   130813081308       DC16     +2067,+2067,+2067,+2067
   \              1308        
   \   00000ED0   130813081308       DC16     +2067,+2067,+2067,+2067
   \              1308        
   \   00000ED8   130813081308       DC16     +2067,+2067,+2067,+2067
   \              1308        
   \   00000EE0   130813081308       DC16     +2067,+2067,+2067,+2067
   \              1308        
   \   00000EE8   130813081308       DC16     +2067,+2067,+2067,+2067
   \              1308        
   \   00000EF0   130813081308       DC16     +2067,+2067,+2067,+2067
   \              1308        
   \   00000EF8   130813081308       DC16     +2067,+2067,+2067,+2067
   \              1308        
   \   00000F00   130813081308       DC16     +2067,+2067,+2067,+2067
   \              1308        
   \   00000F08   130813081308       DC16     +2067,+2067,+2067,+2067
   \              1308        
   \   00000F10   130813081308       DC16     +2067,+2067,+2067,+2067
   \              1308        
   \   00000F18   130813081308       DC16     +2067,+2067,+2067,+2067
   \              1308        
   \   00000F20   130813081308       DC16     +2067,+2067,+2067,+2067
   \              1308        
   \   00000F28   130813081308       DC16     +2067,+2067,+2067,+2067
   \              1308        
   \   00000F30   130813081308       DC16     +2067,+2067,+2067,+2067
   \              1308        
   \   00000F38   130813081308       DC16     +2067,+2067,+2067,+2067
   \              1308        
   \   00000F40   130813081308       DC16     +2067,+2067,+2067,+2067
   \              1308        
   \   00000F48   130813081308       DC16     +2067,+2067,+2067,+2067
   \              1308        
   \   00000F50   130813081308       DC16     +2067,+2067,+2067,+2067
   \              1308        
   \   00000F58   130813081308       DC16     +2067,+2067,+2067,+2067
   \              1308        
   \   00000F60   130813081308       DC16     +2067,+2067,+2067,+2067
   \              1308        
   \   00000F68   130813081308       DC16     +2067,+2067,+2067,+2067
   \              1308        
   \   00000F70   130813081308       DC16     +2067,+2067,+2067,+2067
   \              1308        
   \   00000F78   130813081308       DC16     +2067,+2067,+2067,+2067
   \              1308        
   \   00000F80   130813081308       DC16     +2067,+2067,+2067,+2067
   \              1308        
   \   00000F88   130813081308       DC16     +2067,+2067,+2067,+2067
   \              1308        
   \   00000F90   130813081308       DC16     +2067,+2067,+2067,+2067
   \              1308        
   \   00000F98   130813081308       DC16     +2067,+2067,+2067,+2067
   \              1308        
   \   00000FA0   130813081308       DC16     +2067,+2067,+2067,+2067
   \              1308        
   \   00000FA8   130813081308       DC16     +2067,+2067,+2067,+2067
   \              1308        
   \   00000FB0   130813081308       DC16     +2067,+2067,+2067,+2067
   \              1308        
   \   00000FB8   130813081308       DC16     +2067,+2067,+2067,+2067
   \              1308        
   \   00000FC0   130813081308       DC16     +2067,+2067,+2067,+2067
   \              1308        
   \   00000FC8   130813081308       DC16     +2067,+2067,+2067,+2067
   \              1308        
   \   00000FD0   130813081308       DC16     +2067,+2067,+2067,+2067
   \              1308        
   \   00000FD8   130813081308       DC16     +2067,+2067,+2067,+2067
   \              1308        
   \   00000FE0   130813081308       DC16     +2067,+2067,+2067,+2067
   \              1308        
   \   00000FE8   130813081308       DC16     +2067,+2067,+2067,+2067
   \              1308        
   \   00000FF0   130813081308       DC16     +2067,+2067,+2067,+2067
   \              1308        
   \   00000FF8   130813081308       DC16     +2067,+2067,+2067,+2067
   \              1308        
   \   00001000   130813081308       DC16     +2067,+2067,+2067,+2067
   \              1308        
   \   00001008   130813081308       DC16     +2067,+2067,+2067,+2067
   \              1308        
   \   00001010   130813081308       DC16     +2067,+2067,+2067,+2067
   \              1308        
   \   00001018   130813081308       DC16     +2067,+2067,+2067,+2067
   \              1308        
   \   00001020   130813081308       DC16     +2067,+2067,+2067,+2067
   \              1308        
   \   00001028   130813081308       DC16     +2067,+2067,+2067,+2067
   \              1308        
   \   00001030   130813081308       DC16     +2067,+2067,+2067,+2067
   \              1308        
   \   00001038   130813081308       DC16     +2067,+2067,+2067,+2067
   \              1308        
   \   00001040   130813081308       DC16     +2067,+2067,+2067,+2067
   \              1308        
   \   00001048   130813081308       DC16     +2067,+2067,+2067,+2067
   \              1308        
   \   00001050   130813081308       DC16     +2067,+2067,+2067,+2067
   \              1308        
   \   00001058   130813081308       DC16     +2067,+2067,+2067,+2067
   \              1308        
   \   00001060   130813081308       DC16     +2067,+2067,+2067,+2067
   \              1308        
   \   00001068   130813081308       DC16     +2067,+2067,+2067,+2067
   \              1308        
   \   00001070   130813081308       DC16     +2067,+2067,+2067,+2067
   \              1308        
   \   00001078   130813081308       DC16     +2067,+2067,+2067,+2067
   \              1308        
   \   00001080   130813081308       DC16     +2067,+2067,+2067,+2067
   \              1308        
   \   00001088   130813081308       DC16     +2067,+2067,+2067,+2067
   \              1308        
   \   00001090   130813081308       DC16     +2067,+2067,+2067,+2067
   \              1308        
   \   00001098   130813081308       DC16     +2067,+2067,+2067,+2067
   \              1308        
   \   000010A0   130813081308       DC16     +2067,+2067,+2067,+2067
   \              1308        
   \   000010A8   130813081308       DC16     +2067,+2067,+2067,+2067
   \              1308        
   \   000010B0   130813081308       DC16     +2067,+2067,+2067,+2067
   \              1308        
   \   000010B8   130813081308       DC16     +2067,+2067,+2067,+2067
   \              1308        
   \   000010C0   130813081308       DC16     +2067,+2067,+2067,+2067
   \              1308        
   \   000010C8   130813081308       DC16     +2067,+2067,+2067,+2067
   \              1308        
   \   000010D0   130813081308       DC16     +2067,+2067,+2067,+2067
   \              1308        
   \   000010D8   130813081308       DC16     +2067,+2067,+2067,+2067
   \              1308        
   \   000010E0   130813081308       DC16     +2067,+2067,+2067,+2067
   \              1308        
   \   000010E8   130813081308       DC16     +2067,+2067,+2067,+2067
   \              1308        
   \   000010F0   130813081308       DC16     +2067,+2067,+2067,+2067
   \              1308        
   \   000010F8   130813081308       DC16     +2067,+2067,+2067,+2067
   \              1308        
   \   00001100   130813081308       DC16     +2067,+2067,+2067,+2067
   \              1308        
   \   00001108   130813081308       DC16     +2067,+2067,+2067,+2067
   \              1308        
   \   00001110   130813081308       DC16     +2067,+2067,+2067,+2067
   \              1308        
   \   00001118   130813081308       DC16     +2067,+2067,+2067,+2067
   \              1308        
   \   00001120   130813081308       DC16     +2067,+2067,+2067,+2067
   \              1308        
   \   00001128   130813081308       DC16     +2067,+2067,+2067,+2067
   \              1308        
   \   00001130   130813081308       DC16     +2067,+2067,+2067,+2067
   \              1308        
   \   00001138   130813081308       DC16     +2067,+2067,+2067,+2067
   \              1308        
   \   00001140   130813081308       DC16     +2067,+2067,+2067,+2067
   \              1308        
   \   00001148   130813081308       DC16     +2067,+2067,+2067,+2067
   \              1308        
   \   00001150   130813081308       DC16     +2067,+2067,+2067,+2067
   \              1308        
   \   00001158   130813081308       DC16     +2067,+2067,+2067,+2067
   \              1308        
   \   00001160   130813081308       DC16     +2067,+2067,+2067,+2067
   \              1308        
   \   00001168   130813081308       DC16     +2067,+2067,+2067,+2067
   \              1308        
   \   00001170   130813081308       DC16     +2067,+2067,+2067,+2067
   \              1308        
   \   00001178   130813081308       DC16     +2067,+2067,+2067,+2067
   \              1308        
   \   00001180   130813081308       DC16     +2067,+2067,+2067,+2067
   \              1308        
   \   00001188   130813081308       DC16     +2067,+2067,+2067,+2067
   \              1308        
   \   00001190   130813081308       DC16     +2067,+2067,+2067,+2067
   \              1308        
   \   00001198   130813081308       DC16     +2067,+2067,+2067,+2067
   \              1308        
   \   000011A0   130813081308       DC16     +2067,+2067,+2067,+2067
   \              1308        
   \   000011A8   130813081308       DC16     +2067,+2067,+2067,+2067
   \              1308        
   \   000011B0   130813081308       DC16     +2067,+2067,+2067,+2067
   \              1308        
   \   000011B8   130813081308       DC16     +2067,+2067,+2067,+2067
   \              1308        
   \   000011C0   130813081308       DC16     +2067,+2067,+2067,+2067
   \              1308        
   \   000011C8   130813081308       DC16     +2067,+2067,+2067,+2067
   \              1308        
   \   000011D0   130813081308       DC16     +2067,+2067,+2067,+2067
   \              1308        
   \   000011D8   130813081308       DC16     +2067,+2067,+2067,+2067
   \              1308        
   \   000011E0   130813081308       DC16     +2067,+2067,+2067,+2067
   \              1308        
   \   000011E8   130813081308       DC16     +2067,+2067,+2067,+2067
   \              1308        
   \   000011F0   130813081308       DC16     +2067,+2067,+2067,+2067
   \              1308        
   \   000011F8   130813081308       DC16     +2067,+2067,+2067,+2067
   \              1308        
   \   00001200   130813081308       DC16     +2067,+2067,+2067,+2067
   \              1308        
   \   00001208   130813081308       DC16     +2067,+2067,+2067,+2067
   \              1308        
   \   00001210   130813081308       DC16     +2067,+2067,+2067,+2067
   \              1308        
   \   00001218   130813081308       DC16     +2067,+2067,+2067,+2067
   \              1308        
   \   00001220   130813081308       DC16     +2067,+2067,+2067,+2067
   \              1308        
   \   00001228   130813081308       DC16     +2067,+2067,+2067,+2067
   \              1308        
   \   00001230   130813081308       DC16     +2067,+2067,+2067,+2067
   \              1308        
   \   00001238   130813081308       DC16     +2067,+2067,+2067,+2067
   \              1308        
   \   00001240   130813081308       DC16     +2067,+2067,+2067,+2067
   \              1308        
   \   00001248   130813081308       DC16     +2067,+2067,+2067,+2067
   \              1308        
   \   00001250   130813081308       DC16     +2067,+2067,+2067,+2067
   \              1308        
   \   00001258   130813081308       DC16     +2067,+2067,+2067,+2067
   \              1308        
   \   00001260   130813081308       DC16     +2067,+2067,+2067,+2067
   \              1308        
   \   00001268   130813081308       DC16     +2067,+2067,+2067,+2067
   \              1308        
   \   00001270   130813081308       DC16     +2067,+2067,+2067,+2067
   \              1308        
   \   00001278   130813081308       DC16     +2067,+2067,+2067,+2067
   \              1308        
   \   00001280   130813081308       DC16     +2067,+2067,+2067,+2067
   \              1308        
   \   00001288   130813081308       DC16     +2067,+2067,+2067,+2067
   \              1308        
   \   00001290   130813081308       DC16     +2067,+2067,+2067,+2067
   \              1308        
   \   00001298   130813081308       DC16     +2067,+2067,+2067,+2067
   \              1308        
   \   000012A0   130813081308       DC16     +2067,+2067,+2067,+2067
   \              1308        
   \   000012A8   130813081308       DC16     +2067,+2067,+2067,+2067
   \              1308        
   \   000012B0   130813081308       DC16     +2067,+2067,+2067,+2067
   \              1308        
   \   000012B8   130813081308       DC16     +2067,+2067,+2067,+2067
   \              1308        
   \   000012C0   130813081308       DC16     +2067,+2067,+2067,+2067
   \              1308        
   \   000012C8   130813081308       DC16     +2067,+2067,+2067,+2067
   \              1308        
   \   000012D0   130813081308       DC16     +2067,+2067,+2067,+2067
   \              1308        
   \   000012D8   130813081308       DC16     +2067,+2067,+2067,+2067
   \              1308        
   \   000012E0   130813081308       DC16     +2067,+2067,+2067,+2067
   \              1308        
   \   000012E8   130813081308       DC16     +2067,+2067,+2067,+2067
   \              1308        
   \   000012F0   130813081308       DC16     +2067,+2067,+2067,+2067
   \              1308        
   \   000012F8   130813081308       DC16     +2067,+2067,+2067,+2067
   \              1308        
   \   00001300   130813081308       DC16     +2067,+2067,+2067,+2067
   \              1308        
   \   00001308   130813081308       DC16     +2067,+2067,+2067,+2067
   \              1308        
   \   00001310   130813081308       DC16     +2067,+2067,+2067,+2067
   \              1308        
   \   00001318   130813081308       DC16     +2067,+2067,+2067,+2067
   \              1308        
   \   00001320   130813081308       DC16     +2067,+2067,+2067,+2067
   \              1308        
   \   00001328   130813081308       DC16     +2067,+2067,+2067,+2067
   \              1308        
   \   00001330   130813081308       DC16     +2067,+2067,+2067,+2067
   \              1308        
   \   00001338   130813081308       DC16     +2067,+2067,+2067,+2067
   \              1308        
   \   00001340   130813081308       DC16     +2067,+2067,+2067,+2067
   \              1308        
   \   00001348   130813081308       DC16     +2067,+2067,+2067,+2067
   \              1308        
   \   00001350   130813081308       DC16     +2067,+2067,+2067,+2067
   \              1308        
   \   00001358   130813081308       DC16     +2067,+2067,+2067,+2067
   \              1308        
   \   00001360   130813081308       DC16     +2067,+2067,+2067,+2067
   \              1308        
   \   00001368   130813081308       DC16     +2067,+2067,+2067,+2067
   \              1308        
   \   00001370   130813081308       DC16     +2067,+2067,+2067,+2067
   \              1308        
   \   00001378   130813081308       DC16     +2067,+2067,+2067,+2067
   \              1308        
   \   00001380   130813081308       DC16     +2067,+2067,+2067,+2067
   \              1308        
   \   00001388   130813081308       DC16     +2067,+2067,+2067,+2067
   \              1308        
   \   00001390   130813081308       DC16     +2067,+2067,+2067,+2067
   \              1308        
   \   00001398   130813081308       DC16     +2067,+2067,+2067,+2067
   \              1308        
   \   000013A0   130813081308       DC16     +2067,+2067,+2067,+2067
   \              1308        
   \   000013A8   130813081308       DC16     +2067,+2067,+2067,+2067
   \              1308        
   \   000013B0   130813081308       DC16     +2067,+2067,+2067,+2067
   \              1308        
   \   000013B8   130813081308       DC16     +2067,+2067,+2067,+2067
   \              1308        
   \   000013C0   130813081308       DC16     +2067,+2067,+2067,+2067
   \              1308        
   \   000013C8   130813081308       DC16     +2067,+2067,+2067,+2067
   \              1308        
   \   000013D0   130813081308       DC16     +2067,+2067,+2067,+2067
   \              1308        
   \   000013D8   130813081308       DC16     +2067,+2067,+2067,+2067
   \              1308        
   \   000013E0   130813081308       DC16     +2067,+2067,+2067,+2067
   \              1308        
   \   000013E8   130813081308       DC16     +2067,+2067,+2067,+2067
   \              1308        
   \   000013F0   130813081308       DC16     +2067,+2067,+2067,+2067
   \              1308        
   \   000013F8   130813081308       DC16     +2067,+2067,+2067,+2067
   \              1308        
   \   00001400   130813081308       DC16     +2067,+2067,+2067,+2067
   \              1308        
   \   00001408   130813081308       DC16     +2067,+2067,+2067,+2067
   \              1308        
   \   00001410   130813081308       DC16     +2067,+2067,+2067,+2067
   \              1308        
   \   00001418   130813081308       DC16     +2067,+2067,+2067,+2067
   \              1308        
   \   00001420   130813081308       DC16     +2067,+2067,+2067,+2067
   \              1308        
   \   00001428   130813081308       DC16     +2067,+2067,+2067,+2067
   \              1308        
   \   00001430   130813081308       DC16     +2067,+2067,+2067,+2067
   \              1308        
   \   00001438   130813081308       DC16     +2067,+2067,+2067,+2067
   \              1308        
   \   00001440   130813081308       DC16     +2067,+2067,+2067,+2067
   \              1308        
   \   00001448   130813081308       DC16     +2067,+2067,+2067,+2067
   \              1308        
   \   00001450   130813081308       DC16     +2067,+2067,+2067,+2067
   \              1308        
   \   00001458   130813081308       DC16     +2067,+2067,+2067,+2067
   \              1308        
   \   00001460   130813081308       DC16     +2067,+2067,+2067,+2067
   \              1308        
   \   00001468   130813081308       DC16     +2067,+2067,+2067,+2067
   \              1308        
   \   00001470   130813081308       DC16     +2067,+2067,+2067,+2067
   \              1308        
   \   00001478   130813081308       DC16     +2067,+2067,+2067,+2067
   \              1308        
   \   00001480   130813081308       DC16     +2067,+2067,+2067,+2067
   \              1308        
   \   00001488   130813081308       DC16     +2067,+2067,+2067,+2067
   \              1308        
   \   00001490   130813081308       DC16     +2067,+2067,+2067,+2067
   \              1308        
   \   00001498   130813081308       DC16     +2067,+2067,+2067,+2067
   \              1308        
   \   000014A0   130813081308       DC16     +2067,+2067,+2067,+2067
   \              1308        
   \   000014A8   130813081308       DC16     +2067,+2067,+2067,+2067
   \              1308        
   \   000014B0   130813081308       DC16     +2067,+2067,+2067,+2067
   \              1308        
   \   000014B8   130813081308       DC16     +2067,+2067,+2067,+2067
   \              1308        
   \   000014C0   130813081308       DC16     +2067,+2067,+2067,+2067
   \              1308        
   \   000014C8   130813081308       DC16     +2067,+2067,+2067,+2067
   \              1308        
   \   000014D0   130813081308       DC16     +2067,+2067,+2067,+2067
   \              1308        
   \   000014D8   130813081308       DC16     +2067,+2067,+2067,+2067
   \              1308        
   \   000014E0   130813081308       DC16     +2067,+2067,+2067,+2067
   \              1308        
   \   000014E8   130813081308       DC16     +2067,+2067,+2067,+2067
   \              1308        
   \   000014F0   130813081308       DC16     +2067,+2067,+2067,+2067
   \              1308        
   \   000014F8   130813081308       DC16     +2067,+2067,+2067,+2067
   \              1308        
   \   00001500   130813081308       DC16     +2067,+2067,+2067,+2067
   \              1308        
   \   00001508   130813081308       DC16     +2067,+2067,+2067,+2067
   \              1308        
   \   00001510   130813081308       DC16     +2067,+2067,+2067,+2067
   \              1308        
   \   00001518   130813081308       DC16     +2067,+2067,+2067,+2067
   \              1308        
   \   00001520   130813081308       DC16     +2067,+2067,+2067,+2067
   \              1308        
   \   00001528   130813081308       DC16     +2067,+2067,+2067,+2067
   \              1308        
   \   00001530   130813081308       DC16     +2067,+2067,+2067,+2067
   \              1308        
   \   00001538   130813081308       DC16     +2067,+2067,+2067,+2067
   \              1308        
   \   00001540   130813081308       DC16     +2067,+2067,+2067,+2067
   \              1308        
   \   00001548   130813081308       DC16     +2067,+2067,+2067,+2067
   \              1308        
   \   00001550   130813081308       DC16     +2067,+2067,+2067,+2067
   \              1308        
   \   00001558   130813081308       DC16     +2067,+2067,+2067,+2067
   \              1308        
   \   00001560   130813081308       DC16     +2067,+2067,+2067,+2067
   \              1308        
   \   00001568   130813081308       DC16     +2067,+2067,+2067,+2067
   \              1308        
   \   00001570   130813081308       DC16     +2067,+2067,+2067,+2067
   \              1308        
   \   00001578   130813081308       DC16     +2067,+2067,+2067,+2067
   \              1308        
   \   00001580   130813081308       DC16     +2067,+2067,+2067,+2067
   \              1308        
   \   00001588   130813081308       DC16     +2067,+2067,+2067,+2067
   \              1308        
   \   00001590   130813081308       DC16     +2067,+2067,+2067,+2067
   \              1308        
   \   00001598   130813081308       DC16     +2067,+2067,+2067,+2067
   \              1308        
   \   000015A0   130813081308       DC16     +2067,+2067,+2067,+2067
   \              1308        
   \   000015A8   130813081308       DC16     +2067,+2067,+2067,+2067
   \              1308        
   \   000015B0   130813081308       DC16     +2067,+2067,+2067,+2067
   \              1308        
   \   000015B8   130813081308       DC16     +2067,+2067,+2067,+2067
   \              1308        
   \   000015C0   130813081308       DC16     +2067,+2067,+2067,+2067
   \              1308        
   \   000015C8   130813081308       DC16     +2067,+2067,+2067,+2067
   \              1308        
   \   000015D0   130813081308       DC16     +2067,+2067,+2067,+2067
   \              1308        
   \   000015D8   130813081308       DC16     +2067,+2067,+2067,+2067
   \              1308        
   \   000015E0   130813081308       DC16     +2067,+2067,+2067,+2067
   \              1308        
   \   000015E8   130813081308       DC16     +2067,+2067,+2067,+2067
   \              1308        
   \   000015F0   130813081308       DC16     +2067,+2067,+2067,+2067
   \              1308        
   \   000015F8   130813081308       DC16     +2067,+2067,+2067,+2067
   \              1308        
   \   00001600   130813081308       DC16     +2067,+2067,+2067,+2067
   \              1308        
   \   00001608   130813081308       DC16     +2067,+2067,+2067,+2067
   \              1308        
   \   00001610   130813081308       DC16     +2067,+2067,+2067,+2067
   \              1308        
   \   00001618   130813081308       DC16     +2067,+2067,+2067,+2067
   \              1308        
   \   00001620   130813081308       DC16     +2067,+2067,+2067,+2067
   \              1308        
   \   00001628   130813081308       DC16     +2067,+2067,+2067,+2067
   \              1308        
   \   00001630   130813081308       DC16     +2067,+2067,+2067,+2067
   \              1308        
   \   00001638   130813081308       DC16     +2067,+2067,+2067,+2067
   \              1308        
   \   00001640   130813081308       DC16     +2067,+2067,+2067,+2067
   \              1308        
   \   00001648   130813081308       DC16     +2067,+2067,+2067,+2067
   \              1308        
   \   00001650   130813081308       DC16     +2067,+2067,+2067,+2067
   \              1308        
   \   00001658   130813081308       DC16     +2067,+2067,+2067,+2067
   \              1308        
   \   00001660   130813081308       DC16     +2067,+2067,+2067,+2067
   \              1308        
   \   00001668   130813081308       DC16     +2067,+2067,+2067,+2067
   \              1308        
   \   00001670   130813081308       DC16     +2067,+2067,+2067,+2067
   \              1308        
   \   00001678   130813081308       DC16     +2067,+2067,+2067,+2067
   \              1308        
   \   00001680   130813081308       DC16     +2067,+2067,+2067,+2067
   \              1308        
   \   00001688   130813081308       DC16     +2067,+2067,+2067,+2067
   \              1308        
   \   00001690   130813081308       DC16     +2067,+2067,+2067,+2067
   \              1308        
   \   00001698   130813081308       DC16     +2067,+2067,+2067,+2067
   \              1308        
   \   000016A0   130813081308       DC16     +2067,+2067,+2067,+2067
   \              1308        
   \   000016A8   130813081308       DC16     +2067,+2067,+2067,+2067
   \              1308        
   \   000016B0   130813081308       DC16     +2067,+2067,+2067,+2067
   \              1308        
   \   000016B8   130813081308       DC16     +2067,+2067,+2067,+2067
   \              1308        
   \   000016C0   130813081308       DC16     +2067,+2067,+2067,+2067
   \              1308        
   \   000016C8   130813081308       DC16     +2067,+2067,+2067,+2067
   \              1308        
   \   000016D0   130813081308       DC16     +2067,+2067,+2067,+2067
   \              1308        
   \   000016D8   130813081308       DC16     +2067,+2067,+2067,+2067
   \              1308        
   \   000016E0   130813081308       DC16     +2067,+2067,+2067,+2067
   \              1308        
   \   000016E8   130813081308       DC16     +2067,+2067,+2067,+2067
   \              1308        
   \   000016F0   130813081308       DC16     +2067,+2067,+2067,+2067
   \              1308        
   \   000016F8   130813081308       DC16     +2067,+2067,+2067,+2067
   \              1308        
   \   00001700   130813081308       DC16     +2067,+2067,+2067,+2067
   \              1308        
   \   00001708   130813081308       DC16     +2067,+2067,+2067,+2067
   \              1308        
   \   00001710   130813081308       DC16     +2067,+2067,+2067,+2067
   \              1308        
   \   00001718   130813081308       DC16     +2067,+2067,+2067,+2067
   \              1308        
   \   00001720   130813081308       DC16     +2067,+2067,+2067,+2067
   \              1308        
   \   00001728   130813081308       DC16     +2067,+2067,+2067,+2067
   \              1308        
   \   00001730   130813081308       DC16     +2067,+2067,+2067,+2067
   \              1308        
   \   00001738   130813081308       DC16     +2067,+2067,+2067,+2067
   \              1308        
   \   00001740   130813081308       DC16     +2067,+2067,+2067,+2067
   \              1308        
   \   00001748   130813081308       DC16     +2067,+2067,+2067,+2067
   \              1308        
   \   00001750   130813081308       DC16     +2067,+2067,+2067,+2067
   \              1308        
   \   00001758   130813081308       DC16     +2067,+2067,+2067,+2067
   \              1308        
   \   00001760   130813081308       DC16     +2067,+2067,+2067,+2067
   \              1308        
   \   00001768   130813081308       DC16     +2067,+2067,+2067,+2067
   \              1308        
   \   00001770   130813081308       DC16     +2067,+2067,+2067,+2067
   \              1308        
   \   00001778   130813081308       DC16     +2067,+2067,+2067,+2067
   \              1308        
   \   00001780   130813081308       DC16     +2067,+2067,+2067,+2067
   \              1308        
   \   00001788   130813081308       DC16     +2067,+2067,+2067,+2067
   \              1308        
   \   00001790   130813081308       DC16     +2067,+2067,+2067,+2067
   \              1308        
   \   00001798   130813081308       DC16     +2067,+2067,+2067,+2067
   \              1308        
   \   000017A0   130813081308       DC16     +2067,+2067,+2067,+2067
   \              1308        
   \   000017A8   130813081308       DC16     +2067,+2067,+2067,+2067
   \              1308        
   \   000017B0   130813081308       DC16     +2067,+2067,+2067,+2067
   \              1308        
   \   000017B8   130813081308       DC16     +2067,+2067,+2067,+2067
   \              1308        
   \   000017C0   130813081308       DC16     +2067,+2067,+2067,+2067
   \              1308        
   \   000017C8   130813081308       DC16     +2067,+2067,+2067,+2067
   \              1308        
   \   000017D0   130813081308       DC16     +2067,+2067,+2067,+2067
   \              1308        
   \   000017D8   130813081308       DC16     +2067,+2067,+2067,+2067
   \              1308        
   \   000017E0   130813081308       DC16     +2067,+2067,+2067,+2067
   \              1308        
   \   000017E8   130813081308       DC16     +2067,+2067,+2067,+2067
   \              1308        
   \   000017F0   130813081308       DC16     +2067,+2067,+2067,+2067
   \              1308        
   \   000017F8   130813081308       DC16     +2067,+2067,+2067,+2067
   \              1308        
   \   00001800   130813081308       DC16     +2067,+2067,+2067,+2067
   \              1308        
   \   00001808   130813081308       DC16     +2067,+2067,+2067,+2067
   \              1308        
   \   00001810   130813081308       DC16     +2067,+2067,+2067,+2067
   \              1308        
   \   00001818   130813081308       DC16     +2067,+2067,+2067,+2067
   \              1308        
   \   00001820   130813081308       DC16     +2067,+2067,+2067,+2067
   \              1308        
   \   00001828   130813081308       DC16     +2067,+2067,+2067,+2067
   \              1308        
   \   00001830   130813081308       DC16     +2067,+2067,+2067,+2067
   \              1308        
   \   00001838   130813081308       DC16     +2067,+2067,+2067,+2067
   \              1308        
   \   00001840   130813081308       DC16     +2067,+2067,+2067,+2067
   \              1308        
   \   00001848   130813081308       DC16     +2067,+2067,+2067,+2067
   \              1308        
   \   00001850   130813081308       DC16     +2067,+2067,+2067,+2067
   \              1308        
   \   00001858   130813081308       DC16     +2067,+2067,+2067,+2067
   \              1308        
   \   00001860   130813081308       DC16     +2067,+2067,+2067,+2067
   \              1308        
   \   00001868   130813081308       DC16     +2067,+2067,+2067,+2067
   \              1308        
   \   00001870   130813081308       DC16     +2067,+2067,+2067,+2067
   \              1308        
   \   00001878   130813081308       DC16     +2067,+2067,+2067,+2067
   \              1308        
   \   00001880   130813081308       DC16     +2067,+2067,+2067,+2067
   \              1308        
   \   00001888   130813081308       DC16     +2067,+2067,+2067,+2067
   \              1308        
   \   00001890   130813081308       DC16     +2067,+2067,+2067,+2067
   \              1308        
   \   00001898   130813081308       DC16     +2067,+2067,+2067,+2067
   \              1308        
   \   000018A0   130813081308       DC16     +2067,+2067,+2067,+2067
   \              1308        
   \   000018A8   130813081308       DC16     +2067,+2067,+2067,+2067
   \              1308        
   \   000018B0   130813081308       DC16     +2067,+2067,+2067,+2067
   \              1308        
   \   000018B8   130813081308       DC16     +2067,+2067,+2067,+2067
   \              1308        
   \   000018C0   130813081308       DC16     +2067,+2067,+2067,+2067
   \              1308        
   \   000018C8   130813081308       DC16     +2067,+2067,+2067,+2067
   \              1308        
   \   000018D0   130813081308       DC16     +2067,+2067,+2067,+2067
   \              1308        
   \   000018D8   130813081308       DC16     +2067,+2067,+2067,+2067
   \              1308        
   \   000018E0   130813081308       DC16     +2067,+2067,+2067,+2067
   \              1308        
   \   000018E8   130813081308       DC16     +2067,+2067,+2067,+2067
   \              1308        
   \   000018F0   130813081308       DC16     +2067,+2067,+2067,+2067
   \              1308        
   \   000018F8   130813081308       DC16     +2067,+2067,+2067,+2067
   \              1308        
   \   00001900   130813081308       DC16     +2067,+2067,+2067,+2067
   \              1308        
   \   00001908   130813081308       DC16     +2067,+2067,+2067,+2067
   \              1308        
   \   00001910   130813081308       DC16     +2067,+2067,+2067,+2067
   \              1308        
   \   00001918   130813081308       DC16     +2067,+2067,+2067,+2067
   \              1308        
   \   00001920   130813081308       DC16     +2067,+2067,+2067,+2067
   \              1308        
   \   00001928   130813081308       DC16     +2067,+2067,+2067,+2067
   \              1308        
   \   00001930   130813081308       DC16     +2067,+2067,+2067,+2067
   \              1308        
   \   00001938   130813081308       DC16     +2067,+2067,+2067,+2067
   \              1308        
   \   00001940   130813081308       DC16     +2067,+2067,+2067,+2067
   \              1308        
   \   00001948   130813081308       DC16     +2067,+2067,+2067,+2067
   \              1308        
   \   00001950   130813081308       DC16     +2067,+2067,+2067,+2067
   \              1308        
   \   00001958   130813081308       DC16     +2067,+2067,+2067,+2067
   \              1308        
   \   00001960   130813081308       DC16     +2067,+2067,+2067,+2067
   \              1308        
   \   00001968   130813081308       DC16     +2067,+2067,+2067,+2067
   \              1308        
   \   00001970   130813081308       DC16     +2067,+2067,+2067,+2067
   \              1308        
   \   00001978   130813081308       DC16     +2067,+2067,+2067,+2067
   \              1308        
   \   00001980   130813081308       DC16     +2067,+2067,+2067,+2067
   \              1308        
   \   00001988   130813081308       DC16     +2067,+2067,+2067,+2067
   \              1308        
   \   00001990   130813081308       DC16     +2067,+2067,+2067,+2067
   \              1308        
   \   00001998   130813081308       DC16     +2067,+2067,+2067,+2067
   \              1308        
   \   000019A0   130813081308       DC16     +2067,+2067,+2067,+2067
   \              1308        
   \   000019A8   130813081308       DC16     +2067,+2067,+2067,+2067
   \              1308        
   \   000019B0   130813081308       DC16     +2067,+2067,+2067,+2067
   \              1308        
   \   000019B8   130813081308       DC16     +2067,+2067,+2067,+2067
   \              1308        
   \   000019C0   130813081308       DC16     +2067,+2067,+2067,+2067
   \              1308        
   \   000019C8   130813081308       DC16     +2067,+2067,+2067,+2067
   \              1308        
   \   000019D0   130813081308       DC16     +2067,+2067,+2067,+2067
   \              1308        
   \   000019D8   130813081308       DC16     +2067,+2067,+2067,+2067
   \              1308        
   \   000019E0   130813081308       DC16     +2067,+2067,+2067,+2067
   \              1308        
   \   000019E8   130813081308       DC16     +2067,+2067,+2067,+2067
   \              1308        
   \   000019F0   130813081308       DC16     +2067,+2067,+2067,+2067
   \              1308        
   \   000019F8   130813081308       DC16     +2067,+2067,+2067,+2067
   \              1308        
   \   00001A00   130813081308       DC16     +2067,+2067,+2067,+2067
   \              1308        
   \   00001A08   130813081308       DC16     +2067,+2067,+2067,+2067
   \              1308        
   \   00001A10   130813081308       DC16     +2067,+2067,+2067,+2067
   \              1308        
   \   00001A18   130813081308       DC16     +2067,+2067,+2067,+2067
   \              1308        
   \   00001A20   130813081308       DC16     +2067,+2067,+2067,+2067
   \              1308        
   \   00001A28   130813081308       DC16     +2067,+2067,+2067,+2067
   \              1308        
   \   00001A30   130813081308       DC16     +2067,+2067,+2067,+2067
   \              1308        
   \   00001A38   130813081308       DC16     +2067,+2067,+2067,+2067
   \              1308        
   \   00001A40   130813081308       DC16     +2067,+2067,+2067,+2067
   \              1308        
   \   00001A48   130813081308       DC16     +2067,+2067,+2067,+2067
   \              1308        
   \   00001A50   130813081308       DC16     +2067,+2067,+2067,+2067
   \              1308        
   \   00001A58   130813081308       DC16     +2067,+2067,+2067,+2067
   \              1308        
   \   00001A60   130813081308       DC16     +2067,+2067,+2067,+2067
   \              1308        
   \   00001A68   130813081308       DC16     +2067,+2067,+2067,+2067
   \              1308        
   \   00001A70   130813081308       DC16     +2067,+2067,+2067,+2067
   \              1308        
   \   00001A78   130813081308       DC16     +2067,+2067,+2067,+2067
   \              1308        
   \   00001A80   130813081308       DC16     +2067,+2067,+2067,+2067
   \              1308        
   \   00001A88   130813081308       DC16     +2067,+2067,+2067,+2067
   \              1308        
   \   00001A90   130813081308       DC16     +2067,+2067,+2067,+2067
   \              1308        
   \   00001A98   130813081308       DC16     +2067,+2067,+2067,+2067
   \              1308        
   \   00001AA0   130813081308       DC16     +2067,+2067,+2067,+2067
   \              1308        
   \   00001AA8   130813081308       DC16     +2067,+2067,+2067,+2067
   \              1308        
   \   00001AB0   130813081308       DC16     +2067,+2067,+2067,+2067
   \              1308        
   \   00001AB8   130813081308       DC16     +2067,+2067,+2067,+2067
   \              1308        
   \   00001AC0   130813081308       DC16     +2067,+2067,+2067,+2067
   \              1308        
   \   00001AC8   130813081308       DC16     +2067,+2067,+2067,+2067
   \              1308        
   \   00001AD0   130813081308       DC16     +2067,+2067,+2067,+2067
   \              1308        
   \   00001AD8   130813081308       DC16     +2067,+2067,+2067,+2067
   \              1308        
   \   00001AE0   130813081308       DC16     +2067,+2067,+2067,+2067
   \              1308        
   \   00001AE8   130813081308       DC16     +2067,+2067,+2067,+2067
   \              1308        
   \   00001AF0   130813081308       DC16     +2067,+2067,+2067,+2067
   \              1308        
   \   00001AF8   130813081308       DC16     +2067,+2067,+2067,+2067
   \              1308        
   \   00001B00   130813081308       DC16     +2067,+2067,+2067,+2067
   \              1308        
   \   00001B08   130813081308       DC16     +2067,+2067,+2067,+2067
   \              1308        
   \   00001B10   130813081308       DC16     +2067,+2067,+2067,+2067
   \              1308        
   \   00001B18   130813081308       DC16     +2067,+2067,+2067,+2067
   \              1308        
   \   00001B20   130813081308       DC16     +2067,+2067,+2067,+2067
   \              1308        
   \   00001B28   130813081308       DC16     +2067,+2067,+2067,+2067
   \              1308        
   \   00001B30   130813081308       DC16     +2067,+2067,+2067,+2067
   \              1308        
   \   00001B38   130813081308       DC16     +2067,+2067,+2067,+2067
   \              1308        
   \   00001B40   130813081308       DC16     +2067,+2067,+2067,+2067
   \              1308        
   \   00001B48   130813081308       DC16     +2067,+2067,+2067,+2067
   \              1308        
   \   00001B50   130813081308       DC16     +2067,+2067,+2067,+2067
   \              1308        
   \   00001B58   130813081308       DC16     +2067,+2067,+2067,+2067
   \              1308        
   \   00001B60   130813081308       DC16     +2067,+2067,+2067,+2067
   \              1308        
   \   00001B68   130813081308       DC16     +2067,+2067,+2067,+2067
   \              1308        
   \   00001B70   130813081308       DC16     +2067,+2067,+2067,+2067
   \              1308        
   \   00001B78   130813081308       DC16     +2067,+2067,+2067,+2067
   \              1308        
   \   00001B80   130813081308       DC16     +2067,+2067,+2067,+2067
   \              1308        
   \   00001B88   130813081308       DC16     +2067,+2067,+2067,+2067
   \              1308        
   \   00001B90   130813081308       DC16     +2067,+2067,+2067,+2067
   \              1308        
   \   00001B98   130813081308       DC16     +2067,+2067,+2067,+2067
   \              1308        
   \   00001BA0   130813081308       DC16     +2067,+2067,+2067,+2067
   \              1308        
   \   00001BA8   130813081308       DC16     +2067,+2067,+2067,+2067
   \              1308        
   \   00001BB0   130813081308       DC16     +2067,+2067,+2067,+2067
   \              1308        
   \   00001BB8   130813081308       DC16     +2067,+2067,+2067,+2067
   \              1308        
   \   00001BC0   130813081308       DC16     +2067,+2067,+2067,+2067
   \              1308        
   \   00001BC8   130813081308       DC16     +2067,+2067,+2067,+2067
   \              1308        
   \   00001BD0   130813081308       DC16     +2067,+2067,+2067,+2067
   \              1308        
   \   00001BD8   130813081308       DC16     +2067,+2067,+2067,+2067
   \              1308        
   \   00001BE0   130813081308       DC16     +2067,+2067,+2067,+2067
   \              1308        
   \   00001BE8   130813081308       DC16     +2067,+2067,+2067,+2067
   \              1308        
   \   00001BF0   130813081308       DC16     +2067,+2067,+2067,+2067
   \              1308        
   \   00001BF8   130813081308       DC16     +2067,+2067,+2067,+2067
   \              1308        
   \   00001C00   130813081308       DC16     +2067,+2067,+2067,+2067
   \              1308        
   \   00001C08   130813081308       DC16     +2067,+2067,+2067,+2067
   \              1308        
   \   00001C10   130813081308       DC16     +2067,+2067,+2067,+2067
   \              1308        
   \   00001C18   130813081308       DC16     +2067,+2067,+2067,+2067
   \              1308        
   \   00001C20   130813081308       DC16     +2067,+2067,+2067,+2067
   \              1308        
   \   00001C28   130813081308       DC16     +2067,+2067,+2067,+2067
   \              1308        
   \   00001C30   130813081308       DC16     +2067,+2067,+2067,+2067
   \              1308        
   \   00001C38   130813081308       DC16     +2067,+2067,+2067,+2067
   \              1308        
   \   00001C40   130813081308       DC16     +2067,+2067,+2067,+2067
   \              1308        
   \   00001C48   130813081308       DC16     +2067,+2067,+2067,+2067
   \              1308        
   \   00001C50   130813081308       DC16     +2067,+2067,+2067,+2067
   \              1308        
   \   00001C58   130813081308       DC16     +2067,+2067,+2067,+2067
   \              1308        
   \   00001C60   130813081308       DC16     +2067,+2067,+2067,+2067
   \              1308        
   \   00001C68   130813081308       DC16     +2067,+2067,+2067,+2067
   \              1308        
   \   00001C70   130813081308       DC16     +2067,+2067,+2067,+2067
   \              1308        
   \   00001C78   130813081308       DC16     +2067,+2067,+2067,+2067
   \              1308        
   \   00001C80   130813081308       DC16     +2067,+2067,+2067,+2067
   \              1308        
   \   00001C88   130813081308       DC16     +2067,+2067,+2067,+2067
   \              1308        
   \   00001C90   130813081308       DC16     +2067,+2067,+2067,+2067
   \              1308        
   \   00001C98   130813081308       DC16     +2067,+2067,+2067,+2067
   \              1308        
   \   00001CA0   130813081308       DC16     +2067,+2067,+2067,+2067
   \              1308        
   \   00001CA8   130813081308       DC16     +2067,+2067,+2067,+2067
   \              1308        
   \   00001CB0   130813081308       DC16     +2067,+2067,+2067,+2067
   \              1308        
   \   00001CB8   130813081308       DC16     +2067,+2067,+2067,+2067
   \              1308        
   \   00001CC0   130813081308       DC16     +2067,+2067,+2067,+2067
   \              1308        
   \   00001CC8   130813081308       DC16     +2067,+2067,+2067,+2067
   \              1308        
   \   00001CD0   130813081308       DC16     +2067,+2067,+2067,+2067
   \              1308        
   \   00001CD8   130813081308       DC16     +2067,+2067,+2067,+2067
   \              1308        
   \   00001CE0   130813081308       DC16     +2067,+2067,+2067,+2067
   \              1308        
   \   00001CE8   130813081308       DC16     +2067,+2067,+2067,+2067
   \              1308        
   \   00001CF0   130813081308       DC16     +2067,+2067,+2067,+2067
   \              1308        
   \   00001CF8   130813081308       DC16     +2067,+2067,+2067,+2067
   \              1308        
   \   00001D00   130813081308       DC16     +2067,+2067,+2067,+2067
   \              1308        
   \   00001D08   130813081308       DC16     +2067,+2067,+2067,+2067
   \              1308        
   \   00001D10   130813081308       DC16     +2067,+2067,+2067,+2067
   \              1308        
   \   00001D18   130813081308       DC16     +2067,+2067,+2067,+2067
   \              1308        
   \   00001D20   130813081308       DC16     +2067,+2067,+2067,+2067
   \              1308        
   \   00001D28   130813081308       DC16     +2067,+2067,+2067,+2067
   \              1308        
   \   00001D30   130813081308       DC16     +2067,+2067,+2067,+2067
   \              1308        
   \   00001D38   130813081308       DC16     +2067,+2067,+2067,+2067
   \              1308        
   \   00001D40   130813081308       DC16     +2067,+2067,+2067,+2067
   \              1308        
   \   00001D48   130813081308       DC16     +2067,+2067,+2067,+2067
   \              1308        
   \   00001D50   130813081308       DC16     +2067,+2067,+2067,+2067
   \              1308        
   \   00001D58   130813081308       DC16     +2067,+2067,+2067,+2067
   \              1308        
   \   00001D60   130813081308       DC16     +2067,+2067,+2067,+2067
   \              1308        
   \   00001D68   130813081308       DC16     +2067,+2067,+2067,+2067
   \              1308        
   \   00001D70   130813081308       DC16     +2067,+2067,+2067,+2067
   \              1308        
   \   00001D78   130813081308       DC16     +2067,+2067,+2067,+2067
   \              1308        
   \   00001D80   130813081308       DC16     +2067,+2067,+2067,+2067
   \              1308        
   \   00001D88   130813081308       DC16     +2067,+2067,+2067,+2067
   \              1308        
   \   00001D90   130813081308       DC16     +2067,+2067,+2067,+2067
   \              1308        
   \   00001D98   130813081308       DC16     +2067,+2067,+2067,+2067
   \              1308        
   \   00001DA0   130813081308       DC16     +2067,+2067,+2067,+2067
   \              1308        
   \   00001DA8   130813081308       DC16     +2067,+2067,+2067,+2067
   \              1308        
   \   00001DB0   130813081308       DC16     +2067,+2067,+2067,+2067
   \              1308        
   \   00001DB8   130813081308       DC16     +2067,+2067,+2067,+2067
   \              1308        
   \   00001DC0   130813081308       DC16     +2067,+2067,+2067,+2067
   \              1308        
   \   00001DC8   130813081308       DC16     +2067,+2067,+2067,+2067
   \              1308        
   \   00001DD0   130813081308       DC16     +2067,+2067,+2067,+2067
   \              1308        
   \   00001DD8   130813081308       DC16     +2067,+2067,+2067,+2067
   \              1308        
   \   00001DE0   130813081308       DC16     +2067,+2067,+2067,+2067
   \              1308        
   \   00001DE8   130813081308       DC16     +2067,+2067,+2067,+2067
   \              1308        
   \   00001DF0   130813081308       DC16     +2067,+2067,+2067,+2067
   \              1308        
   \   00001DF8   130813081308       DC16     +2067,+2067,+2067,+2067
   \              1308        
   \   00001E00   130813081308       DC16     +2067,+2067,+2067,+2067
   \              1308        
   \   00001E08   130813081308       DC16     +2067,+2067,+2067,+2067
   \              1308        
   \   00001E10   130813081308       DC16     +2067,+2067,+2067,+2067
   \              1308        
   \   00001E18   130813081308       DC16     +2067,+2067,+2067,+2067
   \              1308        
   \   00001E20   130813081308       DC16     +2067,+2067,+2067,+2067
   \              1308        
   \   00001E28   130813081308       DC16     +2067,+2067,+2067,+2067
   \              1308        
   \   00001E30   130813081308       DC16     +2067,+2067,+2067,+2067
   \              1308        
   \   00001E38   130813081308       DC16     +2067,+2067,+2067,+2067
   \              1308        
   \   00001E40   130813081308       DC16     +2067,+2067,+2067,+2067
   \              1308        
   \   00001E48   130813081308       DC16     +2067,+2067,+2067,+2067
   \              1308        
   \   00001E50   130813081308       DC16     +2067,+2067,+2067,+2067
   \              1308        
   \   00001E58   130813081308       DC16     +2067,+2067,+2067,+2067
   \              1308        
   \   00001E60   130813081308       DC16     +2067,+2067,+2067,+2067
   \              1308        
   \   00001E68   130813081308       DC16     +2067,+2067,+2067,+2067
   \              1308        
   \   00001E70   130813081308       DC16     +2067,+2067,+2067,+2067
   \              1308        
   \   00001E78   130813081308       DC16     +2067,+2067,+2067,+2067
   \              1308        
   \   00001E80   130813081308       DC16     +2067,+2067,+2067,+2067
   \              1308        
   \   00001E88   130813081308       DC16     +2067,+2067,+2067,+2067
   \              1308        
   \   00001E90   130813081308       DC16     +2067,+2067,+2067,+2067
   \              1308        
   \   00001E98   130813081308       DC16     +2067,+2067,+2067,+2067
   \              1308        
   \   00001EA0   130813081308       DC16     +2067,+2067,+2067,+2067
   \              1308        
   \   00001EA8   130813081308       DC16     +2067,+2067,+2067,+2067
   \              1308        
   \   00001EB0   130813081308       DC16     +2067,+2067,+2067,+2067
   \              1308        
   \   00001EB8   130813081308       DC16     +2067,+2067,+2067,+2067
   \              1308        
   \   00001EC0   130813081308       DC16     +2067,+2067,+2067,+2067
   \              1308        
   \   00001EC8   130813081308       DC16     +2067,+2067,+2067,+2067
   \              1308        
   \   00001ED0   130813081308       DC16     +2067,+2067,+2067,+2067
   \              1308        
   \   00001ED8   130813081308       DC16     +2067,+2067,+2067,+2067
   \              1308        
   \   00001EE0   130813081308       DC16     +2067,+2067,+2067,+2067
   \              1308        
   \   00001EE8   130813081308       DC16     +2067,+2067,+2067,+2067
   \              1308        
   \   00001EF0   130813081308       DC16     +2067,+2067,+2067,+2067
   \              1308        
   \   00001EF8   130813081308       DC16     +2067,+2067,+2067,+2067
   \              1308        
   \   00001F00   130813081308       DC16     +2067,+2067,+2067,+2067
   \              1308        
   \   00001F08   130813081308       DC16     +2067,+2067,+2067,+2067
   \              1308        
   \   00001F10   130813081308       DC16     +2067,+2067,+2067,+2067
   \              1308        
   \   00001F18   130813081308       DC16     +2067,+2067,+2067,+2067
   \              1308        
   \   00001F20   130813081308       DC16     +2067,+2067,+2067,+2067
   \              1308        
   \   00001F28   130813081308       DC16     +2067,+2067,+2067,+2067
   \              1308        
   \   00001F30   130813081308       DC16     +2067,+2067,+2067,+2067
   \              1308        
   \   00001F38   130813081308       DC16     +2067,+2067,+2067,+2067
   \              1308        
   \   00001F40   130813081308       DC16     +2067,+2067,+2067,+2067
   \              1308        
   \   00001F48   130813081308       DC16     +2067,+2067,+2067,+2067
   \              1308        
   \   00001F50   130813081308       DC16     +2067,+2067,+2067,+2067
   \              1308        
   \   00001F58   130813081308       DC16     +2067,+2067,+2067,+2067
   \              1308        
   \   00001F60   130813081308       DC16     +2067,+2067,+2067,+2067
   \              1308        
   \   00001F68   130813081308       DC16     +2067,+2067,+2067,+2067
   \              1308        
   \   00001F70   130813081308       DC16     +2067,+2067,+2067,+2067
   \              1308        
   \   00001F78   130813081308       DC16     +2067,+2067,+2067,+2067
   \              1308        
   \   00001F80   130813081308       DC16     +2067,+2067,+2067,+2067
   \              1308        
   \   00001F88   130813081308       DC16     +2067,+2067,+2067,+2067
   \              1308        
   \   00001F90   130813081308       DC16     +2067,+2067,+2067,+2067
   \              1308        
   \   00001F98   130813081308       DC16     +2067,+2067,+2067,+2067
   \              1308        
   \   00001FA0   130813081308       DC16     +2067,+2067,+2067,+2067
   \              1308        
   \   00001FA8   130813081308       DC16     +2067,+2067,+2067,+2067
   \              1308        
   \   00001FB0   130813081308       DC16     +2067,+2067,+2067,+2067
   \              1308        
   \   00001FB8   130813081308       DC16     +2067,+2067,+2067,+2067
   \              1308        
   \   00001FC0   130813081308       DC16     +2067,+2067,+2067,+2067
   \              1308        
   \   00001FC8   130813081308       DC16     +2067,+2067,+2067,+2067
   \              1308        
   \   00001FD0   130813081308       DC16     +2067,+2067,+2067,+2067
   \              1308        
   \   00001FD8   130813081308       DC16     +2067,+2067,+2067,+2067
   \              1308        
   \   00001FE0   130813081308       DC16     +2067,+2067,+2067,+2067
   \              1308        
   \   00001FE8   130813081308       DC16     +2067,+2067,+2067,+2067
   \              1308        
   \   00001FF0   130813081308       DC16     +2067,+2067,+2067,+2067
   \              1308        
   \   00001FF8   130813081308       DC16     +2067,+2067,+2067,+2067
   \              1308        
   \   00002000   130813081308       DC16     +2067,+2067,+2067,+2067
   \              1308        
   \   00002008   130813081308       DC16     +2067,+2067,+2067,+2067
   \              1308        
   \   00002010   130813081308       DC16     +2067,+2067,+2067,+2067
   \              1308        
   \   00002018   130813081308       DC16     +2067,+2067,+2067,+2067
   \              1308        
   \   00002020   130813081308       DC16     +2067,+2067,+2067,+2067
   \              1308        
   \   00002028   130813081308       DC16     +2067,+2067,+2067,+2067
   \              1308        
   \   00002030   130813081308       DC16     +2067,+2067,+2067,+2067
   \              1308        
   \   00002038   130813081308       DC16     +2067,+2067,+2067,+2067
   \              1308        
   \   00002040   130813081308       DC16     +2067,+2067,+2067,+2067
   \              1308        
   \   00002048   130813081308       DC16     +2067,+2067,+2067,+2067
   \              1308        
   \   00002050   130813081308       DC16     +2067,+2067,+2067,+2067
   \              1308        
   \   00002058   130813081308       DC16     +2067,+2067,+2067,+2067
   \              1308        
   \   00002060   130813081308       DC16     +2067,+2067,+2067,+2067
   \              1308        
   \   00002068   130813081308       DC16     +2067,+2067,+2067,+2067
   \              1308        
   \   00002070   130813081308       DC16     +2067,+2067,+2067,+2067
   \              1308        
   \   00002078   130813081308       DC16     +2067,+2067,+2067,+2067
   \              1308        
   \   00002080   130813081308       DC16     +2067,+2067,+2067,+2067
   \              1308        
   \   00002088   130813081308       DC16     +2067,+2067,+2067,+2067
   \              1308        
   \   00002090   130813081308       DC16     +2067,+2067,+2067,+2067
   \              1308        
   \   00002098   040804080408       DC16     +2052,+2052,+2052,+2067
   \              1308        
   \   000020A0   08080000           DC16     +2056,+0
   1482                 
   1483              case SO_ACCEPTCONN:
   1484              case SO_BROADCAST:
   1485              /* UNIMPL case SO_DEBUG: */
   1486              /* UNIMPL case SO_DONTROUTE: */
   1487              case SO_ERROR:
   1488              case SO_KEEPALIVE:
   1489              /* UNIMPL case SO_CONTIMEO: */
   1490          #if LWIP_SO_SNDTIMEO
   1491              case SO_SNDTIMEO:
   1492          #endif /* LWIP_SO_SNDTIMEO */
   1493          #if LWIP_SO_RCVTIMEO
   1494              case SO_RCVTIMEO:
   1495          #endif /* LWIP_SO_RCVTIMEO */
   1496          #if LWIP_SO_RCVBUF
   1497              case SO_RCVBUF:
   1498          #endif /* LWIP_SO_RCVBUF */
   1499              /* UNIMPL case SO_OOBINLINE: */
   1500              /* UNIMPL case SO_SNDBUF: */
   1501              /* UNIMPL case SO_RCVLOWAT: */
   1502              /* UNIMPL case SO_SNDLOWAT: */
   1503          #if SO_REUSE
   1504              case SO_REUSEADDR:
   1505              case SO_REUSEPORT:
   1506          #endif /* SO_REUSE */
   1507              case SO_TYPE:
   1508              /* UNIMPL case SO_USELOOPBACK: */
   1509                if (*optlen < sizeof(int)) {
   \                     ??lwip_getsockopt_7:
   \   000020A4   040051E3           CMP      R1,#+4
   \   000020A8   1F00002A           BCS      ??lwip_getsockopt_8
   1510                  err = EINVAL;
   \   000020AC   1690A0E3           MOV      R9,#+22
   \   000020B0   1B0000EA           B        ??lwip_getsockopt_9
   1511                }
   1512                break;
   1513          
   1514              case SO_NO_CHECK:
   1515                if (*optlen < sizeof(int)) {
   \                     ??lwip_getsockopt_10:
   \   000020B4   040051E3           CMP      R1,#+4
   1516                  err = EINVAL;
   1517                }
   1518          #if LWIP_UDP
   1519                if ((sock->conn->type != NETCONN_UDP) ||
   1520                    ((udp_flags(sock->conn->pcb.udp) & UDP_FLAGS_UDPLITE) != 0)) {
   \   000020B8   0010D0E5           LDRB     R1,[R0, #+0]
   \   000020BC   1690A033           MOVCC    R9,#+22
   \   000020C0   200051E3           CMP      R1,#+32
   \   000020C4   0300001A           BNE      ??lwip_getsockopt_11
   \   000020C8   040090E5           LDR      R0,[R0, #+4]
   \   000020CC   1000D0E5           LDRB     R0,[R0, #+16]
   \   000020D0   020010E3           TST      R0,#0x2
   \   000020D4   1000000A           BEQ      ??lwip_getsockopt_12
   1521                  /* this flag is only available for UDP, not for UDP lite */
   1522                  err = EAFNOSUPPORT;
   \                     ??lwip_getsockopt_11:
   \   000020D8   6190A0E3           MOV      R9,#+97
   \   000020DC   100000EA           B        ??lwip_getsockopt_9
   1523                }
   1524          #endif /* LWIP_UDP */
   1525                break;
   1526          
   1527              default:
   1528                LWIP_DEBUGF(SOCKETS_DEBUG, ("lwip_getsockopt(%d, SOL_SOCKET, UNIMPL: optname=0x%x, ..)\n",
   1529                                            s, optname));
   1530                err = ENOPROTOOPT;
   \                     ??lwip_getsockopt_6:
   \   000020E0   5C90A0E3           MOV      R9,#+92
   \   000020E4   0E0000EA           B        ??lwip_getsockopt_9
   1531              }  /* switch (optname) */
   1532              break;
   1533                               
   1534          /* Level: IPPROTO_IP */
   1535            case IPPROTO_IP:
   1536              switch (optname) {
   \                     ??lwip_getsockopt_4:
   \   000020E8   010045E2           SUB      R0,R5,#+1
   \   000020EC   010050E3           CMP      R0,#+1
   \   000020F0   FAFFFF8A           BHI      ??lwip_getsockopt_6
   1537              /* UNIMPL case IP_HDRINCL: */
   1538              /* UNIMPL case IP_RCVDSTADDR: */
   1539              /* UNIMPL case IP_RCVIF: */
   1540              case IP_TTL:
   1541              case IP_TOS:
   1542                if (*optlen < sizeof(int)) {
   \   000020F4   EAFFFFEA           B        ??lwip_getsockopt_7
   1543                  err = EINVAL;
   1544                }
   1545                break;
   1546          #if LWIP_IGMP
   1547              case IP_MULTICAST_TTL:
   1548                if (*optlen < sizeof(u8_t)) {
   1549                  err = EINVAL;
   1550                }
   1551                break;
   1552              case IP_MULTICAST_IF:
   1553                if (*optlen < sizeof(struct in_addr)) {
   1554                  err = EINVAL;
   1555                }
   1556                break;
   1557              case IP_MULTICAST_LOOP:
   1558                if (*optlen < sizeof(u8_t)) {
   1559                  err = EINVAL;
   1560                }
   1561                if (NETCONNTYPE_GROUP(sock->conn->type) != NETCONN_UDP) {
   1562                  err = EAFNOSUPPORT;
   1563                }
   1564                break;
   1565          #endif /* LWIP_IGMP */
   1566          
   1567              default:
   1568                LWIP_DEBUGF(SOCKETS_DEBUG, ("lwip_getsockopt(%d, IPPROTO_IP, UNIMPL: optname=0x%x, ..)\n",
   1569                                            s, optname));
   1570                err = ENOPROTOOPT;
   1571              }  /* switch (optname) */
   1572              break;
   1573                   
   1574          #if LWIP_TCP
   1575          /* Level: IPPROTO_TCP */
   1576            case IPPROTO_TCP:
   1577              if (*optlen < sizeof(int)) {
   \                     ??lwip_getsockopt_5:
   \   000020F8   040051E3           CMP      R1,#+4
   1578                err = EINVAL;
   \   000020FC   1690A033           MOVCC    R9,#+22
   1579                break;
   \   00002100   0700003A           BCC      ??lwip_getsockopt_9
   1580              }
   1581              
   1582              /* If this is no TCP socket, ignore any options. */
   1583              if (sock->conn->type != NETCONN_TCP)
   \   00002104   0000D0E5           LDRB     R0,[R0, #+0]
   \   00002108   100050E3           CMP      R0,#+16
   \   0000210C   1900001A           BNE      ??lwip_getsockopt_13
   1584                return 0;
   1585          
   1586              switch (optname) {
   \   00002110   010045E2           SUB      R0,R5,#+1
   \   00002114   040050E3           CMP      R0,#+4
   \   00002118   F0FFFF8A           BHI      ??lwip_getsockopt_6
   1587              case TCP_NODELAY:
   1588              case TCP_KEEPALIVE:
   1589          #if LWIP_TCP_KEEPALIVE
   1590              case TCP_KEEPIDLE:
   1591              case TCP_KEEPINTVL:
   1592              case TCP_KEEPCNT:
   1593          #endif /* LWIP_TCP_KEEPALIVE */
   1594                break;
   1595                 
   1596              default:
   1597                LWIP_DEBUGF(SOCKETS_DEBUG, ("lwip_getsockopt(%d, IPPROTO_TCP, UNIMPL: optname=0x%x, ..)\n",
   1598                                            s, optname));
   1599                err = ENOPROTOOPT;
   1600              }  /* switch (optname) */
   1601              break;
   1602          #endif /* LWIP_TCP */
   1603          #if LWIP_UDP && LWIP_UDPLITE
   1604          /* Level: IPPROTO_UDPLITE */
   1605            case IPPROTO_UDPLITE:
   1606              if (*optlen < sizeof(int)) {
   1607                err = EINVAL;
   1608                break;
   1609              }
   1610              
   1611              /* If this is no UDP lite socket, ignore any options. */
   1612              if (sock->conn->type != NETCONN_UDPLITE) {
   1613                return 0;
   1614              }
   1615          
   1616              switch (optname) {
   1617              case UDPLITE_SEND_CSCOV:
   1618              case UDPLITE_RECV_CSCOV:
   1619                break;
   1620                 
   1621              default:
   1622                LWIP_DEBUGF(SOCKETS_DEBUG, ("lwip_getsockopt(%d, IPPROTO_UDPLITE, UNIMPL: optname=0x%x, ..)\n",
   1623                                            s, optname));
   1624                err = ENOPROTOOPT;
   1625              }  /* switch (optname) */
   1626              break;
   1627          #endif /* LWIP_UDP && LWIP_UDPLITE*/
   1628          /* UNDEFINED LEVEL */
   1629            default:
   1630                LWIP_DEBUGF(SOCKETS_DEBUG, ("lwip_getsockopt(%d, level=0x%x, UNIMPL: optname=0x%x, ..)\n",
   1631                                            s, level, optname));
   1632                err = ENOPROTOOPT;
   1633            }  /* switch */
   1634          
   1635             
   1636            if (err != ERR_OK) {
   \                     ??lwip_getsockopt_12:
   \   0000211C   000059E3           CMP      R9,#+0
   \   00002120   0100000A           BEQ      ??lwip_getsockopt_8
   1637              sock_set_errno(sock, err);
   \                     ??lwip_getsockopt_9:
   \   00002124   10908AE5           STR      R9,[R10, #+16]
   1638              return -1;
   \   00002128   BFF7FFEA           B        ??lwip_getsockopt_2
   1639            }
   1640          
   1641            /* Now do the actual option processing */
   1642            data.sock = sock;
   1643          #ifdef LWIP_DEBUG
   1644            data.s = s;
   1645          #endif /* LWIP_DEBUG */
   1646            data.level = level;
   1647            data.optname = optname;
   1648            data.optval = optval;
   1649            data.optlen = optlen;
   1650            data.err = err;
   1651            tcpip_callback(lwip_getsockopt_internal, &data);
   \                     ??lwip_getsockopt_8:
   \   0000212C   54009FE5           LDR      R0,??lwip_getsockopt_14  ;; lwip_getsockopt_internal
   \   00002130   00A08DE5           STR      R10,[SP, #+0]
   \   00002134   04408DE5           STR      R4,[SP, #+4]
   \   00002138   08508DE5           STR      R5,[SP, #+8]
   \   0000213C   0C608DE5           STR      R6,[SP, #+12]
   \   00002140   10708DE5           STR      R7,[SP, #+16]
   \   00002144   1480CDE5           STRB     R8,[SP, #+20]
   \   00002148   0120A0E3           MOV      R2,#+1
   \   0000214C   0D10A0E1           MOV      R1,SP
   \   00002150   ........           _BLF     tcpip_callback_with_block,??tcpip_callback_with_block??rA
   1652            sys_arch_sem_wait(&sock->conn->op_completed, 0);
   \   00002154   00009AE5           LDR      R0,[R10, #+0]
   \   00002158   0010A0E3           MOV      R1,#+0
   \   0000215C   0C0080E2           ADD      R0,R0,#+12
   \   00002160   ........           _BLF     sys_arch_sem_wait,??sys_arch_sem_wait??rA
   1653            /* maybe lwip_getsockopt_internal has changed err */
   1654            err = data.err;
   \   00002164   D401DDE1           LDRSB    R0,[SP, #+20]
   1655          
   1656            sock_set_errno(sock, err);
   \   00002168   000050E3           CMP      R0,#+0
   \   0000216C   10008AE5           STR      R0,[R10, #+16]
   1657            return err ? -1 : 0;
   \   00002170   0800E011           MVNNE    R0,R8
   \   00002174   0000001A           BNE      ??lwip_getsockopt_3
   \                     ??lwip_getsockopt_13:
   \   00002178   0000A0E3           MOV      R0,#+0
   \                     ??lwip_getsockopt_3:
   \   0000217C   18D08DE2           ADD      SP,SP,#+24
   \   00002180   F047BDE8           POP      {R4-R10,LR}
   \   00002184   1EFF2FE1           BX       LR               ;; return
   \                     ??lwip_getsockopt_14:
   \   00002188   ........           DC32     lwip_getsockopt_internal
   1658          }
   1659          

   \                                 In segment CODE, align 4, keep-with-next
   1660          static void
   1661          lwip_getsockopt_internal(void *arg)
   1662          {
   \                     lwip_getsockopt_internal:
   \   00000000   10402DE9           PUSH     {R4,LR}
   1663            struct lwip_sock *sock;
   1664          #ifdef LWIP_DEBUG
   1665            int s;
   1666          #endif /* LWIP_DEBUG */
   1667            int level, optname;
   1668            void *optval;
   1669            struct lwip_setgetsockopt_data *data;
   1670          
   1671            LWIP_ASSERT("arg != NULL", arg != NULL);
   1672          
   1673            data = (struct lwip_setgetsockopt_data*)arg;
   1674            sock = data->sock;
   \   00000004   001090E5           LDR      R1,[R0, #+0]
   1675          #ifdef LWIP_DEBUG
   1676            s = data->s;
   1677          #endif /* LWIP_DEBUG */
   1678            level = data->level;
   1679            optname = data->optname;
   \   00000008   083090E5           LDR      R3,[R0, #+8]
   1680            optval = data->optval;
   \   0000000C   0C2090E5           LDR      R2,[R0, #+12]
   1681          
   1682            switch (level) {
   \   00000010   040090E5           LDR      R0,[R0, #+4]
   \   00000014   000050E3           CMP      R0,#+0
   \   00000018   4008000A           BEQ      ??lwip_getsockopt_internal_2
   \   0000001C   060050E3           CMP      R0,#+6
   \   00000020   4908000A           BEQ      ??lwip_getsockopt_internal_3
   \   00000024   FFC0A0E3           MOV      R12,#+255
   \   00000028   F0CE8CE3           ORR      R12,R12,#0xF00
   \   0000002C   0C0050E1           CMP      R0,R12
   \   00000030   6408001A           BNE      ??lwip_getsockopt_internal_4
   1683          
   1684          /* Level: SOL_SOCKET */
   1685            case SOL_SOCKET:
   1686              switch (optname) {
   \   00000034   000091E5           LDR      R0,[R1, #+0]
   \   00000038   02C043E2           SUB      R12,R3,#+2
   \   0000003C   0840A0E3           MOV      R4,#+8
   \   00000040   404D84E3           ORR      R4,R4,#0x1000
   \   00000044   04005CE1           CMP      R12,R4
   \   00000048   5E08008A           BHI      ??lwip_getsockopt_internal_4
   \   0000004C   024F8FE2           ADR      R4,??lwip_getsockopt_internal_0
   \   00000050   8CC0A0E1           MOV      R12,R12, LSL #+1
   \   00000054   BC4094E1           LDRH     R4,[R4, R12]
   \   00000058   04F18FE0           ADD      PC,PC,R4, LSL #+2
   \                     ??lwip_getsockopt_internal_0:
   \   0000005C   04085A080408       DC16     +2052,+2138,+2052,+2138
   \              5A08        
   \   00000064   5A085A080408       DC16     +2138,+2138,+2052,+2138
   \              5A08        
   \   0000006C   5A085A085A08       DC16     +2138,+2138,+2138,+2138
   \              5A08        
   \   00000074   5A085A085A08       DC16     +2138,+2138,+2138,+2138
   \              5A08        
   \   0000007C   5A085A085A08       DC16     +2138,+2138,+2138,+2138
   \              5A08        
   \   00000084   5A085A085A08       DC16     +2138,+2138,+2138,+2138
   \              5A08        
   \   0000008C   5A085A085A08       DC16     +2138,+2138,+2138,+2138
   \              5A08        
   \   00000094   5A085A080408       DC16     +2138,+2138,+2052,+2138
   \              5A08        
   \   0000009C   5A085A085A08       DC16     +2138,+2138,+2138,+2138
   \              5A08        
   \   000000A4   5A085A085A08       DC16     +2138,+2138,+2138,+2138
   \              5A08        
   \   000000AC   5A085A085A08       DC16     +2138,+2138,+2138,+2138
   \              5A08        
   \   000000B4   5A085A085A08       DC16     +2138,+2138,+2138,+2138
   \              5A08        
   \   000000BC   5A085A085A08       DC16     +2138,+2138,+2138,+2138
   \              5A08        
   \   000000C4   5A085A085A08       DC16     +2138,+2138,+2138,+2138
   \              5A08        
   \   000000CC   5A085A085A08       DC16     +2138,+2138,+2138,+2138
   \              5A08        
   \   000000D4   5A085A085A08       DC16     +2138,+2138,+2138,+2138
   \              5A08        
   \   000000DC   5A085A085A08       DC16     +2138,+2138,+2138,+2138
   \              5A08        
   \   000000E4   5A085A085A08       DC16     +2138,+2138,+2138,+2138
   \              5A08        
   \   000000EC   5A085A085A08       DC16     +2138,+2138,+2138,+2138
   \              5A08        
   \   000000F4   5A085A085A08       DC16     +2138,+2138,+2138,+2138
   \              5A08        
   \   000000FC   5A085A085A08       DC16     +2138,+2138,+2138,+2138
   \              5A08        
   \   00000104   5A085A085A08       DC16     +2138,+2138,+2138,+2138
   \              5A08        
   \   0000010C   5A085A085A08       DC16     +2138,+2138,+2138,+2138
   \              5A08        
   \   00000114   5A085A085A08       DC16     +2138,+2138,+2138,+2138
   \              5A08        
   \   0000011C   5A085A085A08       DC16     +2138,+2138,+2138,+2138
   \              5A08        
   \   00000124   5A085A085A08       DC16     +2138,+2138,+2138,+2138
   \              5A08        
   \   0000012C   5A085A085A08       DC16     +2138,+2138,+2138,+2138
   \              5A08        
   \   00000134   5A085A085A08       DC16     +2138,+2138,+2138,+2138
   \              5A08        
   \   0000013C   5A085A085A08       DC16     +2138,+2138,+2138,+2138
   \              5A08        
   \   00000144   5A085A085A08       DC16     +2138,+2138,+2138,+2138
   \              5A08        
   \   0000014C   5A085A085A08       DC16     +2138,+2138,+2138,+2138
   \              5A08        
   \   00000154   5A085A085A08       DC16     +2138,+2138,+2138,+2138
   \              5A08        
   \   0000015C   5A085A085A08       DC16     +2138,+2138,+2138,+2138
   \              5A08        
   \   00000164   5A085A085A08       DC16     +2138,+2138,+2138,+2138
   \              5A08        
   \   0000016C   5A085A085A08       DC16     +2138,+2138,+2138,+2138
   \              5A08        
   \   00000174   5A085A085A08       DC16     +2138,+2138,+2138,+2138
   \              5A08        
   \   0000017C   5A085A085A08       DC16     +2138,+2138,+2138,+2138
   \              5A08        
   \   00000184   5A085A085A08       DC16     +2138,+2138,+2138,+2138
   \              5A08        
   \   0000018C   5A085A085A08       DC16     +2138,+2138,+2138,+2138
   \              5A08        
   \   00000194   5A085A085A08       DC16     +2138,+2138,+2138,+2138
   \              5A08        
   \   0000019C   5A085A085A08       DC16     +2138,+2138,+2138,+2138
   \              5A08        
   \   000001A4   5A085A085A08       DC16     +2138,+2138,+2138,+2138
   \              5A08        
   \   000001AC   5A085A085A08       DC16     +2138,+2138,+2138,+2138
   \              5A08        
   \   000001B4   5A085A085A08       DC16     +2138,+2138,+2138,+2138
   \              5A08        
   \   000001BC   5A085A085A08       DC16     +2138,+2138,+2138,+2138
   \              5A08        
   \   000001C4   5A085A085A08       DC16     +2138,+2138,+2138,+2138
   \              5A08        
   \   000001CC   5A085A085A08       DC16     +2138,+2138,+2138,+2138
   \              5A08        
   \   000001D4   5A085A085A08       DC16     +2138,+2138,+2138,+2138
   \              5A08        
   \   000001DC   5A085A085A08       DC16     +2138,+2138,+2138,+2138
   \              5A08        
   \   000001E4   5A085A085A08       DC16     +2138,+2138,+2138,+2138
   \              5A08        
   \   000001EC   5A085A085A08       DC16     +2138,+2138,+2138,+2138
   \              5A08        
   \   000001F4   5A085A085A08       DC16     +2138,+2138,+2138,+2138
   \              5A08        
   \   000001FC   5A085A085A08       DC16     +2138,+2138,+2138,+2138
   \              5A08        
   \   00000204   5A085A085A08       DC16     +2138,+2138,+2138,+2138
   \              5A08        
   \   0000020C   5A085A085A08       DC16     +2138,+2138,+2138,+2138
   \              5A08        
   \   00000214   5A085A085A08       DC16     +2138,+2138,+2138,+2138
   \              5A08        
   \   0000021C   5A085A085A08       DC16     +2138,+2138,+2138,+2138
   \              5A08        
   \   00000224   5A085A085A08       DC16     +2138,+2138,+2138,+2138
   \              5A08        
   \   0000022C   5A085A085A08       DC16     +2138,+2138,+2138,+2138
   \              5A08        
   \   00000234   5A085A085A08       DC16     +2138,+2138,+2138,+2138
   \              5A08        
   \   0000023C   5A085A085A08       DC16     +2138,+2138,+2138,+2138
   \              5A08        
   \   00000244   5A085A085A08       DC16     +2138,+2138,+2138,+2138
   \              5A08        
   \   0000024C   5A085A085A08       DC16     +2138,+2138,+2138,+2138
   \              5A08        
   \   00000254   5A085A085A08       DC16     +2138,+2138,+2138,+2138
   \              5A08        
   \   0000025C   5A085A085A08       DC16     +2138,+2138,+2138,+2138
   \              5A08        
   \   00000264   5A085A085A08       DC16     +2138,+2138,+2138,+2138
   \              5A08        
   \   0000026C   5A085A085A08       DC16     +2138,+2138,+2138,+2138
   \              5A08        
   \   00000274   5A085A085A08       DC16     +2138,+2138,+2138,+2138
   \              5A08        
   \   0000027C   5A085A085A08       DC16     +2138,+2138,+2138,+2138
   \              5A08        
   \   00000284   5A085A085A08       DC16     +2138,+2138,+2138,+2138
   \              5A08        
   \   0000028C   5A085A085A08       DC16     +2138,+2138,+2138,+2138
   \              5A08        
   \   00000294   5A085A085A08       DC16     +2138,+2138,+2138,+2138
   \              5A08        
   \   0000029C   5A085A085A08       DC16     +2138,+2138,+2138,+2138
   \              5A08        
   \   000002A4   5A085A085A08       DC16     +2138,+2138,+2138,+2138
   \              5A08        
   \   000002AC   5A085A085A08       DC16     +2138,+2138,+2138,+2138
   \              5A08        
   \   000002B4   5A085A085A08       DC16     +2138,+2138,+2138,+2138
   \              5A08        
   \   000002BC   5A085A085A08       DC16     +2138,+2138,+2138,+2138
   \              5A08        
   \   000002C4   5A085A085A08       DC16     +2138,+2138,+2138,+2138
   \              5A08        
   \   000002CC   5A085A085A08       DC16     +2138,+2138,+2138,+2138
   \              5A08        
   \   000002D4   5A085A085A08       DC16     +2138,+2138,+2138,+2138
   \              5A08        
   \   000002DC   5A085A085A08       DC16     +2138,+2138,+2138,+2138
   \              5A08        
   \   000002E4   5A085A085A08       DC16     +2138,+2138,+2138,+2138
   \              5A08        
   \   000002EC   5A085A085A08       DC16     +2138,+2138,+2138,+2138
   \              5A08        
   \   000002F4   5A085A085A08       DC16     +2138,+2138,+2138,+2138
   \              5A08        
   \   000002FC   5A085A085A08       DC16     +2138,+2138,+2138,+2138
   \              5A08        
   \   00000304   5A085A085A08       DC16     +2138,+2138,+2138,+2138
   \              5A08        
   \   0000030C   5A085A085A08       DC16     +2138,+2138,+2138,+2138
   \              5A08        
   \   00000314   5A085A085A08       DC16     +2138,+2138,+2138,+2138
   \              5A08        
   \   0000031C   5A085A085A08       DC16     +2138,+2138,+2138,+2138
   \              5A08        
   \   00000324   5A085A085A08       DC16     +2138,+2138,+2138,+2138
   \              5A08        
   \   0000032C   5A085A085A08       DC16     +2138,+2138,+2138,+2138
   \              5A08        
   \   00000334   5A085A085A08       DC16     +2138,+2138,+2138,+2138
   \              5A08        
   \   0000033C   5A085A085A08       DC16     +2138,+2138,+2138,+2138
   \              5A08        
   \   00000344   5A085A085A08       DC16     +2138,+2138,+2138,+2138
   \              5A08        
   \   0000034C   5A085A085A08       DC16     +2138,+2138,+2138,+2138
   \              5A08        
   \   00000354   5A085A085A08       DC16     +2138,+2138,+2138,+2138
   \              5A08        
   \   0000035C   5A085A085A08       DC16     +2138,+2138,+2138,+2138
   \              5A08        
   \   00000364   5A085A085A08       DC16     +2138,+2138,+2138,+2138
   \              5A08        
   \   0000036C   5A085A085A08       DC16     +2138,+2138,+2138,+2138
   \              5A08        
   \   00000374   5A085A085A08       DC16     +2138,+2138,+2138,+2138
   \              5A08        
   \   0000037C   5A085A085A08       DC16     +2138,+2138,+2138,+2138
   \              5A08        
   \   00000384   5A085A085A08       DC16     +2138,+2138,+2138,+2138
   \              5A08        
   \   0000038C   5A085A085A08       DC16     +2138,+2138,+2138,+2138
   \              5A08        
   \   00000394   5A085A085A08       DC16     +2138,+2138,+2138,+2138
   \              5A08        
   \   0000039C   5A085A085A08       DC16     +2138,+2138,+2138,+2138
   \              5A08        
   \   000003A4   5A085A085A08       DC16     +2138,+2138,+2138,+2138
   \              5A08        
   \   000003AC   5A085A085A08       DC16     +2138,+2138,+2138,+2138
   \              5A08        
   \   000003B4   5A085A085A08       DC16     +2138,+2138,+2138,+2138
   \              5A08        
   \   000003BC   5A085A085A08       DC16     +2138,+2138,+2138,+2138
   \              5A08        
   \   000003C4   5A085A085A08       DC16     +2138,+2138,+2138,+2138
   \              5A08        
   \   000003CC   5A085A085A08       DC16     +2138,+2138,+2138,+2138
   \              5A08        
   \   000003D4   5A085A085A08       DC16     +2138,+2138,+2138,+2138
   \              5A08        
   \   000003DC   5A085A085A08       DC16     +2138,+2138,+2138,+2138
   \              5A08        
   \   000003E4   5A085A085A08       DC16     +2138,+2138,+2138,+2138
   \              5A08        
   \   000003EC   5A085A085A08       DC16     +2138,+2138,+2138,+2138
   \              5A08        
   \   000003F4   5A085A085A08       DC16     +2138,+2138,+2138,+2138
   \              5A08        
   \   000003FC   5A085A085A08       DC16     +2138,+2138,+2138,+2138
   \              5A08        
   \   00000404   5A085A085A08       DC16     +2138,+2138,+2138,+2138
   \              5A08        
   \   0000040C   5A085A085A08       DC16     +2138,+2138,+2138,+2138
   \              5A08        
   \   00000414   5A085A085A08       DC16     +2138,+2138,+2138,+2138
   \              5A08        
   \   0000041C   5A085A085A08       DC16     +2138,+2138,+2138,+2138
   \              5A08        
   \   00000424   5A085A085A08       DC16     +2138,+2138,+2138,+2138
   \              5A08        
   \   0000042C   5A085A085A08       DC16     +2138,+2138,+2138,+2138
   \              5A08        
   \   00000434   5A085A085A08       DC16     +2138,+2138,+2138,+2138
   \              5A08        
   \   0000043C   5A085A085A08       DC16     +2138,+2138,+2138,+2138
   \              5A08        
   \   00000444   5A085A085A08       DC16     +2138,+2138,+2138,+2138
   \              5A08        
   \   0000044C   5A085A085A08       DC16     +2138,+2138,+2138,+2138
   \              5A08        
   \   00000454   5A085A080408       DC16     +2138,+2138,+2052,+2138
   \              5A08        
   \   0000045C   5A085A085A08       DC16     +2138,+2138,+2138,+2138
   \              5A08        
   \   00000464   5A085A085A08       DC16     +2138,+2138,+2138,+2138
   \              5A08        
   \   0000046C   5A085A085A08       DC16     +2138,+2138,+2138,+2138
   \              5A08        
   \   00000474   5A085A085A08       DC16     +2138,+2138,+2138,+2138
   \              5A08        
   \   0000047C   5A085A085A08       DC16     +2138,+2138,+2138,+2138
   \              5A08        
   \   00000484   5A085A085A08       DC16     +2138,+2138,+2138,+2138
   \              5A08        
   \   0000048C   5A085A085A08       DC16     +2138,+2138,+2138,+2138
   \              5A08        
   \   00000494   5A085A085A08       DC16     +2138,+2138,+2138,+2138
   \              5A08        
   \   0000049C   5A085A085A08       DC16     +2138,+2138,+2138,+2138
   \              5A08        
   \   000004A4   5A085A085A08       DC16     +2138,+2138,+2138,+2138
   \              5A08        
   \   000004AC   5A085A085A08       DC16     +2138,+2138,+2138,+2138
   \              5A08        
   \   000004B4   5A085A085A08       DC16     +2138,+2138,+2138,+2138
   \              5A08        
   \   000004BC   5A085A085A08       DC16     +2138,+2138,+2138,+2138
   \              5A08        
   \   000004C4   5A085A085A08       DC16     +2138,+2138,+2138,+2138
   \              5A08        
   \   000004CC   5A085A085A08       DC16     +2138,+2138,+2138,+2138
   \              5A08        
   \   000004D4   5A085A085A08       DC16     +2138,+2138,+2138,+2138
   \              5A08        
   \   000004DC   5A085A085A08       DC16     +2138,+2138,+2138,+2138
   \              5A08        
   \   000004E4   5A085A085A08       DC16     +2138,+2138,+2138,+2138
   \              5A08        
   \   000004EC   5A085A085A08       DC16     +2138,+2138,+2138,+2138
   \              5A08        
   \   000004F4   5A085A085A08       DC16     +2138,+2138,+2138,+2138
   \              5A08        
   \   000004FC   5A085A085A08       DC16     +2138,+2138,+2138,+2138
   \              5A08        
   \   00000504   5A085A085A08       DC16     +2138,+2138,+2138,+2138
   \              5A08        
   \   0000050C   5A085A085A08       DC16     +2138,+2138,+2138,+2138
   \              5A08        
   \   00000514   5A085A085A08       DC16     +2138,+2138,+2138,+2138
   \              5A08        
   \   0000051C   5A085A085A08       DC16     +2138,+2138,+2138,+2138
   \              5A08        
   \   00000524   5A085A085A08       DC16     +2138,+2138,+2138,+2138
   \              5A08        
   \   0000052C   5A085A085A08       DC16     +2138,+2138,+2138,+2138
   \              5A08        
   \   00000534   5A085A085A08       DC16     +2138,+2138,+2138,+2138
   \              5A08        
   \   0000053C   5A085A085A08       DC16     +2138,+2138,+2138,+2138
   \              5A08        
   \   00000544   5A085A085A08       DC16     +2138,+2138,+2138,+2138
   \              5A08        
   \   0000054C   5A085A085A08       DC16     +2138,+2138,+2138,+2138
   \              5A08        
   \   00000554   5A085A085A08       DC16     +2138,+2138,+2138,+2138
   \              5A08        
   \   0000055C   5A085A085A08       DC16     +2138,+2138,+2138,+2138
   \              5A08        
   \   00000564   5A085A085A08       DC16     +2138,+2138,+2138,+2138
   \              5A08        
   \   0000056C   5A085A085A08       DC16     +2138,+2138,+2138,+2138
   \              5A08        
   \   00000574   5A085A085A08       DC16     +2138,+2138,+2138,+2138
   \              5A08        
   \   0000057C   5A085A085A08       DC16     +2138,+2138,+2138,+2138
   \              5A08        
   \   00000584   5A085A085A08       DC16     +2138,+2138,+2138,+2138
   \              5A08        
   \   0000058C   5A085A085A08       DC16     +2138,+2138,+2138,+2138
   \              5A08        
   \   00000594   5A085A085A08       DC16     +2138,+2138,+2138,+2138
   \              5A08        
   \   0000059C   5A085A085A08       DC16     +2138,+2138,+2138,+2138
   \              5A08        
   \   000005A4   5A085A085A08       DC16     +2138,+2138,+2138,+2138
   \              5A08        
   \   000005AC   5A085A085A08       DC16     +2138,+2138,+2138,+2138
   \              5A08        
   \   000005B4   5A085A085A08       DC16     +2138,+2138,+2138,+2138
   \              5A08        
   \   000005BC   5A085A085A08       DC16     +2138,+2138,+2138,+2138
   \              5A08        
   \   000005C4   5A085A085A08       DC16     +2138,+2138,+2138,+2138
   \              5A08        
   \   000005CC   5A085A085A08       DC16     +2138,+2138,+2138,+2138
   \              5A08        
   \   000005D4   5A085A085A08       DC16     +2138,+2138,+2138,+2138
   \              5A08        
   \   000005DC   5A085A085A08       DC16     +2138,+2138,+2138,+2138
   \              5A08        
   \   000005E4   5A085A085A08       DC16     +2138,+2138,+2138,+2138
   \              5A08        
   \   000005EC   5A085A085A08       DC16     +2138,+2138,+2138,+2138
   \              5A08        
   \   000005F4   5A085A085A08       DC16     +2138,+2138,+2138,+2138
   \              5A08        
   \   000005FC   5A085A085A08       DC16     +2138,+2138,+2138,+2138
   \              5A08        
   \   00000604   5A085A085A08       DC16     +2138,+2138,+2138,+2138
   \              5A08        
   \   0000060C   5A085A085A08       DC16     +2138,+2138,+2138,+2138
   \              5A08        
   \   00000614   5A085A085A08       DC16     +2138,+2138,+2138,+2138
   \              5A08        
   \   0000061C   5A085A085A08       DC16     +2138,+2138,+2138,+2138
   \              5A08        
   \   00000624   5A085A085A08       DC16     +2138,+2138,+2138,+2138
   \              5A08        
   \   0000062C   5A085A085A08       DC16     +2138,+2138,+2138,+2138
   \              5A08        
   \   00000634   5A085A085A08       DC16     +2138,+2138,+2138,+2138
   \              5A08        
   \   0000063C   5A085A085A08       DC16     +2138,+2138,+2138,+2138
   \              5A08        
   \   00000644   5A085A085A08       DC16     +2138,+2138,+2138,+2138
   \              5A08        
   \   0000064C   5A085A085A08       DC16     +2138,+2138,+2138,+2138
   \              5A08        
   \   00000654   5A085A085A08       DC16     +2138,+2138,+2138,+2138
   \              5A08        
   \   0000065C   5A085A085A08       DC16     +2138,+2138,+2138,+2138
   \              5A08        
   \   00000664   5A085A085A08       DC16     +2138,+2138,+2138,+2138
   \              5A08        
   \   0000066C   5A085A085A08       DC16     +2138,+2138,+2138,+2138
   \              5A08        
   \   00000674   5A085A085A08       DC16     +2138,+2138,+2138,+2138
   \              5A08        
   \   0000067C   5A085A085A08       DC16     +2138,+2138,+2138,+2138
   \              5A08        
   \   00000684   5A085A085A08       DC16     +2138,+2138,+2138,+2138
   \              5A08        
   \   0000068C   5A085A085A08       DC16     +2138,+2138,+2138,+2138
   \              5A08        
   \   00000694   5A085A085A08       DC16     +2138,+2138,+2138,+2138
   \              5A08        
   \   0000069C   5A085A085A08       DC16     +2138,+2138,+2138,+2138
   \              5A08        
   \   000006A4   5A085A085A08       DC16     +2138,+2138,+2138,+2138
   \              5A08        
   \   000006AC   5A085A085A08       DC16     +2138,+2138,+2138,+2138
   \              5A08        
   \   000006B4   5A085A085A08       DC16     +2138,+2138,+2138,+2138
   \              5A08        
   \   000006BC   5A085A085A08       DC16     +2138,+2138,+2138,+2138
   \              5A08        
   \   000006C4   5A085A085A08       DC16     +2138,+2138,+2138,+2138
   \              5A08        
   \   000006CC   5A085A085A08       DC16     +2138,+2138,+2138,+2138
   \              5A08        
   \   000006D4   5A085A085A08       DC16     +2138,+2138,+2138,+2138
   \              5A08        
   \   000006DC   5A085A085A08       DC16     +2138,+2138,+2138,+2138
   \              5A08        
   \   000006E4   5A085A085A08       DC16     +2138,+2138,+2138,+2138
   \              5A08        
   \   000006EC   5A085A085A08       DC16     +2138,+2138,+2138,+2138
   \              5A08        
   \   000006F4   5A085A085A08       DC16     +2138,+2138,+2138,+2138
   \              5A08        
   \   000006FC   5A085A085A08       DC16     +2138,+2138,+2138,+2138
   \              5A08        
   \   00000704   5A085A085A08       DC16     +2138,+2138,+2138,+2138
   \              5A08        
   \   0000070C   5A085A085A08       DC16     +2138,+2138,+2138,+2138
   \              5A08        
   \   00000714   5A085A085A08       DC16     +2138,+2138,+2138,+2138
   \              5A08        
   \   0000071C   5A085A085A08       DC16     +2138,+2138,+2138,+2138
   \              5A08        
   \   00000724   5A085A085A08       DC16     +2138,+2138,+2138,+2138
   \              5A08        
   \   0000072C   5A085A085A08       DC16     +2138,+2138,+2138,+2138
   \              5A08        
   \   00000734   5A085A085A08       DC16     +2138,+2138,+2138,+2138
   \              5A08        
   \   0000073C   5A085A085A08       DC16     +2138,+2138,+2138,+2138
   \              5A08        
   \   00000744   5A085A085A08       DC16     +2138,+2138,+2138,+2138
   \              5A08        
   \   0000074C   5A085A085A08       DC16     +2138,+2138,+2138,+2138
   \              5A08        
   \   00000754   5A085A085A08       DC16     +2138,+2138,+2138,+2138
   \              5A08        
   \   0000075C   5A085A085A08       DC16     +2138,+2138,+2138,+2138
   \              5A08        
   \   00000764   5A085A085A08       DC16     +2138,+2138,+2138,+2138
   \              5A08        
   \   0000076C   5A085A085A08       DC16     +2138,+2138,+2138,+2138
   \              5A08        
   \   00000774   5A085A085A08       DC16     +2138,+2138,+2138,+2138
   \              5A08        
   \   0000077C   5A085A085A08       DC16     +2138,+2138,+2138,+2138
   \              5A08        
   \   00000784   5A085A085A08       DC16     +2138,+2138,+2138,+2138
   \              5A08        
   \   0000078C   5A085A085A08       DC16     +2138,+2138,+2138,+2138
   \              5A08        
   \   00000794   5A085A085A08       DC16     +2138,+2138,+2138,+2138
   \              5A08        
   \   0000079C   5A085A085A08       DC16     +2138,+2138,+2138,+2138
   \              5A08        
   \   000007A4   5A085A085A08       DC16     +2138,+2138,+2138,+2138
   \              5A08        
   \   000007AC   5A085A085A08       DC16     +2138,+2138,+2138,+2138
   \              5A08        
   \   000007B4   5A085A085A08       DC16     +2138,+2138,+2138,+2138
   \              5A08        
   \   000007BC   5A085A085A08       DC16     +2138,+2138,+2138,+2138
   \              5A08        
   \   000007C4   5A085A085A08       DC16     +2138,+2138,+2138,+2138
   \              5A08        
   \   000007CC   5A085A085A08       DC16     +2138,+2138,+2138,+2138
   \              5A08        
   \   000007D4   5A085A085A08       DC16     +2138,+2138,+2138,+2138
   \              5A08        
   \   000007DC   5A085A085A08       DC16     +2138,+2138,+2138,+2138
   \              5A08        
   \   000007E4   5A085A085A08       DC16     +2138,+2138,+2138,+2138
   \              5A08        
   \   000007EC   5A085A085A08       DC16     +2138,+2138,+2138,+2138
   \              5A08        
   \   000007F4   5A085A085A08       DC16     +2138,+2138,+2138,+2138
   \              5A08        
   \   000007FC   5A085A085A08       DC16     +2138,+2138,+2138,+2138
   \              5A08        
   \   00000804   5A085A085A08       DC16     +2138,+2138,+2138,+2138
   \              5A08        
   \   0000080C   5A085A085A08       DC16     +2138,+2138,+2138,+2138
   \              5A08        
   \   00000814   5A085A085A08       DC16     +2138,+2138,+2138,+2138
   \              5A08        
   \   0000081C   5A085A085A08       DC16     +2138,+2138,+2138,+2138
   \              5A08        
   \   00000824   5A085A085A08       DC16     +2138,+2138,+2138,+2138
   \              5A08        
   \   0000082C   5A085A085A08       DC16     +2138,+2138,+2138,+2138
   \              5A08        
   \   00000834   5A085A085A08       DC16     +2138,+2138,+2138,+2138
   \              5A08        
   \   0000083C   5A085A085A08       DC16     +2138,+2138,+2138,+2138
   \              5A08        
   \   00000844   5A085A085A08       DC16     +2138,+2138,+2138,+2138
   \              5A08        
   \   0000084C   5A085A085A08       DC16     +2138,+2138,+2138,+2138
   \              5A08        
   \   00000854   5A085A085A08       DC16     +2138,+2138,+2138,+2138
   \              5A08        
   \   0000085C   5A085A085A08       DC16     +2138,+2138,+2138,+2138
   \              5A08        
   \   00000864   5A085A085A08       DC16     +2138,+2138,+2138,+2138
   \              5A08        
   \   0000086C   5A085A085A08       DC16     +2138,+2138,+2138,+2138
   \              5A08        
   \   00000874   5A085A085A08       DC16     +2138,+2138,+2138,+2138
   \              5A08        
   \   0000087C   5A085A085A08       DC16     +2138,+2138,+2138,+2138
   \              5A08        
   \   00000884   5A085A085A08       DC16     +2138,+2138,+2138,+2138
   \              5A08        
   \   0000088C   5A085A085A08       DC16     +2138,+2138,+2138,+2138
   \              5A08        
   \   00000894   5A085A085A08       DC16     +2138,+2138,+2138,+2138
   \              5A08        
   \   0000089C   5A085A085A08       DC16     +2138,+2138,+2138,+2138
   \              5A08        
   \   000008A4   5A085A085A08       DC16     +2138,+2138,+2138,+2138
   \              5A08        
   \   000008AC   5A085A085A08       DC16     +2138,+2138,+2138,+2138
   \              5A08        
   \   000008B4   5A085A085A08       DC16     +2138,+2138,+2138,+2138
   \              5A08        
   \   000008BC   5A085A085A08       DC16     +2138,+2138,+2138,+2138
   \              5A08        
   \   000008C4   5A085A085A08       DC16     +2138,+2138,+2138,+2138
   \              5A08        
   \   000008CC   5A085A085A08       DC16     +2138,+2138,+2138,+2138
   \              5A08        
   \   000008D4   5A085A085A08       DC16     +2138,+2138,+2138,+2138
   \              5A08        
   \   000008DC   5A085A085A08       DC16     +2138,+2138,+2138,+2138
   \              5A08        
   \   000008E4   5A085A085A08       DC16     +2138,+2138,+2138,+2138
   \              5A08        
   \   000008EC   5A085A085A08       DC16     +2138,+2138,+2138,+2138
   \              5A08        
   \   000008F4   5A085A085A08       DC16     +2138,+2138,+2138,+2138
   \              5A08        
   \   000008FC   5A085A085A08       DC16     +2138,+2138,+2138,+2138
   \              5A08        
   \   00000904   5A085A085A08       DC16     +2138,+2138,+2138,+2138
   \              5A08        
   \   0000090C   5A085A085A08       DC16     +2138,+2138,+2138,+2138
   \              5A08        
   \   00000914   5A085A085A08       DC16     +2138,+2138,+2138,+2138
   \              5A08        
   \   0000091C   5A085A085A08       DC16     +2138,+2138,+2138,+2138
   \              5A08        
   \   00000924   5A085A085A08       DC16     +2138,+2138,+2138,+2138
   \              5A08        
   \   0000092C   5A085A085A08       DC16     +2138,+2138,+2138,+2138
   \              5A08        
   \   00000934   5A085A085A08       DC16     +2138,+2138,+2138,+2138
   \              5A08        
   \   0000093C   5A085A085A08       DC16     +2138,+2138,+2138,+2138
   \              5A08        
   \   00000944   5A085A085A08       DC16     +2138,+2138,+2138,+2138
   \              5A08        
   \   0000094C   5A085A085A08       DC16     +2138,+2138,+2138,+2138
   \              5A08        
   \   00000954   5A085A085A08       DC16     +2138,+2138,+2138,+2138
   \              5A08        
   \   0000095C   5A085A085A08       DC16     +2138,+2138,+2138,+2138
   \              5A08        
   \   00000964   5A085A085A08       DC16     +2138,+2138,+2138,+2138
   \              5A08        
   \   0000096C   5A085A085A08       DC16     +2138,+2138,+2138,+2138
   \              5A08        
   \   00000974   5A085A085A08       DC16     +2138,+2138,+2138,+2138
   \              5A08        
   \   0000097C   5A085A085A08       DC16     +2138,+2138,+2138,+2138
   \              5A08        
   \   00000984   5A085A085A08       DC16     +2138,+2138,+2138,+2138
   \              5A08        
   \   0000098C   5A085A085A08       DC16     +2138,+2138,+2138,+2138
   \              5A08        
   \   00000994   5A085A085A08       DC16     +2138,+2138,+2138,+2138
   \              5A08        
   \   0000099C   5A085A085A08       DC16     +2138,+2138,+2138,+2138
   \              5A08        
   \   000009A4   5A085A085A08       DC16     +2138,+2138,+2138,+2138
   \              5A08        
   \   000009AC   5A085A085A08       DC16     +2138,+2138,+2138,+2138
   \              5A08        
   \   000009B4   5A085A085A08       DC16     +2138,+2138,+2138,+2138
   \              5A08        
   \   000009BC   5A085A085A08       DC16     +2138,+2138,+2138,+2138
   \              5A08        
   \   000009C4   5A085A085A08       DC16     +2138,+2138,+2138,+2138
   \              5A08        
   \   000009CC   5A085A085A08       DC16     +2138,+2138,+2138,+2138
   \              5A08        
   \   000009D4   5A085A085A08       DC16     +2138,+2138,+2138,+2138
   \              5A08        
   \   000009DC   5A085A085A08       DC16     +2138,+2138,+2138,+2138
   \              5A08        
   \   000009E4   5A085A085A08       DC16     +2138,+2138,+2138,+2138
   \              5A08        
   \   000009EC   5A085A085A08       DC16     +2138,+2138,+2138,+2138
   \              5A08        
   \   000009F4   5A085A085A08       DC16     +2138,+2138,+2138,+2138
   \              5A08        
   \   000009FC   5A085A085A08       DC16     +2138,+2138,+2138,+2138
   \              5A08        
   \   00000A04   5A085A085A08       DC16     +2138,+2138,+2138,+2138
   \              5A08        
   \   00000A0C   5A085A085A08       DC16     +2138,+2138,+2138,+2138
   \              5A08        
   \   00000A14   5A085A085A08       DC16     +2138,+2138,+2138,+2138
   \              5A08        
   \   00000A1C   5A085A085A08       DC16     +2138,+2138,+2138,+2138
   \              5A08        
   \   00000A24   5A085A085A08       DC16     +2138,+2138,+2138,+2138
   \              5A08        
   \   00000A2C   5A085A085A08       DC16     +2138,+2138,+2138,+2138
   \              5A08        
   \   00000A34   5A085A085A08       DC16     +2138,+2138,+2138,+2138
   \              5A08        
   \   00000A3C   5A085A085A08       DC16     +2138,+2138,+2138,+2138
   \              5A08        
   \   00000A44   5A085A085A08       DC16     +2138,+2138,+2138,+2138
   \              5A08        
   \   00000A4C   5A085A085A08       DC16     +2138,+2138,+2138,+2138
   \              5A08        
   \   00000A54   5A085A085A08       DC16     +2138,+2138,+2138,+2138
   \              5A08        
   \   00000A5C   5A085A085A08       DC16     +2138,+2138,+2138,+2138
   \              5A08        
   \   00000A64   5A085A085A08       DC16     +2138,+2138,+2138,+2138
   \              5A08        
   \   00000A6C   5A085A085A08       DC16     +2138,+2138,+2138,+2138
   \              5A08        
   \   00000A74   5A085A085A08       DC16     +2138,+2138,+2138,+2138
   \              5A08        
   \   00000A7C   5A085A085A08       DC16     +2138,+2138,+2138,+2138
   \              5A08        
   \   00000A84   5A085A085A08       DC16     +2138,+2138,+2138,+2138
   \              5A08        
   \   00000A8C   5A085A085A08       DC16     +2138,+2138,+2138,+2138
   \              5A08        
   \   00000A94   5A085A085A08       DC16     +2138,+2138,+2138,+2138
   \              5A08        
   \   00000A9C   5A085A085A08       DC16     +2138,+2138,+2138,+2138
   \              5A08        
   \   00000AA4   5A085A085A08       DC16     +2138,+2138,+2138,+2138
   \              5A08        
   \   00000AAC   5A085A085A08       DC16     +2138,+2138,+2138,+2138
   \              5A08        
   \   00000AB4   5A085A085A08       DC16     +2138,+2138,+2138,+2138
   \              5A08        
   \   00000ABC   5A085A085A08       DC16     +2138,+2138,+2138,+2138
   \              5A08        
   \   00000AC4   5A085A085A08       DC16     +2138,+2138,+2138,+2138
   \              5A08        
   \   00000ACC   5A085A085A08       DC16     +2138,+2138,+2138,+2138
   \              5A08        
   \   00000AD4   5A085A085A08       DC16     +2138,+2138,+2138,+2138
   \              5A08        
   \   00000ADC   5A085A085A08       DC16     +2138,+2138,+2138,+2138
   \              5A08        
   \   00000AE4   5A085A085A08       DC16     +2138,+2138,+2138,+2138
   \              5A08        
   \   00000AEC   5A085A085A08       DC16     +2138,+2138,+2138,+2138
   \              5A08        
   \   00000AF4   5A085A085A08       DC16     +2138,+2138,+2138,+2138
   \              5A08        
   \   00000AFC   5A085A085A08       DC16     +2138,+2138,+2138,+2138
   \              5A08        
   \   00000B04   5A085A085A08       DC16     +2138,+2138,+2138,+2138
   \              5A08        
   \   00000B0C   5A085A085A08       DC16     +2138,+2138,+2138,+2138
   \              5A08        
   \   00000B14   5A085A085A08       DC16     +2138,+2138,+2138,+2138
   \              5A08        
   \   00000B1C   5A085A085A08       DC16     +2138,+2138,+2138,+2138
   \              5A08        
   \   00000B24   5A085A085A08       DC16     +2138,+2138,+2138,+2138
   \              5A08        
   \   00000B2C   5A085A085A08       DC16     +2138,+2138,+2138,+2138
   \              5A08        
   \   00000B34   5A085A085A08       DC16     +2138,+2138,+2138,+2138
   \              5A08        
   \   00000B3C   5A085A085A08       DC16     +2138,+2138,+2138,+2138
   \              5A08        
   \   00000B44   5A085A085A08       DC16     +2138,+2138,+2138,+2138
   \              5A08        
   \   00000B4C   5A085A085A08       DC16     +2138,+2138,+2138,+2138
   \              5A08        
   \   00000B54   5A085A085A08       DC16     +2138,+2138,+2138,+2138
   \              5A08        
   \   00000B5C   5A085A085A08       DC16     +2138,+2138,+2138,+2138
   \              5A08        
   \   00000B64   5A085A085A08       DC16     +2138,+2138,+2138,+2138
   \              5A08        
   \   00000B6C   5A085A085A08       DC16     +2138,+2138,+2138,+2138
   \              5A08        
   \   00000B74   5A085A085A08       DC16     +2138,+2138,+2138,+2138
   \              5A08        
   \   00000B7C   5A085A085A08       DC16     +2138,+2138,+2138,+2138
   \              5A08        
   \   00000B84   5A085A085A08       DC16     +2138,+2138,+2138,+2138
   \              5A08        
   \   00000B8C   5A085A085A08       DC16     +2138,+2138,+2138,+2138
   \              5A08        
   \   00000B94   5A085A085A08       DC16     +2138,+2138,+2138,+2138
   \              5A08        
   \   00000B9C   5A085A085A08       DC16     +2138,+2138,+2138,+2138
   \              5A08        
   \   00000BA4   5A085A085A08       DC16     +2138,+2138,+2138,+2138
   \              5A08        
   \   00000BAC   5A085A085A08       DC16     +2138,+2138,+2138,+2138
   \              5A08        
   \   00000BB4   5A085A085A08       DC16     +2138,+2138,+2138,+2138
   \              5A08        
   \   00000BBC   5A085A085A08       DC16     +2138,+2138,+2138,+2138
   \              5A08        
   \   00000BC4   5A085A085A08       DC16     +2138,+2138,+2138,+2138
   \              5A08        
   \   00000BCC   5A085A085A08       DC16     +2138,+2138,+2138,+2138
   \              5A08        
   \   00000BD4   5A085A085A08       DC16     +2138,+2138,+2138,+2138
   \              5A08        
   \   00000BDC   5A085A085A08       DC16     +2138,+2138,+2138,+2138
   \              5A08        
   \   00000BE4   5A085A085A08       DC16     +2138,+2138,+2138,+2138
   \              5A08        
   \   00000BEC   5A085A085A08       DC16     +2138,+2138,+2138,+2138
   \              5A08        
   \   00000BF4   5A085A085A08       DC16     +2138,+2138,+2138,+2138
   \              5A08        
   \   00000BFC   5A085A085A08       DC16     +2138,+2138,+2138,+2138
   \              5A08        
   \   00000C04   5A085A085A08       DC16     +2138,+2138,+2138,+2138
   \              5A08        
   \   00000C0C   5A085A085A08       DC16     +2138,+2138,+2138,+2138
   \              5A08        
   \   00000C14   5A085A085A08       DC16     +2138,+2138,+2138,+2138
   \              5A08        
   \   00000C1C   5A085A085A08       DC16     +2138,+2138,+2138,+2138
   \              5A08        
   \   00000C24   5A085A085A08       DC16     +2138,+2138,+2138,+2138
   \              5A08        
   \   00000C2C   5A085A085A08       DC16     +2138,+2138,+2138,+2138
   \              5A08        
   \   00000C34   5A085A085A08       DC16     +2138,+2138,+2138,+2138
   \              5A08        
   \   00000C3C   5A085A085A08       DC16     +2138,+2138,+2138,+2138
   \              5A08        
   \   00000C44   5A085A085A08       DC16     +2138,+2138,+2138,+2138
   \              5A08        
   \   00000C4C   5A085A085A08       DC16     +2138,+2138,+2138,+2138
   \              5A08        
   \   00000C54   5A085A085A08       DC16     +2138,+2138,+2138,+2138
   \              5A08        
   \   00000C5C   5A085A085A08       DC16     +2138,+2138,+2138,+2138
   \              5A08        
   \   00000C64   5A085A085A08       DC16     +2138,+2138,+2138,+2138
   \              5A08        
   \   00000C6C   5A085A085A08       DC16     +2138,+2138,+2138,+2138
   \              5A08        
   \   00000C74   5A085A085A08       DC16     +2138,+2138,+2138,+2138
   \              5A08        
   \   00000C7C   5A085A085A08       DC16     +2138,+2138,+2138,+2138
   \              5A08        
   \   00000C84   5A085A085A08       DC16     +2138,+2138,+2138,+2138
   \              5A08        
   \   00000C8C   5A085A085A08       DC16     +2138,+2138,+2138,+2138
   \              5A08        
   \   00000C94   5A085A085A08       DC16     +2138,+2138,+2138,+2138
   \              5A08        
   \   00000C9C   5A085A085A08       DC16     +2138,+2138,+2138,+2138
   \              5A08        
   \   00000CA4   5A085A085A08       DC16     +2138,+2138,+2138,+2138
   \              5A08        
   \   00000CAC   5A085A085A08       DC16     +2138,+2138,+2138,+2138
   \              5A08        
   \   00000CB4   5A085A085A08       DC16     +2138,+2138,+2138,+2138
   \              5A08        
   \   00000CBC   5A085A085A08       DC16     +2138,+2138,+2138,+2138
   \              5A08        
   \   00000CC4   5A085A085A08       DC16     +2138,+2138,+2138,+2138
   \              5A08        
   \   00000CCC   5A085A085A08       DC16     +2138,+2138,+2138,+2138
   \              5A08        
   \   00000CD4   5A085A085A08       DC16     +2138,+2138,+2138,+2138
   \              5A08        
   \   00000CDC   5A085A085A08       DC16     +2138,+2138,+2138,+2138
   \              5A08        
   \   00000CE4   5A085A085A08       DC16     +2138,+2138,+2138,+2138
   \              5A08        
   \   00000CEC   5A085A085A08       DC16     +2138,+2138,+2138,+2138
   \              5A08        
   \   00000CF4   5A085A085A08       DC16     +2138,+2138,+2138,+2138
   \              5A08        
   \   00000CFC   5A085A085A08       DC16     +2138,+2138,+2138,+2138
   \              5A08        
   \   00000D04   5A085A085A08       DC16     +2138,+2138,+2138,+2138
   \              5A08        
   \   00000D0C   5A085A085A08       DC16     +2138,+2138,+2138,+2138
   \              5A08        
   \   00000D14   5A085A085A08       DC16     +2138,+2138,+2138,+2138
   \              5A08        
   \   00000D1C   5A085A085A08       DC16     +2138,+2138,+2138,+2138
   \              5A08        
   \   00000D24   5A085A085A08       DC16     +2138,+2138,+2138,+2138
   \              5A08        
   \   00000D2C   5A085A085A08       DC16     +2138,+2138,+2138,+2138
   \              5A08        
   \   00000D34   5A085A085A08       DC16     +2138,+2138,+2138,+2138
   \              5A08        
   \   00000D3C   5A085A085A08       DC16     +2138,+2138,+2138,+2138
   \              5A08        
   \   00000D44   5A085A085A08       DC16     +2138,+2138,+2138,+2138
   \              5A08        
   \   00000D4C   5A085A085A08       DC16     +2138,+2138,+2138,+2138
   \              5A08        
   \   00000D54   5A085A085A08       DC16     +2138,+2138,+2138,+2138
   \              5A08        
   \   00000D5C   5A085A085A08       DC16     +2138,+2138,+2138,+2138
   \              5A08        
   \   00000D64   5A085A085A08       DC16     +2138,+2138,+2138,+2138
   \              5A08        
   \   00000D6C   5A085A085A08       DC16     +2138,+2138,+2138,+2138
   \              5A08        
   \   00000D74   5A085A085A08       DC16     +2138,+2138,+2138,+2138
   \              5A08        
   \   00000D7C   5A085A085A08       DC16     +2138,+2138,+2138,+2138
   \              5A08        
   \   00000D84   5A085A085A08       DC16     +2138,+2138,+2138,+2138
   \              5A08        
   \   00000D8C   5A085A085A08       DC16     +2138,+2138,+2138,+2138
   \              5A08        
   \   00000D94   5A085A085A08       DC16     +2138,+2138,+2138,+2138
   \              5A08        
   \   00000D9C   5A085A085A08       DC16     +2138,+2138,+2138,+2138
   \              5A08        
   \   00000DA4   5A085A085A08       DC16     +2138,+2138,+2138,+2138
   \              5A08        
   \   00000DAC   5A085A085A08       DC16     +2138,+2138,+2138,+2138
   \              5A08        
   \   00000DB4   5A085A085A08       DC16     +2138,+2138,+2138,+2138
   \              5A08        
   \   00000DBC   5A085A085A08       DC16     +2138,+2138,+2138,+2138
   \              5A08        
   \   00000DC4   5A085A085A08       DC16     +2138,+2138,+2138,+2138
   \              5A08        
   \   00000DCC   5A085A085A08       DC16     +2138,+2138,+2138,+2138
   \              5A08        
   \   00000DD4   5A085A085A08       DC16     +2138,+2138,+2138,+2138
   \              5A08        
   \   00000DDC   5A085A085A08       DC16     +2138,+2138,+2138,+2138
   \              5A08        
   \   00000DE4   5A085A085A08       DC16     +2138,+2138,+2138,+2138
   \              5A08        
   \   00000DEC   5A085A085A08       DC16     +2138,+2138,+2138,+2138
   \              5A08        
   \   00000DF4   5A085A085A08       DC16     +2138,+2138,+2138,+2138
   \              5A08        
   \   00000DFC   5A085A085A08       DC16     +2138,+2138,+2138,+2138
   \              5A08        
   \   00000E04   5A085A085A08       DC16     +2138,+2138,+2138,+2138
   \              5A08        
   \   00000E0C   5A085A085A08       DC16     +2138,+2138,+2138,+2138
   \              5A08        
   \   00000E14   5A085A085A08       DC16     +2138,+2138,+2138,+2138
   \              5A08        
   \   00000E1C   5A085A085A08       DC16     +2138,+2138,+2138,+2138
   \              5A08        
   \   00000E24   5A085A085A08       DC16     +2138,+2138,+2138,+2138
   \              5A08        
   \   00000E2C   5A085A085A08       DC16     +2138,+2138,+2138,+2138
   \              5A08        
   \   00000E34   5A085A085A08       DC16     +2138,+2138,+2138,+2138
   \              5A08        
   \   00000E3C   5A085A085A08       DC16     +2138,+2138,+2138,+2138
   \              5A08        
   \   00000E44   5A085A085A08       DC16     +2138,+2138,+2138,+2138
   \              5A08        
   \   00000E4C   5A085A085A08       DC16     +2138,+2138,+2138,+2138
   \              5A08        
   \   00000E54   5A085A085A08       DC16     +2138,+2138,+2138,+2138
   \              5A08        
   \   00000E5C   5A085A085A08       DC16     +2138,+2138,+2138,+2138
   \              5A08        
   \   00000E64   5A085A085A08       DC16     +2138,+2138,+2138,+2138
   \              5A08        
   \   00000E6C   5A085A085A08       DC16     +2138,+2138,+2138,+2138
   \              5A08        
   \   00000E74   5A085A085A08       DC16     +2138,+2138,+2138,+2138
   \              5A08        
   \   00000E7C   5A085A085A08       DC16     +2138,+2138,+2138,+2138
   \              5A08        
   \   00000E84   5A085A085A08       DC16     +2138,+2138,+2138,+2138
   \              5A08        
   \   00000E8C   5A085A085A08       DC16     +2138,+2138,+2138,+2138
   \              5A08        
   \   00000E94   5A085A085A08       DC16     +2138,+2138,+2138,+2138
   \              5A08        
   \   00000E9C   5A085A085A08       DC16     +2138,+2138,+2138,+2138
   \              5A08        
   \   00000EA4   5A085A085A08       DC16     +2138,+2138,+2138,+2138
   \              5A08        
   \   00000EAC   5A085A085A08       DC16     +2138,+2138,+2138,+2138
   \              5A08        
   \   00000EB4   5A085A085A08       DC16     +2138,+2138,+2138,+2138
   \              5A08        
   \   00000EBC   5A085A085A08       DC16     +2138,+2138,+2138,+2138
   \              5A08        
   \   00000EC4   5A085A085A08       DC16     +2138,+2138,+2138,+2138
   \              5A08        
   \   00000ECC   5A085A085A08       DC16     +2138,+2138,+2138,+2138
   \              5A08        
   \   00000ED4   5A085A085A08       DC16     +2138,+2138,+2138,+2138
   \              5A08        
   \   00000EDC   5A085A085A08       DC16     +2138,+2138,+2138,+2138
   \              5A08        
   \   00000EE4   5A085A085A08       DC16     +2138,+2138,+2138,+2138
   \              5A08        
   \   00000EEC   5A085A085A08       DC16     +2138,+2138,+2138,+2138
   \              5A08        
   \   00000EF4   5A085A085A08       DC16     +2138,+2138,+2138,+2138
   \              5A08        
   \   00000EFC   5A085A085A08       DC16     +2138,+2138,+2138,+2138
   \              5A08        
   \   00000F04   5A085A085A08       DC16     +2138,+2138,+2138,+2138
   \              5A08        
   \   00000F0C   5A085A085A08       DC16     +2138,+2138,+2138,+2138
   \              5A08        
   \   00000F14   5A085A085A08       DC16     +2138,+2138,+2138,+2138
   \              5A08        
   \   00000F1C   5A085A085A08       DC16     +2138,+2138,+2138,+2138
   \              5A08        
   \   00000F24   5A085A085A08       DC16     +2138,+2138,+2138,+2138
   \              5A08        
   \   00000F2C   5A085A085A08       DC16     +2138,+2138,+2138,+2138
   \              5A08        
   \   00000F34   5A085A085A08       DC16     +2138,+2138,+2138,+2138
   \              5A08        
   \   00000F3C   5A085A085A08       DC16     +2138,+2138,+2138,+2138
   \              5A08        
   \   00000F44   5A085A085A08       DC16     +2138,+2138,+2138,+2138
   \              5A08        
   \   00000F4C   5A085A085A08       DC16     +2138,+2138,+2138,+2138
   \              5A08        
   \   00000F54   5A085A085A08       DC16     +2138,+2138,+2138,+2138
   \              5A08        
   \   00000F5C   5A085A085A08       DC16     +2138,+2138,+2138,+2138
   \              5A08        
   \   00000F64   5A085A085A08       DC16     +2138,+2138,+2138,+2138
   \              5A08        
   \   00000F6C   5A085A085A08       DC16     +2138,+2138,+2138,+2138
   \              5A08        
   \   00000F74   5A085A085A08       DC16     +2138,+2138,+2138,+2138
   \              5A08        
   \   00000F7C   5A085A085A08       DC16     +2138,+2138,+2138,+2138
   \              5A08        
   \   00000F84   5A085A085A08       DC16     +2138,+2138,+2138,+2138
   \              5A08        
   \   00000F8C   5A085A085A08       DC16     +2138,+2138,+2138,+2138
   \              5A08        
   \   00000F94   5A085A085A08       DC16     +2138,+2138,+2138,+2138
   \              5A08        
   \   00000F9C   5A085A085A08       DC16     +2138,+2138,+2138,+2138
   \              5A08        
   \   00000FA4   5A085A085A08       DC16     +2138,+2138,+2138,+2138
   \              5A08        
   \   00000FAC   5A085A085A08       DC16     +2138,+2138,+2138,+2138
   \              5A08        
   \   00000FB4   5A085A085A08       DC16     +2138,+2138,+2138,+2138
   \              5A08        
   \   00000FBC   5A085A085A08       DC16     +2138,+2138,+2138,+2138
   \              5A08        
   \   00000FC4   5A085A085A08       DC16     +2138,+2138,+2138,+2138
   \              5A08        
   \   00000FCC   5A085A085A08       DC16     +2138,+2138,+2138,+2138
   \              5A08        
   \   00000FD4   5A085A085A08       DC16     +2138,+2138,+2138,+2138
   \              5A08        
   \   00000FDC   5A085A085A08       DC16     +2138,+2138,+2138,+2138
   \              5A08        
   \   00000FE4   5A085A085A08       DC16     +2138,+2138,+2138,+2138
   \              5A08        
   \   00000FEC   5A085A085A08       DC16     +2138,+2138,+2138,+2138
   \              5A08        
   \   00000FF4   5A085A085A08       DC16     +2138,+2138,+2138,+2138
   \              5A08        
   \   00000FFC   5A085A085A08       DC16     +2138,+2138,+2138,+2138
   \              5A08        
   \   00001004   5A085A085A08       DC16     +2138,+2138,+2138,+2138
   \              5A08        
   \   0000100C   5A085A085A08       DC16     +2138,+2138,+2138,+2138
   \              5A08        
   \   00001014   5A085A085A08       DC16     +2138,+2138,+2138,+2138
   \              5A08        
   \   0000101C   5A085A085A08       DC16     +2138,+2138,+2138,+2138
   \              5A08        
   \   00001024   5A085A085A08       DC16     +2138,+2138,+2138,+2138
   \              5A08        
   \   0000102C   5A085A085A08       DC16     +2138,+2138,+2138,+2138
   \              5A08        
   \   00001034   5A085A085A08       DC16     +2138,+2138,+2138,+2138
   \              5A08        
   \   0000103C   5A085A085A08       DC16     +2138,+2138,+2138,+2138
   \              5A08        
   \   00001044   5A085A085A08       DC16     +2138,+2138,+2138,+2138
   \              5A08        
   \   0000104C   5A085A085A08       DC16     +2138,+2138,+2138,+2138
   \              5A08        
   \   00001054   5A085A085A08       DC16     +2138,+2138,+2138,+2138
   \              5A08        
   \   0000105C   5A085A085A08       DC16     +2138,+2138,+2138,+2138
   \              5A08        
   \   00001064   5A085A085A08       DC16     +2138,+2138,+2138,+2138
   \              5A08        
   \   0000106C   5A085A085A08       DC16     +2138,+2138,+2138,+2138
   \              5A08        
   \   00001074   5A085A085A08       DC16     +2138,+2138,+2138,+2138
   \              5A08        
   \   0000107C   5A085A085A08       DC16     +2138,+2138,+2138,+2138
   \              5A08        
   \   00001084   5A085A085A08       DC16     +2138,+2138,+2138,+2138
   \              5A08        
   \   0000108C   5A085A085A08       DC16     +2138,+2138,+2138,+2138
   \              5A08        
   \   00001094   5A085A085A08       DC16     +2138,+2138,+2138,+2138
   \              5A08        
   \   0000109C   5A085A085A08       DC16     +2138,+2138,+2138,+2138
   \              5A08        
   \   000010A4   5A085A085A08       DC16     +2138,+2138,+2138,+2138
   \              5A08        
   \   000010AC   5A085A085A08       DC16     +2138,+2138,+2138,+2138
   \              5A08        
   \   000010B4   5A085A085A08       DC16     +2138,+2138,+2138,+2138
   \              5A08        
   \   000010BC   5A085A085A08       DC16     +2138,+2138,+2138,+2138
   \              5A08        
   \   000010C4   5A085A085A08       DC16     +2138,+2138,+2138,+2138
   \              5A08        
   \   000010CC   5A085A085A08       DC16     +2138,+2138,+2138,+2138
   \              5A08        
   \   000010D4   5A085A085A08       DC16     +2138,+2138,+2138,+2138
   \              5A08        
   \   000010DC   5A085A085A08       DC16     +2138,+2138,+2138,+2138
   \              5A08        
   \   000010E4   5A085A085A08       DC16     +2138,+2138,+2138,+2138
   \              5A08        
   \   000010EC   5A085A085A08       DC16     +2138,+2138,+2138,+2138
   \              5A08        
   \   000010F4   5A085A085A08       DC16     +2138,+2138,+2138,+2138
   \              5A08        
   \   000010FC   5A085A085A08       DC16     +2138,+2138,+2138,+2138
   \              5A08        
   \   00001104   5A085A085A08       DC16     +2138,+2138,+2138,+2138
   \              5A08        
   \   0000110C   5A085A085A08       DC16     +2138,+2138,+2138,+2138
   \              5A08        
   \   00001114   5A085A085A08       DC16     +2138,+2138,+2138,+2138
   \              5A08        
   \   0000111C   5A085A085A08       DC16     +2138,+2138,+2138,+2138
   \              5A08        
   \   00001124   5A085A085A08       DC16     +2138,+2138,+2138,+2138
   \              5A08        
   \   0000112C   5A085A085A08       DC16     +2138,+2138,+2138,+2138
   \              5A08        
   \   00001134   5A085A085A08       DC16     +2138,+2138,+2138,+2138
   \              5A08        
   \   0000113C   5A085A085A08       DC16     +2138,+2138,+2138,+2138
   \              5A08        
   \   00001144   5A085A085A08       DC16     +2138,+2138,+2138,+2138
   \              5A08        
   \   0000114C   5A085A085A08       DC16     +2138,+2138,+2138,+2138
   \              5A08        
   \   00001154   5A085A085A08       DC16     +2138,+2138,+2138,+2138
   \              5A08        
   \   0000115C   5A085A085A08       DC16     +2138,+2138,+2138,+2138
   \              5A08        
   \   00001164   5A085A085A08       DC16     +2138,+2138,+2138,+2138
   \              5A08        
   \   0000116C   5A085A085A08       DC16     +2138,+2138,+2138,+2138
   \              5A08        
   \   00001174   5A085A085A08       DC16     +2138,+2138,+2138,+2138
   \              5A08        
   \   0000117C   5A085A085A08       DC16     +2138,+2138,+2138,+2138
   \              5A08        
   \   00001184   5A085A085A08       DC16     +2138,+2138,+2138,+2138
   \              5A08        
   \   0000118C   5A085A085A08       DC16     +2138,+2138,+2138,+2138
   \              5A08        
   \   00001194   5A085A085A08       DC16     +2138,+2138,+2138,+2138
   \              5A08        
   \   0000119C   5A085A085A08       DC16     +2138,+2138,+2138,+2138
   \              5A08        
   \   000011A4   5A085A085A08       DC16     +2138,+2138,+2138,+2138
   \              5A08        
   \   000011AC   5A085A085A08       DC16     +2138,+2138,+2138,+2138
   \              5A08        
   \   000011B4   5A085A085A08       DC16     +2138,+2138,+2138,+2138
   \              5A08        
   \   000011BC   5A085A085A08       DC16     +2138,+2138,+2138,+2138
   \              5A08        
   \   000011C4   5A085A085A08       DC16     +2138,+2138,+2138,+2138
   \              5A08        
   \   000011CC   5A085A085A08       DC16     +2138,+2138,+2138,+2138
   \              5A08        
   \   000011D4   5A085A085A08       DC16     +2138,+2138,+2138,+2138
   \              5A08        
   \   000011DC   5A085A085A08       DC16     +2138,+2138,+2138,+2138
   \              5A08        
   \   000011E4   5A085A085A08       DC16     +2138,+2138,+2138,+2138
   \              5A08        
   \   000011EC   5A085A085A08       DC16     +2138,+2138,+2138,+2138
   \              5A08        
   \   000011F4   5A085A085A08       DC16     +2138,+2138,+2138,+2138
   \              5A08        
   \   000011FC   5A085A085A08       DC16     +2138,+2138,+2138,+2138
   \              5A08        
   \   00001204   5A085A085A08       DC16     +2138,+2138,+2138,+2138
   \              5A08        
   \   0000120C   5A085A085A08       DC16     +2138,+2138,+2138,+2138
   \              5A08        
   \   00001214   5A085A085A08       DC16     +2138,+2138,+2138,+2138
   \              5A08        
   \   0000121C   5A085A085A08       DC16     +2138,+2138,+2138,+2138
   \              5A08        
   \   00001224   5A085A085A08       DC16     +2138,+2138,+2138,+2138
   \              5A08        
   \   0000122C   5A085A085A08       DC16     +2138,+2138,+2138,+2138
   \              5A08        
   \   00001234   5A085A085A08       DC16     +2138,+2138,+2138,+2138
   \              5A08        
   \   0000123C   5A085A085A08       DC16     +2138,+2138,+2138,+2138
   \              5A08        
   \   00001244   5A085A085A08       DC16     +2138,+2138,+2138,+2138
   \              5A08        
   \   0000124C   5A085A085A08       DC16     +2138,+2138,+2138,+2138
   \              5A08        
   \   00001254   5A085A085A08       DC16     +2138,+2138,+2138,+2138
   \              5A08        
   \   0000125C   5A085A085A08       DC16     +2138,+2138,+2138,+2138
   \              5A08        
   \   00001264   5A085A085A08       DC16     +2138,+2138,+2138,+2138
   \              5A08        
   \   0000126C   5A085A085A08       DC16     +2138,+2138,+2138,+2138
   \              5A08        
   \   00001274   5A085A085A08       DC16     +2138,+2138,+2138,+2138
   \              5A08        
   \   0000127C   5A085A085A08       DC16     +2138,+2138,+2138,+2138
   \              5A08        
   \   00001284   5A085A085A08       DC16     +2138,+2138,+2138,+2138
   \              5A08        
   \   0000128C   5A085A085A08       DC16     +2138,+2138,+2138,+2138
   \              5A08        
   \   00001294   5A085A085A08       DC16     +2138,+2138,+2138,+2138
   \              5A08        
   \   0000129C   5A085A085A08       DC16     +2138,+2138,+2138,+2138
   \              5A08        
   \   000012A4   5A085A085A08       DC16     +2138,+2138,+2138,+2138
   \              5A08        
   \   000012AC   5A085A085A08       DC16     +2138,+2138,+2138,+2138
   \              5A08        
   \   000012B4   5A085A085A08       DC16     +2138,+2138,+2138,+2138
   \              5A08        
   \   000012BC   5A085A085A08       DC16     +2138,+2138,+2138,+2138
   \              5A08        
   \   000012C4   5A085A085A08       DC16     +2138,+2138,+2138,+2138
   \              5A08        
   \   000012CC   5A085A085A08       DC16     +2138,+2138,+2138,+2138
   \              5A08        
   \   000012D4   5A085A085A08       DC16     +2138,+2138,+2138,+2138
   \              5A08        
   \   000012DC   5A085A085A08       DC16     +2138,+2138,+2138,+2138
   \              5A08        
   \   000012E4   5A085A085A08       DC16     +2138,+2138,+2138,+2138
   \              5A08        
   \   000012EC   5A085A085A08       DC16     +2138,+2138,+2138,+2138
   \              5A08        
   \   000012F4   5A085A085A08       DC16     +2138,+2138,+2138,+2138
   \              5A08        
   \   000012FC   5A085A085A08       DC16     +2138,+2138,+2138,+2138
   \              5A08        
   \   00001304   5A085A085A08       DC16     +2138,+2138,+2138,+2138
   \              5A08        
   \   0000130C   5A085A085A08       DC16     +2138,+2138,+2138,+2138
   \              5A08        
   \   00001314   5A085A085A08       DC16     +2138,+2138,+2138,+2138
   \              5A08        
   \   0000131C   5A085A085A08       DC16     +2138,+2138,+2138,+2138
   \              5A08        
   \   00001324   5A085A085A08       DC16     +2138,+2138,+2138,+2138
   \              5A08        
   \   0000132C   5A085A085A08       DC16     +2138,+2138,+2138,+2138
   \              5A08        
   \   00001334   5A085A085A08       DC16     +2138,+2138,+2138,+2138
   \              5A08        
   \   0000133C   5A085A085A08       DC16     +2138,+2138,+2138,+2138
   \              5A08        
   \   00001344   5A085A085A08       DC16     +2138,+2138,+2138,+2138
   \              5A08        
   \   0000134C   5A085A085A08       DC16     +2138,+2138,+2138,+2138
   \              5A08        
   \   00001354   5A085A085A08       DC16     +2138,+2138,+2138,+2138
   \              5A08        
   \   0000135C   5A085A085A08       DC16     +2138,+2138,+2138,+2138
   \              5A08        
   \   00001364   5A085A085A08       DC16     +2138,+2138,+2138,+2138
   \              5A08        
   \   0000136C   5A085A085A08       DC16     +2138,+2138,+2138,+2138
   \              5A08        
   \   00001374   5A085A085A08       DC16     +2138,+2138,+2138,+2138
   \              5A08        
   \   0000137C   5A085A085A08       DC16     +2138,+2138,+2138,+2138
   \              5A08        
   \   00001384   5A085A085A08       DC16     +2138,+2138,+2138,+2138
   \              5A08        
   \   0000138C   5A085A085A08       DC16     +2138,+2138,+2138,+2138
   \              5A08        
   \   00001394   5A085A085A08       DC16     +2138,+2138,+2138,+2138
   \              5A08        
   \   0000139C   5A085A085A08       DC16     +2138,+2138,+2138,+2138
   \              5A08        
   \   000013A4   5A085A085A08       DC16     +2138,+2138,+2138,+2138
   \              5A08        
   \   000013AC   5A085A085A08       DC16     +2138,+2138,+2138,+2138
   \              5A08        
   \   000013B4   5A085A085A08       DC16     +2138,+2138,+2138,+2138
   \              5A08        
   \   000013BC   5A085A085A08       DC16     +2138,+2138,+2138,+2138
   \              5A08        
   \   000013C4   5A085A085A08       DC16     +2138,+2138,+2138,+2138
   \              5A08        
   \   000013CC   5A085A085A08       DC16     +2138,+2138,+2138,+2138
   \              5A08        
   \   000013D4   5A085A085A08       DC16     +2138,+2138,+2138,+2138
   \              5A08        
   \   000013DC   5A085A085A08       DC16     +2138,+2138,+2138,+2138
   \              5A08        
   \   000013E4   5A085A085A08       DC16     +2138,+2138,+2138,+2138
   \              5A08        
   \   000013EC   5A085A085A08       DC16     +2138,+2138,+2138,+2138
   \              5A08        
   \   000013F4   5A085A085A08       DC16     +2138,+2138,+2138,+2138
   \              5A08        
   \   000013FC   5A085A085A08       DC16     +2138,+2138,+2138,+2138
   \              5A08        
   \   00001404   5A085A085A08       DC16     +2138,+2138,+2138,+2138
   \              5A08        
   \   0000140C   5A085A085A08       DC16     +2138,+2138,+2138,+2138
   \              5A08        
   \   00001414   5A085A085A08       DC16     +2138,+2138,+2138,+2138
   \              5A08        
   \   0000141C   5A085A085A08       DC16     +2138,+2138,+2138,+2138
   \              5A08        
   \   00001424   5A085A085A08       DC16     +2138,+2138,+2138,+2138
   \              5A08        
   \   0000142C   5A085A085A08       DC16     +2138,+2138,+2138,+2138
   \              5A08        
   \   00001434   5A085A085A08       DC16     +2138,+2138,+2138,+2138
   \              5A08        
   \   0000143C   5A085A085A08       DC16     +2138,+2138,+2138,+2138
   \              5A08        
   \   00001444   5A085A085A08       DC16     +2138,+2138,+2138,+2138
   \              5A08        
   \   0000144C   5A085A085A08       DC16     +2138,+2138,+2138,+2138
   \              5A08        
   \   00001454   5A085A085A08       DC16     +2138,+2138,+2138,+2138
   \              5A08        
   \   0000145C   5A085A085A08       DC16     +2138,+2138,+2138,+2138
   \              5A08        
   \   00001464   5A085A085A08       DC16     +2138,+2138,+2138,+2138
   \              5A08        
   \   0000146C   5A085A085A08       DC16     +2138,+2138,+2138,+2138
   \              5A08        
   \   00001474   5A085A085A08       DC16     +2138,+2138,+2138,+2138
   \              5A08        
   \   0000147C   5A085A085A08       DC16     +2138,+2138,+2138,+2138
   \              5A08        
   \   00001484   5A085A085A08       DC16     +2138,+2138,+2138,+2138
   \              5A08        
   \   0000148C   5A085A085A08       DC16     +2138,+2138,+2138,+2138
   \              5A08        
   \   00001494   5A085A085A08       DC16     +2138,+2138,+2138,+2138
   \              5A08        
   \   0000149C   5A085A085A08       DC16     +2138,+2138,+2138,+2138
   \              5A08        
   \   000014A4   5A085A085A08       DC16     +2138,+2138,+2138,+2138
   \              5A08        
   \   000014AC   5A085A085A08       DC16     +2138,+2138,+2138,+2138
   \              5A08        
   \   000014B4   5A085A085A08       DC16     +2138,+2138,+2138,+2138
   \              5A08        
   \   000014BC   5A085A085A08       DC16     +2138,+2138,+2138,+2138
   \              5A08        
   \   000014C4   5A085A085A08       DC16     +2138,+2138,+2138,+2138
   \              5A08        
   \   000014CC   5A085A085A08       DC16     +2138,+2138,+2138,+2138
   \              5A08        
   \   000014D4   5A085A085A08       DC16     +2138,+2138,+2138,+2138
   \              5A08        
   \   000014DC   5A085A085A08       DC16     +2138,+2138,+2138,+2138
   \              5A08        
   \   000014E4   5A085A085A08       DC16     +2138,+2138,+2138,+2138
   \              5A08        
   \   000014EC   5A085A085A08       DC16     +2138,+2138,+2138,+2138
   \              5A08        
   \   000014F4   5A085A085A08       DC16     +2138,+2138,+2138,+2138
   \              5A08        
   \   000014FC   5A085A085A08       DC16     +2138,+2138,+2138,+2138
   \              5A08        
   \   00001504   5A085A085A08       DC16     +2138,+2138,+2138,+2138
   \              5A08        
   \   0000150C   5A085A085A08       DC16     +2138,+2138,+2138,+2138
   \              5A08        
   \   00001514   5A085A085A08       DC16     +2138,+2138,+2138,+2138
   \              5A08        
   \   0000151C   5A085A085A08       DC16     +2138,+2138,+2138,+2138
   \              5A08        
   \   00001524   5A085A085A08       DC16     +2138,+2138,+2138,+2138
   \              5A08        
   \   0000152C   5A085A085A08       DC16     +2138,+2138,+2138,+2138
   \              5A08        
   \   00001534   5A085A085A08       DC16     +2138,+2138,+2138,+2138
   \              5A08        
   \   0000153C   5A085A085A08       DC16     +2138,+2138,+2138,+2138
   \              5A08        
   \   00001544   5A085A085A08       DC16     +2138,+2138,+2138,+2138
   \              5A08        
   \   0000154C   5A085A085A08       DC16     +2138,+2138,+2138,+2138
   \              5A08        
   \   00001554   5A085A085A08       DC16     +2138,+2138,+2138,+2138
   \              5A08        
   \   0000155C   5A085A085A08       DC16     +2138,+2138,+2138,+2138
   \              5A08        
   \   00001564   5A085A085A08       DC16     +2138,+2138,+2138,+2138
   \              5A08        
   \   0000156C   5A085A085A08       DC16     +2138,+2138,+2138,+2138
   \              5A08        
   \   00001574   5A085A085A08       DC16     +2138,+2138,+2138,+2138
   \              5A08        
   \   0000157C   5A085A085A08       DC16     +2138,+2138,+2138,+2138
   \              5A08        
   \   00001584   5A085A085A08       DC16     +2138,+2138,+2138,+2138
   \              5A08        
   \   0000158C   5A085A085A08       DC16     +2138,+2138,+2138,+2138
   \              5A08        
   \   00001594   5A085A085A08       DC16     +2138,+2138,+2138,+2138
   \              5A08        
   \   0000159C   5A085A085A08       DC16     +2138,+2138,+2138,+2138
   \              5A08        
   \   000015A4   5A085A085A08       DC16     +2138,+2138,+2138,+2138
   \              5A08        
   \   000015AC   5A085A085A08       DC16     +2138,+2138,+2138,+2138
   \              5A08        
   \   000015B4   5A085A085A08       DC16     +2138,+2138,+2138,+2138
   \              5A08        
   \   000015BC   5A085A085A08       DC16     +2138,+2138,+2138,+2138
   \              5A08        
   \   000015C4   5A085A085A08       DC16     +2138,+2138,+2138,+2138
   \              5A08        
   \   000015CC   5A085A085A08       DC16     +2138,+2138,+2138,+2138
   \              5A08        
   \   000015D4   5A085A085A08       DC16     +2138,+2138,+2138,+2138
   \              5A08        
   \   000015DC   5A085A085A08       DC16     +2138,+2138,+2138,+2138
   \              5A08        
   \   000015E4   5A085A085A08       DC16     +2138,+2138,+2138,+2138
   \              5A08        
   \   000015EC   5A085A085A08       DC16     +2138,+2138,+2138,+2138
   \              5A08        
   \   000015F4   5A085A085A08       DC16     +2138,+2138,+2138,+2138
   \              5A08        
   \   000015FC   5A085A085A08       DC16     +2138,+2138,+2138,+2138
   \              5A08        
   \   00001604   5A085A085A08       DC16     +2138,+2138,+2138,+2138
   \              5A08        
   \   0000160C   5A085A085A08       DC16     +2138,+2138,+2138,+2138
   \              5A08        
   \   00001614   5A085A085A08       DC16     +2138,+2138,+2138,+2138
   \              5A08        
   \   0000161C   5A085A085A08       DC16     +2138,+2138,+2138,+2138
   \              5A08        
   \   00001624   5A085A085A08       DC16     +2138,+2138,+2138,+2138
   \              5A08        
   \   0000162C   5A085A085A08       DC16     +2138,+2138,+2138,+2138
   \              5A08        
   \   00001634   5A085A085A08       DC16     +2138,+2138,+2138,+2138
   \              5A08        
   \   0000163C   5A085A085A08       DC16     +2138,+2138,+2138,+2138
   \              5A08        
   \   00001644   5A085A085A08       DC16     +2138,+2138,+2138,+2138
   \              5A08        
   \   0000164C   5A085A085A08       DC16     +2138,+2138,+2138,+2138
   \              5A08        
   \   00001654   5A085A085A08       DC16     +2138,+2138,+2138,+2138
   \              5A08        
   \   0000165C   5A085A085A08       DC16     +2138,+2138,+2138,+2138
   \              5A08        
   \   00001664   5A085A085A08       DC16     +2138,+2138,+2138,+2138
   \              5A08        
   \   0000166C   5A085A085A08       DC16     +2138,+2138,+2138,+2138
   \              5A08        
   \   00001674   5A085A085A08       DC16     +2138,+2138,+2138,+2138
   \              5A08        
   \   0000167C   5A085A085A08       DC16     +2138,+2138,+2138,+2138
   \              5A08        
   \   00001684   5A085A085A08       DC16     +2138,+2138,+2138,+2138
   \              5A08        
   \   0000168C   5A085A085A08       DC16     +2138,+2138,+2138,+2138
   \              5A08        
   \   00001694   5A085A085A08       DC16     +2138,+2138,+2138,+2138
   \              5A08        
   \   0000169C   5A085A085A08       DC16     +2138,+2138,+2138,+2138
   \              5A08        
   \   000016A4   5A085A085A08       DC16     +2138,+2138,+2138,+2138
   \              5A08        
   \   000016AC   5A085A085A08       DC16     +2138,+2138,+2138,+2138
   \              5A08        
   \   000016B4   5A085A085A08       DC16     +2138,+2138,+2138,+2138
   \              5A08        
   \   000016BC   5A085A085A08       DC16     +2138,+2138,+2138,+2138
   \              5A08        
   \   000016C4   5A085A085A08       DC16     +2138,+2138,+2138,+2138
   \              5A08        
   \   000016CC   5A085A085A08       DC16     +2138,+2138,+2138,+2138
   \              5A08        
   \   000016D4   5A085A085A08       DC16     +2138,+2138,+2138,+2138
   \              5A08        
   \   000016DC   5A085A085A08       DC16     +2138,+2138,+2138,+2138
   \              5A08        
   \   000016E4   5A085A085A08       DC16     +2138,+2138,+2138,+2138
   \              5A08        
   \   000016EC   5A085A085A08       DC16     +2138,+2138,+2138,+2138
   \              5A08        
   \   000016F4   5A085A085A08       DC16     +2138,+2138,+2138,+2138
   \              5A08        
   \   000016FC   5A085A085A08       DC16     +2138,+2138,+2138,+2138
   \              5A08        
   \   00001704   5A085A085A08       DC16     +2138,+2138,+2138,+2138
   \              5A08        
   \   0000170C   5A085A085A08       DC16     +2138,+2138,+2138,+2138
   \              5A08        
   \   00001714   5A085A085A08       DC16     +2138,+2138,+2138,+2138
   \              5A08        
   \   0000171C   5A085A085A08       DC16     +2138,+2138,+2138,+2138
   \              5A08        
   \   00001724   5A085A085A08       DC16     +2138,+2138,+2138,+2138
   \              5A08        
   \   0000172C   5A085A085A08       DC16     +2138,+2138,+2138,+2138
   \              5A08        
   \   00001734   5A085A085A08       DC16     +2138,+2138,+2138,+2138
   \              5A08        
   \   0000173C   5A085A085A08       DC16     +2138,+2138,+2138,+2138
   \              5A08        
   \   00001744   5A085A085A08       DC16     +2138,+2138,+2138,+2138
   \              5A08        
   \   0000174C   5A085A085A08       DC16     +2138,+2138,+2138,+2138
   \              5A08        
   \   00001754   5A085A085A08       DC16     +2138,+2138,+2138,+2138
   \              5A08        
   \   0000175C   5A085A085A08       DC16     +2138,+2138,+2138,+2138
   \              5A08        
   \   00001764   5A085A085A08       DC16     +2138,+2138,+2138,+2138
   \              5A08        
   \   0000176C   5A085A085A08       DC16     +2138,+2138,+2138,+2138
   \              5A08        
   \   00001774   5A085A085A08       DC16     +2138,+2138,+2138,+2138
   \              5A08        
   \   0000177C   5A085A085A08       DC16     +2138,+2138,+2138,+2138
   \              5A08        
   \   00001784   5A085A085A08       DC16     +2138,+2138,+2138,+2138
   \              5A08        
   \   0000178C   5A085A085A08       DC16     +2138,+2138,+2138,+2138
   \              5A08        
   \   00001794   5A085A085A08       DC16     +2138,+2138,+2138,+2138
   \              5A08        
   \   0000179C   5A085A085A08       DC16     +2138,+2138,+2138,+2138
   \              5A08        
   \   000017A4   5A085A085A08       DC16     +2138,+2138,+2138,+2138
   \              5A08        
   \   000017AC   5A085A085A08       DC16     +2138,+2138,+2138,+2138
   \              5A08        
   \   000017B4   5A085A085A08       DC16     +2138,+2138,+2138,+2138
   \              5A08        
   \   000017BC   5A085A085A08       DC16     +2138,+2138,+2138,+2138
   \              5A08        
   \   000017C4   5A085A085A08       DC16     +2138,+2138,+2138,+2138
   \              5A08        
   \   000017CC   5A085A085A08       DC16     +2138,+2138,+2138,+2138
   \              5A08        
   \   000017D4   5A085A085A08       DC16     +2138,+2138,+2138,+2138
   \              5A08        
   \   000017DC   5A085A085A08       DC16     +2138,+2138,+2138,+2138
   \              5A08        
   \   000017E4   5A085A085A08       DC16     +2138,+2138,+2138,+2138
   \              5A08        
   \   000017EC   5A085A085A08       DC16     +2138,+2138,+2138,+2138
   \              5A08        
   \   000017F4   5A085A085A08       DC16     +2138,+2138,+2138,+2138
   \              5A08        
   \   000017FC   5A085A085A08       DC16     +2138,+2138,+2138,+2138
   \              5A08        
   \   00001804   5A085A085A08       DC16     +2138,+2138,+2138,+2138
   \              5A08        
   \   0000180C   5A085A085A08       DC16     +2138,+2138,+2138,+2138
   \              5A08        
   \   00001814   5A085A085A08       DC16     +2138,+2138,+2138,+2138
   \              5A08        
   \   0000181C   5A085A085A08       DC16     +2138,+2138,+2138,+2138
   \              5A08        
   \   00001824   5A085A085A08       DC16     +2138,+2138,+2138,+2138
   \              5A08        
   \   0000182C   5A085A085A08       DC16     +2138,+2138,+2138,+2138
   \              5A08        
   \   00001834   5A085A085A08       DC16     +2138,+2138,+2138,+2138
   \              5A08        
   \   0000183C   5A085A085A08       DC16     +2138,+2138,+2138,+2138
   \              5A08        
   \   00001844   5A085A085A08       DC16     +2138,+2138,+2138,+2138
   \              5A08        
   \   0000184C   5A085A085A08       DC16     +2138,+2138,+2138,+2138
   \              5A08        
   \   00001854   5A085A085A08       DC16     +2138,+2138,+2138,+2138
   \              5A08        
   \   0000185C   5A085A085A08       DC16     +2138,+2138,+2138,+2138
   \              5A08        
   \   00001864   5A085A085A08       DC16     +2138,+2138,+2138,+2138
   \              5A08        
   \   0000186C   5A085A085A08       DC16     +2138,+2138,+2138,+2138
   \              5A08        
   \   00001874   5A085A085A08       DC16     +2138,+2138,+2138,+2138
   \              5A08        
   \   0000187C   5A085A085A08       DC16     +2138,+2138,+2138,+2138
   \              5A08        
   \   00001884   5A085A085A08       DC16     +2138,+2138,+2138,+2138
   \              5A08        
   \   0000188C   5A085A085A08       DC16     +2138,+2138,+2138,+2138
   \              5A08        
   \   00001894   5A085A085A08       DC16     +2138,+2138,+2138,+2138
   \              5A08        
   \   0000189C   5A085A085A08       DC16     +2138,+2138,+2138,+2138
   \              5A08        
   \   000018A4   5A085A085A08       DC16     +2138,+2138,+2138,+2138
   \              5A08        
   \   000018AC   5A085A085A08       DC16     +2138,+2138,+2138,+2138
   \              5A08        
   \   000018B4   5A085A085A08       DC16     +2138,+2138,+2138,+2138
   \              5A08        
   \   000018BC   5A085A085A08       DC16     +2138,+2138,+2138,+2138
   \              5A08        
   \   000018C4   5A085A085A08       DC16     +2138,+2138,+2138,+2138
   \              5A08        
   \   000018CC   5A085A085A08       DC16     +2138,+2138,+2138,+2138
   \              5A08        
   \   000018D4   5A085A085A08       DC16     +2138,+2138,+2138,+2138
   \              5A08        
   \   000018DC   5A085A085A08       DC16     +2138,+2138,+2138,+2138
   \              5A08        
   \   000018E4   5A085A085A08       DC16     +2138,+2138,+2138,+2138
   \              5A08        
   \   000018EC   5A085A085A08       DC16     +2138,+2138,+2138,+2138
   \              5A08        
   \   000018F4   5A085A085A08       DC16     +2138,+2138,+2138,+2138
   \              5A08        
   \   000018FC   5A085A085A08       DC16     +2138,+2138,+2138,+2138
   \              5A08        
   \   00001904   5A085A085A08       DC16     +2138,+2138,+2138,+2138
   \              5A08        
   \   0000190C   5A085A085A08       DC16     +2138,+2138,+2138,+2138
   \              5A08        
   \   00001914   5A085A085A08       DC16     +2138,+2138,+2138,+2138
   \              5A08        
   \   0000191C   5A085A085A08       DC16     +2138,+2138,+2138,+2138
   \              5A08        
   \   00001924   5A085A085A08       DC16     +2138,+2138,+2138,+2138
   \              5A08        
   \   0000192C   5A085A085A08       DC16     +2138,+2138,+2138,+2138
   \              5A08        
   \   00001934   5A085A085A08       DC16     +2138,+2138,+2138,+2138
   \              5A08        
   \   0000193C   5A085A085A08       DC16     +2138,+2138,+2138,+2138
   \              5A08        
   \   00001944   5A085A085A08       DC16     +2138,+2138,+2138,+2138
   \              5A08        
   \   0000194C   5A085A085A08       DC16     +2138,+2138,+2138,+2138
   \              5A08        
   \   00001954   5A085A085A08       DC16     +2138,+2138,+2138,+2138
   \              5A08        
   \   0000195C   5A085A085A08       DC16     +2138,+2138,+2138,+2138
   \              5A08        
   \   00001964   5A085A085A08       DC16     +2138,+2138,+2138,+2138
   \              5A08        
   \   0000196C   5A085A085A08       DC16     +2138,+2138,+2138,+2138
   \              5A08        
   \   00001974   5A085A085A08       DC16     +2138,+2138,+2138,+2138
   \              5A08        
   \   0000197C   5A085A085A08       DC16     +2138,+2138,+2138,+2138
   \              5A08        
   \   00001984   5A085A085A08       DC16     +2138,+2138,+2138,+2138
   \              5A08        
   \   0000198C   5A085A085A08       DC16     +2138,+2138,+2138,+2138
   \              5A08        
   \   00001994   5A085A085A08       DC16     +2138,+2138,+2138,+2138
   \              5A08        
   \   0000199C   5A085A085A08       DC16     +2138,+2138,+2138,+2138
   \              5A08        
   \   000019A4   5A085A085A08       DC16     +2138,+2138,+2138,+2138
   \              5A08        
   \   000019AC   5A085A085A08       DC16     +2138,+2138,+2138,+2138
   \              5A08        
   \   000019B4   5A085A085A08       DC16     +2138,+2138,+2138,+2138
   \              5A08        
   \   000019BC   5A085A085A08       DC16     +2138,+2138,+2138,+2138
   \              5A08        
   \   000019C4   5A085A085A08       DC16     +2138,+2138,+2138,+2138
   \              5A08        
   \   000019CC   5A085A085A08       DC16     +2138,+2138,+2138,+2138
   \              5A08        
   \   000019D4   5A085A085A08       DC16     +2138,+2138,+2138,+2138
   \              5A08        
   \   000019DC   5A085A085A08       DC16     +2138,+2138,+2138,+2138
   \              5A08        
   \   000019E4   5A085A085A08       DC16     +2138,+2138,+2138,+2138
   \              5A08        
   \   000019EC   5A085A085A08       DC16     +2138,+2138,+2138,+2138
   \              5A08        
   \   000019F4   5A085A085A08       DC16     +2138,+2138,+2138,+2138
   \              5A08        
   \   000019FC   5A085A085A08       DC16     +2138,+2138,+2138,+2138
   \              5A08        
   \   00001A04   5A085A085A08       DC16     +2138,+2138,+2138,+2138
   \              5A08        
   \   00001A0C   5A085A085A08       DC16     +2138,+2138,+2138,+2138
   \              5A08        
   \   00001A14   5A085A085A08       DC16     +2138,+2138,+2138,+2138
   \              5A08        
   \   00001A1C   5A085A085A08       DC16     +2138,+2138,+2138,+2138
   \              5A08        
   \   00001A24   5A085A085A08       DC16     +2138,+2138,+2138,+2138
   \              5A08        
   \   00001A2C   5A085A085A08       DC16     +2138,+2138,+2138,+2138
   \              5A08        
   \   00001A34   5A085A085A08       DC16     +2138,+2138,+2138,+2138
   \              5A08        
   \   00001A3C   5A085A085A08       DC16     +2138,+2138,+2138,+2138
   \              5A08        
   \   00001A44   5A085A085A08       DC16     +2138,+2138,+2138,+2138
   \              5A08        
   \   00001A4C   5A085A085A08       DC16     +2138,+2138,+2138,+2138
   \              5A08        
   \   00001A54   5A085A085A08       DC16     +2138,+2138,+2138,+2138
   \              5A08        
   \   00001A5C   5A085A085A08       DC16     +2138,+2138,+2138,+2138
   \              5A08        
   \   00001A64   5A085A085A08       DC16     +2138,+2138,+2138,+2138
   \              5A08        
   \   00001A6C   5A085A085A08       DC16     +2138,+2138,+2138,+2138
   \              5A08        
   \   00001A74   5A085A085A08       DC16     +2138,+2138,+2138,+2138
   \              5A08        
   \   00001A7C   5A085A085A08       DC16     +2138,+2138,+2138,+2138
   \              5A08        
   \   00001A84   5A085A085A08       DC16     +2138,+2138,+2138,+2138
   \              5A08        
   \   00001A8C   5A085A085A08       DC16     +2138,+2138,+2138,+2138
   \              5A08        
   \   00001A94   5A085A085A08       DC16     +2138,+2138,+2138,+2138
   \              5A08        
   \   00001A9C   5A085A085A08       DC16     +2138,+2138,+2138,+2138
   \              5A08        
   \   00001AA4   5A085A085A08       DC16     +2138,+2138,+2138,+2138
   \              5A08        
   \   00001AAC   5A085A085A08       DC16     +2138,+2138,+2138,+2138
   \              5A08        
   \   00001AB4   5A085A085A08       DC16     +2138,+2138,+2138,+2138
   \              5A08        
   \   00001ABC   5A085A085A08       DC16     +2138,+2138,+2138,+2138
   \              5A08        
   \   00001AC4   5A085A085A08       DC16     +2138,+2138,+2138,+2138
   \              5A08        
   \   00001ACC   5A085A085A08       DC16     +2138,+2138,+2138,+2138
   \              5A08        
   \   00001AD4   5A085A085A08       DC16     +2138,+2138,+2138,+2138
   \              5A08        
   \   00001ADC   5A085A085A08       DC16     +2138,+2138,+2138,+2138
   \              5A08        
   \   00001AE4   5A085A085A08       DC16     +2138,+2138,+2138,+2138
   \              5A08        
   \   00001AEC   5A085A085A08       DC16     +2138,+2138,+2138,+2138
   \              5A08        
   \   00001AF4   5A085A085A08       DC16     +2138,+2138,+2138,+2138
   \              5A08        
   \   00001AFC   5A085A085A08       DC16     +2138,+2138,+2138,+2138
   \              5A08        
   \   00001B04   5A085A085A08       DC16     +2138,+2138,+2138,+2138
   \              5A08        
   \   00001B0C   5A085A085A08       DC16     +2138,+2138,+2138,+2138
   \              5A08        
   \   00001B14   5A085A085A08       DC16     +2138,+2138,+2138,+2138
   \              5A08        
   \   00001B1C   5A085A085A08       DC16     +2138,+2138,+2138,+2138
   \              5A08        
   \   00001B24   5A085A085A08       DC16     +2138,+2138,+2138,+2138
   \              5A08        
   \   00001B2C   5A085A085A08       DC16     +2138,+2138,+2138,+2138
   \              5A08        
   \   00001B34   5A085A085A08       DC16     +2138,+2138,+2138,+2138
   \              5A08        
   \   00001B3C   5A085A085A08       DC16     +2138,+2138,+2138,+2138
   \              5A08        
   \   00001B44   5A085A085A08       DC16     +2138,+2138,+2138,+2138
   \              5A08        
   \   00001B4C   5A085A085A08       DC16     +2138,+2138,+2138,+2138
   \              5A08        
   \   00001B54   5A085A085A08       DC16     +2138,+2138,+2138,+2138
   \              5A08        
   \   00001B5C   5A085A085A08       DC16     +2138,+2138,+2138,+2138
   \              5A08        
   \   00001B64   5A085A085A08       DC16     +2138,+2138,+2138,+2138
   \              5A08        
   \   00001B6C   5A085A085A08       DC16     +2138,+2138,+2138,+2138
   \              5A08        
   \   00001B74   5A085A085A08       DC16     +2138,+2138,+2138,+2138
   \              5A08        
   \   00001B7C   5A085A085A08       DC16     +2138,+2138,+2138,+2138
   \              5A08        
   \   00001B84   5A085A085A08       DC16     +2138,+2138,+2138,+2138
   \              5A08        
   \   00001B8C   5A085A085A08       DC16     +2138,+2138,+2138,+2138
   \              5A08        
   \   00001B94   5A085A085A08       DC16     +2138,+2138,+2138,+2138
   \              5A08        
   \   00001B9C   5A085A085A08       DC16     +2138,+2138,+2138,+2138
   \              5A08        
   \   00001BA4   5A085A085A08       DC16     +2138,+2138,+2138,+2138
   \              5A08        
   \   00001BAC   5A085A085A08       DC16     +2138,+2138,+2138,+2138
   \              5A08        
   \   00001BB4   5A085A085A08       DC16     +2138,+2138,+2138,+2138
   \              5A08        
   \   00001BBC   5A085A085A08       DC16     +2138,+2138,+2138,+2138
   \              5A08        
   \   00001BC4   5A085A085A08       DC16     +2138,+2138,+2138,+2138
   \              5A08        
   \   00001BCC   5A085A085A08       DC16     +2138,+2138,+2138,+2138
   \              5A08        
   \   00001BD4   5A085A085A08       DC16     +2138,+2138,+2138,+2138
   \              5A08        
   \   00001BDC   5A085A085A08       DC16     +2138,+2138,+2138,+2138
   \              5A08        
   \   00001BE4   5A085A085A08       DC16     +2138,+2138,+2138,+2138
   \              5A08        
   \   00001BEC   5A085A085A08       DC16     +2138,+2138,+2138,+2138
   \              5A08        
   \   00001BF4   5A085A085A08       DC16     +2138,+2138,+2138,+2138
   \              5A08        
   \   00001BFC   5A085A085A08       DC16     +2138,+2138,+2138,+2138
   \              5A08        
   \   00001C04   5A085A085A08       DC16     +2138,+2138,+2138,+2138
   \              5A08        
   \   00001C0C   5A085A085A08       DC16     +2138,+2138,+2138,+2138
   \              5A08        
   \   00001C14   5A085A085A08       DC16     +2138,+2138,+2138,+2138
   \              5A08        
   \   00001C1C   5A085A085A08       DC16     +2138,+2138,+2138,+2138
   \              5A08        
   \   00001C24   5A085A085A08       DC16     +2138,+2138,+2138,+2138
   \              5A08        
   \   00001C2C   5A085A085A08       DC16     +2138,+2138,+2138,+2138
   \              5A08        
   \   00001C34   5A085A085A08       DC16     +2138,+2138,+2138,+2138
   \              5A08        
   \   00001C3C   5A085A085A08       DC16     +2138,+2138,+2138,+2138
   \              5A08        
   \   00001C44   5A085A085A08       DC16     +2138,+2138,+2138,+2138
   \              5A08        
   \   00001C4C   5A085A085A08       DC16     +2138,+2138,+2138,+2138
   \              5A08        
   \   00001C54   5A085A085A08       DC16     +2138,+2138,+2138,+2138
   \              5A08        
   \   00001C5C   5A085A085A08       DC16     +2138,+2138,+2138,+2138
   \              5A08        
   \   00001C64   5A085A085A08       DC16     +2138,+2138,+2138,+2138
   \              5A08        
   \   00001C6C   5A085A085A08       DC16     +2138,+2138,+2138,+2138
   \              5A08        
   \   00001C74   5A085A085A08       DC16     +2138,+2138,+2138,+2138
   \              5A08        
   \   00001C7C   5A085A085A08       DC16     +2138,+2138,+2138,+2138
   \              5A08        
   \   00001C84   5A085A085A08       DC16     +2138,+2138,+2138,+2138
   \              5A08        
   \   00001C8C   5A085A085A08       DC16     +2138,+2138,+2138,+2138
   \              5A08        
   \   00001C94   5A085A085A08       DC16     +2138,+2138,+2138,+2138
   \              5A08        
   \   00001C9C   5A085A085A08       DC16     +2138,+2138,+2138,+2138
   \              5A08        
   \   00001CA4   5A085A085A08       DC16     +2138,+2138,+2138,+2138
   \              5A08        
   \   00001CAC   5A085A085A08       DC16     +2138,+2138,+2138,+2138
   \              5A08        
   \   00001CB4   5A085A085A08       DC16     +2138,+2138,+2138,+2138
   \              5A08        
   \   00001CBC   5A085A085A08       DC16     +2138,+2138,+2138,+2138
   \              5A08        
   \   00001CC4   5A085A085A08       DC16     +2138,+2138,+2138,+2138
   \              5A08        
   \   00001CCC   5A085A085A08       DC16     +2138,+2138,+2138,+2138
   \              5A08        
   \   00001CD4   5A085A085A08       DC16     +2138,+2138,+2138,+2138
   \              5A08        
   \   00001CDC   5A085A085A08       DC16     +2138,+2138,+2138,+2138
   \              5A08        
   \   00001CE4   5A085A085A08       DC16     +2138,+2138,+2138,+2138
   \              5A08        
   \   00001CEC   5A085A085A08       DC16     +2138,+2138,+2138,+2138
   \              5A08        
   \   00001CF4   5A085A085A08       DC16     +2138,+2138,+2138,+2138
   \              5A08        
   \   00001CFC   5A085A085A08       DC16     +2138,+2138,+2138,+2138
   \              5A08        
   \   00001D04   5A085A085A08       DC16     +2138,+2138,+2138,+2138
   \              5A08        
   \   00001D0C   5A085A085A08       DC16     +2138,+2138,+2138,+2138
   \              5A08        
   \   00001D14   5A085A085A08       DC16     +2138,+2138,+2138,+2138
   \              5A08        
   \   00001D1C   5A085A085A08       DC16     +2138,+2138,+2138,+2138
   \              5A08        
   \   00001D24   5A085A085A08       DC16     +2138,+2138,+2138,+2138
   \              5A08        
   \   00001D2C   5A085A085A08       DC16     +2138,+2138,+2138,+2138
   \              5A08        
   \   00001D34   5A085A085A08       DC16     +2138,+2138,+2138,+2138
   \              5A08        
   \   00001D3C   5A085A085A08       DC16     +2138,+2138,+2138,+2138
   \              5A08        
   \   00001D44   5A085A085A08       DC16     +2138,+2138,+2138,+2138
   \              5A08        
   \   00001D4C   5A085A085A08       DC16     +2138,+2138,+2138,+2138
   \              5A08        
   \   00001D54   5A085A085A08       DC16     +2138,+2138,+2138,+2138
   \              5A08        
   \   00001D5C   5A085A085A08       DC16     +2138,+2138,+2138,+2138
   \              5A08        
   \   00001D64   5A085A085A08       DC16     +2138,+2138,+2138,+2138
   \              5A08        
   \   00001D6C   5A085A085A08       DC16     +2138,+2138,+2138,+2138
   \              5A08        
   \   00001D74   5A085A085A08       DC16     +2138,+2138,+2138,+2138
   \              5A08        
   \   00001D7C   5A085A085A08       DC16     +2138,+2138,+2138,+2138
   \              5A08        
   \   00001D84   5A085A085A08       DC16     +2138,+2138,+2138,+2138
   \              5A08        
   \   00001D8C   5A085A085A08       DC16     +2138,+2138,+2138,+2138
   \              5A08        
   \   00001D94   5A085A085A08       DC16     +2138,+2138,+2138,+2138
   \              5A08        
   \   00001D9C   5A085A085A08       DC16     +2138,+2138,+2138,+2138
   \              5A08        
   \   00001DA4   5A085A085A08       DC16     +2138,+2138,+2138,+2138
   \              5A08        
   \   00001DAC   5A085A085A08       DC16     +2138,+2138,+2138,+2138
   \              5A08        
   \   00001DB4   5A085A085A08       DC16     +2138,+2138,+2138,+2138
   \              5A08        
   \   00001DBC   5A085A085A08       DC16     +2138,+2138,+2138,+2138
   \              5A08        
   \   00001DC4   5A085A085A08       DC16     +2138,+2138,+2138,+2138
   \              5A08        
   \   00001DCC   5A085A085A08       DC16     +2138,+2138,+2138,+2138
   \              5A08        
   \   00001DD4   5A085A085A08       DC16     +2138,+2138,+2138,+2138
   \              5A08        
   \   00001DDC   5A085A085A08       DC16     +2138,+2138,+2138,+2138
   \              5A08        
   \   00001DE4   5A085A085A08       DC16     +2138,+2138,+2138,+2138
   \              5A08        
   \   00001DEC   5A085A085A08       DC16     +2138,+2138,+2138,+2138
   \              5A08        
   \   00001DF4   5A085A085A08       DC16     +2138,+2138,+2138,+2138
   \              5A08        
   \   00001DFC   5A085A085A08       DC16     +2138,+2138,+2138,+2138
   \              5A08        
   \   00001E04   5A085A085A08       DC16     +2138,+2138,+2138,+2138
   \              5A08        
   \   00001E0C   5A085A085A08       DC16     +2138,+2138,+2138,+2138
   \              5A08        
   \   00001E14   5A085A085A08       DC16     +2138,+2138,+2138,+2138
   \              5A08        
   \   00001E1C   5A085A085A08       DC16     +2138,+2138,+2138,+2138
   \              5A08        
   \   00001E24   5A085A085A08       DC16     +2138,+2138,+2138,+2138
   \              5A08        
   \   00001E2C   5A085A085A08       DC16     +2138,+2138,+2138,+2138
   \              5A08        
   \   00001E34   5A085A085A08       DC16     +2138,+2138,+2138,+2138
   \              5A08        
   \   00001E3C   5A085A085A08       DC16     +2138,+2138,+2138,+2138
   \              5A08        
   \   00001E44   5A085A085A08       DC16     +2138,+2138,+2138,+2138
   \              5A08        
   \   00001E4C   5A085A085A08       DC16     +2138,+2138,+2138,+2138
   \              5A08        
   \   00001E54   5A085A085A08       DC16     +2138,+2138,+2138,+2138
   \              5A08        
   \   00001E5C   5A085A085A08       DC16     +2138,+2138,+2138,+2138
   \              5A08        
   \   00001E64   5A085A085A08       DC16     +2138,+2138,+2138,+2138
   \              5A08        
   \   00001E6C   5A085A085A08       DC16     +2138,+2138,+2138,+2138
   \              5A08        
   \   00001E74   5A085A085A08       DC16     +2138,+2138,+2138,+2138
   \              5A08        
   \   00001E7C   5A085A085A08       DC16     +2138,+2138,+2138,+2138
   \              5A08        
   \   00001E84   5A085A085A08       DC16     +2138,+2138,+2138,+2138
   \              5A08        
   \   00001E8C   5A085A085A08       DC16     +2138,+2138,+2138,+2138
   \              5A08        
   \   00001E94   5A085A085A08       DC16     +2138,+2138,+2138,+2138
   \              5A08        
   \   00001E9C   5A085A085A08       DC16     +2138,+2138,+2138,+2138
   \              5A08        
   \   00001EA4   5A085A085A08       DC16     +2138,+2138,+2138,+2138
   \              5A08        
   \   00001EAC   5A085A085A08       DC16     +2138,+2138,+2138,+2138
   \              5A08        
   \   00001EB4   5A085A085A08       DC16     +2138,+2138,+2138,+2138
   \              5A08        
   \   00001EBC   5A085A085A08       DC16     +2138,+2138,+2138,+2138
   \              5A08        
   \   00001EC4   5A085A085A08       DC16     +2138,+2138,+2138,+2138
   \              5A08        
   \   00001ECC   5A085A085A08       DC16     +2138,+2138,+2138,+2138
   \              5A08        
   \   00001ED4   5A085A085A08       DC16     +2138,+2138,+2138,+2138
   \              5A08        
   \   00001EDC   5A085A085A08       DC16     +2138,+2138,+2138,+2138
   \              5A08        
   \   00001EE4   5A085A085A08       DC16     +2138,+2138,+2138,+2138
   \              5A08        
   \   00001EEC   5A085A085A08       DC16     +2138,+2138,+2138,+2138
   \              5A08        
   \   00001EF4   5A085A085A08       DC16     +2138,+2138,+2138,+2138
   \              5A08        
   \   00001EFC   5A085A085A08       DC16     +2138,+2138,+2138,+2138
   \              5A08        
   \   00001F04   5A085A085A08       DC16     +2138,+2138,+2138,+2138
   \              5A08        
   \   00001F0C   5A085A085A08       DC16     +2138,+2138,+2138,+2138
   \              5A08        
   \   00001F14   5A085A085A08       DC16     +2138,+2138,+2138,+2138
   \              5A08        
   \   00001F1C   5A085A085A08       DC16     +2138,+2138,+2138,+2138
   \              5A08        
   \   00001F24   5A085A085A08       DC16     +2138,+2138,+2138,+2138
   \              5A08        
   \   00001F2C   5A085A085A08       DC16     +2138,+2138,+2138,+2138
   \              5A08        
   \   00001F34   5A085A085A08       DC16     +2138,+2138,+2138,+2138
   \              5A08        
   \   00001F3C   5A085A085A08       DC16     +2138,+2138,+2138,+2138
   \              5A08        
   \   00001F44   5A085A085A08       DC16     +2138,+2138,+2138,+2138
   \              5A08        
   \   00001F4C   5A085A085A08       DC16     +2138,+2138,+2138,+2138
   \              5A08        
   \   00001F54   5A085A085A08       DC16     +2138,+2138,+2138,+2138
   \              5A08        
   \   00001F5C   5A085A085A08       DC16     +2138,+2138,+2138,+2138
   \              5A08        
   \   00001F64   5A085A085A08       DC16     +2138,+2138,+2138,+2138
   \              5A08        
   \   00001F6C   5A085A085A08       DC16     +2138,+2138,+2138,+2138
   \              5A08        
   \   00001F74   5A085A085A08       DC16     +2138,+2138,+2138,+2138
   \              5A08        
   \   00001F7C   5A085A085A08       DC16     +2138,+2138,+2138,+2138
   \              5A08        
   \   00001F84   5A085A085A08       DC16     +2138,+2138,+2138,+2138
   \              5A08        
   \   00001F8C   5A085A085A08       DC16     +2138,+2138,+2138,+2138
   \              5A08        
   \   00001F94   5A085A085A08       DC16     +2138,+2138,+2138,+2138
   \              5A08        
   \   00001F9C   5A085A085A08       DC16     +2138,+2138,+2138,+2138
   \              5A08        
   \   00001FA4   5A085A085A08       DC16     +2138,+2138,+2138,+2138
   \              5A08        
   \   00001FAC   5A085A085A08       DC16     +2138,+2138,+2138,+2138
   \              5A08        
   \   00001FB4   5A085A085A08       DC16     +2138,+2138,+2138,+2138
   \              5A08        
   \   00001FBC   5A085A085A08       DC16     +2138,+2138,+2138,+2138
   \              5A08        
   \   00001FC4   5A085A085A08       DC16     +2138,+2138,+2138,+2138
   \              5A08        
   \   00001FCC   5A085A085A08       DC16     +2138,+2138,+2138,+2138
   \              5A08        
   \   00001FD4   5A085A085A08       DC16     +2138,+2138,+2138,+2138
   \              5A08        
   \   00001FDC   5A085A085A08       DC16     +2138,+2138,+2138,+2138
   \              5A08        
   \   00001FE4   5A085A085A08       DC16     +2138,+2138,+2138,+2138
   \              5A08        
   \   00001FEC   5A085A085A08       DC16     +2138,+2138,+2138,+2138
   \              5A08        
   \   00001FF4   5A085A085A08       DC16     +2138,+2138,+2138,+2138
   \              5A08        
   \   00001FFC   5A085A085A08       DC16     +2138,+2138,+2138,+2138
   \              5A08        
   \   00002004   5A085A085A08       DC16     +2138,+2138,+2138,+2138
   \              5A08        
   \   0000200C   5A085A085A08       DC16     +2138,+2138,+2138,+2138
   \              5A08        
   \   00002014   5A085A085A08       DC16     +2138,+2138,+2138,+2138
   \              5A08        
   \   0000201C   5A085A085A08       DC16     +2138,+2138,+2138,+2138
   \              5A08        
   \   00002024   5A085A085A08       DC16     +2138,+2138,+2138,+2138
   \              5A08        
   \   0000202C   5A085A085A08       DC16     +2138,+2138,+2138,+2138
   \              5A08        
   \   00002034   5A085A085A08       DC16     +2138,+2138,+2138,+2138
   \              5A08        
   \   0000203C   5A085A085A08       DC16     +2138,+2138,+2138,+2138
   \              5A08        
   \   00002044   5A085A085A08       DC16     +2138,+2138,+2138,+2138
   \              5A08        
   \   0000204C   5A085A085A08       DC16     +2138,+2138,+2138,+2138
   \              5A08        
   \   00002054   5A085A085A08       DC16     +2138,+2138,+2138,+2138
   \              5A08        
   \   0000205C   5A085A085A08       DC16     +2138,+2138,+2138,+2138
   \              5A08        
   \   00002064   2A0816080808       DC16     +2090,+2070,+2056,+2138
   \              5A08        
   \   0000206C   2C080000           DC16     +2092,+0
   1687          
   1688              /* The option flags */
   1689              case SO_ACCEPTCONN:
   1690              case SO_BROADCAST:
   1691              /* UNIMPL case SO_DEBUG: */
   1692              /* UNIMPL case SO_DONTROUTE: */
   1693              case SO_KEEPALIVE:
   1694              /* UNIMPL case SO_OOBINCLUDE: */
   1695          #if SO_REUSE
   1696              case SO_REUSEADDR:
   1697              case SO_REUSEPORT:
   1698          #endif /* SO_REUSE */
   1699              /*case SO_USELOOPBACK: UNIMPL */
   1700                *(int*)optval = ip_get_option(sock->conn->pcb.ip, optname);
   \                     ??lwip_getsockopt_internal_5:
   \   00002070   040090E5           LDR      R0,[R0, #+4]
   \   00002074   0800D0E5           LDRB     R0,[R0, #+8]
   \   00002078   000003E0           AND      R0,R3,R0
   \   0000207C   500000EA           B        ??lwip_getsockopt_internal_6
   1701                LWIP_DEBUGF(SOCKETS_DEBUG, ("lwip_getsockopt(%d, SOL_SOCKET, optname=0x%x, ..) = %s\n",
   1702                                            s, optname, (*(int*)optval?"on":"off")));
   1703                break;
   1704          
   1705              case SO_TYPE:
   1706                switch (NETCONNTYPE_GROUP(sock->conn->type)) {
   \                     ??lwip_getsockopt_internal_7:
   \   00002080   0030D0E5           LDRB     R3,[R0, #+0]
   \   00002084   F03003E2           AND      R3,R3,#0xF0
   \   00002088   103053E2           SUBS     R3,R3,#+16
   \   0000208C   0500000A           BEQ      ??lwip_getsockopt_internal_8
   \   00002090   103053E2           SUBS     R3,R3,#+16
   \   00002094   0500000A           BEQ      ??lwip_getsockopt_internal_9
   \   00002098   203053E2           SUBS     R3,R3,#+32
   \   0000209C   0000D015           LDRBNE   R0,[R0, #+0]
   1707                case NETCONN_RAW:
   1708                  *(int*)optval = SOCK_RAW;
   \   000020A0   0300A003           MOVEQ    R0,#+3
   \   000020A4   460000EA           B        ??lwip_getsockopt_internal_6
   1709                  break;
   1710                case NETCONN_TCP:
   1711                  *(int*)optval = SOCK_STREAM;
   \                     ??lwip_getsockopt_internal_8:
   \   000020A8   0100A0E3           MOV      R0,#+1
   \   000020AC   440000EA           B        ??lwip_getsockopt_internal_6
   1712                  break;
   1713                case NETCONN_UDP:
   1714                  *(int*)optval = SOCK_DGRAM;
   \                     ??lwip_getsockopt_internal_9:
   \   000020B0   0200A0E3           MOV      R0,#+2
   \   000020B4   420000EA           B        ??lwip_getsockopt_internal_6
   1715                  break;
   1716                default: /* unrecognized socket type */
   1717                  *(int*)optval = sock->conn->type;
   1718                  LWIP_DEBUGF(SOCKETS_DEBUG,
   1719                              ("lwip_getsockopt(%d, SOL_SOCKET, SO_TYPE): unrecognized socket type %d\n",
   1720                              s, *(int *)optval));
   1721                }  /* switch (sock->conn->type) */
   1722                LWIP_DEBUGF(SOCKETS_DEBUG, ("lwip_getsockopt(%d, SOL_SOCKET, SO_TYPE) = %d\n",
   1723                            s, *(int *)optval));
   1724                break;
   1725          
   1726              case SO_ERROR:
   1727                /* only overwrite ERR_OK or tempoary errors */
   1728                if ((sock->err == 0) || (sock->err == EINPROGRESS)) {
   \                     ??lwip_getsockopt_internal_10:
   \   000020B8   103091E5           LDR      R3,[R1, #+16]
   \   000020BC   000053E3           CMP      R3,#+0
   \   000020C0   73005313           CMPNE    R3,#+115
   \   000020C4   0A00001A           BNE      ??lwip_getsockopt_internal_11
   1729                  sock_set_errno(sock, err_to_errno(sock->conn->last_err));
   \   000020C8   D830D0E1           LDRSB    R3,[R0, #+8]
   \   000020CC   003063E2           RSB      R3,R3,#+0
   \   000020D0   100053E3           CMP      R3,#+16
   \   000020D4   0400002A           BCS      ??lwip_getsockopt_internal_12
   \   000020D8   D800D0E1           LDRSB    R0,[R0, #+8]
   \   000020DC   ........           LDR      R3,??DataTable14  ;; err_to_errno_table
   \   000020E0   000060E2           RSB      R0,R0,#+0
   \   000020E4   000193E7           LDR      R0,[R3, +R0, LSL #+2]
   \   000020E8   000000EA           B        ??lwip_getsockopt_internal_13
   \                     ??lwip_getsockopt_internal_12:
   \   000020EC   0500A0E3           MOV      R0,#+5
   \                     ??lwip_getsockopt_internal_13:
   \   000020F0   100081E5           STR      R0,[R1, #+16]
   1730                } 
   1731                *(int *)optval = sock->err;
   \                     ??lwip_getsockopt_internal_11:
   \   000020F4   100091E5           LDR      R0,[R1, #+16]
   \   000020F8   000082E5           STR      R0,[R2, #+0]
   1732                sock->err = 0;
   \   000020FC   0000A0E3           MOV      R0,#+0
   \   00002100   100081E5           STR      R0,[R1, #+16]
   \   00002104   2F0000EA           B        ??lwip_getsockopt_internal_4
   1733                LWIP_DEBUGF(SOCKETS_DEBUG, ("lwip_getsockopt(%d, SOL_SOCKET, SO_ERROR) = %d\n",
   1734                            s, *(int *)optval));
   1735                break;
   1736          
   1737          #if LWIP_SO_SNDTIMEO
   1738              case SO_SNDTIMEO:
   1739                *(int *)optval = netconn_get_sendtimeout(sock->conn);
   1740                break;
   1741          #endif /* LWIP_SO_SNDTIMEO */
   1742          #if LWIP_SO_RCVTIMEO
   1743              case SO_RCVTIMEO:
   1744                *(int *)optval = netconn_get_recvtimeout(sock->conn);
   \                     ??lwip_getsockopt_internal_14:
   \   00002108   480090E5           LDR      R0,[R0, #+72]
   \   0000210C   2C0000EA           B        ??lwip_getsockopt_internal_6
   1745                break;
   1746          #endif /* LWIP_SO_RCVTIMEO */
   1747          #if LWIP_SO_RCVBUF
   1748              case SO_RCVBUF:
   1749                *(int *)optval = netconn_get_recvbufsize(sock->conn);
   1750                break;
   1751          #endif /* LWIP_SO_RCVBUF */
   1752          #if LWIP_UDP
   1753              case SO_NO_CHECK:
   1754                *(int*)optval = (udp_flags(sock->conn->pcb.udp) & UDP_FLAGS_NOCHKSUM) ? 1 : 0;
   \                     ??lwip_getsockopt_internal_15:
   \   00002110   040090E5           LDR      R0,[R0, #+4]
   \   00002114   1000D0E5           LDRB     R0,[R0, #+16]
   \   00002118   010000E2           AND      R0,R0,#0x1
   \   0000211C   280000EA           B        ??lwip_getsockopt_internal_6
   1755                break;
   1756          #endif /* LWIP_UDP*/
   1757              default:
   1758                LWIP_ASSERT("unhandled optname", 0);
   1759                break;
   1760              }  /* switch (optname) */
   1761              break;
   1762          
   1763          /* Level: IPPROTO_IP */
   1764            case IPPROTO_IP:
   1765              switch (optname) {
   \                     ??lwip_getsockopt_internal_2:
   \   00002120   000091E5           LDR      R0,[R1, #+0]
   \   00002124   013053E2           SUBS     R3,R3,#+1
   \   00002128   0400000A           BEQ      ??lwip_getsockopt_internal_16
   \   0000212C   013053E2           SUBS     R3,R3,#+1
   \   00002130   2400001A           BNE      ??lwip_getsockopt_internal_4
   1766              case IP_TTL:
   1767                *(int*)optval = sock->conn->pcb.ip->ttl;
   \   00002134   040090E5           LDR      R0,[R0, #+4]
   \   00002138   0A00D0E5           LDRB     R0,[R0, #+10]
   \   0000213C   200000EA           B        ??lwip_getsockopt_internal_6
   1768                LWIP_DEBUGF(SOCKETS_DEBUG, ("lwip_getsockopt(%d, IPPROTO_IP, IP_TTL) = %d\n",
   1769                            s, *(int *)optval));
   1770                break;
   1771              case IP_TOS:
   1772                *(int*)optval = sock->conn->pcb.ip->tos;
   \                     ??lwip_getsockopt_internal_16:
   \   00002140   040090E5           LDR      R0,[R0, #+4]
   \   00002144   0900D0E5           LDRB     R0,[R0, #+9]
   \   00002148   1D0000EA           B        ??lwip_getsockopt_internal_6
   1773                LWIP_DEBUGF(SOCKETS_DEBUG, ("lwip_getsockopt(%d, IPPROTO_IP, IP_TOS) = %d\n",
   1774                            s, *(int *)optval));
   1775                break;
   1776          #if LWIP_IGMP
   1777              case IP_MULTICAST_TTL:
   1778                *(u8_t*)optval = sock->conn->pcb.ip->ttl;
   1779                LWIP_DEBUGF(SOCKETS_DEBUG, ("lwip_getsockopt(%d, IPPROTO_IP, IP_MULTICAST_TTL) = %d\n",
   1780                            s, *(int *)optval));
   1781                break;
   1782              case IP_MULTICAST_IF:
   1783                inet_addr_from_ipaddr((struct in_addr*)optval, &sock->conn->pcb.udp->multicast_ip);
   1784                LWIP_DEBUGF(SOCKETS_DEBUG, ("lwip_getsockopt(%d, IPPROTO_IP, IP_MULTICAST_IF) = 0x%"X32_F"\n",
   1785                            s, *(u32_t *)optval));
   1786                break;
   1787              case IP_MULTICAST_LOOP:
   1788                if ((sock->conn->pcb.udp->flags & UDP_FLAGS_MULTICAST_LOOP) != 0) {
   1789                  *(u8_t*)optval = 1;
   1790                } else {
   1791                  *(u8_t*)optval = 0;
   1792                }
   1793                LWIP_DEBUGF(SOCKETS_DEBUG, ("lwip_getsockopt(%d, IPPROTO_IP, IP_MULTICAST_LOOP) = %d\n",
   1794                            s, *(int *)optval));
   1795                break;
   1796          #endif /* LWIP_IGMP */
   1797              default:
   1798                LWIP_ASSERT("unhandled optname", 0);
   1799                break;
   1800              }  /* switch (optname) */
   1801              break;
   1802          
   1803          #if LWIP_TCP
   1804          /* Level: IPPROTO_TCP */
   1805            case IPPROTO_TCP:
   1806              switch (optname) {
   \                     ??lwip_getsockopt_internal_3:
   \   0000214C   000091E5           LDR      R0,[R1, #+0]
   \   00002150   013043E2           SUB      R3,R3,#+1
   \   00002154   040053E3           CMP      R3,#+4
   \   00002158   1A00008A           BHI      ??lwip_getsockopt_internal_4
   \   0000215C   014F8FE2           ADR      R4,??lwip_getsockopt_internal_1
   \   00002160   0340D4E7           LDRB     R4,[R4, R3]
   \   00002164   04F18FE0           ADD      PC,PC,R4, LSL #+2
   \                     ??lwip_getsockopt_internal_1:
   \   00002168   01070A11           DC8      +1,+7,+10,+17
   \   0000216C   14000000           DC8      +20,+0,+0,+0
   1807              case TCP_NODELAY:
   1808                *(int*)optval = tcp_nagle_disabled(sock->conn->pcb.tcp);
   \                     ??lwip_getsockopt_internal_17:
   \   00002170   040090E5           LDR      R0,[R0, #+4]
   \   00002174   1E00D0E5           LDRB     R0,[R0, #+30]
   \   00002178   400010E3           TST      R0,#0x40
   \   0000217C   0000A003           MOVEQ    R0,#+0
   \   00002180   0100A013           MOVNE    R0,#+1
   \   00002184   0E0000EA           B        ??lwip_getsockopt_internal_6
   1809                LWIP_DEBUGF(SOCKETS_DEBUG, ("lwip_getsockopt(%d, IPPROTO_TCP, TCP_NODELAY) = %s\n",
   1810                            s, (*(int*)optval)?"on":"off") );
   1811                break;
   1812              case TCP_KEEPALIVE:
   1813                *(int*)optval = (int)sock->conn->pcb.tcp->keep_idle;
   \                     ??lwip_getsockopt_internal_18:
   \   00002188   040090E5           LDR      R0,[R0, #+4]
   \   0000218C   900090E5           LDR      R0,[R0, #+144]
   \   00002190   0B0000EA           B        ??lwip_getsockopt_internal_6
   1814                LWIP_DEBUGF(SOCKETS_DEBUG, ("lwip_getsockopt(%d, IPPROTO_IP, TCP_KEEPALIVE) = %d\n",
   1815                            s, *(int *)optval));
   1816                break;
   1817          
   1818          #if LWIP_TCP_KEEPALIVE
   1819              case TCP_KEEPIDLE:
   1820                *(int*)optval = (int)(sock->conn->pcb.tcp->keep_idle/1000);
   \                     ??lwip_getsockopt_internal_19:
   \   00002194   040090E5           LDR      R0,[R0, #+4]
   \   00002198   900090E5           LDR      R0,[R0, #+144]
   \                     ??lwip_getsockopt_internal_20:
   \   0000219C   ........           LDR      R3,??DataTable15  ;; 0x10624dd3
   \   000021A0   93408CE0           UMULL    R4,R12,R3,R0
   \   000021A4   2CC3A0E1           LSR      R12,R12,#+6
   \   000021A8   00C082E5           STR      R12,[R2, #+0]
   \   000021AC   050000EA           B        ??lwip_getsockopt_internal_4
   1821                LWIP_DEBUGF(SOCKETS_DEBUG, ("lwip_getsockopt(%d, IPPROTO_IP, TCP_KEEPIDLE) = %d\n",
   1822                            s, *(int *)optval));
   1823                break;
   1824              case TCP_KEEPINTVL:
   1825                *(int*)optval = (int)(sock->conn->pcb.tcp->keep_intvl/1000);
   \                     ??lwip_getsockopt_internal_21:
   \   000021B0   040090E5           LDR      R0,[R0, #+4]
   \   000021B4   940090E5           LDR      R0,[R0, #+148]
   \   000021B8   F7FFFFEA           B        ??lwip_getsockopt_internal_20
   1826                LWIP_DEBUGF(SOCKETS_DEBUG, ("lwip_getsockopt(%d, IPPROTO_IP, TCP_KEEPINTVL) = %d\n",
   1827                            s, *(int *)optval));
   1828                break;
   1829              case TCP_KEEPCNT:
   1830                *(int*)optval = (int)sock->conn->pcb.tcp->keep_cnt;
   \                     ??lwip_getsockopt_internal_22:
   \   000021BC   040090E5           LDR      R0,[R0, #+4]
   \   000021C0   980090E5           LDR      R0,[R0, #+152]
   \                     ??lwip_getsockopt_internal_6:
   \   000021C4   000082E5           STR      R0,[R2, #+0]
   1831                LWIP_DEBUGF(SOCKETS_DEBUG, ("lwip_getsockopt(%d, IPPROTO_IP, TCP_KEEPCNT) = %d\n",
   1832                            s, *(int *)optval));
   1833                break;
   1834          #endif /* LWIP_TCP_KEEPALIVE */
   1835              default:
   1836                LWIP_ASSERT("unhandled optname", 0);
   1837                break;
   1838              }  /* switch (optname) */
   1839              break;
   1840          #endif /* LWIP_TCP */
   1841          #if LWIP_UDP && LWIP_UDPLITE
   1842            /* Level: IPPROTO_UDPLITE */
   1843            case IPPROTO_UDPLITE:
   1844              switch (optname) {
   1845              case UDPLITE_SEND_CSCOV:
   1846                *(int*)optval = sock->conn->pcb.udp->chksum_len_tx;
   1847                LWIP_DEBUGF(SOCKETS_DEBUG, ("lwip_getsockopt(%d, IPPROTO_UDPLITE, UDPLITE_SEND_CSCOV) = %d\n",
   1848                            s, (*(int*)optval)) );
   1849                break;
   1850              case UDPLITE_RECV_CSCOV:
   1851                *(int*)optval = sock->conn->pcb.udp->chksum_len_rx;
   1852                LWIP_DEBUGF(SOCKETS_DEBUG, ("lwip_getsockopt(%d, IPPROTO_UDPLITE, UDPLITE_RECV_CSCOV) = %d\n",
   1853                            s, (*(int*)optval)) );
   1854                break;
   1855              default:
   1856                LWIP_ASSERT("unhandled optname", 0);
   1857                break;
   1858              }  /* switch (optname) */
   1859              break;
   1860          #endif /* LWIP_UDP */
   1861            default:
   1862              LWIP_ASSERT("unhandled level", 0);
   1863              break;
   1864            } /* switch (level) */
   1865            sys_sem_signal(&sock->conn->op_completed);
   \                     ??lwip_getsockopt_internal_4:
   \   000021C8   000091E5           LDR      R0,[R1, #+0]
   \   000021CC   0C0080E2           ADD      R0,R0,#+12
   \   000021D0   ........           _BLF     sys_sem_signal,??sys_sem_signal??rA
   1866          }
   \   000021D4   1040BDE8           POP      {R4,LR}
   \   000021D8   1EFF2FE1           BX       LR               ;; return
   1867          

   \                                 In segment CODE, align 4, keep-with-next
   1868          int
   1869          lwip_setsockopt(int s, int level, int optname, const void *optval, socklen_t optlen)
   1870          {
   \                     lwip_setsockopt:
   \   00000000   F0402DE9           PUSH     {R4-R7,LR}
   \   00000004   18D04DE2           SUB      SP,SP,#+24
   \   00000008   0150A0E1           MOV      R5,R1
   \   0000000C   0260A0E1           MOV      R6,R2
   \   00000010   0370A0E1           MOV      R7,R3
   1871            struct lwip_sock *sock = get_socket(s);
   \   00000014   ........           BL       get_socket
   \   00000018   0040A0E1           MOV      R4,R0
   1872            err_t err = ERR_OK;
   \   0000001C   0000A0E3           MOV      R0,#+0
   \   00000020   0010A0E3           MOV      R1,#+0
   1873            struct lwip_setgetsockopt_data data;
   1874          
   1875            if (!sock) {
   \   00000024   000054E3           CMP      R4,#+0
   \   00000028   0300001A           BNE      ??lwip_setsockopt_1
   1876              return -1;
   \                     ??lwip_setsockopt_2:
   \   0000002C   18D08DE2           ADD      SP,SP,#+24
   \   00000030   F040BDE8           POP      {R4-R7,LR}
   \   00000034   0000E0E1           MVN      R0,R0
   \   00000038   1EFF2FE1           BX       LR
   1877            }
   1878          
   1879            if (NULL == optval) {
   \                     ??lwip_setsockopt_1:
   \   0000003C   000057E3           CMP      R7,#+0
   \   00000040   0500001A           BNE      ??lwip_setsockopt_3
   1880              sock_set_errno(sock, EFAULT);
   \   00000044   0E00A0E3           MOV      R0,#+14
   \   00000048   100084E5           STR      R0,[R4, #+16]
   1881              return -1;
   \   0000004C   18D08DE2           ADD      SP,SP,#+24
   \   00000050   F040BDE8           POP      {R4-R7,LR}
   \   00000054   0100E0E1           MVN      R0,R1
   \   00000058   1EFF2FE1           BX       LR
   1882            }
   1883          
   1884            /* Do length and type checks for the various options first, to keep it readable. */
   1885            switch (level) {
   \                     ??lwip_setsockopt_3:
   \   0000005C   002094E5           LDR      R2,[R4, #+0]
   \   00000060   0530B0E1           MOVS     R3,R5
   \   00000064   2408000A           BEQ      ??lwip_setsockopt_4
   \   00000068   060055E3           CMP      R5,#+6
   \   0000006C   2608000A           BEQ      ??lwip_setsockopt_5
   \   00000070   FFC0A0E3           MOV      R12,#+255
   \   00000074   F0CE8CE3           ORR      R12,R12,#0xF00
   \   00000078   0C0055E1           CMP      R5,R12
   \   0000007C   1C08001A           BNE      ??lwip_setsockopt_6
   1886          
   1887          /* Level: SOL_SOCKET */
   1888            case SOL_SOCKET:
   1889              switch (optname) {
   \   00000080   043046E2           SUB      R3,R6,#+4
   \   00000084   07C08CE2           ADD      R12,R12,#+7
   \   00000088   0C0053E1           CMP      R3,R12
   \   0000008C   1808008A           BHI      ??lwip_setsockopt_6
   \   00000090   02CF8FE2           ADR      R12,??lwip_setsockopt_0
   \   00000094   8330A0E1           MOV      R3,R3, LSL #+1
   \   00000098   B3C09CE1           LDRH     R12,[R12, R3]
   \   0000009C   0CF18FE0           ADD      PC,PC,R12, LSL #+2
   \                     ??lwip_setsockopt_0:
   \   000000A0   030814081408       DC16     +2051,+2068,+2068,+2068
   \              1408        
   \   000000A8   030814081408       DC16     +2051,+2068,+2068,+2068
   \              1408        
   \   000000B0   140814081408       DC16     +2068,+2068,+2068,+2068
   \              1408        
   \   000000B8   140814081408       DC16     +2068,+2068,+2068,+2068
   \              1408        
   \   000000C0   140814081408       DC16     +2068,+2068,+2068,+2068
   \              1408        
   \   000000C8   140814081408       DC16     +2068,+2068,+2068,+2068
   \              1408        
   \   000000D0   140814081408       DC16     +2068,+2068,+2068,+2068
   \              1408        
   \   000000D8   030814081408       DC16     +2051,+2068,+2068,+2068
   \              1408        
   \   000000E0   140814081408       DC16     +2068,+2068,+2068,+2068
   \              1408        
   \   000000E8   140814081408       DC16     +2068,+2068,+2068,+2068
   \              1408        
   \   000000F0   140814081408       DC16     +2068,+2068,+2068,+2068
   \              1408        
   \   000000F8   140814081408       DC16     +2068,+2068,+2068,+2068
   \              1408        
   \   00000100   140814081408       DC16     +2068,+2068,+2068,+2068
   \              1408        
   \   00000108   140814081408       DC16     +2068,+2068,+2068,+2068
   \              1408        
   \   00000110   140814081408       DC16     +2068,+2068,+2068,+2068
   \              1408        
   \   00000118   140814081408       DC16     +2068,+2068,+2068,+2068
   \              1408        
   \   00000120   140814081408       DC16     +2068,+2068,+2068,+2068
   \              1408        
   \   00000128   140814081408       DC16     +2068,+2068,+2068,+2068
   \              1408        
   \   00000130   140814081408       DC16     +2068,+2068,+2068,+2068
   \              1408        
   \   00000138   140814081408       DC16     +2068,+2068,+2068,+2068
   \              1408        
   \   00000140   140814081408       DC16     +2068,+2068,+2068,+2068
   \              1408        
   \   00000148   140814081408       DC16     +2068,+2068,+2068,+2068
   \              1408        
   \   00000150   140814081408       DC16     +2068,+2068,+2068,+2068
   \              1408        
   \   00000158   140814081408       DC16     +2068,+2068,+2068,+2068
   \              1408        
   \   00000160   140814081408       DC16     +2068,+2068,+2068,+2068
   \              1408        
   \   00000168   140814081408       DC16     +2068,+2068,+2068,+2068
   \              1408        
   \   00000170   140814081408       DC16     +2068,+2068,+2068,+2068
   \              1408        
   \   00000178   140814081408       DC16     +2068,+2068,+2068,+2068
   \              1408        
   \   00000180   140814081408       DC16     +2068,+2068,+2068,+2068
   \              1408        
   \   00000188   140814081408       DC16     +2068,+2068,+2068,+2068
   \              1408        
   \   00000190   140814081408       DC16     +2068,+2068,+2068,+2068
   \              1408        
   \   00000198   140814081408       DC16     +2068,+2068,+2068,+2068
   \              1408        
   \   000001A0   140814081408       DC16     +2068,+2068,+2068,+2068
   \              1408        
   \   000001A8   140814081408       DC16     +2068,+2068,+2068,+2068
   \              1408        
   \   000001B0   140814081408       DC16     +2068,+2068,+2068,+2068
   \              1408        
   \   000001B8   140814081408       DC16     +2068,+2068,+2068,+2068
   \              1408        
   \   000001C0   140814081408       DC16     +2068,+2068,+2068,+2068
   \              1408        
   \   000001C8   140814081408       DC16     +2068,+2068,+2068,+2068
   \              1408        
   \   000001D0   140814081408       DC16     +2068,+2068,+2068,+2068
   \              1408        
   \   000001D8   140814081408       DC16     +2068,+2068,+2068,+2068
   \              1408        
   \   000001E0   140814081408       DC16     +2068,+2068,+2068,+2068
   \              1408        
   \   000001E8   140814081408       DC16     +2068,+2068,+2068,+2068
   \              1408        
   \   000001F0   140814081408       DC16     +2068,+2068,+2068,+2068
   \              1408        
   \   000001F8   140814081408       DC16     +2068,+2068,+2068,+2068
   \              1408        
   \   00000200   140814081408       DC16     +2068,+2068,+2068,+2068
   \              1408        
   \   00000208   140814081408       DC16     +2068,+2068,+2068,+2068
   \              1408        
   \   00000210   140814081408       DC16     +2068,+2068,+2068,+2068
   \              1408        
   \   00000218   140814081408       DC16     +2068,+2068,+2068,+2068
   \              1408        
   \   00000220   140814081408       DC16     +2068,+2068,+2068,+2068
   \              1408        
   \   00000228   140814081408       DC16     +2068,+2068,+2068,+2068
   \              1408        
   \   00000230   140814081408       DC16     +2068,+2068,+2068,+2068
   \              1408        
   \   00000238   140814081408       DC16     +2068,+2068,+2068,+2068
   \              1408        
   \   00000240   140814081408       DC16     +2068,+2068,+2068,+2068
   \              1408        
   \   00000248   140814081408       DC16     +2068,+2068,+2068,+2068
   \              1408        
   \   00000250   140814081408       DC16     +2068,+2068,+2068,+2068
   \              1408        
   \   00000258   140814081408       DC16     +2068,+2068,+2068,+2068
   \              1408        
   \   00000260   140814081408       DC16     +2068,+2068,+2068,+2068
   \              1408        
   \   00000268   140814081408       DC16     +2068,+2068,+2068,+2068
   \              1408        
   \   00000270   140814081408       DC16     +2068,+2068,+2068,+2068
   \              1408        
   \   00000278   140814081408       DC16     +2068,+2068,+2068,+2068
   \              1408        
   \   00000280   140814081408       DC16     +2068,+2068,+2068,+2068
   \              1408        
   \   00000288   140814081408       DC16     +2068,+2068,+2068,+2068
   \              1408        
   \   00000290   140814081408       DC16     +2068,+2068,+2068,+2068
   \              1408        
   \   00000298   140814081408       DC16     +2068,+2068,+2068,+2068
   \              1408        
   \   000002A0   140814081408       DC16     +2068,+2068,+2068,+2068
   \              1408        
   \   000002A8   140814081408       DC16     +2068,+2068,+2068,+2068
   \              1408        
   \   000002B0   140814081408       DC16     +2068,+2068,+2068,+2068
   \              1408        
   \   000002B8   140814081408       DC16     +2068,+2068,+2068,+2068
   \              1408        
   \   000002C0   140814081408       DC16     +2068,+2068,+2068,+2068
   \              1408        
   \   000002C8   140814081408       DC16     +2068,+2068,+2068,+2068
   \              1408        
   \   000002D0   140814081408       DC16     +2068,+2068,+2068,+2068
   \              1408        
   \   000002D8   140814081408       DC16     +2068,+2068,+2068,+2068
   \              1408        
   \   000002E0   140814081408       DC16     +2068,+2068,+2068,+2068
   \              1408        
   \   000002E8   140814081408       DC16     +2068,+2068,+2068,+2068
   \              1408        
   \   000002F0   140814081408       DC16     +2068,+2068,+2068,+2068
   \              1408        
   \   000002F8   140814081408       DC16     +2068,+2068,+2068,+2068
   \              1408        
   \   00000300   140814081408       DC16     +2068,+2068,+2068,+2068
   \              1408        
   \   00000308   140814081408       DC16     +2068,+2068,+2068,+2068
   \              1408        
   \   00000310   140814081408       DC16     +2068,+2068,+2068,+2068
   \              1408        
   \   00000318   140814081408       DC16     +2068,+2068,+2068,+2068
   \              1408        
   \   00000320   140814081408       DC16     +2068,+2068,+2068,+2068
   \              1408        
   \   00000328   140814081408       DC16     +2068,+2068,+2068,+2068
   \              1408        
   \   00000330   140814081408       DC16     +2068,+2068,+2068,+2068
   \              1408        
   \   00000338   140814081408       DC16     +2068,+2068,+2068,+2068
   \              1408        
   \   00000340   140814081408       DC16     +2068,+2068,+2068,+2068
   \              1408        
   \   00000348   140814081408       DC16     +2068,+2068,+2068,+2068
   \              1408        
   \   00000350   140814081408       DC16     +2068,+2068,+2068,+2068
   \              1408        
   \   00000358   140814081408       DC16     +2068,+2068,+2068,+2068
   \              1408        
   \   00000360   140814081408       DC16     +2068,+2068,+2068,+2068
   \              1408        
   \   00000368   140814081408       DC16     +2068,+2068,+2068,+2068
   \              1408        
   \   00000370   140814081408       DC16     +2068,+2068,+2068,+2068
   \              1408        
   \   00000378   140814081408       DC16     +2068,+2068,+2068,+2068
   \              1408        
   \   00000380   140814081408       DC16     +2068,+2068,+2068,+2068
   \              1408        
   \   00000388   140814081408       DC16     +2068,+2068,+2068,+2068
   \              1408        
   \   00000390   140814081408       DC16     +2068,+2068,+2068,+2068
   \              1408        
   \   00000398   140814081408       DC16     +2068,+2068,+2068,+2068
   \              1408        
   \   000003A0   140814081408       DC16     +2068,+2068,+2068,+2068
   \              1408        
   \   000003A8   140814081408       DC16     +2068,+2068,+2068,+2068
   \              1408        
   \   000003B0   140814081408       DC16     +2068,+2068,+2068,+2068
   \              1408        
   \   000003B8   140814081408       DC16     +2068,+2068,+2068,+2068
   \              1408        
   \   000003C0   140814081408       DC16     +2068,+2068,+2068,+2068
   \              1408        
   \   000003C8   140814081408       DC16     +2068,+2068,+2068,+2068
   \              1408        
   \   000003D0   140814081408       DC16     +2068,+2068,+2068,+2068
   \              1408        
   \   000003D8   140814081408       DC16     +2068,+2068,+2068,+2068
   \              1408        
   \   000003E0   140814081408       DC16     +2068,+2068,+2068,+2068
   \              1408        
   \   000003E8   140814081408       DC16     +2068,+2068,+2068,+2068
   \              1408        
   \   000003F0   140814081408       DC16     +2068,+2068,+2068,+2068
   \              1408        
   \   000003F8   140814081408       DC16     +2068,+2068,+2068,+2068
   \              1408        
   \   00000400   140814081408       DC16     +2068,+2068,+2068,+2068
   \              1408        
   \   00000408   140814081408       DC16     +2068,+2068,+2068,+2068
   \              1408        
   \   00000410   140814081408       DC16     +2068,+2068,+2068,+2068
   \              1408        
   \   00000418   140814081408       DC16     +2068,+2068,+2068,+2068
   \              1408        
   \   00000420   140814081408       DC16     +2068,+2068,+2068,+2068
   \              1408        
   \   00000428   140814081408       DC16     +2068,+2068,+2068,+2068
   \              1408        
   \   00000430   140814081408       DC16     +2068,+2068,+2068,+2068
   \              1408        
   \   00000438   140814081408       DC16     +2068,+2068,+2068,+2068
   \              1408        
   \   00000440   140814081408       DC16     +2068,+2068,+2068,+2068
   \              1408        
   \   00000448   140814081408       DC16     +2068,+2068,+2068,+2068
   \              1408        
   \   00000450   140814081408       DC16     +2068,+2068,+2068,+2068
   \              1408        
   \   00000458   140814081408       DC16     +2068,+2068,+2068,+2068
   \              1408        
   \   00000460   140814081408       DC16     +2068,+2068,+2068,+2068
   \              1408        
   \   00000468   140814081408       DC16     +2068,+2068,+2068,+2068
   \              1408        
   \   00000470   140814081408       DC16     +2068,+2068,+2068,+2068
   \              1408        
   \   00000478   140814081408       DC16     +2068,+2068,+2068,+2068
   \              1408        
   \   00000480   140814081408       DC16     +2068,+2068,+2068,+2068
   \              1408        
   \   00000488   140814081408       DC16     +2068,+2068,+2068,+2068
   \              1408        
   \   00000490   140814081408       DC16     +2068,+2068,+2068,+2068
   \              1408        
   \   00000498   030814081408       DC16     +2051,+2068,+2068,+2068
   \              1408        
   \   000004A0   140814081408       DC16     +2068,+2068,+2068,+2068
   \              1408        
   \   000004A8   140814081408       DC16     +2068,+2068,+2068,+2068
   \              1408        
   \   000004B0   140814081408       DC16     +2068,+2068,+2068,+2068
   \              1408        
   \   000004B8   140814081408       DC16     +2068,+2068,+2068,+2068
   \              1408        
   \   000004C0   140814081408       DC16     +2068,+2068,+2068,+2068
   \              1408        
   \   000004C8   140814081408       DC16     +2068,+2068,+2068,+2068
   \              1408        
   \   000004D0   140814081408       DC16     +2068,+2068,+2068,+2068
   \              1408        
   \   000004D8   140814081408       DC16     +2068,+2068,+2068,+2068
   \              1408        
   \   000004E0   140814081408       DC16     +2068,+2068,+2068,+2068
   \              1408        
   \   000004E8   140814081408       DC16     +2068,+2068,+2068,+2068
   \              1408        
   \   000004F0   140814081408       DC16     +2068,+2068,+2068,+2068
   \              1408        
   \   000004F8   140814081408       DC16     +2068,+2068,+2068,+2068
   \              1408        
   \   00000500   140814081408       DC16     +2068,+2068,+2068,+2068
   \              1408        
   \   00000508   140814081408       DC16     +2068,+2068,+2068,+2068
   \              1408        
   \   00000510   140814081408       DC16     +2068,+2068,+2068,+2068
   \              1408        
   \   00000518   140814081408       DC16     +2068,+2068,+2068,+2068
   \              1408        
   \   00000520   140814081408       DC16     +2068,+2068,+2068,+2068
   \              1408        
   \   00000528   140814081408       DC16     +2068,+2068,+2068,+2068
   \              1408        
   \   00000530   140814081408       DC16     +2068,+2068,+2068,+2068
   \              1408        
   \   00000538   140814081408       DC16     +2068,+2068,+2068,+2068
   \              1408        
   \   00000540   140814081408       DC16     +2068,+2068,+2068,+2068
   \              1408        
   \   00000548   140814081408       DC16     +2068,+2068,+2068,+2068
   \              1408        
   \   00000550   140814081408       DC16     +2068,+2068,+2068,+2068
   \              1408        
   \   00000558   140814081408       DC16     +2068,+2068,+2068,+2068
   \              1408        
   \   00000560   140814081408       DC16     +2068,+2068,+2068,+2068
   \              1408        
   \   00000568   140814081408       DC16     +2068,+2068,+2068,+2068
   \              1408        
   \   00000570   140814081408       DC16     +2068,+2068,+2068,+2068
   \              1408        
   \   00000578   140814081408       DC16     +2068,+2068,+2068,+2068
   \              1408        
   \   00000580   140814081408       DC16     +2068,+2068,+2068,+2068
   \              1408        
   \   00000588   140814081408       DC16     +2068,+2068,+2068,+2068
   \              1408        
   \   00000590   140814081408       DC16     +2068,+2068,+2068,+2068
   \              1408        
   \   00000598   140814081408       DC16     +2068,+2068,+2068,+2068
   \              1408        
   \   000005A0   140814081408       DC16     +2068,+2068,+2068,+2068
   \              1408        
   \   000005A8   140814081408       DC16     +2068,+2068,+2068,+2068
   \              1408        
   \   000005B0   140814081408       DC16     +2068,+2068,+2068,+2068
   \              1408        
   \   000005B8   140814081408       DC16     +2068,+2068,+2068,+2068
   \              1408        
   \   000005C0   140814081408       DC16     +2068,+2068,+2068,+2068
   \              1408        
   \   000005C8   140814081408       DC16     +2068,+2068,+2068,+2068
   \              1408        
   \   000005D0   140814081408       DC16     +2068,+2068,+2068,+2068
   \              1408        
   \   000005D8   140814081408       DC16     +2068,+2068,+2068,+2068
   \              1408        
   \   000005E0   140814081408       DC16     +2068,+2068,+2068,+2068
   \              1408        
   \   000005E8   140814081408       DC16     +2068,+2068,+2068,+2068
   \              1408        
   \   000005F0   140814081408       DC16     +2068,+2068,+2068,+2068
   \              1408        
   \   000005F8   140814081408       DC16     +2068,+2068,+2068,+2068
   \              1408        
   \   00000600   140814081408       DC16     +2068,+2068,+2068,+2068
   \              1408        
   \   00000608   140814081408       DC16     +2068,+2068,+2068,+2068
   \              1408        
   \   00000610   140814081408       DC16     +2068,+2068,+2068,+2068
   \              1408        
   \   00000618   140814081408       DC16     +2068,+2068,+2068,+2068
   \              1408        
   \   00000620   140814081408       DC16     +2068,+2068,+2068,+2068
   \              1408        
   \   00000628   140814081408       DC16     +2068,+2068,+2068,+2068
   \              1408        
   \   00000630   140814081408       DC16     +2068,+2068,+2068,+2068
   \              1408        
   \   00000638   140814081408       DC16     +2068,+2068,+2068,+2068
   \              1408        
   \   00000640   140814081408       DC16     +2068,+2068,+2068,+2068
   \              1408        
   \   00000648   140814081408       DC16     +2068,+2068,+2068,+2068
   \              1408        
   \   00000650   140814081408       DC16     +2068,+2068,+2068,+2068
   \              1408        
   \   00000658   140814081408       DC16     +2068,+2068,+2068,+2068
   \              1408        
   \   00000660   140814081408       DC16     +2068,+2068,+2068,+2068
   \              1408        
   \   00000668   140814081408       DC16     +2068,+2068,+2068,+2068
   \              1408        
   \   00000670   140814081408       DC16     +2068,+2068,+2068,+2068
   \              1408        
   \   00000678   140814081408       DC16     +2068,+2068,+2068,+2068
   \              1408        
   \   00000680   140814081408       DC16     +2068,+2068,+2068,+2068
   \              1408        
   \   00000688   140814081408       DC16     +2068,+2068,+2068,+2068
   \              1408        
   \   00000690   140814081408       DC16     +2068,+2068,+2068,+2068
   \              1408        
   \   00000698   140814081408       DC16     +2068,+2068,+2068,+2068
   \              1408        
   \   000006A0   140814081408       DC16     +2068,+2068,+2068,+2068
   \              1408        
   \   000006A8   140814081408       DC16     +2068,+2068,+2068,+2068
   \              1408        
   \   000006B0   140814081408       DC16     +2068,+2068,+2068,+2068
   \              1408        
   \   000006B8   140814081408       DC16     +2068,+2068,+2068,+2068
   \              1408        
   \   000006C0   140814081408       DC16     +2068,+2068,+2068,+2068
   \              1408        
   \   000006C8   140814081408       DC16     +2068,+2068,+2068,+2068
   \              1408        
   \   000006D0   140814081408       DC16     +2068,+2068,+2068,+2068
   \              1408        
   \   000006D8   140814081408       DC16     +2068,+2068,+2068,+2068
   \              1408        
   \   000006E0   140814081408       DC16     +2068,+2068,+2068,+2068
   \              1408        
   \   000006E8   140814081408       DC16     +2068,+2068,+2068,+2068
   \              1408        
   \   000006F0   140814081408       DC16     +2068,+2068,+2068,+2068
   \              1408        
   \   000006F8   140814081408       DC16     +2068,+2068,+2068,+2068
   \              1408        
   \   00000700   140814081408       DC16     +2068,+2068,+2068,+2068
   \              1408        
   \   00000708   140814081408       DC16     +2068,+2068,+2068,+2068
   \              1408        
   \   00000710   140814081408       DC16     +2068,+2068,+2068,+2068
   \              1408        
   \   00000718   140814081408       DC16     +2068,+2068,+2068,+2068
   \              1408        
   \   00000720   140814081408       DC16     +2068,+2068,+2068,+2068
   \              1408        
   \   00000728   140814081408       DC16     +2068,+2068,+2068,+2068
   \              1408        
   \   00000730   140814081408       DC16     +2068,+2068,+2068,+2068
   \              1408        
   \   00000738   140814081408       DC16     +2068,+2068,+2068,+2068
   \              1408        
   \   00000740   140814081408       DC16     +2068,+2068,+2068,+2068
   \              1408        
   \   00000748   140814081408       DC16     +2068,+2068,+2068,+2068
   \              1408        
   \   00000750   140814081408       DC16     +2068,+2068,+2068,+2068
   \              1408        
   \   00000758   140814081408       DC16     +2068,+2068,+2068,+2068
   \              1408        
   \   00000760   140814081408       DC16     +2068,+2068,+2068,+2068
   \              1408        
   \   00000768   140814081408       DC16     +2068,+2068,+2068,+2068
   \              1408        
   \   00000770   140814081408       DC16     +2068,+2068,+2068,+2068
   \              1408        
   \   00000778   140814081408       DC16     +2068,+2068,+2068,+2068
   \              1408        
   \   00000780   140814081408       DC16     +2068,+2068,+2068,+2068
   \              1408        
   \   00000788   140814081408       DC16     +2068,+2068,+2068,+2068
   \              1408        
   \   00000790   140814081408       DC16     +2068,+2068,+2068,+2068
   \              1408        
   \   00000798   140814081408       DC16     +2068,+2068,+2068,+2068
   \              1408        
   \   000007A0   140814081408       DC16     +2068,+2068,+2068,+2068
   \              1408        
   \   000007A8   140814081408       DC16     +2068,+2068,+2068,+2068
   \              1408        
   \   000007B0   140814081408       DC16     +2068,+2068,+2068,+2068
   \              1408        
   \   000007B8   140814081408       DC16     +2068,+2068,+2068,+2068
   \              1408        
   \   000007C0   140814081408       DC16     +2068,+2068,+2068,+2068
   \              1408        
   \   000007C8   140814081408       DC16     +2068,+2068,+2068,+2068
   \              1408        
   \   000007D0   140814081408       DC16     +2068,+2068,+2068,+2068
   \              1408        
   \   000007D8   140814081408       DC16     +2068,+2068,+2068,+2068
   \              1408        
   \   000007E0   140814081408       DC16     +2068,+2068,+2068,+2068
   \              1408        
   \   000007E8   140814081408       DC16     +2068,+2068,+2068,+2068
   \              1408        
   \   000007F0   140814081408       DC16     +2068,+2068,+2068,+2068
   \              1408        
   \   000007F8   140814081408       DC16     +2068,+2068,+2068,+2068
   \              1408        
   \   00000800   140814081408       DC16     +2068,+2068,+2068,+2068
   \              1408        
   \   00000808   140814081408       DC16     +2068,+2068,+2068,+2068
   \              1408        
   \   00000810   140814081408       DC16     +2068,+2068,+2068,+2068
   \              1408        
   \   00000818   140814081408       DC16     +2068,+2068,+2068,+2068
   \              1408        
   \   00000820   140814081408       DC16     +2068,+2068,+2068,+2068
   \              1408        
   \   00000828   140814081408       DC16     +2068,+2068,+2068,+2068
   \              1408        
   \   00000830   140814081408       DC16     +2068,+2068,+2068,+2068
   \              1408        
   \   00000838   140814081408       DC16     +2068,+2068,+2068,+2068
   \              1408        
   \   00000840   140814081408       DC16     +2068,+2068,+2068,+2068
   \              1408        
   \   00000848   140814081408       DC16     +2068,+2068,+2068,+2068
   \              1408        
   \   00000850   140814081408       DC16     +2068,+2068,+2068,+2068
   \              1408        
   \   00000858   140814081408       DC16     +2068,+2068,+2068,+2068
   \              1408        
   \   00000860   140814081408       DC16     +2068,+2068,+2068,+2068
   \              1408        
   \   00000868   140814081408       DC16     +2068,+2068,+2068,+2068
   \              1408        
   \   00000870   140814081408       DC16     +2068,+2068,+2068,+2068
   \              1408        
   \   00000878   140814081408       DC16     +2068,+2068,+2068,+2068
   \              1408        
   \   00000880   140814081408       DC16     +2068,+2068,+2068,+2068
   \              1408        
   \   00000888   140814081408       DC16     +2068,+2068,+2068,+2068
   \              1408        
   \   00000890   140814081408       DC16     +2068,+2068,+2068,+2068
   \              1408        
   \   00000898   140814081408       DC16     +2068,+2068,+2068,+2068
   \              1408        
   \   000008A0   140814081408       DC16     +2068,+2068,+2068,+2068
   \              1408        
   \   000008A8   140814081408       DC16     +2068,+2068,+2068,+2068
   \              1408        
   \   000008B0   140814081408       DC16     +2068,+2068,+2068,+2068
   \              1408        
   \   000008B8   140814081408       DC16     +2068,+2068,+2068,+2068
   \              1408        
   \   000008C0   140814081408       DC16     +2068,+2068,+2068,+2068
   \              1408        
   \   000008C8   140814081408       DC16     +2068,+2068,+2068,+2068
   \              1408        
   \   000008D0   140814081408       DC16     +2068,+2068,+2068,+2068
   \              1408        
   \   000008D8   140814081408       DC16     +2068,+2068,+2068,+2068
   \              1408        
   \   000008E0   140814081408       DC16     +2068,+2068,+2068,+2068
   \              1408        
   \   000008E8   140814081408       DC16     +2068,+2068,+2068,+2068
   \              1408        
   \   000008F0   140814081408       DC16     +2068,+2068,+2068,+2068
   \              1408        
   \   000008F8   140814081408       DC16     +2068,+2068,+2068,+2068
   \              1408        
   \   00000900   140814081408       DC16     +2068,+2068,+2068,+2068
   \              1408        
   \   00000908   140814081408       DC16     +2068,+2068,+2068,+2068
   \              1408        
   \   00000910   140814081408       DC16     +2068,+2068,+2068,+2068
   \              1408        
   \   00000918   140814081408       DC16     +2068,+2068,+2068,+2068
   \              1408        
   \   00000920   140814081408       DC16     +2068,+2068,+2068,+2068
   \              1408        
   \   00000928   140814081408       DC16     +2068,+2068,+2068,+2068
   \              1408        
   \   00000930   140814081408       DC16     +2068,+2068,+2068,+2068
   \              1408        
   \   00000938   140814081408       DC16     +2068,+2068,+2068,+2068
   \              1408        
   \   00000940   140814081408       DC16     +2068,+2068,+2068,+2068
   \              1408        
   \   00000948   140814081408       DC16     +2068,+2068,+2068,+2068
   \              1408        
   \   00000950   140814081408       DC16     +2068,+2068,+2068,+2068
   \              1408        
   \   00000958   140814081408       DC16     +2068,+2068,+2068,+2068
   \              1408        
   \   00000960   140814081408       DC16     +2068,+2068,+2068,+2068
   \              1408        
   \   00000968   140814081408       DC16     +2068,+2068,+2068,+2068
   \              1408        
   \   00000970   140814081408       DC16     +2068,+2068,+2068,+2068
   \              1408        
   \   00000978   140814081408       DC16     +2068,+2068,+2068,+2068
   \              1408        
   \   00000980   140814081408       DC16     +2068,+2068,+2068,+2068
   \              1408        
   \   00000988   140814081408       DC16     +2068,+2068,+2068,+2068
   \              1408        
   \   00000990   140814081408       DC16     +2068,+2068,+2068,+2068
   \              1408        
   \   00000998   140814081408       DC16     +2068,+2068,+2068,+2068
   \              1408        
   \   000009A0   140814081408       DC16     +2068,+2068,+2068,+2068
   \              1408        
   \   000009A8   140814081408       DC16     +2068,+2068,+2068,+2068
   \              1408        
   \   000009B0   140814081408       DC16     +2068,+2068,+2068,+2068
   \              1408        
   \   000009B8   140814081408       DC16     +2068,+2068,+2068,+2068
   \              1408        
   \   000009C0   140814081408       DC16     +2068,+2068,+2068,+2068
   \              1408        
   \   000009C8   140814081408       DC16     +2068,+2068,+2068,+2068
   \              1408        
   \   000009D0   140814081408       DC16     +2068,+2068,+2068,+2068
   \              1408        
   \   000009D8   140814081408       DC16     +2068,+2068,+2068,+2068
   \              1408        
   \   000009E0   140814081408       DC16     +2068,+2068,+2068,+2068
   \              1408        
   \   000009E8   140814081408       DC16     +2068,+2068,+2068,+2068
   \              1408        
   \   000009F0   140814081408       DC16     +2068,+2068,+2068,+2068
   \              1408        
   \   000009F8   140814081408       DC16     +2068,+2068,+2068,+2068
   \              1408        
   \   00000A00   140814081408       DC16     +2068,+2068,+2068,+2068
   \              1408        
   \   00000A08   140814081408       DC16     +2068,+2068,+2068,+2068
   \              1408        
   \   00000A10   140814081408       DC16     +2068,+2068,+2068,+2068
   \              1408        
   \   00000A18   140814081408       DC16     +2068,+2068,+2068,+2068
   \              1408        
   \   00000A20   140814081408       DC16     +2068,+2068,+2068,+2068
   \              1408        
   \   00000A28   140814081408       DC16     +2068,+2068,+2068,+2068
   \              1408        
   \   00000A30   140814081408       DC16     +2068,+2068,+2068,+2068
   \              1408        
   \   00000A38   140814081408       DC16     +2068,+2068,+2068,+2068
   \              1408        
   \   00000A40   140814081408       DC16     +2068,+2068,+2068,+2068
   \              1408        
   \   00000A48   140814081408       DC16     +2068,+2068,+2068,+2068
   \              1408        
   \   00000A50   140814081408       DC16     +2068,+2068,+2068,+2068
   \              1408        
   \   00000A58   140814081408       DC16     +2068,+2068,+2068,+2068
   \              1408        
   \   00000A60   140814081408       DC16     +2068,+2068,+2068,+2068
   \              1408        
   \   00000A68   140814081408       DC16     +2068,+2068,+2068,+2068
   \              1408        
   \   00000A70   140814081408       DC16     +2068,+2068,+2068,+2068
   \              1408        
   \   00000A78   140814081408       DC16     +2068,+2068,+2068,+2068
   \              1408        
   \   00000A80   140814081408       DC16     +2068,+2068,+2068,+2068
   \              1408        
   \   00000A88   140814081408       DC16     +2068,+2068,+2068,+2068
   \              1408        
   \   00000A90   140814081408       DC16     +2068,+2068,+2068,+2068
   \              1408        
   \   00000A98   140814081408       DC16     +2068,+2068,+2068,+2068
   \              1408        
   \   00000AA0   140814081408       DC16     +2068,+2068,+2068,+2068
   \              1408        
   \   00000AA8   140814081408       DC16     +2068,+2068,+2068,+2068
   \              1408        
   \   00000AB0   140814081408       DC16     +2068,+2068,+2068,+2068
   \              1408        
   \   00000AB8   140814081408       DC16     +2068,+2068,+2068,+2068
   \              1408        
   \   00000AC0   140814081408       DC16     +2068,+2068,+2068,+2068
   \              1408        
   \   00000AC8   140814081408       DC16     +2068,+2068,+2068,+2068
   \              1408        
   \   00000AD0   140814081408       DC16     +2068,+2068,+2068,+2068
   \              1408        
   \   00000AD8   140814081408       DC16     +2068,+2068,+2068,+2068
   \              1408        
   \   00000AE0   140814081408       DC16     +2068,+2068,+2068,+2068
   \              1408        
   \   00000AE8   140814081408       DC16     +2068,+2068,+2068,+2068
   \              1408        
   \   00000AF0   140814081408       DC16     +2068,+2068,+2068,+2068
   \              1408        
   \   00000AF8   140814081408       DC16     +2068,+2068,+2068,+2068
   \              1408        
   \   00000B00   140814081408       DC16     +2068,+2068,+2068,+2068
   \              1408        
   \   00000B08   140814081408       DC16     +2068,+2068,+2068,+2068
   \              1408        
   \   00000B10   140814081408       DC16     +2068,+2068,+2068,+2068
   \              1408        
   \   00000B18   140814081408       DC16     +2068,+2068,+2068,+2068
   \              1408        
   \   00000B20   140814081408       DC16     +2068,+2068,+2068,+2068
   \              1408        
   \   00000B28   140814081408       DC16     +2068,+2068,+2068,+2068
   \              1408        
   \   00000B30   140814081408       DC16     +2068,+2068,+2068,+2068
   \              1408        
   \   00000B38   140814081408       DC16     +2068,+2068,+2068,+2068
   \              1408        
   \   00000B40   140814081408       DC16     +2068,+2068,+2068,+2068
   \              1408        
   \   00000B48   140814081408       DC16     +2068,+2068,+2068,+2068
   \              1408        
   \   00000B50   140814081408       DC16     +2068,+2068,+2068,+2068
   \              1408        
   \   00000B58   140814081408       DC16     +2068,+2068,+2068,+2068
   \              1408        
   \   00000B60   140814081408       DC16     +2068,+2068,+2068,+2068
   \              1408        
   \   00000B68   140814081408       DC16     +2068,+2068,+2068,+2068
   \              1408        
   \   00000B70   140814081408       DC16     +2068,+2068,+2068,+2068
   \              1408        
   \   00000B78   140814081408       DC16     +2068,+2068,+2068,+2068
   \              1408        
   \   00000B80   140814081408       DC16     +2068,+2068,+2068,+2068
   \              1408        
   \   00000B88   140814081408       DC16     +2068,+2068,+2068,+2068
   \              1408        
   \   00000B90   140814081408       DC16     +2068,+2068,+2068,+2068
   \              1408        
   \   00000B98   140814081408       DC16     +2068,+2068,+2068,+2068
   \              1408        
   \   00000BA0   140814081408       DC16     +2068,+2068,+2068,+2068
   \              1408        
   \   00000BA8   140814081408       DC16     +2068,+2068,+2068,+2068
   \              1408        
   \   00000BB0   140814081408       DC16     +2068,+2068,+2068,+2068
   \              1408        
   \   00000BB8   140814081408       DC16     +2068,+2068,+2068,+2068
   \              1408        
   \   00000BC0   140814081408       DC16     +2068,+2068,+2068,+2068
   \              1408        
   \   00000BC8   140814081408       DC16     +2068,+2068,+2068,+2068
   \              1408        
   \   00000BD0   140814081408       DC16     +2068,+2068,+2068,+2068
   \              1408        
   \   00000BD8   140814081408       DC16     +2068,+2068,+2068,+2068
   \              1408        
   \   00000BE0   140814081408       DC16     +2068,+2068,+2068,+2068
   \              1408        
   \   00000BE8   140814081408       DC16     +2068,+2068,+2068,+2068
   \              1408        
   \   00000BF0   140814081408       DC16     +2068,+2068,+2068,+2068
   \              1408        
   \   00000BF8   140814081408       DC16     +2068,+2068,+2068,+2068
   \              1408        
   \   00000C00   140814081408       DC16     +2068,+2068,+2068,+2068
   \              1408        
   \   00000C08   140814081408       DC16     +2068,+2068,+2068,+2068
   \              1408        
   \   00000C10   140814081408       DC16     +2068,+2068,+2068,+2068
   \              1408        
   \   00000C18   140814081408       DC16     +2068,+2068,+2068,+2068
   \              1408        
   \   00000C20   140814081408       DC16     +2068,+2068,+2068,+2068
   \              1408        
   \   00000C28   140814081408       DC16     +2068,+2068,+2068,+2068
   \              1408        
   \   00000C30   140814081408       DC16     +2068,+2068,+2068,+2068
   \              1408        
   \   00000C38   140814081408       DC16     +2068,+2068,+2068,+2068
   \              1408        
   \   00000C40   140814081408       DC16     +2068,+2068,+2068,+2068
   \              1408        
   \   00000C48   140814081408       DC16     +2068,+2068,+2068,+2068
   \              1408        
   \   00000C50   140814081408       DC16     +2068,+2068,+2068,+2068
   \              1408        
   \   00000C58   140814081408       DC16     +2068,+2068,+2068,+2068
   \              1408        
   \   00000C60   140814081408       DC16     +2068,+2068,+2068,+2068
   \              1408        
   \   00000C68   140814081408       DC16     +2068,+2068,+2068,+2068
   \              1408        
   \   00000C70   140814081408       DC16     +2068,+2068,+2068,+2068
   \              1408        
   \   00000C78   140814081408       DC16     +2068,+2068,+2068,+2068
   \              1408        
   \   00000C80   140814081408       DC16     +2068,+2068,+2068,+2068
   \              1408        
   \   00000C88   140814081408       DC16     +2068,+2068,+2068,+2068
   \              1408        
   \   00000C90   140814081408       DC16     +2068,+2068,+2068,+2068
   \              1408        
   \   00000C98   140814081408       DC16     +2068,+2068,+2068,+2068
   \              1408        
   \   00000CA0   140814081408       DC16     +2068,+2068,+2068,+2068
   \              1408        
   \   00000CA8   140814081408       DC16     +2068,+2068,+2068,+2068
   \              1408        
   \   00000CB0   140814081408       DC16     +2068,+2068,+2068,+2068
   \              1408        
   \   00000CB8   140814081408       DC16     +2068,+2068,+2068,+2068
   \              1408        
   \   00000CC0   140814081408       DC16     +2068,+2068,+2068,+2068
   \              1408        
   \   00000CC8   140814081408       DC16     +2068,+2068,+2068,+2068
   \              1408        
   \   00000CD0   140814081408       DC16     +2068,+2068,+2068,+2068
   \              1408        
   \   00000CD8   140814081408       DC16     +2068,+2068,+2068,+2068
   \              1408        
   \   00000CE0   140814081408       DC16     +2068,+2068,+2068,+2068
   \              1408        
   \   00000CE8   140814081408       DC16     +2068,+2068,+2068,+2068
   \              1408        
   \   00000CF0   140814081408       DC16     +2068,+2068,+2068,+2068
   \              1408        
   \   00000CF8   140814081408       DC16     +2068,+2068,+2068,+2068
   \              1408        
   \   00000D00   140814081408       DC16     +2068,+2068,+2068,+2068
   \              1408        
   \   00000D08   140814081408       DC16     +2068,+2068,+2068,+2068
   \              1408        
   \   00000D10   140814081408       DC16     +2068,+2068,+2068,+2068
   \              1408        
   \   00000D18   140814081408       DC16     +2068,+2068,+2068,+2068
   \              1408        
   \   00000D20   140814081408       DC16     +2068,+2068,+2068,+2068
   \              1408        
   \   00000D28   140814081408       DC16     +2068,+2068,+2068,+2068
   \              1408        
   \   00000D30   140814081408       DC16     +2068,+2068,+2068,+2068
   \              1408        
   \   00000D38   140814081408       DC16     +2068,+2068,+2068,+2068
   \              1408        
   \   00000D40   140814081408       DC16     +2068,+2068,+2068,+2068
   \              1408        
   \   00000D48   140814081408       DC16     +2068,+2068,+2068,+2068
   \              1408        
   \   00000D50   140814081408       DC16     +2068,+2068,+2068,+2068
   \              1408        
   \   00000D58   140814081408       DC16     +2068,+2068,+2068,+2068
   \              1408        
   \   00000D60   140814081408       DC16     +2068,+2068,+2068,+2068
   \              1408        
   \   00000D68   140814081408       DC16     +2068,+2068,+2068,+2068
   \              1408        
   \   00000D70   140814081408       DC16     +2068,+2068,+2068,+2068
   \              1408        
   \   00000D78   140814081408       DC16     +2068,+2068,+2068,+2068
   \              1408        
   \   00000D80   140814081408       DC16     +2068,+2068,+2068,+2068
   \              1408        
   \   00000D88   140814081408       DC16     +2068,+2068,+2068,+2068
   \              1408        
   \   00000D90   140814081408       DC16     +2068,+2068,+2068,+2068
   \              1408        
   \   00000D98   140814081408       DC16     +2068,+2068,+2068,+2068
   \              1408        
   \   00000DA0   140814081408       DC16     +2068,+2068,+2068,+2068
   \              1408        
   \   00000DA8   140814081408       DC16     +2068,+2068,+2068,+2068
   \              1408        
   \   00000DB0   140814081408       DC16     +2068,+2068,+2068,+2068
   \              1408        
   \   00000DB8   140814081408       DC16     +2068,+2068,+2068,+2068
   \              1408        
   \   00000DC0   140814081408       DC16     +2068,+2068,+2068,+2068
   \              1408        
   \   00000DC8   140814081408       DC16     +2068,+2068,+2068,+2068
   \              1408        
   \   00000DD0   140814081408       DC16     +2068,+2068,+2068,+2068
   \              1408        
   \   00000DD8   140814081408       DC16     +2068,+2068,+2068,+2068
   \              1408        
   \   00000DE0   140814081408       DC16     +2068,+2068,+2068,+2068
   \              1408        
   \   00000DE8   140814081408       DC16     +2068,+2068,+2068,+2068
   \              1408        
   \   00000DF0   140814081408       DC16     +2068,+2068,+2068,+2068
   \              1408        
   \   00000DF8   140814081408       DC16     +2068,+2068,+2068,+2068
   \              1408        
   \   00000E00   140814081408       DC16     +2068,+2068,+2068,+2068
   \              1408        
   \   00000E08   140814081408       DC16     +2068,+2068,+2068,+2068
   \              1408        
   \   00000E10   140814081408       DC16     +2068,+2068,+2068,+2068
   \              1408        
   \   00000E18   140814081408       DC16     +2068,+2068,+2068,+2068
   \              1408        
   \   00000E20   140814081408       DC16     +2068,+2068,+2068,+2068
   \              1408        
   \   00000E28   140814081408       DC16     +2068,+2068,+2068,+2068
   \              1408        
   \   00000E30   140814081408       DC16     +2068,+2068,+2068,+2068
   \              1408        
   \   00000E38   140814081408       DC16     +2068,+2068,+2068,+2068
   \              1408        
   \   00000E40   140814081408       DC16     +2068,+2068,+2068,+2068
   \              1408        
   \   00000E48   140814081408       DC16     +2068,+2068,+2068,+2068
   \              1408        
   \   00000E50   140814081408       DC16     +2068,+2068,+2068,+2068
   \              1408        
   \   00000E58   140814081408       DC16     +2068,+2068,+2068,+2068
   \              1408        
   \   00000E60   140814081408       DC16     +2068,+2068,+2068,+2068
   \              1408        
   \   00000E68   140814081408       DC16     +2068,+2068,+2068,+2068
   \              1408        
   \   00000E70   140814081408       DC16     +2068,+2068,+2068,+2068
   \              1408        
   \   00000E78   140814081408       DC16     +2068,+2068,+2068,+2068
   \              1408        
   \   00000E80   140814081408       DC16     +2068,+2068,+2068,+2068
   \              1408        
   \   00000E88   140814081408       DC16     +2068,+2068,+2068,+2068
   \              1408        
   \   00000E90   140814081408       DC16     +2068,+2068,+2068,+2068
   \              1408        
   \   00000E98   140814081408       DC16     +2068,+2068,+2068,+2068
   \              1408        
   \   00000EA0   140814081408       DC16     +2068,+2068,+2068,+2068
   \              1408        
   \   00000EA8   140814081408       DC16     +2068,+2068,+2068,+2068
   \              1408        
   \   00000EB0   140814081408       DC16     +2068,+2068,+2068,+2068
   \              1408        
   \   00000EB8   140814081408       DC16     +2068,+2068,+2068,+2068
   \              1408        
   \   00000EC0   140814081408       DC16     +2068,+2068,+2068,+2068
   \              1408        
   \   00000EC8   140814081408       DC16     +2068,+2068,+2068,+2068
   \              1408        
   \   00000ED0   140814081408       DC16     +2068,+2068,+2068,+2068
   \              1408        
   \   00000ED8   140814081408       DC16     +2068,+2068,+2068,+2068
   \              1408        
   \   00000EE0   140814081408       DC16     +2068,+2068,+2068,+2068
   \              1408        
   \   00000EE8   140814081408       DC16     +2068,+2068,+2068,+2068
   \              1408        
   \   00000EF0   140814081408       DC16     +2068,+2068,+2068,+2068
   \              1408        
   \   00000EF8   140814081408       DC16     +2068,+2068,+2068,+2068
   \              1408        
   \   00000F00   140814081408       DC16     +2068,+2068,+2068,+2068
   \              1408        
   \   00000F08   140814081408       DC16     +2068,+2068,+2068,+2068
   \              1408        
   \   00000F10   140814081408       DC16     +2068,+2068,+2068,+2068
   \              1408        
   \   00000F18   140814081408       DC16     +2068,+2068,+2068,+2068
   \              1408        
   \   00000F20   140814081408       DC16     +2068,+2068,+2068,+2068
   \              1408        
   \   00000F28   140814081408       DC16     +2068,+2068,+2068,+2068
   \              1408        
   \   00000F30   140814081408       DC16     +2068,+2068,+2068,+2068
   \              1408        
   \   00000F38   140814081408       DC16     +2068,+2068,+2068,+2068
   \              1408        
   \   00000F40   140814081408       DC16     +2068,+2068,+2068,+2068
   \              1408        
   \   00000F48   140814081408       DC16     +2068,+2068,+2068,+2068
   \              1408        
   \   00000F50   140814081408       DC16     +2068,+2068,+2068,+2068
   \              1408        
   \   00000F58   140814081408       DC16     +2068,+2068,+2068,+2068
   \              1408        
   \   00000F60   140814081408       DC16     +2068,+2068,+2068,+2068
   \              1408        
   \   00000F68   140814081408       DC16     +2068,+2068,+2068,+2068
   \              1408        
   \   00000F70   140814081408       DC16     +2068,+2068,+2068,+2068
   \              1408        
   \   00000F78   140814081408       DC16     +2068,+2068,+2068,+2068
   \              1408        
   \   00000F80   140814081408       DC16     +2068,+2068,+2068,+2068
   \              1408        
   \   00000F88   140814081408       DC16     +2068,+2068,+2068,+2068
   \              1408        
   \   00000F90   140814081408       DC16     +2068,+2068,+2068,+2068
   \              1408        
   \   00000F98   140814081408       DC16     +2068,+2068,+2068,+2068
   \              1408        
   \   00000FA0   140814081408       DC16     +2068,+2068,+2068,+2068
   \              1408        
   \   00000FA8   140814081408       DC16     +2068,+2068,+2068,+2068
   \              1408        
   \   00000FB0   140814081408       DC16     +2068,+2068,+2068,+2068
   \              1408        
   \   00000FB8   140814081408       DC16     +2068,+2068,+2068,+2068
   \              1408        
   \   00000FC0   140814081408       DC16     +2068,+2068,+2068,+2068
   \              1408        
   \   00000FC8   140814081408       DC16     +2068,+2068,+2068,+2068
   \              1408        
   \   00000FD0   140814081408       DC16     +2068,+2068,+2068,+2068
   \              1408        
   \   00000FD8   140814081408       DC16     +2068,+2068,+2068,+2068
   \              1408        
   \   00000FE0   140814081408       DC16     +2068,+2068,+2068,+2068
   \              1408        
   \   00000FE8   140814081408       DC16     +2068,+2068,+2068,+2068
   \              1408        
   \   00000FF0   140814081408       DC16     +2068,+2068,+2068,+2068
   \              1408        
   \   00000FF8   140814081408       DC16     +2068,+2068,+2068,+2068
   \              1408        
   \   00001000   140814081408       DC16     +2068,+2068,+2068,+2068
   \              1408        
   \   00001008   140814081408       DC16     +2068,+2068,+2068,+2068
   \              1408        
   \   00001010   140814081408       DC16     +2068,+2068,+2068,+2068
   \              1408        
   \   00001018   140814081408       DC16     +2068,+2068,+2068,+2068
   \              1408        
   \   00001020   140814081408       DC16     +2068,+2068,+2068,+2068
   \              1408        
   \   00001028   140814081408       DC16     +2068,+2068,+2068,+2068
   \              1408        
   \   00001030   140814081408       DC16     +2068,+2068,+2068,+2068
   \              1408        
   \   00001038   140814081408       DC16     +2068,+2068,+2068,+2068
   \              1408        
   \   00001040   140814081408       DC16     +2068,+2068,+2068,+2068
   \              1408        
   \   00001048   140814081408       DC16     +2068,+2068,+2068,+2068
   \              1408        
   \   00001050   140814081408       DC16     +2068,+2068,+2068,+2068
   \              1408        
   \   00001058   140814081408       DC16     +2068,+2068,+2068,+2068
   \              1408        
   \   00001060   140814081408       DC16     +2068,+2068,+2068,+2068
   \              1408        
   \   00001068   140814081408       DC16     +2068,+2068,+2068,+2068
   \              1408        
   \   00001070   140814081408       DC16     +2068,+2068,+2068,+2068
   \              1408        
   \   00001078   140814081408       DC16     +2068,+2068,+2068,+2068
   \              1408        
   \   00001080   140814081408       DC16     +2068,+2068,+2068,+2068
   \              1408        
   \   00001088   140814081408       DC16     +2068,+2068,+2068,+2068
   \              1408        
   \   00001090   140814081408       DC16     +2068,+2068,+2068,+2068
   \              1408        
   \   00001098   140814081408       DC16     +2068,+2068,+2068,+2068
   \              1408        
   \   000010A0   140814081408       DC16     +2068,+2068,+2068,+2068
   \              1408        
   \   000010A8   140814081408       DC16     +2068,+2068,+2068,+2068
   \              1408        
   \   000010B0   140814081408       DC16     +2068,+2068,+2068,+2068
   \              1408        
   \   000010B8   140814081408       DC16     +2068,+2068,+2068,+2068
   \              1408        
   \   000010C0   140814081408       DC16     +2068,+2068,+2068,+2068
   \              1408        
   \   000010C8   140814081408       DC16     +2068,+2068,+2068,+2068
   \              1408        
   \   000010D0   140814081408       DC16     +2068,+2068,+2068,+2068
   \              1408        
   \   000010D8   140814081408       DC16     +2068,+2068,+2068,+2068
   \              1408        
   \   000010E0   140814081408       DC16     +2068,+2068,+2068,+2068
   \              1408        
   \   000010E8   140814081408       DC16     +2068,+2068,+2068,+2068
   \              1408        
   \   000010F0   140814081408       DC16     +2068,+2068,+2068,+2068
   \              1408        
   \   000010F8   140814081408       DC16     +2068,+2068,+2068,+2068
   \              1408        
   \   00001100   140814081408       DC16     +2068,+2068,+2068,+2068
   \              1408        
   \   00001108   140814081408       DC16     +2068,+2068,+2068,+2068
   \              1408        
   \   00001110   140814081408       DC16     +2068,+2068,+2068,+2068
   \              1408        
   \   00001118   140814081408       DC16     +2068,+2068,+2068,+2068
   \              1408        
   \   00001120   140814081408       DC16     +2068,+2068,+2068,+2068
   \              1408        
   \   00001128   140814081408       DC16     +2068,+2068,+2068,+2068
   \              1408        
   \   00001130   140814081408       DC16     +2068,+2068,+2068,+2068
   \              1408        
   \   00001138   140814081408       DC16     +2068,+2068,+2068,+2068
   \              1408        
   \   00001140   140814081408       DC16     +2068,+2068,+2068,+2068
   \              1408        
   \   00001148   140814081408       DC16     +2068,+2068,+2068,+2068
   \              1408        
   \   00001150   140814081408       DC16     +2068,+2068,+2068,+2068
   \              1408        
   \   00001158   140814081408       DC16     +2068,+2068,+2068,+2068
   \              1408        
   \   00001160   140814081408       DC16     +2068,+2068,+2068,+2068
   \              1408        
   \   00001168   140814081408       DC16     +2068,+2068,+2068,+2068
   \              1408        
   \   00001170   140814081408       DC16     +2068,+2068,+2068,+2068
   \              1408        
   \   00001178   140814081408       DC16     +2068,+2068,+2068,+2068
   \              1408        
   \   00001180   140814081408       DC16     +2068,+2068,+2068,+2068
   \              1408        
   \   00001188   140814081408       DC16     +2068,+2068,+2068,+2068
   \              1408        
   \   00001190   140814081408       DC16     +2068,+2068,+2068,+2068
   \              1408        
   \   00001198   140814081408       DC16     +2068,+2068,+2068,+2068
   \              1408        
   \   000011A0   140814081408       DC16     +2068,+2068,+2068,+2068
   \              1408        
   \   000011A8   140814081408       DC16     +2068,+2068,+2068,+2068
   \              1408        
   \   000011B0   140814081408       DC16     +2068,+2068,+2068,+2068
   \              1408        
   \   000011B8   140814081408       DC16     +2068,+2068,+2068,+2068
   \              1408        
   \   000011C0   140814081408       DC16     +2068,+2068,+2068,+2068
   \              1408        
   \   000011C8   140814081408       DC16     +2068,+2068,+2068,+2068
   \              1408        
   \   000011D0   140814081408       DC16     +2068,+2068,+2068,+2068
   \              1408        
   \   000011D8   140814081408       DC16     +2068,+2068,+2068,+2068
   \              1408        
   \   000011E0   140814081408       DC16     +2068,+2068,+2068,+2068
   \              1408        
   \   000011E8   140814081408       DC16     +2068,+2068,+2068,+2068
   \              1408        
   \   000011F0   140814081408       DC16     +2068,+2068,+2068,+2068
   \              1408        
   \   000011F8   140814081408       DC16     +2068,+2068,+2068,+2068
   \              1408        
   \   00001200   140814081408       DC16     +2068,+2068,+2068,+2068
   \              1408        
   \   00001208   140814081408       DC16     +2068,+2068,+2068,+2068
   \              1408        
   \   00001210   140814081408       DC16     +2068,+2068,+2068,+2068
   \              1408        
   \   00001218   140814081408       DC16     +2068,+2068,+2068,+2068
   \              1408        
   \   00001220   140814081408       DC16     +2068,+2068,+2068,+2068
   \              1408        
   \   00001228   140814081408       DC16     +2068,+2068,+2068,+2068
   \              1408        
   \   00001230   140814081408       DC16     +2068,+2068,+2068,+2068
   \              1408        
   \   00001238   140814081408       DC16     +2068,+2068,+2068,+2068
   \              1408        
   \   00001240   140814081408       DC16     +2068,+2068,+2068,+2068
   \              1408        
   \   00001248   140814081408       DC16     +2068,+2068,+2068,+2068
   \              1408        
   \   00001250   140814081408       DC16     +2068,+2068,+2068,+2068
   \              1408        
   \   00001258   140814081408       DC16     +2068,+2068,+2068,+2068
   \              1408        
   \   00001260   140814081408       DC16     +2068,+2068,+2068,+2068
   \              1408        
   \   00001268   140814081408       DC16     +2068,+2068,+2068,+2068
   \              1408        
   \   00001270   140814081408       DC16     +2068,+2068,+2068,+2068
   \              1408        
   \   00001278   140814081408       DC16     +2068,+2068,+2068,+2068
   \              1408        
   \   00001280   140814081408       DC16     +2068,+2068,+2068,+2068
   \              1408        
   \   00001288   140814081408       DC16     +2068,+2068,+2068,+2068
   \              1408        
   \   00001290   140814081408       DC16     +2068,+2068,+2068,+2068
   \              1408        
   \   00001298   140814081408       DC16     +2068,+2068,+2068,+2068
   \              1408        
   \   000012A0   140814081408       DC16     +2068,+2068,+2068,+2068
   \              1408        
   \   000012A8   140814081408       DC16     +2068,+2068,+2068,+2068
   \              1408        
   \   000012B0   140814081408       DC16     +2068,+2068,+2068,+2068
   \              1408        
   \   000012B8   140814081408       DC16     +2068,+2068,+2068,+2068
   \              1408        
   \   000012C0   140814081408       DC16     +2068,+2068,+2068,+2068
   \              1408        
   \   000012C8   140814081408       DC16     +2068,+2068,+2068,+2068
   \              1408        
   \   000012D0   140814081408       DC16     +2068,+2068,+2068,+2068
   \              1408        
   \   000012D8   140814081408       DC16     +2068,+2068,+2068,+2068
   \              1408        
   \   000012E0   140814081408       DC16     +2068,+2068,+2068,+2068
   \              1408        
   \   000012E8   140814081408       DC16     +2068,+2068,+2068,+2068
   \              1408        
   \   000012F0   140814081408       DC16     +2068,+2068,+2068,+2068
   \              1408        
   \   000012F8   140814081408       DC16     +2068,+2068,+2068,+2068
   \              1408        
   \   00001300   140814081408       DC16     +2068,+2068,+2068,+2068
   \              1408        
   \   00001308   140814081408       DC16     +2068,+2068,+2068,+2068
   \              1408        
   \   00001310   140814081408       DC16     +2068,+2068,+2068,+2068
   \              1408        
   \   00001318   140814081408       DC16     +2068,+2068,+2068,+2068
   \              1408        
   \   00001320   140814081408       DC16     +2068,+2068,+2068,+2068
   \              1408        
   \   00001328   140814081408       DC16     +2068,+2068,+2068,+2068
   \              1408        
   \   00001330   140814081408       DC16     +2068,+2068,+2068,+2068
   \              1408        
   \   00001338   140814081408       DC16     +2068,+2068,+2068,+2068
   \              1408        
   \   00001340   140814081408       DC16     +2068,+2068,+2068,+2068
   \              1408        
   \   00001348   140814081408       DC16     +2068,+2068,+2068,+2068
   \              1408        
   \   00001350   140814081408       DC16     +2068,+2068,+2068,+2068
   \              1408        
   \   00001358   140814081408       DC16     +2068,+2068,+2068,+2068
   \              1408        
   \   00001360   140814081408       DC16     +2068,+2068,+2068,+2068
   \              1408        
   \   00001368   140814081408       DC16     +2068,+2068,+2068,+2068
   \              1408        
   \   00001370   140814081408       DC16     +2068,+2068,+2068,+2068
   \              1408        
   \   00001378   140814081408       DC16     +2068,+2068,+2068,+2068
   \              1408        
   \   00001380   140814081408       DC16     +2068,+2068,+2068,+2068
   \              1408        
   \   00001388   140814081408       DC16     +2068,+2068,+2068,+2068
   \              1408        
   \   00001390   140814081408       DC16     +2068,+2068,+2068,+2068
   \              1408        
   \   00001398   140814081408       DC16     +2068,+2068,+2068,+2068
   \              1408        
   \   000013A0   140814081408       DC16     +2068,+2068,+2068,+2068
   \              1408        
   \   000013A8   140814081408       DC16     +2068,+2068,+2068,+2068
   \              1408        
   \   000013B0   140814081408       DC16     +2068,+2068,+2068,+2068
   \              1408        
   \   000013B8   140814081408       DC16     +2068,+2068,+2068,+2068
   \              1408        
   \   000013C0   140814081408       DC16     +2068,+2068,+2068,+2068
   \              1408        
   \   000013C8   140814081408       DC16     +2068,+2068,+2068,+2068
   \              1408        
   \   000013D0   140814081408       DC16     +2068,+2068,+2068,+2068
   \              1408        
   \   000013D8   140814081408       DC16     +2068,+2068,+2068,+2068
   \              1408        
   \   000013E0   140814081408       DC16     +2068,+2068,+2068,+2068
   \              1408        
   \   000013E8   140814081408       DC16     +2068,+2068,+2068,+2068
   \              1408        
   \   000013F0   140814081408       DC16     +2068,+2068,+2068,+2068
   \              1408        
   \   000013F8   140814081408       DC16     +2068,+2068,+2068,+2068
   \              1408        
   \   00001400   140814081408       DC16     +2068,+2068,+2068,+2068
   \              1408        
   \   00001408   140814081408       DC16     +2068,+2068,+2068,+2068
   \              1408        
   \   00001410   140814081408       DC16     +2068,+2068,+2068,+2068
   \              1408        
   \   00001418   140814081408       DC16     +2068,+2068,+2068,+2068
   \              1408        
   \   00001420   140814081408       DC16     +2068,+2068,+2068,+2068
   \              1408        
   \   00001428   140814081408       DC16     +2068,+2068,+2068,+2068
   \              1408        
   \   00001430   140814081408       DC16     +2068,+2068,+2068,+2068
   \              1408        
   \   00001438   140814081408       DC16     +2068,+2068,+2068,+2068
   \              1408        
   \   00001440   140814081408       DC16     +2068,+2068,+2068,+2068
   \              1408        
   \   00001448   140814081408       DC16     +2068,+2068,+2068,+2068
   \              1408        
   \   00001450   140814081408       DC16     +2068,+2068,+2068,+2068
   \              1408        
   \   00001458   140814081408       DC16     +2068,+2068,+2068,+2068
   \              1408        
   \   00001460   140814081408       DC16     +2068,+2068,+2068,+2068
   \              1408        
   \   00001468   140814081408       DC16     +2068,+2068,+2068,+2068
   \              1408        
   \   00001470   140814081408       DC16     +2068,+2068,+2068,+2068
   \              1408        
   \   00001478   140814081408       DC16     +2068,+2068,+2068,+2068
   \              1408        
   \   00001480   140814081408       DC16     +2068,+2068,+2068,+2068
   \              1408        
   \   00001488   140814081408       DC16     +2068,+2068,+2068,+2068
   \              1408        
   \   00001490   140814081408       DC16     +2068,+2068,+2068,+2068
   \              1408        
   \   00001498   140814081408       DC16     +2068,+2068,+2068,+2068
   \              1408        
   \   000014A0   140814081408       DC16     +2068,+2068,+2068,+2068
   \              1408        
   \   000014A8   140814081408       DC16     +2068,+2068,+2068,+2068
   \              1408        
   \   000014B0   140814081408       DC16     +2068,+2068,+2068,+2068
   \              1408        
   \   000014B8   140814081408       DC16     +2068,+2068,+2068,+2068
   \              1408        
   \   000014C0   140814081408       DC16     +2068,+2068,+2068,+2068
   \              1408        
   \   000014C8   140814081408       DC16     +2068,+2068,+2068,+2068
   \              1408        
   \   000014D0   140814081408       DC16     +2068,+2068,+2068,+2068
   \              1408        
   \   000014D8   140814081408       DC16     +2068,+2068,+2068,+2068
   \              1408        
   \   000014E0   140814081408       DC16     +2068,+2068,+2068,+2068
   \              1408        
   \   000014E8   140814081408       DC16     +2068,+2068,+2068,+2068
   \              1408        
   \   000014F0   140814081408       DC16     +2068,+2068,+2068,+2068
   \              1408        
   \   000014F8   140814081408       DC16     +2068,+2068,+2068,+2068
   \              1408        
   \   00001500   140814081408       DC16     +2068,+2068,+2068,+2068
   \              1408        
   \   00001508   140814081408       DC16     +2068,+2068,+2068,+2068
   \              1408        
   \   00001510   140814081408       DC16     +2068,+2068,+2068,+2068
   \              1408        
   \   00001518   140814081408       DC16     +2068,+2068,+2068,+2068
   \              1408        
   \   00001520   140814081408       DC16     +2068,+2068,+2068,+2068
   \              1408        
   \   00001528   140814081408       DC16     +2068,+2068,+2068,+2068
   \              1408        
   \   00001530   140814081408       DC16     +2068,+2068,+2068,+2068
   \              1408        
   \   00001538   140814081408       DC16     +2068,+2068,+2068,+2068
   \              1408        
   \   00001540   140814081408       DC16     +2068,+2068,+2068,+2068
   \              1408        
   \   00001548   140814081408       DC16     +2068,+2068,+2068,+2068
   \              1408        
   \   00001550   140814081408       DC16     +2068,+2068,+2068,+2068
   \              1408        
   \   00001558   140814081408       DC16     +2068,+2068,+2068,+2068
   \              1408        
   \   00001560   140814081408       DC16     +2068,+2068,+2068,+2068
   \              1408        
   \   00001568   140814081408       DC16     +2068,+2068,+2068,+2068
   \              1408        
   \   00001570   140814081408       DC16     +2068,+2068,+2068,+2068
   \              1408        
   \   00001578   140814081408       DC16     +2068,+2068,+2068,+2068
   \              1408        
   \   00001580   140814081408       DC16     +2068,+2068,+2068,+2068
   \              1408        
   \   00001588   140814081408       DC16     +2068,+2068,+2068,+2068
   \              1408        
   \   00001590   140814081408       DC16     +2068,+2068,+2068,+2068
   \              1408        
   \   00001598   140814081408       DC16     +2068,+2068,+2068,+2068
   \              1408        
   \   000015A0   140814081408       DC16     +2068,+2068,+2068,+2068
   \              1408        
   \   000015A8   140814081408       DC16     +2068,+2068,+2068,+2068
   \              1408        
   \   000015B0   140814081408       DC16     +2068,+2068,+2068,+2068
   \              1408        
   \   000015B8   140814081408       DC16     +2068,+2068,+2068,+2068
   \              1408        
   \   000015C0   140814081408       DC16     +2068,+2068,+2068,+2068
   \              1408        
   \   000015C8   140814081408       DC16     +2068,+2068,+2068,+2068
   \              1408        
   \   000015D0   140814081408       DC16     +2068,+2068,+2068,+2068
   \              1408        
   \   000015D8   140814081408       DC16     +2068,+2068,+2068,+2068
   \              1408        
   \   000015E0   140814081408       DC16     +2068,+2068,+2068,+2068
   \              1408        
   \   000015E8   140814081408       DC16     +2068,+2068,+2068,+2068
   \              1408        
   \   000015F0   140814081408       DC16     +2068,+2068,+2068,+2068
   \              1408        
   \   000015F8   140814081408       DC16     +2068,+2068,+2068,+2068
   \              1408        
   \   00001600   140814081408       DC16     +2068,+2068,+2068,+2068
   \              1408        
   \   00001608   140814081408       DC16     +2068,+2068,+2068,+2068
   \              1408        
   \   00001610   140814081408       DC16     +2068,+2068,+2068,+2068
   \              1408        
   \   00001618   140814081408       DC16     +2068,+2068,+2068,+2068
   \              1408        
   \   00001620   140814081408       DC16     +2068,+2068,+2068,+2068
   \              1408        
   \   00001628   140814081408       DC16     +2068,+2068,+2068,+2068
   \              1408        
   \   00001630   140814081408       DC16     +2068,+2068,+2068,+2068
   \              1408        
   \   00001638   140814081408       DC16     +2068,+2068,+2068,+2068
   \              1408        
   \   00001640   140814081408       DC16     +2068,+2068,+2068,+2068
   \              1408        
   \   00001648   140814081408       DC16     +2068,+2068,+2068,+2068
   \              1408        
   \   00001650   140814081408       DC16     +2068,+2068,+2068,+2068
   \              1408        
   \   00001658   140814081408       DC16     +2068,+2068,+2068,+2068
   \              1408        
   \   00001660   140814081408       DC16     +2068,+2068,+2068,+2068
   \              1408        
   \   00001668   140814081408       DC16     +2068,+2068,+2068,+2068
   \              1408        
   \   00001670   140814081408       DC16     +2068,+2068,+2068,+2068
   \              1408        
   \   00001678   140814081408       DC16     +2068,+2068,+2068,+2068
   \              1408        
   \   00001680   140814081408       DC16     +2068,+2068,+2068,+2068
   \              1408        
   \   00001688   140814081408       DC16     +2068,+2068,+2068,+2068
   \              1408        
   \   00001690   140814081408       DC16     +2068,+2068,+2068,+2068
   \              1408        
   \   00001698   140814081408       DC16     +2068,+2068,+2068,+2068
   \              1408        
   \   000016A0   140814081408       DC16     +2068,+2068,+2068,+2068
   \              1408        
   \   000016A8   140814081408       DC16     +2068,+2068,+2068,+2068
   \              1408        
   \   000016B0   140814081408       DC16     +2068,+2068,+2068,+2068
   \              1408        
   \   000016B8   140814081408       DC16     +2068,+2068,+2068,+2068
   \              1408        
   \   000016C0   140814081408       DC16     +2068,+2068,+2068,+2068
   \              1408        
   \   000016C8   140814081408       DC16     +2068,+2068,+2068,+2068
   \              1408        
   \   000016D0   140814081408       DC16     +2068,+2068,+2068,+2068
   \              1408        
   \   000016D8   140814081408       DC16     +2068,+2068,+2068,+2068
   \              1408        
   \   000016E0   140814081408       DC16     +2068,+2068,+2068,+2068
   \              1408        
   \   000016E8   140814081408       DC16     +2068,+2068,+2068,+2068
   \              1408        
   \   000016F0   140814081408       DC16     +2068,+2068,+2068,+2068
   \              1408        
   \   000016F8   140814081408       DC16     +2068,+2068,+2068,+2068
   \              1408        
   \   00001700   140814081408       DC16     +2068,+2068,+2068,+2068
   \              1408        
   \   00001708   140814081408       DC16     +2068,+2068,+2068,+2068
   \              1408        
   \   00001710   140814081408       DC16     +2068,+2068,+2068,+2068
   \              1408        
   \   00001718   140814081408       DC16     +2068,+2068,+2068,+2068
   \              1408        
   \   00001720   140814081408       DC16     +2068,+2068,+2068,+2068
   \              1408        
   \   00001728   140814081408       DC16     +2068,+2068,+2068,+2068
   \              1408        
   \   00001730   140814081408       DC16     +2068,+2068,+2068,+2068
   \              1408        
   \   00001738   140814081408       DC16     +2068,+2068,+2068,+2068
   \              1408        
   \   00001740   140814081408       DC16     +2068,+2068,+2068,+2068
   \              1408        
   \   00001748   140814081408       DC16     +2068,+2068,+2068,+2068
   \              1408        
   \   00001750   140814081408       DC16     +2068,+2068,+2068,+2068
   \              1408        
   \   00001758   140814081408       DC16     +2068,+2068,+2068,+2068
   \              1408        
   \   00001760   140814081408       DC16     +2068,+2068,+2068,+2068
   \              1408        
   \   00001768   140814081408       DC16     +2068,+2068,+2068,+2068
   \              1408        
   \   00001770   140814081408       DC16     +2068,+2068,+2068,+2068
   \              1408        
   \   00001778   140814081408       DC16     +2068,+2068,+2068,+2068
   \              1408        
   \   00001780   140814081408       DC16     +2068,+2068,+2068,+2068
   \              1408        
   \   00001788   140814081408       DC16     +2068,+2068,+2068,+2068
   \              1408        
   \   00001790   140814081408       DC16     +2068,+2068,+2068,+2068
   \              1408        
   \   00001798   140814081408       DC16     +2068,+2068,+2068,+2068
   \              1408        
   \   000017A0   140814081408       DC16     +2068,+2068,+2068,+2068
   \              1408        
   \   000017A8   140814081408       DC16     +2068,+2068,+2068,+2068
   \              1408        
   \   000017B0   140814081408       DC16     +2068,+2068,+2068,+2068
   \              1408        
   \   000017B8   140814081408       DC16     +2068,+2068,+2068,+2068
   \              1408        
   \   000017C0   140814081408       DC16     +2068,+2068,+2068,+2068
   \              1408        
   \   000017C8   140814081408       DC16     +2068,+2068,+2068,+2068
   \              1408        
   \   000017D0   140814081408       DC16     +2068,+2068,+2068,+2068
   \              1408        
   \   000017D8   140814081408       DC16     +2068,+2068,+2068,+2068
   \              1408        
   \   000017E0   140814081408       DC16     +2068,+2068,+2068,+2068
   \              1408        
   \   000017E8   140814081408       DC16     +2068,+2068,+2068,+2068
   \              1408        
   \   000017F0   140814081408       DC16     +2068,+2068,+2068,+2068
   \              1408        
   \   000017F8   140814081408       DC16     +2068,+2068,+2068,+2068
   \              1408        
   \   00001800   140814081408       DC16     +2068,+2068,+2068,+2068
   \              1408        
   \   00001808   140814081408       DC16     +2068,+2068,+2068,+2068
   \              1408        
   \   00001810   140814081408       DC16     +2068,+2068,+2068,+2068
   \              1408        
   \   00001818   140814081408       DC16     +2068,+2068,+2068,+2068
   \              1408        
   \   00001820   140814081408       DC16     +2068,+2068,+2068,+2068
   \              1408        
   \   00001828   140814081408       DC16     +2068,+2068,+2068,+2068
   \              1408        
   \   00001830   140814081408       DC16     +2068,+2068,+2068,+2068
   \              1408        
   \   00001838   140814081408       DC16     +2068,+2068,+2068,+2068
   \              1408        
   \   00001840   140814081408       DC16     +2068,+2068,+2068,+2068
   \              1408        
   \   00001848   140814081408       DC16     +2068,+2068,+2068,+2068
   \              1408        
   \   00001850   140814081408       DC16     +2068,+2068,+2068,+2068
   \              1408        
   \   00001858   140814081408       DC16     +2068,+2068,+2068,+2068
   \              1408        
   \   00001860   140814081408       DC16     +2068,+2068,+2068,+2068
   \              1408        
   \   00001868   140814081408       DC16     +2068,+2068,+2068,+2068
   \              1408        
   \   00001870   140814081408       DC16     +2068,+2068,+2068,+2068
   \              1408        
   \   00001878   140814081408       DC16     +2068,+2068,+2068,+2068
   \              1408        
   \   00001880   140814081408       DC16     +2068,+2068,+2068,+2068
   \              1408        
   \   00001888   140814081408       DC16     +2068,+2068,+2068,+2068
   \              1408        
   \   00001890   140814081408       DC16     +2068,+2068,+2068,+2068
   \              1408        
   \   00001898   140814081408       DC16     +2068,+2068,+2068,+2068
   \              1408        
   \   000018A0   140814081408       DC16     +2068,+2068,+2068,+2068
   \              1408        
   \   000018A8   140814081408       DC16     +2068,+2068,+2068,+2068
   \              1408        
   \   000018B0   140814081408       DC16     +2068,+2068,+2068,+2068
   \              1408        
   \   000018B8   140814081408       DC16     +2068,+2068,+2068,+2068
   \              1408        
   \   000018C0   140814081408       DC16     +2068,+2068,+2068,+2068
   \              1408        
   \   000018C8   140814081408       DC16     +2068,+2068,+2068,+2068
   \              1408        
   \   000018D0   140814081408       DC16     +2068,+2068,+2068,+2068
   \              1408        
   \   000018D8   140814081408       DC16     +2068,+2068,+2068,+2068
   \              1408        
   \   000018E0   140814081408       DC16     +2068,+2068,+2068,+2068
   \              1408        
   \   000018E8   140814081408       DC16     +2068,+2068,+2068,+2068
   \              1408        
   \   000018F0   140814081408       DC16     +2068,+2068,+2068,+2068
   \              1408        
   \   000018F8   140814081408       DC16     +2068,+2068,+2068,+2068
   \              1408        
   \   00001900   140814081408       DC16     +2068,+2068,+2068,+2068
   \              1408        
   \   00001908   140814081408       DC16     +2068,+2068,+2068,+2068
   \              1408        
   \   00001910   140814081408       DC16     +2068,+2068,+2068,+2068
   \              1408        
   \   00001918   140814081408       DC16     +2068,+2068,+2068,+2068
   \              1408        
   \   00001920   140814081408       DC16     +2068,+2068,+2068,+2068
   \              1408        
   \   00001928   140814081408       DC16     +2068,+2068,+2068,+2068
   \              1408        
   \   00001930   140814081408       DC16     +2068,+2068,+2068,+2068
   \              1408        
   \   00001938   140814081408       DC16     +2068,+2068,+2068,+2068
   \              1408        
   \   00001940   140814081408       DC16     +2068,+2068,+2068,+2068
   \              1408        
   \   00001948   140814081408       DC16     +2068,+2068,+2068,+2068
   \              1408        
   \   00001950   140814081408       DC16     +2068,+2068,+2068,+2068
   \              1408        
   \   00001958   140814081408       DC16     +2068,+2068,+2068,+2068
   \              1408        
   \   00001960   140814081408       DC16     +2068,+2068,+2068,+2068
   \              1408        
   \   00001968   140814081408       DC16     +2068,+2068,+2068,+2068
   \              1408        
   \   00001970   140814081408       DC16     +2068,+2068,+2068,+2068
   \              1408        
   \   00001978   140814081408       DC16     +2068,+2068,+2068,+2068
   \              1408        
   \   00001980   140814081408       DC16     +2068,+2068,+2068,+2068
   \              1408        
   \   00001988   140814081408       DC16     +2068,+2068,+2068,+2068
   \              1408        
   \   00001990   140814081408       DC16     +2068,+2068,+2068,+2068
   \              1408        
   \   00001998   140814081408       DC16     +2068,+2068,+2068,+2068
   \              1408        
   \   000019A0   140814081408       DC16     +2068,+2068,+2068,+2068
   \              1408        
   \   000019A8   140814081408       DC16     +2068,+2068,+2068,+2068
   \              1408        
   \   000019B0   140814081408       DC16     +2068,+2068,+2068,+2068
   \              1408        
   \   000019B8   140814081408       DC16     +2068,+2068,+2068,+2068
   \              1408        
   \   000019C0   140814081408       DC16     +2068,+2068,+2068,+2068
   \              1408        
   \   000019C8   140814081408       DC16     +2068,+2068,+2068,+2068
   \              1408        
   \   000019D0   140814081408       DC16     +2068,+2068,+2068,+2068
   \              1408        
   \   000019D8   140814081408       DC16     +2068,+2068,+2068,+2068
   \              1408        
   \   000019E0   140814081408       DC16     +2068,+2068,+2068,+2068
   \              1408        
   \   000019E8   140814081408       DC16     +2068,+2068,+2068,+2068
   \              1408        
   \   000019F0   140814081408       DC16     +2068,+2068,+2068,+2068
   \              1408        
   \   000019F8   140814081408       DC16     +2068,+2068,+2068,+2068
   \              1408        
   \   00001A00   140814081408       DC16     +2068,+2068,+2068,+2068
   \              1408        
   \   00001A08   140814081408       DC16     +2068,+2068,+2068,+2068
   \              1408        
   \   00001A10   140814081408       DC16     +2068,+2068,+2068,+2068
   \              1408        
   \   00001A18   140814081408       DC16     +2068,+2068,+2068,+2068
   \              1408        
   \   00001A20   140814081408       DC16     +2068,+2068,+2068,+2068
   \              1408        
   \   00001A28   140814081408       DC16     +2068,+2068,+2068,+2068
   \              1408        
   \   00001A30   140814081408       DC16     +2068,+2068,+2068,+2068
   \              1408        
   \   00001A38   140814081408       DC16     +2068,+2068,+2068,+2068
   \              1408        
   \   00001A40   140814081408       DC16     +2068,+2068,+2068,+2068
   \              1408        
   \   00001A48   140814081408       DC16     +2068,+2068,+2068,+2068
   \              1408        
   \   00001A50   140814081408       DC16     +2068,+2068,+2068,+2068
   \              1408        
   \   00001A58   140814081408       DC16     +2068,+2068,+2068,+2068
   \              1408        
   \   00001A60   140814081408       DC16     +2068,+2068,+2068,+2068
   \              1408        
   \   00001A68   140814081408       DC16     +2068,+2068,+2068,+2068
   \              1408        
   \   00001A70   140814081408       DC16     +2068,+2068,+2068,+2068
   \              1408        
   \   00001A78   140814081408       DC16     +2068,+2068,+2068,+2068
   \              1408        
   \   00001A80   140814081408       DC16     +2068,+2068,+2068,+2068
   \              1408        
   \   00001A88   140814081408       DC16     +2068,+2068,+2068,+2068
   \              1408        
   \   00001A90   140814081408       DC16     +2068,+2068,+2068,+2068
   \              1408        
   \   00001A98   140814081408       DC16     +2068,+2068,+2068,+2068
   \              1408        
   \   00001AA0   140814081408       DC16     +2068,+2068,+2068,+2068
   \              1408        
   \   00001AA8   140814081408       DC16     +2068,+2068,+2068,+2068
   \              1408        
   \   00001AB0   140814081408       DC16     +2068,+2068,+2068,+2068
   \              1408        
   \   00001AB8   140814081408       DC16     +2068,+2068,+2068,+2068
   \              1408        
   \   00001AC0   140814081408       DC16     +2068,+2068,+2068,+2068
   \              1408        
   \   00001AC8   140814081408       DC16     +2068,+2068,+2068,+2068
   \              1408        
   \   00001AD0   140814081408       DC16     +2068,+2068,+2068,+2068
   \              1408        
   \   00001AD8   140814081408       DC16     +2068,+2068,+2068,+2068
   \              1408        
   \   00001AE0   140814081408       DC16     +2068,+2068,+2068,+2068
   \              1408        
   \   00001AE8   140814081408       DC16     +2068,+2068,+2068,+2068
   \              1408        
   \   00001AF0   140814081408       DC16     +2068,+2068,+2068,+2068
   \              1408        
   \   00001AF8   140814081408       DC16     +2068,+2068,+2068,+2068
   \              1408        
   \   00001B00   140814081408       DC16     +2068,+2068,+2068,+2068
   \              1408        
   \   00001B08   140814081408       DC16     +2068,+2068,+2068,+2068
   \              1408        
   \   00001B10   140814081408       DC16     +2068,+2068,+2068,+2068
   \              1408        
   \   00001B18   140814081408       DC16     +2068,+2068,+2068,+2068
   \              1408        
   \   00001B20   140814081408       DC16     +2068,+2068,+2068,+2068
   \              1408        
   \   00001B28   140814081408       DC16     +2068,+2068,+2068,+2068
   \              1408        
   \   00001B30   140814081408       DC16     +2068,+2068,+2068,+2068
   \              1408        
   \   00001B38   140814081408       DC16     +2068,+2068,+2068,+2068
   \              1408        
   \   00001B40   140814081408       DC16     +2068,+2068,+2068,+2068
   \              1408        
   \   00001B48   140814081408       DC16     +2068,+2068,+2068,+2068
   \              1408        
   \   00001B50   140814081408       DC16     +2068,+2068,+2068,+2068
   \              1408        
   \   00001B58   140814081408       DC16     +2068,+2068,+2068,+2068
   \              1408        
   \   00001B60   140814081408       DC16     +2068,+2068,+2068,+2068
   \              1408        
   \   00001B68   140814081408       DC16     +2068,+2068,+2068,+2068
   \              1408        
   \   00001B70   140814081408       DC16     +2068,+2068,+2068,+2068
   \              1408        
   \   00001B78   140814081408       DC16     +2068,+2068,+2068,+2068
   \              1408        
   \   00001B80   140814081408       DC16     +2068,+2068,+2068,+2068
   \              1408        
   \   00001B88   140814081408       DC16     +2068,+2068,+2068,+2068
   \              1408        
   \   00001B90   140814081408       DC16     +2068,+2068,+2068,+2068
   \              1408        
   \   00001B98   140814081408       DC16     +2068,+2068,+2068,+2068
   \              1408        
   \   00001BA0   140814081408       DC16     +2068,+2068,+2068,+2068
   \              1408        
   \   00001BA8   140814081408       DC16     +2068,+2068,+2068,+2068
   \              1408        
   \   00001BB0   140814081408       DC16     +2068,+2068,+2068,+2068
   \              1408        
   \   00001BB8   140814081408       DC16     +2068,+2068,+2068,+2068
   \              1408        
   \   00001BC0   140814081408       DC16     +2068,+2068,+2068,+2068
   \              1408        
   \   00001BC8   140814081408       DC16     +2068,+2068,+2068,+2068
   \              1408        
   \   00001BD0   140814081408       DC16     +2068,+2068,+2068,+2068
   \              1408        
   \   00001BD8   140814081408       DC16     +2068,+2068,+2068,+2068
   \              1408        
   \   00001BE0   140814081408       DC16     +2068,+2068,+2068,+2068
   \              1408        
   \   00001BE8   140814081408       DC16     +2068,+2068,+2068,+2068
   \              1408        
   \   00001BF0   140814081408       DC16     +2068,+2068,+2068,+2068
   \              1408        
   \   00001BF8   140814081408       DC16     +2068,+2068,+2068,+2068
   \              1408        
   \   00001C00   140814081408       DC16     +2068,+2068,+2068,+2068
   \              1408        
   \   00001C08   140814081408       DC16     +2068,+2068,+2068,+2068
   \              1408        
   \   00001C10   140814081408       DC16     +2068,+2068,+2068,+2068
   \              1408        
   \   00001C18   140814081408       DC16     +2068,+2068,+2068,+2068
   \              1408        
   \   00001C20   140814081408       DC16     +2068,+2068,+2068,+2068
   \              1408        
   \   00001C28   140814081408       DC16     +2068,+2068,+2068,+2068
   \              1408        
   \   00001C30   140814081408       DC16     +2068,+2068,+2068,+2068
   \              1408        
   \   00001C38   140814081408       DC16     +2068,+2068,+2068,+2068
   \              1408        
   \   00001C40   140814081408       DC16     +2068,+2068,+2068,+2068
   \              1408        
   \   00001C48   140814081408       DC16     +2068,+2068,+2068,+2068
   \              1408        
   \   00001C50   140814081408       DC16     +2068,+2068,+2068,+2068
   \              1408        
   \   00001C58   140814081408       DC16     +2068,+2068,+2068,+2068
   \              1408        
   \   00001C60   140814081408       DC16     +2068,+2068,+2068,+2068
   \              1408        
   \   00001C68   140814081408       DC16     +2068,+2068,+2068,+2068
   \              1408        
   \   00001C70   140814081408       DC16     +2068,+2068,+2068,+2068
   \              1408        
   \   00001C78   140814081408       DC16     +2068,+2068,+2068,+2068
   \              1408        
   \   00001C80   140814081408       DC16     +2068,+2068,+2068,+2068
   \              1408        
   \   00001C88   140814081408       DC16     +2068,+2068,+2068,+2068
   \              1408        
   \   00001C90   140814081408       DC16     +2068,+2068,+2068,+2068
   \              1408        
   \   00001C98   140814081408       DC16     +2068,+2068,+2068,+2068
   \              1408        
   \   00001CA0   140814081408       DC16     +2068,+2068,+2068,+2068
   \              1408        
   \   00001CA8   140814081408       DC16     +2068,+2068,+2068,+2068
   \              1408        
   \   00001CB0   140814081408       DC16     +2068,+2068,+2068,+2068
   \              1408        
   \   00001CB8   140814081408       DC16     +2068,+2068,+2068,+2068
   \              1408        
   \   00001CC0   140814081408       DC16     +2068,+2068,+2068,+2068
   \              1408        
   \   00001CC8   140814081408       DC16     +2068,+2068,+2068,+2068
   \              1408        
   \   00001CD0   140814081408       DC16     +2068,+2068,+2068,+2068
   \              1408        
   \   00001CD8   140814081408       DC16     +2068,+2068,+2068,+2068
   \              1408        
   \   00001CE0   140814081408       DC16     +2068,+2068,+2068,+2068
   \              1408        
   \   00001CE8   140814081408       DC16     +2068,+2068,+2068,+2068
   \              1408        
   \   00001CF0   140814081408       DC16     +2068,+2068,+2068,+2068
   \              1408        
   \   00001CF8   140814081408       DC16     +2068,+2068,+2068,+2068
   \              1408        
   \   00001D00   140814081408       DC16     +2068,+2068,+2068,+2068
   \              1408        
   \   00001D08   140814081408       DC16     +2068,+2068,+2068,+2068
   \              1408        
   \   00001D10   140814081408       DC16     +2068,+2068,+2068,+2068
   \              1408        
   \   00001D18   140814081408       DC16     +2068,+2068,+2068,+2068
   \              1408        
   \   00001D20   140814081408       DC16     +2068,+2068,+2068,+2068
   \              1408        
   \   00001D28   140814081408       DC16     +2068,+2068,+2068,+2068
   \              1408        
   \   00001D30   140814081408       DC16     +2068,+2068,+2068,+2068
   \              1408        
   \   00001D38   140814081408       DC16     +2068,+2068,+2068,+2068
   \              1408        
   \   00001D40   140814081408       DC16     +2068,+2068,+2068,+2068
   \              1408        
   \   00001D48   140814081408       DC16     +2068,+2068,+2068,+2068
   \              1408        
   \   00001D50   140814081408       DC16     +2068,+2068,+2068,+2068
   \              1408        
   \   00001D58   140814081408       DC16     +2068,+2068,+2068,+2068
   \              1408        
   \   00001D60   140814081408       DC16     +2068,+2068,+2068,+2068
   \              1408        
   \   00001D68   140814081408       DC16     +2068,+2068,+2068,+2068
   \              1408        
   \   00001D70   140814081408       DC16     +2068,+2068,+2068,+2068
   \              1408        
   \   00001D78   140814081408       DC16     +2068,+2068,+2068,+2068
   \              1408        
   \   00001D80   140814081408       DC16     +2068,+2068,+2068,+2068
   \              1408        
   \   00001D88   140814081408       DC16     +2068,+2068,+2068,+2068
   \              1408        
   \   00001D90   140814081408       DC16     +2068,+2068,+2068,+2068
   \              1408        
   \   00001D98   140814081408       DC16     +2068,+2068,+2068,+2068
   \              1408        
   \   00001DA0   140814081408       DC16     +2068,+2068,+2068,+2068
   \              1408        
   \   00001DA8   140814081408       DC16     +2068,+2068,+2068,+2068
   \              1408        
   \   00001DB0   140814081408       DC16     +2068,+2068,+2068,+2068
   \              1408        
   \   00001DB8   140814081408       DC16     +2068,+2068,+2068,+2068
   \              1408        
   \   00001DC0   140814081408       DC16     +2068,+2068,+2068,+2068
   \              1408        
   \   00001DC8   140814081408       DC16     +2068,+2068,+2068,+2068
   \              1408        
   \   00001DD0   140814081408       DC16     +2068,+2068,+2068,+2068
   \              1408        
   \   00001DD8   140814081408       DC16     +2068,+2068,+2068,+2068
   \              1408        
   \   00001DE0   140814081408       DC16     +2068,+2068,+2068,+2068
   \              1408        
   \   00001DE8   140814081408       DC16     +2068,+2068,+2068,+2068
   \              1408        
   \   00001DF0   140814081408       DC16     +2068,+2068,+2068,+2068
   \              1408        
   \   00001DF8   140814081408       DC16     +2068,+2068,+2068,+2068
   \              1408        
   \   00001E00   140814081408       DC16     +2068,+2068,+2068,+2068
   \              1408        
   \   00001E08   140814081408       DC16     +2068,+2068,+2068,+2068
   \              1408        
   \   00001E10   140814081408       DC16     +2068,+2068,+2068,+2068
   \              1408        
   \   00001E18   140814081408       DC16     +2068,+2068,+2068,+2068
   \              1408        
   \   00001E20   140814081408       DC16     +2068,+2068,+2068,+2068
   \              1408        
   \   00001E28   140814081408       DC16     +2068,+2068,+2068,+2068
   \              1408        
   \   00001E30   140814081408       DC16     +2068,+2068,+2068,+2068
   \              1408        
   \   00001E38   140814081408       DC16     +2068,+2068,+2068,+2068
   \              1408        
   \   00001E40   140814081408       DC16     +2068,+2068,+2068,+2068
   \              1408        
   \   00001E48   140814081408       DC16     +2068,+2068,+2068,+2068
   \              1408        
   \   00001E50   140814081408       DC16     +2068,+2068,+2068,+2068
   \              1408        
   \   00001E58   140814081408       DC16     +2068,+2068,+2068,+2068
   \              1408        
   \   00001E60   140814081408       DC16     +2068,+2068,+2068,+2068
   \              1408        
   \   00001E68   140814081408       DC16     +2068,+2068,+2068,+2068
   \              1408        
   \   00001E70   140814081408       DC16     +2068,+2068,+2068,+2068
   \              1408        
   \   00001E78   140814081408       DC16     +2068,+2068,+2068,+2068
   \              1408        
   \   00001E80   140814081408       DC16     +2068,+2068,+2068,+2068
   \              1408        
   \   00001E88   140814081408       DC16     +2068,+2068,+2068,+2068
   \              1408        
   \   00001E90   140814081408       DC16     +2068,+2068,+2068,+2068
   \              1408        
   \   00001E98   140814081408       DC16     +2068,+2068,+2068,+2068
   \              1408        
   \   00001EA0   140814081408       DC16     +2068,+2068,+2068,+2068
   \              1408        
   \   00001EA8   140814081408       DC16     +2068,+2068,+2068,+2068
   \              1408        
   \   00001EB0   140814081408       DC16     +2068,+2068,+2068,+2068
   \              1408        
   \   00001EB8   140814081408       DC16     +2068,+2068,+2068,+2068
   \              1408        
   \   00001EC0   140814081408       DC16     +2068,+2068,+2068,+2068
   \              1408        
   \   00001EC8   140814081408       DC16     +2068,+2068,+2068,+2068
   \              1408        
   \   00001ED0   140814081408       DC16     +2068,+2068,+2068,+2068
   \              1408        
   \   00001ED8   140814081408       DC16     +2068,+2068,+2068,+2068
   \              1408        
   \   00001EE0   140814081408       DC16     +2068,+2068,+2068,+2068
   \              1408        
   \   00001EE8   140814081408       DC16     +2068,+2068,+2068,+2068
   \              1408        
   \   00001EF0   140814081408       DC16     +2068,+2068,+2068,+2068
   \              1408        
   \   00001EF8   140814081408       DC16     +2068,+2068,+2068,+2068
   \              1408        
   \   00001F00   140814081408       DC16     +2068,+2068,+2068,+2068
   \              1408        
   \   00001F08   140814081408       DC16     +2068,+2068,+2068,+2068
   \              1408        
   \   00001F10   140814081408       DC16     +2068,+2068,+2068,+2068
   \              1408        
   \   00001F18   140814081408       DC16     +2068,+2068,+2068,+2068
   \              1408        
   \   00001F20   140814081408       DC16     +2068,+2068,+2068,+2068
   \              1408        
   \   00001F28   140814081408       DC16     +2068,+2068,+2068,+2068
   \              1408        
   \   00001F30   140814081408       DC16     +2068,+2068,+2068,+2068
   \              1408        
   \   00001F38   140814081408       DC16     +2068,+2068,+2068,+2068
   \              1408        
   \   00001F40   140814081408       DC16     +2068,+2068,+2068,+2068
   \              1408        
   \   00001F48   140814081408       DC16     +2068,+2068,+2068,+2068
   \              1408        
   \   00001F50   140814081408       DC16     +2068,+2068,+2068,+2068
   \              1408        
   \   00001F58   140814081408       DC16     +2068,+2068,+2068,+2068
   \              1408        
   \   00001F60   140814081408       DC16     +2068,+2068,+2068,+2068
   \              1408        
   \   00001F68   140814081408       DC16     +2068,+2068,+2068,+2068
   \              1408        
   \   00001F70   140814081408       DC16     +2068,+2068,+2068,+2068
   \              1408        
   \   00001F78   140814081408       DC16     +2068,+2068,+2068,+2068
   \              1408        
   \   00001F80   140814081408       DC16     +2068,+2068,+2068,+2068
   \              1408        
   \   00001F88   140814081408       DC16     +2068,+2068,+2068,+2068
   \              1408        
   \   00001F90   140814081408       DC16     +2068,+2068,+2068,+2068
   \              1408        
   \   00001F98   140814081408       DC16     +2068,+2068,+2068,+2068
   \              1408        
   \   00001FA0   140814081408       DC16     +2068,+2068,+2068,+2068
   \              1408        
   \   00001FA8   140814081408       DC16     +2068,+2068,+2068,+2068
   \              1408        
   \   00001FB0   140814081408       DC16     +2068,+2068,+2068,+2068
   \              1408        
   \   00001FB8   140814081408       DC16     +2068,+2068,+2068,+2068
   \              1408        
   \   00001FC0   140814081408       DC16     +2068,+2068,+2068,+2068
   \              1408        
   \   00001FC8   140814081408       DC16     +2068,+2068,+2068,+2068
   \              1408        
   \   00001FD0   140814081408       DC16     +2068,+2068,+2068,+2068
   \              1408        
   \   00001FD8   140814081408       DC16     +2068,+2068,+2068,+2068
   \              1408        
   \   00001FE0   140814081408       DC16     +2068,+2068,+2068,+2068
   \              1408        
   \   00001FE8   140814081408       DC16     +2068,+2068,+2068,+2068
   \              1408        
   \   00001FF0   140814081408       DC16     +2068,+2068,+2068,+2068
   \              1408        
   \   00001FF8   140814081408       DC16     +2068,+2068,+2068,+2068
   \              1408        
   \   00002000   140814081408       DC16     +2068,+2068,+2068,+2068
   \              1408        
   \   00002008   140814081408       DC16     +2068,+2068,+2068,+2068
   \              1408        
   \   00002010   140814081408       DC16     +2068,+2068,+2068,+2068
   \              1408        
   \   00002018   140814081408       DC16     +2068,+2068,+2068,+2068
   \              1408        
   \   00002020   140814081408       DC16     +2068,+2068,+2068,+2068
   \              1408        
   \   00002028   140814081408       DC16     +2068,+2068,+2068,+2068
   \              1408        
   \   00002030   140814081408       DC16     +2068,+2068,+2068,+2068
   \              1408        
   \   00002038   140814081408       DC16     +2068,+2068,+2068,+2068
   \              1408        
   \   00002040   140814081408       DC16     +2068,+2068,+2068,+2068
   \              1408        
   \   00002048   140814081408       DC16     +2068,+2068,+2068,+2068
   \              1408        
   \   00002050   140814081408       DC16     +2068,+2068,+2068,+2068
   \              1408        
   \   00002058   140814081408       DC16     +2068,+2068,+2068,+2068
   \              1408        
   \   00002060   140814081408       DC16     +2068,+2068,+2068,+2068
   \              1408        
   \   00002068   140814081408       DC16     +2068,+2068,+2068,+2068
   \              1408        
   \   00002070   140814081408       DC16     +2068,+2068,+2068,+2068
   \              1408        
   \   00002078   140814081408       DC16     +2068,+2068,+2068,+2068
   \              1408        
   \   00002080   140814081408       DC16     +2068,+2068,+2068,+2068
   \              1408        
   \   00002088   140814081408       DC16     +2068,+2068,+2068,+2068
   \              1408        
   \   00002090   140814081408       DC16     +2068,+2068,+2068,+2068
   \              1408        
   \   00002098   140814081408       DC16     +2068,+2068,+2068,+2068
   \              1408        
   \   000020A0   140814080308       DC16     +2068,+2068,+2051,+2068
   \              1408        
   \   000020A8   140814080808       DC16     +2068,+2068,+2056,+0
   \              0000        
   1890          
   1891              case SO_BROADCAST:
   1892              /* UNIMPL case SO_DEBUG: */
   1893              /* UNIMPL case SO_DONTROUTE: */
   1894              case SO_KEEPALIVE:
   1895              /* UNIMPL case case SO_CONTIMEO: */
   1896          #if LWIP_SO_SNDTIMEO
   1897              case SO_SNDTIMEO:
   1898          #endif /* LWIP_SO_SNDTIMEO */
   1899          #if LWIP_SO_RCVTIMEO
   1900              case SO_RCVTIMEO:
   1901          #endif /* LWIP_SO_RCVTIMEO */
   1902          #if LWIP_SO_RCVBUF
   1903              case SO_RCVBUF:
   1904          #endif /* LWIP_SO_RCVBUF */
   1905              /* UNIMPL case SO_OOBINLINE: */
   1906              /* UNIMPL case SO_SNDBUF: */
   1907              /* UNIMPL case SO_RCVLOWAT: */
   1908              /* UNIMPL case SO_SNDLOWAT: */
   1909          #if SO_REUSE
   1910              case SO_REUSEADDR:
   1911              case SO_REUSEPORT:
   1912          #endif /* SO_REUSE */
   1913              /* UNIMPL case SO_USELOOPBACK: */
   1914                if (optlen < sizeof(int)) {
   \                     ??lwip_setsockopt_7:
   \   000020B0   2C109DE5           LDR      R1,[SP, #+44]
   \   000020B4   040051E3           CMP      R1,#+4
   \   000020B8   2100002A           BCS      ??lwip_setsockopt_8
   1915                  err = EINVAL;
   \   000020BC   1610A0E3           MOV      R1,#+22
   \   000020C0   1D0000EA           B        ??lwip_setsockopt_9
   1916                }
   1917                break;
   1918              case SO_NO_CHECK:
   1919                if (optlen < sizeof(int)) {
   \                     ??lwip_setsockopt_10:
   \   000020C4   2C309DE5           LDR      R3,[SP, #+44]
   \   000020C8   040053E3           CMP      R3,#+4
   1920                  err = EINVAL;
   1921                }
   1922          #if LWIP_UDP
   1923                if ((sock->conn->type != NETCONN_UDP) ||
   1924                    ((udp_flags(sock->conn->pcb.udp) & UDP_FLAGS_UDPLITE) != 0)) {
   \   000020CC   0030D2E5           LDRB     R3,[R2, #+0]
   \   000020D0   1610A033           MOVCC    R1,#+22
   \   000020D4   200053E3           CMP      R3,#+32
   \   000020D8   0300001A           BNE      ??lwip_setsockopt_11
   \   000020DC   042092E5           LDR      R2,[R2, #+4]
   \   000020E0   1020D2E5           LDRB     R2,[R2, #+16]
   \   000020E4   020012E3           TST      R2,#0x2
   \   000020E8   1100000A           BEQ      ??lwip_setsockopt_12
   1925                  /* this flag is only available for UDP, not for UDP lite */
   1926                  err = EAFNOSUPPORT;
   \                     ??lwip_setsockopt_11:
   \   000020EC   6110A0E3           MOV      R1,#+97
   \   000020F0   110000EA           B        ??lwip_setsockopt_9
   1927                }
   1928          #endif /* LWIP_UDP */
   1929                break;
   1930              default:
   1931                LWIP_DEBUGF(SOCKETS_DEBUG, ("lwip_setsockopt(%d, SOL_SOCKET, UNIMPL: optname=0x%x, ..)\n",
   1932                            s, optname));
   1933                err = ENOPROTOOPT;
   \                     ??lwip_setsockopt_6:
   \   000020F4   5C10A0E3           MOV      R1,#+92
   \   000020F8   0F0000EA           B        ??lwip_setsockopt_9
   1934              }  /* switch (optname) */
   1935              break;
   1936          
   1937          /* Level: IPPROTO_IP */
   1938            case IPPROTO_IP:
   1939              switch (optname) {
   \                     ??lwip_setsockopt_4:
   \   000020FC   011046E2           SUB      R1,R6,#+1
   \   00002100   010051E3           CMP      R1,#+1
   \   00002104   FAFFFF8A           BHI      ??lwip_setsockopt_6
   1940              /* UNIMPL case IP_HDRINCL: */
   1941              /* UNIMPL case IP_RCVDSTADDR: */
   1942              /* UNIMPL case IP_RCVIF: */
   1943              case IP_TTL:
   1944              case IP_TOS:
   1945                if (optlen < sizeof(int)) {
   \   00002108   E8FFFFEA           B        ??lwip_setsockopt_7
   1946                  err = EINVAL;
   1947                }
   1948                break;
   1949          #if LWIP_IGMP
   1950              case IP_MULTICAST_TTL:
   1951                if (optlen < sizeof(u8_t)) {
   1952                  err = EINVAL;
   1953                }
   1954                if (NETCONNTYPE_GROUP(sock->conn->type) != NETCONN_UDP) {
   1955                  err = EAFNOSUPPORT;
   1956                }
   1957                break;
   1958              case IP_MULTICAST_IF:
   1959                if (optlen < sizeof(struct in_addr)) {
   1960                  err = EINVAL;
   1961                }
   1962                if (NETCONNTYPE_GROUP(sock->conn->type) != NETCONN_UDP) {
   1963                  err = EAFNOSUPPORT;
   1964                }
   1965                break;
   1966              case IP_MULTICAST_LOOP:
   1967                if (optlen < sizeof(u8_t)) {
   1968                  err = EINVAL;
   1969                }
   1970                if (NETCONNTYPE_GROUP(sock->conn->type) != NETCONN_UDP) {
   1971                  err = EAFNOSUPPORT;
   1972                }
   1973                break;
   1974              case IP_ADD_MEMBERSHIP:
   1975              case IP_DROP_MEMBERSHIP:
   1976                if (optlen < sizeof(struct ip_mreq)) {
   1977                  err = EINVAL;
   1978                }
   1979                if (NETCONNTYPE_GROUP(sock->conn->type) != NETCONN_UDP) {
   1980                  err = EAFNOSUPPORT;
   1981                }
   1982                break;
   1983          #endif /* LWIP_IGMP */
   1984                default:
   1985                  LWIP_DEBUGF(SOCKETS_DEBUG, ("lwip_setsockopt(%d, IPPROTO_IP, UNIMPL: optname=0x%x, ..)\n",
   1986                              s, optname));
   1987                  err = ENOPROTOOPT;
   1988              }  /* switch (optname) */
   1989              break;
   1990          
   1991          #if LWIP_TCP
   1992          /* Level: IPPROTO_TCP */
   1993            case IPPROTO_TCP:
   1994              if (optlen < sizeof(int)) {
   \                     ??lwip_setsockopt_5:
   \   0000210C   2C309DE5           LDR      R3,[SP, #+44]
   \   00002110   040053E3           CMP      R3,#+4
   1995                err = EINVAL;
   \   00002114   1610A033           MOVCC    R1,#+22
   1996                break;
   \   00002118   0700003A           BCC      ??lwip_setsockopt_9
   1997              }
   1998          
   1999              /* If this is no TCP socket, ignore any options. */
   2000              if (sock->conn->type != NETCONN_TCP)
   \   0000211C   0020D2E5           LDRB     R2,[R2, #+0]
   \   00002120   100052E3           CMP      R2,#+16
   \   00002124   1A00001A           BNE      ??lwip_setsockopt_13
   2001                return 0;
   2002          
   2003              switch (optname) {
   \   00002128   012046E2           SUB      R2,R6,#+1
   \   0000212C   040052E3           CMP      R2,#+4
   \   00002130   EFFFFF8A           BHI      ??lwip_setsockopt_6
   2004              case TCP_NODELAY:
   2005              case TCP_KEEPALIVE:
   2006          #if LWIP_TCP_KEEPALIVE
   2007              case TCP_KEEPIDLE:
   2008              case TCP_KEEPINTVL:
   2009              case TCP_KEEPCNT:
   2010          #endif /* LWIP_TCP_KEEPALIVE */
   2011                break;
   2012          
   2013              default:
   2014                LWIP_DEBUGF(SOCKETS_DEBUG, ("lwip_setsockopt(%d, IPPROTO_TCP, UNIMPL: optname=0x%x, ..)\n",
   2015                            s, optname));
   2016                err = ENOPROTOOPT;
   2017              }  /* switch (optname) */
   2018              break;
   2019          #endif /* LWIP_TCP */
   2020          #if LWIP_UDP && LWIP_UDPLITE
   2021          /* Level: IPPROTO_UDPLITE */
   2022            case IPPROTO_UDPLITE:
   2023              if (optlen < sizeof(int)) {
   2024                err = EINVAL;
   2025                break;
   2026              }
   2027          
   2028              /* If this is no UDP lite socket, ignore any options. */
   2029              if (sock->conn->type != NETCONN_UDPLITE)
   2030                return 0;
   2031          
   2032              switch (optname) {
   2033              case UDPLITE_SEND_CSCOV:
   2034              case UDPLITE_RECV_CSCOV:
   2035                break;
   2036          
   2037              default:
   2038                LWIP_DEBUGF(SOCKETS_DEBUG, ("lwip_setsockopt(%d, IPPROTO_UDPLITE, UNIMPL: optname=0x%x, ..)\n",
   2039                            s, optname));
   2040                err = ENOPROTOOPT;
   2041              }  /* switch (optname) */
   2042              break;
   2043          #endif /* LWIP_UDP && LWIP_UDPLITE */
   2044          /* UNDEFINED LEVEL */
   2045            default:
   2046              LWIP_DEBUGF(SOCKETS_DEBUG, ("lwip_setsockopt(%d, level=0x%x, UNIMPL: optname=0x%x, ..)\n",
   2047                          s, level, optname));
   2048              err = ENOPROTOOPT;
   2049            }  /* switch (level) */
   2050          
   2051          
   2052            if (err != ERR_OK) {
   \                     ??lwip_setsockopt_12:
   \   00002134   000051E3           CMP      R1,#+0
   \   00002138   0100000A           BEQ      ??lwip_setsockopt_8
   2053              sock_set_errno(sock, err);
   \                     ??lwip_setsockopt_9:
   \   0000213C   101084E5           STR      R1,[R4, #+16]
   2054              return -1;
   \   00002140   B9F7FFEA           B        ??lwip_setsockopt_2
   2055            }
   2056          
   2057          
   2058            /* Now do the actual option processing */
   2059            data.sock = sock;
   \                     ??lwip_setsockopt_8:
   \   00002144   00408DE5           STR      R4,[SP, #+0]
   2060          #ifdef LWIP_DEBUG
   2061            data.s = s;
   2062          #endif /* LWIP_DEBUG */
   2063            data.level = level;
   \   00002148   04508DE5           STR      R5,[SP, #+4]
   2064            data.optname = optname;
   \   0000214C   08608DE5           STR      R6,[SP, #+8]
   2065            data.optval = (void*)optval;
   \   00002150   0C708DE5           STR      R7,[SP, #+12]
   2066            data.optlen = &optlen;
   \   00002154   2C208DE2           ADD      R2,SP,#+44
   \   00002158   10208DE5           STR      R2,[SP, #+16]
   2067            data.err = err;
   \   0000215C   1400CDE5           STRB     R0,[SP, #+20]
   2068            tcpip_callback(lwip_setsockopt_internal, &data);
   \   00002160   38009FE5           LDR      R0,??lwip_setsockopt_14  ;; lwip_setsockopt_internal
   \   00002164   0120A0E3           MOV      R2,#+1
   \   00002168   0D10A0E1           MOV      R1,SP
   \   0000216C   ........           _BLF     tcpip_callback_with_block,??tcpip_callback_with_block??rA
   2069            sys_arch_sem_wait(&sock->conn->op_completed, 0);
   \   00002170   000094E5           LDR      R0,[R4, #+0]
   \   00002174   0010A0E3           MOV      R1,#+0
   \   00002178   0C0080E2           ADD      R0,R0,#+12
   \   0000217C   ........           _BLF     sys_arch_sem_wait,??sys_arch_sem_wait??rA
   2070            /* maybe lwip_setsockopt_internal has changed err */
   2071            err = data.err;
   \   00002180   D401DDE1           LDRSB    R0,[SP, #+20]
   2072          
   2073            sock_set_errno(sock, err);
   \   00002184   000050E3           CMP      R0,#+0
   \   00002188   100084E5           STR      R0,[R4, #+16]
   2074            return err ? -1 : 0;
   \   0000218C   0000E013           MVNNE    R0,#+0
   \   00002190   0000A003           MOVEQ    R0,#+0
   \                     ??lwip_setsockopt_13:
   \   00002194   18D08DE2           ADD      SP,SP,#+24
   \   00002198   F040BDE8           POP      {R4-R7,LR}
   \   0000219C   1EFF2FE1           BX       LR               ;; return
   \                     ??lwip_setsockopt_14:
   \   000021A0   ........           DC32     lwip_setsockopt_internal
   2075          }
   2076          

   \                                 In segment CODE, align 4, keep-with-next
   2077          static void
   2078          lwip_setsockopt_internal(void *arg)
   2079          {
   \                     lwip_setsockopt_internal:
   \   00000000   10402DE9           PUSH     {R4,LR}
   2080            struct lwip_sock *sock;
   2081          #ifdef LWIP_DEBUG
   2082            int s;
   2083          #endif /* LWIP_DEBUG */
   2084            int level, optname;
   2085            const void *optval;
   2086            struct lwip_setgetsockopt_data *data;
   2087          
   2088            LWIP_ASSERT("arg != NULL", arg != NULL);
   2089          
   2090            data = (struct lwip_setgetsockopt_data*)arg;
   2091            sock = data->sock;
   \   00000004   001090E5           LDR      R1,[R0, #+0]
   2092          #ifdef LWIP_DEBUG
   2093            s = data->s;
   2094          #endif /* LWIP_DEBUG */
   2095            level = data->level;
   2096            optname = data->optname;
   \   00000008   082090E5           LDR      R2,[R0, #+8]
   2097            optval = data->optval;
   \   0000000C   0C3090E5           LDR      R3,[R0, #+12]
   2098          
   2099            switch (level) {
   \   00000010   040090E5           LDR      R0,[R0, #+4]
   \   00000014   000050E3           CMP      R0,#+0
   \   00000018   2B08000A           BEQ      ??lwip_setsockopt_internal_2
   \   0000001C   060050E3           CMP      R0,#+6
   \   00000020   3608000A           BEQ      ??lwip_setsockopt_internal_3
   \   00000024   FFC0A0E3           MOV      R12,#+255
   \   00000028   F0CE8CE3           ORR      R12,R12,#0xF00
   \   0000002C   0C0050E1           CMP      R0,R12
   \   00000030   5A08001A           BNE      ??lwip_setsockopt_internal_4
   2100          
   2101          /* Level: SOL_SOCKET */
   2102            case SOL_SOCKET:
   2103              switch (optname) {
   \   00000034   000091E5           LDR      R0,[R1, #+0]
   \   00000038   04C042E2           SUB      R12,R2,#+4
   \   0000003C   0640A0E3           MOV      R4,#+6
   \   00000040   404D84E3           ORR      R4,R4,#0x1000
   \   00000044   04005CE1           CMP      R12,R4
   \   00000048   5408008A           BHI      ??lwip_setsockopt_internal_4
   \   0000004C   024F8FE2           ADR      R4,??lwip_setsockopt_internal_0
   \   00000050   8CC0A0E1           MOV      R12,R12, LSL #+1
   \   00000054   BC4094E1           LDRH     R4,[R4, R12]
   \   00000058   04F18FE0           ADD      PC,PC,R4, LSL #+2
   \                     ??lwip_setsockopt_internal_0:
   \   0000005C   030850085008       DC16     +2051,+2128,+2128,+2128
   \              5008        
   \   00000064   030850085008       DC16     +2051,+2128,+2128,+2128
   \              5008        
   \   0000006C   500850085008       DC16     +2128,+2128,+2128,+2128
   \              5008        
   \   00000074   500850085008       DC16     +2128,+2128,+2128,+2128
   \              5008        
   \   0000007C   500850085008       DC16     +2128,+2128,+2128,+2128
   \              5008        
   \   00000084   500850085008       DC16     +2128,+2128,+2128,+2128
   \              5008        
   \   0000008C   500850085008       DC16     +2128,+2128,+2128,+2128
   \              5008        
   \   00000094   030850085008       DC16     +2051,+2128,+2128,+2128
   \              5008        
   \   0000009C   500850085008       DC16     +2128,+2128,+2128,+2128
   \              5008        
   \   000000A4   500850085008       DC16     +2128,+2128,+2128,+2128
   \              5008        
   \   000000AC   500850085008       DC16     +2128,+2128,+2128,+2128
   \              5008        
   \   000000B4   500850085008       DC16     +2128,+2128,+2128,+2128
   \              5008        
   \   000000BC   500850085008       DC16     +2128,+2128,+2128,+2128
   \              5008        
   \   000000C4   500850085008       DC16     +2128,+2128,+2128,+2128
   \              5008        
   \   000000CC   500850085008       DC16     +2128,+2128,+2128,+2128
   \              5008        
   \   000000D4   500850085008       DC16     +2128,+2128,+2128,+2128
   \              5008        
   \   000000DC   500850085008       DC16     +2128,+2128,+2128,+2128
   \              5008        
   \   000000E4   500850085008       DC16     +2128,+2128,+2128,+2128
   \              5008        
   \   000000EC   500850085008       DC16     +2128,+2128,+2128,+2128
   \              5008        
   \   000000F4   500850085008       DC16     +2128,+2128,+2128,+2128
   \              5008        
   \   000000FC   500850085008       DC16     +2128,+2128,+2128,+2128
   \              5008        
   \   00000104   500850085008       DC16     +2128,+2128,+2128,+2128
   \              5008        
   \   0000010C   500850085008       DC16     +2128,+2128,+2128,+2128
   \              5008        
   \   00000114   500850085008       DC16     +2128,+2128,+2128,+2128
   \              5008        
   \   0000011C   500850085008       DC16     +2128,+2128,+2128,+2128
   \              5008        
   \   00000124   500850085008       DC16     +2128,+2128,+2128,+2128
   \              5008        
   \   0000012C   500850085008       DC16     +2128,+2128,+2128,+2128
   \              5008        
   \   00000134   500850085008       DC16     +2128,+2128,+2128,+2128
   \              5008        
   \   0000013C   500850085008       DC16     +2128,+2128,+2128,+2128
   \              5008        
   \   00000144   500850085008       DC16     +2128,+2128,+2128,+2128
   \              5008        
   \   0000014C   500850085008       DC16     +2128,+2128,+2128,+2128
   \              5008        
   \   00000154   500850085008       DC16     +2128,+2128,+2128,+2128
   \              5008        
   \   0000015C   500850085008       DC16     +2128,+2128,+2128,+2128
   \              5008        
   \   00000164   500850085008       DC16     +2128,+2128,+2128,+2128
   \              5008        
   \   0000016C   500850085008       DC16     +2128,+2128,+2128,+2128
   \              5008        
   \   00000174   500850085008       DC16     +2128,+2128,+2128,+2128
   \              5008        
   \   0000017C   500850085008       DC16     +2128,+2128,+2128,+2128
   \              5008        
   \   00000184   500850085008       DC16     +2128,+2128,+2128,+2128
   \              5008        
   \   0000018C   500850085008       DC16     +2128,+2128,+2128,+2128
   \              5008        
   \   00000194   500850085008       DC16     +2128,+2128,+2128,+2128
   \              5008        
   \   0000019C   500850085008       DC16     +2128,+2128,+2128,+2128
   \              5008        
   \   000001A4   500850085008       DC16     +2128,+2128,+2128,+2128
   \              5008        
   \   000001AC   500850085008       DC16     +2128,+2128,+2128,+2128
   \              5008        
   \   000001B4   500850085008       DC16     +2128,+2128,+2128,+2128
   \              5008        
   \   000001BC   500850085008       DC16     +2128,+2128,+2128,+2128
   \              5008        
   \   000001C4   500850085008       DC16     +2128,+2128,+2128,+2128
   \              5008        
   \   000001CC   500850085008       DC16     +2128,+2128,+2128,+2128
   \              5008        
   \   000001D4   500850085008       DC16     +2128,+2128,+2128,+2128
   \              5008        
   \   000001DC   500850085008       DC16     +2128,+2128,+2128,+2128
   \              5008        
   \   000001E4   500850085008       DC16     +2128,+2128,+2128,+2128
   \              5008        
   \   000001EC   500850085008       DC16     +2128,+2128,+2128,+2128
   \              5008        
   \   000001F4   500850085008       DC16     +2128,+2128,+2128,+2128
   \              5008        
   \   000001FC   500850085008       DC16     +2128,+2128,+2128,+2128
   \              5008        
   \   00000204   500850085008       DC16     +2128,+2128,+2128,+2128
   \              5008        
   \   0000020C   500850085008       DC16     +2128,+2128,+2128,+2128
   \              5008        
   \   00000214   500850085008       DC16     +2128,+2128,+2128,+2128
   \              5008        
   \   0000021C   500850085008       DC16     +2128,+2128,+2128,+2128
   \              5008        
   \   00000224   500850085008       DC16     +2128,+2128,+2128,+2128
   \              5008        
   \   0000022C   500850085008       DC16     +2128,+2128,+2128,+2128
   \              5008        
   \   00000234   500850085008       DC16     +2128,+2128,+2128,+2128
   \              5008        
   \   0000023C   500850085008       DC16     +2128,+2128,+2128,+2128
   \              5008        
   \   00000244   500850085008       DC16     +2128,+2128,+2128,+2128
   \              5008        
   \   0000024C   500850085008       DC16     +2128,+2128,+2128,+2128
   \              5008        
   \   00000254   500850085008       DC16     +2128,+2128,+2128,+2128
   \              5008        
   \   0000025C   500850085008       DC16     +2128,+2128,+2128,+2128
   \              5008        
   \   00000264   500850085008       DC16     +2128,+2128,+2128,+2128
   \              5008        
   \   0000026C   500850085008       DC16     +2128,+2128,+2128,+2128
   \              5008        
   \   00000274   500850085008       DC16     +2128,+2128,+2128,+2128
   \              5008        
   \   0000027C   500850085008       DC16     +2128,+2128,+2128,+2128
   \              5008        
   \   00000284   500850085008       DC16     +2128,+2128,+2128,+2128
   \              5008        
   \   0000028C   500850085008       DC16     +2128,+2128,+2128,+2128
   \              5008        
   \   00000294   500850085008       DC16     +2128,+2128,+2128,+2128
   \              5008        
   \   0000029C   500850085008       DC16     +2128,+2128,+2128,+2128
   \              5008        
   \   000002A4   500850085008       DC16     +2128,+2128,+2128,+2128
   \              5008        
   \   000002AC   500850085008       DC16     +2128,+2128,+2128,+2128
   \              5008        
   \   000002B4   500850085008       DC16     +2128,+2128,+2128,+2128
   \              5008        
   \   000002BC   500850085008       DC16     +2128,+2128,+2128,+2128
   \              5008        
   \   000002C4   500850085008       DC16     +2128,+2128,+2128,+2128
   \              5008        
   \   000002CC   500850085008       DC16     +2128,+2128,+2128,+2128
   \              5008        
   \   000002D4   500850085008       DC16     +2128,+2128,+2128,+2128
   \              5008        
   \   000002DC   500850085008       DC16     +2128,+2128,+2128,+2128
   \              5008        
   \   000002E4   500850085008       DC16     +2128,+2128,+2128,+2128
   \              5008        
   \   000002EC   500850085008       DC16     +2128,+2128,+2128,+2128
   \              5008        
   \   000002F4   500850085008       DC16     +2128,+2128,+2128,+2128
   \              5008        
   \   000002FC   500850085008       DC16     +2128,+2128,+2128,+2128
   \              5008        
   \   00000304   500850085008       DC16     +2128,+2128,+2128,+2128
   \              5008        
   \   0000030C   500850085008       DC16     +2128,+2128,+2128,+2128
   \              5008        
   \   00000314   500850085008       DC16     +2128,+2128,+2128,+2128
   \              5008        
   \   0000031C   500850085008       DC16     +2128,+2128,+2128,+2128
   \              5008        
   \   00000324   500850085008       DC16     +2128,+2128,+2128,+2128
   \              5008        
   \   0000032C   500850085008       DC16     +2128,+2128,+2128,+2128
   \              5008        
   \   00000334   500850085008       DC16     +2128,+2128,+2128,+2128
   \              5008        
   \   0000033C   500850085008       DC16     +2128,+2128,+2128,+2128
   \              5008        
   \   00000344   500850085008       DC16     +2128,+2128,+2128,+2128
   \              5008        
   \   0000034C   500850085008       DC16     +2128,+2128,+2128,+2128
   \              5008        
   \   00000354   500850085008       DC16     +2128,+2128,+2128,+2128
   \              5008        
   \   0000035C   500850085008       DC16     +2128,+2128,+2128,+2128
   \              5008        
   \   00000364   500850085008       DC16     +2128,+2128,+2128,+2128
   \              5008        
   \   0000036C   500850085008       DC16     +2128,+2128,+2128,+2128
   \              5008        
   \   00000374   500850085008       DC16     +2128,+2128,+2128,+2128
   \              5008        
   \   0000037C   500850085008       DC16     +2128,+2128,+2128,+2128
   \              5008        
   \   00000384   500850085008       DC16     +2128,+2128,+2128,+2128
   \              5008        
   \   0000038C   500850085008       DC16     +2128,+2128,+2128,+2128
   \              5008        
   \   00000394   500850085008       DC16     +2128,+2128,+2128,+2128
   \              5008        
   \   0000039C   500850085008       DC16     +2128,+2128,+2128,+2128
   \              5008        
   \   000003A4   500850085008       DC16     +2128,+2128,+2128,+2128
   \              5008        
   \   000003AC   500850085008       DC16     +2128,+2128,+2128,+2128
   \              5008        
   \   000003B4   500850085008       DC16     +2128,+2128,+2128,+2128
   \              5008        
   \   000003BC   500850085008       DC16     +2128,+2128,+2128,+2128
   \              5008        
   \   000003C4   500850085008       DC16     +2128,+2128,+2128,+2128
   \              5008        
   \   000003CC   500850085008       DC16     +2128,+2128,+2128,+2128
   \              5008        
   \   000003D4   500850085008       DC16     +2128,+2128,+2128,+2128
   \              5008        
   \   000003DC   500850085008       DC16     +2128,+2128,+2128,+2128
   \              5008        
   \   000003E4   500850085008       DC16     +2128,+2128,+2128,+2128
   \              5008        
   \   000003EC   500850085008       DC16     +2128,+2128,+2128,+2128
   \              5008        
   \   000003F4   500850085008       DC16     +2128,+2128,+2128,+2128
   \              5008        
   \   000003FC   500850085008       DC16     +2128,+2128,+2128,+2128
   \              5008        
   \   00000404   500850085008       DC16     +2128,+2128,+2128,+2128
   \              5008        
   \   0000040C   500850085008       DC16     +2128,+2128,+2128,+2128
   \              5008        
   \   00000414   500850085008       DC16     +2128,+2128,+2128,+2128
   \              5008        
   \   0000041C   500850085008       DC16     +2128,+2128,+2128,+2128
   \              5008        
   \   00000424   500850085008       DC16     +2128,+2128,+2128,+2128
   \              5008        
   \   0000042C   500850085008       DC16     +2128,+2128,+2128,+2128
   \              5008        
   \   00000434   500850085008       DC16     +2128,+2128,+2128,+2128
   \              5008        
   \   0000043C   500850085008       DC16     +2128,+2128,+2128,+2128
   \              5008        
   \   00000444   500850085008       DC16     +2128,+2128,+2128,+2128
   \              5008        
   \   0000044C   500850085008       DC16     +2128,+2128,+2128,+2128
   \              5008        
   \   00000454   030850085008       DC16     +2051,+2128,+2128,+2128
   \              5008        
   \   0000045C   500850085008       DC16     +2128,+2128,+2128,+2128
   \              5008        
   \   00000464   500850085008       DC16     +2128,+2128,+2128,+2128
   \              5008        
   \   0000046C   500850085008       DC16     +2128,+2128,+2128,+2128
   \              5008        
   \   00000474   500850085008       DC16     +2128,+2128,+2128,+2128
   \              5008        
   \   0000047C   500850085008       DC16     +2128,+2128,+2128,+2128
   \              5008        
   \   00000484   500850085008       DC16     +2128,+2128,+2128,+2128
   \              5008        
   \   0000048C   500850085008       DC16     +2128,+2128,+2128,+2128
   \              5008        
   \   00000494   500850085008       DC16     +2128,+2128,+2128,+2128
   \              5008        
   \   0000049C   500850085008       DC16     +2128,+2128,+2128,+2128
   \              5008        
   \   000004A4   500850085008       DC16     +2128,+2128,+2128,+2128
   \              5008        
   \   000004AC   500850085008       DC16     +2128,+2128,+2128,+2128
   \              5008        
   \   000004B4   500850085008       DC16     +2128,+2128,+2128,+2128
   \              5008        
   \   000004BC   500850085008       DC16     +2128,+2128,+2128,+2128
   \              5008        
   \   000004C4   500850085008       DC16     +2128,+2128,+2128,+2128
   \              5008        
   \   000004CC   500850085008       DC16     +2128,+2128,+2128,+2128
   \              5008        
   \   000004D4   500850085008       DC16     +2128,+2128,+2128,+2128
   \              5008        
   \   000004DC   500850085008       DC16     +2128,+2128,+2128,+2128
   \              5008        
   \   000004E4   500850085008       DC16     +2128,+2128,+2128,+2128
   \              5008        
   \   000004EC   500850085008       DC16     +2128,+2128,+2128,+2128
   \              5008        
   \   000004F4   500850085008       DC16     +2128,+2128,+2128,+2128
   \              5008        
   \   000004FC   500850085008       DC16     +2128,+2128,+2128,+2128
   \              5008        
   \   00000504   500850085008       DC16     +2128,+2128,+2128,+2128
   \              5008        
   \   0000050C   500850085008       DC16     +2128,+2128,+2128,+2128
   \              5008        
   \   00000514   500850085008       DC16     +2128,+2128,+2128,+2128
   \              5008        
   \   0000051C   500850085008       DC16     +2128,+2128,+2128,+2128
   \              5008        
   \   00000524   500850085008       DC16     +2128,+2128,+2128,+2128
   \              5008        
   \   0000052C   500850085008       DC16     +2128,+2128,+2128,+2128
   \              5008        
   \   00000534   500850085008       DC16     +2128,+2128,+2128,+2128
   \              5008        
   \   0000053C   500850085008       DC16     +2128,+2128,+2128,+2128
   \              5008        
   \   00000544   500850085008       DC16     +2128,+2128,+2128,+2128
   \              5008        
   \   0000054C   500850085008       DC16     +2128,+2128,+2128,+2128
   \              5008        
   \   00000554   500850085008       DC16     +2128,+2128,+2128,+2128
   \              5008        
   \   0000055C   500850085008       DC16     +2128,+2128,+2128,+2128
   \              5008        
   \   00000564   500850085008       DC16     +2128,+2128,+2128,+2128
   \              5008        
   \   0000056C   500850085008       DC16     +2128,+2128,+2128,+2128
   \              5008        
   \   00000574   500850085008       DC16     +2128,+2128,+2128,+2128
   \              5008        
   \   0000057C   500850085008       DC16     +2128,+2128,+2128,+2128
   \              5008        
   \   00000584   500850085008       DC16     +2128,+2128,+2128,+2128
   \              5008        
   \   0000058C   500850085008       DC16     +2128,+2128,+2128,+2128
   \              5008        
   \   00000594   500850085008       DC16     +2128,+2128,+2128,+2128
   \              5008        
   \   0000059C   500850085008       DC16     +2128,+2128,+2128,+2128
   \              5008        
   \   000005A4   500850085008       DC16     +2128,+2128,+2128,+2128
   \              5008        
   \   000005AC   500850085008       DC16     +2128,+2128,+2128,+2128
   \              5008        
   \   000005B4   500850085008       DC16     +2128,+2128,+2128,+2128
   \              5008        
   \   000005BC   500850085008       DC16     +2128,+2128,+2128,+2128
   \              5008        
   \   000005C4   500850085008       DC16     +2128,+2128,+2128,+2128
   \              5008        
   \   000005CC   500850085008       DC16     +2128,+2128,+2128,+2128
   \              5008        
   \   000005D4   500850085008       DC16     +2128,+2128,+2128,+2128
   \              5008        
   \   000005DC   500850085008       DC16     +2128,+2128,+2128,+2128
   \              5008        
   \   000005E4   500850085008       DC16     +2128,+2128,+2128,+2128
   \              5008        
   \   000005EC   500850085008       DC16     +2128,+2128,+2128,+2128
   \              5008        
   \   000005F4   500850085008       DC16     +2128,+2128,+2128,+2128
   \              5008        
   \   000005FC   500850085008       DC16     +2128,+2128,+2128,+2128
   \              5008        
   \   00000604   500850085008       DC16     +2128,+2128,+2128,+2128
   \              5008        
   \   0000060C   500850085008       DC16     +2128,+2128,+2128,+2128
   \              5008        
   \   00000614   500850085008       DC16     +2128,+2128,+2128,+2128
   \              5008        
   \   0000061C   500850085008       DC16     +2128,+2128,+2128,+2128
   \              5008        
   \   00000624   500850085008       DC16     +2128,+2128,+2128,+2128
   \              5008        
   \   0000062C   500850085008       DC16     +2128,+2128,+2128,+2128
   \              5008        
   \   00000634   500850085008       DC16     +2128,+2128,+2128,+2128
   \              5008        
   \   0000063C   500850085008       DC16     +2128,+2128,+2128,+2128
   \              5008        
   \   00000644   500850085008       DC16     +2128,+2128,+2128,+2128
   \              5008        
   \   0000064C   500850085008       DC16     +2128,+2128,+2128,+2128
   \              5008        
   \   00000654   500850085008       DC16     +2128,+2128,+2128,+2128
   \              5008        
   \   0000065C   500850085008       DC16     +2128,+2128,+2128,+2128
   \              5008        
   \   00000664   500850085008       DC16     +2128,+2128,+2128,+2128
   \              5008        
   \   0000066C   500850085008       DC16     +2128,+2128,+2128,+2128
   \              5008        
   \   00000674   500850085008       DC16     +2128,+2128,+2128,+2128
   \              5008        
   \   0000067C   500850085008       DC16     +2128,+2128,+2128,+2128
   \              5008        
   \   00000684   500850085008       DC16     +2128,+2128,+2128,+2128
   \              5008        
   \   0000068C   500850085008       DC16     +2128,+2128,+2128,+2128
   \              5008        
   \   00000694   500850085008       DC16     +2128,+2128,+2128,+2128
   \              5008        
   \   0000069C   500850085008       DC16     +2128,+2128,+2128,+2128
   \              5008        
   \   000006A4   500850085008       DC16     +2128,+2128,+2128,+2128
   \              5008        
   \   000006AC   500850085008       DC16     +2128,+2128,+2128,+2128
   \              5008        
   \   000006B4   500850085008       DC16     +2128,+2128,+2128,+2128
   \              5008        
   \   000006BC   500850085008       DC16     +2128,+2128,+2128,+2128
   \              5008        
   \   000006C4   500850085008       DC16     +2128,+2128,+2128,+2128
   \              5008        
   \   000006CC   500850085008       DC16     +2128,+2128,+2128,+2128
   \              5008        
   \   000006D4   500850085008       DC16     +2128,+2128,+2128,+2128
   \              5008        
   \   000006DC   500850085008       DC16     +2128,+2128,+2128,+2128
   \              5008        
   \   000006E4   500850085008       DC16     +2128,+2128,+2128,+2128
   \              5008        
   \   000006EC   500850085008       DC16     +2128,+2128,+2128,+2128
   \              5008        
   \   000006F4   500850085008       DC16     +2128,+2128,+2128,+2128
   \              5008        
   \   000006FC   500850085008       DC16     +2128,+2128,+2128,+2128
   \              5008        
   \   00000704   500850085008       DC16     +2128,+2128,+2128,+2128
   \              5008        
   \   0000070C   500850085008       DC16     +2128,+2128,+2128,+2128
   \              5008        
   \   00000714   500850085008       DC16     +2128,+2128,+2128,+2128
   \              5008        
   \   0000071C   500850085008       DC16     +2128,+2128,+2128,+2128
   \              5008        
   \   00000724   500850085008       DC16     +2128,+2128,+2128,+2128
   \              5008        
   \   0000072C   500850085008       DC16     +2128,+2128,+2128,+2128
   \              5008        
   \   00000734   500850085008       DC16     +2128,+2128,+2128,+2128
   \              5008        
   \   0000073C   500850085008       DC16     +2128,+2128,+2128,+2128
   \              5008        
   \   00000744   500850085008       DC16     +2128,+2128,+2128,+2128
   \              5008        
   \   0000074C   500850085008       DC16     +2128,+2128,+2128,+2128
   \              5008        
   \   00000754   500850085008       DC16     +2128,+2128,+2128,+2128
   \              5008        
   \   0000075C   500850085008       DC16     +2128,+2128,+2128,+2128
   \              5008        
   \   00000764   500850085008       DC16     +2128,+2128,+2128,+2128
   \              5008        
   \   0000076C   500850085008       DC16     +2128,+2128,+2128,+2128
   \              5008        
   \   00000774   500850085008       DC16     +2128,+2128,+2128,+2128
   \              5008        
   \   0000077C   500850085008       DC16     +2128,+2128,+2128,+2128
   \              5008        
   \   00000784   500850085008       DC16     +2128,+2128,+2128,+2128
   \              5008        
   \   0000078C   500850085008       DC16     +2128,+2128,+2128,+2128
   \              5008        
   \   00000794   500850085008       DC16     +2128,+2128,+2128,+2128
   \              5008        
   \   0000079C   500850085008       DC16     +2128,+2128,+2128,+2128
   \              5008        
   \   000007A4   500850085008       DC16     +2128,+2128,+2128,+2128
   \              5008        
   \   000007AC   500850085008       DC16     +2128,+2128,+2128,+2128
   \              5008        
   \   000007B4   500850085008       DC16     +2128,+2128,+2128,+2128
   \              5008        
   \   000007BC   500850085008       DC16     +2128,+2128,+2128,+2128
   \              5008        
   \   000007C4   500850085008       DC16     +2128,+2128,+2128,+2128
   \              5008        
   \   000007CC   500850085008       DC16     +2128,+2128,+2128,+2128
   \              5008        
   \   000007D4   500850085008       DC16     +2128,+2128,+2128,+2128
   \              5008        
   \   000007DC   500850085008       DC16     +2128,+2128,+2128,+2128
   \              5008        
   \   000007E4   500850085008       DC16     +2128,+2128,+2128,+2128
   \              5008        
   \   000007EC   500850085008       DC16     +2128,+2128,+2128,+2128
   \              5008        
   \   000007F4   500850085008       DC16     +2128,+2128,+2128,+2128
   \              5008        
   \   000007FC   500850085008       DC16     +2128,+2128,+2128,+2128
   \              5008        
   \   00000804   500850085008       DC16     +2128,+2128,+2128,+2128
   \              5008        
   \   0000080C   500850085008       DC16     +2128,+2128,+2128,+2128
   \              5008        
   \   00000814   500850085008       DC16     +2128,+2128,+2128,+2128
   \              5008        
   \   0000081C   500850085008       DC16     +2128,+2128,+2128,+2128
   \              5008        
   \   00000824   500850085008       DC16     +2128,+2128,+2128,+2128
   \              5008        
   \   0000082C   500850085008       DC16     +2128,+2128,+2128,+2128
   \              5008        
   \   00000834   500850085008       DC16     +2128,+2128,+2128,+2128
   \              5008        
   \   0000083C   500850085008       DC16     +2128,+2128,+2128,+2128
   \              5008        
   \   00000844   500850085008       DC16     +2128,+2128,+2128,+2128
   \              5008        
   \   0000084C   500850085008       DC16     +2128,+2128,+2128,+2128
   \              5008        
   \   00000854   500850085008       DC16     +2128,+2128,+2128,+2128
   \              5008        
   \   0000085C   500850085008       DC16     +2128,+2128,+2128,+2128
   \              5008        
   \   00000864   500850085008       DC16     +2128,+2128,+2128,+2128
   \              5008        
   \   0000086C   500850085008       DC16     +2128,+2128,+2128,+2128
   \              5008        
   \   00000874   500850085008       DC16     +2128,+2128,+2128,+2128
   \              5008        
   \   0000087C   500850085008       DC16     +2128,+2128,+2128,+2128
   \              5008        
   \   00000884   500850085008       DC16     +2128,+2128,+2128,+2128
   \              5008        
   \   0000088C   500850085008       DC16     +2128,+2128,+2128,+2128
   \              5008        
   \   00000894   500850085008       DC16     +2128,+2128,+2128,+2128
   \              5008        
   \   0000089C   500850085008       DC16     +2128,+2128,+2128,+2128
   \              5008        
   \   000008A4   500850085008       DC16     +2128,+2128,+2128,+2128
   \              5008        
   \   000008AC   500850085008       DC16     +2128,+2128,+2128,+2128
   \              5008        
   \   000008B4   500850085008       DC16     +2128,+2128,+2128,+2128
   \              5008        
   \   000008BC   500850085008       DC16     +2128,+2128,+2128,+2128
   \              5008        
   \   000008C4   500850085008       DC16     +2128,+2128,+2128,+2128
   \              5008        
   \   000008CC   500850085008       DC16     +2128,+2128,+2128,+2128
   \              5008        
   \   000008D4   500850085008       DC16     +2128,+2128,+2128,+2128
   \              5008        
   \   000008DC   500850085008       DC16     +2128,+2128,+2128,+2128
   \              5008        
   \   000008E4   500850085008       DC16     +2128,+2128,+2128,+2128
   \              5008        
   \   000008EC   500850085008       DC16     +2128,+2128,+2128,+2128
   \              5008        
   \   000008F4   500850085008       DC16     +2128,+2128,+2128,+2128
   \              5008        
   \   000008FC   500850085008       DC16     +2128,+2128,+2128,+2128
   \              5008        
   \   00000904   500850085008       DC16     +2128,+2128,+2128,+2128
   \              5008        
   \   0000090C   500850085008       DC16     +2128,+2128,+2128,+2128
   \              5008        
   \   00000914   500850085008       DC16     +2128,+2128,+2128,+2128
   \              5008        
   \   0000091C   500850085008       DC16     +2128,+2128,+2128,+2128
   \              5008        
   \   00000924   500850085008       DC16     +2128,+2128,+2128,+2128
   \              5008        
   \   0000092C   500850085008       DC16     +2128,+2128,+2128,+2128
   \              5008        
   \   00000934   500850085008       DC16     +2128,+2128,+2128,+2128
   \              5008        
   \   0000093C   500850085008       DC16     +2128,+2128,+2128,+2128
   \              5008        
   \   00000944   500850085008       DC16     +2128,+2128,+2128,+2128
   \              5008        
   \   0000094C   500850085008       DC16     +2128,+2128,+2128,+2128
   \              5008        
   \   00000954   500850085008       DC16     +2128,+2128,+2128,+2128
   \              5008        
   \   0000095C   500850085008       DC16     +2128,+2128,+2128,+2128
   \              5008        
   \   00000964   500850085008       DC16     +2128,+2128,+2128,+2128
   \              5008        
   \   0000096C   500850085008       DC16     +2128,+2128,+2128,+2128
   \              5008        
   \   00000974   500850085008       DC16     +2128,+2128,+2128,+2128
   \              5008        
   \   0000097C   500850085008       DC16     +2128,+2128,+2128,+2128
   \              5008        
   \   00000984   500850085008       DC16     +2128,+2128,+2128,+2128
   \              5008        
   \   0000098C   500850085008       DC16     +2128,+2128,+2128,+2128
   \              5008        
   \   00000994   500850085008       DC16     +2128,+2128,+2128,+2128
   \              5008        
   \   0000099C   500850085008       DC16     +2128,+2128,+2128,+2128
   \              5008        
   \   000009A4   500850085008       DC16     +2128,+2128,+2128,+2128
   \              5008        
   \   000009AC   500850085008       DC16     +2128,+2128,+2128,+2128
   \              5008        
   \   000009B4   500850085008       DC16     +2128,+2128,+2128,+2128
   \              5008        
   \   000009BC   500850085008       DC16     +2128,+2128,+2128,+2128
   \              5008        
   \   000009C4   500850085008       DC16     +2128,+2128,+2128,+2128
   \              5008        
   \   000009CC   500850085008       DC16     +2128,+2128,+2128,+2128
   \              5008        
   \   000009D4   500850085008       DC16     +2128,+2128,+2128,+2128
   \              5008        
   \   000009DC   500850085008       DC16     +2128,+2128,+2128,+2128
   \              5008        
   \   000009E4   500850085008       DC16     +2128,+2128,+2128,+2128
   \              5008        
   \   000009EC   500850085008       DC16     +2128,+2128,+2128,+2128
   \              5008        
   \   000009F4   500850085008       DC16     +2128,+2128,+2128,+2128
   \              5008        
   \   000009FC   500850085008       DC16     +2128,+2128,+2128,+2128
   \              5008        
   \   00000A04   500850085008       DC16     +2128,+2128,+2128,+2128
   \              5008        
   \   00000A0C   500850085008       DC16     +2128,+2128,+2128,+2128
   \              5008        
   \   00000A14   500850085008       DC16     +2128,+2128,+2128,+2128
   \              5008        
   \   00000A1C   500850085008       DC16     +2128,+2128,+2128,+2128
   \              5008        
   \   00000A24   500850085008       DC16     +2128,+2128,+2128,+2128
   \              5008        
   \   00000A2C   500850085008       DC16     +2128,+2128,+2128,+2128
   \              5008        
   \   00000A34   500850085008       DC16     +2128,+2128,+2128,+2128
   \              5008        
   \   00000A3C   500850085008       DC16     +2128,+2128,+2128,+2128
   \              5008        
   \   00000A44   500850085008       DC16     +2128,+2128,+2128,+2128
   \              5008        
   \   00000A4C   500850085008       DC16     +2128,+2128,+2128,+2128
   \              5008        
   \   00000A54   500850085008       DC16     +2128,+2128,+2128,+2128
   \              5008        
   \   00000A5C   500850085008       DC16     +2128,+2128,+2128,+2128
   \              5008        
   \   00000A64   500850085008       DC16     +2128,+2128,+2128,+2128
   \              5008        
   \   00000A6C   500850085008       DC16     +2128,+2128,+2128,+2128
   \              5008        
   \   00000A74   500850085008       DC16     +2128,+2128,+2128,+2128
   \              5008        
   \   00000A7C   500850085008       DC16     +2128,+2128,+2128,+2128
   \              5008        
   \   00000A84   500850085008       DC16     +2128,+2128,+2128,+2128
   \              5008        
   \   00000A8C   500850085008       DC16     +2128,+2128,+2128,+2128
   \              5008        
   \   00000A94   500850085008       DC16     +2128,+2128,+2128,+2128
   \              5008        
   \   00000A9C   500850085008       DC16     +2128,+2128,+2128,+2128
   \              5008        
   \   00000AA4   500850085008       DC16     +2128,+2128,+2128,+2128
   \              5008        
   \   00000AAC   500850085008       DC16     +2128,+2128,+2128,+2128
   \              5008        
   \   00000AB4   500850085008       DC16     +2128,+2128,+2128,+2128
   \              5008        
   \   00000ABC   500850085008       DC16     +2128,+2128,+2128,+2128
   \              5008        
   \   00000AC4   500850085008       DC16     +2128,+2128,+2128,+2128
   \              5008        
   \   00000ACC   500850085008       DC16     +2128,+2128,+2128,+2128
   \              5008        
   \   00000AD4   500850085008       DC16     +2128,+2128,+2128,+2128
   \              5008        
   \   00000ADC   500850085008       DC16     +2128,+2128,+2128,+2128
   \              5008        
   \   00000AE4   500850085008       DC16     +2128,+2128,+2128,+2128
   \              5008        
   \   00000AEC   500850085008       DC16     +2128,+2128,+2128,+2128
   \              5008        
   \   00000AF4   500850085008       DC16     +2128,+2128,+2128,+2128
   \              5008        
   \   00000AFC   500850085008       DC16     +2128,+2128,+2128,+2128
   \              5008        
   \   00000B04   500850085008       DC16     +2128,+2128,+2128,+2128
   \              5008        
   \   00000B0C   500850085008       DC16     +2128,+2128,+2128,+2128
   \              5008        
   \   00000B14   500850085008       DC16     +2128,+2128,+2128,+2128
   \              5008        
   \   00000B1C   500850085008       DC16     +2128,+2128,+2128,+2128
   \              5008        
   \   00000B24   500850085008       DC16     +2128,+2128,+2128,+2128
   \              5008        
   \   00000B2C   500850085008       DC16     +2128,+2128,+2128,+2128
   \              5008        
   \   00000B34   500850085008       DC16     +2128,+2128,+2128,+2128
   \              5008        
   \   00000B3C   500850085008       DC16     +2128,+2128,+2128,+2128
   \              5008        
   \   00000B44   500850085008       DC16     +2128,+2128,+2128,+2128
   \              5008        
   \   00000B4C   500850085008       DC16     +2128,+2128,+2128,+2128
   \              5008        
   \   00000B54   500850085008       DC16     +2128,+2128,+2128,+2128
   \              5008        
   \   00000B5C   500850085008       DC16     +2128,+2128,+2128,+2128
   \              5008        
   \   00000B64   500850085008       DC16     +2128,+2128,+2128,+2128
   \              5008        
   \   00000B6C   500850085008       DC16     +2128,+2128,+2128,+2128
   \              5008        
   \   00000B74   500850085008       DC16     +2128,+2128,+2128,+2128
   \              5008        
   \   00000B7C   500850085008       DC16     +2128,+2128,+2128,+2128
   \              5008        
   \   00000B84   500850085008       DC16     +2128,+2128,+2128,+2128
   \              5008        
   \   00000B8C   500850085008       DC16     +2128,+2128,+2128,+2128
   \              5008        
   \   00000B94   500850085008       DC16     +2128,+2128,+2128,+2128
   \              5008        
   \   00000B9C   500850085008       DC16     +2128,+2128,+2128,+2128
   \              5008        
   \   00000BA4   500850085008       DC16     +2128,+2128,+2128,+2128
   \              5008        
   \   00000BAC   500850085008       DC16     +2128,+2128,+2128,+2128
   \              5008        
   \   00000BB4   500850085008       DC16     +2128,+2128,+2128,+2128
   \              5008        
   \   00000BBC   500850085008       DC16     +2128,+2128,+2128,+2128
   \              5008        
   \   00000BC4   500850085008       DC16     +2128,+2128,+2128,+2128
   \              5008        
   \   00000BCC   500850085008       DC16     +2128,+2128,+2128,+2128
   \              5008        
   \   00000BD4   500850085008       DC16     +2128,+2128,+2128,+2128
   \              5008        
   \   00000BDC   500850085008       DC16     +2128,+2128,+2128,+2128
   \              5008        
   \   00000BE4   500850085008       DC16     +2128,+2128,+2128,+2128
   \              5008        
   \   00000BEC   500850085008       DC16     +2128,+2128,+2128,+2128
   \              5008        
   \   00000BF4   500850085008       DC16     +2128,+2128,+2128,+2128
   \              5008        
   \   00000BFC   500850085008       DC16     +2128,+2128,+2128,+2128
   \              5008        
   \   00000C04   500850085008       DC16     +2128,+2128,+2128,+2128
   \              5008        
   \   00000C0C   500850085008       DC16     +2128,+2128,+2128,+2128
   \              5008        
   \   00000C14   500850085008       DC16     +2128,+2128,+2128,+2128
   \              5008        
   \   00000C1C   500850085008       DC16     +2128,+2128,+2128,+2128
   \              5008        
   \   00000C24   500850085008       DC16     +2128,+2128,+2128,+2128
   \              5008        
   \   00000C2C   500850085008       DC16     +2128,+2128,+2128,+2128
   \              5008        
   \   00000C34   500850085008       DC16     +2128,+2128,+2128,+2128
   \              5008        
   \   00000C3C   500850085008       DC16     +2128,+2128,+2128,+2128
   \              5008        
   \   00000C44   500850085008       DC16     +2128,+2128,+2128,+2128
   \              5008        
   \   00000C4C   500850085008       DC16     +2128,+2128,+2128,+2128
   \              5008        
   \   00000C54   500850085008       DC16     +2128,+2128,+2128,+2128
   \              5008        
   \   00000C5C   500850085008       DC16     +2128,+2128,+2128,+2128
   \              5008        
   \   00000C64   500850085008       DC16     +2128,+2128,+2128,+2128
   \              5008        
   \   00000C6C   500850085008       DC16     +2128,+2128,+2128,+2128
   \              5008        
   \   00000C74   500850085008       DC16     +2128,+2128,+2128,+2128
   \              5008        
   \   00000C7C   500850085008       DC16     +2128,+2128,+2128,+2128
   \              5008        
   \   00000C84   500850085008       DC16     +2128,+2128,+2128,+2128
   \              5008        
   \   00000C8C   500850085008       DC16     +2128,+2128,+2128,+2128
   \              5008        
   \   00000C94   500850085008       DC16     +2128,+2128,+2128,+2128
   \              5008        
   \   00000C9C   500850085008       DC16     +2128,+2128,+2128,+2128
   \              5008        
   \   00000CA4   500850085008       DC16     +2128,+2128,+2128,+2128
   \              5008        
   \   00000CAC   500850085008       DC16     +2128,+2128,+2128,+2128
   \              5008        
   \   00000CB4   500850085008       DC16     +2128,+2128,+2128,+2128
   \              5008        
   \   00000CBC   500850085008       DC16     +2128,+2128,+2128,+2128
   \              5008        
   \   00000CC4   500850085008       DC16     +2128,+2128,+2128,+2128
   \              5008        
   \   00000CCC   500850085008       DC16     +2128,+2128,+2128,+2128
   \              5008        
   \   00000CD4   500850085008       DC16     +2128,+2128,+2128,+2128
   \              5008        
   \   00000CDC   500850085008       DC16     +2128,+2128,+2128,+2128
   \              5008        
   \   00000CE4   500850085008       DC16     +2128,+2128,+2128,+2128
   \              5008        
   \   00000CEC   500850085008       DC16     +2128,+2128,+2128,+2128
   \              5008        
   \   00000CF4   500850085008       DC16     +2128,+2128,+2128,+2128
   \              5008        
   \   00000CFC   500850085008       DC16     +2128,+2128,+2128,+2128
   \              5008        
   \   00000D04   500850085008       DC16     +2128,+2128,+2128,+2128
   \              5008        
   \   00000D0C   500850085008       DC16     +2128,+2128,+2128,+2128
   \              5008        
   \   00000D14   500850085008       DC16     +2128,+2128,+2128,+2128
   \              5008        
   \   00000D1C   500850085008       DC16     +2128,+2128,+2128,+2128
   \              5008        
   \   00000D24   500850085008       DC16     +2128,+2128,+2128,+2128
   \              5008        
   \   00000D2C   500850085008       DC16     +2128,+2128,+2128,+2128
   \              5008        
   \   00000D34   500850085008       DC16     +2128,+2128,+2128,+2128
   \              5008        
   \   00000D3C   500850085008       DC16     +2128,+2128,+2128,+2128
   \              5008        
   \   00000D44   500850085008       DC16     +2128,+2128,+2128,+2128
   \              5008        
   \   00000D4C   500850085008       DC16     +2128,+2128,+2128,+2128
   \              5008        
   \   00000D54   500850085008       DC16     +2128,+2128,+2128,+2128
   \              5008        
   \   00000D5C   500850085008       DC16     +2128,+2128,+2128,+2128
   \              5008        
   \   00000D64   500850085008       DC16     +2128,+2128,+2128,+2128
   \              5008        
   \   00000D6C   500850085008       DC16     +2128,+2128,+2128,+2128
   \              5008        
   \   00000D74   500850085008       DC16     +2128,+2128,+2128,+2128
   \              5008        
   \   00000D7C   500850085008       DC16     +2128,+2128,+2128,+2128
   \              5008        
   \   00000D84   500850085008       DC16     +2128,+2128,+2128,+2128
   \              5008        
   \   00000D8C   500850085008       DC16     +2128,+2128,+2128,+2128
   \              5008        
   \   00000D94   500850085008       DC16     +2128,+2128,+2128,+2128
   \              5008        
   \   00000D9C   500850085008       DC16     +2128,+2128,+2128,+2128
   \              5008        
   \   00000DA4   500850085008       DC16     +2128,+2128,+2128,+2128
   \              5008        
   \   00000DAC   500850085008       DC16     +2128,+2128,+2128,+2128
   \              5008        
   \   00000DB4   500850085008       DC16     +2128,+2128,+2128,+2128
   \              5008        
   \   00000DBC   500850085008       DC16     +2128,+2128,+2128,+2128
   \              5008        
   \   00000DC4   500850085008       DC16     +2128,+2128,+2128,+2128
   \              5008        
   \   00000DCC   500850085008       DC16     +2128,+2128,+2128,+2128
   \              5008        
   \   00000DD4   500850085008       DC16     +2128,+2128,+2128,+2128
   \              5008        
   \   00000DDC   500850085008       DC16     +2128,+2128,+2128,+2128
   \              5008        
   \   00000DE4   500850085008       DC16     +2128,+2128,+2128,+2128
   \              5008        
   \   00000DEC   500850085008       DC16     +2128,+2128,+2128,+2128
   \              5008        
   \   00000DF4   500850085008       DC16     +2128,+2128,+2128,+2128
   \              5008        
   \   00000DFC   500850085008       DC16     +2128,+2128,+2128,+2128
   \              5008        
   \   00000E04   500850085008       DC16     +2128,+2128,+2128,+2128
   \              5008        
   \   00000E0C   500850085008       DC16     +2128,+2128,+2128,+2128
   \              5008        
   \   00000E14   500850085008       DC16     +2128,+2128,+2128,+2128
   \              5008        
   \   00000E1C   500850085008       DC16     +2128,+2128,+2128,+2128
   \              5008        
   \   00000E24   500850085008       DC16     +2128,+2128,+2128,+2128
   \              5008        
   \   00000E2C   500850085008       DC16     +2128,+2128,+2128,+2128
   \              5008        
   \   00000E34   500850085008       DC16     +2128,+2128,+2128,+2128
   \              5008        
   \   00000E3C   500850085008       DC16     +2128,+2128,+2128,+2128
   \              5008        
   \   00000E44   500850085008       DC16     +2128,+2128,+2128,+2128
   \              5008        
   \   00000E4C   500850085008       DC16     +2128,+2128,+2128,+2128
   \              5008        
   \   00000E54   500850085008       DC16     +2128,+2128,+2128,+2128
   \              5008        
   \   00000E5C   500850085008       DC16     +2128,+2128,+2128,+2128
   \              5008        
   \   00000E64   500850085008       DC16     +2128,+2128,+2128,+2128
   \              5008        
   \   00000E6C   500850085008       DC16     +2128,+2128,+2128,+2128
   \              5008        
   \   00000E74   500850085008       DC16     +2128,+2128,+2128,+2128
   \              5008        
   \   00000E7C   500850085008       DC16     +2128,+2128,+2128,+2128
   \              5008        
   \   00000E84   500850085008       DC16     +2128,+2128,+2128,+2128
   \              5008        
   \   00000E8C   500850085008       DC16     +2128,+2128,+2128,+2128
   \              5008        
   \   00000E94   500850085008       DC16     +2128,+2128,+2128,+2128
   \              5008        
   \   00000E9C   500850085008       DC16     +2128,+2128,+2128,+2128
   \              5008        
   \   00000EA4   500850085008       DC16     +2128,+2128,+2128,+2128
   \              5008        
   \   00000EAC   500850085008       DC16     +2128,+2128,+2128,+2128
   \              5008        
   \   00000EB4   500850085008       DC16     +2128,+2128,+2128,+2128
   \              5008        
   \   00000EBC   500850085008       DC16     +2128,+2128,+2128,+2128
   \              5008        
   \   00000EC4   500850085008       DC16     +2128,+2128,+2128,+2128
   \              5008        
   \   00000ECC   500850085008       DC16     +2128,+2128,+2128,+2128
   \              5008        
   \   00000ED4   500850085008       DC16     +2128,+2128,+2128,+2128
   \              5008        
   \   00000EDC   500850085008       DC16     +2128,+2128,+2128,+2128
   \              5008        
   \   00000EE4   500850085008       DC16     +2128,+2128,+2128,+2128
   \              5008        
   \   00000EEC   500850085008       DC16     +2128,+2128,+2128,+2128
   \              5008        
   \   00000EF4   500850085008       DC16     +2128,+2128,+2128,+2128
   \              5008        
   \   00000EFC   500850085008       DC16     +2128,+2128,+2128,+2128
   \              5008        
   \   00000F04   500850085008       DC16     +2128,+2128,+2128,+2128
   \              5008        
   \   00000F0C   500850085008       DC16     +2128,+2128,+2128,+2128
   \              5008        
   \   00000F14   500850085008       DC16     +2128,+2128,+2128,+2128
   \              5008        
   \   00000F1C   500850085008       DC16     +2128,+2128,+2128,+2128
   \              5008        
   \   00000F24   500850085008       DC16     +2128,+2128,+2128,+2128
   \              5008        
   \   00000F2C   500850085008       DC16     +2128,+2128,+2128,+2128
   \              5008        
   \   00000F34   500850085008       DC16     +2128,+2128,+2128,+2128
   \              5008        
   \   00000F3C   500850085008       DC16     +2128,+2128,+2128,+2128
   \              5008        
   \   00000F44   500850085008       DC16     +2128,+2128,+2128,+2128
   \              5008        
   \   00000F4C   500850085008       DC16     +2128,+2128,+2128,+2128
   \              5008        
   \   00000F54   500850085008       DC16     +2128,+2128,+2128,+2128
   \              5008        
   \   00000F5C   500850085008       DC16     +2128,+2128,+2128,+2128
   \              5008        
   \   00000F64   500850085008       DC16     +2128,+2128,+2128,+2128
   \              5008        
   \   00000F6C   500850085008       DC16     +2128,+2128,+2128,+2128
   \              5008        
   \   00000F74   500850085008       DC16     +2128,+2128,+2128,+2128
   \              5008        
   \   00000F7C   500850085008       DC16     +2128,+2128,+2128,+2128
   \              5008        
   \   00000F84   500850085008       DC16     +2128,+2128,+2128,+2128
   \              5008        
   \   00000F8C   500850085008       DC16     +2128,+2128,+2128,+2128
   \              5008        
   \   00000F94   500850085008       DC16     +2128,+2128,+2128,+2128
   \              5008        
   \   00000F9C   500850085008       DC16     +2128,+2128,+2128,+2128
   \              5008        
   \   00000FA4   500850085008       DC16     +2128,+2128,+2128,+2128
   \              5008        
   \   00000FAC   500850085008       DC16     +2128,+2128,+2128,+2128
   \              5008        
   \   00000FB4   500850085008       DC16     +2128,+2128,+2128,+2128
   \              5008        
   \   00000FBC   500850085008       DC16     +2128,+2128,+2128,+2128
   \              5008        
   \   00000FC4   500850085008       DC16     +2128,+2128,+2128,+2128
   \              5008        
   \   00000FCC   500850085008       DC16     +2128,+2128,+2128,+2128
   \              5008        
   \   00000FD4   500850085008       DC16     +2128,+2128,+2128,+2128
   \              5008        
   \   00000FDC   500850085008       DC16     +2128,+2128,+2128,+2128
   \              5008        
   \   00000FE4   500850085008       DC16     +2128,+2128,+2128,+2128
   \              5008        
   \   00000FEC   500850085008       DC16     +2128,+2128,+2128,+2128
   \              5008        
   \   00000FF4   500850085008       DC16     +2128,+2128,+2128,+2128
   \              5008        
   \   00000FFC   500850085008       DC16     +2128,+2128,+2128,+2128
   \              5008        
   \   00001004   500850085008       DC16     +2128,+2128,+2128,+2128
   \              5008        
   \   0000100C   500850085008       DC16     +2128,+2128,+2128,+2128
   \              5008        
   \   00001014   500850085008       DC16     +2128,+2128,+2128,+2128
   \              5008        
   \   0000101C   500850085008       DC16     +2128,+2128,+2128,+2128
   \              5008        
   \   00001024   500850085008       DC16     +2128,+2128,+2128,+2128
   \              5008        
   \   0000102C   500850085008       DC16     +2128,+2128,+2128,+2128
   \              5008        
   \   00001034   500850085008       DC16     +2128,+2128,+2128,+2128
   \              5008        
   \   0000103C   500850085008       DC16     +2128,+2128,+2128,+2128
   \              5008        
   \   00001044   500850085008       DC16     +2128,+2128,+2128,+2128
   \              5008        
   \   0000104C   500850085008       DC16     +2128,+2128,+2128,+2128
   \              5008        
   \   00001054   500850085008       DC16     +2128,+2128,+2128,+2128
   \              5008        
   \   0000105C   500850085008       DC16     +2128,+2128,+2128,+2128
   \              5008        
   \   00001064   500850085008       DC16     +2128,+2128,+2128,+2128
   \              5008        
   \   0000106C   500850085008       DC16     +2128,+2128,+2128,+2128
   \              5008        
   \   00001074   500850085008       DC16     +2128,+2128,+2128,+2128
   \              5008        
   \   0000107C   500850085008       DC16     +2128,+2128,+2128,+2128
   \              5008        
   \   00001084   500850085008       DC16     +2128,+2128,+2128,+2128
   \              5008        
   \   0000108C   500850085008       DC16     +2128,+2128,+2128,+2128
   \              5008        
   \   00001094   500850085008       DC16     +2128,+2128,+2128,+2128
   \              5008        
   \   0000109C   500850085008       DC16     +2128,+2128,+2128,+2128
   \              5008        
   \   000010A4   500850085008       DC16     +2128,+2128,+2128,+2128
   \              5008        
   \   000010AC   500850085008       DC16     +2128,+2128,+2128,+2128
   \              5008        
   \   000010B4   500850085008       DC16     +2128,+2128,+2128,+2128
   \              5008        
   \   000010BC   500850085008       DC16     +2128,+2128,+2128,+2128
   \              5008        
   \   000010C4   500850085008       DC16     +2128,+2128,+2128,+2128
   \              5008        
   \   000010CC   500850085008       DC16     +2128,+2128,+2128,+2128
   \              5008        
   \   000010D4   500850085008       DC16     +2128,+2128,+2128,+2128
   \              5008        
   \   000010DC   500850085008       DC16     +2128,+2128,+2128,+2128
   \              5008        
   \   000010E4   500850085008       DC16     +2128,+2128,+2128,+2128
   \              5008        
   \   000010EC   500850085008       DC16     +2128,+2128,+2128,+2128
   \              5008        
   \   000010F4   500850085008       DC16     +2128,+2128,+2128,+2128
   \              5008        
   \   000010FC   500850085008       DC16     +2128,+2128,+2128,+2128
   \              5008        
   \   00001104   500850085008       DC16     +2128,+2128,+2128,+2128
   \              5008        
   \   0000110C   500850085008       DC16     +2128,+2128,+2128,+2128
   \              5008        
   \   00001114   500850085008       DC16     +2128,+2128,+2128,+2128
   \              5008        
   \   0000111C   500850085008       DC16     +2128,+2128,+2128,+2128
   \              5008        
   \   00001124   500850085008       DC16     +2128,+2128,+2128,+2128
   \              5008        
   \   0000112C   500850085008       DC16     +2128,+2128,+2128,+2128
   \              5008        
   \   00001134   500850085008       DC16     +2128,+2128,+2128,+2128
   \              5008        
   \   0000113C   500850085008       DC16     +2128,+2128,+2128,+2128
   \              5008        
   \   00001144   500850085008       DC16     +2128,+2128,+2128,+2128
   \              5008        
   \   0000114C   500850085008       DC16     +2128,+2128,+2128,+2128
   \              5008        
   \   00001154   500850085008       DC16     +2128,+2128,+2128,+2128
   \              5008        
   \   0000115C   500850085008       DC16     +2128,+2128,+2128,+2128
   \              5008        
   \   00001164   500850085008       DC16     +2128,+2128,+2128,+2128
   \              5008        
   \   0000116C   500850085008       DC16     +2128,+2128,+2128,+2128
   \              5008        
   \   00001174   500850085008       DC16     +2128,+2128,+2128,+2128
   \              5008        
   \   0000117C   500850085008       DC16     +2128,+2128,+2128,+2128
   \              5008        
   \   00001184   500850085008       DC16     +2128,+2128,+2128,+2128
   \              5008        
   \   0000118C   500850085008       DC16     +2128,+2128,+2128,+2128
   \              5008        
   \   00001194   500850085008       DC16     +2128,+2128,+2128,+2128
   \              5008        
   \   0000119C   500850085008       DC16     +2128,+2128,+2128,+2128
   \              5008        
   \   000011A4   500850085008       DC16     +2128,+2128,+2128,+2128
   \              5008        
   \   000011AC   500850085008       DC16     +2128,+2128,+2128,+2128
   \              5008        
   \   000011B4   500850085008       DC16     +2128,+2128,+2128,+2128
   \              5008        
   \   000011BC   500850085008       DC16     +2128,+2128,+2128,+2128
   \              5008        
   \   000011C4   500850085008       DC16     +2128,+2128,+2128,+2128
   \              5008        
   \   000011CC   500850085008       DC16     +2128,+2128,+2128,+2128
   \              5008        
   \   000011D4   500850085008       DC16     +2128,+2128,+2128,+2128
   \              5008        
   \   000011DC   500850085008       DC16     +2128,+2128,+2128,+2128
   \              5008        
   \   000011E4   500850085008       DC16     +2128,+2128,+2128,+2128
   \              5008        
   \   000011EC   500850085008       DC16     +2128,+2128,+2128,+2128
   \              5008        
   \   000011F4   500850085008       DC16     +2128,+2128,+2128,+2128
   \              5008        
   \   000011FC   500850085008       DC16     +2128,+2128,+2128,+2128
   \              5008        
   \   00001204   500850085008       DC16     +2128,+2128,+2128,+2128
   \              5008        
   \   0000120C   500850085008       DC16     +2128,+2128,+2128,+2128
   \              5008        
   \   00001214   500850085008       DC16     +2128,+2128,+2128,+2128
   \              5008        
   \   0000121C   500850085008       DC16     +2128,+2128,+2128,+2128
   \              5008        
   \   00001224   500850085008       DC16     +2128,+2128,+2128,+2128
   \              5008        
   \   0000122C   500850085008       DC16     +2128,+2128,+2128,+2128
   \              5008        
   \   00001234   500850085008       DC16     +2128,+2128,+2128,+2128
   \              5008        
   \   0000123C   500850085008       DC16     +2128,+2128,+2128,+2128
   \              5008        
   \   00001244   500850085008       DC16     +2128,+2128,+2128,+2128
   \              5008        
   \   0000124C   500850085008       DC16     +2128,+2128,+2128,+2128
   \              5008        
   \   00001254   500850085008       DC16     +2128,+2128,+2128,+2128
   \              5008        
   \   0000125C   500850085008       DC16     +2128,+2128,+2128,+2128
   \              5008        
   \   00001264   500850085008       DC16     +2128,+2128,+2128,+2128
   \              5008        
   \   0000126C   500850085008       DC16     +2128,+2128,+2128,+2128
   \              5008        
   \   00001274   500850085008       DC16     +2128,+2128,+2128,+2128
   \              5008        
   \   0000127C   500850085008       DC16     +2128,+2128,+2128,+2128
   \              5008        
   \   00001284   500850085008       DC16     +2128,+2128,+2128,+2128
   \              5008        
   \   0000128C   500850085008       DC16     +2128,+2128,+2128,+2128
   \              5008        
   \   00001294   500850085008       DC16     +2128,+2128,+2128,+2128
   \              5008        
   \   0000129C   500850085008       DC16     +2128,+2128,+2128,+2128
   \              5008        
   \   000012A4   500850085008       DC16     +2128,+2128,+2128,+2128
   \              5008        
   \   000012AC   500850085008       DC16     +2128,+2128,+2128,+2128
   \              5008        
   \   000012B4   500850085008       DC16     +2128,+2128,+2128,+2128
   \              5008        
   \   000012BC   500850085008       DC16     +2128,+2128,+2128,+2128
   \              5008        
   \   000012C4   500850085008       DC16     +2128,+2128,+2128,+2128
   \              5008        
   \   000012CC   500850085008       DC16     +2128,+2128,+2128,+2128
   \              5008        
   \   000012D4   500850085008       DC16     +2128,+2128,+2128,+2128
   \              5008        
   \   000012DC   500850085008       DC16     +2128,+2128,+2128,+2128
   \              5008        
   \   000012E4   500850085008       DC16     +2128,+2128,+2128,+2128
   \              5008        
   \   000012EC   500850085008       DC16     +2128,+2128,+2128,+2128
   \              5008        
   \   000012F4   500850085008       DC16     +2128,+2128,+2128,+2128
   \              5008        
   \   000012FC   500850085008       DC16     +2128,+2128,+2128,+2128
   \              5008        
   \   00001304   500850085008       DC16     +2128,+2128,+2128,+2128
   \              5008        
   \   0000130C   500850085008       DC16     +2128,+2128,+2128,+2128
   \              5008        
   \   00001314   500850085008       DC16     +2128,+2128,+2128,+2128
   \              5008        
   \   0000131C   500850085008       DC16     +2128,+2128,+2128,+2128
   \              5008        
   \   00001324   500850085008       DC16     +2128,+2128,+2128,+2128
   \              5008        
   \   0000132C   500850085008       DC16     +2128,+2128,+2128,+2128
   \              5008        
   \   00001334   500850085008       DC16     +2128,+2128,+2128,+2128
   \              5008        
   \   0000133C   500850085008       DC16     +2128,+2128,+2128,+2128
   \              5008        
   \   00001344   500850085008       DC16     +2128,+2128,+2128,+2128
   \              5008        
   \   0000134C   500850085008       DC16     +2128,+2128,+2128,+2128
   \              5008        
   \   00001354   500850085008       DC16     +2128,+2128,+2128,+2128
   \              5008        
   \   0000135C   500850085008       DC16     +2128,+2128,+2128,+2128
   \              5008        
   \   00001364   500850085008       DC16     +2128,+2128,+2128,+2128
   \              5008        
   \   0000136C   500850085008       DC16     +2128,+2128,+2128,+2128
   \              5008        
   \   00001374   500850085008       DC16     +2128,+2128,+2128,+2128
   \              5008        
   \   0000137C   500850085008       DC16     +2128,+2128,+2128,+2128
   \              5008        
   \   00001384   500850085008       DC16     +2128,+2128,+2128,+2128
   \              5008        
   \   0000138C   500850085008       DC16     +2128,+2128,+2128,+2128
   \              5008        
   \   00001394   500850085008       DC16     +2128,+2128,+2128,+2128
   \              5008        
   \   0000139C   500850085008       DC16     +2128,+2128,+2128,+2128
   \              5008        
   \   000013A4   500850085008       DC16     +2128,+2128,+2128,+2128
   \              5008        
   \   000013AC   500850085008       DC16     +2128,+2128,+2128,+2128
   \              5008        
   \   000013B4   500850085008       DC16     +2128,+2128,+2128,+2128
   \              5008        
   \   000013BC   500850085008       DC16     +2128,+2128,+2128,+2128
   \              5008        
   \   000013C4   500850085008       DC16     +2128,+2128,+2128,+2128
   \              5008        
   \   000013CC   500850085008       DC16     +2128,+2128,+2128,+2128
   \              5008        
   \   000013D4   500850085008       DC16     +2128,+2128,+2128,+2128
   \              5008        
   \   000013DC   500850085008       DC16     +2128,+2128,+2128,+2128
   \              5008        
   \   000013E4   500850085008       DC16     +2128,+2128,+2128,+2128
   \              5008        
   \   000013EC   500850085008       DC16     +2128,+2128,+2128,+2128
   \              5008        
   \   000013F4   500850085008       DC16     +2128,+2128,+2128,+2128
   \              5008        
   \   000013FC   500850085008       DC16     +2128,+2128,+2128,+2128
   \              5008        
   \   00001404   500850085008       DC16     +2128,+2128,+2128,+2128
   \              5008        
   \   0000140C   500850085008       DC16     +2128,+2128,+2128,+2128
   \              5008        
   \   00001414   500850085008       DC16     +2128,+2128,+2128,+2128
   \              5008        
   \   0000141C   500850085008       DC16     +2128,+2128,+2128,+2128
   \              5008        
   \   00001424   500850085008       DC16     +2128,+2128,+2128,+2128
   \              5008        
   \   0000142C   500850085008       DC16     +2128,+2128,+2128,+2128
   \              5008        
   \   00001434   500850085008       DC16     +2128,+2128,+2128,+2128
   \              5008        
   \   0000143C   500850085008       DC16     +2128,+2128,+2128,+2128
   \              5008        
   \   00001444   500850085008       DC16     +2128,+2128,+2128,+2128
   \              5008        
   \   0000144C   500850085008       DC16     +2128,+2128,+2128,+2128
   \              5008        
   \   00001454   500850085008       DC16     +2128,+2128,+2128,+2128
   \              5008        
   \   0000145C   500850085008       DC16     +2128,+2128,+2128,+2128
   \              5008        
   \   00001464   500850085008       DC16     +2128,+2128,+2128,+2128
   \              5008        
   \   0000146C   500850085008       DC16     +2128,+2128,+2128,+2128
   \              5008        
   \   00001474   500850085008       DC16     +2128,+2128,+2128,+2128
   \              5008        
   \   0000147C   500850085008       DC16     +2128,+2128,+2128,+2128
   \              5008        
   \   00001484   500850085008       DC16     +2128,+2128,+2128,+2128
   \              5008        
   \   0000148C   500850085008       DC16     +2128,+2128,+2128,+2128
   \              5008        
   \   00001494   500850085008       DC16     +2128,+2128,+2128,+2128
   \              5008        
   \   0000149C   500850085008       DC16     +2128,+2128,+2128,+2128
   \              5008        
   \   000014A4   500850085008       DC16     +2128,+2128,+2128,+2128
   \              5008        
   \   000014AC   500850085008       DC16     +2128,+2128,+2128,+2128
   \              5008        
   \   000014B4   500850085008       DC16     +2128,+2128,+2128,+2128
   \              5008        
   \   000014BC   500850085008       DC16     +2128,+2128,+2128,+2128
   \              5008        
   \   000014C4   500850085008       DC16     +2128,+2128,+2128,+2128
   \              5008        
   \   000014CC   500850085008       DC16     +2128,+2128,+2128,+2128
   \              5008        
   \   000014D4   500850085008       DC16     +2128,+2128,+2128,+2128
   \              5008        
   \   000014DC   500850085008       DC16     +2128,+2128,+2128,+2128
   \              5008        
   \   000014E4   500850085008       DC16     +2128,+2128,+2128,+2128
   \              5008        
   \   000014EC   500850085008       DC16     +2128,+2128,+2128,+2128
   \              5008        
   \   000014F4   500850085008       DC16     +2128,+2128,+2128,+2128
   \              5008        
   \   000014FC   500850085008       DC16     +2128,+2128,+2128,+2128
   \              5008        
   \   00001504   500850085008       DC16     +2128,+2128,+2128,+2128
   \              5008        
   \   0000150C   500850085008       DC16     +2128,+2128,+2128,+2128
   \              5008        
   \   00001514   500850085008       DC16     +2128,+2128,+2128,+2128
   \              5008        
   \   0000151C   500850085008       DC16     +2128,+2128,+2128,+2128
   \              5008        
   \   00001524   500850085008       DC16     +2128,+2128,+2128,+2128
   \              5008        
   \   0000152C   500850085008       DC16     +2128,+2128,+2128,+2128
   \              5008        
   \   00001534   500850085008       DC16     +2128,+2128,+2128,+2128
   \              5008        
   \   0000153C   500850085008       DC16     +2128,+2128,+2128,+2128
   \              5008        
   \   00001544   500850085008       DC16     +2128,+2128,+2128,+2128
   \              5008        
   \   0000154C   500850085008       DC16     +2128,+2128,+2128,+2128
   \              5008        
   \   00001554   500850085008       DC16     +2128,+2128,+2128,+2128
   \              5008        
   \   0000155C   500850085008       DC16     +2128,+2128,+2128,+2128
   \              5008        
   \   00001564   500850085008       DC16     +2128,+2128,+2128,+2128
   \              5008        
   \   0000156C   500850085008       DC16     +2128,+2128,+2128,+2128
   \              5008        
   \   00001574   500850085008       DC16     +2128,+2128,+2128,+2128
   \              5008        
   \   0000157C   500850085008       DC16     +2128,+2128,+2128,+2128
   \              5008        
   \   00001584   500850085008       DC16     +2128,+2128,+2128,+2128
   \              5008        
   \   0000158C   500850085008       DC16     +2128,+2128,+2128,+2128
   \              5008        
   \   00001594   500850085008       DC16     +2128,+2128,+2128,+2128
   \              5008        
   \   0000159C   500850085008       DC16     +2128,+2128,+2128,+2128
   \              5008        
   \   000015A4   500850085008       DC16     +2128,+2128,+2128,+2128
   \              5008        
   \   000015AC   500850085008       DC16     +2128,+2128,+2128,+2128
   \              5008        
   \   000015B4   500850085008       DC16     +2128,+2128,+2128,+2128
   \              5008        
   \   000015BC   500850085008       DC16     +2128,+2128,+2128,+2128
   \              5008        
   \   000015C4   500850085008       DC16     +2128,+2128,+2128,+2128
   \              5008        
   \   000015CC   500850085008       DC16     +2128,+2128,+2128,+2128
   \              5008        
   \   000015D4   500850085008       DC16     +2128,+2128,+2128,+2128
   \              5008        
   \   000015DC   500850085008       DC16     +2128,+2128,+2128,+2128
   \              5008        
   \   000015E4   500850085008       DC16     +2128,+2128,+2128,+2128
   \              5008        
   \   000015EC   500850085008       DC16     +2128,+2128,+2128,+2128
   \              5008        
   \   000015F4   500850085008       DC16     +2128,+2128,+2128,+2128
   \              5008        
   \   000015FC   500850085008       DC16     +2128,+2128,+2128,+2128
   \              5008        
   \   00001604   500850085008       DC16     +2128,+2128,+2128,+2128
   \              5008        
   \   0000160C   500850085008       DC16     +2128,+2128,+2128,+2128
   \              5008        
   \   00001614   500850085008       DC16     +2128,+2128,+2128,+2128
   \              5008        
   \   0000161C   500850085008       DC16     +2128,+2128,+2128,+2128
   \              5008        
   \   00001624   500850085008       DC16     +2128,+2128,+2128,+2128
   \              5008        
   \   0000162C   500850085008       DC16     +2128,+2128,+2128,+2128
   \              5008        
   \   00001634   500850085008       DC16     +2128,+2128,+2128,+2128
   \              5008        
   \   0000163C   500850085008       DC16     +2128,+2128,+2128,+2128
   \              5008        
   \   00001644   500850085008       DC16     +2128,+2128,+2128,+2128
   \              5008        
   \   0000164C   500850085008       DC16     +2128,+2128,+2128,+2128
   \              5008        
   \   00001654   500850085008       DC16     +2128,+2128,+2128,+2128
   \              5008        
   \   0000165C   500850085008       DC16     +2128,+2128,+2128,+2128
   \              5008        
   \   00001664   500850085008       DC16     +2128,+2128,+2128,+2128
   \              5008        
   \   0000166C   500850085008       DC16     +2128,+2128,+2128,+2128
   \              5008        
   \   00001674   500850085008       DC16     +2128,+2128,+2128,+2128
   \              5008        
   \   0000167C   500850085008       DC16     +2128,+2128,+2128,+2128
   \              5008        
   \   00001684   500850085008       DC16     +2128,+2128,+2128,+2128
   \              5008        
   \   0000168C   500850085008       DC16     +2128,+2128,+2128,+2128
   \              5008        
   \   00001694   500850085008       DC16     +2128,+2128,+2128,+2128
   \              5008        
   \   0000169C   500850085008       DC16     +2128,+2128,+2128,+2128
   \              5008        
   \   000016A4   500850085008       DC16     +2128,+2128,+2128,+2128
   \              5008        
   \   000016AC   500850085008       DC16     +2128,+2128,+2128,+2128
   \              5008        
   \   000016B4   500850085008       DC16     +2128,+2128,+2128,+2128
   \              5008        
   \   000016BC   500850085008       DC16     +2128,+2128,+2128,+2128
   \              5008        
   \   000016C4   500850085008       DC16     +2128,+2128,+2128,+2128
   \              5008        
   \   000016CC   500850085008       DC16     +2128,+2128,+2128,+2128
   \              5008        
   \   000016D4   500850085008       DC16     +2128,+2128,+2128,+2128
   \              5008        
   \   000016DC   500850085008       DC16     +2128,+2128,+2128,+2128
   \              5008        
   \   000016E4   500850085008       DC16     +2128,+2128,+2128,+2128
   \              5008        
   \   000016EC   500850085008       DC16     +2128,+2128,+2128,+2128
   \              5008        
   \   000016F4   500850085008       DC16     +2128,+2128,+2128,+2128
   \              5008        
   \   000016FC   500850085008       DC16     +2128,+2128,+2128,+2128
   \              5008        
   \   00001704   500850085008       DC16     +2128,+2128,+2128,+2128
   \              5008        
   \   0000170C   500850085008       DC16     +2128,+2128,+2128,+2128
   \              5008        
   \   00001714   500850085008       DC16     +2128,+2128,+2128,+2128
   \              5008        
   \   0000171C   500850085008       DC16     +2128,+2128,+2128,+2128
   \              5008        
   \   00001724   500850085008       DC16     +2128,+2128,+2128,+2128
   \              5008        
   \   0000172C   500850085008       DC16     +2128,+2128,+2128,+2128
   \              5008        
   \   00001734   500850085008       DC16     +2128,+2128,+2128,+2128
   \              5008        
   \   0000173C   500850085008       DC16     +2128,+2128,+2128,+2128
   \              5008        
   \   00001744   500850085008       DC16     +2128,+2128,+2128,+2128
   \              5008        
   \   0000174C   500850085008       DC16     +2128,+2128,+2128,+2128
   \              5008        
   \   00001754   500850085008       DC16     +2128,+2128,+2128,+2128
   \              5008        
   \   0000175C   500850085008       DC16     +2128,+2128,+2128,+2128
   \              5008        
   \   00001764   500850085008       DC16     +2128,+2128,+2128,+2128
   \              5008        
   \   0000176C   500850085008       DC16     +2128,+2128,+2128,+2128
   \              5008        
   \   00001774   500850085008       DC16     +2128,+2128,+2128,+2128
   \              5008        
   \   0000177C   500850085008       DC16     +2128,+2128,+2128,+2128
   \              5008        
   \   00001784   500850085008       DC16     +2128,+2128,+2128,+2128
   \              5008        
   \   0000178C   500850085008       DC16     +2128,+2128,+2128,+2128
   \              5008        
   \   00001794   500850085008       DC16     +2128,+2128,+2128,+2128
   \              5008        
   \   0000179C   500850085008       DC16     +2128,+2128,+2128,+2128
   \              5008        
   \   000017A4   500850085008       DC16     +2128,+2128,+2128,+2128
   \              5008        
   \   000017AC   500850085008       DC16     +2128,+2128,+2128,+2128
   \              5008        
   \   000017B4   500850085008       DC16     +2128,+2128,+2128,+2128
   \              5008        
   \   000017BC   500850085008       DC16     +2128,+2128,+2128,+2128
   \              5008        
   \   000017C4   500850085008       DC16     +2128,+2128,+2128,+2128
   \              5008        
   \   000017CC   500850085008       DC16     +2128,+2128,+2128,+2128
   \              5008        
   \   000017D4   500850085008       DC16     +2128,+2128,+2128,+2128
   \              5008        
   \   000017DC   500850085008       DC16     +2128,+2128,+2128,+2128
   \              5008        
   \   000017E4   500850085008       DC16     +2128,+2128,+2128,+2128
   \              5008        
   \   000017EC   500850085008       DC16     +2128,+2128,+2128,+2128
   \              5008        
   \   000017F4   500850085008       DC16     +2128,+2128,+2128,+2128
   \              5008        
   \   000017FC   500850085008       DC16     +2128,+2128,+2128,+2128
   \              5008        
   \   00001804   500850085008       DC16     +2128,+2128,+2128,+2128
   \              5008        
   \   0000180C   500850085008       DC16     +2128,+2128,+2128,+2128
   \              5008        
   \   00001814   500850085008       DC16     +2128,+2128,+2128,+2128
   \              5008        
   \   0000181C   500850085008       DC16     +2128,+2128,+2128,+2128
   \              5008        
   \   00001824   500850085008       DC16     +2128,+2128,+2128,+2128
   \              5008        
   \   0000182C   500850085008       DC16     +2128,+2128,+2128,+2128
   \              5008        
   \   00001834   500850085008       DC16     +2128,+2128,+2128,+2128
   \              5008        
   \   0000183C   500850085008       DC16     +2128,+2128,+2128,+2128
   \              5008        
   \   00001844   500850085008       DC16     +2128,+2128,+2128,+2128
   \              5008        
   \   0000184C   500850085008       DC16     +2128,+2128,+2128,+2128
   \              5008        
   \   00001854   500850085008       DC16     +2128,+2128,+2128,+2128
   \              5008        
   \   0000185C   500850085008       DC16     +2128,+2128,+2128,+2128
   \              5008        
   \   00001864   500850085008       DC16     +2128,+2128,+2128,+2128
   \              5008        
   \   0000186C   500850085008       DC16     +2128,+2128,+2128,+2128
   \              5008        
   \   00001874   500850085008       DC16     +2128,+2128,+2128,+2128
   \              5008        
   \   0000187C   500850085008       DC16     +2128,+2128,+2128,+2128
   \              5008        
   \   00001884   500850085008       DC16     +2128,+2128,+2128,+2128
   \              5008        
   \   0000188C   500850085008       DC16     +2128,+2128,+2128,+2128
   \              5008        
   \   00001894   500850085008       DC16     +2128,+2128,+2128,+2128
   \              5008        
   \   0000189C   500850085008       DC16     +2128,+2128,+2128,+2128
   \              5008        
   \   000018A4   500850085008       DC16     +2128,+2128,+2128,+2128
   \              5008        
   \   000018AC   500850085008       DC16     +2128,+2128,+2128,+2128
   \              5008        
   \   000018B4   500850085008       DC16     +2128,+2128,+2128,+2128
   \              5008        
   \   000018BC   500850085008       DC16     +2128,+2128,+2128,+2128
   \              5008        
   \   000018C4   500850085008       DC16     +2128,+2128,+2128,+2128
   \              5008        
   \   000018CC   500850085008       DC16     +2128,+2128,+2128,+2128
   \              5008        
   \   000018D4   500850085008       DC16     +2128,+2128,+2128,+2128
   \              5008        
   \   000018DC   500850085008       DC16     +2128,+2128,+2128,+2128
   \              5008        
   \   000018E4   500850085008       DC16     +2128,+2128,+2128,+2128
   \              5008        
   \   000018EC   500850085008       DC16     +2128,+2128,+2128,+2128
   \              5008        
   \   000018F4   500850085008       DC16     +2128,+2128,+2128,+2128
   \              5008        
   \   000018FC   500850085008       DC16     +2128,+2128,+2128,+2128
   \              5008        
   \   00001904   500850085008       DC16     +2128,+2128,+2128,+2128
   \              5008        
   \   0000190C   500850085008       DC16     +2128,+2128,+2128,+2128
   \              5008        
   \   00001914   500850085008       DC16     +2128,+2128,+2128,+2128
   \              5008        
   \   0000191C   500850085008       DC16     +2128,+2128,+2128,+2128
   \              5008        
   \   00001924   500850085008       DC16     +2128,+2128,+2128,+2128
   \              5008        
   \   0000192C   500850085008       DC16     +2128,+2128,+2128,+2128
   \              5008        
   \   00001934   500850085008       DC16     +2128,+2128,+2128,+2128
   \              5008        
   \   0000193C   500850085008       DC16     +2128,+2128,+2128,+2128
   \              5008        
   \   00001944   500850085008       DC16     +2128,+2128,+2128,+2128
   \              5008        
   \   0000194C   500850085008       DC16     +2128,+2128,+2128,+2128
   \              5008        
   \   00001954   500850085008       DC16     +2128,+2128,+2128,+2128
   \              5008        
   \   0000195C   500850085008       DC16     +2128,+2128,+2128,+2128
   \              5008        
   \   00001964   500850085008       DC16     +2128,+2128,+2128,+2128
   \              5008        
   \   0000196C   500850085008       DC16     +2128,+2128,+2128,+2128
   \              5008        
   \   00001974   500850085008       DC16     +2128,+2128,+2128,+2128
   \              5008        
   \   0000197C   500850085008       DC16     +2128,+2128,+2128,+2128
   \              5008        
   \   00001984   500850085008       DC16     +2128,+2128,+2128,+2128
   \              5008        
   \   0000198C   500850085008       DC16     +2128,+2128,+2128,+2128
   \              5008        
   \   00001994   500850085008       DC16     +2128,+2128,+2128,+2128
   \              5008        
   \   0000199C   500850085008       DC16     +2128,+2128,+2128,+2128
   \              5008        
   \   000019A4   500850085008       DC16     +2128,+2128,+2128,+2128
   \              5008        
   \   000019AC   500850085008       DC16     +2128,+2128,+2128,+2128
   \              5008        
   \   000019B4   500850085008       DC16     +2128,+2128,+2128,+2128
   \              5008        
   \   000019BC   500850085008       DC16     +2128,+2128,+2128,+2128
   \              5008        
   \   000019C4   500850085008       DC16     +2128,+2128,+2128,+2128
   \              5008        
   \   000019CC   500850085008       DC16     +2128,+2128,+2128,+2128
   \              5008        
   \   000019D4   500850085008       DC16     +2128,+2128,+2128,+2128
   \              5008        
   \   000019DC   500850085008       DC16     +2128,+2128,+2128,+2128
   \              5008        
   \   000019E4   500850085008       DC16     +2128,+2128,+2128,+2128
   \              5008        
   \   000019EC   500850085008       DC16     +2128,+2128,+2128,+2128
   \              5008        
   \   000019F4   500850085008       DC16     +2128,+2128,+2128,+2128
   \              5008        
   \   000019FC   500850085008       DC16     +2128,+2128,+2128,+2128
   \              5008        
   \   00001A04   500850085008       DC16     +2128,+2128,+2128,+2128
   \              5008        
   \   00001A0C   500850085008       DC16     +2128,+2128,+2128,+2128
   \              5008        
   \   00001A14   500850085008       DC16     +2128,+2128,+2128,+2128
   \              5008        
   \   00001A1C   500850085008       DC16     +2128,+2128,+2128,+2128
   \              5008        
   \   00001A24   500850085008       DC16     +2128,+2128,+2128,+2128
   \              5008        
   \   00001A2C   500850085008       DC16     +2128,+2128,+2128,+2128
   \              5008        
   \   00001A34   500850085008       DC16     +2128,+2128,+2128,+2128
   \              5008        
   \   00001A3C   500850085008       DC16     +2128,+2128,+2128,+2128
   \              5008        
   \   00001A44   500850085008       DC16     +2128,+2128,+2128,+2128
   \              5008        
   \   00001A4C   500850085008       DC16     +2128,+2128,+2128,+2128
   \              5008        
   \   00001A54   500850085008       DC16     +2128,+2128,+2128,+2128
   \              5008        
   \   00001A5C   500850085008       DC16     +2128,+2128,+2128,+2128
   \              5008        
   \   00001A64   500850085008       DC16     +2128,+2128,+2128,+2128
   \              5008        
   \   00001A6C   500850085008       DC16     +2128,+2128,+2128,+2128
   \              5008        
   \   00001A74   500850085008       DC16     +2128,+2128,+2128,+2128
   \              5008        
   \   00001A7C   500850085008       DC16     +2128,+2128,+2128,+2128
   \              5008        
   \   00001A84   500850085008       DC16     +2128,+2128,+2128,+2128
   \              5008        
   \   00001A8C   500850085008       DC16     +2128,+2128,+2128,+2128
   \              5008        
   \   00001A94   500850085008       DC16     +2128,+2128,+2128,+2128
   \              5008        
   \   00001A9C   500850085008       DC16     +2128,+2128,+2128,+2128
   \              5008        
   \   00001AA4   500850085008       DC16     +2128,+2128,+2128,+2128
   \              5008        
   \   00001AAC   500850085008       DC16     +2128,+2128,+2128,+2128
   \              5008        
   \   00001AB4   500850085008       DC16     +2128,+2128,+2128,+2128
   \              5008        
   \   00001ABC   500850085008       DC16     +2128,+2128,+2128,+2128
   \              5008        
   \   00001AC4   500850085008       DC16     +2128,+2128,+2128,+2128
   \              5008        
   \   00001ACC   500850085008       DC16     +2128,+2128,+2128,+2128
   \              5008        
   \   00001AD4   500850085008       DC16     +2128,+2128,+2128,+2128
   \              5008        
   \   00001ADC   500850085008       DC16     +2128,+2128,+2128,+2128
   \              5008        
   \   00001AE4   500850085008       DC16     +2128,+2128,+2128,+2128
   \              5008        
   \   00001AEC   500850085008       DC16     +2128,+2128,+2128,+2128
   \              5008        
   \   00001AF4   500850085008       DC16     +2128,+2128,+2128,+2128
   \              5008        
   \   00001AFC   500850085008       DC16     +2128,+2128,+2128,+2128
   \              5008        
   \   00001B04   500850085008       DC16     +2128,+2128,+2128,+2128
   \              5008        
   \   00001B0C   500850085008       DC16     +2128,+2128,+2128,+2128
   \              5008        
   \   00001B14   500850085008       DC16     +2128,+2128,+2128,+2128
   \              5008        
   \   00001B1C   500850085008       DC16     +2128,+2128,+2128,+2128
   \              5008        
   \   00001B24   500850085008       DC16     +2128,+2128,+2128,+2128
   \              5008        
   \   00001B2C   500850085008       DC16     +2128,+2128,+2128,+2128
   \              5008        
   \   00001B34   500850085008       DC16     +2128,+2128,+2128,+2128
   \              5008        
   \   00001B3C   500850085008       DC16     +2128,+2128,+2128,+2128
   \              5008        
   \   00001B44   500850085008       DC16     +2128,+2128,+2128,+2128
   \              5008        
   \   00001B4C   500850085008       DC16     +2128,+2128,+2128,+2128
   \              5008        
   \   00001B54   500850085008       DC16     +2128,+2128,+2128,+2128
   \              5008        
   \   00001B5C   500850085008       DC16     +2128,+2128,+2128,+2128
   \              5008        
   \   00001B64   500850085008       DC16     +2128,+2128,+2128,+2128
   \              5008        
   \   00001B6C   500850085008       DC16     +2128,+2128,+2128,+2128
   \              5008        
   \   00001B74   500850085008       DC16     +2128,+2128,+2128,+2128
   \              5008        
   \   00001B7C   500850085008       DC16     +2128,+2128,+2128,+2128
   \              5008        
   \   00001B84   500850085008       DC16     +2128,+2128,+2128,+2128
   \              5008        
   \   00001B8C   500850085008       DC16     +2128,+2128,+2128,+2128
   \              5008        
   \   00001B94   500850085008       DC16     +2128,+2128,+2128,+2128
   \              5008        
   \   00001B9C   500850085008       DC16     +2128,+2128,+2128,+2128
   \              5008        
   \   00001BA4   500850085008       DC16     +2128,+2128,+2128,+2128
   \              5008        
   \   00001BAC   500850085008       DC16     +2128,+2128,+2128,+2128
   \              5008        
   \   00001BB4   500850085008       DC16     +2128,+2128,+2128,+2128
   \              5008        
   \   00001BBC   500850085008       DC16     +2128,+2128,+2128,+2128
   \              5008        
   \   00001BC4   500850085008       DC16     +2128,+2128,+2128,+2128
   \              5008        
   \   00001BCC   500850085008       DC16     +2128,+2128,+2128,+2128
   \              5008        
   \   00001BD4   500850085008       DC16     +2128,+2128,+2128,+2128
   \              5008        
   \   00001BDC   500850085008       DC16     +2128,+2128,+2128,+2128
   \              5008        
   \   00001BE4   500850085008       DC16     +2128,+2128,+2128,+2128
   \              5008        
   \   00001BEC   500850085008       DC16     +2128,+2128,+2128,+2128
   \              5008        
   \   00001BF4   500850085008       DC16     +2128,+2128,+2128,+2128
   \              5008        
   \   00001BFC   500850085008       DC16     +2128,+2128,+2128,+2128
   \              5008        
   \   00001C04   500850085008       DC16     +2128,+2128,+2128,+2128
   \              5008        
   \   00001C0C   500850085008       DC16     +2128,+2128,+2128,+2128
   \              5008        
   \   00001C14   500850085008       DC16     +2128,+2128,+2128,+2128
   \              5008        
   \   00001C1C   500850085008       DC16     +2128,+2128,+2128,+2128
   \              5008        
   \   00001C24   500850085008       DC16     +2128,+2128,+2128,+2128
   \              5008        
   \   00001C2C   500850085008       DC16     +2128,+2128,+2128,+2128
   \              5008        
   \   00001C34   500850085008       DC16     +2128,+2128,+2128,+2128
   \              5008        
   \   00001C3C   500850085008       DC16     +2128,+2128,+2128,+2128
   \              5008        
   \   00001C44   500850085008       DC16     +2128,+2128,+2128,+2128
   \              5008        
   \   00001C4C   500850085008       DC16     +2128,+2128,+2128,+2128
   \              5008        
   \   00001C54   500850085008       DC16     +2128,+2128,+2128,+2128
   \              5008        
   \   00001C5C   500850085008       DC16     +2128,+2128,+2128,+2128
   \              5008        
   \   00001C64   500850085008       DC16     +2128,+2128,+2128,+2128
   \              5008        
   \   00001C6C   500850085008       DC16     +2128,+2128,+2128,+2128
   \              5008        
   \   00001C74   500850085008       DC16     +2128,+2128,+2128,+2128
   \              5008        
   \   00001C7C   500850085008       DC16     +2128,+2128,+2128,+2128
   \              5008        
   \   00001C84   500850085008       DC16     +2128,+2128,+2128,+2128
   \              5008        
   \   00001C8C   500850085008       DC16     +2128,+2128,+2128,+2128
   \              5008        
   \   00001C94   500850085008       DC16     +2128,+2128,+2128,+2128
   \              5008        
   \   00001C9C   500850085008       DC16     +2128,+2128,+2128,+2128
   \              5008        
   \   00001CA4   500850085008       DC16     +2128,+2128,+2128,+2128
   \              5008        
   \   00001CAC   500850085008       DC16     +2128,+2128,+2128,+2128
   \              5008        
   \   00001CB4   500850085008       DC16     +2128,+2128,+2128,+2128
   \              5008        
   \   00001CBC   500850085008       DC16     +2128,+2128,+2128,+2128
   \              5008        
   \   00001CC4   500850085008       DC16     +2128,+2128,+2128,+2128
   \              5008        
   \   00001CCC   500850085008       DC16     +2128,+2128,+2128,+2128
   \              5008        
   \   00001CD4   500850085008       DC16     +2128,+2128,+2128,+2128
   \              5008        
   \   00001CDC   500850085008       DC16     +2128,+2128,+2128,+2128
   \              5008        
   \   00001CE4   500850085008       DC16     +2128,+2128,+2128,+2128
   \              5008        
   \   00001CEC   500850085008       DC16     +2128,+2128,+2128,+2128
   \              5008        
   \   00001CF4   500850085008       DC16     +2128,+2128,+2128,+2128
   \              5008        
   \   00001CFC   500850085008       DC16     +2128,+2128,+2128,+2128
   \              5008        
   \   00001D04   500850085008       DC16     +2128,+2128,+2128,+2128
   \              5008        
   \   00001D0C   500850085008       DC16     +2128,+2128,+2128,+2128
   \              5008        
   \   00001D14   500850085008       DC16     +2128,+2128,+2128,+2128
   \              5008        
   \   00001D1C   500850085008       DC16     +2128,+2128,+2128,+2128
   \              5008        
   \   00001D24   500850085008       DC16     +2128,+2128,+2128,+2128
   \              5008        
   \   00001D2C   500850085008       DC16     +2128,+2128,+2128,+2128
   \              5008        
   \   00001D34   500850085008       DC16     +2128,+2128,+2128,+2128
   \              5008        
   \   00001D3C   500850085008       DC16     +2128,+2128,+2128,+2128
   \              5008        
   \   00001D44   500850085008       DC16     +2128,+2128,+2128,+2128
   \              5008        
   \   00001D4C   500850085008       DC16     +2128,+2128,+2128,+2128
   \              5008        
   \   00001D54   500850085008       DC16     +2128,+2128,+2128,+2128
   \              5008        
   \   00001D5C   500850085008       DC16     +2128,+2128,+2128,+2128
   \              5008        
   \   00001D64   500850085008       DC16     +2128,+2128,+2128,+2128
   \              5008        
   \   00001D6C   500850085008       DC16     +2128,+2128,+2128,+2128
   \              5008        
   \   00001D74   500850085008       DC16     +2128,+2128,+2128,+2128
   \              5008        
   \   00001D7C   500850085008       DC16     +2128,+2128,+2128,+2128
   \              5008        
   \   00001D84   500850085008       DC16     +2128,+2128,+2128,+2128
   \              5008        
   \   00001D8C   500850085008       DC16     +2128,+2128,+2128,+2128
   \              5008        
   \   00001D94   500850085008       DC16     +2128,+2128,+2128,+2128
   \              5008        
   \   00001D9C   500850085008       DC16     +2128,+2128,+2128,+2128
   \              5008        
   \   00001DA4   500850085008       DC16     +2128,+2128,+2128,+2128
   \              5008        
   \   00001DAC   500850085008       DC16     +2128,+2128,+2128,+2128
   \              5008        
   \   00001DB4   500850085008       DC16     +2128,+2128,+2128,+2128
   \              5008        
   \   00001DBC   500850085008       DC16     +2128,+2128,+2128,+2128
   \              5008        
   \   00001DC4   500850085008       DC16     +2128,+2128,+2128,+2128
   \              5008        
   \   00001DCC   500850085008       DC16     +2128,+2128,+2128,+2128
   \              5008        
   \   00001DD4   500850085008       DC16     +2128,+2128,+2128,+2128
   \              5008        
   \   00001DDC   500850085008       DC16     +2128,+2128,+2128,+2128
   \              5008        
   \   00001DE4   500850085008       DC16     +2128,+2128,+2128,+2128
   \              5008        
   \   00001DEC   500850085008       DC16     +2128,+2128,+2128,+2128
   \              5008        
   \   00001DF4   500850085008       DC16     +2128,+2128,+2128,+2128
   \              5008        
   \   00001DFC   500850085008       DC16     +2128,+2128,+2128,+2128
   \              5008        
   \   00001E04   500850085008       DC16     +2128,+2128,+2128,+2128
   \              5008        
   \   00001E0C   500850085008       DC16     +2128,+2128,+2128,+2128
   \              5008        
   \   00001E14   500850085008       DC16     +2128,+2128,+2128,+2128
   \              5008        
   \   00001E1C   500850085008       DC16     +2128,+2128,+2128,+2128
   \              5008        
   \   00001E24   500850085008       DC16     +2128,+2128,+2128,+2128
   \              5008        
   \   00001E2C   500850085008       DC16     +2128,+2128,+2128,+2128
   \              5008        
   \   00001E34   500850085008       DC16     +2128,+2128,+2128,+2128
   \              5008        
   \   00001E3C   500850085008       DC16     +2128,+2128,+2128,+2128
   \              5008        
   \   00001E44   500850085008       DC16     +2128,+2128,+2128,+2128
   \              5008        
   \   00001E4C   500850085008       DC16     +2128,+2128,+2128,+2128
   \              5008        
   \   00001E54   500850085008       DC16     +2128,+2128,+2128,+2128
   \              5008        
   \   00001E5C   500850085008       DC16     +2128,+2128,+2128,+2128
   \              5008        
   \   00001E64   500850085008       DC16     +2128,+2128,+2128,+2128
   \              5008        
   \   00001E6C   500850085008       DC16     +2128,+2128,+2128,+2128
   \              5008        
   \   00001E74   500850085008       DC16     +2128,+2128,+2128,+2128
   \              5008        
   \   00001E7C   500850085008       DC16     +2128,+2128,+2128,+2128
   \              5008        
   \   00001E84   500850085008       DC16     +2128,+2128,+2128,+2128
   \              5008        
   \   00001E8C   500850085008       DC16     +2128,+2128,+2128,+2128
   \              5008        
   \   00001E94   500850085008       DC16     +2128,+2128,+2128,+2128
   \              5008        
   \   00001E9C   500850085008       DC16     +2128,+2128,+2128,+2128
   \              5008        
   \   00001EA4   500850085008       DC16     +2128,+2128,+2128,+2128
   \              5008        
   \   00001EAC   500850085008       DC16     +2128,+2128,+2128,+2128
   \              5008        
   \   00001EB4   500850085008       DC16     +2128,+2128,+2128,+2128
   \              5008        
   \   00001EBC   500850085008       DC16     +2128,+2128,+2128,+2128
   \              5008        
   \   00001EC4   500850085008       DC16     +2128,+2128,+2128,+2128
   \              5008        
   \   00001ECC   500850085008       DC16     +2128,+2128,+2128,+2128
   \              5008        
   \   00001ED4   500850085008       DC16     +2128,+2128,+2128,+2128
   \              5008        
   \   00001EDC   500850085008       DC16     +2128,+2128,+2128,+2128
   \              5008        
   \   00001EE4   500850085008       DC16     +2128,+2128,+2128,+2128
   \              5008        
   \   00001EEC   500850085008       DC16     +2128,+2128,+2128,+2128
   \              5008        
   \   00001EF4   500850085008       DC16     +2128,+2128,+2128,+2128
   \              5008        
   \   00001EFC   500850085008       DC16     +2128,+2128,+2128,+2128
   \              5008        
   \   00001F04   500850085008       DC16     +2128,+2128,+2128,+2128
   \              5008        
   \   00001F0C   500850085008       DC16     +2128,+2128,+2128,+2128
   \              5008        
   \   00001F14   500850085008       DC16     +2128,+2128,+2128,+2128
   \              5008        
   \   00001F1C   500850085008       DC16     +2128,+2128,+2128,+2128
   \              5008        
   \   00001F24   500850085008       DC16     +2128,+2128,+2128,+2128
   \              5008        
   \   00001F2C   500850085008       DC16     +2128,+2128,+2128,+2128
   \              5008        
   \   00001F34   500850085008       DC16     +2128,+2128,+2128,+2128
   \              5008        
   \   00001F3C   500850085008       DC16     +2128,+2128,+2128,+2128
   \              5008        
   \   00001F44   500850085008       DC16     +2128,+2128,+2128,+2128
   \              5008        
   \   00001F4C   500850085008       DC16     +2128,+2128,+2128,+2128
   \              5008        
   \   00001F54   500850085008       DC16     +2128,+2128,+2128,+2128
   \              5008        
   \   00001F5C   500850085008       DC16     +2128,+2128,+2128,+2128
   \              5008        
   \   00001F64   500850085008       DC16     +2128,+2128,+2128,+2128
   \              5008        
   \   00001F6C   500850085008       DC16     +2128,+2128,+2128,+2128
   \              5008        
   \   00001F74   500850085008       DC16     +2128,+2128,+2128,+2128
   \              5008        
   \   00001F7C   500850085008       DC16     +2128,+2128,+2128,+2128
   \              5008        
   \   00001F84   500850085008       DC16     +2128,+2128,+2128,+2128
   \              5008        
   \   00001F8C   500850085008       DC16     +2128,+2128,+2128,+2128
   \              5008        
   \   00001F94   500850085008       DC16     +2128,+2128,+2128,+2128
   \              5008        
   \   00001F9C   500850085008       DC16     +2128,+2128,+2128,+2128
   \              5008        
   \   00001FA4   500850085008       DC16     +2128,+2128,+2128,+2128
   \              5008        
   \   00001FAC   500850085008       DC16     +2128,+2128,+2128,+2128
   \              5008        
   \   00001FB4   500850085008       DC16     +2128,+2128,+2128,+2128
   \              5008        
   \   00001FBC   500850085008       DC16     +2128,+2128,+2128,+2128
   \              5008        
   \   00001FC4   500850085008       DC16     +2128,+2128,+2128,+2128
   \              5008        
   \   00001FCC   500850085008       DC16     +2128,+2128,+2128,+2128
   \              5008        
   \   00001FD4   500850085008       DC16     +2128,+2128,+2128,+2128
   \              5008        
   \   00001FDC   500850085008       DC16     +2128,+2128,+2128,+2128
   \              5008        
   \   00001FE4   500850085008       DC16     +2128,+2128,+2128,+2128
   \              5008        
   \   00001FEC   500850085008       DC16     +2128,+2128,+2128,+2128
   \              5008        
   \   00001FF4   500850085008       DC16     +2128,+2128,+2128,+2128
   \              5008        
   \   00001FFC   500850085008       DC16     +2128,+2128,+2128,+2128
   \              5008        
   \   00002004   500850085008       DC16     +2128,+2128,+2128,+2128
   \              5008        
   \   0000200C   500850085008       DC16     +2128,+2128,+2128,+2128
   \              5008        
   \   00002014   500850085008       DC16     +2128,+2128,+2128,+2128
   \              5008        
   \   0000201C   500850085008       DC16     +2128,+2128,+2128,+2128
   \              5008        
   \   00002024   500850085008       DC16     +2128,+2128,+2128,+2128
   \              5008        
   \   0000202C   500850085008       DC16     +2128,+2128,+2128,+2128
   \              5008        
   \   00002034   500850085008       DC16     +2128,+2128,+2128,+2128
   \              5008        
   \   0000203C   500850085008       DC16     +2128,+2128,+2128,+2128
   \              5008        
   \   00002044   500850085008       DC16     +2128,+2128,+2128,+2128
   \              5008        
   \   0000204C   500850085008       DC16     +2128,+2128,+2128,+2128
   \              5008        
   \   00002054   500850085008       DC16     +2128,+2128,+2128,+2128
   \              5008        
   \   0000205C   500850080B08       DC16     +2128,+2128,+2059,+2128
   \              5008        
   \   00002064   500850080E08       DC16     +2128,+2128,+2062,+0
   \              0000        
   2104          
   2105              /* The option flags */
   2106              case SO_BROADCAST:
   2107              /* UNIMPL case SO_DEBUG: */
   2108              /* UNIMPL case SO_DONTROUTE: */
   2109              case SO_KEEPALIVE:
   2110              /* UNIMPL case SO_OOBINCLUDE: */
   2111          #if SO_REUSE
   2112              case SO_REUSEADDR:
   2113              case SO_REUSEPORT:
   2114          #endif /* SO_REUSE */
   2115              /* UNIMPL case SO_USELOOPBACK: */
   2116                if (*(int*)optval) {
   \                     ??lwip_setsockopt_internal_5:
   \   0000206C   003093E5           LDR      R3,[R3, #+0]
   \   00002070   000053E3           CMP      R3,#+0
   \   00002074   043090E5           LDR      R3,[R0, #+4]
   \   00002078   0800D3E5           LDRB     R0,[R3, #+8]
   \   0000207C   0200C001           BICEQ    R0,R0,R2
   2117                  ip_set_option(sock->conn->pcb.ip, optname);
   \   00002080   00008211           ORRNE    R0,R2,R0
   \   00002084   0800C3E5           STRB     R0,[R3, #+8]
   \   00002088   440000EA           B        ??lwip_setsockopt_internal_4
   2118                } else {
   2119                  ip_reset_option(sock->conn->pcb.ip, optname);
   2120                }
   2121                LWIP_DEBUGF(SOCKETS_DEBUG, ("lwip_setsockopt(%d, SOL_SOCKET, optname=0x%x, ..) -> %s\n",
   2122                            s, optname, (*(int*)optval?"on":"off")));
   2123                break;
   2124          #if LWIP_SO_SNDTIMEO
   2125              case SO_SNDTIMEO:
   2126                netconn_set_sendtimeout(sock->conn, (s32_t)*(int*)optval);
   2127                break;
   2128          #endif /* LWIP_SO_SNDTIMEO */
   2129          #if LWIP_SO_RCVTIMEO
   2130              case SO_RCVTIMEO:
   2131                netconn_set_recvtimeout(sock->conn, *(int*)optval);
   \                     ??lwip_setsockopt_internal_6:
   \   0000208C   002093E5           LDR      R2,[R3, #+0]
   \   00002090   482080E5           STR      R2,[R0, #+72]
   \   00002094   410000EA           B        ??lwip_setsockopt_internal_4
   2132                break;
   2133          #endif /* LWIP_SO_RCVTIMEO */
   2134          #if LWIP_SO_RCVBUF
   2135              case SO_RCVBUF:
   2136                netconn_set_recvbufsize(sock->conn, *(int*)optval);
   2137                break;
   2138          #endif /* LWIP_SO_RCVBUF */
   2139          #if LWIP_UDP
   2140              case SO_NO_CHECK:
   2141                if (*(int*)optval) {
   \                     ??lwip_setsockopt_internal_7:
   \   00002098   002093E5           LDR      R2,[R3, #+0]
   \   0000209C   000052E3           CMP      R2,#+0
   \   000020A0   0400000A           BEQ      ??lwip_setsockopt_internal_8
   2142                  udp_setflags(sock->conn->pcb.udp, udp_flags(sock->conn->pcb.udp) | UDP_FLAGS_NOCHKSUM);
   \   000020A4   042090E5           LDR      R2,[R0, #+4]
   \   000020A8   1000D2E5           LDRB     R0,[R2, #+16]
   \   000020AC   010080E3           ORR      R0,R0,#0x1
   \   000020B0   1000C2E5           STRB     R0,[R2, #+16]
   \   000020B4   390000EA           B        ??lwip_setsockopt_internal_4
   2143                } else {
   2144                  udp_setflags(sock->conn->pcb.udp, udp_flags(sock->conn->pcb.udp) & ~UDP_FLAGS_NOCHKSUM);
   \                     ??lwip_setsockopt_internal_8:
   \   000020B8   040090E5           LDR      R0,[R0, #+4]
   \   000020BC   1020D0E5           LDRB     R2,[R0, #+16]
   \   000020C0   FE2002E2           AND      R2,R2,#0xFE
   \   000020C4   1020C0E5           STRB     R2,[R0, #+16]
   \   000020C8   340000EA           B        ??lwip_setsockopt_internal_4
   2145                }
   2146                break;
   2147          #endif /* LWIP_UDP */
   2148              default:
   2149                LWIP_ASSERT("unhandled optname", 0);
   2150                break;
   2151              }  /* switch (optname) */
   2152              break;
   2153          
   2154          /* Level: IPPROTO_IP */
   2155            case IPPROTO_IP:
   2156              switch (optname) {
   \                     ??lwip_setsockopt_internal_2:
   \   000020CC   000091E5           LDR      R0,[R1, #+0]
   \   000020D0   012052E2           SUBS     R2,R2,#+1
   \   000020D4   0500000A           BEQ      ??lwip_setsockopt_internal_9
   \   000020D8   012052E2           SUBS     R2,R2,#+1
   \   000020DC   2F00001A           BNE      ??lwip_setsockopt_internal_4
   2157              case IP_TTL:
   2158                sock->conn->pcb.ip->ttl = (u8_t)(*(int*)optval);
   \   000020E0   040090E5           LDR      R0,[R0, #+4]
   \   000020E4   002093E5           LDR      R2,[R3, #+0]
   \   000020E8   0A20C0E5           STRB     R2,[R0, #+10]
   \   000020EC   2B0000EA           B        ??lwip_setsockopt_internal_4
   2159                LWIP_DEBUGF(SOCKETS_DEBUG, ("lwip_setsockopt(%d, IPPROTO_IP, IP_TTL, ..) -> %d\n",
   2160                            s, sock->conn->pcb.ip->ttl));
   2161                break;
   2162              case IP_TOS:
   2163                sock->conn->pcb.ip->tos = (u8_t)(*(int*)optval);
   \                     ??lwip_setsockopt_internal_9:
   \   000020F0   040090E5           LDR      R0,[R0, #+4]
   \   000020F4   002093E5           LDR      R2,[R3, #+0]
   \   000020F8   0920C0E5           STRB     R2,[R0, #+9]
   \   000020FC   270000EA           B        ??lwip_setsockopt_internal_4
   2164                LWIP_DEBUGF(SOCKETS_DEBUG, ("lwip_setsockopt(%d, IPPROTO_IP, IP_TOS, ..)-> %d\n",
   2165                            s, sock->conn->pcb.ip->tos));
   2166                break;
   2167          #if LWIP_IGMP
   2168              case IP_MULTICAST_TTL:
   2169                sock->conn->pcb.udp->ttl = (u8_t)(*(u8_t*)optval);
   2170                break;
   2171              case IP_MULTICAST_IF:
   2172                inet_addr_to_ipaddr(&sock->conn->pcb.udp->multicast_ip, (struct in_addr*)optval);
   2173                break;
   2174              case IP_MULTICAST_LOOP:
   2175                if (*(u8_t*)optval) {
   2176                  udp_setflags(sock->conn->pcb.udp, udp_flags(sock->conn->pcb.udp) | UDP_FLAGS_MULTICAST_LOOP);
   2177                } else {
   2178                  udp_setflags(sock->conn->pcb.udp, udp_flags(sock->conn->pcb.udp) & ~UDP_FLAGS_MULTICAST_LOOP);
   2179                }
   2180                break;
   2181              case IP_ADD_MEMBERSHIP:
   2182              case IP_DROP_MEMBERSHIP:
   2183                {
   2184                  /* If this is a TCP or a RAW socket, ignore these options. */
   2185                  struct ip_mreq *imr = (struct ip_mreq *)optval;
   2186                  ip_addr_t if_addr;
   2187                  ip_addr_t multi_addr;
   2188                  inet_addr_to_ipaddr(&if_addr, &imr->imr_interface);
   2189                  inet_addr_to_ipaddr(&multi_addr, &imr->imr_multiaddr);
   2190                  if(optname == IP_ADD_MEMBERSHIP){
   2191                    data->err = igmp_joingroup(&if_addr, &multi_addr);
   2192                  } else {
   2193                    data->err = igmp_leavegroup(&if_addr, &multi_addr);
   2194                  }
   2195                  if(data->err != ERR_OK) {
   2196                    data->err = EADDRNOTAVAIL;
   2197                  }
   2198                }
   2199                break;
   2200          #endif /* LWIP_IGMP */
   2201              default:
   2202                LWIP_ASSERT("unhandled optname", 0);
   2203                break;
   2204              }  /* switch (optname) */
   2205              break;
   2206          
   2207          #if LWIP_TCP
   2208          /* Level: IPPROTO_TCP */
   2209            case IPPROTO_TCP:
   2210              switch (optname) {
   \                     ??lwip_setsockopt_internal_3:
   \   00002100   000091E5           LDR      R0,[R1, #+0]
   \   00002104   012042E2           SUB      R2,R2,#+1
   \   00002108   040052E3           CMP      R2,#+4
   \   0000210C   2300008A           BHI      ??lwip_setsockopt_internal_4
   \   00002110   014F8FE2           ADR      R4,??lwip_setsockopt_internal_1
   \   00002114   0240D4E7           LDRB     R4,[R4, R2]
   \   00002118   04F18FE0           ADD      PC,PC,R4, LSL #+2
   \                     ??lwip_setsockopt_internal_1:
   \   0000211C   010E1217           DC8      +1,+14,+18,+23
   \   00002120   1D000000           DC8      +29,+0,+0,+0
   2211              case TCP_NODELAY:
   2212                if (*(int*)optval) {
   \                     ??lwip_setsockopt_internal_10:
   \   00002124   002093E5           LDR      R2,[R3, #+0]
   \   00002128   000052E3           CMP      R2,#+0
   \   0000212C   0400000A           BEQ      ??lwip_setsockopt_internal_11
   2213                  tcp_nagle_disable(sock->conn->pcb.tcp);
   \   00002130   042090E5           LDR      R2,[R0, #+4]
   \   00002134   1E00D2E5           LDRB     R0,[R2, #+30]
   \   00002138   400080E3           ORR      R0,R0,#0x40
   \   0000213C   1E00C2E5           STRB     R0,[R2, #+30]
   \   00002140   160000EA           B        ??lwip_setsockopt_internal_4
   2214                } else {
   2215                  tcp_nagle_enable(sock->conn->pcb.tcp);
   \                     ??lwip_setsockopt_internal_11:
   \   00002144   040090E5           LDR      R0,[R0, #+4]
   \   00002148   1E20D0E5           LDRB     R2,[R0, #+30]
   \   0000214C   BF2002E2           AND      R2,R2,#0xBF
   \   00002150   1E20C0E5           STRB     R2,[R0, #+30]
   \   00002154   110000EA           B        ??lwip_setsockopt_internal_4
   2216                }
   2217                LWIP_DEBUGF(SOCKETS_DEBUG, ("lwip_setsockopt(%d, IPPROTO_TCP, TCP_NODELAY) -> %s\n",
   2218                            s, (*(int *)optval)?"on":"off") );
   2219                break;
   2220              case TCP_KEEPALIVE:
   2221                sock->conn->pcb.tcp->keep_idle = (u32_t)(*(int*)optval);
   \                     ??lwip_setsockopt_internal_12:
   \   00002158   040090E5           LDR      R0,[R0, #+4]
   \   0000215C   002093E5           LDR      R2,[R3, #+0]
   \                     ??lwip_setsockopt_internal_13:
   \   00002160   902080E5           STR      R2,[R0, #+144]
   \   00002164   0D0000EA           B        ??lwip_setsockopt_internal_4
   2222                LWIP_DEBUGF(SOCKETS_DEBUG, ("lwip_setsockopt(%d, IPPROTO_TCP, TCP_KEEPALIVE) -> %"U32_F"\n",
   2223                            s, sock->conn->pcb.tcp->keep_idle));
   2224                break;
   2225          
   2226          #if LWIP_TCP_KEEPALIVE
   2227              case TCP_KEEPIDLE:
   2228                sock->conn->pcb.tcp->keep_idle = 1000*(u32_t)(*(int*)optval);
   \                     ??lwip_setsockopt_internal_14:
   \   00002168   002093E5           LDR      R2,[R3, #+0]
   \   0000216C   040090E5           LDR      R0,[R0, #+4]
   \   00002170   FA3FA0E3           MOV      R3,#+1000
   \   00002174   930202E0           MUL      R2,R3,R2
   \   00002178   F8FFFFEA           B        ??lwip_setsockopt_internal_13
   2229                LWIP_DEBUGF(SOCKETS_DEBUG, ("lwip_setsockopt(%d, IPPROTO_TCP, TCP_KEEPIDLE) -> %"U32_F"\n",
   2230                            s, sock->conn->pcb.tcp->keep_idle));
   2231                break;
   2232              case TCP_KEEPINTVL:
   2233                sock->conn->pcb.tcp->keep_intvl = 1000*(u32_t)(*(int*)optval);
   \                     ??lwip_setsockopt_internal_15:
   \   0000217C   040090E5           LDR      R0,[R0, #+4]
   \   00002180   002093E5           LDR      R2,[R3, #+0]
   \   00002184   FA3FA0E3           MOV      R3,#+1000
   \   00002188   930202E0           MUL      R2,R3,R2
   \   0000218C   942080E5           STR      R2,[R0, #+148]
   \   00002190   020000EA           B        ??lwip_setsockopt_internal_4
   2234                LWIP_DEBUGF(SOCKETS_DEBUG, ("lwip_setsockopt(%d, IPPROTO_TCP, TCP_KEEPINTVL) -> %"U32_F"\n",
   2235                            s, sock->conn->pcb.tcp->keep_intvl));
   2236                break;
   2237              case TCP_KEEPCNT:
   2238                sock->conn->pcb.tcp->keep_cnt = (u32_t)(*(int*)optval);
   \                     ??lwip_setsockopt_internal_16:
   \   00002194   040090E5           LDR      R0,[R0, #+4]
   \   00002198   002093E5           LDR      R2,[R3, #+0]
   \   0000219C   982080E5           STR      R2,[R0, #+152]
   2239                LWIP_DEBUGF(SOCKETS_DEBUG, ("lwip_setsockopt(%d, IPPROTO_TCP, TCP_KEEPCNT) -> %"U32_F"\n",
   2240                            s, sock->conn->pcb.tcp->keep_cnt));
   2241                break;
   2242          #endif /* LWIP_TCP_KEEPALIVE */
   2243              default:
   2244                LWIP_ASSERT("unhandled optname", 0);
   2245                break;
   2246              }  /* switch (optname) */
   2247              break;
   2248          #endif /* LWIP_TCP*/
   2249          #if LWIP_UDP && LWIP_UDPLITE
   2250            /* Level: IPPROTO_UDPLITE */
   2251            case IPPROTO_UDPLITE:
   2252              switch (optname) {
   2253              case UDPLITE_SEND_CSCOV:
   2254                if ((*(int*)optval != 0) && ((*(int*)optval < 8) || (*(int*)optval > 0xffff))) {
   2255                  /* don't allow illegal values! */
   2256                  sock->conn->pcb.udp->chksum_len_tx = 8;
   2257                } else {
   2258                  sock->conn->pcb.udp->chksum_len_tx = (u16_t)*(int*)optval;
   2259                }
   2260                LWIP_DEBUGF(SOCKETS_DEBUG, ("lwip_setsockopt(%d, IPPROTO_UDPLITE, UDPLITE_SEND_CSCOV) -> %d\n",
   2261                            s, (*(int*)optval)) );
   2262                break;
   2263              case UDPLITE_RECV_CSCOV:
   2264                if ((*(int*)optval != 0) && ((*(int*)optval < 8) || (*(int*)optval > 0xffff))) {
   2265                  /* don't allow illegal values! */
   2266                  sock->conn->pcb.udp->chksum_len_rx = 8;
   2267                } else {
   2268                  sock->conn->pcb.udp->chksum_len_rx = (u16_t)*(int*)optval;
   2269                }
   2270                LWIP_DEBUGF(SOCKETS_DEBUG, ("lwip_setsockopt(%d, IPPROTO_UDPLITE, UDPLITE_RECV_CSCOV) -> %d\n",
   2271                            s, (*(int*)optval)) );
   2272                break;
   2273              default:
   2274                LWIP_ASSERT("unhandled optname", 0);
   2275                break;
   2276              }  /* switch (optname) */
   2277              break;
   2278          #endif /* LWIP_UDP */
   2279            default:
   2280              LWIP_ASSERT("unhandled level", 0);
   2281              break;
   2282            }  /* switch (level) */
   2283            sys_sem_signal(&sock->conn->op_completed);
   \                     ??lwip_setsockopt_internal_4:
   \   000021A0   000091E5           LDR      R0,[R1, #+0]
   \   000021A4   0C0080E2           ADD      R0,R0,#+12
   \   000021A8   ........           _BLF     sys_sem_signal,??sys_sem_signal??rA
   2284          }
   \   000021AC   1040BDE8           POP      {R4,LR}
   \   000021B0   1EFF2FE1           BX       LR               ;; return
   2285          

   \                                 In segment CODE, align 4, keep-with-next
   2286          int
   2287          lwip_ioctl(int s, long cmd, void *argp)
   2288          {
   \                     lwip_ioctl:
   \   00000000   70402DE9           PUSH     {R4-R6,LR}
   \   00000004   0150A0E1           MOV      R5,R1
   \   00000008   0260A0E1           MOV      R6,R2
   2289            struct lwip_sock *sock = get_socket(s);
   \   0000000C   ........           BL       get_socket
   \   00000010   0040B0E1           MOVS     R4,R0
   2290            u8_t val;
   2291          #if LWIP_SO_RCVBUF
   2292            u16_t buflen = 0;
   2293            s16_t recv_avail;
   2294          #endif /* LWIP_SO_RCVBUF */
   2295          
   2296            if (!sock) {
   \   00000014   2800000A           BEQ      ??lwip_ioctl_0
   2297              return -1;
   2298            }
   2299          
   2300            switch (cmd) {
   \   00000018   A8009FE5           LDR      R0,??lwip_ioctl_1  ;; 0xffffffff80046678
   \   0000001C   003094E5           LDR      R3,[R4, #+0]
   \   00000020   000055E1           CMP      R5,R0
   \   00000024   1200000A           BEQ      ??lwip_ioctl_2
   \   00000028   010080E3           ORR      R0,R0,#0x1
   \   0000002C   000055E1           CMP      R5,R0
   \   00000030   1900000A           BEQ      ??lwip_ioctl_3
   \   00000034   050080E2           ADD      R0,R0,#+5
   \   00000038   000055E1           CMP      R5,R0
   \   0000003C   1C00001A           BNE      ??lwip_ioctl_4
   2301          #if LWIP_SO_RCVBUF
   2302            case FIONREAD:
   2303              if (!argp) {
   2304                sock_set_errno(sock, EINVAL);
   2305                return -1;
   2306              }
   2307          
   2308              SYS_ARCH_GET(sock->conn->recv_avail, recv_avail);
   2309              if (recv_avail < 0) {
   2310                recv_avail = 0;
   2311              }
   2312              *((u16_t*)argp) = (u16_t)recv_avail;
   2313          
   2314              /* Check if there is data left from the last recv operation. /maq 041215 */
   2315              if (sock->lastdata) {
   2316                struct pbuf *p = (struct pbuf *)sock->lastdata;
   2317                if (netconn_type(sock->conn) != NETCONN_TCP) {
   2318                  p = ((struct netbuf *)p)->p;
   2319                }
   2320                buflen = p->tot_len;
   2321                buflen -= sock->lastoffset;
   2322          
   2323                *((u16_t*)argp) += buflen;
   2324              }
   2325          
   2326              LWIP_DEBUGF(SOCKETS_DEBUG, ("lwip_ioctl(%d, FIONREAD, %p) = %"U16_F"\n", s, argp, *((u16_t*)argp)));
   2327              sock_set_errno(sock, 0);
   2328              return 0;
   2329          #endif /* LWIP_SO_RCVBUF */
   2330          
   2331            case FIONBIO:
   2332              val = 0;
   2333              if (argp && *(u32_t*)argp) {
   \   00000040   000056E3           CMP      R6,#+0
   \   00000044   00009615           LDRNE    R0,[R6, #+0]
   \   00000048   00005013           CMPNE    R0,#+0
   2334                val = 1;
   2335              }
   2336              netconn_set_nonblocking(sock->conn, val);
   \   0000004C   4C00D315           LDRBNE   R0,[R3, #+76]
   \   00000050   02008013           ORRNE    R0,R0,#0x2
   \   00000054   4C00D305           LDRBEQ   R0,[R3, #+76]
   \   00000058   FD000002           ANDEQ    R0,R0,#0xFD
   \   0000005C   4C00C3E5           STRB     R0,[R3, #+76]
   2337              LWIP_DEBUGF(SOCKETS_DEBUG, ("lwip_ioctl(%d, FIONBIO, %d)\n", s, val));
   2338              sock_set_errno(sock, 0);
   \                     ??lwip_ioctl_5:
   \   00000060   0000A0E3           MOV      R0,#+0
   \                     ??lwip_ioctl_6:
   \   00000064   100084E5           STR      R0,[R4, #+16]
   2339              return 0;
   \   00000068   7040BDE8           POP      {R4-R6,LR}
   \   0000006C   0000A0E3           MOV      R0,#+0
   \   00000070   1EFF2FE1           BX       LR
   2340          
   2341          #if LWIP_EVENT_IOCTL  /* eventfd like mechanism support by hkim */
   2342            case FIONINCRECV:
   2343              API_EVENT(sock->conn, NETCONN_EVT_RCVPLUS, 1);
   \                     ??lwip_ioctl_2:
   \   00000074   580093E5           LDR      R0,[R3, #+88]
   \   00000078   000050E3           CMP      R0,#+0
   \   0000007C   F8FFFF0A           BEQ      ??lwip_ioctl_6
   \   00000080   0120A0E3           MOV      R2,#+1
   \   00000084   0010A0E3           MOV      R1,#+0
   \                     ??lwip_ioctl_7:
   \   00000088   0300A0E1           MOV      R0,R3
   \   0000008C   583093E5           LDR      R3,[R3, #+88]
   \   00000090   0FE0A0E1           MOV      LR,PC
   \   00000094   13FF2FE1           BX       R3
   \   00000098   F0FFFFEA           B        ??lwip_ioctl_5
   2344              sock_set_errno(sock, 0);
   2345              return 0;
   2346          
   2347            case FIONDECRECV:
   2348              API_EVENT(sock->conn, NETCONN_EVT_RCVMINUS, 1);
   \                     ??lwip_ioctl_3:
   \   0000009C   580093E5           LDR      R0,[R3, #+88]
   \   000000A0   000050E3           CMP      R0,#+0
   \   000000A4   EEFFFF0A           BEQ      ??lwip_ioctl_6
   \   000000A8   0120A0E3           MOV      R2,#+1
   \   000000AC   0110A0E3           MOV      R1,#+1
   \   000000B0   F4FFFFEA           B        ??lwip_ioctl_7
   2349              sock_set_errno(sock, 0);
   2350              return 0;
   2351          
   2352          #endif
   2353          
   2354            default:
   2355              LWIP_DEBUGF(SOCKETS_DEBUG, ("lwip_ioctl(%d, UNIMPL: 0x%lx, %p)\n", s, cmd, argp));
   2356              sock_set_errno(sock, ENOSYS); /* not yet implemented */
   \                     ??lwip_ioctl_4:
   \   000000B4   2600A0E3           MOV      R0,#+38
   \   000000B8   100084E5           STR      R0,[R4, #+16]
   2357              return -1;
   \                     ??lwip_ioctl_0:
   \   000000BC   7040BDE8           POP      {R4-R6,LR}
   \   000000C0   0000E0E3           MVN      R0,#+0
   \   000000C4   1EFF2FE1           BX       LR               ;; return
   \                     ??lwip_ioctl_1:
   \   000000C8   78660480           DC32     0xffffffff80046678
   2358            } /* switch (cmd) */
   2359          }
   2360          
   2361          /** A minimal implementation of fcntl.
   2362           * Currently only the commands F_GETFL and F_SETFL are implemented.
   2363           * Only the flag O_NONBLOCK is implemented.
   2364           */

   \                                 In segment CODE, align 4, keep-with-next
   2365          int
   2366          lwip_fcntl(int s, int cmd, int val)
   2367          {
   \                     lwip_fcntl:
   \   00000000   30402DE9           PUSH     {R4,R5,LR}
   \   00000004   0140A0E1           MOV      R4,R1
   \   00000008   0250A0E1           MOV      R5,R2
   2368            struct lwip_sock *sock = get_socket(s);
   \   0000000C   ........           BL       get_socket
   2369            int ret = -1;
   2370          
   2371            if (!sock || !sock->conn) {
   \   00000010   000050E3           CMP      R0,#+0
   \   00000014   00009015           LDRNE    R0,[R0, #+0]
   \   00000018   0010E0E3           MVN      R1,#+0
   \   0000001C   00005013           CMPNE    R0,#+0
   \   00000020   1200000A           BEQ      ??lwip_fcntl_0
   2372              return -1;
   2373            }
   2374          
   2375            switch (cmd) {
   \   00000024   034054E2           SUBS     R4,R4,#+3
   \   00000028   0200000A           BEQ      ??lwip_fcntl_1
   \   0000002C   014054E2           SUBS     R4,R4,#+1
   \   00000030   0600000A           BEQ      ??lwip_fcntl_2
   \   00000034   0D0000EA           B        ??lwip_fcntl_0
   2376            case F_GETFL:
   2377              ret = netconn_is_nonblocking(sock->conn) ? O_NONBLOCK : 0;
   \                     ??lwip_fcntl_1:
   \   00000038   4C00D0E5           LDRB     R0,[R0, #+76]
   \   0000003C   020010E3           TST      R0,#0x2
   \   00000040   0900000A           BEQ      ??lwip_fcntl_3
   \   00000044   3040BDE8           POP      {R4,R5,LR}
   \   00000048   0110A0E3           MOV      R1,#+1
   \   0000004C   080000EA           B        ??lwip_fcntl_4
   2378              break;
   2379            case F_SETFL:
   2380              if ((val & ~O_NONBLOCK) == 0) {
   \                     ??lwip_fcntl_2:
   \   00000050   0120D5E3           BICS     R2,R5,#0x1
   \   00000054   0500001A           BNE      ??lwip_fcntl_0
   2381                /* only O_NONBLOCK, all other bits are zero */
   2382                netconn_set_nonblocking(sock->conn, val & O_NONBLOCK);
   \   00000058   4C10D0E5           LDRB     R1,[R0, #+76]
   \   0000005C   010015E3           TST      R5,#0x1
   \   00000060   02108113           ORRNE    R1,R1,#0x2
   \   00000064   FD100102           ANDEQ    R1,R1,#0xFD
   \   00000068   4C10C0E5           STRB     R1,[R0, #+76]
   2383                ret = 0;
   \                     ??lwip_fcntl_3:
   \   0000006C   0010A0E3           MOV      R1,#+0
   2384              }
   2385              break;
   2386            default:
   2387              LWIP_DEBUGF(SOCKETS_DEBUG, ("lwip_fcntl(%d, UNIMPL: %d, %d)\n", s, cmd, val));
   2388              break;
   2389            }
   2390            return ret;
   \                     ??lwip_fcntl_0:
   \   00000070   3040BDE8           POP      {R4,R5,LR}
   \                     ??lwip_fcntl_4:
   \   00000074   0100A0E1           MOV      R0,R1
   \   00000078   1EFF2FE1           BX       LR               ;; return
   2391          }

   \                                 In segment CODE, align 4, keep-with-next
   \                     ??DataTable8:
   \   00000000   ........           DC32     err_to_errno_table

   \                                 In segment CODE, align 4, keep-with-next
   \                     ??DataTable10:
   \   00000000   ........           DC32     sockets

   \                                 In segment CODE, align 4, keep-with-next
   \                     ??DataTable11:
   \   00000000   ........           DC32     sockets

   \                                 In segment CODE, align 4, keep-with-next
   \                     ??DataTable12:
   \   00000000   D34D6210           DC32     0x10624dd3

   \                                 In segment CODE, align 4, keep-with-next
   \                     ??DataTable13:
   \   00000000   ........           DC32     err_to_errno_table

   \                                 In segment CODE, align 4, keep-with-next
   \                     ??DataTable14:
   \   00000000   ........           DC32     err_to_errno_table

   \                                 In segment CODE, align 4, keep-with-next
   \                     ??DataTable15:
   \   00000000   D34D6210           DC32     0x10624dd3
   2392          
   2393          #endif /* LWIP_SOCKET */
   2394          

   Maximum stack usage in bytes:

     Function                 CSTACK
     --------                 ------
     event_callback              32
     get_socket                   0
     lwip_accept                 52
     lwip_bind                   16
     lwip_close                  20
     lwip_connect                16
     lwip_fcntl                  12
     lwip_getpeername            40
     lwip_getsockname            40
     lwip_getsockopt             56
     lwip_getsockopt_internal     8
     lwip_ioctl                  16
     lwip_listen                 12
     lwip_read                   12
     lwip_recv                   12
     lwip_recvfrom               72
     lwip_select                 96
     lwip_selscan                52
     lwip_send                   36
     lwip_sendto                 44
     lwip_setsockopt             44
     lwip_setsockopt_internal     8
     lwip_shutdown               20
     lwip_socket                 16
     lwip_socket_init             0
     lwip_write                   4


   Segment part sizes:

     Function/Label           Bytes
     --------------           -----
     sockets                   392
     err_to_errno_table         64
     lwip_socket_init            4
     get_socket                 52
     lwip_accept               492
     lwip_bind                 112
     lwip_close                128
     lwip_connect              136
     lwip_listen               136
     lwip_recvfrom             704
     lwip_read                  28
     lwip_recv                  28
     lwip_send                 212
     lwip_sendto               240
     lwip_socket               268
     lwip_write                 20
     lwip_selscan              444
     lwip_select               924
     event_callback            436
     lwip_shutdown             184
     lwip_getpeername          152
     lwip_getsockname          152
     lwip_getsockopt          8588
     lwip_getsockopt_internal 8668
     lwip_setsockopt          8612
     lwip_setsockopt_internal 8628
     lwip_ioctl                204
     lwip_fcntl                124
     ??DataTable8                4
     ??DataTable10               4
     ??DataTable11               4
     ??DataTable12               4
     ??DataTable13               4
     ??DataTable14               4
     ??DataTable15               4
      Others                   476

 
 40 168 bytes in segment CODE
     64 bytes in segment DATA_C
    392 bytes in segment DATA_Z
     12 bytes in segment INITTAB
 
 39 704 bytes of CODE  memory (+ 476 bytes shared)
     64 bytes of CONST memory
    392 bytes of DATA  memory

Errors: none
Warnings: none
