##############################################################################
#                                                                            #
# IAR ARM ANSI C/C++ Compiler V4.42A/W32               14/Sep/2022  15:17:59 #
# Copyright 1999-2005 IAR Systems. All rights reserved.                      #
#                                                                            #
#    Cpu mode        =  interwork                                            #
#    Endian          =  little                                               #
#    Stack alignment =  4                                                    #
#    Source file     =  D:\S2Prog\TXU\src\TDUAppSetupTemp.cpp                #
#    Command line    =  D:\S2Prog\TXU\src\TDUAppSetupTemp.cpp --fpu None -D  #
#                       OS_LIBMODE_SP -D CPU_S3C2410 -D OS_RAMVECT=0 -D      #
#                       OS_UART=-1 -D S2TXU -D USE_LZO=1 -D __ARM_LIBRARY__  #
#                       -D WATCHDOG=1 -D NETWORK=1 -lCN                      #
#                       D:\S2Prog\TXU\Debug\List\ -o                         #
#                       D:\S2Prog\TXU\Debug\Obj\ -s9 --debug --cpu_mode arm  #
#                       --endian little --cpu ARM920T --stack_align 4        #
#                       --interwork -e --enable_multibytes --eec++           #
#                       --dlib_config "C:\Program Files (x86)\IAR            #
#                       Systems\Embedded Workbench                           #
#                       4.0\arm\LIB\dl4tpainl8n.h" -I                        #
#                       D:\S2Prog\TXU\GUI\CORE\ -I D:\S2Prog\TXU\GUI\WM\ -I  #
#                       D:\S2Prog\TXU\GUI\WIDGET\ -I D:\S2Prog\TXU\CONFIG\   #
#                       -I D:\S2Prog\TXU\INC\ -I D:\S2Prog\TXU\..\SHARED\INC #
#                       \ -I D:\S2Prog\TXU\..\SHARED\SRC\ -I                 #
#                       D:\S2Prog\TXU\..\SHARED\LZO\minilzo.210\ -I          #
#                       D:\S2Prog\TXU\lwip-1.4.1\src\include\ -I             #
#                       D:\S2Prog\TXU\lwip-1.4.1\src\include\ipv4\ -I        #
#                       D:\S2Prog\TXU\lwip-1.4.1\src\ -I                     #
#                       D:\S2Prog\TXU\..\SHARED\Database\ -I                 #
#                       D:\S2Prog\TXU\src\ -I "C:\Program Files (x86)\IAR    #
#                       Systems\Embedded Workbench 4.0\arm\INC\"             #
#                       --inline_threshold=2                                 #
#    List file       =  D:\S2Prog\TXU\Debug\List\TDUAppSetupTemp.lst         #
#    Object file     =  D:\S2Prog\TXU\Debug\Obj\TDUAppSetupTemp.r79          #
#                                                                            #
#                                                                            #
##############################################################################

D:\S2Prog\TXU\src\TDUAppSetupTemp.cpp
      1          #include "TDUIncludes.h"
      2          
      3          

   \                                 In segment CODE, align 4, keep-with-next
      4          TDUAppSetupTemp::~TDUAppSetupTemp(void)
      5          {
   \                     `?~TDUAppSetupTemp`:
   \   00000000   00402DE9           PUSH     {LR}
      6          }
   \   00000004   ........           _BLF     `?~TDUBasicWin`,`?~TDUBasicWin??rA`
   \   00000008   0040BDE8           POP      {LR}
   \   0000000C   1EFF2FE1           BX       LR               ;; return
      7          

   \                                 In segment CODE, align 4, keep-with-next
      8          TDUAppSetupTemp::TDUAppSetupTemp(void)
   \                     ??TDUAppSetupTemp:
   \   00000000   10402DE9           PUSH     {R4,LR}
   \   00000004   0040A0E1           MOV      R4,R0
      9          {
   \   00000008   ........           _BLF     ??TDUBasicWin,??TDUBasicWin??rA
     10          	AppSetupTempIsClosed = true;
   \   0000000C   ........           LDR      R0,??DataTable5  ;; AppSetupTempIsClosed
   \   00000010   0110A0E3           MOV      R1,#+1
   \   00000014   0010C0E5           STRB     R1,[R0, #+0]
     11          }
   \   00000018   0400A0E1           MOV      R0,R4
   \   0000001C   1040BDE8           POP      {R4,LR}
   \   00000020   1EFF2FE1           BX       LR               ;; return
     12          

   \                                 In segment DATA_C, align 4, align-sorted
     13          const GUI_WIDGET_CREATE_INFO TDUAppSetupTemp::aDialogCreate[] =
   \                     ??aDialogCreate:
   \   00000000   ............       DC32 FRAMEWIN_CreateIndirect, `?<Constant "Application setup">`
   \              ....        
   \   00000008   990800000000       DC16 2201, 0, 0, 0, 0, 128
   \              000000008000
   \   00000014   00000000....       DC32 0, BUTTON_CreateIndirect, `?<Constant "Close">`
   \              ............
   \   00000020   0500BE009A00       DC16 5, 190, 154, 85, 25
   \              55001900    
   \   0000002A   000000000000       DC8 0, 0, 0, 0, 0, 0
   \   00000030   ............       DC32 TEXT_CreateIndirect, `?<Constant "Col. 1">`
   \              ....        
   \   00000038   080A04000400       DC16 2568, 4, 4, 40, 15, 0
   \              28000F000000
   \   00000044   00000000           DC8 0, 0, 0, 0
   \   00000048   ............       DC32 TEXT_CreateIndirect, `?<Constant "Col. 2">`
   \              ....        
   \   00000050   090A2C000400       DC16 2569, 44, 4, 74, 15, 0
   \              4A000F000000
   \   0000005C   00000000           DC8 0, 0, 0, 0
   \   00000060   ............       DC32 TEXT_CreateIndirect, `?<Constant "Col. 3">`
   \              ....        
   \   00000068   0A0A7C000400       DC16 2570, 124, 4, 74, 15, 0
   \              4A000F000000
   \   00000074   00000000           DC8 0, 0, 0, 0
   \   00000078   ............       DC32 TEXT_CreateIndirect, `?<Constant "Col. 4">`
   \              ....        
   \   00000080   0B0ACC000400       DC16 2571, 204, 4, 74, 15, 0
   \              4A000F000000
   \   0000008C   00000000           DC8 0, 0, 0, 0
   \   00000090   ............       DC32 TEXT_CreateIndirect, `?<Constant "Name ">`
   \              ....        
   \   00000098   0C0A04001400       DC16 2572, 4, 20, 74, 15, 0
   \              4A000F000000
   \   000000A4   00000000           DC8 0, 0, 0, 0
   \   000000A8   ........0000       DC32 DROPDOWN_CreateIndirect, 0H
   \              0000        
   \   000000B0   81012C001400       DC16 385, 44, 20, 74, 110, 0
   \              4A006E000000
   \   000000BC   03000000....       DC32 3, DROPDOWN_CreateIndirect, 0H
   \              ....00000000
   \   000000C8   82017C001400       DC16 386, 124, 20, 74, 110, 0
   \              4A006E000000
   \   000000D4   03000000....       DC32 3, DROPDOWN_CreateIndirect, 0H
   \              ....00000000
   \   000000E0   8301CC001400       DC16 387, 204, 20, 74, 110, 0
   \              4A006E000000
   \   000000EC   03000000....       DC32 3, TEXT_CreateIndirect, `?<Constant "unit">`
   \              ............
   \   000000F8   620130002800       DC16 354, 48, 40, 74, 15, 0
   \              4A000F000000
   \   00000104   00000000           DC8 0, 0, 0, 0
   \   00000108   ............       DC32 TEXT_CreateIndirect, `?<Constant "unit">`
   \              ....        
   \   00000110   630180002800       DC16 355, 128, 40, 74, 15, 0
   \              4A000F000000
   \   0000011C   00000000           DC8 0, 0, 0, 0
   \   00000120   ............       DC32 TEXT_CreateIndirect, `?<Constant "unit">`
   \              ....        
   \   00000128   6401D0002800       DC16 356, 208, 40, 74, 15, 0
   \              4A000F000000
   \   00000134   00000000           DC8 0, 0, 0, 0
     14          {
     15          	{ FRAMEWIN_CreateIndirect, "Application setup", TDU_APPTEMP_WIN, 0, 0, 0, 0, FRAMEWIN_CF_MAXIMIZED, 0},
     16          	{ BUTTON_CreateIndirect, "Close"            ,  GUI_ID_CLOSE, 190, 154,  85, 25},
     17          	{ TEXT_CreateIndirect, "Col. 1"             , GUI_ID_TEXT20,   4,   4,  40,  15, TEXT_CF_LEFT},
     18          	{ TEXT_CreateIndirect, "Col. 2"             , GUI_ID_TEXT21,  44,   4,  74,  15, TEXT_CF_LEFT},
     19          	{ TEXT_CreateIndirect, "Col. 3"             ,   GUI_ID_TEXT22, 124,   4,  74,  15, TEXT_CF_LEFT},
     20          	{ TEXT_CreateIndirect, "Col. 4"             ,   GUI_ID_TEXT23, 204,   4,  74,  15, TEXT_CF_LEFT},
     21          	{ TEXT_CreateIndirect, "Name "              ,  GUI_ID_TEXT24,   4,  20,  74,  15, TEXT_CF_LEFT},
     22          	{ DROPDOWN_CreateIndirect, NULL          , GUI_ID_DROPDOWN1,  44,  20,  74, 110, 0, 3},
     23          	{ DROPDOWN_CreateIndirect, NULL          , GUI_ID_DROPDOWN2, 124,  20,  74, 110, 0, 3},
     24          	{ DROPDOWN_CreateIndirect, NULL          , GUI_ID_DROPDOWN3, 204,  20,  74, 110, 0, 3},
     25          	{ TEXT_CreateIndirect, "unit"                 ,  GUI_ID_TEXT2,  48,  40,  74,  15, TEXT_CF_LEFT},
     26          	{ TEXT_CreateIndirect, "unit"                 ,  GUI_ID_TEXT3, 128,  40,  74,  15, TEXT_CF_LEFT},
     27          	{ TEXT_CreateIndirect, "unit"                 ,  GUI_ID_TEXT4, 208,  40,  74,  15, TEXT_CF_LEFT},
     28          
     29          };
     30          
     31          

   \                                 In segment CODE, align 4, keep-with-next
     32          void TDUAppSetupTemp::ExecDialogBox(WM_HWIN hCurrentWin)
     33          {
   \                     ??ExecDialogBox:
   \   00000000   10402DE9           PUSH     {R4,LR}
   \   00000004   0040A0E1           MOV      R4,R0
     34          	if ( AppSetupTempIsClosed ) {
   \   00000008   ........           LDR      R0,??DataTable5  ;; AppSetupTempIsClosed
   \   0000000C   0020D0E5           LDRB     R2,[R0, #+0]
   \   00000010   000052E3           CMP      R2,#+0
   \   00000014   2100000A           BEQ      ??ExecDialogBox_1
     35          		AppSetupTempIsClosed = false;
   \   00000018   0020A0E3           MOV      R2,#+0
   \   0000001C   0020C0E5           STRB     R2,[R0, #+0]
     36          		WinHandl = GUI_CreateDialogBox(aDialogCreate, GUI_COUNTOF(aDialogCreate),&cbTankSetup,
     37          									   hCurrentWin, 0, 0);
   \   00000020   88209FE5           LDR      R2,??ExecDialogBox_2  ;; ??cbTankSetup
   \   00000024   0000A0E3           MOV      R0,#+0
   \   00000028   01002DE9           PUSH     {R0}
   \   0000002C   01002DE9           PUSH     {R0}
   \   00000030   7C009FE5           LDR      R0,??ExecDialogBox_2+0x4  ;; ??aDialogCreate
   \   00000034   0130A0E1           MOV      R3,R1
   \   00000038   0D10A0E3           MOV      R1,#+13
   \   0000003C   ........           _BLF     GUI_CreateDialogBox,??GUI_CreateDialogBox??rA
   \   00000040   BA02C4E1           STRH     R0,[R4, #+42]
     38          		DROPDOWN_SetAutoScroll( WM_GetDialogItem(WinHandl, GUI_ID_DROPDOWN1), 1 );
   \   00000044   8110A0E3           MOV      R1,#+129
   \   00000048   401F81E3           ORR      R1,R1,#0x100
   \   0000004C   ........           _BLF     WM_GetDialogItem,??WM_GetDialogItem??rA
   \   00000050   0110A0E3           MOV      R1,#+1
   \   00000054   ........           _BLF     DROPDOWN_SetAutoScroll,??DROPDOWN_SetAutoScroll??rA
     39          		DROPDOWN_SetAutoScroll( WM_GetDialogItem(WinHandl, GUI_ID_DROPDOWN2), 1 );
   \   00000058   FA02D4E1           LDRSH    R0,[R4, #+42]
   \   0000005C   8210A0E3           MOV      R1,#+130
   \   00000060   401F81E3           ORR      R1,R1,#0x100
   \   00000064   ........           _BLF     WM_GetDialogItem,??WM_GetDialogItem??rA
   \   00000068   0110A0E3           MOV      R1,#+1
   \   0000006C   ........           _BLF     DROPDOWN_SetAutoScroll,??DROPDOWN_SetAutoScroll??rA
     40          		DROPDOWN_SetAutoScroll( WM_GetDialogItem(WinHandl, GUI_ID_DROPDOWN3), 1 );
   \   00000070   FA02D4E1           LDRSH    R0,[R4, #+42]
   \   00000074   8310A0E3           MOV      R1,#+131
   \   00000078   401F81E3           ORR      R1,R1,#0x100
   \   0000007C   ........           _BLF     WM_GetDialogItem,??WM_GetDialogItem??rA
   \   00000080   0110A0E3           MOV      R1,#+1
   \   00000084   ........           _BLF     DROPDOWN_SetAutoScroll,??DROPDOWN_SetAutoScroll??rA
     41          		WM_EnableMemdev(WinHandl);
   \   00000088   FA02D4E1           LDRSH    R0,[R4, #+42]
   \   0000008C   ........           _BLF     WM_EnableMemdev,??WM_EnableMemdev??rA
     42          		GetDialogHandles();
   \   00000090   0400A0E1           MOV      R0,R4
   \   00000094   ........           BL       ??GetDialogHandles
   \   00000098   08D08DE2           ADD      SP,SP,#+8
   \   0000009C   010000EA           B        ??ExecDialogBox_3
     43          	} else {
     44          		WM_BringToTop(WinHandl);
   \                     ??ExecDialogBox_1:
   \   000000A0   FA02D4E1           LDRSH    R0,[R4, #+42]
   \   000000A4   ........           _BLF     WM_BringToTop,??WM_BringToTop??rA
     45          	}
     46          }
   \                     ??ExecDialogBox_3:
   \   000000A8   1040BDE8           POP      {R4,LR}
   \   000000AC   1EFF2FE1           BX       LR               ;; return
   \                     ??ExecDialogBox_2:
   \   000000B0   ........           DC32     ??cbTankSetup
   \   000000B4   ........           DC32     ??aDialogCreate
     47          
     48          /*********************************************************************
     49          *
     50          * Dialog procedure
     51          */

   \                                 In segment CODE, align 4, keep-with-next
     52          void TDUAppSetupTemp::GetDialogHandles(void)
     53          {
   \                     ??GetDialogHandles:
   \   00000000   10402DE9           PUSH     {R4,LR}
   \   00000004   0040A0E1           MOV      R4,R0
     54          	/* Get window handles for all widgets */
     55          	hDropdCol2      = WM_GetDialogItem(WinHandl, GUI_ID_DROPDOWN1);
   \   00000008   FA02D4E1           LDRSH    R0,[R4, #+42]
   \   0000000C   8110A0E3           MOV      R1,#+129
   \   00000010   401F81E3           ORR      R1,R1,#0x100
   \   00000014   ........           _BLF     WM_GetDialogItem,??WM_GetDialogItem??rA
   \   00000018   B403C4E1           STRH     R0,[R4, #+52]
     56          	hDropdCol3      = WM_GetDialogItem(WinHandl, GUI_ID_DROPDOWN2);
   \   0000001C   FA02D4E1           LDRSH    R0,[R4, #+42]
   \   00000020   8210A0E3           MOV      R1,#+130
   \   00000024   401F81E3           ORR      R1,R1,#0x100
   \   00000028   ........           _BLF     WM_GetDialogItem,??WM_GetDialogItem??rA
   \   0000002C   B603C4E1           STRH     R0,[R4, #+54]
     57          	hDropdCol4      = WM_GetDialogItem(WinHandl, GUI_ID_DROPDOWN3);
   \   00000030   FA02D4E1           LDRSH    R0,[R4, #+42]
   \   00000034   8310A0E3           MOV      R1,#+131
   \   00000038   401F81E3           ORR      R1,R1,#0x100
   \   0000003C   ........           _BLF     WM_GetDialogItem,??WM_GetDialogItem??rA
   \   00000040   B803C4E1           STRH     R0,[R4, #+56]
     58          	hTextUnitCol2   = WM_GetDialogItem(WinHandl, GUI_ID_TEXT2);
   \   00000044   FA02D4E1           LDRSH    R0,[R4, #+42]
   \   00000048   6210A0E3           MOV      R1,#+98
   \   0000004C   401F81E3           ORR      R1,R1,#0x100
   \   00000050   ........           _BLF     WM_GetDialogItem,??WM_GetDialogItem??rA
   \   00000054   BA03C4E1           STRH     R0,[R4, #+58]
     59          	hTextUnitCol3   = WM_GetDialogItem(WinHandl, GUI_ID_TEXT3);
   \   00000058   FA02D4E1           LDRSH    R0,[R4, #+42]
   \   0000005C   6310A0E3           MOV      R1,#+99
   \   00000060   401F81E3           ORR      R1,R1,#0x100
   \   00000064   ........           _BLF     WM_GetDialogItem,??WM_GetDialogItem??rA
   \   00000068   BC03C4E1           STRH     R0,[R4, #+60]
     60          	hTextUnitCol4   = WM_GetDialogItem(WinHandl, GUI_ID_TEXT4);
   \   0000006C   FA02D4E1           LDRSH    R0,[R4, #+42]
   \   00000070   591FA0E3           MOV      R1,#+356
   \   00000074   ........           _BLF     WM_GetDialogItem,??WM_GetDialogItem??rA
   \   00000078   BE03C4E1           STRH     R0,[R4, #+62]
     61          	hTextTotalCol2    = WM_GetDialogItem(WinHandl, GUI_ID_TEXT5);
   \   0000007C   FA02D4E1           LDRSH    R0,[R4, #+42]
   \   00000080   6510A0E3           MOV      R1,#+101
   \   00000084   401F81E3           ORR      R1,R1,#0x100
   \   00000088   ........           _BLF     WM_GetDialogItem,??WM_GetDialogItem??rA
   \   0000008C   B004C4E1           STRH     R0,[R4, #+64]
     62          	hTextTotalCol3    = WM_GetDialogItem(WinHandl, GUI_ID_TEXT6);
   \   00000090   FA02D4E1           LDRSH    R0,[R4, #+42]
   \   00000094   6610A0E3           MOV      R1,#+102
   \   00000098   401F81E3           ORR      R1,R1,#0x100
   \   0000009C   ........           _BLF     WM_GetDialogItem,??WM_GetDialogItem??rA
   \   000000A0   B204C4E1           STRH     R0,[R4, #+66]
     63          	hTextTotalCol4    = WM_GetDialogItem(WinHandl, GUI_ID_TEXT7);
   \   000000A4   FA02D4E1           LDRSH    R0,[R4, #+42]
   \   000000A8   6710A0E3           MOV      R1,#+103
   \   000000AC   401F81E3           ORR      R1,R1,#0x100
   \   000000B0   ........           _BLF     WM_GetDialogItem,??WM_GetDialogItem??rA
   \   000000B4   B404C4E1           STRH     R0,[R4, #+68]
     64          	InitDialog();
   \   000000B8   0400A0E1           MOV      R0,R4
   \   000000BC   ........           BL       ??InitDialog
     65          }
   \   000000C0   1040BDE8           POP      {R4,LR}
   \   000000C4   1EFF2FE1           BX       LR               ;; return
     66          

   \                                 In segment CODE, align 4, keep-with-next
     67          void TDUAppSetupTemp::InitDialog(void)
     68          {
   \                     ??InitDialog:
   \   00000000   F0472DE9           PUSH     {R4-R10,LR}
   \   00000004   ACD04DE2           SUB      SP,SP,#+172
   \   00000008   0040A0E1           MOV      R4,R0
   \   0000000C   020000EA           B        ??InitDialog_1
     69          	/* Initialize all widgets */
     70          	while ( DROPDOWN_GetNumItems(hDropdCol2)>0 ) {
     71          		DROPDOWN_DeleteItem(hDropdCol2, 0);
   \                     ??InitDialog_2:
   \   00000010   F403D4E1           LDRSH    R0,[R4, #+52]
   \   00000014   0010A0E3           MOV      R1,#+0
   \   00000018   ........           _BLF     DROPDOWN_DeleteItem,??DROPDOWN_DeleteItem??rA
     72          	}
   \                     ??InitDialog_1:
   \   0000001C   F403D4E1           LDRSH    R0,[R4, #+52]
   \   00000020   ........           _BLF     DROPDOWN_GetNumItems,??DROPDOWN_GetNumItems??rA
   \   00000024   010050E3           CMP      R0,#+1
   \   00000028   F8FFFFAA           BGE      ??InitDialog_2
     73          	while ( DROPDOWN_GetNumItems(hDropdCol3)>0 ) {
   \                     ??InitDialog_3:
   \   0000002C   F603D4E1           LDRSH    R0,[R4, #+54]
   \   00000030   ........           _BLF     DROPDOWN_GetNumItems,??DROPDOWN_GetNumItems??rA
   \   00000034   010050E3           CMP      R0,#+1
   \   00000038   060000BA           BLT      ??InitDialog_4
     74          		DROPDOWN_DeleteItem(hDropdCol3, 0);
   \   0000003C   F603D4E1           LDRSH    R0,[R4, #+54]
   \   00000040   0010A0E3           MOV      R1,#+0
   \   00000044   ........           _BLF     DROPDOWN_DeleteItem,??DROPDOWN_DeleteItem??rA
   \   00000048   F7FFFFEA           B        ??InitDialog_3
     75          	}
     76          	while ( DROPDOWN_GetNumItems(hDropdCol4)>0 ) {
     77          		DROPDOWN_DeleteItem(hDropdCol4, 0);
   \                     ??InitDialog_5:
   \   0000004C   F803D4E1           LDRSH    R0,[R4, #+56]
   \   00000050   0010A0E3           MOV      R1,#+0
   \   00000054   ........           _BLF     DROPDOWN_DeleteItem,??DROPDOWN_DeleteItem??rA
     78          	}
   \                     ??InitDialog_4:
   \   00000058   F803D4E1           LDRSH    R0,[R4, #+56]
   \   0000005C   ........           _BLF     DROPDOWN_GetNumItems,??DROPDOWN_GetNumItems??rA
   \   00000060   010050E3           CMP      R0,#+1
   \   00000064   F8FFFFAA           BGE      ??InitDialog_5
     79          	int ind1 = 0;
   \   00000068   0050A0E3           MOV      R5,#+0
     80          	int ind2 = 0;
     81          	int ind3 = 0;
     82          	int SizeOfList;
     83          	ValueList *VList = PROTemperature::GetValueInfoTableStatic(SizeOfList);
   \   0000006C   0510A0E1           MOV      R1,R5
   \   00000070   0D00A0E1           MOV      R0,SP
   \   00000074   ........           _BLF     ??GetValueInfoTableStatic,??GetValueInfoTableStatic??rA
   \   00000078   0080A0E1           MOV      R8,R0
     84          	for ( int i = 0; i < SizeOfList; i++ ) {
   \   0000007C   00009DE5           LDR      R0,[SP, #+0]
   \   00000080   0060A0E3           MOV      R6,#+0
   \   00000084   0570A0E1           MOV      R7,R5
   \   00000088   0590A0E1           MOV      R9,R5
   \   0000008C   010050E3           CMP      R0,#+1
   \   00000090   2B0000AA           BGE      ??InitDialog_6
     85          		DROPDOWN_AddString(hDropdCol2,  FindDictionaryWord(VList[i].Name).c_str());
     86          		DROPDOWN_AddString(hDropdCol3,  FindDictionaryWord(VList[i].Name).c_str());
     87          		DROPDOWN_AddString(hDropdCol4,  FindDictionaryWord(VList[i].Name).c_str());
     88          		if ( VList[i].Value==TempWindow->ValueTable[2].ValueId)ind1=i;
     89          		if ( VList[i].Value==TempWindow->ValueTable[3].ValueId)ind2=i;
     90          		if ( VList[i].Value==TempWindow->ValueTable[4].ValueId)ind3=i;
     91          	}
     92          	DROPDOWN_SetSel(hDropdCol2,ind1);
   \                     ??InitDialog_7:
   \   00000094   F403D4E1           LDRSH    R0,[R4, #+52]
   \   00000098   0510A0E1           MOV      R1,R5
   \   0000009C   ........           _BLF     DROPDOWN_SetSel,??DROPDOWN_SetSel??rA
     93          	DROPDOWN_SetSel(hDropdCol3,ind2);
   \   000000A0   F603D4E1           LDRSH    R0,[R4, #+54]
   \   000000A4   0610A0E1           MOV      R1,R6
   \   000000A8   ........           _BLF     DROPDOWN_SetSel,??DROPDOWN_SetSel??rA
     94          	DROPDOWN_SetSel(hDropdCol4,ind3);
   \   000000AC   F803D4E1           LDRSH    R0,[R4, #+56]
   \   000000B0   0710A0E1           MOV      R1,R7
   \   000000B4   ........           _BLF     DROPDOWN_SetSel,??DROPDOWN_SetSel??rA
     95          	{
     96          		const GUIKey Words[] ={
     97          			{TDU_APPTEMP_WIN    ,0,L_WORD69},
     98          			{GUI_ID_CLOSE       ,0,L_WORD18},
     99          			{GUI_ID_TEXT20      ,0,L_WORD70},
    100          			{GUI_ID_TEXT21      ,0,L_WORD71},
    101          			{GUI_ID_TEXT22      ,0,L_WORD72},
    102          			{GUI_ID_TEXT23      ,0,L_WORD73},
    103          			{GUI_ID_TEXT24      ,0,L_WORD74},
    104          		};
   \   000000B8   20119FE5           LDR      R1,??InitDialog_8  ;; `?<Constant {{2201, 0, 69}, {5, 0, 18}, {2568, `
   \   000000BC   58008DE2           ADD      R0,SP,#+88
   \   000000C0   5430A0E3           MOV      R3,#+84
   \                     ??InitDialog_9:
   \   000000C4   043053E2           SUBS     R3,R3,#+4
   \   000000C8   032091E7           LDR      R2,[R1, R3]
   \   000000CC   032080E7           STR      R2,[R0, R3]
   \   000000D0   FBFFFF1A           BNE      ??InitDialog_9
    105          		AddToSKeyList((GUIKey*)Words,NELEMENTS(Words));
   \   000000D4   0130A0E3           MOV      R3,#+1
   \   000000D8   0720A0E3           MOV      R2,#+7
   \   000000DC   58108DE2           ADD      R1,SP,#+88
   \   000000E0   0400A0E1           MOV      R0,R4
   \   000000E4   ........           _BLF     ??AddToSKeyList,??AddToSKeyList??rA
    106          	}
    107          }
   \   000000E8   ACD08DE2           ADD      SP,SP,#+172
   \   000000EC   F047BDE8           POP      {R4-R10,LR}
   \   000000F0   1EFF2FE1           BX       LR               ;; return
   \                     ??InitDialog_10:
   \   000000F4   F803D4E1           LDRSH    R0,[R4, #+56]
   \   000000F8   ........           _BLF     DROPDOWN_AddString,??DROPDOWN_AddString??rA
   \   000000FC   0020A0E3           MOV      R2,#+0
   \   00000100   0110A0E3           MOV      R1,#+1
   \   00000104   04008DE2           ADD      R0,SP,#+4
   \   00000108   ........           _BLF     ??_Tidy,??_Tidy??rA
   \   0000010C   ........           LDR      R0,??DataTable4  ;; TempWindow
   \   00000110   08109AE5           LDR      R1,[R10, #+8]
   \   00000114   000090E5           LDR      R0,[R0, #+0]
   \   00000118   7C0090E5           LDR      R0,[R0, #+124]
   \   0000011C   182090E5           LDR      R2,[R0, #+24]
   \   00000120   020051E1           CMP      R1,R2
   \   00000124   242090E5           LDR      R2,[R0, #+36]
   \   00000128   300090E5           LDR      R0,[R0, #+48]
   \   0000012C   0950A001           MOVEQ    R5,R9
   \   00000130   020051E1           CMP      R1,R2
   \   00000134   0960A001           MOVEQ    R6,R9
   \   00000138   000051E1           CMP      R1,R0
   \   0000013C   0970A001           MOVEQ    R7,R9
   \   00000140   019089E2           ADD      R9,R9,#+1
   \                     ??InitDialog_6:
   \   00000144   00009DE5           LDR      R0,[SP, #+0]
   \   00000148   000059E1           CMP      R9,R0
   \   0000014C   D0FFFFAA           BGE      ??InitDialog_7
   \   00000150   0C00A0E3           MOV      R0,#+12
   \   00000154   90892AE0           MLA      R10,R0,R9,R8
   \   00000158   00109AE5           LDR      R1,[R10, #+0]
   \   0000015C   20008DE2           ADD      R0,SP,#+32
   \   00000160   ........           _BLF     ??FindDictionaryWord,??FindDictionaryWord??rA
   \   00000164   38009DE5           LDR      R0,[SP, #+56]
   \   00000168   100050E3           CMP      R0,#+16
   \   0000016C   F403D4E1           LDRSH    R0,[R4, #+52]
   \   00000170   24109D25           LDRCS    R1,[SP, #+36]
   \   00000174   24108D32           ADDCC    R1,SP,#+36
   \   00000178   ........           _BLF     DROPDOWN_AddString,??DROPDOWN_AddString??rA
   \   0000017C   0020A0E3           MOV      R2,#+0
   \   00000180   0110A0E3           MOV      R1,#+1
   \   00000184   20008DE2           ADD      R0,SP,#+32
   \   00000188   ........           _BLF     ??_Tidy,??_Tidy??rA
   \   0000018C   00109AE5           LDR      R1,[R10, #+0]
   \   00000190   3C008DE2           ADD      R0,SP,#+60
   \   00000194   ........           _BLF     ??FindDictionaryWord,??FindDictionaryWord??rA
   \   00000198   54009DE5           LDR      R0,[SP, #+84]
   \   0000019C   100050E3           CMP      R0,#+16
   \   000001A0   F603D4E1           LDRSH    R0,[R4, #+54]
   \   000001A4   40109D25           LDRCS    R1,[SP, #+64]
   \   000001A8   40108D32           ADDCC    R1,SP,#+64
   \   000001AC   ........           _BLF     DROPDOWN_AddString,??DROPDOWN_AddString??rA
   \   000001B0   0020A0E3           MOV      R2,#+0
   \   000001B4   0110A0E3           MOV      R1,#+1
   \   000001B8   3C008DE2           ADD      R0,SP,#+60
   \   000001BC   ........           _BLF     ??_Tidy,??_Tidy??rA
   \   000001C0   00109AE5           LDR      R1,[R10, #+0]
   \   000001C4   04008DE2           ADD      R0,SP,#+4
   \   000001C8   ........           _BLF     ??FindDictionaryWord,??FindDictionaryWord??rA
   \   000001CC   1C009DE5           LDR      R0,[SP, #+28]
   \   000001D0   100050E3           CMP      R0,#+16
   \   000001D4   08109D25           LDRCS    R1,[SP, #+8]
   \   000001D8   08108D32           ADDCC    R1,SP,#+8
   \   000001DC   C4FFFFEA           B        ??InitDialog_10
   \                     ??InitDialog_8:
   \   000001E0   ........           DC32     `?<Constant {{2201, 0, 69}, {5, 0, 18}, {2568, `
    108          

   \                                 In segment CODE, align 4, keep-with-next
    109          void TDUAppSetupTemp::UpdateDialog(WM_HWIN hWin,int Key)
    110          {
   \                     ??UpdateDialog:
   \   00000000   F0412DE9           PUSH     {R4-R8,LR}
   \   00000004   58D04DE2           SUB      SP,SP,#+88
   \   00000008   0040A0E1           MOV      R4,R0
   \   0000000C   0100A0E1           MOV      R0,R1
   \   00000010   0250A0E1           MOV      R5,R2
    111          	WM_HWIN hDropd0 = WM_GetDialogItem(hWin, Key);
   \   00000014   0510A0E1           MOV      R1,R5
   \   00000018   ........           _BLF     WM_GetDialogItem,??WM_GetDialogItem??rA
   \   0000001C   0080A0E1           MOV      R8,R0
    112          	AnsiString str, unitstr;
   \   00000020   3C008DE2           ADD      R0,SP,#+60
   \   00000024   ........           _BLF     ??AnsiString,??AnsiString??rA
   \   00000028   04008DE2           ADD      R0,SP,#+4
   \   0000002C   ........           _BLF     ??AnsiString,??AnsiString??rA
    113          	int col;
    114          	switch ( Key ) {
   \   00000030   810045E2           SUB      R0,R5,#+129
   \   00000034   400F40E2           SUB      R0,R0,#+256
   \   00000038   020050E3           CMP      R0,#+2
   \   0000003C   0800008A           BHI      ??UpdateDialog_3
   \   00000040   011F8FE2           ADR      R1,??UpdateDialog_1
   \   00000044   0010D1E7           LDRB     R1,[R1, R0]
   \   00000048   01F18FE0           ADD      PC,PC,R1, LSL #+2
   \                     ??UpdateDialog_1:
   \   0000004C   00020400           DC8      +0,+2,+4,+0
    115          		case GUI_ID_DROPDOWN1:
    116          			col = 2;
   \                     ??UpdateDialog_4:
   \   00000050   0260A0E3           MOV      R6,#+2
   \   00000054   020000EA           B        ??UpdateDialog_3
    117          			break;
    118          		case GUI_ID_DROPDOWN2:
    119          			col = 3;
   \                     ??UpdateDialog_5:
   \   00000058   0360A0E3           MOV      R6,#+3
   \   0000005C   000000EA           B        ??UpdateDialog_3
    120          			break;
    121          		case GUI_ID_DROPDOWN3:
    122          			col = 4;
   \                     ??UpdateDialog_6:
   \   00000060   0460A0E3           MOV      R6,#+4
    123          			break;
    124          	}
    125          	int SizeOfList;
    126          	ValueList *VList = PROTemperature::GetValueInfoTableStatic(SizeOfList,0);
   \                     ??UpdateDialog_3:
   \   00000064   0010A0E3           MOV      R1,#+0
   \   00000068   0D00A0E1           MOV      R0,SP
   \   0000006C   ........           _BLF     ??GetValueInfoTableStatic,??GetValueInfoTableStatic??rA
   \   00000070   0070A0E1           MOV      R7,R0
    127          	TempWindow->ValueTable[col].ValueId = VList[DROPDOWN_GetSel(hDropd0)].Value;
   \   00000074   0800A0E1           MOV      R0,R8
   \   00000078   ........           LDR      R8,??DataTable4  ;; TempWindow
   \   0000007C   ........           _BLF     DROPDOWN_GetSel,??DROPDOWN_GetSel??rA
   \   00000080   001098E5           LDR      R1,[R8, #+0]
   \   00000084   0C20A0E3           MOV      R2,#+12
   \   00000088   7C1091E5           LDR      R1,[R1, #+124]
   \   0000008C   927020E0           MLA      R0,R2,R0,R7
   \   00000090   080090E5           LDR      R0,[R0, #+8]
   \   00000094   921621E0           MLA      R1,R2,R6,R1
   \   00000098   000081E5           STR      R0,[R1, #+0]
    128          	str = LibGetValue(TempWindow->ValueTable[col].ValueId,PROTemperature::AllObjVector[0],&unitstr);
   \   0000009C   0000A0E3           MOV      R0,#+0
   \   000000A0   01002DE9           PUSH     {R0}
   \   000000A4   EC009FE5           LDR      R0,??UpdateDialog_7  ;; ??AllObjVector
   \   000000A8   001091E5           LDR      R1,[R1, #+0]
   \   000000AC   000090E5           LDR      R0,[R0, #+0]
   \   000000B0   08308DE2           ADD      R3,SP,#+8
   \   000000B4   002090E5           LDR      R2,[R0, #+0]
   \   000000B8   24008DE2           ADD      R0,SP,#+36
   \   000000BC   ........           _BLF     ??LibGetValue,??LibGetValue??rA
   \   000000C0   D4009FE5           LDR      R0,??UpdateDialog_7+0x4  ;; ??npos
   \   000000C4   0020A0E3           MOV      R2,#+0
   \   000000C8   003090E5           LDR      R3,[R0, #+0]
   \   000000CC   24108DE2           ADD      R1,SP,#+36
   \   000000D0   40008DE2           ADD      R0,SP,#+64
   \   000000D4   ........           _BLF     ??assign,??assign??rA
   \   000000D8   0020A0E3           MOV      R2,#+0
   \   000000DC   0110A0E3           MOV      R1,#+1
   \   000000E0   24008DE2           ADD      R0,SP,#+36
   \   000000E4   ........           _BLF     ??_Tidy,??_Tidy??rA
    129          	TempWindow->PaintnewHeading();
   \   000000E8   000098E5           LDR      R0,[R8, #+0]
    130          	switch ( Key ) {
   \   000000EC   815045E2           SUB      R5,R5,#+129
   \   000000F0   ........           _BLF     ??PaintnewHeading,??PaintnewHeading??rA
   \   000000F4   04D08DE2           ADD      SP,SP,#+4
   \   000000F8   405F45E2           SUB      R5,R5,#+256
   \   000000FC   020055E3           CMP      R5,#+2
   \   00000100   1300008A           BHI      ??UpdateDialog_8
   \   00000104   010F8FE2           ADR      R0,??UpdateDialog_2
   \   00000108   0500D0E7           LDRB     R0,[R0, R5]
   \   0000010C   00F18FE0           ADD      PC,PC,R0, LSL #+2
   \                     ??UpdateDialog_2:
   \   00000110   00050A00           DC8      +0,+5,+10,+0
    131          		case GUI_ID_DROPDOWN1:
    132          			TEXT_SetText(hTextUnitCol2, unitstr.c_str());
   \                     ??UpdateDialog_9:
   \   00000114   1C009DE5           LDR      R0,[SP, #+28]
   \   00000118   100050E3           CMP      R0,#+16
   \   0000011C   08109D25           LDRCS    R1,[SP, #+8]
   \   00000120   FA03D4E1           LDRSH    R0,[R4, #+58]
   \   00000124   080000EA           B        ??UpdateDialog_10
    133          			break;
    134          		case GUI_ID_DROPDOWN2:
    135          			TEXT_SetText(hTextUnitCol3, unitstr.c_str());
   \                     ??UpdateDialog_11:
   \   00000128   1C009DE5           LDR      R0,[SP, #+28]
   \   0000012C   100050E3           CMP      R0,#+16
   \   00000130   08109D25           LDRCS    R1,[SP, #+8]
   \   00000134   FC03D4E1           LDRSH    R0,[R4, #+60]
   \   00000138   030000EA           B        ??UpdateDialog_10
    136          			break;
    137          		case GUI_ID_DROPDOWN3:
    138          			TEXT_SetText(hTextUnitCol4, unitstr.c_str());
   \                     ??UpdateDialog_12:
   \   0000013C   1C009DE5           LDR      R0,[SP, #+28]
   \   00000140   100050E3           CMP      R0,#+16
   \   00000144   08109D25           LDRCS    R1,[SP, #+8]
   \   00000148   FE03D4E1           LDRSH    R0,[R4, #+62]
   \                     ??UpdateDialog_10:
   \   0000014C   08108D32           ADDCC    R1,SP,#+8
   \   00000150   ........           _BLF     TEXT_SetText,??TEXT_SetText??rA
    139          			break;
    140          	}
    141          	SystemWindow->IsModified = true;
   \                     ??UpdateDialog_8:
   \   00000154   44009FE5           LDR      R0,??UpdateDialog_7+0x8  ;; SystemWindow
   \   00000158   0110A0E3           MOV      R1,#+1
   \   0000015C   000090E5           LDR      R0,[R0, #+0]
   \   00000160   7510C0E5           STRB     R1,[R0, #+117]
    142          	SignalSaveSettings(FLASH_SAVE_SETTINGS);
   \   00000164   0100A0E3           MOV      R0,#+1
   \   00000168   ........           _BLF     ??SignalSaveSettings,??SignalSaveSettings??rA
    143          }
   \   0000016C   0020A0E3           MOV      R2,#+0
   \   00000170   0110A0E3           MOV      R1,#+1
   \   00000174   04008DE2           ADD      R0,SP,#+4
   \   00000178   ........           _BLF     ??_Tidy,??_Tidy??rA
   \   0000017C   0020A0E3           MOV      R2,#+0
   \   00000180   0110A0E3           MOV      R1,#+1
   \   00000184   3C008DE2           ADD      R0,SP,#+60
   \   00000188   ........           _BLF     ??_Tidy,??_Tidy??rA
   \   0000018C   58D08DE2           ADD      SP,SP,#+88
   \   00000190   F041BDE8           POP      {R4-R8,LR}
   \   00000194   1EFF2FE1           BX       LR               ;; return
   \                     ??UpdateDialog_7:
   \   00000198   ........           DC32     ??AllObjVector
   \   0000019C   ........           DC32     ??npos
   \   000001A0   ........           DC32     SystemWindow
    144          

   \                                 In segment CODE, align 4, keep-with-next
    145          void TDUAppSetupTemp::Update(void)
    146          {
    147          }
   \                     ??Update:
   \   00000000   1EFF2FE1           BX       LR               ;; return
    148          

   \                                 In segment CODE, align 4, keep-with-next
    149          void TDUAppSetupTemp::cbTankSetup(WM_MESSAGE *pMsg)
    150          {
   \                     ??cbTankSetup:
   \   00000000   F0402DE9           PUSH     {R4-R7,LR}
    151          	int NCode, Id;
    152          	WM_HWIN hWin = pMsg->hWin;
    153          	switch ( pMsg->MsgId ) {
   \   00000004   0C519FE5           LDR      R5,??cbTankSetup_3  ;; AppSetupTemp
   \   00000008   0070A0E1           MOV      R7,R0
   \   0000000C   000097E5           LDR      R0,[R7, #+0]
   \   00000010   F460D7E1           LDRSH    R6,[R7, #+4]
   \   00000014   0140A0E3           MOV      R4,#+1
   \   00000018   0F0050E2           SUBS     R0,R0,#+15
   \   0000001C   0700000A           BEQ      ??cbTankSetup_4
   \   00000020   0E0050E2           SUBS     R0,R0,#+14
   \   00000024   0200000A           BEQ      ??cbTankSetup_5
   \   00000028   090050E2           SUBS     R0,R0,#+9
   \   0000002C   0C00000A           BEQ      ??cbTankSetup_6
   \   00000030   350000EA           B        ??cbTankSetup_7
    154          		case WM_INIT_DIALOG:
    155          			AppSetupTemp->FirstTime = true;
   \                     ??cbTankSetup_5:
   \   00000034   000095E5           LDR      R0,[R5, #+0]
   \   00000038   2840C0E5           STRB     R4,[R0, #+40]
   \   0000003C   060000EA           B        ??cbTankSetup_8
    156          			break;
    157          		case WM_PAINT:
    158          			GUI_DrawRect(   2,  55, 275, 98 );
   \                     ??cbTankSetup_4:
   \   00000040   6230A0E3           MOV      R3,#+98
   \   00000044   B12083E2           ADD      R2,R3,#+177
   \   00000048   3710A0E3           MOV      R1,#+55
   \   0000004C   0200A0E3           MOV      R0,#+2
   \   00000050   ........           _BLF     GUI_DrawRect,??GUI_DrawRect??rA
    159          			AppSetupTemp->UpdateLanguage();
   \   00000054   000095E5           LDR      R0,[R5, #+0]
   \   00000058   ........           _BLF     ??UpdateLanguage,??UpdateLanguage??rA
   \                     ??cbTankSetup_8:
   \   0000005C   F040BDE8           POP      {R4-R7,LR}
   \   00000060   1EFF2FE1           BX       LR
    160          			break;
    161          		case WM_NOTIFY_PARENT:
    162          			Id    = WM_GetId(pMsg->hWinSrc);	/* Id of widget */
   \                     ??cbTankSetup_6:
   \   00000064   F600D7E1           LDRSH    R0,[R7, #+6]
   \   00000068   ........           _BLF     WM_GetId,??WM_GetId??rA
    163          			NCode = pMsg->Data.v;				/* Notification code */
    164          			switch ( NCode ) {
   \   0000006C   081097E5           LDR      R1,[R7, #+8]
   \   00000070   021051E2           SUBS     R1,R1,#+2
   \   00000074   0400000A           BEQ      ??cbTankSetup_9
   \   00000078   021051E2           SUBS     R1,R1,#+2
   \   0000007C   1A00000A           BEQ      ??cbTankSetup_10
   \   00000080   011051E2           SUBS     R1,R1,#+1
   \   00000084   0B00000A           BEQ      ??cbTankSetup_11
   \   00000088   F3FFFFEA           B        ??cbTankSetup_8
    165          				case WM_NOTIFICATION_RELEASED:	  /* React only if released */
    166          					switch ( Id ) {
   \                     ??cbTankSetup_9:
   \   0000008C   050050E3           CMP      R0,#+5
   \   00000090   F1FFFF1A           BNE      ??cbTankSetup_8
    167          						case GUI_ID_CLOSE: /* Close Button */
    168          							if ( !AppSetupTempIsClosed ) {
   \   00000094   ........           LDR      R0,??DataTable5  ;; AppSetupTempIsClosed
   \   00000098   0010D0E5           LDRB     R1,[R0, #+0]
   \   0000009C   000051E3           CMP      R1,#+0
   \   000000A0   EDFFFF1A           BNE      ??cbTankSetup_8
    169          								AppSetupTempIsClosed = true;
   \   000000A4   0040C0E5           STRB     R4,[R0, #+0]
    170          								GUI_EndDialog(AppSetupTemp->WinHandl, 0);
   \   000000A8   000095E5           LDR      R0,[R5, #+0]
   \   000000AC   FA02D0E1           LDRSH    R0,[R0, #+42]
   \   000000B0   ........           _BLF     GUI_EndDialog,??GUI_EndDialog??rA
   \   000000B4   E8FFFFEA           B        ??cbTankSetup_8
    171          							}
    172          							break;
    173          					}
    174          					break;
    175          				case WM_NOTIFICATION_VALUE_CHANGED:
    176          					{
    177          						switch ( Id ) {
   \                     ??cbTankSetup_11:
   \   000000B8   811040E2           SUB      R1,R0,#+129
   \   000000BC   401F41E2           SUB      R1,R1,#+256
   \   000000C0   020051E3           CMP      R1,#+2
   \   000000C4   E4FFFF8A           BHI      ??cbTankSetup_8
   \   000000C8   012F8FE2           ADR      R2,??cbTankSetup_1
   \   000000CC   D12092E1           LDRSB    R2,[R2, R1]
   \   000000D0   02F18FE0           ADD      PC,PC,R2, LSL #+2
   \                     ??cbTankSetup_1:
   \   000000D4   00000000           DC8      +0,+0,+0,+0
    178          							case GUI_ID_DROPDOWN1:
    179          							case GUI_ID_DROPDOWN2:
    180          							case GUI_ID_DROPDOWN3:
    181          								AppSetupTemp->UpdateDialog(hWin,Id);
   \                     ??cbTankSetup_12:
   \   000000D8   0020A0E1           MOV      R2,R0
   \   000000DC   000095E5           LDR      R0,[R5, #+0]
   \   000000E0   0610A0E1           MOV      R1,R6
   \   000000E4   ........           BL       ??UpdateDialog
   \   000000E8   DBFFFFEA           B        ??cbTankSetup_8
    182          								break;
    183          						}
    184          					}
    185          					break;
    186          				case WM_NOTIFICATION_SEL_CHANGED:
    187          					{
    188          						switch ( Id ) {
   \                     ??cbTankSetup_10:
   \   000000EC   811040E2           SUB      R1,R0,#+129
   \   000000F0   401F41E2           SUB      R1,R1,#+256
   \   000000F4   020051E3           CMP      R1,#+2
   \   000000F8   D7FFFF8A           BHI      ??cbTankSetup_8
   \   000000FC   012F8FE2           ADR      R2,??cbTankSetup_2
   \   00000100   D12092E1           LDRSB    R2,[R2, R1]
   \   00000104   02F18FE0           ADD      PC,PC,R2, LSL #+2
   \                     ??cbTankSetup_2:
   \   00000108   F3F3F300           DC8      +243,+243,+243,+0
    189          							case GUI_ID_DROPDOWN1:
    190          							case GUI_ID_DROPDOWN2:
    191          							case GUI_ID_DROPDOWN3:
    192          								AppSetupTemp->UpdateDialog(hWin,Id);
    193          								break;
    194          						}
    195          					}
    196          					break;
    197          			}
    198          			break;
    199          		default:
    200          			WM_DefaultProc(pMsg);
   \                     ??cbTankSetup_7:
   \   0000010C   0700A0E1           MOV      R0,R7
   \   00000110   ........           _BLF     WM_DefaultProc,??WM_DefaultProc??rA
    201          	}
    202          }
   \                     ??cbTankSetup_13:
   \   00000114   D0FFFFEA           B        ??cbTankSetup_8
   \                     ??cbTankSetup_3:
   \   00000118   ........           DC32     AppSetupTemp

   \                                 In segment DIFUNCT, align 4, keep-with-next, root
   \   00000000                      REQUIRE ?call_ctors
   \   00000000   ........           DC32    ??__sti__routine

   \                                 In segment DATA_C, align 4, align-sorted
   \                     `?<Constant "Application setup">`:
   \   00000000   4170706C6963       DC8 "Application setup"
   \              6174696F6E20
   \              736574757000
   \   00000012   0000               DC8 0, 0

   \                                 In segment DATA_C, align 4, align-sorted
   \                     `?<Constant "Close">`:
   \   00000000   436C6F736500       DC8 "Close"
   \   00000006   0000               DC8 0, 0

   \                                 In segment DATA_C, align 4, align-sorted
   \                     `?<Constant "Col. 1">`:
   \   00000000   436F6C2E2031       DC8 "Col. 1"
   \              00          
   \   00000007   00                 DC8 0

   \                                 In segment DATA_C, align 4, align-sorted
   \                     `?<Constant "Col. 2">`:
   \   00000000   436F6C2E2032       DC8 "Col. 2"
   \              00          
   \   00000007   00                 DC8 0

   \                                 In segment DATA_C, align 4, align-sorted
   \                     `?<Constant "Col. 3">`:
   \   00000000   436F6C2E2033       DC8 "Col. 3"
   \              00          
   \   00000007   00                 DC8 0

   \                                 In segment DATA_C, align 4, align-sorted
   \                     `?<Constant "Col. 4">`:
   \   00000000   436F6C2E2034       DC8 "Col. 4"
   \              00          
   \   00000007   00                 DC8 0

   \                                 In segment DATA_C, align 4, align-sorted
   \                     `?<Constant "Name ">`:
   \   00000000   4E616D652000       DC8 "Name "
   \   00000006   0000               DC8 0, 0

   \                                 In segment DATA_C, align 4, align-sorted
   \                     `?<Constant "unit">`:
   \   00000000   756E697400         DC8 "unit"
   \   00000005   000000             DC8 0, 0, 0

   \                                 In segment DATA_C, align 4, align-sorted
   \                     `?<Constant {{2201, 0, 69}, {5, 0, 18}, {2568, `:
   \   00000000   990800000000       DC32 2201, 0, 69, 5, 0, 18, 2568, 0, 70, 2569, 0, 71, 2570, 0, 72, 2571
   \              000045000000
   \              050000000000
   \              000012000000
   \              080A00000000
   \              000046000000
   \              090A00000000
   \              000047000000
   \              0A0A00000000
   \              000048000000
   \              0B0A0000    
   \   00000040   000000004900       DC32 0, 73, 2572, 0, 74
   \              00000C0A0000
   \              000000004A00
   \              0000        

   \                                 In segment CODE, align 4, keep-with-next
   \   __??Code32?? __code __interwork __atpcs TDUAppSetupTemp &TDUAppSetupTemp::new TDUAppSetupTemp()
   \                     `??new TDUAppSetupTemp`:
   \   00000000   10402DE9           PUSH     {R4,LR}
   \   00000004   5400A0E3           MOV      R0,#+84
   \   00000008   ........           _BLF     `??operator new`,`??operator new??rA`
   \   0000000C   0040B0E1           MOVS     R4,R0
   \   00000010   0300000A           BEQ      `??new TDUAppSetupTemp_1`
   \   00000014   ........           _BLF     ??TDUBasicWin,??TDUBasicWin??rA
   \   00000018   ........           LDR      R0,??DataTable5  ;; AppSetupTempIsClosed
   \   0000001C   0110A0E3           MOV      R1,#+1
   \   00000020   0010C0E5           STRB     R1,[R0, #+0]
   \                     `??new TDUAppSetupTemp_1`:
   \   00000024   0400A0E1           MOV      R0,R4
   \   00000028   1040BDE8           POP      {R4,LR}
   \   0000002C   1EFF2FE1           BX       LR               ;; return

   \                                 In segment CODE, align 4, keep-with-next
   \   __??Code32?? __code __interwork __atpcs void TDUAppSetupTemp::delete ~TDUAppSetupTemp(TDUAppSetupTemp *)
   \                     `??delete ~TDUAppSetupTemp`:
   \   00000000   10402DE9           PUSH     {R4,LR}
   \   00000004   0040B0E1           MOVS     R4,R0
   \   00000008   0200000A           BEQ      `??delete ~TDUAppSetupTemp_1`
   \   0000000C   ........           _BLF     `?~TDUBasicWin`,`?~TDUBasicWin??rA`
   \   00000010   0400A0E1           MOV      R0,R4
   \   00000014   ........           _BLF     `??operator delete`,`??operator delete??rA`
   \                     `??delete ~TDUAppSetupTemp_1`:
   \   00000018   1040BDE8           POP      {R4,LR}
   \   0000001C   1EFF2FE1           BX       LR               ;; return

   \                                 In segment CODE, align 4, keep-with-next
   \   static __??Code32?? __intrinsic __code __interwork __atpcs void __sti__routine()
   \                     ??__sti__routine:
   \   00000000   1EFF2FE1           BX       LR               ;; return

   \                                 In segment CODE, align 4, keep-with-next
   \                     ??DataTable4:
   \   00000000   ........           DC32     TempWindow

   \                                 In segment CODE, align 4, keep-with-next
   \                     ??DataTable5:
   \   00000000   ........           DC32     AppSetupTempIsClosed

   Maximum stack usage in bytes:

     Function                       CSTACK
     --------                       ------
     TDUAppSetupTemp::ExecDialogBox(GUI_HWIN)
                                       16
     TDUAppSetupTemp::GetDialogHandles()
                                        8
     TDUAppSetupTemp::InitDialog()    204
     TDUAppSetupTemp::TDUAppSetupTemp()
                                        8
     TDUAppSetupTemp::Update()          0
     TDUAppSetupTemp::UpdateDialog(GUI_HWIN, int)
                                      116
     TDUAppSetupTemp::cbTankSetup(WM_MESSAGE *)
                                       20
     TDUAppSetupTemp::delete ~TDUAppSetupTemp(TDUAppSetupTemp *)
                                        8
     TDUAppSetupTemp::new TDUAppSetupTemp()
                                        8
     TDUAppSetupTemp::~TDUAppSetupTemp()
                                        4
     __sti__routine()                   0


   Segment part sizes:

     Function/Label                 Bytes
     --------------                 -----
     TDUAppSetupTemp::~TDUAppSetupTemp()
                                      16
     TDUAppSetupTemp::TDUAppSetupTemp()
                                      36
     TDUAppSetupTemp::aDialogCreate  312
     TDUAppSetupTemp::ExecDialogBox(GUI_HWIN)
                                     184
     TDUAppSetupTemp::GetDialogHandles()
                                     200
     TDUAppSetupTemp::InitDialog()   484
     TDUAppSetupTemp::UpdateDialog(GUI_HWIN, int)
                                     420
     TDUAppSetupTemp::Update()         4
     TDUAppSetupTemp::cbTankSetup(WM_MESSAGE *)
                                     284
     ?<Constant "Application setup">
                                      20
     ?<Constant "Close">               8
     ?<Constant "Col. 1">              8
     ?<Constant "Col. 2">              8
     ?<Constant "Col. 3">              8
     ?<Constant "Col. 4">              8
     ?<Constant "Name ">               8
     ?<Constant "unit">                8
     ?<Constant {{2201, 0, 69}, {5, 0, 18}, {2568,
                                      84
     TDUAppSetupTemp::new TDUAppSetupTemp()
                                      48
     TDUAppSetupTemp::delete ~TDUAppSetupTemp(TDUAppSetupTemp *)
                                      32
     __sti__routine()                  4
     ??DataTable4                      4
     ??DataTable5                      4
      Others                         396

 
 2 112 bytes in segment CODE
   472 bytes in segment DATA_C
     4 bytes in segment DIFUNCT
 
 1 724 bytes of CODE  memory (+ 392 bytes shared)
   472 bytes of CONST memory

Errors: none
Warnings: none
