##############################################################################
#                                                                            #
# IAR ARM ANSI C/C++ Compiler V4.42A/W32               14/Sep/2022  15:17:46 #
# Copyright 1999-2005 IAR Systems. All rights reserved.                      #
#                                                                            #
#    Cpu mode        =  interwork                                            #
#    Endian          =  little                                               #
#    Stack alignment =  4                                                    #
#    Source file     =  D:\S2Prog\TXU\src\TDUAppSetupService.cpp             #
#    Command line    =  D:\S2Prog\TXU\src\TDUAppSetupService.cpp --fpu None  #
#                       -D OS_LIBMODE_SP -D CPU_S3C2410 -D OS_RAMVECT=0 -D   #
#                       OS_UART=-1 -D S2TXU -D USE_LZO=1 -D __ARM_LIBRARY__  #
#                       -D WATCHDOG=1 -D NETWORK=1 -lCN                      #
#                       D:\S2Prog\TXU\Debug\List\ -o                         #
#                       D:\S2Prog\TXU\Debug\Obj\ -s9 --debug --cpu_mode arm  #
#                       --endian little --cpu ARM920T --stack_align 4        #
#                       --interwork -e --enable_multibytes --eec++           #
#                       --dlib_config "C:\Program Files (x86)\IAR            #
#                       Systems\Embedded Workbench                           #
#                       4.0\arm\LIB\dl4tpainl8n.h" -I                        #
#                       D:\S2Prog\TXU\GUI\CORE\ -I D:\S2Prog\TXU\GUI\WM\ -I  #
#                       D:\S2Prog\TXU\GUI\WIDGET\ -I D:\S2Prog\TXU\CONFIG\   #
#                       -I D:\S2Prog\TXU\INC\ -I D:\S2Prog\TXU\..\SHARED\INC #
#                       \ -I D:\S2Prog\TXU\..\SHARED\SRC\ -I                 #
#                       D:\S2Prog\TXU\..\SHARED\LZO\minilzo.210\ -I          #
#                       D:\S2Prog\TXU\lwip-1.4.1\src\include\ -I             #
#                       D:\S2Prog\TXU\lwip-1.4.1\src\include\ipv4\ -I        #
#                       D:\S2Prog\TXU\lwip-1.4.1\src\ -I                     #
#                       D:\S2Prog\TXU\..\SHARED\Database\ -I                 #
#                       D:\S2Prog\TXU\src\ -I "C:\Program Files (x86)\IAR    #
#                       Systems\Embedded Workbench 4.0\arm\INC\"             #
#                       --inline_threshold=2                                 #
#    List file       =  D:\S2Prog\TXU\Debug\List\TDUAppSetupService.lst      #
#    Object file     =  D:\S2Prog\TXU\Debug\Obj\TDUAppSetupService.r79       #
#                                                                            #
#                                                                            #
##############################################################################

D:\S2Prog\TXU\src\TDUAppSetupService.cpp
      1          #include "TDUIncludes.h"
      2          
      3          

   \                                 In segment CODE, align 4, keep-with-next
      4          TDUAppSetupService::~TDUAppSetupService(void)
      5          {
   \                     `?~TDUAppSetupService`:
   \   00000000   00402DE9           PUSH     {LR}
      6          }
   \   00000004   ........           _BLF     `?~TDUBasicWin`,`?~TDUBasicWin??rA`
   \   00000008   0040BDE8           POP      {LR}
   \   0000000C   1EFF2FE1           BX       LR               ;; return
      7          

   \                                 In segment CODE, align 4, keep-with-next
      8          TDUAppSetupService::TDUAppSetupService(void)
   \                     ??TDUAppSetupService:
   \   00000000   10402DE9           PUSH     {R4,LR}
   \   00000004   0040A0E1           MOV      R4,R0
      9          {
   \   00000008   ........           _BLF     ??TDUBasicWin,??TDUBasicWin??rA
     10          	ValTabPtr = PROServiceTank::GetValueInfoTableStatic(ValTabEntries,TAB_TANK_VALUES);
   \   0000000C   0010A0E3           MOV      R1,#+0
   \   00000010   640084E2           ADD      R0,R4,#+100
   \   00000014   ........           _BLF     ??GetValueInfoTableStatic,??GetValueInfoTableStatic??rA
   \   00000018   680084E5           STR      R0,[R4, #+104]
     11          
     12          	AppSetupServiceIsClosed = true;
   \   0000001C   ........           LDR      R0,??DataTable1  ;; AppSetupServiceIsClosed
   \   00000020   0110A0E3           MOV      R1,#+1
   \   00000024   0010C0E5           STRB     R1,[R0, #+0]
     13          }
   \   00000028   0400A0E1           MOV      R0,R4
   \   0000002C   1040BDE8           POP      {R4,LR}
   \   00000030   1EFF2FE1           BX       LR               ;; return
     14          

   \                                 In segment DATA_C, align 4, align-sorted
     15          const GUI_WIDGET_CREATE_INFO TDUAppSetupService::aDialogCreate[] =
   \                     ??aDialogCreate:
   \   00000000   ............       DC32 FRAMEWIN_CreateIndirect, `?<Constant "Application setup">`
   \              ....        
   \   00000008   970800000000       DC16 2199, 0, 0, 0, 0, 128
   \              000000008000
   \   00000014   00000000....       DC32 0, BUTTON_CreateIndirect, `?<Constant "Close">`
   \              ............
   \   00000020   0500BE009A00       DC16 5, 190, 154, 85, 25
   \              55001900    
   \   0000002A   000000000000       DC8 0, 0, 0, 0, 0, 0
   \   00000030   ............       DC32 TEXT_CreateIndirect, `?<Constant "Col. 1">`
   \              ....        
   \   00000038   080A04000400       DC16 2568, 4, 4, 40, 15, 0
   \              28000F000000
   \   00000044   00000000           DC8 0, 0, 0, 0
   \   00000048   ............       DC32 TEXT_CreateIndirect, `?<Constant "Col. 2">`
   \              ....        
   \   00000050   090A2C000400       DC16 2569, 44, 4, 74, 15, 0
   \              4A000F000000
   \   0000005C   00000000           DC8 0, 0, 0, 0
   \   00000060   ............       DC32 TEXT_CreateIndirect, `?<Constant "Col. 3">`
   \              ....        
   \   00000068   0A0A7C000400       DC16 2570, 124, 4, 74, 15, 0
   \              4A000F000000
   \   00000074   00000000           DC8 0, 0, 0, 0
   \   00000078   ............       DC32 TEXT_CreateIndirect, `?<Constant "Col. 4">`
   \              ....        
   \   00000080   0B0ACC000400       DC16 2571, 204, 4, 74, 15, 0
   \              4A000F000000
   \   0000008C   00000000           DC8 0, 0, 0, 0
   \   00000090   ............       DC32 TEXT_CreateIndirect, `?<Constant "Name ">`
   \              ....        
   \   00000098   0C0A04001400       DC16 2572, 4, 20, 74, 15, 0
   \              4A000F000000
   \   000000A4   00000000           DC8 0, 0, 0, 0
   \   000000A8   ........0000       DC32 DROPDOWN_CreateIndirect, 0H
   \              0000        
   \   000000B0   81012C001400       DC16 385, 44, 20, 74, 110, 0
   \              4A006E000000
   \   000000BC   03000000....       DC32 3, DROPDOWN_CreateIndirect, 0H
   \              ....00000000
   \   000000C8   82017C001400       DC16 386, 124, 20, 74, 110, 0
   \              4A006E000000
   \   000000D4   03000000....       DC32 3, DROPDOWN_CreateIndirect, 0H
   \              ....00000000
   \   000000E0   8301CC001400       DC16 387, 204, 20, 74, 110, 0
   \              4A006E000000
   \   000000EC   03000000....       DC32 3, TEXT_CreateIndirect, `?<Constant "unit">`
   \              ............
   \   000000F8   620130002800       DC16 354, 48, 40, 74, 15, 0
   \              4A000F000000
   \   00000104   00000000           DC8 0, 0, 0, 0
   \   00000108   ............       DC32 TEXT_CreateIndirect, `?<Constant "unit">`
   \              ....        
   \   00000110   630180002800       DC16 355, 128, 40, 74, 15, 0
   \              4A000F000000
   \   0000011C   00000000           DC8 0, 0, 0, 0
   \   00000120   ............       DC32 TEXT_CreateIndirect, `?<Constant "unit">`
   \              ....        
   \   00000128   6401D0002800       DC16 356, 208, 40, 74, 15, 0
   \              4A000F000000
   \   00000134   00000000           DC8 0, 0, 0, 0
   \   00000138   ............       DC32 TEXT_CreateIndirect, `?<Constant "Density for:">`
   \              ....        
   \   00000140   0D0A05003C00       DC16 2573, 5, 60, 70, 15, 0
   \              46000F000000
   \   0000014C   00000000           DC8 0, 0, 0, 0
   \   00000150   ............       DC32 TEXT_CreateIndirect, `?<Constant "Heavy fuel">`
   \              ....        
   \   00000158   0E0A05004B00       DC16 2574, 5, 75, 70, 15, 0
   \              46000F000000
   \   00000164   00000000           DC8 0, 0, 0, 0
   \   00000168   ........0000       DC32 EDIT_CreateIndirect, 0H
   \              0000        
   \   00000170   620A50004B00       DC16 2658, 80, 75, 65, 15, 1
   \              41000F000100
   \   0000017C   00000000           DC8 0, 0, 0, 0
   \   00000180   ............       DC32 TEXT_CreateIndirect, `?<Constant "">`
   \              ....        
   \   00000188   FE0996004B00       DC16 2558, 150, 75, 65, 15, 0
   \              41000F000000
   \   00000194   00000000           DC8 0, 0, 0, 0
   \   00000198   ............       DC32 TEXT_CreateIndirect, `?<Constant "Diesel oil">`
   \              ....        
   \   000001A0   0F0A05005A00       DC16 2575, 5, 90, 70, 15, 0
   \              46000F000000
   \   000001AC   00000000           DC8 0, 0, 0, 0
   \   000001B0   ........0000       DC32 EDIT_CreateIndirect, 0H
   \              0000        
   \   000001B8   630A50005A00       DC16 2659, 80, 90, 65, 15, 1
   \              41000F000100
   \   000001C4   00000000           DC8 0, 0, 0, 0
   \   000001C8   ............       DC32 TEXT_CreateIndirect, `?<Constant "">`
   \              ....        
   \   000001D0   FF0996005A00       DC16 2559, 150, 90, 65, 15, 0
   \              41000F000000
   \   000001DC   00000000           DC8 0, 0, 0, 0
   \   000001E0   ............       DC32 TEXT_CreateIndirect, `?<Constant "Lubricants">`
   \              ....        
   \   000001E8   100A05006900       DC16 2576, 5, 105, 70, 15, 0
   \              46000F000000
   \   000001F4   00000000           DC8 0, 0, 0, 0
   \   000001F8   ........0000       DC32 EDIT_CreateIndirect, 0H
   \              0000        
   \   00000200   640A50006900       DC16 2660, 80, 105, 65, 15, 1
   \              41000F000100
   \   0000020C   00000000           DC8 0, 0, 0, 0
   \   00000210   ............       DC32 TEXT_CreateIndirect, `?<Constant "">`
   \              ....        
   \   00000218   000A96006900       DC16 2560, 150, 105, 65, 15, 0
   \              41000F000000
   \   00000224   00000000           DC8 0, 0, 0, 0
   \   00000228   ............       DC32 TEXT_CreateIndirect, `?<Constant "Fresh water">`
   \              ....        
   \   00000230   110A05007800       DC16 2577, 5, 120, 70, 15, 0
   \              46000F000000
   \   0000023C   00000000           DC8 0, 0, 0, 0
   \   00000240   ........0000       DC32 EDIT_CreateIndirect, 0H
   \              0000        
   \   00000248   650A50007800       DC16 2661, 80, 120, 65, 15, 1
   \              41000F000100
   \   00000254   00000000           DC8 0, 0, 0, 0
   \   00000258   ............       DC32 TEXT_CreateIndirect, `?<Constant "">`
   \              ....        
   \   00000260   010A96007800       DC16 2561, 150, 120, 65, 15, 0
   \              41000F000000
   \   0000026C   00000000           DC8 0, 0, 0, 0
     16          {
     17          	{ FRAMEWIN_CreateIndirect, "Application setup", TDU_APPSERVICE_WIN, 0, 0, 0, 0, FRAMEWIN_CF_MAXIMIZED, 0},
     18          	{ BUTTON_CreateIndirect, "Close"            ,  GUI_ID_CLOSE, 190, 154,  85, 25},
     19          	{ TEXT_CreateIndirect, "Col. 1"           ,  GUI_ID_TEXT20,   4,   4,  40,  15, TEXT_CF_LEFT},
     20          	{ TEXT_CreateIndirect, "Col. 2"           ,  GUI_ID_TEXT21,  44,   4,  74,  15, TEXT_CF_LEFT},
     21          	{ TEXT_CreateIndirect, "Col. 3"           ,  GUI_ID_TEXT22, 124,   4,  74,  15, TEXT_CF_LEFT},
     22          	{ TEXT_CreateIndirect, "Col. 4"           ,  GUI_ID_TEXT23, 204,   4,  74,  15, TEXT_CF_LEFT},
     23          	{ TEXT_CreateIndirect, "Name "              , GUI_ID_TEXT24,   4,  20,  74,  15, TEXT_CF_LEFT},
     24          	{ DROPDOWN_CreateIndirect, NULL          , GUI_ID_DROPDOWN1,  44,  20,  74, 110, 0, 3},
     25          	{ DROPDOWN_CreateIndirect, NULL          , GUI_ID_DROPDOWN2, 124,  20,  74, 110, 0, 3},
     26          	{ DROPDOWN_CreateIndirect, NULL          , GUI_ID_DROPDOWN3, 204,  20,  74, 110, 0, 3},
     27          //	{ TEXT_CreateIndirect, "unit"               ,  GUI_ID_TEXT1,   4,  40,  40,  15, TEXT_CF_LEFT },
     28          //	{ TEXT_CreateIndirect, "Total"           ,  0,   4,  56,  40,  15, TEXT_CF_LEFT },
     29          	{ TEXT_CreateIndirect, "unit"             ,  GUI_ID_TEXT2,  48,  40,  74,  15, TEXT_CF_LEFT},
     30          	{ TEXT_CreateIndirect, "unit"             ,  GUI_ID_TEXT3, 128,  40,  74,  15, TEXT_CF_LEFT},
     31          	{ TEXT_CreateIndirect, "unit"             ,  GUI_ID_TEXT4, 208,  40,  74,  15, TEXT_CF_LEFT},
     32          //	{ TEXT_CreateIndirect, ""	            ,  GUI_ID_TEXT5, 48,  56,  74,  15, TEXT_CF_LEFT },
     33          //	{ TEXT_CreateIndirect, ""	            ,  GUI_ID_TEXT6, 128,  56,  74,  15, TEXT_CF_LEFT },
     34          //	{ TEXT_CreateIndirect, ""	            ,  GUI_ID_TEXT7, 208,  56,  74,  15, TEXT_CF_LEFT },
     35          	{ TEXT_CreateIndirect, "Density for:"   ,  GUI_ID_TEXT25,   5,  60,  70, 15, TEXT_CF_LEFT},
     36          	{ TEXT_CreateIndirect, "Heavy fuel"     ,  GUI_ID_TEXT26,   5,  75,  70, 15, TEXT_CF_LEFT},
     37          	{ EDIT_CreateIndirect, NULL             ,  GUI_ID_EDIT10,  80,  75,  65, 15, GUI_TA_RIGHT},
     38          	{ TEXT_CreateIndirect, ""               ,  GUI_ID_TEXT10, 150,  75,  65, 15, TEXT_CF_LEFT},
     39          	{ TEXT_CreateIndirect, "Diesel oil"     ,  GUI_ID_TEXT27,   5,  90,  70, 15, TEXT_CF_LEFT},
     40          	{ EDIT_CreateIndirect, NULL             ,  GUI_ID_EDIT11,  80,  90,  65, 15, GUI_TA_RIGHT},
     41          	{ TEXT_CreateIndirect, ""               ,  GUI_ID_TEXT11, 150,  90,  65, 15, TEXT_CF_LEFT},
     42          	{ TEXT_CreateIndirect, "Lubricants"     ,  GUI_ID_TEXT28 ,   5, 105,  70, 15, TEXT_CF_LEFT},
     43          	{ EDIT_CreateIndirect, NULL             ,  GUI_ID_EDIT12,  80, 105,  65, 15, GUI_TA_RIGHT},
     44          	{ TEXT_CreateIndirect, ""               ,  GUI_ID_TEXT12, 150, 105,  65, 15, TEXT_CF_LEFT},
     45          	{ TEXT_CreateIndirect, "Fresh water"    ,  GUI_ID_TEXT29 ,   5, 120,  70, 15, TEXT_CF_LEFT},
     46          	{ EDIT_CreateIndirect, NULL             ,  GUI_ID_EDIT13,  80, 120,  65, 15, GUI_TA_RIGHT},
     47          	{ TEXT_CreateIndirect, ""               ,  GUI_ID_TEXT13, 150, 120,  65, 15, TEXT_CF_LEFT},
     48          };
     49          

   \                                 In segment CODE, align 4, keep-with-next
     50          void TDUAppSetupService::ExecDialogBox(WM_HWIN hCurrentWin)
     51          {
   \                     ??ExecDialogBox:
   \   00000000   10402DE9           PUSH     {R4,LR}
   \   00000004   0040A0E1           MOV      R4,R0
     52          	if ( AppSetupServiceIsClosed ) {
   \   00000008   ........           LDR      R0,??DataTable1  ;; AppSetupServiceIsClosed
   \   0000000C   0020D0E5           LDRB     R2,[R0, #+0]
   \   00000010   000052E3           CMP      R2,#+0
   \   00000014   2100000A           BEQ      ??ExecDialogBox_1
     53          		AppSetupServiceIsClosed = false;
   \   00000018   0020A0E3           MOV      R2,#+0
   \   0000001C   0020C0E5           STRB     R2,[R0, #+0]
     54          		//	WinHandl = GUI_ExecDialogBox(aDialogCreate, GUI_COUNTOF(aDialogCreate),&cbTankSetup,
     55          		//												hCurrentWin, 0, 0);
     56          		WinHandl = GUI_CreateDialogBox(aDialogCreate, GUI_COUNTOF(aDialogCreate),&cbTankSetup,
     57          																	 hCurrentWin, 0, 0);
   \   00000020   88209FE5           LDR      R2,??ExecDialogBox_2  ;; ??cbTankSetup
   \   00000024   0000A0E3           MOV      R0,#+0
   \   00000028   01002DE9           PUSH     {R0}
   \   0000002C   01002DE9           PUSH     {R0}
   \   00000030   7C009FE5           LDR      R0,??ExecDialogBox_2+0x4  ;; ??aDialogCreate
   \   00000034   0130A0E1           MOV      R3,R1
   \   00000038   1A10A0E3           MOV      R1,#+26
   \   0000003C   ........           _BLF     GUI_CreateDialogBox,??GUI_CreateDialogBox??rA
   \   00000040   BA02C4E1           STRH     R0,[R4, #+42]
     58          		DROPDOWN_SetAutoScroll( WM_GetDialogItem(WinHandl, GUI_ID_DROPDOWN1), 1 );
   \   00000044   8110A0E3           MOV      R1,#+129
   \   00000048   401F81E3           ORR      R1,R1,#0x100
   \   0000004C   ........           _BLF     WM_GetDialogItem,??WM_GetDialogItem??rA
   \   00000050   0110A0E3           MOV      R1,#+1
   \   00000054   ........           _BLF     DROPDOWN_SetAutoScroll,??DROPDOWN_SetAutoScroll??rA
     59          		DROPDOWN_SetAutoScroll( WM_GetDialogItem(WinHandl, GUI_ID_DROPDOWN2), 1 );
   \   00000058   FA02D4E1           LDRSH    R0,[R4, #+42]
   \   0000005C   8210A0E3           MOV      R1,#+130
   \   00000060   401F81E3           ORR      R1,R1,#0x100
   \   00000064   ........           _BLF     WM_GetDialogItem,??WM_GetDialogItem??rA
   \   00000068   0110A0E3           MOV      R1,#+1
   \   0000006C   ........           _BLF     DROPDOWN_SetAutoScroll,??DROPDOWN_SetAutoScroll??rA
     60          		DROPDOWN_SetAutoScroll( WM_GetDialogItem(WinHandl, GUI_ID_DROPDOWN3), 1 );
   \   00000070   FA02D4E1           LDRSH    R0,[R4, #+42]
   \   00000074   8310A0E3           MOV      R1,#+131
   \   00000078   401F81E3           ORR      R1,R1,#0x100
   \   0000007C   ........           _BLF     WM_GetDialogItem,??WM_GetDialogItem??rA
   \   00000080   0110A0E3           MOV      R1,#+1
   \   00000084   ........           _BLF     DROPDOWN_SetAutoScroll,??DROPDOWN_SetAutoScroll??rA
     61          		WM_EnableMemdev(WinHandl);
   \   00000088   FA02D4E1           LDRSH    R0,[R4, #+42]
   \   0000008C   ........           _BLF     WM_EnableMemdev,??WM_EnableMemdev??rA
     62          		GetDialogHandles();
   \   00000090   0400A0E1           MOV      R0,R4
   \   00000094   ........           BL       ??GetDialogHandles
   \   00000098   08D08DE2           ADD      SP,SP,#+8
   \   0000009C   010000EA           B        ??ExecDialogBox_3
     63          	} else {
     64          		WM_BringToTop(WinHandl);
   \                     ??ExecDialogBox_1:
   \   000000A0   FA02D4E1           LDRSH    R0,[R4, #+42]
   \   000000A4   ........           _BLF     WM_BringToTop,??WM_BringToTop??rA
     65          	}
     66          }
   \                     ??ExecDialogBox_3:
   \   000000A8   1040BDE8           POP      {R4,LR}
   \   000000AC   1EFF2FE1           BX       LR               ;; return
   \                     ??ExecDialogBox_2:
   \   000000B0   ........           DC32     ??cbTankSetup
   \   000000B4   ........           DC32     ??aDialogCreate
     67          
     68          /*********************************************************************
     69          *
     70          * Dialog procedure
     71          */

   \                                 In segment CODE, align 4, keep-with-next
     72          void TDUAppSetupService::GetDialogHandles(void)
     73          {
   \                     ??GetDialogHandles:
   \   00000000   70402DE9           PUSH     {R4-R6,LR}
   \   00000004   0040A0E1           MOV      R4,R0
     74          	/* Get window handles for all widgets */
     75          	hDropdCol2      = WM_GetDialogItem(WinHandl, GUI_ID_DROPDOWN1);
   \   00000008   FA02D4E1           LDRSH    R0,[R4, #+42]
   \   0000000C   8110A0E3           MOV      R1,#+129
   \   00000010   401F81E3           ORR      R1,R1,#0x100
   \   00000014   ........           _BLF     WM_GetDialogItem,??WM_GetDialogItem??rA
   \   00000018   B403C4E1           STRH     R0,[R4, #+52]
     76          	hDropdCol3      = WM_GetDialogItem(WinHandl, GUI_ID_DROPDOWN2);
   \   0000001C   FA02D4E1           LDRSH    R0,[R4, #+42]
   \   00000020   8210A0E3           MOV      R1,#+130
   \   00000024   401F81E3           ORR      R1,R1,#0x100
   \   00000028   ........           _BLF     WM_GetDialogItem,??WM_GetDialogItem??rA
   \   0000002C   B603C4E1           STRH     R0,[R4, #+54]
     77          	hDropdCol4      = WM_GetDialogItem(WinHandl, GUI_ID_DROPDOWN3);
   \   00000030   FA02D4E1           LDRSH    R0,[R4, #+42]
   \   00000034   8310A0E3           MOV      R1,#+131
   \   00000038   401F81E3           ORR      R1,R1,#0x100
   \   0000003C   ........           _BLF     WM_GetDialogItem,??WM_GetDialogItem??rA
   \   00000040   B803C4E1           STRH     R0,[R4, #+56]
     78          	hTextUnitCol2   = WM_GetDialogItem(WinHandl, GUI_ID_TEXT2);
   \   00000044   FA02D4E1           LDRSH    R0,[R4, #+42]
   \   00000048   6210A0E3           MOV      R1,#+98
   \   0000004C   401F81E3           ORR      R1,R1,#0x100
   \   00000050   ........           _BLF     WM_GetDialogItem,??WM_GetDialogItem??rA
   \   00000054   BA03C4E1           STRH     R0,[R4, #+58]
     79          	hTextUnitCol3   = WM_GetDialogItem(WinHandl, GUI_ID_TEXT3);
   \   00000058   FA02D4E1           LDRSH    R0,[R4, #+42]
   \   0000005C   6310A0E3           MOV      R1,#+99
   \   00000060   401F81E3           ORR      R1,R1,#0x100
   \   00000064   ........           _BLF     WM_GetDialogItem,??WM_GetDialogItem??rA
   \   00000068   BC03C4E1           STRH     R0,[R4, #+60]
     80          	hTextUnitCol4   = WM_GetDialogItem(WinHandl, GUI_ID_TEXT4);
   \   0000006C   FA02D4E1           LDRSH    R0,[R4, #+42]
   \   00000070   591FA0E3           MOV      R1,#+356
     81          	hTextTotalCol2  = WM_GetDialogItem(WinHandl, GUI_ID_TEXT5);
     82          	hTextTotalCol3  = WM_GetDialogItem(WinHandl, GUI_ID_TEXT6);
     83          	hTextTotalCol4  = WM_GetDialogItem(WinHandl, GUI_ID_TEXT7);
     84          ////No need for zero common zero adjust
     85          //  hButZeroTP    = WM_GetDialogItem(WinHandl, GUI_ID_MINIMIZE);
     86          //	hButZeroLevel = WM_GetDialogItem(WinHandl, GUI_ID_MAXIMIZE);
     87          	for ( int i=0; i < NUMBER_OF_SERVICE_DNS; i++ ) {
   \   00000074   0050A0E3           MOV      R5,#+0
   \   00000078   ........           _BLF     WM_GetDialogItem,??WM_GetDialogItem??rA
   \   0000007C   BE03C4E1           STRH     R0,[R4, #+62]
   \   00000080   FA02D4E1           LDRSH    R0,[R4, #+42]
   \   00000084   6510A0E3           MOV      R1,#+101
   \   00000088   401F81E3           ORR      R1,R1,#0x100
   \   0000008C   ........           _BLF     WM_GetDialogItem,??WM_GetDialogItem??rA
   \   00000090   B004C4E1           STRH     R0,[R4, #+64]
   \   00000094   FA02D4E1           LDRSH    R0,[R4, #+42]
   \   00000098   6610A0E3           MOV      R1,#+102
   \   0000009C   401F81E3           ORR      R1,R1,#0x100
   \   000000A0   ........           _BLF     WM_GetDialogItem,??WM_GetDialogItem??rA
   \   000000A4   B204C4E1           STRH     R0,[R4, #+66]
   \   000000A8   FA02D4E1           LDRSH    R0,[R4, #+42]
   \   000000AC   6710A0E3           MOV      R1,#+103
   \   000000B0   401F81E3           ORR      R1,R1,#0x100
   \   000000B4   ........           _BLF     WM_GetDialogItem,??WM_GetDialogItem??rA
   \   000000B8   B404C4E1           STRH     R0,[R4, #+68]
     88          		hTextDensityUnit[i]= WM_GetDialogItem(WinHandl, GUI_ID_TEXT10+i);
   \                     ??GetDialogHandles_1:
   \   000000BC   FE00A0E3           MOV      R0,#+254
   \   000000C0   900E80E3           ORR      R0,R0,#0x900
   \   000000C4   051080E0           ADD      R1,R0,R5
   \   000000C8   FA02D4E1           LDRSH    R0,[R4, #+42]
   \   000000CC   856084E0           ADD      R6,R4,R5, LSL #+1
   \   000000D0   ........           _BLF     WM_GetDialogItem,??WM_GetDialogItem??rA
   \   000000D4   B205C6E1           STRH     R0,[R6, #+82]
     89          		hEditDensity[i]    = WM_GetDialogItem(WinHandl, GUI_ID_EDIT10+i);
   \   000000D8   6200A0E3           MOV      R0,#+98
   \   000000DC   A00E80E3           ORR      R0,R0,#0xA00
   \   000000E0   051080E0           ADD      R1,R0,R5
   \   000000E4   FA02D4E1           LDRSH    R0,[R4, #+42]
     90          	}
   \   000000E8   015085E2           ADD      R5,R5,#+1
   \   000000EC   ........           _BLF     WM_GetDialogItem,??WM_GetDialogItem??rA
   \   000000F0   BA05C6E1           STRH     R0,[R6, #+90]
   \   000000F4   040055E3           CMP      R5,#+4
   \   000000F8   EFFFFFBA           BLT      ??GetDialogHandles_1
     91          	InitDialog();
   \   000000FC   0400A0E1           MOV      R0,R4
   \   00000100   ........           BL       ??InitDialog
     92          }
   \   00000104   7040BDE8           POP      {R4-R6,LR}
   \   00000108   1EFF2FE1           BX       LR               ;; return
     93          

   \                                 In segment CODE, align 4, keep-with-next
     94          void TDUAppSetupService::InitDialog(void)
     95          {
   \                     ??InitDialog:
   \   00000000   F0432DE9           PUSH     {R4-R9,LR}
   \   00000004   E4D04DE2           SUB      SP,SP,#+228
   \   00000008   0040A0E1           MOV      R4,R0
   \   0000000C   020000EA           B        ??InitDialog_1
     96          	/* Initialize all widgets */
     97          	while ( DROPDOWN_GetNumItems(hDropdCol2)>0 ) {
     98          		DROPDOWN_DeleteItem(hDropdCol2, 0);
   \                     ??InitDialog_2:
   \   00000010   F403D4E1           LDRSH    R0,[R4, #+52]
   \   00000014   0010A0E3           MOV      R1,#+0
   \   00000018   ........           _BLF     DROPDOWN_DeleteItem,??DROPDOWN_DeleteItem??rA
     99          	}
   \                     ??InitDialog_1:
   \   0000001C   F403D4E1           LDRSH    R0,[R4, #+52]
   \   00000020   ........           _BLF     DROPDOWN_GetNumItems,??DROPDOWN_GetNumItems??rA
   \   00000024   010050E3           CMP      R0,#+1
   \   00000028   F8FFFFAA           BGE      ??InitDialog_2
    100          	while ( DROPDOWN_GetNumItems(hDropdCol3)>0 ) {
   \                     ??InitDialog_3:
   \   0000002C   F603D4E1           LDRSH    R0,[R4, #+54]
   \   00000030   ........           _BLF     DROPDOWN_GetNumItems,??DROPDOWN_GetNumItems??rA
   \   00000034   010050E3           CMP      R0,#+1
   \   00000038   060000BA           BLT      ??InitDialog_4
    101          		DROPDOWN_DeleteItem(hDropdCol3, 0);
   \   0000003C   F603D4E1           LDRSH    R0,[R4, #+54]
   \   00000040   0010A0E3           MOV      R1,#+0
   \   00000044   ........           _BLF     DROPDOWN_DeleteItem,??DROPDOWN_DeleteItem??rA
   \   00000048   F7FFFFEA           B        ??InitDialog_3
    102          	}
    103          	while ( DROPDOWN_GetNumItems(hDropdCol4)>0 ) {
    104          		DROPDOWN_DeleteItem(hDropdCol4, 0);
   \                     ??InitDialog_5:
   \   0000004C   F803D4E1           LDRSH    R0,[R4, #+56]
   \   00000050   0010A0E3           MOV      R1,#+0
   \   00000054   ........           _BLF     DROPDOWN_DeleteItem,??DROPDOWN_DeleteItem??rA
    105          	}
   \                     ??InitDialog_4:
   \   00000058   F803D4E1           LDRSH    R0,[R4, #+56]
   \   0000005C   ........           _BLF     DROPDOWN_GetNumItems,??DROPDOWN_GetNumItems??rA
   \   00000060   010050E3           CMP      R0,#+1
   \   00000064   F8FFFFAA           BGE      ??InitDialog_5
    106          	int ind1 = 0;
    107          	int ind2 = 0;
    108          	int ind3 = 0;
    109          	for ( int i = 0; i < ValTabEntries; i++ ) {
   \   00000068   640094E5           LDR      R0,[R4, #+100]
   \   0000006C   0050A0E3           MOV      R5,#+0
   \   00000070   0060A0E3           MOV      R6,#+0
   \   00000074   0570A0E1           MOV      R7,R5
   \   00000078   0580A0E1           MOV      R8,R5
   \   0000007C   010050E3           CMP      R0,#+1
   \   00000080   2D0000AA           BGE      ??InitDialog_6
    110          		DROPDOWN_AddString(hDropdCol2, FindDictionaryWord(ValTabPtr[i].Name).c_str());
    111          		DROPDOWN_AddString(hDropdCol3,  FindDictionaryWord(ValTabPtr[i].Name).c_str());
    112          		DROPDOWN_AddString(hDropdCol4,  FindDictionaryWord(ValTabPtr[i].Name).c_str());
    113          		if ( ValTabPtr[i].Value==ServiceWindow->ValueTable[2].ValueId )ind1=i;
    114          		if ( ValTabPtr[i].Value==ServiceWindow->ValueTable[3].ValueId )ind2=i;
    115          		if ( ValTabPtr[i].Value==ServiceWindow->ValueTable[4].ValueId )ind3=i;
    116          	}
    117          	DROPDOWN_SetSel(hDropdCol2,ind1);
   \                     ??InitDialog_7:
   \   00000084   F403D4E1           LDRSH    R0,[R4, #+52]
   \   00000088   0510A0E1           MOV      R1,R5
   \   0000008C   ........           _BLF     DROPDOWN_SetSel,??DROPDOWN_SetSel??rA
    118          	DROPDOWN_SetSel(hDropdCol3,ind2);
   \   00000090   F603D4E1           LDRSH    R0,[R4, #+54]
   \   00000094   0610A0E1           MOV      R1,R6
   \   00000098   ........           _BLF     DROPDOWN_SetSel,??DROPDOWN_SetSel??rA
    119          	DROPDOWN_SetSel(hDropdCol4,ind3);
   \   0000009C   F803D4E1           LDRSH    R0,[R4, #+56]
   \   000000A0   0710A0E1           MOV      R1,R7
   \   000000A4   ........           _BLF     DROPDOWN_SetSel,??DROPDOWN_SetSel??rA
    120          	{
    121          		const GUIKey Words[] ={
    122          			{TDU_APPSERVICE_WIN	,0,L_WORD69},
    123          			{GUI_ID_CLOSE     	,0,L_WORD18},
    124          			{GUI_ID_TEXT20		,0,L_WORD70},
    125          			{GUI_ID_TEXT21		,0,L_WORD71},
    126          			{GUI_ID_TEXT22		,0,L_WORD72},
    127          			{GUI_ID_TEXT23		,0,L_WORD73},
    128          			{GUI_ID_TEXT24		,0,L_WORD74},
    129          			{GUI_ID_TEXT25   	,0,L_WORD80},
    130          			{GUI_ID_TEXT26   	,0,L_WORD48},
    131          			{GUI_ID_TEXT27   	,0,L_WORD49},
    132          			{GUI_ID_TEXT28  	,0,L_WORD50},
    133          			{GUI_ID_TEXT29   	,0,L_WORD51},
    134          		};
   \   000000A8   34119FE5           LDR      R1,??InitDialog_8  ;; `?<Constant {{2199, 0, 69}, {5, 0, 18}, {2568, `
   \   000000AC   54008DE2           ADD      R0,SP,#+84
   \   000000B0   9030A0E3           MOV      R3,#+144
   \                     ??InitDialog_9:
   \   000000B4   043053E2           SUBS     R3,R3,#+4
   \   000000B8   032091E7           LDR      R2,[R1, R3]
   \   000000BC   032080E7           STR      R2,[R0, R3]
   \   000000C0   FBFFFF1A           BNE      ??InitDialog_9
    135          		AddToSKeyList((GUIKey*)Words,NELEMENTS(Words));
   \   000000C4   0130A0E3           MOV      R3,#+1
   \   000000C8   0C20A0E3           MOV      R2,#+12
   \   000000CC   54108DE2           ADD      R1,SP,#+84
   \   000000D0   0400A0E1           MOV      R0,R4
   \   000000D4   ........           _BLF     ??AddToSKeyList,??AddToSKeyList??rA
    136          	}
    137          }
   \   000000D8   E4D08DE2           ADD      SP,SP,#+228
   \   000000DC   F043BDE8           POP      {R4-R9,LR}
   \   000000E0   1EFF2FE1           BX       LR               ;; return
   \                     ??InitDialog_10:
   \   000000E4   F803D4E1           LDRSH    R0,[R4, #+56]
   \   000000E8   ........           _BLF     DROPDOWN_AddString,??DROPDOWN_AddString??rA
   \   000000EC   0020A0E3           MOV      R2,#+0
   \   000000F0   0110A0E3           MOV      R1,#+1
   \   000000F4   0D00A0E1           MOV      R0,SP
   \   000000F8   ........           _BLF     ??_Tidy,??_Tidy??rA
   \   000000FC   ........           LDR      R0,??DataTable3  ;; ServiceWindow
   \   00000100   681094E5           LDR      R1,[R4, #+104]
   \   00000104   000090E5           LDR      R0,[R0, #+0]
   \   00000108   011089E0           ADD      R1,R9,R1
   \   0000010C   7C0090E5           LDR      R0,[R0, #+124]
   \   00000110   082091E5           LDR      R2,[R1, #+8]
   \   00000114   183090E5           LDR      R3,[R0, #+24]
   \   00000118   030052E1           CMP      R2,R3
   \   0000011C   243090E5           LDR      R3,[R0, #+36]
   \   00000120   300090E5           LDR      R0,[R0, #+48]
   \   00000124   0850A001           MOVEQ    R5,R8
   \   00000128   030052E1           CMP      R2,R3
   \   0000012C   0860A001           MOVEQ    R6,R8
   \   00000130   000052E1           CMP      R2,R0
   \   00000134   0870A001           MOVEQ    R7,R8
   \   00000138   018088E2           ADD      R8,R8,#+1
   \                     ??InitDialog_6:
   \   0000013C   640094E5           LDR      R0,[R4, #+100]
   \   00000140   000058E1           CMP      R8,R0
   \   00000144   CEFFFFAA           BGE      ??InitDialog_7
   \   00000148   0C00A0E3           MOV      R0,#+12
   \   0000014C   900809E0           MUL      R9,R0,R8
   \   00000150   680094E5           LDR      R0,[R4, #+104]
   \   00000154   001099E7           LDR      R1,[R9, +R0]
   \   00000158   1C008DE2           ADD      R0,SP,#+28
   \   0000015C   ........           _BLF     ??FindDictionaryWord,??FindDictionaryWord??rA
   \   00000160   34009DE5           LDR      R0,[SP, #+52]
   \   00000164   100050E3           CMP      R0,#+16
   \   00000168   F403D4E1           LDRSH    R0,[R4, #+52]
   \   0000016C   20109D25           LDRCS    R1,[SP, #+32]
   \   00000170   20108D32           ADDCC    R1,SP,#+32
   \   00000174   ........           _BLF     DROPDOWN_AddString,??DROPDOWN_AddString??rA
   \   00000178   0020A0E3           MOV      R2,#+0
   \   0000017C   0110A0E3           MOV      R1,#+1
   \   00000180   1C008DE2           ADD      R0,SP,#+28
   \   00000184   ........           _BLF     ??_Tidy,??_Tidy??rA
   \   00000188   680094E5           LDR      R0,[R4, #+104]
   \   0000018C   001099E7           LDR      R1,[R9, +R0]
   \   00000190   38008DE2           ADD      R0,SP,#+56
   \   00000194   ........           _BLF     ??FindDictionaryWord,??FindDictionaryWord??rA
   \   00000198   50009DE5           LDR      R0,[SP, #+80]
   \   0000019C   100050E3           CMP      R0,#+16
   \   000001A0   F603D4E1           LDRSH    R0,[R4, #+54]
   \   000001A4   3C109D25           LDRCS    R1,[SP, #+60]
   \   000001A8   3C108D32           ADDCC    R1,SP,#+60
   \   000001AC   ........           _BLF     DROPDOWN_AddString,??DROPDOWN_AddString??rA
   \   000001B0   0020A0E3           MOV      R2,#+0
   \   000001B4   0110A0E3           MOV      R1,#+1
   \   000001B8   38008DE2           ADD      R0,SP,#+56
   \   000001BC   ........           _BLF     ??_Tidy,??_Tidy??rA
   \   000001C0   680094E5           LDR      R0,[R4, #+104]
   \   000001C4   001099E7           LDR      R1,[R9, +R0]
   \   000001C8   0D00A0E1           MOV      R0,SP
   \   000001CC   ........           _BLF     ??FindDictionaryWord,??FindDictionaryWord??rA
   \   000001D0   18009DE5           LDR      R0,[SP, #+24]
   \   000001D4   100050E3           CMP      R0,#+16
   \   000001D8   04109D25           LDRCS    R1,[SP, #+4]
   \   000001DC   04108D32           ADDCC    R1,SP,#+4
   \   000001E0   BFFFFFEA           B        ??InitDialog_10
   \                     ??InitDialog_8:
   \   000001E4   ........           DC32     `?<Constant {{2199, 0, 69}, {5, 0, 18}, {2568, `
    138          

   \                                 In segment CODE, align 4, keep-with-next
    139          void TDUAppSetupService::UpdateDialog(WM_HWIN hWin,int Key)
    140          {
   \                     ??UpdateDialog:
   \   00000000   F0402DE9           PUSH     {R4-R7,LR}
   \   00000004   54D04DE2           SUB      SP,SP,#+84
   \   00000008   0040A0E1           MOV      R4,R0
   \   0000000C   0100A0E1           MOV      R0,R1
   \   00000010   0250A0E1           MOV      R5,R2
    141          	WM_HWIN hDropd0 = WM_GetDialogItem(hWin, Key);
   \   00000014   0510A0E1           MOV      R1,R5
   \   00000018   ........           _BLF     WM_GetDialogItem,??WM_GetDialogItem??rA
   \   0000001C   0070A0E1           MOV      R7,R0
    142          	AnsiString str, unitstr;
   \   00000020   38008DE2           ADD      R0,SP,#+56
   \   00000024   ........           _BLF     ??AnsiString,??AnsiString??rA
   \   00000028   0D00A0E1           MOV      R0,SP
   \   0000002C   ........           _BLF     ??AnsiString,??AnsiString??rA
    143          	int col;
    144          	switch ( Key ) {
   \   00000030   810045E2           SUB      R0,R5,#+129
   \   00000034   400F40E2           SUB      R0,R0,#+256
   \   00000038   020050E3           CMP      R0,#+2
   \   0000003C   0800008A           BHI      ??UpdateDialog_3
   \   00000040   011F8FE2           ADR      R1,??UpdateDialog_1
   \   00000044   0010D1E7           LDRB     R1,[R1, R0]
   \   00000048   01F18FE0           ADD      PC,PC,R1, LSL #+2
   \                     ??UpdateDialog_1:
   \   0000004C   00020400           DC8      +0,+2,+4,+0
    145          		case GUI_ID_DROPDOWN1:
    146          			col = 2;
   \                     ??UpdateDialog_4:
   \   00000050   0260A0E3           MOV      R6,#+2
   \   00000054   020000EA           B        ??UpdateDialog_3
    147          			break;
    148          		case GUI_ID_DROPDOWN2:
    149          			col = 3;
   \                     ??UpdateDialog_5:
   \   00000058   0360A0E3           MOV      R6,#+3
   \   0000005C   000000EA           B        ??UpdateDialog_3
    150          			break;
    151          		case GUI_ID_DROPDOWN3:
    152          			col = 4;
   \                     ??UpdateDialog_6:
   \   00000060   0460A0E3           MOV      R6,#+4
    153          			break;
    154          	}
    155          	ServiceWindow->ValueTable[col].ValueId = ValTabPtr[DROPDOWN_GetSel(hDropd0)].Value;
   \                     ??UpdateDialog_3:
   \   00000064   0700A0E1           MOV      R0,R7
   \   00000068   ........           LDR      R7,??DataTable3  ;; ServiceWindow
   \   0000006C   ........           _BLF     DROPDOWN_GetSel,??DROPDOWN_GetSel??rA
   \   00000070   001097E5           LDR      R1,[R7, #+0]
   \   00000074   683094E5           LDR      R3,[R4, #+104]
   \   00000078   7C1091E5           LDR      R1,[R1, #+124]
   \   0000007C   0C20A0E3           MOV      R2,#+12
   \   00000080   923020E0           MLA      R0,R2,R0,R3
   \   00000084   080090E5           LDR      R0,[R0, #+8]
   \   00000088   921621E0           MLA      R1,R2,R6,R1
   \   0000008C   000081E5           STR      R0,[R1, #+0]
    156          	str = LibGetValue(ServiceWindow->ValueTable[col].ValueId,PROServiceTank::AllObjVector[0],&unitstr);
   \   00000090   0000A0E3           MOV      R0,#+0
   \   00000094   01002DE9           PUSH     {R0}
   \   00000098   EC009FE5           LDR      R0,??UpdateDialog_7  ;; ??AllObjVector
   \   0000009C   001091E5           LDR      R1,[R1, #+0]
   \   000000A0   000090E5           LDR      R0,[R0, #+0]
   \   000000A4   04308DE2           ADD      R3,SP,#+4
   \   000000A8   002090E5           LDR      R2,[R0, #+0]
   \   000000AC   20008DE2           ADD      R0,SP,#+32
   \   000000B0   ........           _BLF     ??LibGetValue,??LibGetValue??rA
   \   000000B4   ........           LDR      R0,??DataTable12  ;; ??npos
   \   000000B8   0020A0E3           MOV      R2,#+0
   \   000000BC   003090E5           LDR      R3,[R0, #+0]
   \   000000C0   20108DE2           ADD      R1,SP,#+32
   \   000000C4   3C008DE2           ADD      R0,SP,#+60
   \   000000C8   ........           _BLF     ??assign,??assign??rA
   \   000000CC   0020A0E3           MOV      R2,#+0
   \   000000D0   0110A0E3           MOV      R1,#+1
   \   000000D4   20008DE2           ADD      R0,SP,#+32
   \   000000D8   ........           _BLF     ??_Tidy,??_Tidy??rA
    157          	ServiceWindow->PaintnewHeading();
   \   000000DC   000097E5           LDR      R0,[R7, #+0]
    158          	switch ( Key ) {
   \   000000E0   815045E2           SUB      R5,R5,#+129
   \   000000E4   ........           _BLF     ??PaintnewHeading,??PaintnewHeading??rA
   \   000000E8   04D08DE2           ADD      SP,SP,#+4
   \   000000EC   405F45E2           SUB      R5,R5,#+256
   \   000000F0   020055E3           CMP      R5,#+2
   \   000000F4   1300008A           BHI      ??UpdateDialog_8
   \   000000F8   010F8FE2           ADR      R0,??UpdateDialog_2
   \   000000FC   0500D0E7           LDRB     R0,[R0, R5]
   \   00000100   00F18FE0           ADD      PC,PC,R0, LSL #+2
   \                     ??UpdateDialog_2:
   \   00000104   00050A00           DC8      +0,+5,+10,+0
    159          		case GUI_ID_DROPDOWN1:
    160          			TEXT_SetText(hTextUnitCol2, unitstr.c_str());
   \                     ??UpdateDialog_9:
   \   00000108   18009DE5           LDR      R0,[SP, #+24]
   \   0000010C   100050E3           CMP      R0,#+16
   \   00000110   04109D25           LDRCS    R1,[SP, #+4]
   \   00000114   FA03D4E1           LDRSH    R0,[R4, #+58]
   \   00000118   080000EA           B        ??UpdateDialog_10
    161          			break;
    162          		case GUI_ID_DROPDOWN2:
    163          			TEXT_SetText(hTextUnitCol3, unitstr.c_str());
   \                     ??UpdateDialog_11:
   \   0000011C   18009DE5           LDR      R0,[SP, #+24]
   \   00000120   100050E3           CMP      R0,#+16
   \   00000124   04109D25           LDRCS    R1,[SP, #+4]
   \   00000128   FC03D4E1           LDRSH    R0,[R4, #+60]
   \   0000012C   030000EA           B        ??UpdateDialog_10
    164          			break;
    165          		case GUI_ID_DROPDOWN3:
    166          			TEXT_SetText(hTextUnitCol4, unitstr.c_str());
   \                     ??UpdateDialog_12:
   \   00000130   18009DE5           LDR      R0,[SP, #+24]
   \   00000134   100050E3           CMP      R0,#+16
   \   00000138   04109D25           LDRCS    R1,[SP, #+4]
   \   0000013C   FE03D4E1           LDRSH    R0,[R4, #+62]
   \                     ??UpdateDialog_10:
   \   00000140   04108D32           ADDCC    R1,SP,#+4
   \   00000144   ........           _BLF     TEXT_SetText,??TEXT_SetText??rA
    167          			break;
    168          	}
    169          	SystemWindow->IsModified = true;
   \                     ??UpdateDialog_8:
   \   00000148   40009FE5           LDR      R0,??UpdateDialog_7+0x4  ;; SystemWindow
   \   0000014C   0110A0E3           MOV      R1,#+1
   \   00000150   000090E5           LDR      R0,[R0, #+0]
   \   00000154   7510C0E5           STRB     R1,[R0, #+117]
    170          	SignalSaveSettings(FLASH_SAVE_SETTINGS);
   \   00000158   0100A0E3           MOV      R0,#+1
   \   0000015C   ........           _BLF     ??SignalSaveSettings,??SignalSaveSettings??rA
    171          }
   \   00000160   0020A0E3           MOV      R2,#+0
   \   00000164   0110A0E3           MOV      R1,#+1
   \   00000168   0D00A0E1           MOV      R0,SP
   \   0000016C   ........           _BLF     ??_Tidy,??_Tidy??rA
   \   00000170   0020A0E3           MOV      R2,#+0
   \   00000174   0110A0E3           MOV      R1,#+1
   \   00000178   38008DE2           ADD      R0,SP,#+56
   \   0000017C   ........           _BLF     ??_Tidy,??_Tidy??rA
   \   00000180   54D08DE2           ADD      SP,SP,#+84
   \   00000184   F040BDE8           POP      {R4-R7,LR}
   \   00000188   1EFF2FE1           BX       LR               ;; return
   \                     ??UpdateDialog_7:
   \   0000018C   ........           DC32     ??AllObjVector
   \   00000190   ........           DC32     SystemWindow
    172          

   \                                 In segment CODE, align 4, keep-with-next
    173          void TDUAppSetupService::Update(void)
    174          {
   \                     ??Update:
   \   00000000   70402DE9           PUSH     {R4-R6,LR}
   \   00000004   38D04DE2           SUB      SP,SP,#+56
   \   00000008   0040A0E1           MOV      R4,R0
    175          	static const int ValueList[]={SVT_HEAVY_FUEL_DNS,SVT_DIESEL_DNS,SVT_LUBRICANTS_DNS,SVT_FRESHWATER_DNS};
    176          
    177          	for ( int i=0; i < NUMBER_OF_SERVICE_DNS; i++ ) {
   \   0000000C   0050A0E3           MOV      R5,#+0
    178          		AnsiString UnitStr;
   \                     ??Update_1:
   \   00000010   0D00A0E1           MOV      R0,SP
   \   00000014   ........           _BLF     ??AnsiString,??AnsiString??rA
    179          		AnsiString DensityStr = LibGetValue(ValueList[i],PROSystemData::TXUSystemData, &UnitStr);
   \   00000018   0000A0E3           MOV      R0,#+0
   \   0000001C   01002DE9           PUSH     {R0}
   \   00000020   ........           LDR      R0,??DataTable8  ;; ??TXUSystemData
   \   00000024   04308DE2           ADD      R3,SP,#+4
   \   00000028   002090E5           LDR      R2,[R0, #+0]
   \   0000002C   78009FE5           LDR      R0,??Update_2    ;; ??ValueList
    180          		EDIT_SetText(hEditDensity[i],DensityStr.c_str());
   \   00000030   856084E0           ADD      R6,R4,R5, LSL #+1
   \   00000034   051190E7           LDR      R1,[R0, +R5, LSL #+2]
   \   00000038   20008DE2           ADD      R0,SP,#+32
   \   0000003C   ........           _BLF     ??LibGetValue,??LibGetValue??rA
   \   00000040   38009DE5           LDR      R0,[SP, #+56]
   \   00000044   04D08DE2           ADD      SP,SP,#+4
   \   00000048   100050E3           CMP      R0,#+16
   \   0000004C   FA05D6E1           LDRSH    R0,[R6, #+90]
   \   00000050   20109D25           LDRCS    R1,[SP, #+32]
    181          		TEXT_SetText(hTextDensityUnit[i],UnitStr.c_str());
    182          	}
   \   00000054   015085E2           ADD      R5,R5,#+1
   \   00000058   20108D32           ADDCC    R1,SP,#+32
   \   0000005C   ........           _BLF     EDIT_SetText,??EDIT_SetText??rA
   \   00000060   18009DE5           LDR      R0,[SP, #+24]
   \   00000064   100050E3           CMP      R0,#+16
   \   00000068   F205D6E1           LDRSH    R0,[R6, #+82]
   \   0000006C   04109D25           LDRCS    R1,[SP, #+4]
   \   00000070   04108D32           ADDCC    R1,SP,#+4
   \   00000074   ........           _BLF     TEXT_SetText,??TEXT_SetText??rA
   \   00000078   0020A0E3           MOV      R2,#+0
   \   0000007C   0110A0E3           MOV      R1,#+1
   \   00000080   1C008DE2           ADD      R0,SP,#+28
   \   00000084   ........           _BLF     ??_Tidy,??_Tidy??rA
   \   00000088   0020A0E3           MOV      R2,#+0
   \   0000008C   0110A0E3           MOV      R1,#+1
   \   00000090   0D00A0E1           MOV      R0,SP
   \   00000094   ........           _BLF     ??_Tidy,??_Tidy??rA
   \   00000098   040055E3           CMP      R5,#+4
   \   0000009C   DBFFFFBA           BLT      ??Update_1
    183          
    184          }
   \   000000A0   38D08DE2           ADD      SP,SP,#+56
   \   000000A4   7040BDE8           POP      {R4-R6,LR}
   \   000000A8   1EFF2FE1           BX       LR               ;; return
   \                     ??Update_2:
   \   000000AC   ........           DC32     ??ValueList

   \                                 In segment DATA_C, align 4, align-sorted
   \                     ??ValueList:
   \   00000000   A4050000A505       DC32 1444, 1445, 1446, 1443
   \              0000A6050000
   \              A3050000    
    185          
    186          

   \                                 In segment CODE, align 4, keep-with-next
    187          void TDUAppSetupService::cbTankSetup(WM_MESSAGE *pMsg)
    188          {
   \                     ??cbTankSetup:
   \   00000000   F0412DE9           PUSH     {R4-R8,LR}
   \   00000004   4CDF4DE2           SUB      SP,SP,#+304
    189          	int NCode, Id;
    190          	WM_HWIN hWin = pMsg->hWin;
    191          	switch ( pMsg->MsgId ) {
   \   00000008   386C9FE5           LDR      R6,??cbTankSetup_6  ;; AppSetupService
   \   0000000C   0040A0E1           MOV      R4,R0
   \   00000010   000094E5           LDR      R0,[R4, #+0]
   \   00000014   F450D4E1           LDRSH    R5,[R4, #+4]
   \   00000018   F680D4E1           LDRSH    R8,[R4, #+6]
   \   0000001C   0170A0E3           MOV      R7,#+1
   \   00000020   0D0040E2           SUB      R0,R0,#+13
   \   00000024   0710A0E3           MOV      R1,#+7
   \   00000028   401E81E3           ORR      R1,R1,#0x400
   \   0000002C   010050E1           CMP      R0,R1
   \   00000030   0103008A           BHI      ??cbTankSetup_7
   \   00000034   021F8FE2           ADR      R1,??cbTankSetup_1
   \   00000038   8000A0E1           MOV      R0,R0, LSL #+1
   \   0000003C   B01091E1           LDRH     R1,[R1, R0]
   \   00000040   01F18FE0           ADD      PC,PC,R1, LSL #+2
   \                     ??cbTankSetup_1:
   \   00000044   D302FD020602       DC16     +723,+765,+518,+765
   \              FD02        
   \   0000004C   FD02FD02FD02       DC16     +765,+765,+765,+765
   \              FD02        
   \   00000054   FD02FD02FD02       DC16     +765,+765,+765,+765
   \              FD02        
   \   0000005C   FD02FD02FD02       DC16     +765,+765,+765,+765
   \              FD02        
   \   00000064   0302FD02FD02       DC16     +515,+765,+765,+765
   \              FD02        
   \   0000006C   FD02FD02FD02       DC16     +765,+765,+765,+765
   \              FD02        
   \   00000074   FD024902FD02       DC16     +765,+585,+765,+765
   \              FD02        
   \   0000007C   FD02FD02FD02       DC16     +765,+765,+765,+765
   \              FD02        
   \   00000084   FD02FD02FD02       DC16     +765,+765,+765,+765
   \              FD02        
   \   0000008C   FD02FD02FD02       DC16     +765,+765,+765,+765
   \              FD02        
   \   00000094   FD02FD02FD02       DC16     +765,+765,+765,+765
   \              FD02        
   \   0000009C   FD02FD02FD02       DC16     +765,+765,+765,+765
   \              FD02        
   \   000000A4   FD02FD02FD02       DC16     +765,+765,+765,+765
   \              FD02        
   \   000000AC   FD02FD02FD02       DC16     +765,+765,+765,+765
   \              FD02        
   \   000000B4   FD02FD02FD02       DC16     +765,+765,+765,+765
   \              FD02        
   \   000000BC   FD02FD02FD02       DC16     +765,+765,+765,+765
   \              FD02        
   \   000000C4   FD02FD02FD02       DC16     +765,+765,+765,+765
   \              FD02        
   \   000000CC   FD02FD02FD02       DC16     +765,+765,+765,+765
   \              FD02        
   \   000000D4   FD02FD02FD02       DC16     +765,+765,+765,+765
   \              FD02        
   \   000000DC   FD02FD02FD02       DC16     +765,+765,+765,+765
   \              FD02        
   \   000000E4   FD02FD02FD02       DC16     +765,+765,+765,+765
   \              FD02        
   \   000000EC   FD02FD02FD02       DC16     +765,+765,+765,+765
   \              FD02        
   \   000000F4   FD02FD02FD02       DC16     +765,+765,+765,+765
   \              FD02        
   \   000000FC   FD02FD02FD02       DC16     +765,+765,+765,+765
   \              FD02        
   \   00000104   FD02FD02FD02       DC16     +765,+765,+765,+765
   \              FD02        
   \   0000010C   FD02FD02FD02       DC16     +765,+765,+765,+765
   \              FD02        
   \   00000114   FD02FD02FD02       DC16     +765,+765,+765,+765
   \              FD02        
   \   0000011C   FD02FD02FD02       DC16     +765,+765,+765,+765
   \              FD02        
   \   00000124   FD02FD02FD02       DC16     +765,+765,+765,+765
   \              FD02        
   \   0000012C   FD02FD02FD02       DC16     +765,+765,+765,+765
   \              FD02        
   \   00000134   FD02FD02FD02       DC16     +765,+765,+765,+765
   \              FD02        
   \   0000013C   FD02FD02FD02       DC16     +765,+765,+765,+765
   \              FD02        
   \   00000144   FD02FD02FD02       DC16     +765,+765,+765,+765
   \              FD02        
   \   0000014C   FD02FD02FD02       DC16     +765,+765,+765,+765
   \              FD02        
   \   00000154   FD02FD02FD02       DC16     +765,+765,+765,+765
   \              FD02        
   \   0000015C   FD02FD02FD02       DC16     +765,+765,+765,+765
   \              FD02        
   \   00000164   FD02FD02FD02       DC16     +765,+765,+765,+765
   \              FD02        
   \   0000016C   FD02FD02FD02       DC16     +765,+765,+765,+765
   \              FD02        
   \   00000174   FD02FD02FD02       DC16     +765,+765,+765,+765
   \              FD02        
   \   0000017C   FD02FD02FD02       DC16     +765,+765,+765,+765
   \              FD02        
   \   00000184   FD02FD02FD02       DC16     +765,+765,+765,+765
   \              FD02        
   \   0000018C   FD02FD02FD02       DC16     +765,+765,+765,+765
   \              FD02        
   \   00000194   FD02FD02FD02       DC16     +765,+765,+765,+765
   \              FD02        
   \   0000019C   FD02FD02FD02       DC16     +765,+765,+765,+765
   \              FD02        
   \   000001A4   FD02FD02FD02       DC16     +765,+765,+765,+765
   \              FD02        
   \   000001AC   FD02FD02FD02       DC16     +765,+765,+765,+765
   \              FD02        
   \   000001B4   FD02FD02FD02       DC16     +765,+765,+765,+765
   \              FD02        
   \   000001BC   FD02FD02FD02       DC16     +765,+765,+765,+765
   \              FD02        
   \   000001C4   FD02FD02FD02       DC16     +765,+765,+765,+765
   \              FD02        
   \   000001CC   FD02FD02FD02       DC16     +765,+765,+765,+765
   \              FD02        
   \   000001D4   FD02FD02FD02       DC16     +765,+765,+765,+765
   \              FD02        
   \   000001DC   FD02FD02FD02       DC16     +765,+765,+765,+765
   \              FD02        
   \   000001E4   FD02FD02FD02       DC16     +765,+765,+765,+765
   \              FD02        
   \   000001EC   FD02FD02FD02       DC16     +765,+765,+765,+765
   \              FD02        
   \   000001F4   FD02FD02FD02       DC16     +765,+765,+765,+765
   \              FD02        
   \   000001FC   FD02FD02FD02       DC16     +765,+765,+765,+765
   \              FD02        
   \   00000204   FD02FD02FD02       DC16     +765,+765,+765,+765
   \              FD02        
   \   0000020C   FD02FD02FD02       DC16     +765,+765,+765,+765
   \              FD02        
   \   00000214   FD02FD02FD02       DC16     +765,+765,+765,+765
   \              FD02        
   \   0000021C   FD02FD02FD02       DC16     +765,+765,+765,+765
   \              FD02        
   \   00000224   FD02FD02FD02       DC16     +765,+765,+765,+765
   \              FD02        
   \   0000022C   FD02FD02FD02       DC16     +765,+765,+765,+765
   \              FD02        
   \   00000234   FD02FD02FD02       DC16     +765,+765,+765,+765
   \              FD02        
   \   0000023C   FD02FD02FD02       DC16     +765,+765,+765,+765
   \              FD02        
   \   00000244   FD02FD02FD02       DC16     +765,+765,+765,+765
   \              FD02        
   \   0000024C   FD02FD02FD02       DC16     +765,+765,+765,+765
   \              FD02        
   \   00000254   FD02FD02FD02       DC16     +765,+765,+765,+765
   \              FD02        
   \   0000025C   FD02FD02FD02       DC16     +765,+765,+765,+765
   \              FD02        
   \   00000264   FD02FD02FD02       DC16     +765,+765,+765,+765
   \              FD02        
   \   0000026C   FD02FD02FD02       DC16     +765,+765,+765,+765
   \              FD02        
   \   00000274   FD02FD02FD02       DC16     +765,+765,+765,+765
   \              FD02        
   \   0000027C   FD02FD02FD02       DC16     +765,+765,+765,+765
   \              FD02        
   \   00000284   FD02FD02FD02       DC16     +765,+765,+765,+765
   \              FD02        
   \   0000028C   FD02FD02FD02       DC16     +765,+765,+765,+765
   \              FD02        
   \   00000294   FD02FD02FD02       DC16     +765,+765,+765,+765
   \              FD02        
   \   0000029C   FD02FD02FD02       DC16     +765,+765,+765,+765
   \              FD02        
   \   000002A4   FD02FD02FD02       DC16     +765,+765,+765,+765
   \              FD02        
   \   000002AC   FD02FD02FD02       DC16     +765,+765,+765,+765
   \              FD02        
   \   000002B4   FD02FD02FD02       DC16     +765,+765,+765,+765
   \              FD02        
   \   000002BC   FD02FD02FD02       DC16     +765,+765,+765,+765
   \              FD02        
   \   000002C4   FD02FD02FD02       DC16     +765,+765,+765,+765
   \              FD02        
   \   000002CC   FD02FD02FD02       DC16     +765,+765,+765,+765
   \              FD02        
   \   000002D4   FD02FD02FD02       DC16     +765,+765,+765,+765
   \              FD02        
   \   000002DC   FD02FD02FD02       DC16     +765,+765,+765,+765
   \              FD02        
   \   000002E4   FD02FD02FD02       DC16     +765,+765,+765,+765
   \              FD02        
   \   000002EC   FD02FD02FD02       DC16     +765,+765,+765,+765
   \              FD02        
   \   000002F4   FD02FD02FD02       DC16     +765,+765,+765,+765
   \              FD02        
   \   000002FC   FD02FD02FD02       DC16     +765,+765,+765,+765
   \              FD02        
   \   00000304   FD02FD02FD02       DC16     +765,+765,+765,+765
   \              FD02        
   \   0000030C   FD02FD02FD02       DC16     +765,+765,+765,+765
   \              FD02        
   \   00000314   FD02FD02FD02       DC16     +765,+765,+765,+765
   \              FD02        
   \   0000031C   FD02FD02FD02       DC16     +765,+765,+765,+765
   \              FD02        
   \   00000324   FD02FD02FD02       DC16     +765,+765,+765,+765
   \              FD02        
   \   0000032C   FD02FD02FD02       DC16     +765,+765,+765,+765
   \              FD02        
   \   00000334   FD02FD02FD02       DC16     +765,+765,+765,+765
   \              FD02        
   \   0000033C   FD02FD02FD02       DC16     +765,+765,+765,+765
   \              FD02        
   \   00000344   FD02FD02FD02       DC16     +765,+765,+765,+765
   \              FD02        
   \   0000034C   FD02FD02FD02       DC16     +765,+765,+765,+765
   \              FD02        
   \   00000354   FD02FD02FD02       DC16     +765,+765,+765,+765
   \              FD02        
   \   0000035C   FD02FD02FD02       DC16     +765,+765,+765,+765
   \              FD02        
   \   00000364   FD02FD02FD02       DC16     +765,+765,+765,+765
   \              FD02        
   \   0000036C   FD02FD02FD02       DC16     +765,+765,+765,+765
   \              FD02        
   \   00000374   FD02FD02FD02       DC16     +765,+765,+765,+765
   \              FD02        
   \   0000037C   FD02FD02FD02       DC16     +765,+765,+765,+765
   \              FD02        
   \   00000384   FD02FD02FD02       DC16     +765,+765,+765,+765
   \              FD02        
   \   0000038C   FD02FD02FD02       DC16     +765,+765,+765,+765
   \              FD02        
   \   00000394   FD02FD02FD02       DC16     +765,+765,+765,+765
   \              FD02        
   \   0000039C   FD02FD02FD02       DC16     +765,+765,+765,+765
   \              FD02        
   \   000003A4   FD02FD02FD02       DC16     +765,+765,+765,+765
   \              FD02        
   \   000003AC   FD02FD02FD02       DC16     +765,+765,+765,+765
   \              FD02        
   \   000003B4   FD02FD02FD02       DC16     +765,+765,+765,+765
   \              FD02        
   \   000003BC   FD02FD02FD02       DC16     +765,+765,+765,+765
   \              FD02        
   \   000003C4   FD02FD02FD02       DC16     +765,+765,+765,+765
   \              FD02        
   \   000003CC   FD02FD02FD02       DC16     +765,+765,+765,+765
   \              FD02        
   \   000003D4   FD02FD02FD02       DC16     +765,+765,+765,+765
   \              FD02        
   \   000003DC   FD02FD02FD02       DC16     +765,+765,+765,+765
   \              FD02        
   \   000003E4   FD02FD02FD02       DC16     +765,+765,+765,+765
   \              FD02        
   \   000003EC   FD02FD02FD02       DC16     +765,+765,+765,+765
   \              FD02        
   \   000003F4   FD02FD02FD02       DC16     +765,+765,+765,+765
   \              FD02        
   \   000003FC   FD02FD02FD02       DC16     +765,+765,+765,+765
   \              FD02        
   \   00000404   FD02FD02FD02       DC16     +765,+765,+765,+765
   \              FD02        
   \   0000040C   FD02FD02FD02       DC16     +765,+765,+765,+765
   \              FD02        
   \   00000414   FD02FD02FD02       DC16     +765,+765,+765,+765
   \              FD02        
   \   0000041C   FD02FD02FD02       DC16     +765,+765,+765,+765
   \              FD02        
   \   00000424   FD02FD02FD02       DC16     +765,+765,+765,+765
   \              FD02        
   \   0000042C   FD02FD02FD02       DC16     +765,+765,+765,+765
   \              FD02        
   \   00000434   FD02FD02FD02       DC16     +765,+765,+765,+765
   \              FD02        
   \   0000043C   FD02FD02FD02       DC16     +765,+765,+765,+765
   \              FD02        
   \   00000444   FD02FD02FD02       DC16     +765,+765,+765,+765
   \              FD02        
   \   0000044C   FD02FD02FD02       DC16     +765,+765,+765,+765
   \              FD02        
   \   00000454   FD02FD02FD02       DC16     +765,+765,+765,+765
   \              FD02        
   \   0000045C   FD02FD02FD02       DC16     +765,+765,+765,+765
   \              FD02        
   \   00000464   FD02FD02FD02       DC16     +765,+765,+765,+765
   \              FD02        
   \   0000046C   FD02FD02FD02       DC16     +765,+765,+765,+765
   \              FD02        
   \   00000474   FD02FD02FD02       DC16     +765,+765,+765,+765
   \              FD02        
   \   0000047C   FD02FD02FD02       DC16     +765,+765,+765,+765
   \              FD02        
   \   00000484   FD02FD02FD02       DC16     +765,+765,+765,+765
   \              FD02        
   \   0000048C   FD02FD02FD02       DC16     +765,+765,+765,+765
   \              FD02        
   \   00000494   FD02FD02FD02       DC16     +765,+765,+765,+765
   \              FD02        
   \   0000049C   FD02FD02FD02       DC16     +765,+765,+765,+765
   \              FD02        
   \   000004A4   FD02FD02FD02       DC16     +765,+765,+765,+765
   \              FD02        
   \   000004AC   FD02FD02FD02       DC16     +765,+765,+765,+765
   \              FD02        
   \   000004B4   FD02FD02FD02       DC16     +765,+765,+765,+765
   \              FD02        
   \   000004BC   FD02FD02FD02       DC16     +765,+765,+765,+765
   \              FD02        
   \   000004C4   FD02FD02FD02       DC16     +765,+765,+765,+765
   \              FD02        
   \   000004CC   FD02FD02FD02       DC16     +765,+765,+765,+765
   \              FD02        
   \   000004D4   FD02FD02FD02       DC16     +765,+765,+765,+765
   \              FD02        
   \   000004DC   FD02FD02FD02       DC16     +765,+765,+765,+765
   \              FD02        
   \   000004E4   FD02FD02FD02       DC16     +765,+765,+765,+765
   \              FD02        
   \   000004EC   FD02FD02FD02       DC16     +765,+765,+765,+765
   \              FD02        
   \   000004F4   FD02FD02FD02       DC16     +765,+765,+765,+765
   \              FD02        
   \   000004FC   FD02FD02FD02       DC16     +765,+765,+765,+765
   \              FD02        
   \   00000504   FD02FD02FD02       DC16     +765,+765,+765,+765
   \              FD02        
   \   0000050C   FD02FD02FD02       DC16     +765,+765,+765,+765
   \              FD02        
   \   00000514   FD02FD02FD02       DC16     +765,+765,+765,+765
   \              FD02        
   \   0000051C   FD02FD02FD02       DC16     +765,+765,+765,+765
   \              FD02        
   \   00000524   FD02FD02FD02       DC16     +765,+765,+765,+765
   \              FD02        
   \   0000052C   FD02FD02FD02       DC16     +765,+765,+765,+765
   \              FD02        
   \   00000534   FD02FD02FD02       DC16     +765,+765,+765,+765
   \              FD02        
   \   0000053C   FD02FD02FD02       DC16     +765,+765,+765,+765
   \              FD02        
   \   00000544   FD02FD02FD02       DC16     +765,+765,+765,+765
   \              FD02        
   \   0000054C   FD02FD02FD02       DC16     +765,+765,+765,+765
   \              FD02        
   \   00000554   FD02FD02FD02       DC16     +765,+765,+765,+765
   \              FD02        
   \   0000055C   FD02FD02FD02       DC16     +765,+765,+765,+765
   \              FD02        
   \   00000564   FD02FD02FD02       DC16     +765,+765,+765,+765
   \              FD02        
   \   0000056C   FD02FD02FD02       DC16     +765,+765,+765,+765
   \              FD02        
   \   00000574   FD02FD02FD02       DC16     +765,+765,+765,+765
   \              FD02        
   \   0000057C   FD02FD02FD02       DC16     +765,+765,+765,+765
   \              FD02        
   \   00000584   FD02FD02FD02       DC16     +765,+765,+765,+765
   \              FD02        
   \   0000058C   FD02FD02FD02       DC16     +765,+765,+765,+765
   \              FD02        
   \   00000594   FD02FD02FD02       DC16     +765,+765,+765,+765
   \              FD02        
   \   0000059C   FD02FD02FD02       DC16     +765,+765,+765,+765
   \              FD02        
   \   000005A4   FD02FD02FD02       DC16     +765,+765,+765,+765
   \              FD02        
   \   000005AC   FD02FD02FD02       DC16     +765,+765,+765,+765
   \              FD02        
   \   000005B4   FD02FD02FD02       DC16     +765,+765,+765,+765
   \              FD02        
   \   000005BC   FD02FD02FD02       DC16     +765,+765,+765,+765
   \              FD02        
   \   000005C4   FD02FD02FD02       DC16     +765,+765,+765,+765
   \              FD02        
   \   000005CC   FD02FD02FD02       DC16     +765,+765,+765,+765
   \              FD02        
   \   000005D4   FD02FD02FD02       DC16     +765,+765,+765,+765
   \              FD02        
   \   000005DC   FD02FD02FD02       DC16     +765,+765,+765,+765
   \              FD02        
   \   000005E4   FD02FD02FD02       DC16     +765,+765,+765,+765
   \              FD02        
   \   000005EC   FD02FD02FD02       DC16     +765,+765,+765,+765
   \              FD02        
   \   000005F4   FD02FD02FD02       DC16     +765,+765,+765,+765
   \              FD02        
   \   000005FC   FD02FD02FD02       DC16     +765,+765,+765,+765
   \              FD02        
   \   00000604   FD02FD02FD02       DC16     +765,+765,+765,+765
   \              FD02        
   \   0000060C   FD02FD02FD02       DC16     +765,+765,+765,+765
   \              FD02        
   \   00000614   FD02FD02FD02       DC16     +765,+765,+765,+765
   \              FD02        
   \   0000061C   FD02FD02FD02       DC16     +765,+765,+765,+765
   \              FD02        
   \   00000624   FD02FD02FD02       DC16     +765,+765,+765,+765
   \              FD02        
   \   0000062C   FD02FD02FD02       DC16     +765,+765,+765,+765
   \              FD02        
   \   00000634   FD02FD02FD02       DC16     +765,+765,+765,+765
   \              FD02        
   \   0000063C   FD02FD02FD02       DC16     +765,+765,+765,+765
   \              FD02        
   \   00000644   FD02FD02FD02       DC16     +765,+765,+765,+765
   \              FD02        
   \   0000064C   FD02FD02FD02       DC16     +765,+765,+765,+765
   \              FD02        
   \   00000654   FD02FD02FD02       DC16     +765,+765,+765,+765
   \              FD02        
   \   0000065C   FD02FD02FD02       DC16     +765,+765,+765,+765
   \              FD02        
   \   00000664   FD02FD02FD02       DC16     +765,+765,+765,+765
   \              FD02        
   \   0000066C   FD02FD02FD02       DC16     +765,+765,+765,+765
   \              FD02        
   \   00000674   FD02FD02FD02       DC16     +765,+765,+765,+765
   \              FD02        
   \   0000067C   FD02FD02FD02       DC16     +765,+765,+765,+765
   \              FD02        
   \   00000684   FD02FD02FD02       DC16     +765,+765,+765,+765
   \              FD02        
   \   0000068C   FD02FD02FD02       DC16     +765,+765,+765,+765
   \              FD02        
   \   00000694   FD02FD02FD02       DC16     +765,+765,+765,+765
   \              FD02        
   \   0000069C   FD02FD02FD02       DC16     +765,+765,+765,+765
   \              FD02        
   \   000006A4   FD02FD02FD02       DC16     +765,+765,+765,+765
   \              FD02        
   \   000006AC   FD02FD02FD02       DC16     +765,+765,+765,+765
   \              FD02        
   \   000006B4   FD02FD02FD02       DC16     +765,+765,+765,+765
   \              FD02        
   \   000006BC   FD02FD02FD02       DC16     +765,+765,+765,+765
   \              FD02        
   \   000006C4   FD02FD02FD02       DC16     +765,+765,+765,+765
   \              FD02        
   \   000006CC   FD02FD02FD02       DC16     +765,+765,+765,+765
   \              FD02        
   \   000006D4   FD02FD02FD02       DC16     +765,+765,+765,+765
   \              FD02        
   \   000006DC   FD02FD02FD02       DC16     +765,+765,+765,+765
   \              FD02        
   \   000006E4   FD02FD02FD02       DC16     +765,+765,+765,+765
   \              FD02        
   \   000006EC   FD02FD02FD02       DC16     +765,+765,+765,+765
   \              FD02        
   \   000006F4   FD02FD02FD02       DC16     +765,+765,+765,+765
   \              FD02        
   \   000006FC   FD02FD02FD02       DC16     +765,+765,+765,+765
   \              FD02        
   \   00000704   FD02FD02FD02       DC16     +765,+765,+765,+765
   \              FD02        
   \   0000070C   FD02FD02FD02       DC16     +765,+765,+765,+765
   \              FD02        
   \   00000714   FD02FD02FD02       DC16     +765,+765,+765,+765
   \              FD02        
   \   0000071C   FD02FD02FD02       DC16     +765,+765,+765,+765
   \              FD02        
   \   00000724   FD02FD02FD02       DC16     +765,+765,+765,+765
   \              FD02        
   \   0000072C   FD02FD02FD02       DC16     +765,+765,+765,+765
   \              FD02        
   \   00000734   FD02FD02FD02       DC16     +765,+765,+765,+765
   \              FD02        
   \   0000073C   FD02FD02FD02       DC16     +765,+765,+765,+765
   \              FD02        
   \   00000744   FD02FD02FD02       DC16     +765,+765,+765,+765
   \              FD02        
   \   0000074C   FD02FD02FD02       DC16     +765,+765,+765,+765
   \              FD02        
   \   00000754   FD02FD02FD02       DC16     +765,+765,+765,+765
   \              FD02        
   \   0000075C   FD02FD02FD02       DC16     +765,+765,+765,+765
   \              FD02        
   \   00000764   FD02FD02FD02       DC16     +765,+765,+765,+765
   \              FD02        
   \   0000076C   FD02FD02FD02       DC16     +765,+765,+765,+765
   \              FD02        
   \   00000774   FD02FD02FD02       DC16     +765,+765,+765,+765
   \              FD02        
   \   0000077C   FD02FD02FD02       DC16     +765,+765,+765,+765
   \              FD02        
   \   00000784   FD02FD02FD02       DC16     +765,+765,+765,+765
   \              FD02        
   \   0000078C   FD02FD02FD02       DC16     +765,+765,+765,+765
   \              FD02        
   \   00000794   FD02FD02FD02       DC16     +765,+765,+765,+765
   \              FD02        
   \   0000079C   FD02FD02FD02       DC16     +765,+765,+765,+765
   \              FD02        
   \   000007A4   FD02FD02FD02       DC16     +765,+765,+765,+765
   \              FD02        
   \   000007AC   FD02FD02FD02       DC16     +765,+765,+765,+765
   \              FD02        
   \   000007B4   FD02FD02FD02       DC16     +765,+765,+765,+765
   \              FD02        
   \   000007BC   FD02FD02FD02       DC16     +765,+765,+765,+765
   \              FD02        
   \   000007C4   FD02FD02FD02       DC16     +765,+765,+765,+765
   \              FD02        
   \   000007CC   FD02FD02FD02       DC16     +765,+765,+765,+765
   \              FD02        
   \   000007D4   FD02FD02FD02       DC16     +765,+765,+765,+765
   \              FD02        
   \   000007DC   FD02FD02FD02       DC16     +765,+765,+765,+765
   \              FD02        
   \   000007E4   FD02FD02FD02       DC16     +765,+765,+765,+765
   \              FD02        
   \   000007EC   FD02FD02FD02       DC16     +765,+765,+765,+765
   \              FD02        
   \   000007F4   FD02FD02FD02       DC16     +765,+765,+765,+765
   \              FD02        
   \   000007FC   FD02FD02FD02       DC16     +765,+765,+765,+765
   \              FD02        
   \   00000804   FD02FD02FD02       DC16     +765,+765,+765,+765
   \              FD02        
   \   0000080C   FD02FD02FD02       DC16     +765,+765,+765,+765
   \              FD02        
   \   00000814   FD02FD02FD02       DC16     +765,+765,+765,+765
   \              FD02        
   \   0000081C   FD02FD02FD02       DC16     +765,+765,+765,+765
   \              FD02        
   \   00000824   FD02FD02FD02       DC16     +765,+765,+765,+765
   \              FD02        
   \   0000082C   FD02FD02FD02       DC16     +765,+765,+765,+765
   \              FD02        
   \   00000834   FD02FD02FD02       DC16     +765,+765,+765,+765
   \              FD02        
   \   0000083C   FD02FD027602       DC16     +765,+765,+630,+765
   \              FD02        
   \   00000844   FD02FD02FD02       DC16     +765,+765,+765,+765
   \              FD02        
   \   0000084C   FD02FD02FD02       DC16     +765,+765,+765,+526
   \              0E02        
    192          		case WM_INIT_DIALOG:
    193          			AppSetupService->FirstTime = true;
   \                     ??cbTankSetup_8:
   \   00000854   000096E5           LDR      R0,[R6, #+0]
   \   00000858   2870C0E5           STRB     R7,[R0, #+40]
   \   0000085C   EE0000EA           B        ??cbTankSetup_9
    194          			break;
    195          		case WM_PAINT:
    196          			GUI_DrawRect(   2,  56, 270, 140);
   \                     ??cbTankSetup_10:
   \   00000860   8C30A0E3           MOV      R3,#+140
   \   00000864   822083E2           ADD      R2,R3,#+130
   \   00000868   3810A0E3           MOV      R1,#+56
   \   0000086C   0200A0E3           MOV      R0,#+2
   \   00000870   ........           _BLF     GUI_DrawRect,??GUI_DrawRect??rA
    197          			AppSetupService->UpdateLanguage();
   \   00000874   000096E5           LDR      R0,[R6, #+0]
   \   00000878   ........           _BLF     ??UpdateLanguage,??UpdateLanguage??rA
   \   0000087C   E60000EA           B        ??cbTankSetup_9
    198          			break;
    199          		case MESSAGE_YES_RETURN:
    200          			{
    201          				AnsiString TmpString;
    202          				//int ValueId = pMsg->hWinSrc;
    203          				char StringBuf[BUF_SIZE]={""};
   \                     ??cbTankSetup_11:
   \   00000880   C4539FE5           LDR      R5,??cbTankSetup_6+0x4  ;; `?<Constant "">_1`
   \   00000884   0D00A0E1           MOV      R0,SP
   \   00000888   ........           _BLF     ??AnsiString,??AnsiString??rA
   \   0000088C   E0008DE2           ADD      R0,SP,#+224
   \   00000890   5020A0E3           MOV      R2,#+80
   \                     ??cbTankSetup_12:
   \   00000894   042052E2           SUBS     R2,R2,#+4
   \   00000898   021095E7           LDR      R1,[R5, R2]
   \   0000089C   021080E7           STR      R1,[R0, R2]
   \   000008A0   FBFFFF1A           BNE      ??cbTankSetup_12
    204          				strncpy( StringBuf,(char *)pMsg->Data.p,BUF_SIZE);
   \   000008A4   081094E5           LDR      R1,[R4, #+8]
   \   000008A8   5020A0E3           MOV      R2,#+80
   \   000008AC   ........           _BLF     ??strncpy,??strncpy??rA
    205          				if ( TmpString.Length() ) {
   \   000008B0   0D00A0E1           MOV      R0,SP
   \   000008B4   ........           _BLF     ??Length,??Length??rA
   \   000008B8   000050E3           CMP      R0,#+0
   \   000008BC   2500000A           BEQ      ??cbTankSetup_13
    206          					AnsiString Text1("Zeroset warnings:");
   \   000008C0   501085E2           ADD      R1,R5,#+80
   \   000008C4   54008DE2           ADD      R0,SP,#+84
   \   000008C8   ........           _BLF     ??AnsiString_1,??AnsiString??rA_1
    207          					DisplayMessage(Text1, TmpString);
   \   000008CC   0020A0E3           MOV      R2,#+0
   \   000008D0   0010A0E3           MOV      R1,#+0
   \   000008D4   38008DE2           ADD      R0,SP,#+56
   \   000008D8   ........           _BLF     ??_Tidy,??_Tidy??rA
   \   000008DC   ........           LDR      R0,??DataTable12  ;; ??npos
   \   000008E0   0020A0E3           MOV      R2,#+0
   \   000008E4   004090E5           LDR      R4,[R0, #+0]
   \   000008E8   0D10A0E1           MOV      R1,SP
   \   000008EC   0430A0E1           MOV      R3,R4
   \   000008F0   38008DE2           ADD      R0,SP,#+56
   \   000008F4   ........           _BLF     ??assign,??assign??rA
   \   000008F8   0020A0E3           MOV      R2,#+0
   \   000008FC   0210A0E1           MOV      R1,R2
   \   00000900   1C008DE2           ADD      R0,SP,#+28
   \   00000904   ........           _BLF     ??_Tidy,??_Tidy??rA
   \   00000908   0430A0E1           MOV      R3,R4
   \   0000090C   0020A0E3           MOV      R2,#+0
   \   00000910   54108DE2           ADD      R1,SP,#+84
   \   00000914   1C008DE2           ADD      R0,SP,#+28
   \   00000918   ........           _BLF     ??assign,??assign??rA
   \   0000091C   38108DE2           ADD      R1,SP,#+56
   \   00000920   1C008DE2           ADD      R0,SP,#+28
   \   00000924   ........           _BLF     ??DisplayMessage,??DisplayMessage??rA
   \   00000928   0020A0E3           MOV      R2,#+0
   \   0000092C   0710A0E1           MOV      R1,R7
   \   00000930   38008DE2           ADD      R0,SP,#+56
   \   00000934   ........           _BLF     ??_Tidy,??_Tidy??rA
   \   00000938   0020A0E3           MOV      R2,#+0
   \   0000093C   0710A0E1           MOV      R1,R7
   \   00000940   1C008DE2           ADD      R0,SP,#+28
   \   00000944   ........           _BLF     ??_Tidy,??_Tidy??rA
    208          				}
   \   00000948   0020A0E3           MOV      R2,#+0
   \   0000094C   0710A0E1           MOV      R1,R7
   \   00000950   54008DE2           ADD      R0,SP,#+84
   \   00000954   ........           _BLF     ??_Tidy,??_Tidy??rA
    209          			}
   \                     ??cbTankSetup_13:
   \   00000958   0020A0E3           MOV      R2,#+0
   \   0000095C   0110A0E3           MOV      R1,#+1
   \   00000960   0D00A0E1           MOV      R0,SP
   \   00000964   ........           _BLF     ??_Tidy,??_Tidy??rA
   \   00000968   AB0000EA           B        ??cbTankSetup_9
    210          			break;
    211          		case WM_NOTIFY_PARENT:
    212          			Id    = WM_GetId(pMsg->hWinSrc);		/* Id of widget */
   \                     ??cbTankSetup_14:
   \   0000096C   0800A0E1           MOV      R0,R8
   \   00000970   ........           _BLF     WM_GetId,??WM_GetId??rA
   \   00000974   0080A0E1           MOV      R8,R0
    213          			NCode = pMsg->Data.v;								/* Notification code */
    214          			switch ( NCode ) {
   \   00000978   080094E5           LDR      R0,[R4, #+8]
   \   0000097C   020050E2           SUBS     R0,R0,#+2
   \   00000980   0400000A           BEQ      ??cbTankSetup_15
   \   00000984   020050E2           SUBS     R0,R0,#+2
   \   00000988   1A00000A           BEQ      ??cbTankSetup_16
   \   0000098C   010050E2           SUBS     R0,R0,#+1
   \   00000990   0B00000A           BEQ      ??cbTankSetup_17
   \   00000994   A00000EA           B        ??cbTankSetup_9
    215          				case WM_NOTIFICATION_RELEASED:		/* React only if released */
    216          					switch ( Id ) {
   \                     ??cbTankSetup_15:
   \   00000998   050058E3           CMP      R8,#+5
   \   0000099C   9E00001A           BNE      ??cbTankSetup_9
    217          						case GUI_ID_CLOSE: /* Close Button */
    218          							if ( !AppSetupServiceIsClosed ) {
   \   000009A0   ........           LDR      R0,??DataTable7  ;; AppSetupServiceIsClosed
   \   000009A4   0010D0E5           LDRB     R1,[R0, #+0]
   \   000009A8   000051E3           CMP      R1,#+0
   \   000009AC   9A00001A           BNE      ??cbTankSetup_9
    219          								AppSetupServiceIsClosed = true;
   \   000009B0   0070C0E5           STRB     R7,[R0, #+0]
    220          								GUI_EndDialog(AppSetupService->WinHandl, 0);
   \   000009B4   000096E5           LDR      R0,[R6, #+0]
   \   000009B8   FA02D0E1           LDRSH    R0,[R0, #+42]
   \   000009BC   ........           _BLF     GUI_EndDialog,??GUI_EndDialog??rA
   \   000009C0   950000EA           B        ??cbTankSetup_9
    221          							}
    222          							break;
    223          					}
    224          					break;
    225          				case WM_NOTIFICATION_VALUE_CHANGED:
    226          					{
    227          						switch ( Id ) {
   \                     ??cbTankSetup_17:
   \   000009C4   810048E2           SUB      R0,R8,#+129
   \   000009C8   400F40E2           SUB      R0,R0,#+256
   \   000009CC   020050E3           CMP      R0,#+2
   \   000009D0   9100008A           BHI      ??cbTankSetup_9
   \   000009D4   011F8FE2           ADR      R1,??cbTankSetup_2
   \   000009D8   0010D1E7           LDRB     R1,[R1, R0]
   \   000009DC   01F18FE0           ADD      PC,PC,R1, LSL #+2
   \                     ??cbTankSetup_2:
   \   000009E0   00000000           DC8      +0,+0,+0,+0
    228          							case GUI_ID_DROPDOWN1:
    229          							case GUI_ID_DROPDOWN2:
    230          							case GUI_ID_DROPDOWN3:
    231          								AppSetupService->UpdateDialog(hWin,Id);
   \                     ??cbTankSetup_18:
   \   000009E4   000096E5           LDR      R0,[R6, #+0]
   \   000009E8   0820A0E1           MOV      R2,R8
   \   000009EC   0510A0E1           MOV      R1,R5
   \   000009F0   ........           BL       ??UpdateDialog
   \   000009F4   880000EA           B        ??cbTankSetup_9
    232          								break;
    233          						}
    234          					}
    235          					break;
    236          				case WM_NOTIFICATION_SEL_CHANGED:
    237          					{
    238          						switch ( Id ) {
   \                     ??cbTankSetup_16:
   \   000009F8   810048E2           SUB      R0,R8,#+129
   \   000009FC   400F40E2           SUB      R0,R0,#+256
   \   00000A00   020050E3           CMP      R0,#+2
   \   00000A04   8400008A           BHI      ??cbTankSetup_9
   \   00000A08   021F8FE2           ADR      R1,??cbTankSetup_3
   \   00000A0C   8000A0E1           MOV      R0,R0, LSL #+1
   \   00000A10   F01091E1           LDRSH    R1,[R1, R0]
   \   00000A14   01F18FE0           ADD      PC,PC,R1, LSL #+2
   \                     ??cbTankSetup_3:
   \   00000A18   F2FFF2FFF2FF       DC16     +65522,+65522,+65522,+0
   \              0000        
    239          							case GUI_ID_DROPDOWN1:
    240          							case GUI_ID_DROPDOWN2:
    241          							case GUI_ID_DROPDOWN3:
    242          								AppSetupService->UpdateDialog(hWin,Id);
    243          								break;
    244          						}
    245          					}
    246          					break;
    247          			}
    248          			break;
    249          		case MESSAGE_KEYPAD_RETURN:
    250          			{
    251          				int ValueId = pMsg->hWinSrc;
    252          				AnsiString StringBuf =(char*)pMsg->Data.p;
   \                     ??cbTankSetup_19:
   \   00000A20   081094E5           LDR      R1,[R4, #+8]
    253          				switch ( ValueId ) {
   \   00000A24   ........           LDR      R4,??DataTable8  ;; ??TXUSystemData
   \   00000A28   0D00A0E1           MOV      R0,SP
   \   00000A2C   ........           _BLF     ??AnsiString_1,??AnsiString??rA_1
   \   00000A30   628048E2           SUB      R8,R8,#+98
   \   00000A34   A08E48E2           SUB      R8,R8,#+2560
   \   00000A38   030058E3           CMP      R8,#+3
   \   00000A3C   C5FFFF8A           BHI      ??cbTankSetup_13
   \   00000A40   010F8FE2           ADR      R0,??cbTankSetup_4
   \   00000A44   D80090E1           LDRSB    R0,[R0, R8]
   \   00000A48   00F18FE0           ADD      PC,PC,R0, LSL #+2
   \                     ??cbTankSetup_4:
   \   00000A4C   0014283C           DC8      +0,+20,+40,+60
    254          					case GUI_ID_EDIT10:
    255          						LibPutValue( SVT_HEAVY_FUEL_DNS, PROSystemData::TXUSystemData, StringBuf);
   \                     ??cbTankSetup_20:
   \   00000A50   0020A0E3           MOV      R2,#+0
   \   00000A54   0010A0E3           MOV      R1,#+0
   \   00000A58   70008DE2           ADD      R0,SP,#+112
   \   00000A5C   ........           _BLF     ??_Tidy,??_Tidy??rA
   \   00000A60   ........           LDR      R0,??DataTable12  ;; ??npos
   \   00000A64   0020A0E3           MOV      R2,#+0
   \   00000A68   003090E5           LDR      R3,[R0, #+0]
   \   00000A6C   0D10A0E1           MOV      R1,SP
   \   00000A70   70008DE2           ADD      R0,SP,#+112
   \   00000A74   ........           _BLF     ??assign,??assign??rA
   \   00000A78   001094E5           LDR      R1,[R4, #+0]
   \   00000A7C   0030A0E3           MOV      R3,#+0
   \   00000A80   70208DE2           ADD      R2,SP,#+112
   \   00000A84   A400A0E3           MOV      R0,#+164
   \   00000A88   500E80E3           ORR      R0,R0,#0x500
   \   00000A8C   ........           _BLF     ??LibPutValue,??LibPutValue??rA
   \   00000A90   0020A0E3           MOV      R2,#+0
   \   00000A94   0710A0E1           MOV      R1,R7
   \   00000A98   70008DE2           ADD      R0,SP,#+112
   \   00000A9C   3A0000EA           B        ??cbTankSetup_21
    256          						break;
    257          					case GUI_ID_EDIT11:
    258          						LibPutValue( SVT_DIESEL_DNS, PROSystemData::TXUSystemData, StringBuf);
   \                     ??cbTankSetup_22:
   \   00000AA0   0020A0E3           MOV      R2,#+0
   \   00000AA4   0010A0E3           MOV      R1,#+0
   \   00000AA8   8C008DE2           ADD      R0,SP,#+140
   \   00000AAC   ........           _BLF     ??_Tidy,??_Tidy??rA
   \   00000AB0   ........           LDR      R0,??DataTable12  ;; ??npos
   \   00000AB4   0020A0E3           MOV      R2,#+0
   \   00000AB8   003090E5           LDR      R3,[R0, #+0]
   \   00000ABC   0D10A0E1           MOV      R1,SP
   \   00000AC0   8C008DE2           ADD      R0,SP,#+140
   \   00000AC4   ........           _BLF     ??assign,??assign??rA
   \   00000AC8   001094E5           LDR      R1,[R4, #+0]
   \   00000ACC   0030A0E3           MOV      R3,#+0
   \   00000AD0   8C208DE2           ADD      R2,SP,#+140
   \   00000AD4   A500A0E3           MOV      R0,#+165
   \   00000AD8   500E80E3           ORR      R0,R0,#0x500
   \   00000ADC   ........           _BLF     ??LibPutValue,??LibPutValue??rA
   \   00000AE0   0020A0E3           MOV      R2,#+0
   \   00000AE4   0710A0E1           MOV      R1,R7
   \   00000AE8   8C008DE2           ADD      R0,SP,#+140
   \   00000AEC   260000EA           B        ??cbTankSetup_21
    259          						break;
    260          					case GUI_ID_EDIT12:
    261          						LibPutValue( SVT_LUBRICANTS_DNS, PROSystemData::TXUSystemData, StringBuf);
   \                     ??cbTankSetup_23:
   \   00000AF0   0020A0E3           MOV      R2,#+0
   \   00000AF4   0010A0E3           MOV      R1,#+0
   \   00000AF8   A8008DE2           ADD      R0,SP,#+168
   \   00000AFC   ........           _BLF     ??_Tidy,??_Tidy??rA
   \   00000B00   ........           LDR      R0,??DataTable12  ;; ??npos
   \   00000B04   0020A0E3           MOV      R2,#+0
   \   00000B08   003090E5           LDR      R3,[R0, #+0]
   \   00000B0C   0D10A0E1           MOV      R1,SP
   \   00000B10   A8008DE2           ADD      R0,SP,#+168
   \   00000B14   ........           _BLF     ??assign,??assign??rA
   \   00000B18   001094E5           LDR      R1,[R4, #+0]
   \   00000B1C   0030A0E3           MOV      R3,#+0
   \   00000B20   A8208DE2           ADD      R2,SP,#+168
   \   00000B24   A600A0E3           MOV      R0,#+166
   \   00000B28   500E80E3           ORR      R0,R0,#0x500
   \   00000B2C   ........           _BLF     ??LibPutValue,??LibPutValue??rA
   \   00000B30   0020A0E3           MOV      R2,#+0
   \   00000B34   0710A0E1           MOV      R1,R7
   \   00000B38   A8008DE2           ADD      R0,SP,#+168
   \   00000B3C   120000EA           B        ??cbTankSetup_21
    262          						break;
    263          					case GUI_ID_EDIT13:
    264          						LibPutValue( SVT_FRESHWATER_DNS, PROSystemData::TXUSystemData, StringBuf);
   \                     ??cbTankSetup_24:
   \   00000B40   0020A0E3           MOV      R2,#+0
   \   00000B44   0010A0E3           MOV      R1,#+0
   \   00000B48   C4008DE2           ADD      R0,SP,#+196
   \   00000B4C   ........           _BLF     ??_Tidy,??_Tidy??rA
   \   00000B50   ........           LDR      R0,??DataTable12  ;; ??npos
   \   00000B54   0020A0E3           MOV      R2,#+0
   \   00000B58   003090E5           LDR      R3,[R0, #+0]
   \   00000B5C   0D10A0E1           MOV      R1,SP
   \   00000B60   C4008DE2           ADD      R0,SP,#+196
   \   00000B64   ........           _BLF     ??assign,??assign??rA
   \   00000B68   001094E5           LDR      R1,[R4, #+0]
   \   00000B6C   0030A0E3           MOV      R3,#+0
   \   00000B70   C4208DE2           ADD      R2,SP,#+196
   \   00000B74   A300A0E3           MOV      R0,#+163
   \   00000B78   500E80E3           ORR      R0,R0,#0x500
   \   00000B7C   ........           _BLF     ??LibPutValue,??LibPutValue??rA
   \   00000B80   0020A0E3           MOV      R2,#+0
   \   00000B84   0710A0E1           MOV      R1,R7
   \   00000B88   C4008DE2           ADD      R0,SP,#+196
   \                     ??cbTankSetup_21:
   \   00000B8C   ........           _BLF     ??_Tidy,??_Tidy??rA
    265          						break;
    266          				}
    267          			}
   \                     ??cbTankSetup_25:
   \   00000B90   70FFFFEA           B        ??cbTankSetup_13
    268          			break;
    269          		case WM_TOUCH_CHILD:
    270          			{
    271          				Id    = WM_GetId(pMsg->hWinSrc);	/* Id of widget */
    272          				switch ( Id ) {
   \                     ??cbTankSetup_26:
   \   00000B94   B4409FE5           LDR      R4,??cbTankSetup_6+0x8  ;; KeyBoard
   \   00000B98   0800A0E1           MOV      R0,R8
   \   00000B9C   ........           _BLF     WM_GetId,??WM_GetId??rA
   \   00000BA0   0080A0E1           MOV      R8,R0
   \   00000BA4   620040E2           SUB      R0,R0,#+98
   \   00000BA8   A00E40E2           SUB      R0,R0,#+2560
   \   00000BAC   030050E3           CMP      R0,#+3
   \   00000BB0   1900008A           BHI      ??cbTankSetup_9
   \   00000BB4   011F8FE2           ADR      R1,??cbTankSetup_5
   \   00000BB8   0010D1E7           LDRB     R1,[R1, R0]
   \   00000BBC   01F18FE0           ADD      PC,PC,R1, LSL #+2
   \                     ??cbTankSetup_5:
   \   00000BC0   00070E19           DC8      +0,+7,+14,+25
    273          					case GUI_ID_EDIT10:
    274          						KeyBoard->ExecKeyBoardNum(WM_GetClientWindow(hWin),L_WORD609,Id); // Heavy fuel density.
   \                     ??cbTankSetup_27:
   \   00000BC4   0500A0E1           MOV      R0,R5
   \   00000BC8   ........           _BLF     WM_GetClientWindow,??WM_GetClientWindow??rA
   \   00000BCC   0830A0E1           MOV      R3,R8
   \   00000BD0   982F87E3           ORR      R2,R7,#0x260
   \                     ??cbTankSetup_28:
   \   00000BD4   0010A0E1           MOV      R1,R0
   \                     ??cbTankSetup_29:
   \   00000BD8   000094E5           LDR      R0,[R4, #+0]
   \   00000BDC   0D0000EA           B        ??cbTankSetup_30
    275          						break;
    276          					case GUI_ID_EDIT11:
    277          						KeyBoard->ExecKeyBoardNum(WM_GetClientWindow(hWin),L_WORD610,Id); // Diesel oil density.
   \                     ??cbTankSetup_31:
   \   00000BE0   0500A0E1           MOV      R0,R5
   \   00000BE4   ........           _BLF     WM_GetClientWindow,??WM_GetClientWindow??rA
   \   00000BE8   0010A0E1           MOV      R1,R0
   \   00000BEC   0830A0E1           MOV      R3,R8
   \   00000BF0   6220A0E3           MOV      R2,#+98
   \   00000BF4   802F82E3           ORR      R2,R2,#0x200
   \   00000BF8   F6FFFFEA           B        ??cbTankSetup_29
    278          						break;
    279          					case GUI_ID_EDIT12:
    280          						KeyBoard->ExecKeyBoardNum(WM_GetClientWindow(hWin),L_WORD611,Id); // Lubricants density.
   \                     ??cbTankSetup_32:
   \   00000BFC   0500A0E1           MOV      R0,R5
   \   00000C00   ........           _BLF     WM_GetClientWindow,??WM_GetClientWindow??rA
   \   00000C04   0010A0E1           MOV      R1,R0
   \   00000C08   000094E5           LDR      R0,[R4, #+0]
   \   00000C0C   0830A0E1           MOV      R3,R8
   \   00000C10   6320A0E3           MOV      R2,#+99
   \   00000C14   802F82E3           ORR      R2,R2,#0x200
   \                     ??cbTankSetup_30:
   \   00000C18   ........           _BLF     ??ExecKeyBoardNum,??ExecKeyBoardNum??rA
   \                     ??cbTankSetup_9:
   \   00000C1C   4CDF8DE2           ADD      SP,SP,#+304
   \   00000C20   F041BDE8           POP      {R4-R8,LR}
   \   00000C24   1EFF2FE1           BX       LR
    281          						break;
    282          					case GUI_ID_EDIT13:
    283          						KeyBoard->ExecKeyBoardNum(WM_GetClientWindow(hWin),L_WORD612,Id); // Fresh water density
   \                     ??cbTankSetup_33:
   \   00000C28   0500A0E1           MOV      R0,R5
   \   00000C2C   ........           _BLF     WM_GetClientWindow,??WM_GetClientWindow??rA
   \   00000C30   0830A0E1           MOV      R3,R8
   \   00000C34   992FA0E3           MOV      R2,#+612
   \   00000C38   E5FFFFEA           B        ??cbTankSetup_28
    284          						break;
    285          				}
    286          			}
    287          			break;
    288          
    289          		default:
    290          			WM_DefaultProc(pMsg);
   \                     ??cbTankSetup_7:
   \   00000C3C   0400A0E1           MOV      R0,R4
   \   00000C40   ........           _BLF     WM_DefaultProc,??WM_DefaultProc??rA
    291          	}
    292          }
   \                     ??cbTankSetup_34:
   \   00000C44   F4FFFFEA           B        ??cbTankSetup_9
   \                     ??cbTankSetup_6:
   \   00000C48   ........           DC32     AppSetupService
   \   00000C4C   ........           DC32     `?<Constant "">_1`
   \   00000C50   ........           DC32     KeyBoard

   \                                 In segment DIFUNCT, align 4, keep-with-next, root
   \   00000000                      REQUIRE ?call_ctors
   \   00000000   ........           DC32    ??__sti__routine

   \                                 In segment DATA_C, align 4, align-sorted
   \                     `?<Constant "Application setup">`:
   \   00000000   4170706C6963       DC8 "Application setup"
   \              6174696F6E20
   \              736574757000
   \   00000012   0000               DC8 0, 0

   \                                 In segment DATA_C, align 4, align-sorted
   \                     `?<Constant "Close">`:
   \   00000000   436C6F736500       DC8 "Close"
   \   00000006   0000               DC8 0, 0

   \                                 In segment DATA_C, align 4, align-sorted
   \                     `?<Constant "Col. 1">`:
   \   00000000   436F6C2E2031       DC8 "Col. 1"
   \              00          
   \   00000007   00                 DC8 0

   \                                 In segment DATA_C, align 4, align-sorted
   \                     `?<Constant "Col. 2">`:
   \   00000000   436F6C2E2032       DC8 "Col. 2"
   \              00          
   \   00000007   00                 DC8 0

   \                                 In segment DATA_C, align 4, align-sorted
   \                     `?<Constant "Col. 3">`:
   \   00000000   436F6C2E2033       DC8 "Col. 3"
   \              00          
   \   00000007   00                 DC8 0

   \                                 In segment DATA_C, align 4, align-sorted
   \                     `?<Constant "Col. 4">`:
   \   00000000   436F6C2E2034       DC8 "Col. 4"
   \              00          
   \   00000007   00                 DC8 0

   \                                 In segment DATA_C, align 4, align-sorted
   \                     `?<Constant "Name ">`:
   \   00000000   4E616D652000       DC8 "Name "
   \   00000006   0000               DC8 0, 0

   \                                 In segment DATA_C, align 4, align-sorted
   \                     `?<Constant "unit">`:
   \   00000000   756E697400         DC8 "unit"
   \   00000005   000000             DC8 0, 0, 0

   \                                 In segment DATA_C, align 4, align-sorted
   \                     `?<Constant "Density for:">`:
   \   00000000   44656E736974       DC8 "Density for:"
   \              7920666F723A
   \              00          
   \   0000000D   000000             DC8 0, 0, 0

   \                                 In segment DATA_C, align 4, align-sorted
   \                     `?<Constant "Heavy fuel">`:
   \   00000000   486561767920       DC8 "Heavy fuel"
   \              6675656C00  
   \   0000000B   00                 DC8 0

   \                                 In segment DATA_C, align 1, align-sorted
   \                     `?<Constant "">`:
   \   00000000   00                 DC8 ""

   \                                 In segment DATA_C, align 4, align-sorted
   \                     `?<Constant "Diesel oil">`:
   \   00000000   44696573656C       DC8 "Diesel oil"
   \              206F696C00  
   \   0000000B   00                 DC8 0

   \                                 In segment DATA_C, align 4, align-sorted
   \                     `?<Constant "Lubricants">`:
   \   00000000   4C7562726963       DC8 "Lubricants"
   \              616E747300  
   \   0000000B   00                 DC8 0

   \                                 In segment DATA_C, align 4, align-sorted
   \                     `?<Constant "Fresh water">`:
   \   00000000   467265736820       DC8 "Fresh water"
   \              776174657200

   \                                 In segment DATA_C, align 4, align-sorted
   \                     `?<Constant {{2199, 0, 69}, {5, 0, 18}, {2568, `:
   \   00000000   970800000000       DC32 2199, 0, 69, 5, 0, 18, 2568, 0, 70, 2569, 0, 71, 2570, 0, 72, 2571
   \              000045000000
   \              050000000000
   \              000012000000
   \              080A00000000
   \              000046000000
   \              090A00000000
   \              000047000000
   \              0A0A00000000
   \              000048000000
   \              0B0A0000    
   \   00000040   000000004900       DC32 0, 73, 2572, 0, 74, 2573, 0, 80, 2574, 0, 48, 2575, 0, 49, 2576, 0
   \              00000C0A0000
   \              000000004A00
   \              00000D0A0000
   \              000000005000
   \              00000E0A0000
   \              000000003000
   \              00000F0A0000
   \              000000003100
   \              0000100A0000
   \              00000000    
   \   00000080   32000000110A       DC32 50, 2577, 0, 51
   \              000000000000
   \              33000000    

   \                                 In segment DATA_C, align 4, align-sorted
   \                     `?<Constant "">_1`:
   \   00000000   00                 DC8 ""
   \   00000001   000000000000       DC8 0, 0, 0, 0, 0, 0, 0, 0, 0, 0, 0, 0, 0, 0, 0, 0
   \              000000000000
   \              00000000    
   \   00000011   000000000000       DC8 0, 0, 0, 0, 0, 0, 0, 0, 0, 0, 0, 0, 0, 0, 0, 0
   \              000000000000
   \              00000000    
   \   00000021   000000000000       DC8 0, 0, 0, 0, 0, 0, 0, 0, 0, 0, 0, 0, 0, 0, 0, 0
   \              000000000000
   \              00000000    
   \   00000031   000000000000       DC8 0, 0, 0, 0, 0, 0, 0, 0, 0, 0, 0, 0, 0, 0, 0, 0
   \              000000000000
   \              00000000    
   \   00000041   000000000000       DC8 0, 0, 0, 0, 0, 0, 0, 0, 0, 0, 0, 0, 0, 0, 0
   \              000000000000
   \              000000      
   \   00000050   5A65726F7365       DC8 "Zeroset warnings:"
   \              74207761726E
   \              696E67733A00
   \   00000062   0000               DC8 0, 0

   \                                 In segment CODE, align 4, keep-with-next
   \   __??Code32?? __code __interwork __atpcs TDUAppSetupService &TDUAppSetupService::new TDUAppSetupService()
   \                     `??new TDUAppSetupService`:
   \   00000000   00402DE9           PUSH     {LR}
   \   00000004   6C00A0E3           MOV      R0,#+108
   \   00000008   ........           _BLF     `??operator new`,`??operator new??rA`
   \   0000000C   000050E3           CMP      R0,#+0
   \   00000010   0000000A           BEQ      `??new TDUAppSetupService_1`
   \   00000014   ........           BL       ??TDUAppSetupService
   \                     `??new TDUAppSetupService_1`:
   \   00000018   0040BDE8           POP      {LR}
   \   0000001C   1EFF2FE1           BX       LR               ;; return

   \                                 In segment CODE, align 4, keep-with-next
   \   __??Code32?? __code __interwork __atpcs void TDUAppSetupService::delete ~TDUAppSetupService(TDUAppSetupService *)
   \                     `??delete ~TDUAppSetupService`:
   \   00000000   10402DE9           PUSH     {R4,LR}
   \   00000004   0040B0E1           MOVS     R4,R0
   \   00000008   0200000A           BEQ      `??delete ~TDUAppSetupService_1`
   \   0000000C   ........           _BLF     `?~TDUBasicWin`,`?~TDUBasicWin??rA`
   \   00000010   0400A0E1           MOV      R0,R4
   \   00000014   ........           _BLF     `??operator delete`,`??operator delete??rA`
   \                     `??delete ~TDUAppSetupService_1`:
   \   00000018   1040BDE8           POP      {R4,LR}
   \   0000001C   1EFF2FE1           BX       LR               ;; return

   \                                 In segment CODE, align 4, keep-with-next
   \   static __??Code32?? __intrinsic __code __interwork __atpcs void __sti__routine()
   \                     ??__sti__routine:
   \   00000000   1EFF2FE1           BX       LR               ;; return

   \                                 In segment CODE, align 4, keep-with-next
   \                     ??DataTable1:
   \   00000000   ........           DC32     AppSetupServiceIsClosed

   \                                 In segment CODE, align 4, keep-with-next
   \                     ??DataTable3:
   \   00000000   ........           DC32     ServiceWindow

   \                                 In segment CODE, align 4, keep-with-next
   \                     ??DataTable7:
   \   00000000   ........           DC32     AppSetupServiceIsClosed

   \                                 In segment CODE, align 4, keep-with-next
   \                     ??DataTable8:
   \   00000000   ........           DC32     ??TXUSystemData

   \                                 In segment CODE, align 4, keep-with-next
   \                     ??DataTable12:
   \   00000000   ........           DC32     ??npos

   Maximum stack usage in bytes:

     Function                       CSTACK
     --------                       ------
     TDUAppSetupService::ExecDialogBox(GUI_HWIN)
                                       16
     TDUAppSetupService::GetDialogHandles()
                                       16
     TDUAppSetupService::InitDialog()
                                      256
     TDUAppSetupService::TDUAppSetupService()
                                        8
     TDUAppSetupService::Update()      76
     TDUAppSetupService::UpdateDialog(GUI_HWIN, int)
                                      108
     TDUAppSetupService::cbTankSetup(WM_MESSAGE *)
                                      328
     TDUAppSetupService::delete ~TDUAppSetupService(TDUAppSetupService *)
                                        8
     TDUAppSetupService::new TDUAppSetupService()
                                        4
     TDUAppSetupService::~TDUAppSetupService()
                                        4
     __sti__routine()                   0


   Segment part sizes:

     Function/Label                 Bytes
     --------------                 -----
     TDUAppSetupService::~TDUAppSetupService()
                                      16
     TDUAppSetupService::TDUAppSetupService()
                                      52
     TDUAppSetupService::aDialogCreate
                                     624
     TDUAppSetupService::ExecDialogBox(GUI_HWIN)
                                     184
     TDUAppSetupService::GetDialogHandles()
                                     268
     TDUAppSetupService::InitDialog()
                                     488
     TDUAppSetupService::UpdateDialog(GUI_HWIN, int)
                                     404
     TDUAppSetupService::Update()    176
     ValueList                        16
     TDUAppSetupService::cbTankSetup(WM_MESSAGE *)
                                    3156
     ?<Constant "Application setup">
                                      20
     ?<Constant "Close">               8
     ?<Constant "Col. 1">              8
     ?<Constant "Col. 2">              8
     ?<Constant "Col. 3">              8
     ?<Constant "Col. 4">              8
     ?<Constant "Name ">               8
     ?<Constant "unit">                8
     ?<Constant "Density for:">       16
     ?<Constant "Heavy fuel">         12
     ?<Constant "">                    1
     ?<Constant "Diesel oil">         12
     ?<Constant "Lubricants">         12
     ?<Constant "Fresh water">        12
     ?<Constant {{2199, 0, 69}, {5, 0, 18}, {2568,
                                     144
     ?<Constant "">_1                100
     TDUAppSetupService::new TDUAppSetupService()
                                      32
     TDUAppSetupService::delete ~TDUAppSetupService(TDUAppSetupService *)
                                      32
     __sti__routine()                  4
     ??DataTable1                      4
     ??DataTable3                      4
     ??DataTable7                      4
     ??DataTable8                      4
     ??DataTable12                     4
      Others                         492

 
 5 320 bytes in segment CODE
 1 025 bytes in segment DATA_C
     4 bytes in segment DIFUNCT
 
 4 836 bytes of CODE  memory (+ 488 bytes shared)
 1 025 bytes of CONST memory

Errors: none
Warnings: none
