##############################################################################
#                                                                            #
# IAR ARM ANSI C/C++ Compiler V4.42A/W32               14/Sep/2022  15:17:55 #
# Copyright 1999-2005 IAR Systems. All rights reserved.                      #
#                                                                            #
#    Cpu mode        =  interwork                                            #
#    Endian          =  little                                               #
#    Stack alignment =  4                                                    #
#    Source file     =  D:\S2Prog\TXU\src\TDUAppSetupTankPress.cpp           #
#    Command line    =  D:\S2Prog\TXU\src\TDUAppSetupTankPress.cpp --fpu     #
#                       None -D OS_LIBMODE_SP -D CPU_S3C2410 -D              #
#                       OS_RAMVECT=0 -D OS_UART=-1 -D S2TXU -D USE_LZO=1 -D  #
#                       __ARM_LIBRARY__ -D WATCHDOG=1 -D NETWORK=1 -lCN      #
#                       D:\S2Prog\TXU\Debug\List\ -o                         #
#                       D:\S2Prog\TXU\Debug\Obj\ -s9 --debug --cpu_mode arm  #
#                       --endian little --cpu ARM920T --stack_align 4        #
#                       --interwork -e --enable_multibytes --eec++           #
#                       --dlib_config "C:\Program Files (x86)\IAR            #
#                       Systems\Embedded Workbench                           #
#                       4.0\arm\LIB\dl4tpainl8n.h" -I                        #
#                       D:\S2Prog\TXU\GUI\CORE\ -I D:\S2Prog\TXU\GUI\WM\ -I  #
#                       D:\S2Prog\TXU\GUI\WIDGET\ -I D:\S2Prog\TXU\CONFIG\   #
#                       -I D:\S2Prog\TXU\INC\ -I D:\S2Prog\TXU\..\SHARED\INC #
#                       \ -I D:\S2Prog\TXU\..\SHARED\SRC\ -I                 #
#                       D:\S2Prog\TXU\..\SHARED\LZO\minilzo.210\ -I          #
#                       D:\S2Prog\TXU\lwip-1.4.1\src\include\ -I             #
#                       D:\S2Prog\TXU\lwip-1.4.1\src\include\ipv4\ -I        #
#                       D:\S2Prog\TXU\lwip-1.4.1\src\ -I                     #
#                       D:\S2Prog\TXU\..\SHARED\Database\ -I                 #
#                       D:\S2Prog\TXU\src\ -I "C:\Program Files (x86)\IAR    #
#                       Systems\Embedded Workbench 4.0\arm\INC\"             #
#                       --inline_threshold=2                                 #
#    List file       =  D:\S2Prog\TXU\Debug\List\TDUAppSetupTankPress.lst    #
#    Object file     =  D:\S2Prog\TXU\Debug\Obj\TDUAppSetupTankPress.r79     #
#                                                                            #
#                                                                            #
##############################################################################

D:\S2Prog\TXU\src\TDUAppSetupTankPress.cpp
      1          #include "TDUIncludes.h"
      2          
      3          

   \                                 In segment CODE, align 4, keep-with-next
      4          TDUAppSetupTankPress::~TDUAppSetupTankPress(void)
      5          {
   \                     `?~TDUAppSetupTankPress`:
   \   00000000   00402DE9           PUSH     {LR}
      6          }
   \   00000004   ........           _BLF     `?~TDUBasicWin`,`?~TDUBasicWin??rA`
   \   00000008   0040BDE8           POP      {LR}
   \   0000000C   1EFF2FE1           BX       LR               ;; return
      7          

   \                                 In segment CODE, align 4, keep-with-next
      8          TDUAppSetupTankPress::TDUAppSetupTankPress(void)
   \                     ??TDUAppSetupTankPress:
   \   00000000   10402DE9           PUSH     {R4,LR}
   \   00000004   0040A0E1           MOV      R4,R0
      9          {
   \   00000008   ........           _BLF     ??TDUBasicWin,??TDUBasicWin??rA
     10          	AppSetupTankPressIsClosed = true;
   \   0000000C   ........           LDR      R0,??DataTable2  ;; AppSetupTankPressIsClosed
   \   00000010   0110A0E3           MOV      R1,#+1
   \   00000014   0010C0E5           STRB     R1,[R0, #+0]
     11          }
   \   00000018   0400A0E1           MOV      R0,R4
   \   0000001C   1040BDE8           POP      {R4,LR}
   \   00000020   1EFF2FE1           BX       LR               ;; return
     12          

   \                                 In segment DATA_C, align 4, align-sorted
     13          const GUI_WIDGET_CREATE_INFO TDUAppSetupTankPress::aDialogCreate[] =
   \                     ??aDialogCreate:
   \   00000000   ............       DC32 FRAMEWIN_CreateIndirect, `?<Constant "Application setup">`
   \              ....        
   \   00000008   980800000000       DC16 2200, 0, 0, 0, 0, 128
   \              000000008000
   \   00000014   00000000....       DC32 0, BUTTON_CreateIndirect, `?<Constant "Close">`
   \              ............
   \   00000020   0500BE009A00       DC16 5, 190, 154, 85, 25
   \              55001900    
   \   0000002A   000000000000       DC8 0, 0, 0, 0, 0, 0
   \   00000030   ............       DC32 TEXT_CreateIndirect, `?<Constant "Col. 1">`
   \              ....        
   \   00000038   080A04000400       DC16 2568, 4, 4, 40, 15, 0
   \              28000F000000
   \   00000044   00000000           DC8 0, 0, 0, 0
   \   00000048   ............       DC32 TEXT_CreateIndirect, `?<Constant "Col. 2">`
   \              ....        
   \   00000050   090A2C000400       DC16 2569, 44, 4, 74, 15, 0
   \              4A000F000000
   \   0000005C   00000000           DC8 0, 0, 0, 0
   \   00000060   ............       DC32 TEXT_CreateIndirect, `?<Constant "Col. 3">`
   \              ....        
   \   00000068   0A0A7C000400       DC16 2570, 124, 4, 74, 15, 0
   \              4A000F000000
   \   00000074   00000000           DC8 0, 0, 0, 0
   \   00000078   ............       DC32 TEXT_CreateIndirect, `?<Constant "Col. 4">`
   \              ....        
   \   00000080   0B0ACC000400       DC16 2571, 204, 4, 74, 15, 0
   \              4A000F000000
   \   0000008C   00000000           DC8 0, 0, 0, 0
   \   00000090   ............       DC32 TEXT_CreateIndirect, `?<Constant "Name ">`
   \              ....        
   \   00000098   0C0A04001400       DC16 2572, 4, 20, 74, 15, 0
   \              4A000F000000
   \   000000A4   00000000           DC8 0, 0, 0, 0
   \   000000A8   ........0000       DC32 DROPDOWN_CreateIndirect, 0H
   \              0000        
   \   000000B0   81012C001400       DC16 385, 44, 20, 74, 110, 0
   \              4A006E000000
   \   000000BC   03000000....       DC32 3, DROPDOWN_CreateIndirect, 0H
   \              ....00000000
   \   000000C8   82017C001400       DC16 386, 124, 20, 74, 110, 0
   \              4A006E000000
   \   000000D4   03000000....       DC32 3, DROPDOWN_CreateIndirect, 0H
   \              ....00000000
   \   000000E0   8301CC001400       DC16 387, 204, 20, 74, 110, 0
   \              4A006E000000
   \   000000EC   03000000....       DC32 3, TEXT_CreateIndirect, `?<Constant "unit">`
   \              ............
   \   000000F8   620130002800       DC16 354, 48, 40, 74, 15, 0
   \              4A000F000000
   \   00000104   00000000           DC8 0, 0, 0, 0
   \   00000108   ............       DC32 TEXT_CreateIndirect, `?<Constant "unit">`
   \              ....        
   \   00000110   630180002800       DC16 355, 128, 40, 74, 15, 0
   \              4A000F000000
   \   0000011C   00000000           DC8 0, 0, 0, 0
   \   00000120   ............       DC32 TEXT_CreateIndirect, `?<Constant "unit">`
   \              ....        
   \   00000128   6401D0002800       DC16 356, 208, 40, 74, 15, 0
   \              4A000F000000
   \   00000134   00000000           DC8 0, 0, 0, 0
   \   00000138   ............       DC32 BUTTON_CreateIndirect, `?<Constant "Zero adjust tank\\n pre...">`
   \              ....        
   \   00000140   700105006900       DC16 368, 5, 105, 130, 45
   \              82002D00    
   \   0000014A   000000000000       DC8 0, 0, 0, 0, 0, 0
     14          {
     15          	{ FRAMEWIN_CreateIndirect, "Application setup"  , TDU_APPTANKPRESS_WIN, 0, 0, 0, 0, FRAMEWIN_CF_MAXIMIZED, 0},
     16          	{ BUTTON_CreateIndirect, "Close"                , GUI_ID_CLOSE, 190, 154,  85, 25},
     17          	{ TEXT_CreateIndirect, "Col. 1"                 , GUI_ID_TEXT20,   4,   4,  40,  15, TEXT_CF_LEFT},
     18          	{ TEXT_CreateIndirect, "Col. 2"                 , GUI_ID_TEXT21,  44,   4,  74,  15, TEXT_CF_LEFT},
     19          	{ TEXT_CreateIndirect, "Col. 3"                 , GUI_ID_TEXT22, 124,   4,  74,  15, TEXT_CF_LEFT},
     20          	{ TEXT_CreateIndirect, "Col. 4"                 , GUI_ID_TEXT23, 204,   4,  74,  15, TEXT_CF_LEFT},
     21          	{ TEXT_CreateIndirect, "Name "                  , GUI_ID_TEXT24,   4,  20,  74,  15, TEXT_CF_LEFT},
     22          	{ DROPDOWN_CreateIndirect, NULL                 , GUI_ID_DROPDOWN1,  44,  20,  74, 110, 0, 3},
     23          	{ DROPDOWN_CreateIndirect, NULL                 , GUI_ID_DROPDOWN2, 124,  20,  74, 110, 0, 3},
     24          	{ DROPDOWN_CreateIndirect, NULL                 , GUI_ID_DROPDOWN3, 204,  20,  74, 110, 0, 3},
     25          //	{ TEXT_CreateIndirect, "unit"                   , GUI_ID_TEXT1,   4,  40,  40,  15, TEXT_CF_LEFT },
     26          	{ TEXT_CreateIndirect, "unit"                   , GUI_ID_TEXT2,  48,  40,  74,  15, TEXT_CF_LEFT},
     27          	{ TEXT_CreateIndirect, "unit"                   , GUI_ID_TEXT3, 128,  40,  74,  15, TEXT_CF_LEFT},
     28          	{ TEXT_CreateIndirect, "unit"                   , GUI_ID_TEXT4, 208,  40,  74,  15, TEXT_CF_LEFT},
     29          	{ BUTTON_CreateIndirect,"Zero adjust tank\n pressure sensor for\n all tank pressure points." ,GUI_ID_BUTTON0,  5,  105, 130, 45},
     30          	//   { BUTTON_CreateIndirect,"Zero adjust level sensor(s)\n for all level points."      ,GUI_ID_BUTTON1,  10, 120, 150, 30},
     31          };
     32          
     33          // This sequence must follow above sequence strictly
     34          // ID = 0, will not be ignored
     35          /*
     36          const GUIKey Words[] ={
     37          	{TDU_APPTANKPRESS_WIN   ,0,L_WORD69},
     38          	{GUI_ID_CLOSE       ,0,L_WORD18},
     39          	{GUI_ID_TEXT20      ,0,L_WORD70},
     40          	{GUI_ID_TEXT21      ,0,L_WORD71},
     41          	{GUI_ID_TEXT22      ,0,L_WORD72},
     42          	{GUI_ID_TEXT23      ,0,L_WORD73},
     43          	{GUI_ID_TEXT24      ,0,L_WORD74},
     44          	{GUI_ID_BUTTON0    ,0,L_WORD81},
     45          };
     46          */

   \                                 In segment CODE, align 4, keep-with-next
     47          void TDUAppSetupTankPress::ExecDialogBox(WM_HWIN hCurrentWin)
     48          {
   \                     ??ExecDialogBox:
   \   00000000   10402DE9           PUSH     {R4,LR}
   \   00000004   0040A0E1           MOV      R4,R0
     49          	if ( AppSetupTankPressIsClosed ) {
   \   00000008   ........           LDR      R0,??DataTable2  ;; AppSetupTankPressIsClosed
   \   0000000C   0020D0E5           LDRB     R2,[R0, #+0]
   \   00000010   000052E3           CMP      R2,#+0
   \   00000014   2100000A           BEQ      ??ExecDialogBox_1
     50          		AppSetupTankPressIsClosed = false;
   \   00000018   0020A0E3           MOV      R2,#+0
   \   0000001C   0020C0E5           STRB     R2,[R0, #+0]
     51          		//	WinHandl = GUI_ExecDialogBox(aDialogCreate, GUI_COUNTOF(aDialogCreate),&cbTankSetup,
     52          		//												hCurrentWin, 0, 0);
     53          		WinHandl = GUI_CreateDialogBox(aDialogCreate, GUI_COUNTOF(aDialogCreate),&cbTankSetup,
     54          									   hCurrentWin, 0, 0);
   \   00000020   88209FE5           LDR      R2,??ExecDialogBox_2  ;; ??cbTankSetup
   \   00000024   0000A0E3           MOV      R0,#+0
   \   00000028   01002DE9           PUSH     {R0}
   \   0000002C   01002DE9           PUSH     {R0}
   \   00000030   7C009FE5           LDR      R0,??ExecDialogBox_2+0x4  ;; ??aDialogCreate
   \   00000034   0130A0E1           MOV      R3,R1
   \   00000038   0E10A0E3           MOV      R1,#+14
   \   0000003C   ........           _BLF     GUI_CreateDialogBox,??GUI_CreateDialogBox??rA
   \   00000040   BA02C4E1           STRH     R0,[R4, #+42]
     55          		DROPDOWN_SetAutoScroll( WM_GetDialogItem(WinHandl, GUI_ID_DROPDOWN1), 1 );
   \   00000044   8110A0E3           MOV      R1,#+129
   \   00000048   401F81E3           ORR      R1,R1,#0x100
   \   0000004C   ........           _BLF     WM_GetDialogItem,??WM_GetDialogItem??rA
   \   00000050   0110A0E3           MOV      R1,#+1
   \   00000054   ........           _BLF     DROPDOWN_SetAutoScroll,??DROPDOWN_SetAutoScroll??rA
     56          		DROPDOWN_SetAutoScroll( WM_GetDialogItem(WinHandl, GUI_ID_DROPDOWN2), 1 );
   \   00000058   FA02D4E1           LDRSH    R0,[R4, #+42]
   \   0000005C   8210A0E3           MOV      R1,#+130
   \   00000060   401F81E3           ORR      R1,R1,#0x100
   \   00000064   ........           _BLF     WM_GetDialogItem,??WM_GetDialogItem??rA
   \   00000068   0110A0E3           MOV      R1,#+1
   \   0000006C   ........           _BLF     DROPDOWN_SetAutoScroll,??DROPDOWN_SetAutoScroll??rA
     57          		DROPDOWN_SetAutoScroll( WM_GetDialogItem(WinHandl, GUI_ID_DROPDOWN3), 1 );
   \   00000070   FA02D4E1           LDRSH    R0,[R4, #+42]
   \   00000074   8310A0E3           MOV      R1,#+131
   \   00000078   401F81E3           ORR      R1,R1,#0x100
   \   0000007C   ........           _BLF     WM_GetDialogItem,??WM_GetDialogItem??rA
   \   00000080   0110A0E3           MOV      R1,#+1
   \   00000084   ........           _BLF     DROPDOWN_SetAutoScroll,??DROPDOWN_SetAutoScroll??rA
     58          		WM_EnableMemdev(WinHandl);
   \   00000088   FA02D4E1           LDRSH    R0,[R4, #+42]
   \   0000008C   ........           _BLF     WM_EnableMemdev,??WM_EnableMemdev??rA
     59          		GetDialogHandles();
   \   00000090   0400A0E1           MOV      R0,R4
   \   00000094   ........           BL       ??GetDialogHandles
   \   00000098   08D08DE2           ADD      SP,SP,#+8
   \   0000009C   010000EA           B        ??ExecDialogBox_3
     60          	} else {
     61          		WM_BringToTop(WinHandl);
   \                     ??ExecDialogBox_1:
   \   000000A0   FA02D4E1           LDRSH    R0,[R4, #+42]
   \   000000A4   ........           _BLF     WM_BringToTop,??WM_BringToTop??rA
     62          	}
     63          }
   \                     ??ExecDialogBox_3:
   \   000000A8   1040BDE8           POP      {R4,LR}
   \   000000AC   1EFF2FE1           BX       LR               ;; return
   \                     ??ExecDialogBox_2:
   \   000000B0   ........           DC32     ??cbTankSetup
   \   000000B4   ........           DC32     ??aDialogCreate
     64          
     65          /*********************************************************************
     66          *
     67          * Dialog procedure
     68          */

   \                                 In segment CODE, align 4, keep-with-next
     69          void TDUAppSetupTankPress::GetDialogHandles(void)
     70          {
   \                     ??GetDialogHandles:
   \   00000000   10402DE9           PUSH     {R4,LR}
   \   00000004   0040A0E1           MOV      R4,R0
     71          	/* Get window handles for all widgets */
     72          	hDropdCol2      = WM_GetDialogItem(WinHandl, GUI_ID_DROPDOWN1);
   \   00000008   FA02D4E1           LDRSH    R0,[R4, #+42]
   \   0000000C   8110A0E3           MOV      R1,#+129
   \   00000010   401F81E3           ORR      R1,R1,#0x100
   \   00000014   ........           _BLF     WM_GetDialogItem,??WM_GetDialogItem??rA
   \   00000018   B403C4E1           STRH     R0,[R4, #+52]
     73          	hDropdCol3      = WM_GetDialogItem(WinHandl, GUI_ID_DROPDOWN2);
   \   0000001C   FA02D4E1           LDRSH    R0,[R4, #+42]
   \   00000020   8210A0E3           MOV      R1,#+130
   \   00000024   401F81E3           ORR      R1,R1,#0x100
   \   00000028   ........           _BLF     WM_GetDialogItem,??WM_GetDialogItem??rA
   \   0000002C   B603C4E1           STRH     R0,[R4, #+54]
     74          	hDropdCol4      = WM_GetDialogItem(WinHandl, GUI_ID_DROPDOWN3);
   \   00000030   FA02D4E1           LDRSH    R0,[R4, #+42]
   \   00000034   8310A0E3           MOV      R1,#+131
   \   00000038   401F81E3           ORR      R1,R1,#0x100
   \   0000003C   ........           _BLF     WM_GetDialogItem,??WM_GetDialogItem??rA
   \   00000040   B803C4E1           STRH     R0,[R4, #+56]
     75          	hTextUnitCol2   = WM_GetDialogItem(WinHandl, GUI_ID_TEXT2);
   \   00000044   FA02D4E1           LDRSH    R0,[R4, #+42]
   \   00000048   6210A0E3           MOV      R1,#+98
   \   0000004C   401F81E3           ORR      R1,R1,#0x100
   \   00000050   ........           _BLF     WM_GetDialogItem,??WM_GetDialogItem??rA
   \   00000054   BA03C4E1           STRH     R0,[R4, #+58]
     76          	hTextUnitCol3   = WM_GetDialogItem(WinHandl, GUI_ID_TEXT3);
   \   00000058   FA02D4E1           LDRSH    R0,[R4, #+42]
   \   0000005C   6310A0E3           MOV      R1,#+99
   \   00000060   401F81E3           ORR      R1,R1,#0x100
   \   00000064   ........           _BLF     WM_GetDialogItem,??WM_GetDialogItem??rA
   \   00000068   BC03C4E1           STRH     R0,[R4, #+60]
     77          	hTextUnitCol4   = WM_GetDialogItem(WinHandl, GUI_ID_TEXT4);
   \   0000006C   FA02D4E1           LDRSH    R0,[R4, #+42]
   \   00000070   591FA0E3           MOV      R1,#+356
   \   00000074   ........           _BLF     WM_GetDialogItem,??WM_GetDialogItem??rA
   \   00000078   BE03C4E1           STRH     R0,[R4, #+62]
     78          	InitDialog();
   \   0000007C   0400A0E1           MOV      R0,R4
   \   00000080   ........           BL       ??InitDialog
     79          }
   \   00000084   1040BDE8           POP      {R4,LR}
   \   00000088   1EFF2FE1           BX       LR               ;; return
     80           

   \                                 In segment CODE, align 4, keep-with-next
     81          void TDUAppSetupTankPress::InitDialog(void)
     82          {
   \                     ??InitDialog:
   \   00000000   F0472DE9           PUSH     {R4-R10,LR}
   \   00000004   58D04DE2           SUB      SP,SP,#+88
   \   00000008   0040A0E1           MOV      R4,R0
   \   0000000C   020000EA           B        ??InitDialog_1
     83          	/* Initialize all widgets */
     84          	while ( DROPDOWN_GetNumItems(hDropdCol2)>0 ) {
     85          		DROPDOWN_DeleteItem(hDropdCol2, 0);
   \                     ??InitDialog_2:
   \   00000010   F403D4E1           LDRSH    R0,[R4, #+52]
   \   00000014   0010A0E3           MOV      R1,#+0
   \   00000018   ........           _BLF     DROPDOWN_DeleteItem,??DROPDOWN_DeleteItem??rA
     86          	}
   \                     ??InitDialog_1:
   \   0000001C   F403D4E1           LDRSH    R0,[R4, #+52]
   \   00000020   ........           _BLF     DROPDOWN_GetNumItems,??DROPDOWN_GetNumItems??rA
   \   00000024   010050E3           CMP      R0,#+1
   \   00000028   F8FFFFAA           BGE      ??InitDialog_2
     87          	while ( DROPDOWN_GetNumItems(hDropdCol3)>0 ) {
   \                     ??InitDialog_3:
   \   0000002C   F603D4E1           LDRSH    R0,[R4, #+54]
   \   00000030   ........           _BLF     DROPDOWN_GetNumItems,??DROPDOWN_GetNumItems??rA
   \   00000034   010050E3           CMP      R0,#+1
   \   00000038   060000BA           BLT      ??InitDialog_4
     88          		DROPDOWN_DeleteItem(hDropdCol3, 0);
   \   0000003C   F603D4E1           LDRSH    R0,[R4, #+54]
   \   00000040   0010A0E3           MOV      R1,#+0
   \   00000044   ........           _BLF     DROPDOWN_DeleteItem,??DROPDOWN_DeleteItem??rA
   \   00000048   F7FFFFEA           B        ??InitDialog_3
     89          	}
     90          	while ( DROPDOWN_GetNumItems(hDropdCol4)>0 ) {
     91          		DROPDOWN_DeleteItem(hDropdCol4, 0);
   \                     ??InitDialog_5:
   \   0000004C   F803D4E1           LDRSH    R0,[R4, #+56]
   \   00000050   0010A0E3           MOV      R1,#+0
   \   00000054   ........           _BLF     DROPDOWN_DeleteItem,??DROPDOWN_DeleteItem??rA
     92          	}
   \                     ??InitDialog_4:
   \   00000058   F803D4E1           LDRSH    R0,[R4, #+56]
   \   0000005C   ........           _BLF     DROPDOWN_GetNumItems,??DROPDOWN_GetNumItems??rA
   \   00000060   010050E3           CMP      R0,#+1
   \   00000064   F8FFFFAA           BGE      ??InitDialog_5
     93          	int ind1 = 0;
   \   00000068   0050A0E3           MOV      R5,#+0
     94          	int ind2 = 0;
     95          	int ind3 = 0;
     96          	int SizeOfList;
     97          	ValueList *VList = PROTankPressure::GetValueInfoTableStatic(SizeOfList);
   \   0000006C   0510A0E1           MOV      R1,R5
   \   00000070   0D00A0E1           MOV      R0,SP
   \   00000074   ........           _BLF     ??GetValueInfoTableStatic,??GetValueInfoTableStatic??rA
   \   00000078   0080A0E1           MOV      R8,R0
     98          	for ( int i = 0; i < SizeOfList; i++ ) {
   \   0000007C   00009DE5           LDR      R0,[SP, #+0]
   \   00000080   0060A0E3           MOV      R6,#+0
   \   00000084   0570A0E1           MOV      R7,R5
   \   00000088   0590A0E1           MOV      R9,R5
   \   0000008C   010050E3           CMP      R0,#+1
   \   00000090   1F0000AA           BGE      ??InitDialog_6
     99          		DROPDOWN_AddString(hDropdCol2,  FindDictionaryWord(VList[i].Name).c_str());
    100          		DROPDOWN_AddString(hDropdCol3,  FindDictionaryWord(VList[i].Name).c_str());
    101          		DROPDOWN_AddString(hDropdCol4,  FindDictionaryWord(VList[i].Name).c_str());
    102          		if ( VList[i].Value==TankPressWindow->ValueTable[2].ValueId )ind1=i;
    103          		if ( VList[i].Value==TankPressWindow->ValueTable[3].ValueId )ind2=i;
    104          		if ( VList[i].Value==TankPressWindow->ValueTable[4].ValueId )ind3=i;
    105          	}
    106          	DROPDOWN_SetSel(hDropdCol2,ind1);
   \                     ??InitDialog_7:
   \   00000094   F403D4E1           LDRSH    R0,[R4, #+52]
   \   00000098   0510A0E1           MOV      R1,R5
   \   0000009C   ........           _BLF     DROPDOWN_SetSel,??DROPDOWN_SetSel??rA
    107          	DROPDOWN_SetSel(hDropdCol3,ind2);
   \   000000A0   F603D4E1           LDRSH    R0,[R4, #+54]
   \   000000A4   0610A0E1           MOV      R1,R6
   \   000000A8   ........           _BLF     DROPDOWN_SetSel,??DROPDOWN_SetSel??rA
    108          	DROPDOWN_SetSel(hDropdCol4,ind3);
   \   000000AC   F803D4E1           LDRSH    R0,[R4, #+56]
   \   000000B0   0710A0E1           MOV      R1,R7
   \   000000B4   ........           _BLF     DROPDOWN_SetSel,??DROPDOWN_SetSel??rA
    109          }
   \   000000B8   58D08DE2           ADD      SP,SP,#+88
   \   000000BC   F047BDE8           POP      {R4-R10,LR}
   \   000000C0   1EFF2FE1           BX       LR               ;; return
   \                     ??InitDialog_8:
   \   000000C4   F803D4E1           LDRSH    R0,[R4, #+56]
   \   000000C8   ........           _BLF     DROPDOWN_AddString,??DROPDOWN_AddString??rA
   \   000000CC   0020A0E3           MOV      R2,#+0
   \   000000D0   0110A0E3           MOV      R1,#+1
   \   000000D4   04008DE2           ADD      R0,SP,#+4
   \   000000D8   ........           _BLF     ??_Tidy,??_Tidy??rA
   \   000000DC   ........           LDR      R0,??DataTable4  ;; TankPressWindow
   \   000000E0   08109AE5           LDR      R1,[R10, #+8]
   \   000000E4   000090E5           LDR      R0,[R0, #+0]
   \   000000E8   7C0090E5           LDR      R0,[R0, #+124]
   \   000000EC   182090E5           LDR      R2,[R0, #+24]
   \   000000F0   020051E1           CMP      R1,R2
   \   000000F4   242090E5           LDR      R2,[R0, #+36]
   \   000000F8   300090E5           LDR      R0,[R0, #+48]
   \   000000FC   0950A001           MOVEQ    R5,R9
   \   00000100   020051E1           CMP      R1,R2
   \   00000104   0960A001           MOVEQ    R6,R9
   \   00000108   000051E1           CMP      R1,R0
   \   0000010C   0970A001           MOVEQ    R7,R9
   \   00000110   019089E2           ADD      R9,R9,#+1
   \                     ??InitDialog_6:
   \   00000114   00009DE5           LDR      R0,[SP, #+0]
   \   00000118   000059E1           CMP      R9,R0
   \   0000011C   DCFFFFAA           BGE      ??InitDialog_7
   \   00000120   0C00A0E3           MOV      R0,#+12
   \   00000124   90892AE0           MLA      R10,R0,R9,R8
   \   00000128   00109AE5           LDR      R1,[R10, #+0]
   \   0000012C   20008DE2           ADD      R0,SP,#+32
   \   00000130   ........           _BLF     ??FindDictionaryWord,??FindDictionaryWord??rA
   \   00000134   38009DE5           LDR      R0,[SP, #+56]
   \   00000138   100050E3           CMP      R0,#+16
   \   0000013C   F403D4E1           LDRSH    R0,[R4, #+52]
   \   00000140   24109D25           LDRCS    R1,[SP, #+36]
   \   00000144   24108D32           ADDCC    R1,SP,#+36
   \   00000148   ........           _BLF     DROPDOWN_AddString,??DROPDOWN_AddString??rA
   \   0000014C   0020A0E3           MOV      R2,#+0
   \   00000150   0110A0E3           MOV      R1,#+1
   \   00000154   20008DE2           ADD      R0,SP,#+32
   \   00000158   ........           _BLF     ??_Tidy,??_Tidy??rA
   \   0000015C   00109AE5           LDR      R1,[R10, #+0]
   \   00000160   3C008DE2           ADD      R0,SP,#+60
   \   00000164   ........           _BLF     ??FindDictionaryWord,??FindDictionaryWord??rA
   \   00000168   54009DE5           LDR      R0,[SP, #+84]
   \   0000016C   100050E3           CMP      R0,#+16
   \   00000170   F603D4E1           LDRSH    R0,[R4, #+54]
   \   00000174   40109D25           LDRCS    R1,[SP, #+64]
   \   00000178   40108D32           ADDCC    R1,SP,#+64
   \   0000017C   ........           _BLF     DROPDOWN_AddString,??DROPDOWN_AddString??rA
   \   00000180   0020A0E3           MOV      R2,#+0
   \   00000184   0110A0E3           MOV      R1,#+1
   \   00000188   3C008DE2           ADD      R0,SP,#+60
   \   0000018C   ........           _BLF     ??_Tidy,??_Tidy??rA
   \   00000190   00109AE5           LDR      R1,[R10, #+0]
   \   00000194   04008DE2           ADD      R0,SP,#+4
   \   00000198   ........           _BLF     ??FindDictionaryWord,??FindDictionaryWord??rA
   \   0000019C   1C009DE5           LDR      R0,[SP, #+28]
   \   000001A0   100050E3           CMP      R0,#+16
   \   000001A4   08109D25           LDRCS    R1,[SP, #+8]
   \   000001A8   08108D32           ADDCC    R1,SP,#+8
   \   000001AC   C4FFFFEA           B        ??InitDialog_8
    110          

   \                                 In segment CODE, align 4, keep-with-next
    111          void TDUAppSetupTankPress::UpdateDialog(WM_HWIN hWin,int Key)
    112          {
   \                     ??UpdateDialog:
   \   00000000   F0412DE9           PUSH     {R4-R8,LR}
   \   00000004   58D04DE2           SUB      SP,SP,#+88
   \   00000008   0040A0E1           MOV      R4,R0
   \   0000000C   0100A0E1           MOV      R0,R1
   \   00000010   0250A0E1           MOV      R5,R2
    113          	WM_HWIN hDropd0 = WM_GetDialogItem(hWin, Key);
   \   00000014   0510A0E1           MOV      R1,R5
   \   00000018   ........           _BLF     WM_GetDialogItem,??WM_GetDialogItem??rA
   \   0000001C   0080A0E1           MOV      R8,R0
    114          	AnsiString str, unitstr;
   \   00000020   3C008DE2           ADD      R0,SP,#+60
   \   00000024   ........           _BLF     ??AnsiString,??AnsiString??rA
   \   00000028   04008DE2           ADD      R0,SP,#+4
   \   0000002C   ........           _BLF     ??AnsiString,??AnsiString??rA
    115          	int col;
    116          	switch ( Key ) {
   \   00000030   810045E2           SUB      R0,R5,#+129
   \   00000034   400F40E2           SUB      R0,R0,#+256
   \   00000038   020050E3           CMP      R0,#+2
   \   0000003C   0800008A           BHI      ??UpdateDialog_3
   \   00000040   011F8FE2           ADR      R1,??UpdateDialog_1
   \   00000044   0010D1E7           LDRB     R1,[R1, R0]
   \   00000048   01F18FE0           ADD      PC,PC,R1, LSL #+2
   \                     ??UpdateDialog_1:
   \   0000004C   00020400           DC8      +0,+2,+4,+0
    117          		case GUI_ID_DROPDOWN1:
    118          			col = 2;
   \                     ??UpdateDialog_4:
   \   00000050   0260A0E3           MOV      R6,#+2
   \   00000054   020000EA           B        ??UpdateDialog_3
    119          			break;
    120          		case GUI_ID_DROPDOWN2:
    121          			col = 3;
   \                     ??UpdateDialog_5:
   \   00000058   0360A0E3           MOV      R6,#+3
   \   0000005C   000000EA           B        ??UpdateDialog_3
    122          			break;
    123          		case GUI_ID_DROPDOWN3:
    124          			col = 4;
   \                     ??UpdateDialog_6:
   \   00000060   0460A0E3           MOV      R6,#+4
    125          			break;
    126          	}
    127          	int SizeOfList;
    128          	ValueList *VList = PROTankPressure::GetValueInfoTableStatic(SizeOfList);
   \                     ??UpdateDialog_3:
   \   00000064   0010A0E3           MOV      R1,#+0
   \   00000068   0D00A0E1           MOV      R0,SP
   \   0000006C   ........           _BLF     ??GetValueInfoTableStatic,??GetValueInfoTableStatic??rA
   \   00000070   0070A0E1           MOV      R7,R0
    129          	TankPressWindow->ValueTable[col].ValueId = VList[DROPDOWN_GetSel(hDropd0)].Value;
   \   00000074   0800A0E1           MOV      R0,R8
   \   00000078   ........           LDR      R8,??DataTable4  ;; TankPressWindow
   \   0000007C   ........           _BLF     DROPDOWN_GetSel,??DROPDOWN_GetSel??rA
   \   00000080   001098E5           LDR      R1,[R8, #+0]
   \   00000084   0C20A0E3           MOV      R2,#+12
   \   00000088   7C1091E5           LDR      R1,[R1, #+124]
   \   0000008C   927020E0           MLA      R0,R2,R0,R7
   \   00000090   080090E5           LDR      R0,[R0, #+8]
   \   00000094   921621E0           MLA      R1,R2,R6,R1
   \   00000098   000081E5           STR      R0,[R1, #+0]
    130          	str = LibGetValue(TankPressWindow->ValueTable[col].ValueId,PROTankPressure::AllObjVector[0],&unitstr);
   \   0000009C   0000A0E3           MOV      R0,#+0
   \   000000A0   01002DE9           PUSH     {R0}
   \   000000A4   EC009FE5           LDR      R0,??UpdateDialog_7  ;; ??AllObjVector
   \   000000A8   001091E5           LDR      R1,[R1, #+0]
   \   000000AC   000090E5           LDR      R0,[R0, #+0]
   \   000000B0   08308DE2           ADD      R3,SP,#+8
   \   000000B4   002090E5           LDR      R2,[R0, #+0]
   \   000000B8   24008DE2           ADD      R0,SP,#+36
   \   000000BC   ........           _BLF     ??LibGetValue,??LibGetValue??rA
   \   000000C0   ........           LDR      R0,??DataTable7  ;; ??npos
   \   000000C4   0020A0E3           MOV      R2,#+0
   \   000000C8   003090E5           LDR      R3,[R0, #+0]
   \   000000CC   24108DE2           ADD      R1,SP,#+36
   \   000000D0   40008DE2           ADD      R0,SP,#+64
   \   000000D4   ........           _BLF     ??assign,??assign??rA
   \   000000D8   0020A0E3           MOV      R2,#+0
   \   000000DC   0110A0E3           MOV      R1,#+1
   \   000000E0   24008DE2           ADD      R0,SP,#+36
   \   000000E4   ........           _BLF     ??_Tidy,??_Tidy??rA
    131          	TankPressWindow->PaintnewHeading();
   \   000000E8   000098E5           LDR      R0,[R8, #+0]
    132          	switch ( Key ) {
   \   000000EC   815045E2           SUB      R5,R5,#+129
   \   000000F0   ........           _BLF     ??PaintnewHeading,??PaintnewHeading??rA
   \   000000F4   04D08DE2           ADD      SP,SP,#+4
   \   000000F8   405F45E2           SUB      R5,R5,#+256
   \   000000FC   020055E3           CMP      R5,#+2
   \   00000100   1300008A           BHI      ??UpdateDialog_8
   \   00000104   010F8FE2           ADR      R0,??UpdateDialog_2
   \   00000108   0500D0E7           LDRB     R0,[R0, R5]
   \   0000010C   00F18FE0           ADD      PC,PC,R0, LSL #+2
   \                     ??UpdateDialog_2:
   \   00000110   00050A00           DC8      +0,+5,+10,+0
    133          		case GUI_ID_DROPDOWN1:
    134          			TEXT_SetText(hTextUnitCol2, unitstr.c_str());
   \                     ??UpdateDialog_9:
   \   00000114   1C009DE5           LDR      R0,[SP, #+28]
   \   00000118   100050E3           CMP      R0,#+16
   \   0000011C   08109D25           LDRCS    R1,[SP, #+8]
   \   00000120   FA03D4E1           LDRSH    R0,[R4, #+58]
   \   00000124   080000EA           B        ??UpdateDialog_10
    135          			break;
    136          		case GUI_ID_DROPDOWN2:
    137          			TEXT_SetText(hTextUnitCol3, unitstr.c_str());
   \                     ??UpdateDialog_11:
   \   00000128   1C009DE5           LDR      R0,[SP, #+28]
   \   0000012C   100050E3           CMP      R0,#+16
   \   00000130   08109D25           LDRCS    R1,[SP, #+8]
   \   00000134   FC03D4E1           LDRSH    R0,[R4, #+60]
   \   00000138   030000EA           B        ??UpdateDialog_10
    138          			break;
    139          		case GUI_ID_DROPDOWN3:
    140          			TEXT_SetText(hTextUnitCol4, unitstr.c_str());
   \                     ??UpdateDialog_12:
   \   0000013C   1C009DE5           LDR      R0,[SP, #+28]
   \   00000140   100050E3           CMP      R0,#+16
   \   00000144   08109D25           LDRCS    R1,[SP, #+8]
   \   00000148   FE03D4E1           LDRSH    R0,[R4, #+62]
   \                     ??UpdateDialog_10:
   \   0000014C   08108D32           ADDCC    R1,SP,#+8
   \   00000150   ........           _BLF     TEXT_SetText,??TEXT_SetText??rA
    141          			break;
    142          	}
    143          	SystemWindow->IsModified = true;
   \                     ??UpdateDialog_8:
   \   00000154   40009FE5           LDR      R0,??UpdateDialog_7+0x4  ;; SystemWindow
   \   00000158   0110A0E3           MOV      R1,#+1
   \   0000015C   000090E5           LDR      R0,[R0, #+0]
   \   00000160   7510C0E5           STRB     R1,[R0, #+117]
    144          	SignalSaveSettings(FLASH_SAVE_SETTINGS);
   \   00000164   0100A0E3           MOV      R0,#+1
   \   00000168   ........           _BLF     ??SignalSaveSettings,??SignalSaveSettings??rA
    145          }
   \   0000016C   0020A0E3           MOV      R2,#+0
   \   00000170   0110A0E3           MOV      R1,#+1
   \   00000174   04008DE2           ADD      R0,SP,#+4
   \   00000178   ........           _BLF     ??_Tidy,??_Tidy??rA
   \   0000017C   0020A0E3           MOV      R2,#+0
   \   00000180   0110A0E3           MOV      R1,#+1
   \   00000184   3C008DE2           ADD      R0,SP,#+60
   \   00000188   ........           _BLF     ??_Tidy,??_Tidy??rA
   \   0000018C   58D08DE2           ADD      SP,SP,#+88
   \   00000190   F041BDE8           POP      {R4-R8,LR}
   \   00000194   1EFF2FE1           BX       LR               ;; return
   \                     ??UpdateDialog_7:
   \   00000198   ........           DC32     ??AllObjVector
   \   0000019C   ........           DC32     SystemWindow
    146          

   \                                 In segment CODE, align 4, keep-with-next
    147          void TDUAppSetupTankPress::cbTankSetup(WM_MESSAGE *pMsg)
    148          {
   \                     ??cbTankSetup:
   \   00000000   F0412DE9           PUSH     {R4-R8,LR}
   \   00000004   A4D04DE2           SUB      SP,SP,#+164
    149          	int NCode, Id;
    150          	WM_HWIN hWin = pMsg->hWin;
    151          	switch ( pMsg->MsgId ) {
   \   00000008   308B9FE5           LDR      R8,??cbTankSetup_4  ;; AppSetupTankPress
   \   0000000C   0050A0E1           MOV      R5,R0
   \   00000010   000095E5           LDR      R0,[R5, #+0]
   \   00000014   F440D5E1           LDRSH    R4,[R5, #+4]
   \   00000018   F660D5E1           LDRSH    R6,[R5, #+6]
   \   0000001C   0170A0E3           MOV      R7,#+1
   \   00000020   0F0040E2           SUB      R0,R0,#+15
   \   00000024   0510A0E3           MOV      R1,#+5
   \   00000028   401E81E3           ORR      R1,R1,#0x400
   \   0000002C   010050E1           CMP      R0,R1
   \   00000030   BF02008A           BHI      ??cbTankSetup_5
   \   00000034   021F8FE2           ADR      R1,??cbTankSetup_1
   \   00000038   8000A0E1           MOV      R0,R0, LSL #+1
   \   0000003C   B01091E1           LDRH     R1,[R1, R0]
   \   00000040   01F18FE0           ADD      PC,PC,R1, LSL #+2
   \                     ??cbTankSetup_1:
   \   00000044   0502BB02BB02       DC16     +517,+699,+699,+699
   \              BB02        
   \   0000004C   BB02BB02BB02       DC16     +699,+699,+699,+699
   \              BB02        
   \   00000054   BB02BB02BB02       DC16     +699,+699,+699,+699
   \              BB02        
   \   0000005C   BB02BB020202       DC16     +699,+699,+514,+699
   \              BB02        
   \   00000064   BB02BB02BB02       DC16     +699,+699,+699,+699
   \              BB02        
   \   0000006C   BB02BB02BB02       DC16     +699,+699,+699,+639
   \              7F02        
   \   00000074   BB02BB02BB02       DC16     +699,+699,+699,+699
   \              BB02        
   \   0000007C   BB02BB02BB02       DC16     +699,+699,+699,+699
   \              BB02        
   \   00000084   BB02BB02BB02       DC16     +699,+699,+699,+699
   \              BB02        
   \   0000008C   BB02BB02BB02       DC16     +699,+699,+699,+699
   \              BB02        
   \   00000094   BB02BB02BB02       DC16     +699,+699,+699,+699
   \              BB02        
   \   0000009C   BB02BB02BB02       DC16     +699,+699,+699,+699
   \              BB02        
   \   000000A4   BB02BB02BB02       DC16     +699,+699,+699,+699
   \              BB02        
   \   000000AC   BB02BB02BB02       DC16     +699,+699,+699,+699
   \              BB02        
   \   000000B4   BB02BB02BB02       DC16     +699,+699,+699,+699
   \              BB02        
   \   000000BC   BB02BB02BB02       DC16     +699,+699,+699,+699
   \              BB02        
   \   000000C4   BB02BB02BB02       DC16     +699,+699,+699,+699
   \              BB02        
   \   000000CC   BB02BB02BB02       DC16     +699,+699,+699,+699
   \              BB02        
   \   000000D4   BB02BB02BB02       DC16     +699,+699,+699,+699
   \              BB02        
   \   000000DC   BB02BB02BB02       DC16     +699,+699,+699,+699
   \              BB02        
   \   000000E4   BB02BB02BB02       DC16     +699,+699,+699,+699
   \              BB02        
   \   000000EC   BB02BB02BB02       DC16     +699,+699,+699,+699
   \              BB02        
   \   000000F4   BB02BB02BB02       DC16     +699,+699,+699,+699
   \              BB02        
   \   000000FC   BB02BB02BB02       DC16     +699,+699,+699,+699
   \              BB02        
   \   00000104   BB02BB02BB02       DC16     +699,+699,+699,+699
   \              BB02        
   \   0000010C   BB02BB02BB02       DC16     +699,+699,+699,+699
   \              BB02        
   \   00000114   BB02BB02BB02       DC16     +699,+699,+699,+699
   \              BB02        
   \   0000011C   BB02BB02BB02       DC16     +699,+699,+699,+699
   \              BB02        
   \   00000124   BB02BB02BB02       DC16     +699,+699,+699,+699
   \              BB02        
   \   0000012C   BB02BB02BB02       DC16     +699,+699,+699,+699
   \              BB02        
   \   00000134   BB02BB02BB02       DC16     +699,+699,+699,+699
   \              BB02        
   \   0000013C   BB02BB02BB02       DC16     +699,+699,+699,+699
   \              BB02        
   \   00000144   BB02BB02BB02       DC16     +699,+699,+699,+699
   \              BB02        
   \   0000014C   BB02BB02BB02       DC16     +699,+699,+699,+699
   \              BB02        
   \   00000154   BB02BB02BB02       DC16     +699,+699,+699,+699
   \              BB02        
   \   0000015C   BB02BB02BB02       DC16     +699,+699,+699,+699
   \              BB02        
   \   00000164   BB02BB02BB02       DC16     +699,+699,+699,+699
   \              BB02        
   \   0000016C   BB02BB02BB02       DC16     +699,+699,+699,+699
   \              BB02        
   \   00000174   BB02BB02BB02       DC16     +699,+699,+699,+699
   \              BB02        
   \   0000017C   BB02BB02BB02       DC16     +699,+699,+699,+699
   \              BB02        
   \   00000184   BB02BB02BB02       DC16     +699,+699,+699,+699
   \              BB02        
   \   0000018C   BB02BB02BB02       DC16     +699,+699,+699,+699
   \              BB02        
   \   00000194   BB02BB02BB02       DC16     +699,+699,+699,+699
   \              BB02        
   \   0000019C   BB02BB02BB02       DC16     +699,+699,+699,+699
   \              BB02        
   \   000001A4   BB02BB02BB02       DC16     +699,+699,+699,+699
   \              BB02        
   \   000001AC   BB02BB02BB02       DC16     +699,+699,+699,+699
   \              BB02        
   \   000001B4   BB02BB02BB02       DC16     +699,+699,+699,+699
   \              BB02        
   \   000001BC   BB02BB02BB02       DC16     +699,+699,+699,+699
   \              BB02        
   \   000001C4   BB02BB02BB02       DC16     +699,+699,+699,+699
   \              BB02        
   \   000001CC   BB02BB02BB02       DC16     +699,+699,+699,+699
   \              BB02        
   \   000001D4   BB02BB02BB02       DC16     +699,+699,+699,+699
   \              BB02        
   \   000001DC   BB02BB02BB02       DC16     +699,+699,+699,+699
   \              BB02        
   \   000001E4   BB02BB02BB02       DC16     +699,+699,+699,+699
   \              BB02        
   \   000001EC   BB02BB02BB02       DC16     +699,+699,+699,+699
   \              BB02        
   \   000001F4   BB02BB02BB02       DC16     +699,+699,+699,+699
   \              BB02        
   \   000001FC   BB02BB02BB02       DC16     +699,+699,+699,+699
   \              BB02        
   \   00000204   BB02BB02BB02       DC16     +699,+699,+699,+699
   \              BB02        
   \   0000020C   BB02BB02BB02       DC16     +699,+699,+699,+699
   \              BB02        
   \   00000214   BB02BB02BB02       DC16     +699,+699,+699,+699
   \              BB02        
   \   0000021C   BB02BB02BB02       DC16     +699,+699,+699,+699
   \              BB02        
   \   00000224   BB02BB02BB02       DC16     +699,+699,+699,+699
   \              BB02        
   \   0000022C   BB02BB02BB02       DC16     +699,+699,+699,+699
   \              BB02        
   \   00000234   BB02BB02BB02       DC16     +699,+699,+699,+699
   \              BB02        
   \   0000023C   BB02BB02BB02       DC16     +699,+699,+699,+699
   \              BB02        
   \   00000244   BB02BB02BB02       DC16     +699,+699,+699,+699
   \              BB02        
   \   0000024C   BB02BB02BB02       DC16     +699,+699,+699,+699
   \              BB02        
   \   00000254   BB02BB02BB02       DC16     +699,+699,+699,+699
   \              BB02        
   \   0000025C   BB02BB02BB02       DC16     +699,+699,+699,+699
   \              BB02        
   \   00000264   BB02BB02BB02       DC16     +699,+699,+699,+699
   \              BB02        
   \   0000026C   BB02BB02BB02       DC16     +699,+699,+699,+699
   \              BB02        
   \   00000274   BB02BB02BB02       DC16     +699,+699,+699,+699
   \              BB02        
   \   0000027C   BB02BB02BB02       DC16     +699,+699,+699,+699
   \              BB02        
   \   00000284   BB02BB02BB02       DC16     +699,+699,+699,+699
   \              BB02        
   \   0000028C   BB02BB02BB02       DC16     +699,+699,+699,+699
   \              BB02        
   \   00000294   BB02BB02BB02       DC16     +699,+699,+699,+699
   \              BB02        
   \   0000029C   BB02BB02BB02       DC16     +699,+699,+699,+699
   \              BB02        
   \   000002A4   BB02BB02BB02       DC16     +699,+699,+699,+699
   \              BB02        
   \   000002AC   BB02BB02BB02       DC16     +699,+699,+699,+699
   \              BB02        
   \   000002B4   BB02BB02BB02       DC16     +699,+699,+699,+699
   \              BB02        
   \   000002BC   BB02BB02BB02       DC16     +699,+699,+699,+699
   \              BB02        
   \   000002C4   BB02BB02BB02       DC16     +699,+699,+699,+699
   \              BB02        
   \   000002CC   BB02BB02BB02       DC16     +699,+699,+699,+699
   \              BB02        
   \   000002D4   BB02BB02BB02       DC16     +699,+699,+699,+699
   \              BB02        
   \   000002DC   BB02BB02BB02       DC16     +699,+699,+699,+699
   \              BB02        
   \   000002E4   BB02BB02BB02       DC16     +699,+699,+699,+699
   \              BB02        
   \   000002EC   BB02BB02BB02       DC16     +699,+699,+699,+699
   \              BB02        
   \   000002F4   BB02BB02BB02       DC16     +699,+699,+699,+699
   \              BB02        
   \   000002FC   BB02BB02BB02       DC16     +699,+699,+699,+699
   \              BB02        
   \   00000304   BB02BB02BB02       DC16     +699,+699,+699,+699
   \              BB02        
   \   0000030C   BB02BB02BB02       DC16     +699,+699,+699,+699
   \              BB02        
   \   00000314   BB02BB02BB02       DC16     +699,+699,+699,+699
   \              BB02        
   \   0000031C   BB02BB02BB02       DC16     +699,+699,+699,+699
   \              BB02        
   \   00000324   BB02BB02BB02       DC16     +699,+699,+699,+699
   \              BB02        
   \   0000032C   BB02BB02BB02       DC16     +699,+699,+699,+699
   \              BB02        
   \   00000334   BB02BB02BB02       DC16     +699,+699,+699,+699
   \              BB02        
   \   0000033C   BB02BB02BB02       DC16     +699,+699,+699,+699
   \              BB02        
   \   00000344   BB02BB02BB02       DC16     +699,+699,+699,+699
   \              BB02        
   \   0000034C   BB02BB02BB02       DC16     +699,+699,+699,+699
   \              BB02        
   \   00000354   BB02BB02BB02       DC16     +699,+699,+699,+699
   \              BB02        
   \   0000035C   BB02BB02BB02       DC16     +699,+699,+699,+699
   \              BB02        
   \   00000364   BB02BB02BB02       DC16     +699,+699,+699,+699
   \              BB02        
   \   0000036C   BB02BB02BB02       DC16     +699,+699,+699,+699
   \              BB02        
   \   00000374   BB02BB02BB02       DC16     +699,+699,+699,+699
   \              BB02        
   \   0000037C   BB02BB02BB02       DC16     +699,+699,+699,+699
   \              BB02        
   \   00000384   BB02BB02BB02       DC16     +699,+699,+699,+699
   \              BB02        
   \   0000038C   BB02BB02BB02       DC16     +699,+699,+699,+699
   \              BB02        
   \   00000394   BB02BB02BB02       DC16     +699,+699,+699,+699
   \              BB02        
   \   0000039C   BB02BB02BB02       DC16     +699,+699,+699,+699
   \              BB02        
   \   000003A4   BB02BB02BB02       DC16     +699,+699,+699,+699
   \              BB02        
   \   000003AC   BB02BB02BB02       DC16     +699,+699,+699,+699
   \              BB02        
   \   000003B4   BB02BB02BB02       DC16     +699,+699,+699,+699
   \              BB02        
   \   000003BC   BB02BB02BB02       DC16     +699,+699,+699,+699
   \              BB02        
   \   000003C4   BB02BB02BB02       DC16     +699,+699,+699,+699
   \              BB02        
   \   000003CC   BB02BB02BB02       DC16     +699,+699,+699,+699
   \              BB02        
   \   000003D4   BB02BB02BB02       DC16     +699,+699,+699,+699
   \              BB02        
   \   000003DC   BB02BB02BB02       DC16     +699,+699,+699,+699
   \              BB02        
   \   000003E4   BB02BB02BB02       DC16     +699,+699,+699,+699
   \              BB02        
   \   000003EC   BB02BB02BB02       DC16     +699,+699,+699,+699
   \              BB02        
   \   000003F4   BB02BB02BB02       DC16     +699,+699,+699,+699
   \              BB02        
   \   000003FC   BB02BB02BB02       DC16     +699,+699,+699,+699
   \              BB02        
   \   00000404   BB02BB02BB02       DC16     +699,+699,+699,+699
   \              BB02        
   \   0000040C   BB02BB02BB02       DC16     +699,+699,+699,+699
   \              BB02        
   \   00000414   BB02BB02BB02       DC16     +699,+699,+699,+699
   \              BB02        
   \   0000041C   BB02BB02BB02       DC16     +699,+699,+699,+699
   \              BB02        
   \   00000424   BB02BB02BB02       DC16     +699,+699,+699,+699
   \              BB02        
   \   0000042C   BB02BB02BB02       DC16     +699,+699,+699,+699
   \              BB02        
   \   00000434   BB02BB02BB02       DC16     +699,+699,+699,+699
   \              BB02        
   \   0000043C   BB02BB02BB02       DC16     +699,+699,+699,+699
   \              BB02        
   \   00000444   BB02BB02BB02       DC16     +699,+699,+699,+699
   \              BB02        
   \   0000044C   BB02BB02BB02       DC16     +699,+699,+699,+699
   \              BB02        
   \   00000454   BB02BB02BB02       DC16     +699,+699,+699,+699
   \              BB02        
   \   0000045C   BB02BB02BB02       DC16     +699,+699,+699,+699
   \              BB02        
   \   00000464   BB02BB02BB02       DC16     +699,+699,+699,+699
   \              BB02        
   \   0000046C   BB02BB02BB02       DC16     +699,+699,+699,+699
   \              BB02        
   \   00000474   BB02BB02BB02       DC16     +699,+699,+699,+699
   \              BB02        
   \   0000047C   BB02BB02BB02       DC16     +699,+699,+699,+699
   \              BB02        
   \   00000484   BB02BB02BB02       DC16     +699,+699,+699,+699
   \              BB02        
   \   0000048C   BB02BB02BB02       DC16     +699,+699,+699,+699
   \              BB02        
   \   00000494   BB02BB02BB02       DC16     +699,+699,+699,+699
   \              BB02        
   \   0000049C   BB02BB02BB02       DC16     +699,+699,+699,+699
   \              BB02        
   \   000004A4   BB02BB02BB02       DC16     +699,+699,+699,+699
   \              BB02        
   \   000004AC   BB02BB02BB02       DC16     +699,+699,+699,+699
   \              BB02        
   \   000004B4   BB02BB02BB02       DC16     +699,+699,+699,+699
   \              BB02        
   \   000004BC   BB02BB02BB02       DC16     +699,+699,+699,+699
   \              BB02        
   \   000004C4   BB02BB02BB02       DC16     +699,+699,+699,+699
   \              BB02        
   \   000004CC   BB02BB02BB02       DC16     +699,+699,+699,+699
   \              BB02        
   \   000004D4   BB02BB02BB02       DC16     +699,+699,+699,+699
   \              BB02        
   \   000004DC   BB02BB02BB02       DC16     +699,+699,+699,+699
   \              BB02        
   \   000004E4   BB02BB02BB02       DC16     +699,+699,+699,+699
   \              BB02        
   \   000004EC   BB02BB02BB02       DC16     +699,+699,+699,+699
   \              BB02        
   \   000004F4   BB02BB02BB02       DC16     +699,+699,+699,+699
   \              BB02        
   \   000004FC   BB02BB02BB02       DC16     +699,+699,+699,+699
   \              BB02        
   \   00000504   BB02BB02BB02       DC16     +699,+699,+699,+699
   \              BB02        
   \   0000050C   BB02BB02BB02       DC16     +699,+699,+699,+699
   \              BB02        
   \   00000514   BB02BB02BB02       DC16     +699,+699,+699,+699
   \              BB02        
   \   0000051C   BB02BB02BB02       DC16     +699,+699,+699,+699
   \              BB02        
   \   00000524   BB02BB02BB02       DC16     +699,+699,+699,+699
   \              BB02        
   \   0000052C   BB02BB02BB02       DC16     +699,+699,+699,+699
   \              BB02        
   \   00000534   BB02BB02BB02       DC16     +699,+699,+699,+699
   \              BB02        
   \   0000053C   BB02BB02BB02       DC16     +699,+699,+699,+699
   \              BB02        
   \   00000544   BB02BB02BB02       DC16     +699,+699,+699,+699
   \              BB02        
   \   0000054C   BB02BB02BB02       DC16     +699,+699,+699,+699
   \              BB02        
   \   00000554   BB02BB02BB02       DC16     +699,+699,+699,+699
   \              BB02        
   \   0000055C   BB02BB02BB02       DC16     +699,+699,+699,+699
   \              BB02        
   \   00000564   BB02BB02BB02       DC16     +699,+699,+699,+699
   \              BB02        
   \   0000056C   BB02BB02BB02       DC16     +699,+699,+699,+699
   \              BB02        
   \   00000574   BB02BB02BB02       DC16     +699,+699,+699,+699
   \              BB02        
   \   0000057C   BB02BB02BB02       DC16     +699,+699,+699,+699
   \              BB02        
   \   00000584   BB02BB02BB02       DC16     +699,+699,+699,+699
   \              BB02        
   \   0000058C   BB02BB02BB02       DC16     +699,+699,+699,+699
   \              BB02        
   \   00000594   BB02BB02BB02       DC16     +699,+699,+699,+699
   \              BB02        
   \   0000059C   BB02BB02BB02       DC16     +699,+699,+699,+699
   \              BB02        
   \   000005A4   BB02BB02BB02       DC16     +699,+699,+699,+699
   \              BB02        
   \   000005AC   BB02BB02BB02       DC16     +699,+699,+699,+699
   \              BB02        
   \   000005B4   BB02BB02BB02       DC16     +699,+699,+699,+699
   \              BB02        
   \   000005BC   BB02BB02BB02       DC16     +699,+699,+699,+699
   \              BB02        
   \   000005C4   BB02BB02BB02       DC16     +699,+699,+699,+699
   \              BB02        
   \   000005CC   BB02BB02BB02       DC16     +699,+699,+699,+699
   \              BB02        
   \   000005D4   BB02BB02BB02       DC16     +699,+699,+699,+699
   \              BB02        
   \   000005DC   BB02BB02BB02       DC16     +699,+699,+699,+699
   \              BB02        
   \   000005E4   BB02BB02BB02       DC16     +699,+699,+699,+699
   \              BB02        
   \   000005EC   BB02BB02BB02       DC16     +699,+699,+699,+699
   \              BB02        
   \   000005F4   BB02BB02BB02       DC16     +699,+699,+699,+699
   \              BB02        
   \   000005FC   BB02BB02BB02       DC16     +699,+699,+699,+699
   \              BB02        
   \   00000604   BB02BB02BB02       DC16     +699,+699,+699,+699
   \              BB02        
   \   0000060C   BB02BB02BB02       DC16     +699,+699,+699,+699
   \              BB02        
   \   00000614   BB02BB02BB02       DC16     +699,+699,+699,+699
   \              BB02        
   \   0000061C   BB02BB02BB02       DC16     +699,+699,+699,+699
   \              BB02        
   \   00000624   BB02BB02BB02       DC16     +699,+699,+699,+699
   \              BB02        
   \   0000062C   BB02BB02BB02       DC16     +699,+699,+699,+699
   \              BB02        
   \   00000634   BB02BB02BB02       DC16     +699,+699,+699,+699
   \              BB02        
   \   0000063C   BB02BB02BB02       DC16     +699,+699,+699,+699
   \              BB02        
   \   00000644   BB02BB02BB02       DC16     +699,+699,+699,+699
   \              BB02        
   \   0000064C   BB02BB02BB02       DC16     +699,+699,+699,+699
   \              BB02        
   \   00000654   BB02BB02BB02       DC16     +699,+699,+699,+699
   \              BB02        
   \   0000065C   BB02BB02BB02       DC16     +699,+699,+699,+699
   \              BB02        
   \   00000664   BB02BB02BB02       DC16     +699,+699,+699,+699
   \              BB02        
   \   0000066C   BB02BB02BB02       DC16     +699,+699,+699,+699
   \              BB02        
   \   00000674   BB02BB02BB02       DC16     +699,+699,+699,+699
   \              BB02        
   \   0000067C   BB02BB02BB02       DC16     +699,+699,+699,+699
   \              BB02        
   \   00000684   BB02BB02BB02       DC16     +699,+699,+699,+699
   \              BB02        
   \   0000068C   BB02BB02BB02       DC16     +699,+699,+699,+699
   \              BB02        
   \   00000694   BB02BB02BB02       DC16     +699,+699,+699,+699
   \              BB02        
   \   0000069C   BB02BB02BB02       DC16     +699,+699,+699,+699
   \              BB02        
   \   000006A4   BB02BB02BB02       DC16     +699,+699,+699,+699
   \              BB02        
   \   000006AC   BB02BB02BB02       DC16     +699,+699,+699,+699
   \              BB02        
   \   000006B4   BB02BB02BB02       DC16     +699,+699,+699,+699
   \              BB02        
   \   000006BC   BB02BB02BB02       DC16     +699,+699,+699,+699
   \              BB02        
   \   000006C4   BB02BB02BB02       DC16     +699,+699,+699,+699
   \              BB02        
   \   000006CC   BB02BB02BB02       DC16     +699,+699,+699,+699
   \              BB02        
   \   000006D4   BB02BB02BB02       DC16     +699,+699,+699,+699
   \              BB02        
   \   000006DC   BB02BB02BB02       DC16     +699,+699,+699,+699
   \              BB02        
   \   000006E4   BB02BB02BB02       DC16     +699,+699,+699,+699
   \              BB02        
   \   000006EC   BB02BB02BB02       DC16     +699,+699,+699,+699
   \              BB02        
   \   000006F4   BB02BB02BB02       DC16     +699,+699,+699,+699
   \              BB02        
   \   000006FC   BB02BB02BB02       DC16     +699,+699,+699,+699
   \              BB02        
   \   00000704   BB02BB02BB02       DC16     +699,+699,+699,+699
   \              BB02        
   \   0000070C   BB02BB02BB02       DC16     +699,+699,+699,+699
   \              BB02        
   \   00000714   BB02BB02BB02       DC16     +699,+699,+699,+699
   \              BB02        
   \   0000071C   BB02BB02BB02       DC16     +699,+699,+699,+699
   \              BB02        
   \   00000724   BB02BB02BB02       DC16     +699,+699,+699,+699
   \              BB02        
   \   0000072C   BB02BB02BB02       DC16     +699,+699,+699,+699
   \              BB02        
   \   00000734   BB02BB02BB02       DC16     +699,+699,+699,+699
   \              BB02        
   \   0000073C   BB02BB02BB02       DC16     +699,+699,+699,+699
   \              BB02        
   \   00000744   BB02BB02BB02       DC16     +699,+699,+699,+699
   \              BB02        
   \   0000074C   BB02BB02BB02       DC16     +699,+699,+699,+699
   \              BB02        
   \   00000754   BB02BB02BB02       DC16     +699,+699,+699,+699
   \              BB02        
   \   0000075C   BB02BB02BB02       DC16     +699,+699,+699,+699
   \              BB02        
   \   00000764   BB02BB02BB02       DC16     +699,+699,+699,+699
   \              BB02        
   \   0000076C   BB02BB02BB02       DC16     +699,+699,+699,+699
   \              BB02        
   \   00000774   BB02BB02BB02       DC16     +699,+699,+699,+699
   \              BB02        
   \   0000077C   BB02BB02BB02       DC16     +699,+699,+699,+699
   \              BB02        
   \   00000784   BB02BB02BB02       DC16     +699,+699,+699,+699
   \              BB02        
   \   0000078C   BB02BB02BB02       DC16     +699,+699,+699,+699
   \              BB02        
   \   00000794   BB02BB02BB02       DC16     +699,+699,+699,+699
   \              BB02        
   \   0000079C   BB02BB02BB02       DC16     +699,+699,+699,+699
   \              BB02        
   \   000007A4   BB02BB02BB02       DC16     +699,+699,+699,+699
   \              BB02        
   \   000007AC   BB02BB02BB02       DC16     +699,+699,+699,+699
   \              BB02        
   \   000007B4   BB02BB02BB02       DC16     +699,+699,+699,+699
   \              BB02        
   \   000007BC   BB02BB02BB02       DC16     +699,+699,+699,+699
   \              BB02        
   \   000007C4   BB02BB02BB02       DC16     +699,+699,+699,+699
   \              BB02        
   \   000007CC   BB02BB02BB02       DC16     +699,+699,+699,+699
   \              BB02        
   \   000007D4   BB02BB02BB02       DC16     +699,+699,+699,+699
   \              BB02        
   \   000007DC   BB02BB02BB02       DC16     +699,+699,+699,+699
   \              BB02        
   \   000007E4   BB02BB02BB02       DC16     +699,+699,+699,+699
   \              BB02        
   \   000007EC   BB02BB02BB02       DC16     +699,+699,+699,+699
   \              BB02        
   \   000007F4   BB02BB02BB02       DC16     +699,+699,+699,+699
   \              BB02        
   \   000007FC   BB02BB02BB02       DC16     +699,+699,+699,+699
   \              BB02        
   \   00000804   BB02BB02BB02       DC16     +699,+699,+699,+699
   \              BB02        
   \   0000080C   BB02BB02BB02       DC16     +699,+699,+699,+699
   \              BB02        
   \   00000814   BB02BB02BB02       DC16     +699,+699,+699,+699
   \              BB02        
   \   0000081C   BB02BB02BB02       DC16     +699,+699,+699,+699
   \              BB02        
   \   00000824   BB02BB02BB02       DC16     +699,+699,+699,+699
   \              BB02        
   \   0000082C   BB02BB02BB02       DC16     +699,+699,+699,+699
   \              BB02        
   \   00000834   BB02BB02BB02       DC16     +699,+699,+699,+699
   \              BB02        
   \   0000083C   BB020F02BB02       DC16     +699,+527,+699,+699
   \              BB02        
   \   00000844   BB02BB02BB02       DC16     +699,+699,+699,+699
   \              BB02        
   \   0000084C   BB024002           DC16     +699,+576
    152          		case WM_INIT_DIALOG:
    153          			AppSetupTankPress->FirstTime = true;
   \                     ??cbTankSetup_6:
   \   00000850   000098E5           LDR      R0,[R8, #+0]
   \   00000854   2870C0E5           STRB     R7,[R0, #+40]
   \   00000858   060000EA           B        ??cbTankSetup_7
    154          			break;
    155          		case WM_PAINT:
    156          			GUI_DrawRect(   2,  55, 275, 98 );
   \                     ??cbTankSetup_8:
   \   0000085C   6230A0E3           MOV      R3,#+98
   \   00000860   B12083E2           ADD      R2,R3,#+177
   \   00000864   3710A0E3           MOV      R1,#+55
   \   00000868   0200A0E3           MOV      R0,#+2
   \   0000086C   ........           _BLF     GUI_DrawRect,??GUI_DrawRect??rA
    157          			AppSetupTankPress->UpdateLanguage();
   \   00000870   000098E5           LDR      R0,[R8, #+0]
   \   00000874   ........           _BLF     ??UpdateLanguage,??UpdateLanguage??rA
   \                     ??cbTankSetup_7:
   \   00000878   A4D08DE2           ADD      SP,SP,#+164
   \   0000087C   F041BDE8           POP      {R4-R8,LR}
   \   00000880   1EFF2FE1           BX       LR
    158          			break;
    159          		case MESSAGE_PINCODE_RETURN:
    160          			{
    161          				int ValueId = pMsg->hWinSrc;
    162          				char StringBuf[BUF_SIZE]={""};
   \                     ??cbTankSetup_9:
   \   00000884   54008DE2           ADD      R0,SP,#+84
   \   00000888   0010A0E3           MOV      R1,#+0
   \   0000088C   5020A0E3           MOV      R2,#+80
   \                     ??cbTankSetup_10:
   \   00000890   042052E2           SUBS     R2,R2,#+4
   \   00000894   021080E7           STR      R1,[R0, R2]
   \   00000898   FCFFFF1A           BNE      ??cbTankSetup_10
    163          				strncpy( StringBuf,(char *)pMsg->Data.p,BUF_SIZE);
   \   0000089C   081095E5           LDR      R1,[R5, #+8]
   \   000008A0   5020A0E3           MOV      R2,#+80
   \   000008A4   ........           _BLF     ??strncpy,??strncpy??rA
    164          				if ( PinUnlock || CheckPinCode(StringBuf) ) {
   \   000008A8   94029FE5           LDR      R0,??cbTankSetup_4+0x4  ;; PinUnlock
   \   000008AC   0000D0E5           LDRB     R0,[R0, #+0]
   \   000008B0   000050E3           CMP      R0,#+0
   \   000008B4   0B00001A           BNE      ??cbTankSetup_11
   \   000008B8   54108DE2           ADD      R1,SP,#+84
   \   000008BC   0D00A0E1           MOV      R0,SP
   \   000008C0   ........           _BLF     ??AnsiString_1,??AnsiString??rA_1
   \   000008C4   0D00A0E1           MOV      R0,SP
   \   000008C8   ........           _BLF     ??CheckPinCode,??CheckPinCode??rA
   \   000008CC   0050A0E1           MOV      R5,R0
   \   000008D0   0020A0E3           MOV      R2,#+0
   \   000008D4   0110A0E3           MOV      R1,#+1
   \   000008D8   0D00A0E1           MOV      R0,SP
   \   000008DC   ........           _BLF     ??_Tidy,??_Tidy??rA
   \   000008E0   000055E3           CMP      R5,#+0
   \   000008E4   E3FFFF0A           BEQ      ??cbTankSetup_7
    165          					switch ( ValueId ) {
   \                     ??cbTankSetup_11:
   \   000008E8   58529FE5           LDR      R5,??cbTankSetup_4+0x8  ;; ConfirmMessageBox
   \   000008EC   5C0F56E2           SUBS     R0,R6,#+368
   \   000008F0   0200000A           BEQ      ??cbTankSetup_12
   \   000008F4   010050E2           SUBS     R0,R0,#+1
   \   000008F8   0B00000A           BEQ      ??cbTankSetup_13
   \   000008FC   DDFFFFEA           B        ??cbTankSetup_7
    166          						case GUI_ID_BUTTON0:	/* Pressure Button */
    167          							{
    168          								ConfirmMessageBox->Exec(WM_GetClientWindow(hWin), L_WORD602, L_WORD607, ValueId);
   \                     ??cbTankSetup_12:
   \   00000900   0400A0E1           MOV      R0,R4
   \   00000904   ........           _BLF     WM_GetClientWindow,??WM_GetClientWindow??rA
   \   00000908   40002DE9           PUSH     {R6}
   \   0000090C   5F30A0E3           MOV      R3,#+95
   \   00000910   803F83E3           ORR      R3,R3,#0x200
   \   00000914   0520C3E3           BIC      R2,R3,#0x5
   \   00000918   0010A0E1           MOV      R1,R0
   \                     ??cbTankSetup_14:
   \   0000091C   000095E5           LDR      R0,[R5, #+0]
   \   00000920   ........           _BLF     ??Exec,??Exec??rA
   \   00000924   04D08DE2           ADD      SP,SP,#+4
   \   00000928   D2FFFFEA           B        ??cbTankSetup_7
    169          								// Zero adjust tank pressure!  The tanks must be vented to the atmosphere. This operation affects all tank pressure points.
    170          
    171          							}
    172          							break;
    173          						case GUI_ID_BUTTON1:	/* Level Button */
    174          							{
    175          								ConfirmMessageBox->Exec(WM_GetClientWindow(hWin), L_WORD604, L_WORD608, ValueId);
   \                     ??cbTankSetup_13:
   \   0000092C   0400A0E1           MOV      R0,R4
   \   00000930   ........           _BLF     WM_GetClientWindow,??WM_GetClientWindow??rA
   \   00000934   40002DE9           PUSH     {R6}
   \   00000938   0010A0E1           MOV      R1,R0
   \   0000093C   983FA0E3           MOV      R3,#+608
   \   00000940   972FA0E3           MOV      R2,#+604
   \   00000944   F4FFFFEA           B        ??cbTankSetup_14
    176          								// Zero adjust tank pressure!  The tanks must be empty and no tank cleaning the last 30 minutes. This operation affects all tank pressure points.
    177          
    178          							}
    179          							break;
    180          					}
    181          				}
    182          			}
    183          			break;
    184          		case MESSAGE_YES_RETURN:
    185          			{
    186          				AnsiString TmpString;
   \                     ??cbTankSetup_15:
   \   00000948   38008DE2           ADD      R0,SP,#+56
   \   0000094C   ........           _BLF     ??AnsiString,??AnsiString??rA
    187          				int ValueId = pMsg->hWinSrc;
   \   00000950   F640D5E1           LDRSH    R4,[R5, #+6]
    188          				char StringBuf[BUF_SIZE]={""};
   \   00000954   54008DE2           ADD      R0,SP,#+84
   \   00000958   0010A0E3           MOV      R1,#+0
   \   0000095C   5020A0E3           MOV      R2,#+80
   \                     ??cbTankSetup_16:
   \   00000960   042052E2           SUBS     R2,R2,#+4
   \   00000964   021080E7           STR      R1,[R0, R2]
   \   00000968   FCFFFF1A           BNE      ??cbTankSetup_16
    189          				strcpy( StringBuf,(char *)pMsg->Data.p);
   \   0000096C   081095E5           LDR      R1,[R5, #+8]
   \   00000970   ........           _BLF     strcpy,??strcpy??rA
    190          				switch ( ValueId ) {
   \   00000974   5C0F54E3           CMP      R4,#+368
   \   00000978   0F00001A           BNE      ??cbTankSetup_17
    191          					case GUI_ID_BUTTON0:	/* Pressure Button */
    192          						TmpString = PROTankPressure::ZeroSetAllTankPressureSensors(true);
   \   0000097C   0110A0E3           MOV      R1,#+1
   \   00000980   1C008DE2           ADD      R0,SP,#+28
   \   00000984   ........           _BLF     ??ZeroSetAllTankPressureSensors,??ZeroSetAllTankPressureSensors??rA
   \   00000988   ........           LDR      R0,??DataTable7  ;; ??npos
   \   0000098C   0020A0E3           MOV      R2,#+0
   \   00000990   003090E5           LDR      R3,[R0, #+0]
   \   00000994   1C108DE2           ADD      R1,SP,#+28
   \   00000998   38008DE2           ADD      R0,SP,#+56
   \   0000099C   ........           _BLF     ??assign,??assign??rA
   \   000009A0   0020A0E3           MOV      R2,#+0
   \   000009A4   0710A0E1           MOV      R1,R7
   \   000009A8   1C008DE2           ADD      R0,SP,#+28
   \   000009AC   ........           _BLF     ??_Tidy,??_Tidy??rA
    193          						ANPRO10_SendZerosetAll(CMD_ZSET_ALL_TANK_PRESS);
   \   000009B0   9E00A0E3           MOV      R0,#+158
   \   000009B4   C00E80E3           ORR      R0,R0,#0xC00
   \   000009B8   ........           _BLF     ??ANPRO10_SendZerosetAll,??ANPRO10_SendZerosetAll??rA
    194          						break;
    195          					case GUI_ID_BUTTON1:	/* Level Button */
    196          						break;
    197          				}
    198          				if ( TmpString.Length() ) {
   \                     ??cbTankSetup_17:
   \   000009BC   38008DE2           ADD      R0,SP,#+56
   \   000009C0   ........           _BLF     ??Length,??Length??rA
   \   000009C4   000050E3           CMP      R0,#+0
   \   000009C8   1800000A           BEQ      ??cbTankSetup_18
    199          					DisplayMessage(FindDictionaryWord(L_WORD606), TmpString); // Zeroset warnings:
   \   000009CC   0020A0E3           MOV      R2,#+0
   \   000009D0   0010A0E3           MOV      R1,#+0
   \   000009D4   1C008DE2           ADD      R0,SP,#+28
   \   000009D8   ........           _BLF     ??_Tidy,??_Tidy??rA
   \   000009DC   ........           LDR      R0,??DataTable7  ;; ??npos
   \   000009E0   0020A0E3           MOV      R2,#+0
   \   000009E4   003090E5           LDR      R3,[R0, #+0]
   \   000009E8   38108DE2           ADD      R1,SP,#+56
   \   000009EC   1C008DE2           ADD      R0,SP,#+28
   \   000009F0   ........           _BLF     ??assign,??assign??rA
   \   000009F4   5E10A0E3           MOV      R1,#+94
   \   000009F8   801F81E3           ORR      R1,R1,#0x200
   \   000009FC   0D00A0E1           MOV      R0,SP
   \   00000A00   ........           _BLF     ??FindDictionaryWord,??FindDictionaryWord??rA
   \   00000A04   1C108DE2           ADD      R1,SP,#+28
   \   00000A08   0D00A0E1           MOV      R0,SP
   \   00000A0C   ........           _BLF     ??DisplayMessage,??DisplayMessage??rA
   \   00000A10   0020A0E3           MOV      R2,#+0
   \   00000A14   0710A0E1           MOV      R1,R7
   \   00000A18   1C008DE2           ADD      R0,SP,#+28
   \   00000A1C   ........           _BLF     ??_Tidy,??_Tidy??rA
   \   00000A20   0020A0E3           MOV      R2,#+0
   \   00000A24   0710A0E1           MOV      R1,R7
   \   00000A28   0D00A0E1           MOV      R0,SP
   \   00000A2C   ........           _BLF     ??_Tidy,??_Tidy??rA
    200          				}
    201          			}
   \                     ??cbTankSetup_18:
   \   00000A30   0020A0E3           MOV      R2,#+0
   \   00000A34   0110A0E3           MOV      R1,#+1
   \   00000A38   38008DE2           ADD      R0,SP,#+56
   \   00000A3C   ........           _BLF     ??_Tidy,??_Tidy??rA
   \   00000A40   8CFFFFEA           B        ??cbTankSetup_7
    202          			break; 
    203          		case WM_NOTIFY_PARENT:
    204          			Id    = WM_GetId(pMsg->hWinSrc);	/* Id of widget */
   \                     ??cbTankSetup_19:
   \   00000A44   0600A0E1           MOV      R0,R6
   \   00000A48   ........           _BLF     WM_GetId,??WM_GetId??rA
   \   00000A4C   0060A0E1           MOV      R6,R0
    205          			NCode = pMsg->Data.v;				/* Notification code */
    206          			switch ( NCode ) {
   \   00000A50   080095E5           LDR      R0,[R5, #+8]
   \   00000A54   020050E2           SUBS     R0,R0,#+2
   \   00000A58   0400000A           BEQ      ??cbTankSetup_20
   \   00000A5C   020050E2           SUBS     R0,R0,#+2
   \   00000A60   2900000A           BEQ      ??cbTankSetup_21
   \   00000A64   010050E2           SUBS     R0,R0,#+1
   \   00000A68   1800000A           BEQ      ??cbTankSetup_22
   \   00000A6C   81FFFFEA           B        ??cbTankSetup_7
    207          				case WM_NOTIFICATION_RELEASED:	  /* React only if released */
    208          					switch ( Id ) {
   \                     ??cbTankSetup_20:
   \   00000A70   050056E3           CMP      R6,#+5
   \   00000A74   0C00000A           BEQ      ??cbTankSetup_23
   \   00000A78   5C0F56E3           CMP      R6,#+368
   \   00000A7C   5C1F8713           ORRNE    R1,R7,#0x170
   \   00000A80   01005611           CMPNE    R6,R1
   \   00000A84   7BFFFF1A           BNE      ??cbTankSetup_7
    209          						case GUI_ID_BUTTON0:	/* Pressure Button */
    210          						case GUI_ID_BUTTON1:	/* Level Button */
    211          							KeyBoard->ExecKeyBoardPinCode(WM_GetClientWindow(hWin),L_WORD150,Id);// Enter Pin code:
   \   00000A88   0400A0E1           MOV      R0,R4
   \   00000A8C   ........           _BLF     WM_GetClientWindow,??WM_GetClientWindow??rA
   \   00000A90   0010A0E1           MOV      R1,R0
   \   00000A94   B0009FE5           LDR      R0,??cbTankSetup_4+0xC  ;; KeyBoard
   \   00000A98   0630A0E1           MOV      R3,R6
   \   00000A9C   000090E5           LDR      R0,[R0, #+0]
   \   00000AA0   9620A0E3           MOV      R2,#+150
   \   00000AA4   ........           _BLF     ??ExecKeyBoardPinCode,??ExecKeyBoardPinCode??rA
   \   00000AA8   72FFFFEA           B        ??cbTankSetup_7
    212          							break;
    213          						case GUI_ID_CLOSE: /* Close Button */
    214          							if ( !AppSetupTankPressIsClosed ) {
   \                     ??cbTankSetup_23:
   \   00000AAC   ........           LDR      R0,??DataTable8  ;; AppSetupTankPressIsClosed
   \   00000AB0   0010D0E5           LDRB     R1,[R0, #+0]
   \   00000AB4   000051E3           CMP      R1,#+0
   \   00000AB8   6EFFFF1A           BNE      ??cbTankSetup_7
    215          								AppSetupTankPressIsClosed = true;
   \   00000ABC   0070C0E5           STRB     R7,[R0, #+0]
    216          								GUI_EndDialog(AppSetupTankPress->WinHandl, 0);
   \   00000AC0   000098E5           LDR      R0,[R8, #+0]
   \   00000AC4   FA02D0E1           LDRSH    R0,[R0, #+42]
   \   00000AC8   ........           _BLF     GUI_EndDialog,??GUI_EndDialog??rA
   \   00000ACC   69FFFFEA           B        ??cbTankSetup_7
    217          							}
    218          							break;
    219          					}
    220          					break;
    221          				case WM_NOTIFICATION_VALUE_CHANGED:
    222          					{
    223          						switch ( Id ) {
   \                     ??cbTankSetup_22:
   \   00000AD0   810046E2           SUB      R0,R6,#+129
   \   00000AD4   400F40E2           SUB      R0,R0,#+256
   \   00000AD8   020050E3           CMP      R0,#+2
   \   00000ADC   65FFFF8A           BHI      ??cbTankSetup_7
   \   00000AE0   021F8FE2           ADR      R1,??cbTankSetup_2
   \   00000AE4   8000A0E1           MOV      R0,R0, LSL #+1
   \   00000AE8   F01091E1           LDRSH    R1,[R1, R0]
   \   00000AEC   01F18FE0           ADD      PC,PC,R1, LSL #+2
   \                     ??cbTankSetup_2:
   \   00000AF0   010001000100       DC16     +1,+1,+1,+0
   \              0000        
    224          							case GUI_ID_DROPDOWN1:
    225          							case GUI_ID_DROPDOWN2:
    226          							case GUI_ID_DROPDOWN3:
    227          								AppSetupTankPress->UpdateDialog(hWin,Id);
   \                     ??cbTankSetup_24:
   \   00000AF8   000098E5           LDR      R0,[R8, #+0]
   \   00000AFC   0620A0E1           MOV      R2,R6
   \   00000B00   0410A0E1           MOV      R1,R4
   \   00000B04   ........           BL       ??UpdateDialog
   \   00000B08   5AFFFFEA           B        ??cbTankSetup_7
    228          								break;
    229          						}
    230          					}
    231          					break;
    232          				case WM_NOTIFICATION_SEL_CHANGED:
    233          					{
    234          						switch ( Id ) {
   \                     ??cbTankSetup_21:
   \   00000B0C   810046E2           SUB      R0,R6,#+129
   \   00000B10   400F40E2           SUB      R0,R0,#+256
   \   00000B14   020050E3           CMP      R0,#+2
   \   00000B18   56FFFF8A           BHI      ??cbTankSetup_7
   \   00000B1C   021F8FE2           ADR      R1,??cbTankSetup_3
   \   00000B20   8000A0E1           MOV      R0,R0, LSL #+1
   \   00000B24   F01091E1           LDRSH    R1,[R1, R0]
   \   00000B28   01F18FE0           ADD      PC,PC,R1, LSL #+2
   \                     ??cbTankSetup_3:
   \   00000B2C   F2FFF2FFF2FF       DC16     +65522,+65522,+65522,+0
   \              0000        
    235          							case GUI_ID_DROPDOWN1:
    236          							case GUI_ID_DROPDOWN2:
    237          							case GUI_ID_DROPDOWN3:
    238          								AppSetupTankPress->UpdateDialog(hWin,Id);
    239          								break;
    240          						}
    241          					}
    242          					break;
    243          			}
    244          			break;
    245          		default:
    246          			WM_DefaultProc(pMsg);
   \                     ??cbTankSetup_5:
   \   00000B34   0500A0E1           MOV      R0,R5
   \   00000B38   ........           _BLF     WM_DefaultProc,??WM_DefaultProc??rA
    247          	}
    248          }
   \                     ??cbTankSetup_25:
   \   00000B3C   4DFFFFEA           B        ??cbTankSetup_7
   \                     ??cbTankSetup_4:
   \   00000B40   ........           DC32     AppSetupTankPress
   \   00000B44   ........           DC32     PinUnlock
   \   00000B48   ........           DC32     ConfirmMessageBox
   \   00000B4C   ........           DC32     KeyBoard

   \                                 In segment DIFUNCT, align 4, keep-with-next, root
   \   00000000                      REQUIRE ?call_ctors
   \   00000000   ........           DC32    ??__sti__routine

   \                                 In segment DATA_C, align 4, align-sorted
   \                     `?<Constant "Application setup">`:
   \   00000000   4170706C6963       DC8 "Application setup"
   \              6174696F6E20
   \              736574757000
   \   00000012   0000               DC8 0, 0

   \                                 In segment DATA_C, align 4, align-sorted
   \                     `?<Constant "Close">`:
   \   00000000   436C6F736500       DC8 "Close"
   \   00000006   0000               DC8 0, 0

   \                                 In segment DATA_C, align 4, align-sorted
   \                     `?<Constant "Col. 1">`:
   \   00000000   436F6C2E2031       DC8 "Col. 1"
   \              00          
   \   00000007   00                 DC8 0

   \                                 In segment DATA_C, align 4, align-sorted
   \                     `?<Constant "Col. 2">`:
   \   00000000   436F6C2E2032       DC8 "Col. 2"
   \              00          
   \   00000007   00                 DC8 0

   \                                 In segment DATA_C, align 4, align-sorted
   \                     `?<Constant "Col. 3">`:
   \   00000000   436F6C2E2033       DC8 "Col. 3"
   \              00          
   \   00000007   00                 DC8 0

   \                                 In segment DATA_C, align 4, align-sorted
   \                     `?<Constant "Col. 4">`:
   \   00000000   436F6C2E2034       DC8 "Col. 4"
   \              00          
   \   00000007   00                 DC8 0

   \                                 In segment DATA_C, align 4, align-sorted
   \                     `?<Constant "Name ">`:
   \   00000000   4E616D652000       DC8 "Name "
   \   00000006   0000               DC8 0, 0

   \                                 In segment DATA_C, align 4, align-sorted
   \                     `?<Constant "unit">`:
   \   00000000   756E697400         DC8 "unit"
   \   00000005   000000             DC8 0, 0, 0

   \                                 In segment DATA_C, align 4, align-sorted
   \                     `?<Constant "Zero adjust tank\\n pre...">`:
   \   00000000   5A65726F2061       DC8 5AH, 65H, 72H, 6FH, 20H, 61H, 64H, 6AH
   \              646A        
   \   00000008   757374207461       DC8 75H, 73H, 74H, 20H, 74H, 61H, 6EH, 6BH
   \              6E6B        
   \   00000010   0A2070726573       DC8 0AH, 20H, 70H, 72H, 65H, 73H, 73H, 75H
   \              7375        
   \   00000018   72652073656E       DC8 72H, 65H, 20H, 73H, 65H, 6EH, 73H, 6FH
   \              736F        
   \   00000020   7220666F720A       DC8 72H, 20H, 66H, 6FH, 72H, 0AH, 20H, 61H
   \              2061        
   \   00000028   6C6C2074616E       DC8 6CH, 6CH, 20H, 74H, 61H, 6EH, 6BH, 20H
   \              6B20        
   \   00000030   707265737375       DC8 70H, 72H, 65H, 73H, 73H, 75H, 72H, 65H
   \              7265        
   \   00000038   20706F696E74       DC8 20H, 70H, 6FH, 69H, 6EH, 74H, 73H, 2EH
   \              732E        
   \   00000040   00                 DC8 0
   \   00000041   000000             DC8 0, 0, 0

   \                                 In segment DATA_C, align 4, align-sorted
   \   00000000   00                 DC8 ""
   \   00000001   000000000000       DC8 0, 0, 0, 0, 0, 0, 0, 0, 0, 0, 0, 0, 0, 0, 0, 0
   \              000000000000
   \              00000000    
   \   00000011   000000000000       DC8 0, 0, 0, 0, 0, 0, 0, 0, 0, 0, 0, 0, 0, 0, 0, 0
   \              000000000000
   \              00000000    
   \   00000021   000000000000       DC8 0, 0, 0, 0, 0, 0, 0, 0, 0, 0, 0, 0, 0, 0, 0, 0
   \              000000000000
   \              00000000    
   \   00000031   000000000000       DC8 0, 0, 0, 0, 0, 0, 0, 0, 0, 0, 0, 0, 0, 0, 0, 0
   \              000000000000
   \              00000000    
   \   00000041   000000000000       DC8 0, 0, 0, 0, 0, 0, 0, 0, 0, 0, 0, 0, 0, 0, 0
   \              000000000000
   \              000000      

   \                                 In segment DATA_C, align 4, align-sorted
   \   00000000   00                 DC8 ""
   \   00000001   000000000000       DC8 0, 0, 0, 0, 0, 0, 0, 0, 0, 0, 0, 0, 0, 0, 0, 0
   \              000000000000
   \              00000000    
   \   00000011   000000000000       DC8 0, 0, 0, 0, 0, 0, 0, 0, 0, 0, 0, 0, 0, 0, 0, 0
   \              000000000000
   \              00000000    
   \   00000021   000000000000       DC8 0, 0, 0, 0, 0, 0, 0, 0, 0, 0, 0, 0, 0, 0, 0, 0
   \              000000000000
   \              00000000    
   \   00000031   000000000000       DC8 0, 0, 0, 0, 0, 0, 0, 0, 0, 0, 0, 0, 0, 0, 0, 0
   \              000000000000
   \              00000000    
   \   00000041   000000000000       DC8 0, 0, 0, 0, 0, 0, 0, 0, 0, 0, 0, 0, 0, 0, 0
   \              000000000000
   \              000000      

   \                                 In segment CODE, align 4, keep-with-next
   \   __??Code32?? __code __interwork __atpcs TDUAppSetupTankPress &TDUAppSetupTankPress::new TDUAppSetupTankPress()
   \                     `??new TDUAppSetupTankPress`:
   \   00000000   10402DE9           PUSH     {R4,LR}
   \   00000004   4C00A0E3           MOV      R0,#+76
   \   00000008   ........           _BLF     `??operator new`,`??operator new??rA`
   \   0000000C   0040B0E1           MOVS     R4,R0
   \   00000010   0300000A           BEQ      `??new TDUAppSetupTankPress_1`
   \   00000014   ........           _BLF     ??TDUBasicWin,??TDUBasicWin??rA
   \   00000018   ........           LDR      R0,??DataTable2  ;; AppSetupTankPressIsClosed
   \   0000001C   0110A0E3           MOV      R1,#+1
   \   00000020   0010C0E5           STRB     R1,[R0, #+0]
   \                     `??new TDUAppSetupTankPress_1`:
   \   00000024   0400A0E1           MOV      R0,R4
   \   00000028   1040BDE8           POP      {R4,LR}
   \   0000002C   1EFF2FE1           BX       LR               ;; return

   \                                 In segment CODE, align 4, keep-with-next
   \   __??Code32?? __code __interwork __atpcs void TDUAppSetupTankPress::delete ~TDUAppSetupTankPress(TDUAppSetupTankPress *)
   \                     `??delete ~TDUAppSetupTankPress`:
   \   00000000   10402DE9           PUSH     {R4,LR}
   \   00000004   0040B0E1           MOVS     R4,R0
   \   00000008   0200000A           BEQ      `??delete ~TDUAppSetupTankPress_1`
   \   0000000C   ........           _BLF     `?~TDUBasicWin`,`?~TDUBasicWin??rA`
   \   00000010   0400A0E1           MOV      R0,R4
   \   00000014   ........           _BLF     `??operator delete`,`??operator delete??rA`
   \                     `??delete ~TDUAppSetupTankPress_1`:
   \   00000018   1040BDE8           POP      {R4,LR}
   \   0000001C   1EFF2FE1           BX       LR               ;; return

   \                                 In segment CODE, align 4, keep-with-next
   \   static __??Code32?? __intrinsic __code __interwork __atpcs void __sti__routine()
   \                     ??__sti__routine:
   \   00000000   1EFF2FE1           BX       LR               ;; return

   \                                 In segment CODE, align 4, keep-with-next
   \                     ??DataTable2:
   \   00000000   ........           DC32     AppSetupTankPressIsClosed

   \                                 In segment CODE, align 4, keep-with-next
   \                     ??DataTable4:
   \   00000000   ........           DC32     TankPressWindow

   \                                 In segment CODE, align 4, keep-with-next
   \                     ??DataTable7:
   \   00000000   ........           DC32     ??npos

   \                                 In segment CODE, align 4, keep-with-next
   \                     ??DataTable8:
   \   00000000   ........           DC32     AppSetupTankPressIsClosed
    249          

   Maximum stack usage in bytes:

     Function                       CSTACK
     --------                       ------
     TDUAppSetupTankPress::ExecDialogBox(GUI_HWIN)
                                       16
     TDUAppSetupTankPress::GetDialogHandles()
                                        8
     TDUAppSetupTankPress::InitDialog()
                                      120
     TDUAppSetupTankPress::TDUAppSetupTankPress()
                                        8
     TDUAppSetupTankPress::UpdateDialog(GUI_HWIN, int)
                                      116
     TDUAppSetupTankPress::cbTankSetup(WM_MESSAGE *)
                                      192
     TDUAppSetupTankPress::delete ~TDUAppSetupTankPress(TDUAppSetupTankPress *)
                                        8
     TDUAppSetupTankPress::new TDUAppSetupTankPress()
                                        8
     TDUAppSetupTankPress::~TDUAppSetupTankPress()
                                        4
     __sti__routine()                   0


   Segment part sizes:

     Function/Label                 Bytes
     --------------                 -----
     TDUAppSetupTankPress::~TDUAppSetupTankPress()
                                      16
     TDUAppSetupTankPress::TDUAppSetupTankPress()
                                      36
     TDUAppSetupTankPress::aDialogCreate
                                     336
     TDUAppSetupTankPress::ExecDialogBox(GUI_HWIN)
                                     184
     TDUAppSetupTankPress::GetDialogHandles()
                                     140
     TDUAppSetupTankPress::InitDialog()
                                     432
     TDUAppSetupTankPress::UpdateDialog(GUI_HWIN, int)
                                     416
     TDUAppSetupTankPress::cbTankSetup(WM_MESSAGE *)
                                    2896
     ?<Constant "Application setup">
                                      20
     ?<Constant "Close">               8
     ?<Constant "Col. 1">              8
     ?<Constant "Col. 2">              8
     ?<Constant "Col. 3">              8
     ?<Constant "Col. 4">              8
     ?<Constant "Name ">               8
     ?<Constant "unit">                8
     ?<Constant "Zero adjust tank\n pre...">
                                      68
     ?<Constant "">                   80
     ?<Constant "">_1                 80
     TDUAppSetupTankPress::new TDUAppSetupTankPress()
                                      48
     TDUAppSetupTankPress::delete ~TDUAppSetupTankPress(TDUAppSetupTankPress *)
                                      32
     __sti__routine()                  4
     ??DataTable2                      4
     ??DataTable4                      4
     ??DataTable7                      4
     ??DataTable8                      4
      Others                         512

 
 4 728 bytes in segment CODE
   640 bytes in segment DATA_C
     4 bytes in segment DIFUNCT
 
 4 224 bytes of CODE  memory (+ 508 bytes shared)
   640 bytes of CONST memory

Errors: none
Warnings: none
