##############################################################################
#                                                                            #
# IAR ARM ANSI C/C++ Compiler V4.42A/W32               14/Sep/2022  15:18:01 #
# Copyright 1999-2005 IAR Systems. All rights reserved.                      #
#                                                                            #
#    Cpu mode        =  interwork                                            #
#    Endian          =  little                                               #
#    Stack alignment =  4                                                    #
#    Source file     =  D:\S2Prog\TXU\src\TDUAppSetupVoidSpace.cpp           #
#    Command line    =  D:\S2Prog\TXU\src\TDUAppSetupVoidSpace.cpp --fpu     #
#                       None -D OS_LIBMODE_SP -D CPU_S3C2410 -D              #
#                       OS_RAMVECT=0 -D OS_UART=-1 -D S2TXU -D USE_LZO=1 -D  #
#                       __ARM_LIBRARY__ -D WATCHDOG=1 -D NETWORK=1 -lCN      #
#                       D:\S2Prog\TXU\Debug\List\ -o                         #
#                       D:\S2Prog\TXU\Debug\Obj\ -s9 --debug --cpu_mode arm  #
#                       --endian little --cpu ARM920T --stack_align 4        #
#                       --interwork -e --enable_multibytes --eec++           #
#                       --dlib_config "C:\Program Files (x86)\IAR            #
#                       Systems\Embedded Workbench                           #
#                       4.0\arm\LIB\dl4tpainl8n.h" -I                        #
#                       D:\S2Prog\TXU\GUI\CORE\ -I D:\S2Prog\TXU\GUI\WM\ -I  #
#                       D:\S2Prog\TXU\GUI\WIDGET\ -I D:\S2Prog\TXU\CONFIG\   #
#                       -I D:\S2Prog\TXU\INC\ -I D:\S2Prog\TXU\..\SHARED\INC #
#                       \ -I D:\S2Prog\TXU\..\SHARED\SRC\ -I                 #
#                       D:\S2Prog\TXU\..\SHARED\LZO\minilzo.210\ -I          #
#                       D:\S2Prog\TXU\lwip-1.4.1\src\include\ -I             #
#                       D:\S2Prog\TXU\lwip-1.4.1\src\include\ipv4\ -I        #
#                       D:\S2Prog\TXU\lwip-1.4.1\src\ -I                     #
#                       D:\S2Prog\TXU\..\SHARED\Database\ -I                 #
#                       D:\S2Prog\TXU\src\ -I "C:\Program Files (x86)\IAR    #
#                       Systems\Embedded Workbench 4.0\arm\INC\"             #
#                       --inline_threshold=2                                 #
#    List file       =  D:\S2Prog\TXU\Debug\List\TDUAppSetupVoidSpace.lst    #
#    Object file     =  D:\S2Prog\TXU\Debug\Obj\TDUAppSetupVoidSpace.r79     #
#                                                                            #
#                                                                            #
##############################################################################

D:\S2Prog\TXU\src\TDUAppSetupVoidSpace.cpp
      1          #include "TDUIncludes.h"

   \                                 In segment CODE, align 4, keep-with-next
   \   __??Code32?? __code __interwork __atpcs _Tree<_Tset_traits<PRogramObjectBase *, less<PRogramObjectBase *>, allocator<PRogramObjectBase *>, false>>::_Tree(_Tree<_Tset_traits<PRogramObjectBase *, less<PRogramObjectBase *>, allocator<PRogramObjectBase *>, false>> const &)
   \                     ??_Tree:
   \   00000000   30402DE9           PUSH     {R4,R5,LR}
   \   00000004   0040A0E1           MOV      R4,R0
   \   00000008   0150A0E1           MOV      R5,R1
   \   0000000C   1400D5E5           LDRB     R0,[R5, #+20]
   \   00000010   044084E5           STR      R4,[R4, #+4]
   \   00000014   004084E5           STR      R4,[R4, #+0]
   \   00000018   084084E5           STR      R4,[R4, #+8]
   \   0000001C   0110A0E3           MOV      R1,#+1
   \   00000020   0D10C4E5           STRB     R1,[R4, #+13]
   \   00000024   0C10C4E5           STRB     R1,[R4, #+12]
   \   00000028   0010A0E3           MOV      R1,#+0
   \   0000002C   101084E5           STR      R1,[R4, #+16]
   \   00000030   1400C4E5           STRB     R0,[R4, #+20]
   \   00000034   041095E5           LDR      R1,[R5, #+4]
   \   00000038   0420A0E1           MOV      R2,R4
   \   0000003C   0400A0E1           MOV      R0,R4
   \   00000040   ........           _BLF     ??_Copy,??_Copy??rA
   \   00000044   040084E5           STR      R0,[R4, #+4]
   \   00000048   100095E5           LDR      R0,[R5, #+16]
   \   0000004C   100084E5           STR      R0,[R4, #+16]
   \   00000050   040094E5           LDR      R0,[R4, #+4]
   \   00000054   0D10D0E5           LDRB     R1,[R0, #+13]
   \   00000058   000051E3           CMP      R1,#+0
   \   0000005C   1600001A           BNE      ??_Tree_1
   \   00000060   0010A0E1           MOV      R1,R0
   \   00000064   002091E5           LDR      R2,[R1, #+0]
   \   00000068   0D20D2E5           LDRB     R2,[R2, #+13]
   \   0000006C   000052E3           CMP      R2,#+0
   \   00000070   0400001A           BNE      ??_Tree_2
   \                     ??_Tree_3:
   \   00000074   001091E5           LDR      R1,[R1, #+0]
   \   00000078   002091E5           LDR      R2,[R1, #+0]
   \   0000007C   0D20D2E5           LDRB     R2,[R2, #+13]
   \   00000080   000052E3           CMP      R2,#+0
   \   00000084   FAFFFF0A           BEQ      ??_Tree_3
   \                     ??_Tree_2:
   \   00000088   001084E5           STR      R1,[R4, #+0]
   \   0000008C   082090E5           LDR      R2,[R0, #+8]
   \   00000090   081084E2           ADD      R1,R4,#+8
   \   00000094   0D20D2E5           LDRB     R2,[R2, #+13]
   \   00000098   000052E3           CMP      R2,#+0
   \   0000009C   0400001A           BNE      ??_Tree_4
   \                     ??_Tree_5:
   \   000000A0   080090E5           LDR      R0,[R0, #+8]
   \   000000A4   082090E5           LDR      R2,[R0, #+8]
   \   000000A8   0D20D2E5           LDRB     R2,[R2, #+13]
   \   000000AC   000052E3           CMP      R2,#+0
   \   000000B0   FAFFFF0A           BEQ      ??_Tree_5
   \                     ??_Tree_4:
   \   000000B4   000081E5           STR      R0,[R1, #+0]
   \   000000B8   010000EA           B        ??_Tree_6
   \                     ??_Tree_1:
   \   000000BC   004084E5           STR      R4,[R4, #+0]
   \   000000C0   084084E5           STR      R4,[R4, #+8]
   \                     ??_Tree_6:
   \   000000C4   0400A0E1           MOV      R0,R4
   \   000000C8   3040BDE8           POP      {R4,R5,LR}
   \   000000CC   1EFF2FE1           BX       LR               ;; return

   \                                 In segment CODE, align 4, keep-with-next
   \   __??Code32?? __code __interwork __atpcs _Tree<_Tset_traits<PRogramObjectBase *, less<PRogramObjectBase *>, allocator<PRogramObjectBase *>, false>>::_Nodeptr _Tree<_Tset_traits<PRogramObjectBase *, less<PRogramObjectBase *>, allocator<PRogramObjectBase *>, false>>::_Copy(_Tree<_Tset_traits<PRogramObjectBase *, less<PRogramObjectBase *>, allocator<PRogramObjectBase *>, false>>::_Nodeptr, _Tree<_Tset_traits<PRogramObjectBase *, less<PRogramObjectBase *>, allocator<PRogramObjectBase *>, false>>::_Nodeptr)
   \                     ??_Copy:
   \   00000000   F0472DE9           PUSH     {R4-R10,LR}
   \   00000004   0040A0E1           MOV      R4,R0
   \   00000008   0150A0E1           MOV      R5,R1
   \   0000000C   0D00D5E5           LDRB     R0,[R5, #+13]
   \   00000010   0280A0E1           MOV      R8,R2
   \   00000014   0460A0E1           MOV      R6,R4
   \   00000018   000050E3           CMP      R0,#+0
   \   0000001C   1900001A           BNE      ??_Copy_1
   \   00000020   0C90D5E5           LDRB     R9,[R5, #+12]
   \   00000024   10A095E5           LDR      R10,[R5, #+16]
   \   00000028   1400A0E3           MOV      R0,#+20
   \   0000002C   ........           _BLF     `??operator new`,`??operator new??rA`
   \   00000030   0070B0E1           MOVS     R7,R0
   \   00000034   0600000A           BEQ      ??_Copy_2
   \   00000038   004087E5           STR      R4,[R7, #+0]
   \   0000003C   048087E5           STR      R8,[R7, #+4]
   \   00000040   084087E5           STR      R4,[R7, #+8]
   \   00000044   0C90C7E5           STRB     R9,[R7, #+12]
   \   00000048   0000A0E3           MOV      R0,#+0
   \   0000004C   0D00C7E5           STRB     R0,[R7, #+13]
   \   00000050   10A087E5           STR      R10,[R7, #+16]
   \                     ??_Copy_2:
   \   00000054   0D00D6E5           LDRB     R0,[R6, #+13]
   \   00000058   001095E5           LDR      R1,[R5, #+0]
   \   0000005C   0720A0E1           MOV      R2,R7
   \   00000060   000050E3           CMP      R0,#+0
   \   00000064   0760A011           MOVNE    R6,R7
   \   00000068   0400A0E1           MOV      R0,R4
   \   0000006C   E3FFFFEB           BL       ??_Copy
   \   00000070   000087E5           STR      R0,[R7, #+0]
   \   00000074   081095E5           LDR      R1,[R5, #+8]
   \   00000078   0720A0E1           MOV      R2,R7
   \   0000007C   0400A0E1           MOV      R0,R4
   \   00000080   DEFFFFEB           BL       ??_Copy
   \   00000084   080087E5           STR      R0,[R7, #+8]
   \                     ??_Copy_1:
   \   00000088   0600A0E1           MOV      R0,R6
   \   0000008C   F047BDE8           POP      {R4-R10,LR}
   \   00000090   1EFF2FE1           BX       LR               ;; return

   \                                 In segment CODE, align 4, keep-with-next
   \   __??Code32?? __code __interwork __atpcs void _Tree<_Tset_traits<PRogramObjectBase *, less<PRogramObjectBase *>, allocator<PRogramObjectBase *>, false>>::_Erase(_Tree<_Tset_traits<PRogramObjectBase *, less<PRogramObjectBase *>, allocator<PRogramObjectBase *>, false>>::_Nodeptr)
   \                     ??_Erase:
   \   00000000   70402DE9           PUSH     {R4-R6,LR}
   \   00000004   0040A0E1           MOV      R4,R0
   \   00000008   0150A0E1           MOV      R5,R1
   \   0000000C   0560A0E1           MOV      R6,R5
   \   00000010   0D00D6E5           LDRB     R0,[R6, #+13]
   \   00000014   000050E3           CMP      R0,#+0
   \   00000018   0900001A           BNE      ??_Erase_1
   \                     ??_Erase_2:
   \   0000001C   081096E5           LDR      R1,[R6, #+8]
   \   00000020   0400A0E1           MOV      R0,R4
   \   00000024   F5FFFFEB           BL       ??_Erase
   \   00000028   006096E5           LDR      R6,[R6, #+0]
   \   0000002C   0500A0E1           MOV      R0,R5
   \   00000030   ........           _BLF     `??operator delete`,`??operator delete??rA`
   \   00000034   0D00D6E5           LDRB     R0,[R6, #+13]
   \   00000038   0650A0E1           MOV      R5,R6
   \   0000003C   000050E3           CMP      R0,#+0
   \   00000040   F5FFFF0A           BEQ      ??_Erase_2
   \                     ??_Erase_1:
   \   00000044   7040BDE8           POP      {R4-R6,LR}
   \   00000048   1EFF2FE1           BX       LR               ;; return
      2          
      3          

   \                                 In segment CODE, align 4, keep-with-next
      4          TDUAppSetupVoidSpace::~TDUAppSetupVoidSpace(void)
      5          {
   \                     `?~TDUAppSetupVoidSpace`:
   \   00000000   00402DE9           PUSH     {LR}
      6          }
   \   00000004   ........           _BLF     `?~TDUBasicWin`,`?~TDUBasicWin??rA`
   \   00000008   0040BDE8           POP      {LR}
   \   0000000C   1EFF2FE1           BX       LR               ;; return
      7          

   \                                 In segment CODE, align 4, keep-with-next
      8          TDUAppSetupVoidSpace::TDUAppSetupVoidSpace(void)
   \                     ??TDUAppSetupVoidSpace:
   \   00000000   10402DE9           PUSH     {R4,LR}
   \   00000004   0040A0E1           MOV      R4,R0
      9          {
   \   00000008   ........           _BLF     ??TDUBasicWin,??TDUBasicWin??rA
     10          	ValTabPtr = PROVoidSpace::GetValueInfoTableStatic(ValTabEntries,TAB_TANK_VALUES);
   \   0000000C   0010A0E3           MOV      R1,#+0
   \   00000010   580084E2           ADD      R0,R4,#+88
   \   00000014   ........           _BLF     ??GetValueInfoTableStatic,??GetValueInfoTableStatic??rA
   \   00000018   5C0084E5           STR      R0,[R4, #+92]
     11          	AppSetupVoidSpaceIsClosed = true;
   \   0000001C   ........           LDR      R0,??DataTable1  ;; AppSetupVoidSpaceIsClosed
   \   00000020   0110A0E3           MOV      R1,#+1
   \   00000024   0010C0E5           STRB     R1,[R0, #+0]
     12          }
   \   00000028   0400A0E1           MOV      R0,R4
   \   0000002C   1040BDE8           POP      {R4,LR}
   \   00000030   1EFF2FE1           BX       LR               ;; return
     13          

   \                                 In segment DATA_C, align 4, align-sorted
     14          const GUI_WIDGET_CREATE_INFO TDUAppSetupVoidSpace::aDialogCreate[] =
   \                     ??aDialogCreate:
   \   00000000   ............       DC32 FRAMEWIN_CreateIndirect, `?<Constant "Application setup">`
   \              ....        
   \   00000008   950800000000       DC16 2197, 0, 0, 0, 0, 128
   \              000000008000
   \   00000014   00000000....       DC32 0, TEXT_CreateIndirect, `?<Constant "Col. 1">`
   \              ............
   \   00000020   FE0904000400       DC16 2558, 4, 4, 40, 15, 0
   \              28000F000000
   \   0000002C   00000000           DC8 0, 0, 0, 0
   \   00000030   ............       DC32 TEXT_CreateIndirect, `?<Constant "Col. 2">`
   \              ....        
   \   00000038   FF092C000400       DC16 2559, 44, 4, 74, 15, 0
   \              4A000F000000
   \   00000044   00000000           DC8 0, 0, 0, 0
   \   00000048   ............       DC32 TEXT_CreateIndirect, `?<Constant "Col. 3">`
   \              ....        
   \   00000050   000A7C000400       DC16 2560, 124, 4, 74, 15, 0
   \              4A000F000000
   \   0000005C   00000000           DC8 0, 0, 0, 0
   \   00000060   ............       DC32 TEXT_CreateIndirect, `?<Constant "Col. 4">`
   \              ....        
   \   00000068   010ACC000400       DC16 2561, 204, 4, 74, 15, 0
   \              4A000F000000
   \   00000074   00000000           DC8 0, 0, 0, 0
   \   00000078   ............       DC32 TEXT_CreateIndirect, `?<Constant "Name ">`
   \              ....        
   \   00000080   020A04001400       DC16 2562, 4, 20, 74, 15, 0
   \              4A000F000000
   \   0000008C   00000000           DC8 0, 0, 0, 0
   \   00000090   ........0000       DC32 DROPDOWN_CreateIndirect, 0H
   \              0000        
   \   00000098   81012C001400       DC16 385, 44, 20, 74, 110, 0
   \              4A006E000000
   \   000000A4   03000000....       DC32 3, DROPDOWN_CreateIndirect, 0H
   \              ....00000000
   \   000000B0   82017C001400       DC16 386, 124, 20, 74, 110, 0
   \              4A006E000000
   \   000000BC   03000000....       DC32 3, DROPDOWN_CreateIndirect, 0H
   \              ....00000000
   \   000000C8   8301CC001400       DC16 387, 204, 20, 74, 110, 0
   \              4A006E000000
   \   000000D4   03000000....       DC32 3, TEXT_CreateIndirect, `?<Constant "unit">`
   \              ............
   \   000000E0   620130002800       DC16 354, 48, 40, 74, 15, 0
   \              4A000F000000
   \   000000EC   00000000           DC8 0, 0, 0, 0
   \   000000F0   ............       DC32 TEXT_CreateIndirect, `?<Constant "unit">`
   \              ....        
   \   000000F8   630180002800       DC16 355, 128, 40, 74, 15, 0
   \              4A000F000000
   \   00000104   00000000           DC8 0, 0, 0, 0
   \   00000108   ............       DC32 TEXT_CreateIndirect, `?<Constant "unit">`
   \              ....        
   \   00000110   6401D0002800       DC16 356, 208, 40, 74, 15, 0
   \              4A000F000000
   \   0000011C   00000000           DC8 0, 0, 0, 0
   \   00000120   ............       DC32 BUTTON_CreateIndirect, `?<Constant "Zero adjust void spac...">`
   \              ....        
   \   00000128   700105006900       DC16 368, 5, 105, 130, 45
   \              82002D00    
   \   00000132   000000000000       DC8 0, 0, 0, 0, 0, 0
   \   00000138   ............       DC32 BUTTON_CreateIndirect, `?<Constant "Zero adjust level\\n se...">`
   \              ....        
   \   00000140   710190006900       DC16 369, 144, 105, 130, 45
   \              82002D00    
   \   0000014A   000000000000       DC8 0, 0, 0, 0, 0, 0
   \   00000150   ............       DC32 BUTTON_CreateIndirect, `?<Constant "Close">`
   \              ....        
   \   00000158   0500BE009A00       DC16 5, 190, 154, 85, 25
   \              55001900    
   \   00000162   000000000000       DC8 0, 0, 0, 0, 0, 0
   \   00000168   ............       DC32 TEXT_CreateIndirect, `?<Constant "Ballast water density">`
   \              ....        
   \   00000170   030A05005000       DC16 2563, 5, 80, 125, 15, 0
   \              7D000F000000
   \   0000017C   00000000           DC8 0, 0, 0, 0
   \   00000180   ........0000       DC32 EDIT_CreateIndirect, 0H
   \              0000        
   \   00000188   010182005000       DC16 257, 130, 80, 65, 15, 1
   \              41000F000100
   \   00000194   00000000           DC8 0, 0, 0, 0
   \   00000198   ............       DC32 TEXT_CreateIndirect, `?<Constant "">`
   \              ....        
   \   000001A0   6901C8005000       DC16 361, 200, 80, 75, 15, 0
   \              4B000F000000
   \   000001AC   00000000           DC8 0, 0, 0, 0
     15          {
     16          	{ FRAMEWIN_CreateIndirect, "Application setup", TDU_APPBALLAST_WIN, 0, 0, 0, 0, FRAMEWIN_CF_MAXIMIZED, 0},
     17          	{ TEXT_CreateIndirect, "Col. 1"           , GUI_ID_TEXT10,   4,   4,  40,  15, TEXT_CF_LEFT},
     18          	{ TEXT_CreateIndirect, "Col. 2"           , GUI_ID_TEXT11,  44,   4,  74,  15, TEXT_CF_LEFT},
     19          	{ TEXT_CreateIndirect, "Col. 3"           , GUI_ID_TEXT12, 124,   4,  74,  15, TEXT_CF_LEFT},
     20          	{ TEXT_CreateIndirect, "Col. 4"           , GUI_ID_TEXT13, 204,   4,  74,  15, TEXT_CF_LEFT},
     21          	{ TEXT_CreateIndirect, "Name "            , GUI_ID_TEXT14,   4,  20,  74,  15, TEXT_CF_LEFT},
     22          	{ DROPDOWN_CreateIndirect, NULL        , GUI_ID_DROPDOWN1,  44,  20,  74, 110, 0, 3},
     23          	{ DROPDOWN_CreateIndirect, NULL        , GUI_ID_DROPDOWN2, 124,  20,  74, 110, 0, 3},
     24          	{ DROPDOWN_CreateIndirect, NULL        , GUI_ID_DROPDOWN3, 204,  20,  74, 110, 0, 3},
     25          	{ TEXT_CreateIndirect, "unit"             ,  GUI_ID_TEXT2,  48,  40,  74,  15, TEXT_CF_LEFT},
     26          	{ TEXT_CreateIndirect, "unit"             ,  GUI_ID_TEXT3, 128,  40,  74,  15, TEXT_CF_LEFT},
     27          	{ TEXT_CreateIndirect, "unit"             ,  GUI_ID_TEXT4, 208,  40,  74,  15, TEXT_CF_LEFT},
     28          	{ BUTTON_CreateIndirect,"Zero adjust void space\n pressure sensor for\n all void spaces." ,GUI_ID_BUTTON0,  5,  105, 130, 45},
     29          	{ BUTTON_CreateIndirect,"Zero adjust level\n sensor(s) for\n all void spaces."      ,GUI_ID_BUTTON1,  144, 105, 130, 45},
     30          	{ BUTTON_CreateIndirect,"Close"                                                       ,GUI_ID_CLOSE   ,  190, 154,  85, 25},
     31          
     32          	{ TEXT_CreateIndirect, "Ballast water density"    ,  GUI_ID_TEXT15 ,   5,  80, 125, 15, TEXT_CF_LEFT},
     33          	{ EDIT_CreateIndirect, NULL                       ,  GUI_ID_EDIT1, 130,  80, 65, 15, GUI_TA_RIGHT},
     34          	{ TEXT_CreateIndirect, ""                         ,  GUI_ID_TEXT9, 200,  80, 75, 15, TEXT_CF_LEFT},
     35          
     36          };
     37          
     38          

   \                                 In segment CODE, align 4, keep-with-next
     39          void TDUAppSetupVoidSpace::ExecDialogBox(WM_HWIN hCurrentWin)
     40          {
   \                     ??ExecDialogBox:
   \   00000000   10402DE9           PUSH     {R4,LR}
   \   00000004   0040A0E1           MOV      R4,R0
     41          	if ( AppSetupVoidSpaceIsClosed ) {
   \   00000008   ........           LDR      R0,??DataTable1  ;; AppSetupVoidSpaceIsClosed
   \   0000000C   0020D0E5           LDRB     R2,[R0, #+0]
   \   00000010   000052E3           CMP      R2,#+0
   \   00000014   2100000A           BEQ      ??ExecDialogBox_1
     42          		AppSetupVoidSpaceIsClosed = false;
   \   00000018   0020A0E3           MOV      R2,#+0
   \   0000001C   0020C0E5           STRB     R2,[R0, #+0]
     43          		//	WinHandl = GUI_ExecDialogBox(aDialogCreate, GUI_COUNTOF(aDialogCreate),&cbTankSetup,
     44          		//												hCurrentWin, 0, 0);
     45          		WinHandl = GUI_CreateDialogBox(aDialogCreate, GUI_COUNTOF(aDialogCreate),&cbTankSetup,hCurrentWin, 0, 0);
   \   00000020   88209FE5           LDR      R2,??ExecDialogBox_2  ;; ??cbTankSetup
   \   00000024   0000A0E3           MOV      R0,#+0
   \   00000028   01002DE9           PUSH     {R0}
   \   0000002C   01002DE9           PUSH     {R0}
   \   00000030   7C009FE5           LDR      R0,??ExecDialogBox_2+0x4  ;; ??aDialogCreate
   \   00000034   0130A0E1           MOV      R3,R1
   \   00000038   1210A0E3           MOV      R1,#+18
   \   0000003C   ........           _BLF     GUI_CreateDialogBox,??GUI_CreateDialogBox??rA
   \   00000040   BA02C4E1           STRH     R0,[R4, #+42]
     46          		DROPDOWN_SetAutoScroll( WM_GetDialogItem(WinHandl, GUI_ID_DROPDOWN1), 1 );
   \   00000044   8110A0E3           MOV      R1,#+129
   \   00000048   401F81E3           ORR      R1,R1,#0x100
   \   0000004C   ........           _BLF     WM_GetDialogItem,??WM_GetDialogItem??rA
   \   00000050   0110A0E3           MOV      R1,#+1
   \   00000054   ........           _BLF     DROPDOWN_SetAutoScroll,??DROPDOWN_SetAutoScroll??rA
     47          		DROPDOWN_SetAutoScroll( WM_GetDialogItem(WinHandl, GUI_ID_DROPDOWN2), 1 );
   \   00000058   FA02D4E1           LDRSH    R0,[R4, #+42]
   \   0000005C   8210A0E3           MOV      R1,#+130
   \   00000060   401F81E3           ORR      R1,R1,#0x100
   \   00000064   ........           _BLF     WM_GetDialogItem,??WM_GetDialogItem??rA
   \   00000068   0110A0E3           MOV      R1,#+1
   \   0000006C   ........           _BLF     DROPDOWN_SetAutoScroll,??DROPDOWN_SetAutoScroll??rA
     48          		DROPDOWN_SetAutoScroll( WM_GetDialogItem(WinHandl, GUI_ID_DROPDOWN3), 1 );
   \   00000070   FA02D4E1           LDRSH    R0,[R4, #+42]
   \   00000074   8310A0E3           MOV      R1,#+131
   \   00000078   401F81E3           ORR      R1,R1,#0x100
   \   0000007C   ........           _BLF     WM_GetDialogItem,??WM_GetDialogItem??rA
   \   00000080   0110A0E3           MOV      R1,#+1
   \   00000084   ........           _BLF     DROPDOWN_SetAutoScroll,??DROPDOWN_SetAutoScroll??rA
     49          		WM_EnableMemdev(WinHandl);
   \   00000088   FA02D4E1           LDRSH    R0,[R4, #+42]
   \   0000008C   ........           _BLF     WM_EnableMemdev,??WM_EnableMemdev??rA
     50          		GetDialogHandles();
   \   00000090   0400A0E1           MOV      R0,R4
   \   00000094   ........           BL       ??GetDialogHandles
   \   00000098   08D08DE2           ADD      SP,SP,#+8
   \   0000009C   010000EA           B        ??ExecDialogBox_3
     51          	} else {
     52          		WM_BringToTop(WinHandl);
   \                     ??ExecDialogBox_1:
   \   000000A0   FA02D4E1           LDRSH    R0,[R4, #+42]
   \   000000A4   ........           _BLF     WM_BringToTop,??WM_BringToTop??rA
     53          	}
     54          }
   \                     ??ExecDialogBox_3:
   \   000000A8   1040BDE8           POP      {R4,LR}
   \   000000AC   1EFF2FE1           BX       LR               ;; return
   \                     ??ExecDialogBox_2:
   \   000000B0   ........           DC32     ??cbTankSetup
   \   000000B4   ........           DC32     ??aDialogCreate
     55          
     56          /*********************************************************************
     57          *
     58          * Dialog procedure
     59          */

   \                                 In segment CODE, align 4, keep-with-next
     60          void TDUAppSetupVoidSpace::GetDialogHandles(void)
     61          {
   \                     ??GetDialogHandles:
   \   00000000   10402DE9           PUSH     {R4,LR}
   \   00000004   0040A0E1           MOV      R4,R0
     62          	/* Get window handles for all widgets */
     63          	hDropdCol2        = WM_GetDialogItem(WinHandl, GUI_ID_DROPDOWN1);
   \   00000008   FA02D4E1           LDRSH    R0,[R4, #+42]
   \   0000000C   8110A0E3           MOV      R1,#+129
   \   00000010   401F81E3           ORR      R1,R1,#0x100
   \   00000014   ........           _BLF     WM_GetDialogItem,??WM_GetDialogItem??rA
   \   00000018   B403C4E1           STRH     R0,[R4, #+52]
     64          	hDropdCol3        = WM_GetDialogItem(WinHandl, GUI_ID_DROPDOWN2);
   \   0000001C   FA02D4E1           LDRSH    R0,[R4, #+42]
   \   00000020   8210A0E3           MOV      R1,#+130
   \   00000024   401F81E3           ORR      R1,R1,#0x100
   \   00000028   ........           _BLF     WM_GetDialogItem,??WM_GetDialogItem??rA
   \   0000002C   B603C4E1           STRH     R0,[R4, #+54]
     65          	hDropdCol4        = WM_GetDialogItem(WinHandl, GUI_ID_DROPDOWN3);
   \   00000030   FA02D4E1           LDRSH    R0,[R4, #+42]
   \   00000034   8310A0E3           MOV      R1,#+131
   \   00000038   401F81E3           ORR      R1,R1,#0x100
   \   0000003C   ........           _BLF     WM_GetDialogItem,??WM_GetDialogItem??rA
   \   00000040   B803C4E1           STRH     R0,[R4, #+56]
     66          	hTextUnitCol2     = WM_GetDialogItem(WinHandl, GUI_ID_TEXT2);
   \   00000044   FA02D4E1           LDRSH    R0,[R4, #+42]
   \   00000048   6210A0E3           MOV      R1,#+98
   \   0000004C   401F81E3           ORR      R1,R1,#0x100
   \   00000050   ........           _BLF     WM_GetDialogItem,??WM_GetDialogItem??rA
   \   00000054   BA03C4E1           STRH     R0,[R4, #+58]
     67          	hTextUnitCol3     = WM_GetDialogItem(WinHandl, GUI_ID_TEXT3);
   \   00000058   FA02D4E1           LDRSH    R0,[R4, #+42]
   \   0000005C   6310A0E3           MOV      R1,#+99
   \   00000060   401F81E3           ORR      R1,R1,#0x100
   \   00000064   ........           _BLF     WM_GetDialogItem,??WM_GetDialogItem??rA
   \   00000068   BC03C4E1           STRH     R0,[R4, #+60]
     68          	hTextUnitCol4     = WM_GetDialogItem(WinHandl, GUI_ID_TEXT4);
   \   0000006C   FA02D4E1           LDRSH    R0,[R4, #+42]
   \   00000070   591FA0E3           MOV      R1,#+356
   \   00000074   ........           _BLF     WM_GetDialogItem,??WM_GetDialogItem??rA
   \   00000078   BE03C4E1           STRH     R0,[R4, #+62]
     69          	hTextTotalVol       = WM_GetDialogItem(WinHandl, GUI_ID_TEXT5);
   \   0000007C   FA02D4E1           LDRSH    R0,[R4, #+42]
   \   00000080   6510A0E3           MOV      R1,#+101
   \   00000084   401F81E3           ORR      R1,R1,#0x100
   \   00000088   ........           _BLF     WM_GetDialogItem,??WM_GetDialogItem??rA
   \   0000008C   B004C4E1           STRH     R0,[R4, #+64]
     70          	hTextTotalVolUnit = WM_GetDialogItem(WinHandl, GUI_ID_TEXT6);
   \   00000090   FA02D4E1           LDRSH    R0,[R4, #+42]
   \   00000094   6610A0E3           MOV      R1,#+102
   \   00000098   401F81E3           ORR      R1,R1,#0x100
   \   0000009C   ........           _BLF     WM_GetDialogItem,??WM_GetDialogItem??rA
   \   000000A0   B204C4E1           STRH     R0,[R4, #+66]
     71          	hTextTotalWgt       = WM_GetDialogItem(WinHandl, GUI_ID_TEXT7);
   \   000000A4   FA02D4E1           LDRSH    R0,[R4, #+42]
   \   000000A8   6710A0E3           MOV      R1,#+103
   \   000000AC   401F81E3           ORR      R1,R1,#0x100
   \   000000B0   ........           _BLF     WM_GetDialogItem,??WM_GetDialogItem??rA
   \   000000B4   B404C4E1           STRH     R0,[R4, #+68]
     72          	hTextTotalWgtUnit = WM_GetDialogItem(WinHandl, GUI_ID_TEXT8);
   \   000000B8   FA02D4E1           LDRSH    R0,[R4, #+42]
   \   000000BC   5A1FA0E3           MOV      R1,#+360
   \   000000C0   ........           _BLF     WM_GetDialogItem,??WM_GetDialogItem??rA
   \   000000C4   B604C4E1           STRH     R0,[R4, #+70]
     73          	hTextDensUnit5    = WM_GetDialogItem(WinHandl, GUI_ID_TEXT9);
   \   000000C8   FA02D4E1           LDRSH    R0,[R4, #+42]
   \   000000CC   6910A0E3           MOV      R1,#+105
   \   000000D0   401F81E3           ORR      R1,R1,#0x100
   \   000000D4   ........           _BLF     WM_GetDialogItem,??WM_GetDialogItem??rA
   \   000000D8   B804C4E1           STRH     R0,[R4, #+72]
     74          	hEditBallastDens1 = WM_GetDialogItem(WinHandl, GUI_ID_EDIT1);
   \   000000DC   FA02D4E1           LDRSH    R0,[R4, #+42]
   \   000000E0   0110A0E3           MOV      R1,#+1
   \   000000E4   401F81E3           ORR      R1,R1,#0x100
   \   000000E8   ........           _BLF     WM_GetDialogItem,??WM_GetDialogItem??rA
   \   000000EC   BA04C4E1           STRH     R0,[R4, #+74]
     75          	hButZeroTP        = WM_GetDialogItem(WinHandl, GUI_ID_BUTTON0);
   \   000000F0   FA02D4E1           LDRSH    R0,[R4, #+42]
   \   000000F4   5C1FA0E3           MOV      R1,#+368
   \   000000F8   ........           _BLF     WM_GetDialogItem,??WM_GetDialogItem??rA
   \   000000FC   B405C4E1           STRH     R0,[R4, #+84]
     76          	hButZeroLevel     = WM_GetDialogItem(WinHandl, GUI_ID_BUTTON1);
   \   00000100   FA02D4E1           LDRSH    R0,[R4, #+42]
   \   00000104   7110A0E3           MOV      R1,#+113
   \   00000108   401F81E3           ORR      R1,R1,#0x100
   \   0000010C   ........           _BLF     WM_GetDialogItem,??WM_GetDialogItem??rA
   \   00000110   B605C4E1           STRH     R0,[R4, #+86]
     77          	InitDialog();
   \   00000114   0400A0E1           MOV      R0,R4
   \   00000118   ........           BL       ??InitDialog
     78          }
   \   0000011C   1040BDE8           POP      {R4,LR}
   \   00000120   1EFF2FE1           BX       LR               ;; return
     79          

   \                                 In segment CODE, align 4, keep-with-next
     80          void TDUAppSetupVoidSpace::InitDialog(void)
     81          {
   \                     ??InitDialog:
   \   00000000   F0432DE9           PUSH     {R4-R9,LR}
   \   00000004   CCD04DE2           SUB      SP,SP,#+204
   \   00000008   0040A0E1           MOV      R4,R0
   \   0000000C   020000EA           B        ??InitDialog_1
     82          	/* Initialize all widgets */
     83          	while ( DROPDOWN_GetNumItems(hDropdCol2)>0 ) {
     84          		DROPDOWN_DeleteItem(hDropdCol2, 0);
   \                     ??InitDialog_2:
   \   00000010   F403D4E1           LDRSH    R0,[R4, #+52]
   \   00000014   0010A0E3           MOV      R1,#+0
   \   00000018   ........           _BLF     DROPDOWN_DeleteItem,??DROPDOWN_DeleteItem??rA
     85          	}
   \                     ??InitDialog_1:
   \   0000001C   F403D4E1           LDRSH    R0,[R4, #+52]
   \   00000020   ........           _BLF     DROPDOWN_GetNumItems,??DROPDOWN_GetNumItems??rA
   \   00000024   010050E3           CMP      R0,#+1
   \   00000028   F8FFFFAA           BGE      ??InitDialog_2
     86          	while ( DROPDOWN_GetNumItems(hDropdCol3)>0 ) {
   \                     ??InitDialog_3:
   \   0000002C   F603D4E1           LDRSH    R0,[R4, #+54]
   \   00000030   ........           _BLF     DROPDOWN_GetNumItems,??DROPDOWN_GetNumItems??rA
   \   00000034   010050E3           CMP      R0,#+1
   \   00000038   060000BA           BLT      ??InitDialog_4
     87          		DROPDOWN_DeleteItem(hDropdCol3, 0);
   \   0000003C   F603D4E1           LDRSH    R0,[R4, #+54]
   \   00000040   0010A0E3           MOV      R1,#+0
   \   00000044   ........           _BLF     DROPDOWN_DeleteItem,??DROPDOWN_DeleteItem??rA
   \   00000048   F7FFFFEA           B        ??InitDialog_3
     88          	}
     89          	while ( DROPDOWN_GetNumItems(hDropdCol4)>0 ) {
     90          		DROPDOWN_DeleteItem(hDropdCol4, 0);
   \                     ??InitDialog_5:
   \   0000004C   F803D4E1           LDRSH    R0,[R4, #+56]
   \   00000050   0010A0E3           MOV      R1,#+0
   \   00000054   ........           _BLF     DROPDOWN_DeleteItem,??DROPDOWN_DeleteItem??rA
     91          	}
   \                     ??InitDialog_4:
   \   00000058   F803D4E1           LDRSH    R0,[R4, #+56]
   \   0000005C   ........           _BLF     DROPDOWN_GetNumItems,??DROPDOWN_GetNumItems??rA
   \   00000060   010050E3           CMP      R0,#+1
   \   00000064   F8FFFFAA           BGE      ??InitDialog_5
     92          	int ind1 = 0;
     93          	int ind2 = 0;
     94          	int ind3 = 0;
     95          	for ( int i = 0; i < ValTabEntries; i++ ) {
   \   00000068   580094E5           LDR      R0,[R4, #+88]
   \   0000006C   0050A0E3           MOV      R5,#+0
   \   00000070   0060A0E3           MOV      R6,#+0
   \   00000074   0570A0E1           MOV      R7,R5
   \   00000078   0580A0E1           MOV      R8,R5
   \   0000007C   010050E3           CMP      R0,#+1
   \   00000080   2D0000AA           BGE      ??InitDialog_6
     96          		DROPDOWN_AddString(hDropdCol2,  FindDictionaryWord(ValTabPtr[i].Name).c_str());
     97          		DROPDOWN_AddString(hDropdCol3,  FindDictionaryWord(ValTabPtr[i].Name).c_str());
     98          		DROPDOWN_AddString(hDropdCol4,  FindDictionaryWord(ValTabPtr[i].Name).c_str());
     99          		if ( ValTabPtr[i].Value==VoidSpaceWindow->ValueTable[2].ValueId )ind1=i;
    100          		if ( ValTabPtr[i].Value==VoidSpaceWindow->ValueTable[3].ValueId )ind2=i;
    101          		if ( ValTabPtr[i].Value==VoidSpaceWindow->ValueTable[4].ValueId )ind3=i;
    102          	}
    103          	DROPDOWN_SetSel(hDropdCol2,ind1);
   \                     ??InitDialog_7:
   \   00000084   F403D4E1           LDRSH    R0,[R4, #+52]
   \   00000088   0510A0E1           MOV      R1,R5
   \   0000008C   ........           _BLF     DROPDOWN_SetSel,??DROPDOWN_SetSel??rA
    104          	DROPDOWN_SetSel(hDropdCol3,ind2);
   \   00000090   F603D4E1           LDRSH    R0,[R4, #+54]
   \   00000094   0610A0E1           MOV      R1,R6
   \   00000098   ........           _BLF     DROPDOWN_SetSel,??DROPDOWN_SetSel??rA
    105          	DROPDOWN_SetSel(hDropdCol4,ind3);
   \   0000009C   F803D4E1           LDRSH    R0,[R4, #+56]
   \   000000A0   0710A0E1           MOV      R1,R7
   \   000000A4   ........           _BLF     DROPDOWN_SetSel,??DROPDOWN_SetSel??rA
    106          	{
    107          		const GUIKey Words[] ={
    108          			{TDU_APPBALLAST_WIN ,0,L_WORD69},
    109          			{GUI_ID_TEXT10      ,0,L_WORD70},
    110          			{GUI_ID_TEXT11      ,0,L_WORD71},
    111          			{GUI_ID_TEXT12      ,0,L_WORD72},
    112          			{GUI_ID_TEXT13      ,0,L_WORD73},
    113          			{GUI_ID_TEXT14      ,0,L_WORD74},
    114          			{GUI_ID_BUTTON0     ,0,L_WORD643},
    115          			{GUI_ID_BUTTON1     ,0,L_WORD644},
    116          			{GUI_ID_CLOSE       ,0,L_WORD18},
    117          			{GUI_ID_TEXT15      ,0,L_WORD77},
    118          		};
   \   000000A8   34119FE5           LDR      R1,??InitDialog_8  ;; `?<Constant {{2197, 0, 69}, {2558, 0, 70}, {255`
   \   000000AC   54008DE2           ADD      R0,SP,#+84
   \   000000B0   7830A0E3           MOV      R3,#+120
   \                     ??InitDialog_9:
   \   000000B4   043053E2           SUBS     R3,R3,#+4
   \   000000B8   032091E7           LDR      R2,[R1, R3]
   \   000000BC   032080E7           STR      R2,[R0, R3]
   \   000000C0   FBFFFF1A           BNE      ??InitDialog_9
    119          		AddToSKeyList((GUIKey*)Words,NELEMENTS(Words));
   \   000000C4   0130A0E3           MOV      R3,#+1
   \   000000C8   0A20A0E3           MOV      R2,#+10
   \   000000CC   54108DE2           ADD      R1,SP,#+84
   \   000000D0   0400A0E1           MOV      R0,R4
   \   000000D4   ........           _BLF     ??AddToSKeyList,??AddToSKeyList??rA
    120          
    121          	}
    122          
    123          }
   \   000000D8   CCD08DE2           ADD      SP,SP,#+204
   \   000000DC   F043BDE8           POP      {R4-R9,LR}
   \   000000E0   1EFF2FE1           BX       LR               ;; return
   \                     ??InitDialog_10:
   \   000000E4   F803D4E1           LDRSH    R0,[R4, #+56]
   \   000000E8   ........           _BLF     DROPDOWN_AddString,??DROPDOWN_AddString??rA
   \   000000EC   0020A0E3           MOV      R2,#+0
   \   000000F0   0110A0E3           MOV      R1,#+1
   \   000000F4   0D00A0E1           MOV      R0,SP
   \   000000F8   ........           _BLF     ??_Tidy,??_Tidy??rA
   \   000000FC   ........           LDR      R0,??DataTable3  ;; VoidSpaceWindow
   \   00000100   5C1094E5           LDR      R1,[R4, #+92]
   \   00000104   000090E5           LDR      R0,[R0, #+0]
   \   00000108   011089E0           ADD      R1,R9,R1
   \   0000010C   7C0090E5           LDR      R0,[R0, #+124]
   \   00000110   082091E5           LDR      R2,[R1, #+8]
   \   00000114   183090E5           LDR      R3,[R0, #+24]
   \   00000118   030052E1           CMP      R2,R3
   \   0000011C   243090E5           LDR      R3,[R0, #+36]
   \   00000120   300090E5           LDR      R0,[R0, #+48]
   \   00000124   0850A001           MOVEQ    R5,R8
   \   00000128   030052E1           CMP      R2,R3
   \   0000012C   0860A001           MOVEQ    R6,R8
   \   00000130   000052E1           CMP      R2,R0
   \   00000134   0870A001           MOVEQ    R7,R8
   \   00000138   018088E2           ADD      R8,R8,#+1
   \                     ??InitDialog_6:
   \   0000013C   580094E5           LDR      R0,[R4, #+88]
   \   00000140   000058E1           CMP      R8,R0
   \   00000144   CEFFFFAA           BGE      ??InitDialog_7
   \   00000148   0C00A0E3           MOV      R0,#+12
   \   0000014C   900809E0           MUL      R9,R0,R8
   \   00000150   5C0094E5           LDR      R0,[R4, #+92]
   \   00000154   001099E7           LDR      R1,[R9, +R0]
   \   00000158   1C008DE2           ADD      R0,SP,#+28
   \   0000015C   ........           _BLF     ??FindDictionaryWord,??FindDictionaryWord??rA
   \   00000160   34009DE5           LDR      R0,[SP, #+52]
   \   00000164   100050E3           CMP      R0,#+16
   \   00000168   F403D4E1           LDRSH    R0,[R4, #+52]
   \   0000016C   20109D25           LDRCS    R1,[SP, #+32]
   \   00000170   20108D32           ADDCC    R1,SP,#+32
   \   00000174   ........           _BLF     DROPDOWN_AddString,??DROPDOWN_AddString??rA
   \   00000178   0020A0E3           MOV      R2,#+0
   \   0000017C   0110A0E3           MOV      R1,#+1
   \   00000180   1C008DE2           ADD      R0,SP,#+28
   \   00000184   ........           _BLF     ??_Tidy,??_Tidy??rA
   \   00000188   5C0094E5           LDR      R0,[R4, #+92]
   \   0000018C   001099E7           LDR      R1,[R9, +R0]
   \   00000190   38008DE2           ADD      R0,SP,#+56
   \   00000194   ........           _BLF     ??FindDictionaryWord,??FindDictionaryWord??rA
   \   00000198   50009DE5           LDR      R0,[SP, #+80]
   \   0000019C   100050E3           CMP      R0,#+16
   \   000001A0   F603D4E1           LDRSH    R0,[R4, #+54]
   \   000001A4   3C109D25           LDRCS    R1,[SP, #+60]
   \   000001A8   3C108D32           ADDCC    R1,SP,#+60
   \   000001AC   ........           _BLF     DROPDOWN_AddString,??DROPDOWN_AddString??rA
   \   000001B0   0020A0E3           MOV      R2,#+0
   \   000001B4   0110A0E3           MOV      R1,#+1
   \   000001B8   38008DE2           ADD      R0,SP,#+56
   \   000001BC   ........           _BLF     ??_Tidy,??_Tidy??rA
   \   000001C0   5C0094E5           LDR      R0,[R4, #+92]
   \   000001C4   001099E7           LDR      R1,[R9, +R0]
   \   000001C8   0D00A0E1           MOV      R0,SP
   \   000001CC   ........           _BLF     ??FindDictionaryWord,??FindDictionaryWord??rA
   \   000001D0   18009DE5           LDR      R0,[SP, #+24]
   \   000001D4   100050E3           CMP      R0,#+16
   \   000001D8   04109D25           LDRCS    R1,[SP, #+4]
   \   000001DC   04108D32           ADDCC    R1,SP,#+4
   \   000001E0   BFFFFFEA           B        ??InitDialog_10
   \                     ??InitDialog_8:
   \   000001E4   ........           DC32     `?<Constant {{2197, 0, 69}, {2558, 0, 70}, {255`
    124          

   \                                 In segment CODE, align 4, keep-with-next
    125          void TDUAppSetupVoidSpace::UpdateDialog(WM_HWIN hWin,int Key)
    126          {
   \                     ??UpdateDialog:
   \   00000000   F0402DE9           PUSH     {R4-R7,LR}
   \   00000004   54D04DE2           SUB      SP,SP,#+84
   \   00000008   0040A0E1           MOV      R4,R0
   \   0000000C   0100A0E1           MOV      R0,R1
   \   00000010   0250A0E1           MOV      R5,R2
    127          	WM_HWIN hDropd0 = WM_GetDialogItem(hWin, Key);
   \   00000014   0510A0E1           MOV      R1,R5
   \   00000018   ........           _BLF     WM_GetDialogItem,??WM_GetDialogItem??rA
   \   0000001C   0070A0E1           MOV      R7,R0
    128          	AnsiString str, unitstr;
   \   00000020   38008DE2           ADD      R0,SP,#+56
   \   00000024   ........           _BLF     ??AnsiString,??AnsiString??rA
   \   00000028   0D00A0E1           MOV      R0,SP
   \   0000002C   ........           _BLF     ??AnsiString,??AnsiString??rA
    129          	int col;
    130          	switch ( Key ) {
   \   00000030   810045E2           SUB      R0,R5,#+129
   \   00000034   400F40E2           SUB      R0,R0,#+256
   \   00000038   020050E3           CMP      R0,#+2
   \   0000003C   0800008A           BHI      ??UpdateDialog_3
   \   00000040   011F8FE2           ADR      R1,??UpdateDialog_1
   \   00000044   0010D1E7           LDRB     R1,[R1, R0]
   \   00000048   01F18FE0           ADD      PC,PC,R1, LSL #+2
   \                     ??UpdateDialog_1:
   \   0000004C   00020400           DC8      +0,+2,+4,+0
    131          		case GUI_ID_DROPDOWN1:
    132          			col = 2;
   \                     ??UpdateDialog_4:
   \   00000050   0260A0E3           MOV      R6,#+2
   \   00000054   020000EA           B        ??UpdateDialog_3
    133          			break;
    134          		case GUI_ID_DROPDOWN2:
    135          			col = 3;
   \                     ??UpdateDialog_5:
   \   00000058   0360A0E3           MOV      R6,#+3
   \   0000005C   000000EA           B        ??UpdateDialog_3
    136          			break;
    137          		case GUI_ID_DROPDOWN3:
    138          			col = 4;
   \                     ??UpdateDialog_6:
   \   00000060   0460A0E3           MOV      R6,#+4
    139          			break;
    140          	}
    141          	VoidSpaceWindow->ValueTable[col].ValueId = ValTabPtr[DROPDOWN_GetSel(hDropd0)].Value;
   \                     ??UpdateDialog_3:
   \   00000064   0700A0E1           MOV      R0,R7
   \   00000068   ........           LDR      R7,??DataTable3  ;; VoidSpaceWindow
   \   0000006C   ........           _BLF     DROPDOWN_GetSel,??DROPDOWN_GetSel??rA
   \   00000070   001097E5           LDR      R1,[R7, #+0]
   \   00000074   5C3094E5           LDR      R3,[R4, #+92]
   \   00000078   7C1091E5           LDR      R1,[R1, #+124]
   \   0000007C   0C20A0E3           MOV      R2,#+12
   \   00000080   923020E0           MLA      R0,R2,R0,R3
   \   00000084   080090E5           LDR      R0,[R0, #+8]
   \   00000088   921621E0           MLA      R1,R2,R6,R1
   \   0000008C   000081E5           STR      R0,[R1, #+0]
    142          	str = LibGetValue(VoidSpaceWindow->ValueTable[col].ValueId,PROVoidSpace::AllObjVector[0],&unitstr);
   \   00000090   0000A0E3           MOV      R0,#+0
   \   00000094   01002DE9           PUSH     {R0}
   \   00000098   EC009FE5           LDR      R0,??UpdateDialog_7  ;; ??AllObjVector
   \   0000009C   001091E5           LDR      R1,[R1, #+0]
   \   000000A0   000090E5           LDR      R0,[R0, #+0]
   \   000000A4   04308DE2           ADD      R3,SP,#+4
   \   000000A8   002090E5           LDR      R2,[R0, #+0]
   \   000000AC   20008DE2           ADD      R0,SP,#+32
   \   000000B0   ........           _BLF     ??LibGetValue,??LibGetValue??rA
   \   000000B4   ........           LDR      R0,??DataTable9  ;; ??npos
   \   000000B8   0020A0E3           MOV      R2,#+0
   \   000000BC   003090E5           LDR      R3,[R0, #+0]
   \   000000C0   20108DE2           ADD      R1,SP,#+32
   \   000000C4   3C008DE2           ADD      R0,SP,#+60
   \   000000C8   ........           _BLF     ??assign,??assign??rA
   \   000000CC   0020A0E3           MOV      R2,#+0
   \   000000D0   0110A0E3           MOV      R1,#+1
   \   000000D4   20008DE2           ADD      R0,SP,#+32
   \   000000D8   ........           _BLF     ??_Tidy,??_Tidy??rA
    143          	VoidSpaceWindow->PaintnewHeading();
   \   000000DC   000097E5           LDR      R0,[R7, #+0]
    144          	switch ( Key ) {
   \   000000E0   815045E2           SUB      R5,R5,#+129
   \   000000E4   ........           _BLF     ??PaintnewHeading,??PaintnewHeading??rA
   \   000000E8   04D08DE2           ADD      SP,SP,#+4
   \   000000EC   405F45E2           SUB      R5,R5,#+256
   \   000000F0   020055E3           CMP      R5,#+2
   \   000000F4   1300008A           BHI      ??UpdateDialog_8
   \   000000F8   010F8FE2           ADR      R0,??UpdateDialog_2
   \   000000FC   0500D0E7           LDRB     R0,[R0, R5]
   \   00000100   00F18FE0           ADD      PC,PC,R0, LSL #+2
   \                     ??UpdateDialog_2:
   \   00000104   00050A00           DC8      +0,+5,+10,+0
    145          		case GUI_ID_DROPDOWN1:
    146          			TEXT_SetText(hTextUnitCol2, unitstr.c_str());
   \                     ??UpdateDialog_9:
   \   00000108   18009DE5           LDR      R0,[SP, #+24]
   \   0000010C   100050E3           CMP      R0,#+16
   \   00000110   04109D25           LDRCS    R1,[SP, #+4]
   \   00000114   FA03D4E1           LDRSH    R0,[R4, #+58]
   \   00000118   080000EA           B        ??UpdateDialog_10
    147          			break;
    148          		case GUI_ID_DROPDOWN2:
    149          			TEXT_SetText(hTextUnitCol3, unitstr.c_str());
   \                     ??UpdateDialog_11:
   \   0000011C   18009DE5           LDR      R0,[SP, #+24]
   \   00000120   100050E3           CMP      R0,#+16
   \   00000124   04109D25           LDRCS    R1,[SP, #+4]
   \   00000128   FC03D4E1           LDRSH    R0,[R4, #+60]
   \   0000012C   030000EA           B        ??UpdateDialog_10
    150          			break;
    151          		case GUI_ID_DROPDOWN3:
    152          			TEXT_SetText(hTextUnitCol4, unitstr.c_str());
   \                     ??UpdateDialog_12:
   \   00000130   18009DE5           LDR      R0,[SP, #+24]
   \   00000134   100050E3           CMP      R0,#+16
   \   00000138   04109D25           LDRCS    R1,[SP, #+4]
   \   0000013C   FE03D4E1           LDRSH    R0,[R4, #+62]
   \                     ??UpdateDialog_10:
   \   00000140   04108D32           ADDCC    R1,SP,#+4
   \   00000144   ........           _BLF     TEXT_SetText,??TEXT_SetText??rA
    153          			break;
    154          	}
    155          
    156          	SystemWindow->IsModified = true;
   \                     ??UpdateDialog_8:
   \   00000148   40009FE5           LDR      R0,??UpdateDialog_7+0x4  ;; SystemWindow
   \   0000014C   0110A0E3           MOV      R1,#+1
   \   00000150   000090E5           LDR      R0,[R0, #+0]
   \   00000154   7510C0E5           STRB     R1,[R0, #+117]
    157          	SignalSaveSettings(FLASH_SAVE_SETTINGS);
   \   00000158   0100A0E3           MOV      R0,#+1
   \   0000015C   ........           _BLF     ??SignalSaveSettings,??SignalSaveSettings??rA
    158          }
   \   00000160   0020A0E3           MOV      R2,#+0
   \   00000164   0110A0E3           MOV      R1,#+1
   \   00000168   0D00A0E1           MOV      R0,SP
   \   0000016C   ........           _BLF     ??_Tidy,??_Tidy??rA
   \   00000170   0020A0E3           MOV      R2,#+0
   \   00000174   0110A0E3           MOV      R1,#+1
   \   00000178   38008DE2           ADD      R0,SP,#+56
   \   0000017C   ........           _BLF     ??_Tidy,??_Tidy??rA
   \   00000180   54D08DE2           ADD      SP,SP,#+84
   \   00000184   F040BDE8           POP      {R4-R7,LR}
   \   00000188   1EFF2FE1           BX       LR               ;; return
   \                     ??UpdateDialog_7:
   \   0000018C   ........           DC32     ??AllObjVector
   \   00000190   ........           DC32     SystemWindow
    159          

   \                                 In segment CODE, align 4, keep-with-next
    160          void TDUAppSetupVoidSpace::Update(void)
    161          {
   \                     ??Update:
   \   00000000   10402DE9           PUSH     {R4,LR}
   \   00000004   38D04DE2           SUB      SP,SP,#+56
   \   00000008   0040A0E1           MOV      R4,R0
    162          	AnsiString UnitStr;
   \   0000000C   0D00A0E1           MOV      R0,SP
   \   00000010   ........           _BLF     ??AnsiString,??AnsiString??rA
    163          	AnsiString DensityStr = LibGetValue(SVT_BALLAST_DNS,PROSystemData::TXUSystemData, &UnitStr);
   \   00000014   0000A0E3           MOV      R0,#+0
   \   00000018   01002DE9           PUSH     {R0}
   \   0000001C   ........           LDR      R0,??DataTable7  ;; ??TXUSystemData
   \   00000020   04308DE2           ADD      R3,SP,#+4
   \   00000024   002090E5           LDR      R2,[R0, #+0]
   \   00000028   A210A0E3           MOV      R1,#+162
   \   0000002C   501E81E3           ORR      R1,R1,#0x500
   \   00000030   20008DE2           ADD      R0,SP,#+32
   \   00000034   ........           _BLF     ??LibGetValue,??LibGetValue??rA
    164          	TEXT_SetText(hTextDensUnit5, UnitStr.c_str());
   \   00000038   1C009DE5           LDR      R0,[SP, #+28]
   \   0000003C   04D08DE2           ADD      SP,SP,#+4
   \   00000040   100050E3           CMP      R0,#+16
   \   00000044   F804D4E1           LDRSH    R0,[R4, #+72]
   \   00000048   04109D25           LDRCS    R1,[SP, #+4]
   \   0000004C   04108D32           ADDCC    R1,SP,#+4
   \   00000050   ........           _BLF     TEXT_SetText,??TEXT_SetText??rA
    165          	EDIT_SetText(hEditBallastDens1,DensityStr.c_str());
   \   00000054   34009DE5           LDR      R0,[SP, #+52]
   \   00000058   100050E3           CMP      R0,#+16
   \   0000005C   FA04D4E1           LDRSH    R0,[R4, #+74]
   \   00000060   20109D25           LDRCS    R1,[SP, #+32]
   \   00000064   20108D32           ADDCC    R1,SP,#+32
   \   00000068   ........           _BLF     EDIT_SetText,??EDIT_SetText??rA
    166          }
   \   0000006C   0020A0E3           MOV      R2,#+0
   \   00000070   0110A0E3           MOV      R1,#+1
   \   00000074   1C008DE2           ADD      R0,SP,#+28
   \   00000078   ........           _BLF     ??_Tidy,??_Tidy??rA
   \   0000007C   0020A0E3           MOV      R2,#+0
   \   00000080   0110A0E3           MOV      R1,#+1
   \   00000084   0D00A0E1           MOV      R0,SP
   \   00000088   ........           _BLF     ??_Tidy,??_Tidy??rA
   \   0000008C   38D08DE2           ADD      SP,SP,#+56
   \   00000090   1040BDE8           POP      {R4,LR}
   \   00000094   1EFF2FE1           BX       LR               ;; return
    167          
    168          

   \                                 In segment CODE, align 4, keep-with-next
    169          void TDUAppSetupVoidSpace::cbTankSetup(WM_MESSAGE *pMsg)
    170          {
   \                     ??cbTankSetup:
   \   00000000   F0432DE9           PUSH     {R4-R9,LR}
    171          	int NCode, Id;
    172          	WM_HWIN hWin = pMsg->hWin;
    173          	switch ( pMsg->MsgId ) {
   \   00000004   289C9FE5           LDR      R9,??cbTankSetup_4  ;; AppSetupVoidSpace
   \   00000008   D8D04DE2           SUB      SP,SP,#+216
   \   0000000C   244C9FE5           LDR      R4,??cbTankSetup_4+0x4  ;; KeyBoard
   \   00000010   0080A0E1           MOV      R8,R0
   \   00000014   001098E5           LDR      R1,[R8, #+0]
   \   00000018   F450D8E1           LDRSH    R5,[R8, #+4]
   \   0000001C   F660D8E1           LDRSH    R6,[R8, #+6]
   \   00000020   000099E5           LDR      R0,[R9, #+0]
   \   00000024   0170A0E3           MOV      R7,#+1
   \   00000028   0D1041E2           SUB      R1,R1,#+13
   \   0000002C   0720A0E3           MOV      R2,#+7
   \   00000030   402E82E3           ORR      R2,R2,#0x400
   \   00000034   020051E1           CMP      R1,R2
   \   00000038   FA02008A           BHI      ??cbTankSetup_5
   \   0000003C   022F8FE2           ADR      R2,??cbTankSetup_1
   \   00000040   8110A0E1           MOV      R1,R1, LSL #+1
   \   00000044   B12092E1           LDRH     R2,[R2, R1]
   \   00000048   02F18FE0           ADD      PC,PC,R2, LSL #+2
   \                     ??cbTankSetup_1:
   \   0000004C   5F02F6020502       DC16     +607,+758,+517,+758
   \              F602        
   \   00000054   F602F602F602       DC16     +758,+758,+758,+758
   \              F602        
   \   0000005C   F602F602F602       DC16     +758,+758,+758,+758
   \              F602        
   \   00000064   F602F602F602       DC16     +758,+758,+758,+758
   \              F602        
   \   0000006C   0302F602F602       DC16     +515,+758,+758,+758
   \              F602        
   \   00000074   F602F602F602       DC16     +758,+758,+758,+758
   \              F602        
   \   0000007C   F602BB02F602       DC16     +758,+699,+758,+758
   \              F602        
   \   00000084   F602F602F602       DC16     +758,+758,+758,+758
   \              F602        
   \   0000008C   F602F602F602       DC16     +758,+758,+758,+758
   \              F602        
   \   00000094   F602F602F602       DC16     +758,+758,+758,+758
   \              F602        
   \   0000009C   F602F602F602       DC16     +758,+758,+758,+758
   \              F602        
   \   000000A4   F602F602F602       DC16     +758,+758,+758,+758
   \              F602        
   \   000000AC   F602F602F602       DC16     +758,+758,+758,+758
   \              F602        
   \   000000B4   F602F602F602       DC16     +758,+758,+758,+758
   \              F602        
   \   000000BC   F602F602F602       DC16     +758,+758,+758,+758
   \              F602        
   \   000000C4   F602F602F602       DC16     +758,+758,+758,+758
   \              F602        
   \   000000CC   F602F602F602       DC16     +758,+758,+758,+758
   \              F602        
   \   000000D4   F602F602F602       DC16     +758,+758,+758,+758
   \              F602        
   \   000000DC   F602F602F602       DC16     +758,+758,+758,+758
   \              F602        
   \   000000E4   F602F602F602       DC16     +758,+758,+758,+758
   \              F602        
   \   000000EC   F602F602F602       DC16     +758,+758,+758,+758
   \              F602        
   \   000000F4   F602F602F602       DC16     +758,+758,+758,+758
   \              F602        
   \   000000FC   F602F602F602       DC16     +758,+758,+758,+758
   \              F602        
   \   00000104   F602F602F602       DC16     +758,+758,+758,+758
   \              F602        
   \   0000010C   F602F602F602       DC16     +758,+758,+758,+758
   \              F602        
   \   00000114   F602F602F602       DC16     +758,+758,+758,+758
   \              F602        
   \   0000011C   F602F602F602       DC16     +758,+758,+758,+758
   \              F602        
   \   00000124   F602F602F602       DC16     +758,+758,+758,+758
   \              F602        
   \   0000012C   F602F602F602       DC16     +758,+758,+758,+758
   \              F602        
   \   00000134   F602F602F602       DC16     +758,+758,+758,+758
   \              F602        
   \   0000013C   F602F602F602       DC16     +758,+758,+758,+758
   \              F602        
   \   00000144   F602F602F602       DC16     +758,+758,+758,+758
   \              F602        
   \   0000014C   F602F602F602       DC16     +758,+758,+758,+758
   \              F602        
   \   00000154   F602F602F602       DC16     +758,+758,+758,+758
   \              F602        
   \   0000015C   F602F602F602       DC16     +758,+758,+758,+758
   \              F602        
   \   00000164   F602F602F602       DC16     +758,+758,+758,+758
   \              F602        
   \   0000016C   F602F602F602       DC16     +758,+758,+758,+758
   \              F602        
   \   00000174   F602F602F602       DC16     +758,+758,+758,+758
   \              F602        
   \   0000017C   F602F602F602       DC16     +758,+758,+758,+758
   \              F602        
   \   00000184   F602F602F602       DC16     +758,+758,+758,+758
   \              F602        
   \   0000018C   F602F602F602       DC16     +758,+758,+758,+758
   \              F602        
   \   00000194   F602F602F602       DC16     +758,+758,+758,+758
   \              F602        
   \   0000019C   F602F602F602       DC16     +758,+758,+758,+758
   \              F602        
   \   000001A4   F602F602F602       DC16     +758,+758,+758,+758
   \              F602        
   \   000001AC   F602F602F602       DC16     +758,+758,+758,+758
   \              F602        
   \   000001B4   F602F602F602       DC16     +758,+758,+758,+758
   \              F602        
   \   000001BC   F602F602F602       DC16     +758,+758,+758,+758
   \              F602        
   \   000001C4   F602F602F602       DC16     +758,+758,+758,+758
   \              F602        
   \   000001CC   F602F602F602       DC16     +758,+758,+758,+758
   \              F602        
   \   000001D4   F602F602F602       DC16     +758,+758,+758,+758
   \              F602        
   \   000001DC   F602F602F602       DC16     +758,+758,+758,+758
   \              F602        
   \   000001E4   F602F602F602       DC16     +758,+758,+758,+758
   \              F602        
   \   000001EC   F602F602F602       DC16     +758,+758,+758,+758
   \              F602        
   \   000001F4   F602F602F602       DC16     +758,+758,+758,+758
   \              F602        
   \   000001FC   F602F602F602       DC16     +758,+758,+758,+758
   \              F602        
   \   00000204   F602F602F602       DC16     +758,+758,+758,+758
   \              F602        
   \   0000020C   F602F602F602       DC16     +758,+758,+758,+758
   \              F602        
   \   00000214   F602F602F602       DC16     +758,+758,+758,+758
   \              F602        
   \   0000021C   F602F602F602       DC16     +758,+758,+758,+758
   \              F602        
   \   00000224   F602F602F602       DC16     +758,+758,+758,+758
   \              F602        
   \   0000022C   F602F602F602       DC16     +758,+758,+758,+758
   \              F602        
   \   00000234   F602F602F602       DC16     +758,+758,+758,+758
   \              F602        
   \   0000023C   F602F602F602       DC16     +758,+758,+758,+758
   \              F602        
   \   00000244   F602F602F602       DC16     +758,+758,+758,+758
   \              F602        
   \   0000024C   F602F602F602       DC16     +758,+758,+758,+758
   \              F602        
   \   00000254   F602F602F602       DC16     +758,+758,+758,+758
   \              F602        
   \   0000025C   F602F602F602       DC16     +758,+758,+758,+758
   \              F602        
   \   00000264   F602F602F602       DC16     +758,+758,+758,+758
   \              F602        
   \   0000026C   F602F602F602       DC16     +758,+758,+758,+758
   \              F602        
   \   00000274   F602F602F602       DC16     +758,+758,+758,+758
   \              F602        
   \   0000027C   F602F602F602       DC16     +758,+758,+758,+758
   \              F602        
   \   00000284   F602F602F602       DC16     +758,+758,+758,+758
   \              F602        
   \   0000028C   F602F602F602       DC16     +758,+758,+758,+758
   \              F602        
   \   00000294   F602F602F602       DC16     +758,+758,+758,+758
   \              F602        
   \   0000029C   F602F602F602       DC16     +758,+758,+758,+758
   \              F602        
   \   000002A4   F602F602F602       DC16     +758,+758,+758,+758
   \              F602        
   \   000002AC   F602F602F602       DC16     +758,+758,+758,+758
   \              F602        
   \   000002B4   F602F602F602       DC16     +758,+758,+758,+758
   \              F602        
   \   000002BC   F602F602F602       DC16     +758,+758,+758,+758
   \              F602        
   \   000002C4   F602F602F602       DC16     +758,+758,+758,+758
   \              F602        
   \   000002CC   F602F602F602       DC16     +758,+758,+758,+758
   \              F602        
   \   000002D4   F602F602F602       DC16     +758,+758,+758,+758
   \              F602        
   \   000002DC   F602F602F602       DC16     +758,+758,+758,+758
   \              F602        
   \   000002E4   F602F602F602       DC16     +758,+758,+758,+758
   \              F602        
   \   000002EC   F602F602F602       DC16     +758,+758,+758,+758
   \              F602        
   \   000002F4   F602F602F602       DC16     +758,+758,+758,+758
   \              F602        
   \   000002FC   F602F602F602       DC16     +758,+758,+758,+758
   \              F602        
   \   00000304   F602F602F602       DC16     +758,+758,+758,+758
   \              F602        
   \   0000030C   F602F602F602       DC16     +758,+758,+758,+758
   \              F602        
   \   00000314   F602F602F602       DC16     +758,+758,+758,+758
   \              F602        
   \   0000031C   F602F602F602       DC16     +758,+758,+758,+758
   \              F602        
   \   00000324   F602F602F602       DC16     +758,+758,+758,+758
   \              F602        
   \   0000032C   F602F602F602       DC16     +758,+758,+758,+758
   \              F602        
   \   00000334   F602F602F602       DC16     +758,+758,+758,+758
   \              F602        
   \   0000033C   F602F602F602       DC16     +758,+758,+758,+758
   \              F602        
   \   00000344   F602F602F602       DC16     +758,+758,+758,+758
   \              F602        
   \   0000034C   F602F602F602       DC16     +758,+758,+758,+758
   \              F602        
   \   00000354   F602F602F602       DC16     +758,+758,+758,+758
   \              F602        
   \   0000035C   F602F602F602       DC16     +758,+758,+758,+758
   \              F602        
   \   00000364   F602F602F602       DC16     +758,+758,+758,+758
   \              F602        
   \   0000036C   F602F602F602       DC16     +758,+758,+758,+758
   \              F602        
   \   00000374   F602F602F602       DC16     +758,+758,+758,+758
   \              F602        
   \   0000037C   F602F602F602       DC16     +758,+758,+758,+758
   \              F602        
   \   00000384   F602F602F602       DC16     +758,+758,+758,+758
   \              F602        
   \   0000038C   F602F602F602       DC16     +758,+758,+758,+758
   \              F602        
   \   00000394   F602F602F602       DC16     +758,+758,+758,+758
   \              F602        
   \   0000039C   F602F602F602       DC16     +758,+758,+758,+758
   \              F602        
   \   000003A4   F602F602F602       DC16     +758,+758,+758,+758
   \              F602        
   \   000003AC   F602F602F602       DC16     +758,+758,+758,+758
   \              F602        
   \   000003B4   F602F602F602       DC16     +758,+758,+758,+758
   \              F602        
   \   000003BC   F602F602F602       DC16     +758,+758,+758,+758
   \              F602        
   \   000003C4   F602F602F602       DC16     +758,+758,+758,+758
   \              F602        
   \   000003CC   F602F602F602       DC16     +758,+758,+758,+758
   \              F602        
   \   000003D4   F602F602F602       DC16     +758,+758,+758,+758
   \              F602        
   \   000003DC   F602F602F602       DC16     +758,+758,+758,+758
   \              F602        
   \   000003E4   F602F602F602       DC16     +758,+758,+758,+758
   \              F602        
   \   000003EC   F602F602F602       DC16     +758,+758,+758,+758
   \              F602        
   \   000003F4   F602F602F602       DC16     +758,+758,+758,+758
   \              F602        
   \   000003FC   F602F602F602       DC16     +758,+758,+758,+758
   \              F602        
   \   00000404   F602F602F602       DC16     +758,+758,+758,+758
   \              F602        
   \   0000040C   F602F602F602       DC16     +758,+758,+758,+758
   \              F602        
   \   00000414   F602F602F602       DC16     +758,+758,+758,+758
   \              F602        
   \   0000041C   F602F602F602       DC16     +758,+758,+758,+758
   \              F602        
   \   00000424   F602F602F602       DC16     +758,+758,+758,+758
   \              F602        
   \   0000042C   F602F602F602       DC16     +758,+758,+758,+758
   \              F602        
   \   00000434   F602F602F602       DC16     +758,+758,+758,+758
   \              F602        
   \   0000043C   F602F602F602       DC16     +758,+758,+758,+758
   \              F602        
   \   00000444   F602F602F602       DC16     +758,+758,+758,+758
   \              F602        
   \   0000044C   F602F602F602       DC16     +758,+758,+758,+758
   \              F602        
   \   00000454   F602F602F602       DC16     +758,+758,+758,+758
   \              F602        
   \   0000045C   F602F602F602       DC16     +758,+758,+758,+758
   \              F602        
   \   00000464   F602F602F602       DC16     +758,+758,+758,+758
   \              F602        
   \   0000046C   F602F602F602       DC16     +758,+758,+758,+758
   \              F602        
   \   00000474   F602F602F602       DC16     +758,+758,+758,+758
   \              F602        
   \   0000047C   F602F602F602       DC16     +758,+758,+758,+758
   \              F602        
   \   00000484   F602F602F602       DC16     +758,+758,+758,+758
   \              F602        
   \   0000048C   F602F602F602       DC16     +758,+758,+758,+758
   \              F602        
   \   00000494   F602F602F602       DC16     +758,+758,+758,+758
   \              F602        
   \   0000049C   F602F602F602       DC16     +758,+758,+758,+758
   \              F602        
   \   000004A4   F602F602F602       DC16     +758,+758,+758,+758
   \              F602        
   \   000004AC   F602F602F602       DC16     +758,+758,+758,+758
   \              F602        
   \   000004B4   F602F602F602       DC16     +758,+758,+758,+758
   \              F602        
   \   000004BC   F602F602F602       DC16     +758,+758,+758,+758
   \              F602        
   \   000004C4   F602F602F602       DC16     +758,+758,+758,+758
   \              F602        
   \   000004CC   F602F602F602       DC16     +758,+758,+758,+758
   \              F602        
   \   000004D4   F602F602F602       DC16     +758,+758,+758,+758
   \              F602        
   \   000004DC   F602F602F602       DC16     +758,+758,+758,+758
   \              F602        
   \   000004E4   F602F602F602       DC16     +758,+758,+758,+758
   \              F602        
   \   000004EC   F602F602F602       DC16     +758,+758,+758,+758
   \              F602        
   \   000004F4   F602F602F602       DC16     +758,+758,+758,+758
   \              F602        
   \   000004FC   F602F602F602       DC16     +758,+758,+758,+758
   \              F602        
   \   00000504   F602F602F602       DC16     +758,+758,+758,+758
   \              F602        
   \   0000050C   F602F602F602       DC16     +758,+758,+758,+758
   \              F602        
   \   00000514   F602F602F602       DC16     +758,+758,+758,+758
   \              F602        
   \   0000051C   F602F602F602       DC16     +758,+758,+758,+758
   \              F602        
   \   00000524   F602F602F602       DC16     +758,+758,+758,+758
   \              F602        
   \   0000052C   F602F602F602       DC16     +758,+758,+758,+758
   \              F602        
   \   00000534   F602F602F602       DC16     +758,+758,+758,+758
   \              F602        
   \   0000053C   F602F602F602       DC16     +758,+758,+758,+758
   \              F602        
   \   00000544   F602F602F602       DC16     +758,+758,+758,+758
   \              F602        
   \   0000054C   F602F602F602       DC16     +758,+758,+758,+758
   \              F602        
   \   00000554   F602F602F602       DC16     +758,+758,+758,+758
   \              F602        
   \   0000055C   F602F602F602       DC16     +758,+758,+758,+758
   \              F602        
   \   00000564   F602F602F602       DC16     +758,+758,+758,+758
   \              F602        
   \   0000056C   F602F602F602       DC16     +758,+758,+758,+758
   \              F602        
   \   00000574   F602F602F602       DC16     +758,+758,+758,+758
   \              F602        
   \   0000057C   F602F602F602       DC16     +758,+758,+758,+758
   \              F602        
   \   00000584   F602F602F602       DC16     +758,+758,+758,+758
   \              F602        
   \   0000058C   F602F602F602       DC16     +758,+758,+758,+758
   \              F602        
   \   00000594   F602F602F602       DC16     +758,+758,+758,+758
   \              F602        
   \   0000059C   F602F602F602       DC16     +758,+758,+758,+758
   \              F602        
   \   000005A4   F602F602F602       DC16     +758,+758,+758,+758
   \              F602        
   \   000005AC   F602F602F602       DC16     +758,+758,+758,+758
   \              F602        
   \   000005B4   F602F602F602       DC16     +758,+758,+758,+758
   \              F602        
   \   000005BC   F602F602F602       DC16     +758,+758,+758,+758
   \              F602        
   \   000005C4   F602F602F602       DC16     +758,+758,+758,+758
   \              F602        
   \   000005CC   F602F602F602       DC16     +758,+758,+758,+758
   \              F602        
   \   000005D4   F602F602F602       DC16     +758,+758,+758,+758
   \              F602        
   \   000005DC   F602F602F602       DC16     +758,+758,+758,+758
   \              F602        
   \   000005E4   F602F602F602       DC16     +758,+758,+758,+758
   \              F602        
   \   000005EC   F602F602F602       DC16     +758,+758,+758,+758
   \              F602        
   \   000005F4   F602F602F602       DC16     +758,+758,+758,+758
   \              F602        
   \   000005FC   F602F602F602       DC16     +758,+758,+758,+758
   \              F602        
   \   00000604   F602F602F602       DC16     +758,+758,+758,+758
   \              F602        
   \   0000060C   F602F602F602       DC16     +758,+758,+758,+758
   \              F602        
   \   00000614   F602F602F602       DC16     +758,+758,+758,+758
   \              F602        
   \   0000061C   F602F602F602       DC16     +758,+758,+758,+758
   \              F602        
   \   00000624   F602F602F602       DC16     +758,+758,+758,+758
   \              F602        
   \   0000062C   F602F602F602       DC16     +758,+758,+758,+758
   \              F602        
   \   00000634   F602F602F602       DC16     +758,+758,+758,+758
   \              F602        
   \   0000063C   F602F602F602       DC16     +758,+758,+758,+758
   \              F602        
   \   00000644   F602F602F602       DC16     +758,+758,+758,+758
   \              F602        
   \   0000064C   F602F602F602       DC16     +758,+758,+758,+758
   \              F602        
   \   00000654   F602F602F602       DC16     +758,+758,+758,+758
   \              F602        
   \   0000065C   F602F602F602       DC16     +758,+758,+758,+758
   \              F602        
   \   00000664   F602F602F602       DC16     +758,+758,+758,+758
   \              F602        
   \   0000066C   F602F602F602       DC16     +758,+758,+758,+758
   \              F602        
   \   00000674   F602F602F602       DC16     +758,+758,+758,+758
   \              F602        
   \   0000067C   F602F602F602       DC16     +758,+758,+758,+758
   \              F602        
   \   00000684   F602F602F602       DC16     +758,+758,+758,+758
   \              F602        
   \   0000068C   F602F602F602       DC16     +758,+758,+758,+758
   \              F602        
   \   00000694   F602F602F602       DC16     +758,+758,+758,+758
   \              F602        
   \   0000069C   F602F602F602       DC16     +758,+758,+758,+758
   \              F602        
   \   000006A4   F602F602F602       DC16     +758,+758,+758,+758
   \              F602        
   \   000006AC   F602F602F602       DC16     +758,+758,+758,+758
   \              F602        
   \   000006B4   F602F602F602       DC16     +758,+758,+758,+758
   \              F602        
   \   000006BC   F602F602F602       DC16     +758,+758,+758,+758
   \              F602        
   \   000006C4   F602F602F602       DC16     +758,+758,+758,+758
   \              F602        
   \   000006CC   F602F602F602       DC16     +758,+758,+758,+758
   \              F602        
   \   000006D4   F602F602F602       DC16     +758,+758,+758,+758
   \              F602        
   \   000006DC   F602F602F602       DC16     +758,+758,+758,+758
   \              F602        
   \   000006E4   F602F602F602       DC16     +758,+758,+758,+758
   \              F602        
   \   000006EC   F602F602F602       DC16     +758,+758,+758,+758
   \              F602        
   \   000006F4   F602F602F602       DC16     +758,+758,+758,+758
   \              F602        
   \   000006FC   F602F602F602       DC16     +758,+758,+758,+758
   \              F602        
   \   00000704   F602F602F602       DC16     +758,+758,+758,+758
   \              F602        
   \   0000070C   F602F602F602       DC16     +758,+758,+758,+758
   \              F602        
   \   00000714   F602F602F602       DC16     +758,+758,+758,+758
   \              F602        
   \   0000071C   F602F602F602       DC16     +758,+758,+758,+758
   \              F602        
   \   00000724   F602F602F602       DC16     +758,+758,+758,+758
   \              F602        
   \   0000072C   F602F602F602       DC16     +758,+758,+758,+758
   \              F602        
   \   00000734   F602F602F602       DC16     +758,+758,+758,+758
   \              F602        
   \   0000073C   F602F602F602       DC16     +758,+758,+758,+758
   \              F602        
   \   00000744   F602F602F602       DC16     +758,+758,+758,+758
   \              F602        
   \   0000074C   F602F602F602       DC16     +758,+758,+758,+758
   \              F602        
   \   00000754   F602F602F602       DC16     +758,+758,+758,+758
   \              F602        
   \   0000075C   F602F602F602       DC16     +758,+758,+758,+758
   \              F602        
   \   00000764   F602F602F602       DC16     +758,+758,+758,+758
   \              F602        
   \   0000076C   F602F602F602       DC16     +758,+758,+758,+758
   \              F602        
   \   00000774   F602F602F602       DC16     +758,+758,+758,+758
   \              F602        
   \   0000077C   F602F602F602       DC16     +758,+758,+758,+758
   \              F602        
   \   00000784   F602F602F602       DC16     +758,+758,+758,+758
   \              F602        
   \   0000078C   F602F602F602       DC16     +758,+758,+758,+758
   \              F602        
   \   00000794   F602F602F602       DC16     +758,+758,+758,+758
   \              F602        
   \   0000079C   F602F602F602       DC16     +758,+758,+758,+758
   \              F602        
   \   000007A4   F602F602F602       DC16     +758,+758,+758,+758
   \              F602        
   \   000007AC   F602F602F602       DC16     +758,+758,+758,+758
   \              F602        
   \   000007B4   F602F602F602       DC16     +758,+758,+758,+758
   \              F602        
   \   000007BC   F602F602F602       DC16     +758,+758,+758,+758
   \              F602        
   \   000007C4   F602F602F602       DC16     +758,+758,+758,+758
   \              F602        
   \   000007CC   F602F602F602       DC16     +758,+758,+758,+758
   \              F602        
   \   000007D4   F602F602F602       DC16     +758,+758,+758,+758
   \              F602        
   \   000007DC   F602F602F602       DC16     +758,+758,+758,+758
   \              F602        
   \   000007E4   F602F602F602       DC16     +758,+758,+758,+758
   \              F602        
   \   000007EC   F602F602F602       DC16     +758,+758,+758,+758
   \              F602        
   \   000007F4   F602F602F602       DC16     +758,+758,+758,+758
   \              F602        
   \   000007FC   F602F602F602       DC16     +758,+758,+758,+758
   \              F602        
   \   00000804   F602F602F602       DC16     +758,+758,+758,+758
   \              F602        
   \   0000080C   F602F602F602       DC16     +758,+758,+758,+758
   \              F602        
   \   00000814   F602F602F602       DC16     +758,+758,+758,+758
   \              F602        
   \   0000081C   F602F602F602       DC16     +758,+758,+758,+758
   \              F602        
   \   00000824   F602F602F602       DC16     +758,+758,+758,+758
   \              F602        
   \   0000082C   F602F602F602       DC16     +758,+758,+758,+758
   \              F602        
   \   00000834   0B02F602F602       DC16     +523,+758,+758,+758
   \              F602        
   \   0000083C   F602F602F602       DC16     +758,+758,+758,+758
   \              F602        
   \   00000844   F602F6023F02       DC16     +758,+758,+575,+527
   \              0F02        
   \   0000084C   F602F602F602       DC16     +758,+758,+758,+758
   \              F602        
   \   00000854   F602F602F602       DC16     +758,+758,+758,+621
   \              6D02        
    174          		case WM_INIT_DIALOG:
    175          			AppSetupVoidSpace->FirstTime = true;
   \                     ??cbTankSetup_6:
   \   0000085C   2870C0E5           STRB     R7,[R0, #+40]
   \   00000860   060000EA           B        ??cbTankSetup_7
    176          			break;
    177          		case WM_PAINT:
    178          			GUI_DrawRect(   2,  55, 275, 98 );
   \                     ??cbTankSetup_8:
   \   00000864   6230A0E3           MOV      R3,#+98
   \   00000868   B12083E2           ADD      R2,R3,#+177
   \   0000086C   3710A0E3           MOV      R1,#+55
   \   00000870   0200A0E3           MOV      R0,#+2
   \   00000874   ........           _BLF     GUI_DrawRect,??GUI_DrawRect??rA
    179          			AppSetupVoidSpace->UpdateLanguage();
   \   00000878   000099E5           LDR      R0,[R9, #+0]
   \                     ??cbTankSetup_9:
   \   0000087C   ........           _BLF     ??UpdateLanguage,??UpdateLanguage??rA
   \                     ??cbTankSetup_7:
   \   00000880   D8D08DE2           ADD      SP,SP,#+216
   \   00000884   F043BDE8           POP      {R4-R9,LR}
   \   00000888   1EFF2FE1           BX       LR
    180          			break;
    181          		case MESSAGE_LANGUAGE_CHANGE:
    182          			AppSetupVoidSpace->UpdateLanguage();
    183          			break;
    184          		case MESSAGE_PINCODE_RETURN:
    185          			{
    186          				int ValueId = pMsg->hWinSrc;
    187          				char StringBuf[BUF_SIZE]={""};
   \                     ??cbTankSetup_10:
   \   0000088C   6C008DE2           ADD      R0,SP,#+108
   \   00000890   0010A0E3           MOV      R1,#+0
   \   00000894   5020A0E3           MOV      R2,#+80
   \                     ??cbTankSetup_11:
   \   00000898   042052E2           SUBS     R2,R2,#+4
   \   0000089C   021080E7           STR      R1,[R0, R2]
   \   000008A0   FCFFFF1A           BNE      ??cbTankSetup_11
    188          				strcpy( StringBuf,(char *)pMsg->Data.p);
   \   000008A4   081098E5           LDR      R1,[R8, #+8]
   \   000008A8   ........           _BLF     strcpy,??strcpy??rA
    189          				if ( PinUnlock || CheckPinCode(StringBuf) ) {
   \   000008AC   88039FE5           LDR      R0,??cbTankSetup_4+0x8  ;; PinUnlock
   \   000008B0   0000D0E5           LDRB     R0,[R0, #+0]
   \   000008B4   000050E3           CMP      R0,#+0
   \   000008B8   0B00001A           BNE      ??cbTankSetup_12
   \   000008BC   6C108DE2           ADD      R1,SP,#+108
   \   000008C0   18008DE2           ADD      R0,SP,#+24
   \   000008C4   ........           _BLF     ??AnsiString_1,??AnsiString??rA_1
   \   000008C8   18008DE2           ADD      R0,SP,#+24
   \   000008CC   ........           _BLF     ??CheckPinCode,??CheckPinCode??rA
   \   000008D0   0040A0E1           MOV      R4,R0
   \   000008D4   0020A0E3           MOV      R2,#+0
   \   000008D8   0110A0E3           MOV      R1,#+1
   \   000008DC   18008DE2           ADD      R0,SP,#+24
   \   000008E0   ........           _BLF     ??_Tidy,??_Tidy??rA
   \   000008E4   000054E3           CMP      R4,#+0
   \   000008E8   E4FFFF0A           BEQ      ??cbTankSetup_7
    190          					switch ( ValueId ) {
   \                     ??cbTankSetup_12:
   \   000008EC   4C439FE5           LDR      R4,??cbTankSetup_4+0xC  ;; ConfirmMessageBox
   \   000008F0   5C0F56E2           SUBS     R0,R6,#+368
   \   000008F4   0200000A           BEQ      ??cbTankSetup_13
   \   000008F8   010050E2           SUBS     R0,R0,#+1
   \   000008FC   0B00000A           BEQ      ??cbTankSetup_14
   \   00000900   DEFFFFEA           B        ??cbTankSetup_7
    191          						case GUI_ID_BUTTON0:	/* Pressure Button */
    192          							{
    193          								ConfirmMessageBox->Exec(WM_GetClientWindow(hWin), L_WORD602, L_WORD603, ValueId);
   \                     ??cbTankSetup_13:
   \   00000904   0500A0E1           MOV      R0,R5
   \   00000908   ........           _BLF     WM_GetClientWindow,??WM_GetClientWindow??rA
   \   0000090C   40002DE9           PUSH     {R6}
   \   00000910   0010A0E1           MOV      R1,R0
   \   00000914   5B30A0E3           MOV      R3,#+91
   \   00000918   803F83E3           ORR      R3,R3,#0x200
   \   0000091C   0120C3E3           BIC      R2,R3,#0x1
   \                     ??cbTankSetup_15:
   \   00000920   000094E5           LDR      R0,[R4, #+0]
   \   00000924   ........           _BLF     ??Exec,??Exec??rA
   \   00000928   04D08DE2           ADD      SP,SP,#+4
   \   0000092C   D3FFFFEA           B        ??cbTankSetup_7
    194          									// Zero adjust tank pressure!  The tanks must be vented to the atmosphere. This operation affects all cargo tanks.
    195          
    196          
    197          							}
    198          							break;
    199          						case GUI_ID_BUTTON1:	/* Level Button */
    200          							{
    201             								ConfirmMessageBox->Exec(WM_GetClientWindow(hWin), L_WORD604, L_WORD605, ValueId);
   \                     ??cbTankSetup_14:
   \   00000930   0500A0E1           MOV      R0,R5
   \   00000934   ........           _BLF     WM_GetClientWindow,??WM_GetClientWindow??rA
   \   00000938   40002DE9           PUSH     {R6}
   \   0000093C   973F87E3           ORR      R3,R7,#0x25C
   \   00000940   972FA0E3           MOV      R2,#+604
   \   00000944   0010A0E1           MOV      R1,R0
   \   00000948   F4FFFFEA           B        ??cbTankSetup_15
    202          									// Zero adjust sensor(s)! The tanks must be empty and no tank cleaning the last 30 minutes. This operation affects all tanks.
    203          
    204          							}
    205          							break;
    206          					}
    207          				}
    208          			}
    209          			break;
    210          		case MESSAGE_KEYPAD_RETURN:
    211          			{
    212          				int ValueId = pMsg->hWinSrc;
    213          				AnsiString StringBuf =(char*)pMsg->Data.p;
   \                     ??cbTankSetup_16:
   \   0000094C   081098E5           LDR      R1,[R8, #+8]
   \   00000950   34008DE2           ADD      R0,SP,#+52
   \   00000954   ........           _BLF     ??AnsiString_1,??AnsiString??rA_1
    214          				if ( ValueId == GUI_ID_EDIT1 ) {
   \   00000958   400F87E3           ORR      R0,R7,#0x100
   \   0000095C   000056E1           CMP      R6,R0
   \   00000960   1400001A           BNE      ??cbTankSetup_17
    215          					LibPutValue( SVT_BALLAST_DNS, PROSystemData::TXUSystemData, StringBuf);
   \   00000964   0020A0E3           MOV      R2,#+0
   \   00000968   0010A0E3           MOV      R1,#+0
   \   0000096C   18008DE2           ADD      R0,SP,#+24
   \   00000970   ........           _BLF     ??_Tidy,??_Tidy??rA
   \   00000974   ........           LDR      R0,??DataTable9  ;; ??npos
   \   00000978   0020A0E3           MOV      R2,#+0
   \   0000097C   003090E5           LDR      R3,[R0, #+0]
   \   00000980   34108DE2           ADD      R1,SP,#+52
   \   00000984   18008DE2           ADD      R0,SP,#+24
   \   00000988   ........           _BLF     ??assign,??assign??rA
   \   0000098C   ........           LDR      R0,??DataTable7  ;; ??TXUSystemData
   \   00000990   0030A0E3           MOV      R3,#+0
   \   00000994   001090E5           LDR      R1,[R0, #+0]
   \   00000998   18208DE2           ADD      R2,SP,#+24
   \   0000099C   A200A0E3           MOV      R0,#+162
   \   000009A0   500E80E3           ORR      R0,R0,#0x500
   \   000009A4   ........           _BLF     ??LibPutValue,??LibPutValue??rA
   \   000009A8   0020A0E3           MOV      R2,#+0
   \   000009AC   0710A0E1           MOV      R1,R7
   \   000009B0   18008DE2           ADD      R0,SP,#+24
   \   000009B4   ........           _BLF     ??_Tidy,??_Tidy??rA
    216          				}
    217          			}
   \                     ??cbTankSetup_17:
   \   000009B8   0020A0E3           MOV      R2,#+0
   \   000009BC   0110A0E3           MOV      R1,#+1
   \   000009C0   34008DE2           ADD      R0,SP,#+52
   \                     ??cbTankSetup_18:
   \   000009C4   ........           _BLF     ??_Tidy,??_Tidy??rA
   \   000009C8   ACFFFFEA           B        ??cbTankSetup_7
    218          			break;
    219          		case WM_TOUCH_CHILD:
    220          			{
    221          				Id    = WM_GetId(pMsg->hWinSrc);	/* Id of widget */
   \                     ??cbTankSetup_19:
   \   000009CC   0600A0E1           MOV      R0,R6
   \   000009D0   ........           _BLF     WM_GetId,??WM_GetId??rA
   \   000009D4   0060A0E1           MOV      R6,R0
    222          				switch ( Id ) {
   \   000009D8   401F87E3           ORR      R1,R7,#0x100
   \   000009DC   010050E1           CMP      R0,R1
   \   000009E0   A6FFFF1A           BNE      ??cbTankSetup_7
    223          					case GUI_ID_EDIT1:
    224          						KeyBoard->ExecKeyBoardNum(WM_GetClientWindow(hWin),L_WORD77,Id); // Ballast water density
   \   000009E4   0500A0E1           MOV      R0,R5
   \   000009E8   ........           _BLF     WM_GetClientWindow,??WM_GetClientWindow??rA
   \   000009EC   0010A0E1           MOV      R1,R0
   \   000009F0   000094E5           LDR      R0,[R4, #+0]
   \   000009F4   0630A0E1           MOV      R3,R6
   \   000009F8   4D20A0E3           MOV      R2,#+77
   \   000009FC   ........           _BLF     ??ExecKeyBoardNum,??ExecKeyBoardNum??rA
   \   00000A00   9EFFFFEA           B        ??cbTankSetup_7
    225          						break;
    226          				}
    227          			}
    228          			break;
    229          		case MESSAGE_YES_RETURN:
    230          			{
    231          				AnsiString TmpString;
   \                     ??cbTankSetup_20:
   \   00000A04   50008DE2           ADD      R0,SP,#+80
   \   00000A08   ........           _BLF     ??AnsiString,??AnsiString??rA
    232          				int ValueId = pMsg->hWinSrc;
   \   00000A0C   F640D8E1           LDRSH    R4,[R8, #+6]
    233          				char StringBuf[BUF_SIZE]={""};
   \   00000A10   6C008DE2           ADD      R0,SP,#+108
   \   00000A14   0010A0E3           MOV      R1,#+0
   \   00000A18   5020A0E3           MOV      R2,#+80
   \                     ??cbTankSetup_21:
   \   00000A1C   042052E2           SUBS     R2,R2,#+4
   \   00000A20   021080E7           STR      R1,[R0, R2]
   \   00000A24   FCFFFF1A           BNE      ??cbTankSetup_21
    234          				strcpy( StringBuf,(char *)pMsg->Data.p);
   \   00000A28   081098E5           LDR      R1,[R8, #+8]
   \   00000A2C   ........           _BLF     strcpy,??strcpy??rA
    235          				switch ( ValueId ) {
   \   00000A30   5C0F87E3           ORR      R0,R7,#0x170
   \   00000A34   000054E1           CMP      R4,R0
   \   00000A38   1E00001A           BNE      ??cbTankSetup_22
    236          					case GUI_ID_BUTTON0:	/* Pressure Button */
    237          						//TmpString = PROTank::ZeroSetAllTankPressureSensor(PROVoidSpace::ObjectSet,true);
    238          						//ANPRO10_SendZerosetAll(CMD_ZSET_ALL_VOIDSPACE_PRESS);
    239          						break;
    240          					case GUI_ID_BUTTON1:	/* Level Button */
    241          						TmpString = PROTank::ZeroSetAllLevelSensors(PROVoidSpace::ObjectSet,true);
   \   00000A3C   00129FE5           LDR      R1,??cbTankSetup_4+0x10  ;; ??ObjectSet
   \   00000A40   0D00A0E1           MOV      R0,SP
   \   00000A44   ........           _BLF     ??_Tree,??_Tree??rA
   \   00000A48   0120A0E3           MOV      R2,#+1
   \   00000A4C   0D10A0E1           MOV      R1,SP
   \   00000A50   BC008DE2           ADD      R0,SP,#+188
   \   00000A54   ........           _BLF     ??ZeroSetAllLevelSensors,??ZeroSetAllLevelSensors??rA
   \   00000A58   ........           LDR      R0,??DataTable9  ;; ??npos
   \   00000A5C   0020A0E3           MOV      R2,#+0
   \   00000A60   003090E5           LDR      R3,[R0, #+0]
   \   00000A64   BC108DE2           ADD      R1,SP,#+188
   \   00000A68   50008DE2           ADD      R0,SP,#+80
   \   00000A6C   ........           _BLF     ??assign,??assign??rA
   \   00000A70   0020A0E3           MOV      R2,#+0
   \   00000A74   0710A0E1           MOV      R1,R7
   \   00000A78   BC008DE2           ADD      R0,SP,#+188
   \   00000A7C   ........           _BLF     ??_Tidy,??_Tidy??rA
   \   00000A80   04109DE5           LDR      R1,[SP, #+4]
   \   00000A84   0D00A0E1           MOV      R0,SP
   \   00000A88   ........           _BLF     ??_Erase,??_Erase??rA
   \   00000A8C   0D10A0E1           MOV      R1,SP
   \   00000A90   04108DE5           STR      R1,[SP, #+4]
   \   00000A94   00108DE5           STR      R1,[SP, #+0]
   \   00000A98   08108DE5           STR      R1,[SP, #+8]
   \   00000A9C   0D70CDE5           STRB     R7,[SP, #+13]
   \   00000AA0   0C70CDE5           STRB     R7,[SP, #+12]
   \   00000AA4   0010A0E3           MOV      R1,#+0
   \   00000AA8   10108DE5           STR      R1,[SP, #+16]
    242          						ANPRO10_SendZerosetAll(CMD_ZSET_ALL_VOIDSPACE_LEVEL);
   \   00000AAC   B200A0E3           MOV      R0,#+178
   \   00000AB0   C00E80E3           ORR      R0,R0,#0xC00
   \   00000AB4   ........           _BLF     ??ANPRO10_SendZerosetAll,??ANPRO10_SendZerosetAll??rA
    243          						break;
    244          				}
    245          				if ( TmpString.Length() ) {
   \                     ??cbTankSetup_22:
   \   00000AB8   50008DE2           ADD      R0,SP,#+80
   \   00000ABC   ........           _BLF     ??Length,??Length??rA
   \   00000AC0   000050E3           CMP      R0,#+0
   \   00000AC4   1800000A           BEQ      ??cbTankSetup_23
    246          					DisplayMessage(FindDictionaryWord(L_WORD606), TmpString); // Zeroset warnings:
   \   00000AC8   0020A0E3           MOV      R2,#+0
   \   00000ACC   0010A0E3           MOV      R1,#+0
   \   00000AD0   34008DE2           ADD      R0,SP,#+52
   \   00000AD4   ........           _BLF     ??_Tidy,??_Tidy??rA
   \   00000AD8   ........           LDR      R0,??DataTable9  ;; ??npos
   \   00000ADC   0020A0E3           MOV      R2,#+0
   \   00000AE0   003090E5           LDR      R3,[R0, #+0]
   \   00000AE4   50108DE2           ADD      R1,SP,#+80
   \   00000AE8   34008DE2           ADD      R0,SP,#+52
   \   00000AEC   ........           _BLF     ??assign,??assign??rA
   \   00000AF0   5E10A0E3           MOV      R1,#+94
   \   00000AF4   801F81E3           ORR      R1,R1,#0x200
   \   00000AF8   18008DE2           ADD      R0,SP,#+24
   \   00000AFC   ........           _BLF     ??FindDictionaryWord,??FindDictionaryWord??rA
   \   00000B00   34108DE2           ADD      R1,SP,#+52
   \   00000B04   18008DE2           ADD      R0,SP,#+24
   \   00000B08   ........           _BLF     ??DisplayMessage,??DisplayMessage??rA
   \   00000B0C   0020A0E3           MOV      R2,#+0
   \   00000B10   0710A0E1           MOV      R1,R7
   \   00000B14   34008DE2           ADD      R0,SP,#+52
   \   00000B18   ........           _BLF     ??_Tidy,??_Tidy??rA
   \   00000B1C   0020A0E3           MOV      R2,#+0
   \   00000B20   0710A0E1           MOV      R1,R7
   \   00000B24   18008DE2           ADD      R0,SP,#+24
   \   00000B28   ........           _BLF     ??_Tidy,??_Tidy??rA
    247          
    248          				}
    249          			}
   \                     ??cbTankSetup_23:
   \   00000B2C   0020A0E3           MOV      R2,#+0
   \   00000B30   0110A0E3           MOV      R1,#+1
   \   00000B34   50008DE2           ADD      R0,SP,#+80
   \   00000B38   A1FFFFEA           B        ??cbTankSetup_18
    250          			break;
    251          		case WM_NOTIFY_PARENT:
    252          			Id    = WM_GetId(pMsg->hWinSrc);		/* Id of widget */
   \                     ??cbTankSetup_24:
   \   00000B3C   0600A0E1           MOV      R0,R6
   \   00000B40   ........           _BLF     WM_GetId,??WM_GetId??rA
   \   00000B44   0060A0E1           MOV      R6,R0
    253          			NCode = pMsg->Data.v;								/* Notification code */
    254          			switch ( NCode ) {
   \   00000B48   080098E5           LDR      R0,[R8, #+8]
   \   00000B4C   020050E2           SUBS     R0,R0,#+2
   \   00000B50   0400000A           BEQ      ??cbTankSetup_25
   \   00000B54   020050E2           SUBS     R0,R0,#+2
   \   00000B58   2800000A           BEQ      ??cbTankSetup_26
   \   00000B5C   010050E2           SUBS     R0,R0,#+1
   \   00000B60   1700000A           BEQ      ??cbTankSetup_27
   \   00000B64   45FFFFEA           B        ??cbTankSetup_7
    255          				case WM_NOTIFICATION_RELEASED:		/* React only if released */
    256          					switch ( Id ) {
   \                     ??cbTankSetup_25:
   \   00000B68   050056E3           CMP      R6,#+5
   \   00000B6C   0B00000A           BEQ      ??cbTankSetup_28
   \   00000B70   5C0F56E3           CMP      R6,#+368
   \   00000B74   5C1F8713           ORRNE    R1,R7,#0x170
   \   00000B78   01005611           CMPNE    R6,R1
   \   00000B7C   3FFFFF1A           BNE      ??cbTankSetup_7
    257          						case GUI_ID_BUTTON0:	/* Pressure Button */
    258          						case GUI_ID_BUTTON1:	/* Level Button */
    259          							KeyBoard->ExecKeyBoardPinCode(WM_GetClientWindow(hWin),L_WORD150,Id);// Enter Pin code:
   \   00000B80   0500A0E1           MOV      R0,R5
   \   00000B84   ........           _BLF     WM_GetClientWindow,??WM_GetClientWindow??rA
   \   00000B88   0010A0E1           MOV      R1,R0
   \   00000B8C   000094E5           LDR      R0,[R4, #+0]
   \   00000B90   0630A0E1           MOV      R3,R6
   \   00000B94   9620A0E3           MOV      R2,#+150
   \   00000B98   ........           _BLF     ??ExecKeyBoardPinCode,??ExecKeyBoardPinCode??rA
   \   00000B9C   37FFFFEA           B        ??cbTankSetup_7
    260          							break;
    261          						case GUI_ID_CLOSE: /* Close Button */
    262          							if ( !AppSetupVoidSpaceIsClosed ) {
   \                     ??cbTankSetup_28:
   \   00000BA0   ........           LDR      R0,??DataTable10  ;; AppSetupVoidSpaceIsClosed
   \   00000BA4   0010D0E5           LDRB     R1,[R0, #+0]
   \   00000BA8   000051E3           CMP      R1,#+0
   \   00000BAC   33FFFF1A           BNE      ??cbTankSetup_7
    263          								AppSetupVoidSpaceIsClosed = true;
   \   00000BB0   0070C0E5           STRB     R7,[R0, #+0]
    264          								GUI_EndDialog(AppSetupVoidSpace->WinHandl, 0);
   \   00000BB4   000099E5           LDR      R0,[R9, #+0]
   \   00000BB8   FA02D0E1           LDRSH    R0,[R0, #+42]
   \   00000BBC   ........           _BLF     GUI_EndDialog,??GUI_EndDialog??rA
   \   00000BC0   2EFFFFEA           B        ??cbTankSetup_7
    265          							}
    266          							break;
    267          					}
    268          					break;
    269          				case WM_NOTIFICATION_VALUE_CHANGED:
    270          					{
    271          						switch ( Id ) {
   \                     ??cbTankSetup_27:
   \   00000BC4   810046E2           SUB      R0,R6,#+129
   \   00000BC8   400F40E2           SUB      R0,R0,#+256
   \   00000BCC   020050E3           CMP      R0,#+2
   \   00000BD0   2AFFFF8A           BHI      ??cbTankSetup_7
   \   00000BD4   021F8FE2           ADR      R1,??cbTankSetup_2
   \   00000BD8   8000A0E1           MOV      R0,R0, LSL #+1
   \   00000BDC   F01091E1           LDRSH    R1,[R1, R0]
   \   00000BE0   01F18FE0           ADD      PC,PC,R1, LSL #+2
   \                     ??cbTankSetup_2:
   \   00000BE4   010001000100       DC16     +1,+1,+1,+0
   \              0000        
    272          							case GUI_ID_DROPDOWN1:
    273          							case GUI_ID_DROPDOWN2:
    274          							case GUI_ID_DROPDOWN3:
    275          								AppSetupVoidSpace->UpdateDialog(hWin,Id);
   \                     ??cbTankSetup_29:
   \   00000BEC   000099E5           LDR      R0,[R9, #+0]
   \   00000BF0   0620A0E1           MOV      R2,R6
   \   00000BF4   0510A0E1           MOV      R1,R5
   \   00000BF8   ........           BL       ??UpdateDialog
   \   00000BFC   1FFFFFEA           B        ??cbTankSetup_7
    276          								break;
    277          						}
    278          					}
    279          					break;
    280          				case WM_NOTIFICATION_SEL_CHANGED:
    281          					{
    282          						switch ( Id ) {
   \                     ??cbTankSetup_26:
   \   00000C00   810046E2           SUB      R0,R6,#+129
   \   00000C04   400F40E2           SUB      R0,R0,#+256
   \   00000C08   020050E3           CMP      R0,#+2
   \   00000C0C   1BFFFF8A           BHI      ??cbTankSetup_7
   \   00000C10   021F8FE2           ADR      R1,??cbTankSetup_3
   \   00000C14   8000A0E1           MOV      R0,R0, LSL #+1
   \   00000C18   F01091E1           LDRSH    R1,[R1, R0]
   \   00000C1C   01F18FE0           ADD      PC,PC,R1, LSL #+2
   \                     ??cbTankSetup_3:
   \   00000C20   F2FFF2FFF2FF       DC16     +65522,+65522,+65522,+0
   \              0000        
    283          							case GUI_ID_DROPDOWN1:
    284          							case GUI_ID_DROPDOWN2:
    285          							case GUI_ID_DROPDOWN3:
    286          								AppSetupVoidSpace->UpdateDialog(hWin,Id);
    287          								break;
    288          						}
    289          					}
    290          					break;
    291          			}
    292          			break;
    293          		default:
    294          			WM_DefaultProc(pMsg);
   \                     ??cbTankSetup_5:
   \   00000C28   0800A0E1           MOV      R0,R8
   \   00000C2C   ........           _BLF     WM_DefaultProc,??WM_DefaultProc??rA
    295          	}
    296          }
   \                     ??cbTankSetup_30:
   \   00000C30   12FFFFEA           B        ??cbTankSetup_7
   \                     ??cbTankSetup_4:
   \   00000C34   ........           DC32     AppSetupVoidSpace
   \   00000C38   ........           DC32     KeyBoard
   \   00000C3C   ........           DC32     PinUnlock
   \   00000C40   ........           DC32     ConfirmMessageBox
   \   00000C44   ........           DC32     ??ObjectSet

   \                                 In segment DIFUNCT, align 4, keep-with-next, root
   \   00000000                      REQUIRE ?call_ctors
   \   00000000   ........           DC32    ??__sti__routine

   \                                 In segment DATA_C, align 4, align-sorted
   \                     `?<Constant "Application setup">`:
   \   00000000   4170706C6963       DC8 "Application setup"
   \              6174696F6E20
   \              736574757000
   \   00000012   0000               DC8 0, 0

   \                                 In segment DATA_C, align 4, align-sorted
   \                     `?<Constant "Col. 1">`:
   \   00000000   436F6C2E2031       DC8 "Col. 1"
   \              00          
   \   00000007   00                 DC8 0

   \                                 In segment DATA_C, align 4, align-sorted
   \                     `?<Constant "Col. 2">`:
   \   00000000   436F6C2E2032       DC8 "Col. 2"
   \              00          
   \   00000007   00                 DC8 0

   \                                 In segment DATA_C, align 4, align-sorted
   \                     `?<Constant "Col. 3">`:
   \   00000000   436F6C2E2033       DC8 "Col. 3"
   \              00          
   \   00000007   00                 DC8 0

   \                                 In segment DATA_C, align 4, align-sorted
   \                     `?<Constant "Col. 4">`:
   \   00000000   436F6C2E2034       DC8 "Col. 4"
   \              00          
   \   00000007   00                 DC8 0

   \                                 In segment DATA_C, align 4, align-sorted
   \                     `?<Constant "Name ">`:
   \   00000000   4E616D652000       DC8 "Name "
   \   00000006   0000               DC8 0, 0

   \                                 In segment DATA_C, align 4, align-sorted
   \                     `?<Constant "unit">`:
   \   00000000   756E697400         DC8 "unit"
   \   00000005   000000             DC8 0, 0, 0

   \                                 In segment DATA_C, align 4, align-sorted
   \                     `?<Constant "Zero adjust void spac...">`:
   \   00000000   5A65726F2061       DC8 5AH, 65H, 72H, 6FH, 20H, 61H, 64H, 6AH
   \              646A        
   \   00000008   75737420766F       DC8 75H, 73H, 74H, 20H, 76H, 6FH, 69H, 64H
   \              6964        
   \   00000010   207370616365       DC8 20H, 73H, 70H, 61H, 63H, 65H, 0AH, 20H
   \              0A20        
   \   00000018   707265737375       DC8 70H, 72H, 65H, 73H, 73H, 75H, 72H, 65H
   \              7265        
   \   00000020   2073656E736F       DC8 20H, 73H, 65H, 6EH, 73H, 6FH, 72H, 20H
   \              7220        
   \   00000028   666F720A2061       DC8 66H, 6FH, 72H, 0AH, 20H, 61H, 6CH, 6CH
   \              6C6C        
   \   00000030   20766F696420       DC8 20H, 76H, 6FH, 69H, 64H, 20H, 73H, 70H
   \              7370        
   \   00000038   616365732E00       DC8 61H, 63H, 65H, 73H, 2EH, 0
   \   0000003E   0000               DC8 0, 0

   \                                 In segment DATA_C, align 4, align-sorted
   \                     `?<Constant "Zero adjust level\\n se...">`:
   \   00000000   5A65726F2061       DC8 5AH, 65H, 72H, 6FH, 20H, 61H, 64H, 6AH
   \              646A        
   \   00000008   757374206C65       DC8 75H, 73H, 74H, 20H, 6CH, 65H, 76H, 65H
   \              7665        
   \   00000010   6C0A2073656E       DC8 6CH, 0AH, 20H, 73H, 65H, 6EH, 73H, 6FH
   \              736F        
   \   00000018   722873292066       DC8 72H, 28H, 73H, 29H, 20H, 66H, 6FH, 72H
   \              6F72        
   \   00000020   0A20616C6C20       DC8 0AH, 20H, 61H, 6CH, 6CH, 20H, 76H, 6FH
   \              766F        
   \   00000028   696420737061       DC8 69H, 64H, 20H, 73H, 70H, 61H, 63H, 65H
   \              6365        
   \   00000030   732E00             DC8 73H, 2EH, 0
   \   00000033   00                 DC8 0

   \                                 In segment DATA_C, align 4, align-sorted
   \                     `?<Constant "Close">`:
   \   00000000   436C6F736500       DC8 "Close"
   \   00000006   0000               DC8 0, 0

   \                                 In segment DATA_C, align 4, align-sorted
   \                     `?<Constant "Ballast water density">`:
   \   00000000   42616C6C6173       DC8 "Ballast water density"
   \              742077617465
   \              722064656E73
   \              69747900    
   \   00000016   0000               DC8 0, 0

   \                                 In segment DATA_C, align 1, align-sorted
   \                     `?<Constant "">`:
   \   00000000   00                 DC8 ""

   \                                 In segment DATA_C, align 4, align-sorted
   \                     `?<Constant {{2197, 0, 69}, {2558, 0, 70}, {255`:
   \   00000000   950800000000       DC32 2197, 0, 69, 2558, 0, 70, 2559, 0, 71, 2560, 0, 72, 2561, 0, 73
   \              000045000000
   \              FE0900000000
   \              000046000000
   \              FF0900000000
   \              000047000000
   \              000A00000000
   \              000048000000
   \              010A00000000
   \              000049000000
   \   0000003C   020A00000000       DC32 2562, 0, 74, 368, 0, 643, 369, 0, 644, 5, 0, 18, 2563, 0, 77
   \              00004A000000
   \              700100000000
   \              000083020000
   \              710100000000
   \              000084020000
   \              050000000000
   \              000012000000
   \              030A00000000
   \              00004D000000

   \                                 In segment DATA_C, align 4, align-sorted
   \   00000000   00                 DC8 ""
   \   00000001   000000000000       DC8 0, 0, 0, 0, 0, 0, 0, 0, 0, 0, 0, 0, 0, 0, 0, 0
   \              000000000000
   \              00000000    
   \   00000011   000000000000       DC8 0, 0, 0, 0, 0, 0, 0, 0, 0, 0, 0, 0, 0, 0, 0, 0
   \              000000000000
   \              00000000    
   \   00000021   000000000000       DC8 0, 0, 0, 0, 0, 0, 0, 0, 0, 0, 0, 0, 0, 0, 0, 0
   \              000000000000
   \              00000000    
   \   00000031   000000000000       DC8 0, 0, 0, 0, 0, 0, 0, 0, 0, 0, 0, 0, 0, 0, 0, 0
   \              000000000000
   \              00000000    
   \   00000041   000000000000       DC8 0, 0, 0, 0, 0, 0, 0, 0, 0, 0, 0, 0, 0, 0, 0
   \              000000000000
   \              000000      

   \                                 In segment DATA_C, align 4, align-sorted
   \   00000000   00                 DC8 ""
   \   00000001   000000000000       DC8 0, 0, 0, 0, 0, 0, 0, 0, 0, 0, 0, 0, 0, 0, 0, 0
   \              000000000000
   \              00000000    
   \   00000011   000000000000       DC8 0, 0, 0, 0, 0, 0, 0, 0, 0, 0, 0, 0, 0, 0, 0, 0
   \              000000000000
   \              00000000    
   \   00000021   000000000000       DC8 0, 0, 0, 0, 0, 0, 0, 0, 0, 0, 0, 0, 0, 0, 0, 0
   \              000000000000
   \              00000000    
   \   00000031   000000000000       DC8 0, 0, 0, 0, 0, 0, 0, 0, 0, 0, 0, 0, 0, 0, 0, 0
   \              000000000000
   \              00000000    
   \   00000041   000000000000       DC8 0, 0, 0, 0, 0, 0, 0, 0, 0, 0, 0, 0, 0, 0, 0
   \              000000000000
   \              000000      

   \                                 In segment CODE, align 4, keep-with-next
   \   __??Code32?? __code __interwork __atpcs TDUAppSetupVoidSpace &TDUAppSetupVoidSpace::new TDUAppSetupVoidSpace()
   \                     `??new TDUAppSetupVoidSpace`:
   \   00000000   00402DE9           PUSH     {LR}
   \   00000004   6000A0E3           MOV      R0,#+96
   \   00000008   ........           _BLF     `??operator new`,`??operator new??rA`
   \   0000000C   000050E3           CMP      R0,#+0
   \   00000010   0000000A           BEQ      `??new TDUAppSetupVoidSpace_1`
   \   00000014   ........           BL       ??TDUAppSetupVoidSpace
   \                     `??new TDUAppSetupVoidSpace_1`:
   \   00000018   0040BDE8           POP      {LR}
   \   0000001C   1EFF2FE1           BX       LR               ;; return

   \                                 In segment CODE, align 4, keep-with-next
   \   __??Code32?? __code __interwork __atpcs void TDUAppSetupVoidSpace::delete ~TDUAppSetupVoidSpace(TDUAppSetupVoidSpace *)
   \                     `??delete ~TDUAppSetupVoidSpace`:
   \   00000000   10402DE9           PUSH     {R4,LR}
   \   00000004   0040B0E1           MOVS     R4,R0
   \   00000008   0200000A           BEQ      `??delete ~TDUAppSetupVoidSpace_1`
   \   0000000C   ........           _BLF     `?~TDUBasicWin`,`?~TDUBasicWin??rA`
   \   00000010   0400A0E1           MOV      R0,R4
   \   00000014   ........           _BLF     `??operator delete`,`??operator delete??rA`
   \                     `??delete ~TDUAppSetupVoidSpace_1`:
   \   00000018   1040BDE8           POP      {R4,LR}
   \   0000001C   1EFF2FE1           BX       LR               ;; return

   \                                 In segment CODE, align 4, keep-with-next
   \   static __??Code32?? __intrinsic __code __interwork __atpcs void __sti__routine()
   \                     ??__sti__routine:
   \   00000000   1EFF2FE1           BX       LR               ;; return

   \                                 In segment CODE, align 4, keep-with-next
   \                     ??DataTable1:
   \   00000000   ........           DC32     AppSetupVoidSpaceIsClosed

   \                                 In segment CODE, align 4, keep-with-next
   \                     ??DataTable3:
   \   00000000   ........           DC32     VoidSpaceWindow

   \                                 In segment CODE, align 4, keep-with-next
   \                     ??DataTable7:
   \   00000000   ........           DC32     ??TXUSystemData

   \                                 In segment CODE, align 4, keep-with-next
   \                     ??DataTable9:
   \   00000000   ........           DC32     ??npos

   \                                 In segment CODE, align 4, keep-with-next
   \                     ??DataTable10:
   \   00000000   ........           DC32     AppSetupVoidSpaceIsClosed

   Maximum stack usage in bytes:

     Function                       CSTACK
     --------                       ------
     TDUAppSetupVoidSpace::ExecDialogBox(GUI_HWIN)
                                       16
     TDUAppSetupVoidSpace::GetDialogHandles()
                                        8
     TDUAppSetupVoidSpace::InitDialog()
                                      232
     TDUAppSetupVoidSpace::TDUAppSetupVoidSpace()
                                        8
     TDUAppSetupVoidSpace::Update()    68
     TDUAppSetupVoidSpace::UpdateDialog(GUI_HWIN, int)
                                      108
     TDUAppSetupVoidSpace::cbTankSetup(WM_MESSAGE *)
                                      248
     TDUAppSetupVoidSpace::delete ~TDUAppSetupVoidSpace(TDUAppSetupVoidSpace *)
                                        8
     TDUAppSetupVoidSpace::new TDUAppSetupVoidSpace()
                                        4
     TDUAppSetupVoidSpace::~TDUAppSetupVoidSpace()
                                        4
     _Tree<_Tset_traits<PRogramObjectBase *, less<PRogramObjectBase *>, allocator<PRogramObjectBase *>, false>>::_Copy(_Tree<_Tset_traits<PRogramObjectBase *, less<PRogramObjectBase *>, allocator<PRogramObjectBase *>, false>>::_Nodeptr, _Tree<_Tset_traits<PRogramObjectBase *, less<PRogramObjectBase *>, allocator<PRogramObjectBase *>, false>>::_Nodeptr)
                                       32
     _Tree<_Tset_traits<PRogramObjectBase *, less<PRogramObjectBase *>, allocator<PRogramObjectBase *>, false>>::_Erase(_Tree<_Tset_traits<PRogramObjectBase *, less<PRogramObjectBase *>, allocator<PRogramObjectBase *>, false>>::_Nodeptr)
                                       16
     _Tree<_Tset_traits<PRogramObjectBase *, less<PRogramObjectBase *>, allocator<PRogramObjectBase *>, false>>::_Tree(_Tree<_Tset_traits<PRogramObjectBase *, less<PRogramObjectBase *>, allocator<PRogramObjectBase *>, false>> const &)
                                       12
     __sti__routine()                   0


   Segment part sizes:

     Function/Label                 Bytes
     --------------                 -----
     _Tree<_Tset_traits<PRogramObjectBase *, less<PRogramObjectBase *>, allocator<PRogramObjectBase *>, false>>::_Tree(_Tree<_Tset_traits<PRogramObjectBase *, less<PRogramObjectBase *>, allocator<PRogramObjectBase *>, false>> const &)
                                     208
     _Tree<_Tset_traits<PRogramObjectBase *, less<PRogramObjectBase *>, allocator<PRogramObjectBase *>, false>>::_Copy(_Tree<_Tset_traits<PRogramObjectBase *, less<PRogramObjectBase *>, allocator<PRogramObjectBase *>, false>>::_Nodeptr, _Tree<_Tset_traits<PRogramObjectBase *, less<PRogramObjectBase *>, allocator<PRogramObjectBase *>, false>>::_Nodeptr)
                                     148
     _Tree<_Tset_traits<PRogramObjectBase *, less<PRogramObjectBase *>, allocator<PRogramObjectBase *>, false>>::_Erase(_Tree<_Tset_traits<PRogramObjectBase *, less<PRogramObjectBase *>, allocator<PRogramObjectBase *>, false>>::_Nodeptr)
                                      76
     TDUAppSetupVoidSpace::~TDUAppSetupVoidSpace()
                                      16
     TDUAppSetupVoidSpace::TDUAppSetupVoidSpace()
                                      52
     TDUAppSetupVoidSpace::aDialogCreate
                                     432
     TDUAppSetupVoidSpace::ExecDialogBox(GUI_HWIN)
                                     184
     TDUAppSetupVoidSpace::GetDialogHandles()
                                     292
     TDUAppSetupVoidSpace::InitDialog()
                                     488
     TDUAppSetupVoidSpace::UpdateDialog(GUI_HWIN, int)
                                     404
     TDUAppSetupVoidSpace::Update()  152
     TDUAppSetupVoidSpace::cbTankSetup(WM_MESSAGE *)
                                    3144
     ?<Constant "Application setup">
                                      20
     ?<Constant "Col. 1">              8
     ?<Constant "Col. 2">              8
     ?<Constant "Col. 3">              8
     ?<Constant "Col. 4">              8
     ?<Constant "Name ">               8
     ?<Constant "unit">                8
     ?<Constant "Zero adjust void spac...">
                                      64
     ?<Constant "Zero adjust level\n se...">
                                      52
     ?<Constant "Close">               8
     ?<Constant "Ballast water density">
                                      24
     ?<Constant "">                    1
     ?<Constant {{2197, 0, 69}, {2558, 0, 70}, {255
                                     120
     ?<Constant "">_1                 80
     ?<Constant "">_2                 80
     TDUAppSetupVoidSpace::new TDUAppSetupVoidSpace()
                                      32
     TDUAppSetupVoidSpace::delete ~TDUAppSetupVoidSpace(TDUAppSetupVoidSpace *)
                                      32
     __sti__routine()                  4
     ??DataTable1                      4
     ??DataTable3                      4
     ??DataTable7                      4
     ??DataTable9                      4
     ??DataTable10                     4
      Others                         588

 
 5 836 bytes in segment CODE
   929 bytes in segment DATA_C
     4 bytes in segment DIFUNCT
 
 4 824 bytes of CODE  memory (+ 1 016 bytes shared)
   929 bytes of CONST memory

Errors: none
Warnings: none
