##############################################################################
#                                                                            #
# IAR ARM ANSI C/C++ Compiler V4.42A/W32               14/Sep/2022  15:18:06 #
# Copyright 1999-2005 IAR Systems. All rights reserved.                      #
#                                                                            #
#    Cpu mode        =  interwork                                            #
#    Endian          =  little                                               #
#    Stack alignment =  4                                                    #
#    Source file     =  D:\S2Prog\TXU\src\TDUAppWinSetup.cpp                 #
#    Command line    =  D:\S2Prog\TXU\src\TDUAppWinSetup.cpp --fpu None -D   #
#                       OS_LIBMODE_SP -D CPU_S3C2410 -D OS_RAMVECT=0 -D      #
#                       OS_UART=-1 -D S2TXU -D USE_LZO=1 -D __ARM_LIBRARY__  #
#                       -D WATCHDOG=1 -D NETWORK=1 -lCN                      #
#                       D:\S2Prog\TXU\Debug\List\ -o                         #
#                       D:\S2Prog\TXU\Debug\Obj\ -s9 --debug --cpu_mode arm  #
#                       --endian little --cpu ARM920T --stack_align 4        #
#                       --interwork -e --enable_multibytes --eec++           #
#                       --dlib_config "C:\Program Files (x86)\IAR            #
#                       Systems\Embedded Workbench                           #
#                       4.0\arm\LIB\dl4tpainl8n.h" -I                        #
#                       D:\S2Prog\TXU\GUI\CORE\ -I D:\S2Prog\TXU\GUI\WM\ -I  #
#                       D:\S2Prog\TXU\GUI\WIDGET\ -I D:\S2Prog\TXU\CONFIG\   #
#                       -I D:\S2Prog\TXU\INC\ -I D:\S2Prog\TXU\..\SHARED\INC #
#                       \ -I D:\S2Prog\TXU\..\SHARED\SRC\ -I                 #
#                       D:\S2Prog\TXU\..\SHARED\LZO\minilzo.210\ -I          #
#                       D:\S2Prog\TXU\lwip-1.4.1\src\include\ -I             #
#                       D:\S2Prog\TXU\lwip-1.4.1\src\include\ipv4\ -I        #
#                       D:\S2Prog\TXU\lwip-1.4.1\src\ -I                     #
#                       D:\S2Prog\TXU\..\SHARED\Database\ -I                 #
#                       D:\S2Prog\TXU\src\ -I "C:\Program Files (x86)\IAR    #
#                       Systems\Embedded Workbench 4.0\arm\INC\"             #
#                       --inline_threshold=2                                 #
#    List file       =  D:\S2Prog\TXU\Debug\List\TDUAppWinSetup.lst          #
#    Object file     =  D:\S2Prog\TXU\Debug\Obj\TDUAppWinSetup.r79           #
#                                                                            #
#                                                                            #
##############################################################################

D:\S2Prog\TXU\src\TDUAppWinSetup.cpp
      1          #include "TDUIncludes.h"
      2          
      3          

   \                                 In segment CODE, align 4, keep-with-next
      4          TDUAppWinSetup::~TDUAppWinSetup(void)
      5          {
   \                     `?~TDUAppWinSetup`:
   \   00000000   00402DE9           PUSH     {LR}
      6          }
   \   00000004   ........           _BLF     `?~TDUBasicWin`,`?~TDUBasicWin??rA`
   \   00000008   0040BDE8           POP      {LR}
   \   0000000C   1EFF2FE1           BX       LR               ;; return
      7          

   \                                 In segment CODE, align 4, keep-with-next
      8          TDUAppWinSetup::TDUAppWinSetup(void)
   \                     ??TDUAppWinSetup:
   \   00000000   10402DE9           PUSH     {R4,LR}
   \   00000004   0040A0E1           MOV      R4,R0
      9          {
   \   00000008   ........           _BLF     ??TDUBasicWin,??TDUBasicWin??rA
     10          	AppWinSetupDiaIsClosed = true;
   \   0000000C   ........           LDR      R0,??DataTable18  ;; AppWinSetupDiaIsClosed
   \   00000010   0110A0E3           MOV      R1,#+1
   \   00000014   0010C0E5           STRB     R1,[R0, #+0]
     11          	TankValueList		   = NULL;
   \   00000018   0000A0E3           MOV      R0,#+0
   \   0000001C   480084E5           STR      R0,[R4, #+72]
     12          }
   \   00000020   0400A0E1           MOV      R0,R4
   \   00000024   1040BDE8           POP      {R4,LR}
   \   00000028   1EFF2FE1           BX       LR               ;; return
     13          

   \                                 In segment DATA_C, align 4, align-sorted
     14          const GUI_WIDGET_CREATE_INFO TDUAppWinSetup::aDialogCreate[] =
   \                     ??aDialogCreate:
   \   00000000   ............       DC32 FRAMEWIN_CreateIndirect, `?<Constant "Application setup">`
   \              ....        
   \   00000008   9A0800000000       DC16 2202, 0, 0, 0, 0, 128
   \              000000008000
   \   00000014   00000000....       DC32 0, BUTTON_CreateIndirect, `?<Constant "Close">`
   \              ............
   \   00000020   0500BE009A00       DC16 5, 190, 154, 80, 22
   \              50001600    
   \   0000002A   000000000000       DC8 0, 0, 0, 0, 0, 0
   \   00000030   ............       DC32 TEXT_CreateIndirect, `?<Constant "Col. 1">`
   \              ....        
   \   00000038   FE0904000400       DC16 2558, 4, 4, 40, 15, 0
   \              28000F000000
   \   00000044   00000000           DC8 0, 0, 0, 0
   \   00000048   ............       DC32 TEXT_CreateIndirect, `?<Constant "Col. 2">`
   \              ....        
   \   00000050   FF092C000400       DC16 2559, 44, 4, 74, 15, 0
   \              4A000F000000
   \   0000005C   00000000           DC8 0, 0, 0, 0
   \   00000060   ............       DC32 TEXT_CreateIndirect, `?<Constant "Col. 3">`
   \              ....        
   \   00000068   000A7C000400       DC16 2560, 124, 4, 74, 15, 0
   \              4A000F000000
   \   00000074   00000000           DC8 0, 0, 0, 0
   \   00000078   ............       DC32 TEXT_CreateIndirect, `?<Constant "Col. 4">`
   \              ....        
   \   00000080   010ACC000400       DC16 2561, 204, 4, 74, 15, 0
   \              4A000F000000
   \   0000008C   00000000           DC8 0, 0, 0, 0
   \   00000090   ............       DC32 TEXT_CreateIndirect, `?<Constant "Name ">`
   \              ....        
   \   00000098   020A04001400       DC16 2562, 4, 20, 74, 15, 0
   \              4A000F000000
   \   000000A4   00000000           DC8 0, 0, 0, 0
   \   000000A8   ........0000       DC32 DROPDOWN_CreateIndirect, 0H
   \              0000        
   \   000000B0   81012C001400       DC16 385, 44, 20, 74, 110, 0
   \              4A006E000000
   \   000000BC   03000000....       DC32 3, DROPDOWN_CreateIndirect, 0H
   \              ....00000000
   \   000000C8   82017C001400       DC16 386, 124, 20, 74, 110, 0
   \              4A006E000000
   \   000000D4   03000000....       DC32 3, DROPDOWN_CreateIndirect, 0H
   \              ....00000000
   \   000000E0   8301CC001400       DC16 387, 204, 20, 74, 110, 0
   \              4A006E000000
   \   000000EC   03000000....       DC32 3, TEXT_CreateIndirect, `?<Constant "unit">`
   \              ............
   \   000000F8   620130002800       DC16 354, 48, 40, 74, 15, 0
   \              4A000F000000
   \   00000104   00000000           DC8 0, 0, 0, 0
   \   00000108   ............       DC32 TEXT_CreateIndirect, `?<Constant "unit">`
   \              ....        
   \   00000110   630180002800       DC16 355, 128, 40, 74, 15, 0
   \              4A000F000000
   \   0000011C   00000000           DC8 0, 0, 0, 0
   \   00000120   ............       DC32 TEXT_CreateIndirect, `?<Constant "unit">`
   \              ....        
   \   00000128   6401D0002800       DC16 356, 208, 40, 74, 15, 0
   \              4A000F000000
   \   00000134   00000000           DC8 0, 0, 0, 0
   \   00000138   ............       DC32 TEXT_CreateIndirect, `?<Constant "Common input for all ...">`
   \              ....        
   \   00000140   080A06004000       DC16 2568, 6, 64, 230, 15, 0
   \              E6000F000000
   \   0000014C   00000000           DC8 0, 0, 0, 0
   \   00000150   ............       DC32 TEXT_CreateIndirect, `?<Constant "Density">`
   \              ....        
   \   00000158   090A06005400       DC16 2569, 6, 84, 60, 15, 0
   \              3C000F000000
   \   00000164   00000000           DC8 0, 0, 0, 0
   \   00000168   ........0000       DC32 EDIT_CreateIndirect, 0H
   \              0000        
   \   00000170   6D0A46005400       DC16 2669, 70, 84, 50, 15, 1
   \              32000F000100
   \   0000017C   14000000....       DC32 20, TEXT_CreateIndirect, `?<Constant "unit">`
   \              ............
   \   00000188   0A0A7A005400       DC16 2570, 122, 84, 50, 15, 0
   \              32000F000000
   \   00000194   00000000           DC8 0, 0, 0, 0
     15          {
     16          	{ FRAMEWIN_CreateIndirect, "Application setup", TDU_APPSETUP_WIN, 0, 0, 0, 0, FRAMEWIN_CF_MAXIMIZED, 0},
     17          	{ BUTTON_CreateIndirect, "Close"            ,  GUI_ID_CLOSE, 190, 154,  80, 22},
     18          	{ TEXT_CreateIndirect, "Col. 1"             ,   GUI_ID_TEXT10,   4,   4,  40,  15, TEXT_CF_LEFT},
     19          	{ TEXT_CreateIndirect, "Col. 2"             ,   GUI_ID_TEXT11,  44,   4,  74,  15, TEXT_CF_LEFT},
     20          	{ TEXT_CreateIndirect, "Col. 3"             ,   GUI_ID_TEXT12, 124,   4,  74,  15, TEXT_CF_LEFT},
     21          	{ TEXT_CreateIndirect, "Col. 4"             ,   GUI_ID_TEXT13, 204,   4,  74,  15, TEXT_CF_LEFT},
     22          	{ TEXT_CreateIndirect, "Name "              ,   GUI_ID_TEXT14,   4,  20,  74,  15, TEXT_CF_LEFT},
     23          	{ DROPDOWN_CreateIndirect, NULL          , GUI_ID_DROPDOWN1,  44,  20,  74, 110, 0, 3},
     24          	{ DROPDOWN_CreateIndirect, NULL          , GUI_ID_DROPDOWN2, 124,  20,  74, 110, 0, 3},
     25          	{ DROPDOWN_CreateIndirect, NULL          , GUI_ID_DROPDOWN3, 204,  20,  74, 110, 0, 3},
     26          //	{ TEXT_CreateIndirect, "unit"               ,  GUI_ID_TEXT1,   4,  40,  40,  15, TEXT_CF_LEFT },
     27          	{ TEXT_CreateIndirect, "unit"               ,  GUI_ID_TEXT2,  48,  40,  74,  15, TEXT_CF_LEFT},
     28          	{ TEXT_CreateIndirect, "unit"               ,  GUI_ID_TEXT3, 128,  40,  74,  15, TEXT_CF_LEFT},
     29          	{ TEXT_CreateIndirect, "unit"               ,  GUI_ID_TEXT4, 208,  40,  74,  15, TEXT_CF_LEFT},
     30          
     31          	{ TEXT_CreateIndirect,"Common input for all Ballast tanks"       , GUI_ID_TEXT20,   6,  64, 230, 15, TEXT_CF_LEFT},
     32          	{ TEXT_CreateIndirect,"Density"             , GUI_ID_TEXT21,   6,  84,  60, 15, TEXT_CF_LEFT},
     33          	{ EDIT_CreateIndirect, NULL                 , GUI_ID_EDIT21,  70,  84,  50, 15, GUI_TA_RIGHT, 20},
     34          	{ TEXT_CreateIndirect,"unit"                , GUI_ID_TEXT22, 122,  84,  50, 15, TEXT_CF_LEFT},
     35          
     36          	//{ CHECKBOX_CreateIndirect, NULL  , GUI_ID_CHECK1,  10,  20,   0, 0 },
     37          	//{ CHECKBOX_CreateIndirect, NULL  , GUI_ID_CHECK2,  10,  39,   0, 0 },
     38          
     39          };
     40          
     41          

   \                                 In segment CODE, align 4, keep-with-next
     42          void TDUAppWinSetup::ExecDialogBox(WM_HWIN hCurrentWin)
     43          {
   \                     ??ExecDialogBox:
   \   00000000   10402DE9           PUSH     {R4,LR}
   \   00000004   0040A0E1           MOV      R4,R0
     44          	if ( AppWinSetupDiaIsClosed ) {
   \   00000008   ........           LDR      R0,??DataTable18  ;; AppWinSetupDiaIsClosed
   \   0000000C   0020D0E5           LDRB     R2,[R0, #+0]
   \   00000010   000052E3           CMP      R2,#+0
   \   00000014   2100000A           BEQ      ??ExecDialogBox_1
     45          		AppWinSetupDiaIsClosed = false;
   \   00000018   0020A0E3           MOV      R2,#+0
   \   0000001C   0020C0E5           STRB     R2,[R0, #+0]
     46          		//	WinHandl = GUI_ExecDialogBox(aDialogCreate, GUI_COUNTOF(aDialogCreate),&cbTankSetup,
     47          		//												hCurrentWin, 0, 0);
     48          		WinHandl = GUI_CreateDialogBox(aDialogCreate, GUI_COUNTOF(aDialogCreate),&cbTankSetup,
     49          									   hCurrentWin, 0, 0);
   \   00000020   88209FE5           LDR      R2,??ExecDialogBox_2  ;; ??cbTankSetup
   \   00000024   0000A0E3           MOV      R0,#+0
   \   00000028   01002DE9           PUSH     {R0}
   \   0000002C   01002DE9           PUSH     {R0}
   \   00000030   7C009FE5           LDR      R0,??ExecDialogBox_2+0x4  ;; ??aDialogCreate
   \   00000034   0130A0E1           MOV      R3,R1
   \   00000038   1110A0E3           MOV      R1,#+17
   \   0000003C   ........           _BLF     GUI_CreateDialogBox,??GUI_CreateDialogBox??rA
   \   00000040   BA02C4E1           STRH     R0,[R4, #+42]
     50          		DROPDOWN_SetAutoScroll( WM_GetDialogItem(WinHandl, GUI_ID_DROPDOWN1), 1 );
   \   00000044   8110A0E3           MOV      R1,#+129
   \   00000048   401F81E3           ORR      R1,R1,#0x100
   \   0000004C   ........           _BLF     WM_GetDialogItem,??WM_GetDialogItem??rA
   \   00000050   0110A0E3           MOV      R1,#+1
   \   00000054   ........           _BLF     DROPDOWN_SetAutoScroll,??DROPDOWN_SetAutoScroll??rA
     51          		DROPDOWN_SetAutoScroll( WM_GetDialogItem(WinHandl, GUI_ID_DROPDOWN2), 1 );
   \   00000058   FA02D4E1           LDRSH    R0,[R4, #+42]
   \   0000005C   8210A0E3           MOV      R1,#+130
   \   00000060   401F81E3           ORR      R1,R1,#0x100
   \   00000064   ........           _BLF     WM_GetDialogItem,??WM_GetDialogItem??rA
   \   00000068   0110A0E3           MOV      R1,#+1
   \   0000006C   ........           _BLF     DROPDOWN_SetAutoScroll,??DROPDOWN_SetAutoScroll??rA
     52          		DROPDOWN_SetAutoScroll( WM_GetDialogItem(WinHandl, GUI_ID_DROPDOWN3), 1 );
   \   00000070   FA02D4E1           LDRSH    R0,[R4, #+42]
   \   00000074   8310A0E3           MOV      R1,#+131
   \   00000078   401F81E3           ORR      R1,R1,#0x100
   \   0000007C   ........           _BLF     WM_GetDialogItem,??WM_GetDialogItem??rA
   \   00000080   0110A0E3           MOV      R1,#+1
   \   00000084   ........           _BLF     DROPDOWN_SetAutoScroll,??DROPDOWN_SetAutoScroll??rA
     53          		WM_EnableMemdev(WinHandl);
   \   00000088   FA02D4E1           LDRSH    R0,[R4, #+42]
   \   0000008C   ........           _BLF     WM_EnableMemdev,??WM_EnableMemdev??rA
     54          		GetDialogHandles();
   \   00000090   0400A0E1           MOV      R0,R4
   \   00000094   ........           BL       ??GetDialogHandles
   \   00000098   08D08DE2           ADD      SP,SP,#+8
   \   0000009C   010000EA           B        ??ExecDialogBox_3
     55          	} else {
     56          		WM_BringToTop(WinHandl);
   \                     ??ExecDialogBox_1:
   \   000000A0   FA02D4E1           LDRSH    R0,[R4, #+42]
   \   000000A4   ........           _BLF     WM_BringToTop,??WM_BringToTop??rA
     57          	}
     58          }
   \                     ??ExecDialogBox_3:
   \   000000A8   1040BDE8           POP      {R4,LR}
   \   000000AC   1EFF2FE1           BX       LR               ;; return
   \                     ??ExecDialogBox_2:
   \   000000B0   ........           DC32     ??cbTankSetup
   \   000000B4   ........           DC32     ??aDialogCreate
     59          
     60          /*********************************************************************
     61          *
     62          * Dialog procedure
     63          */

   \                                 In segment CODE, align 4, keep-with-next
     64          void TDUAppWinSetup::GetDialogHandles(void)
     65          {
   \                     ??GetDialogHandles:
   \   00000000   10402DE9           PUSH     {R4,LR}
   \   00000004   0040A0E1           MOV      R4,R0
     66          	/* Get window handles for all widgets */
     67          	hDropdCol2      = WM_GetDialogItem(WinHandl, GUI_ID_DROPDOWN1);
   \   00000008   FA02D4E1           LDRSH    R0,[R4, #+42]
   \   0000000C   8110A0E3           MOV      R1,#+129
   \   00000010   401F81E3           ORR      R1,R1,#0x100
   \   00000014   ........           _BLF     WM_GetDialogItem,??WM_GetDialogItem??rA
   \   00000018   B403C4E1           STRH     R0,[R4, #+52]
     68          	hDropdCol3      = WM_GetDialogItem(WinHandl, GUI_ID_DROPDOWN2);
   \   0000001C   FA02D4E1           LDRSH    R0,[R4, #+42]
   \   00000020   8210A0E3           MOV      R1,#+130
   \   00000024   401F81E3           ORR      R1,R1,#0x100
   \   00000028   ........           _BLF     WM_GetDialogItem,??WM_GetDialogItem??rA
   \   0000002C   B603C4E1           STRH     R0,[R4, #+54]
     69          	hDropdCol4      = WM_GetDialogItem(WinHandl, GUI_ID_DROPDOWN3);
   \   00000030   FA02D4E1           LDRSH    R0,[R4, #+42]
   \   00000034   8310A0E3           MOV      R1,#+131
   \   00000038   401F81E3           ORR      R1,R1,#0x100
   \   0000003C   ........           _BLF     WM_GetDialogItem,??WM_GetDialogItem??rA
   \   00000040   B803C4E1           STRH     R0,[R4, #+56]
     70          	hTextUnitCol2   = WM_GetDialogItem(WinHandl, GUI_ID_TEXT2);
   \   00000044   FA02D4E1           LDRSH    R0,[R4, #+42]
   \   00000048   6210A0E3           MOV      R1,#+98
   \   0000004C   401F81E3           ORR      R1,R1,#0x100
   \   00000050   ........           _BLF     WM_GetDialogItem,??WM_GetDialogItem??rA
   \   00000054   BA03C4E1           STRH     R0,[R4, #+58]
     71          	hTextUnitCol3   = WM_GetDialogItem(WinHandl, GUI_ID_TEXT3);
   \   00000058   FA02D4E1           LDRSH    R0,[R4, #+42]
   \   0000005C   6310A0E3           MOV      R1,#+99
   \   00000060   401F81E3           ORR      R1,R1,#0x100
   \   00000064   ........           _BLF     WM_GetDialogItem,??WM_GetDialogItem??rA
   \   00000068   BC03C4E1           STRH     R0,[R4, #+60]
     72          	hTextUnitCol4   = WM_GetDialogItem(WinHandl, GUI_ID_TEXT4);
   \   0000006C   FA02D4E1           LDRSH    R0,[R4, #+42]
   \   00000070   591FA0E3           MOV      R1,#+356
   \   00000074   ........           _BLF     WM_GetDialogItem,??WM_GetDialogItem??rA
   \   00000078   BE03C4E1           STRH     R0,[R4, #+62]
     73          	hTextWarning    = WM_GetDialogItem(WinHandl, GUI_ID_TEXT20);
   \   0000007C   FA02D4E1           LDRSH    R0,[R4, #+42]
   \   00000080   0810A0E3           MOV      R1,#+8
   \   00000084   A01E81E3           ORR      R1,R1,#0xA00
   \   00000088   ........           _BLF     WM_GetDialogItem,??WM_GetDialogItem??rA
   \   0000008C   B004C4E1           STRH     R0,[R4, #+64]
     74          	hTextSimDens    = WM_GetDialogItem(WinHandl, GUI_ID_TEXT21);
   \   00000090   FA02D4E1           LDRSH    R0,[R4, #+42]
   \   00000094   0910A0E3           MOV      R1,#+9
   \   00000098   A01E81E3           ORR      R1,R1,#0xA00
   \   0000009C   ........           _BLF     WM_GetDialogItem,??WM_GetDialogItem??rA
   \   000000A0   B404C4E1           STRH     R0,[R4, #+68]
     75          	hEditSimDens    = WM_GetDialogItem(WinHandl, GUI_ID_EDIT21);
   \   000000A4   FA02D4E1           LDRSH    R0,[R4, #+42]
   \   000000A8   6D10A0E3           MOV      R1,#+109
   \   000000AC   A01E81E3           ORR      R1,R1,#0xA00
   \   000000B0   ........           _BLF     WM_GetDialogItem,??WM_GetDialogItem??rA
   \   000000B4   B204C4E1           STRH     R0,[R4, #+66]
     76          	hTextSimDensUnit= WM_GetDialogItem(WinHandl, GUI_ID_TEXT22);
   \   000000B8   FA02D4E1           LDRSH    R0,[R4, #+42]
   \   000000BC   0A10A0E3           MOV      R1,#+10
   \   000000C0   A01E81E3           ORR      R1,R1,#0xA00
   \   000000C4   ........           _BLF     WM_GetDialogItem,??WM_GetDialogItem??rA
   \   000000C8   B604C4E1           STRH     R0,[R4, #+70]
     77          	InitDialog();
   \   000000CC   0400A0E1           MOV      R0,R4
   \   000000D0   ........           BL       ??InitDialog
     78          }
   \   000000D4   1040BDE8           POP      {R4,LR}
   \   000000D8   1EFF2FE1           BX       LR               ;; return
     79          

   \                                 In segment CODE, align 4, keep-with-next
     80          void TDUAppWinSetup::InitDialog(void)
     81          {
   \                     ??InitDialog:
   \   00000000   F0472DE9           PUSH     {R4-R10,LR}
   \   00000004   C4D04DE2           SUB      SP,SP,#+196
   \   00000008   0040A0E1           MOV      R4,R0
   \   0000000C   020000EA           B        ??InitDialog_2
     82          	/* Initialize all widgets */
     83          	while ( DROPDOWN_GetNumItems(hDropdCol2)>0 ) {
     84          		DROPDOWN_DeleteItem(hDropdCol2, 0);
   \                     ??InitDialog_3:
   \   00000010   F403D4E1           LDRSH    R0,[R4, #+52]
   \   00000014   0010A0E3           MOV      R1,#+0
   \   00000018   ........           _BLF     DROPDOWN_DeleteItem,??DROPDOWN_DeleteItem??rA
     85          	}
   \                     ??InitDialog_2:
   \   0000001C   F403D4E1           LDRSH    R0,[R4, #+52]
   \   00000020   ........           _BLF     DROPDOWN_GetNumItems,??DROPDOWN_GetNumItems??rA
   \   00000024   010050E3           CMP      R0,#+1
   \   00000028   F8FFFFAA           BGE      ??InitDialog_3
     86          	while ( DROPDOWN_GetNumItems(hDropdCol3)>0 ) {
   \                     ??InitDialog_4:
   \   0000002C   F603D4E1           LDRSH    R0,[R4, #+54]
   \   00000030   ........           _BLF     DROPDOWN_GetNumItems,??DROPDOWN_GetNumItems??rA
   \   00000034   010050E3           CMP      R0,#+1
   \   00000038   060000BA           BLT      ??InitDialog_5
     87          		DROPDOWN_DeleteItem(hDropdCol3, 0);
   \   0000003C   F603D4E1           LDRSH    R0,[R4, #+54]
   \   00000040   0010A0E3           MOV      R1,#+0
   \   00000044   ........           _BLF     DROPDOWN_DeleteItem,??DROPDOWN_DeleteItem??rA
   \   00000048   F7FFFFEA           B        ??InitDialog_4
     88          	}
     89          	while ( DROPDOWN_GetNumItems(hDropdCol4)>0 ) {
     90          		DROPDOWN_DeleteItem(hDropdCol4, 0);
   \                     ??InitDialog_6:
   \   0000004C   F803D4E1           LDRSH    R0,[R4, #+56]
   \   00000050   0010A0E3           MOV      R1,#+0
   \   00000054   ........           _BLF     DROPDOWN_DeleteItem,??DROPDOWN_DeleteItem??rA
     91          	}
   \                     ??InitDialog_5:
   \   00000058   F803D4E1           LDRSH    R0,[R4, #+56]
   \   0000005C   ........           _BLF     DROPDOWN_GetNumItems,??DROPDOWN_GetNumItems??rA
   \   00000060   010050E3           CMP      R0,#+1
   \   00000064   F8FFFFAA           BGE      ??InitDialog_6
     92          	int ind1 = 0;
     93          	int ind2 = 0;
     94          	int ind3 = 0;
     95          	switch ( CurrentWinID ) {
   \   00000068   ........           LDR      R0,??DataTable10  ;; CurrentWinID
   \   0000006C   B0589FE5           LDR      R5,??InitDialog_7  ;; `?<Constant {{2202, 0, 69}, {5, 0, 18}, {2558, `
   \   00000070   000090E5           LDR      R0,[R0, #+0]
   \   00000074   0060A0E3           MOV      R6,#+0
   \   00000078   0070A0E3           MOV      R7,#+0
   \   0000007C   0680A0E1           MOV      R8,R6
   \   00000080   6F0040E2           SUB      R0,R0,#+111
   \   00000084   800E40E2           SUB      R0,R0,#+2048
   \   00000088   0A0050E3           CMP      R0,#+10
   \   0000008C   1100008A           BHI      ??InitDialog_8
   \   00000090   021F8FE2           ADR      R1,??InitDialog_1
   \   00000094   8000A0E1           MOV      R0,R0, LSL #+1
   \   00000098   B01091E1           LDRH     R1,[R1, R0]
   \   0000009C   01F18FE0           ADD      PC,PC,R1, LSL #+2
   \                     ??InitDialog_1:
   \   000000A0   0500AD00F900       DC16     +5,+173,+249,+322
   \              4201        
   \   000000A8   0D008B010D00       DC16     +13,+395,+13,+13
   \              0D00        
   \   000000B0   0D00D4016400       DC16     +13,+468,+100,+0
   \              0000        
     96          	case TDU_CARGO_WIN:
     97          		{
     98          			int SizeOfTankValueList;
     99          			TankValueList = PROCargoTank::GetValueInfoTableStatic(SizeOfTankValueList,TAB_TANK_VALUES);
   \                     ??InitDialog_9:
   \   000000B8   0010A0E3           MOV      R1,#+0
   \   000000BC   0D00A0E1           MOV      R0,SP
   \   000000C0   ........           _BLF     ??GetValueInfoTableStatic,??GetValueInfoTableStatic??rA
   \   000000C4   480084E5           STR      R0,[R4, #+72]
    100          			for ( int i = 0; i < SizeOfTankValueList; i++ ) {
   \   000000C8   00009DE5           LDR      R0,[SP, #+0]
   \   000000CC   0690A0E1           MOV      R9,R6
   \   000000D0   010050E3           CMP      R0,#+1
   \   000000D4   2C0000AA           BGE      ??InitDialog_10
    101          				DROPDOWN_AddString(hDropdCol2, FindDictionaryWord(TankValueList[i].Name).c_str());
    102          				DROPDOWN_AddString(hDropdCol3, FindDictionaryWord(TankValueList[i].Name).c_str());
    103          				DROPDOWN_AddString(hDropdCol4, FindDictionaryWord(TankValueList[i].Name).c_str());
    104          				if ( TankValueList[i].Value==CargoWindow->ValueTable[2].ValueId )ind1=i;
    105          				if ( TankValueList[i].Value==CargoWindow->ValueTable[3].ValueId )ind2=i;
    106          				if ( TankValueList[i].Value==CargoWindow->ValueTable[4].ValueId )ind3=i;
    107          			}
    108          		}
    109          		break;
    110          	case TDU_TANKFARM_WIN:
    111          		{
    112          			int SizeOfTankValueList;
    113          			TankValueList = PROCargoTank::GetValueInfoTableStatic(SizeOfTankValueList,TAB_TANK_VALUES);
    114          			for ( int i = 0; i < SizeOfTankValueList; i++ ) {
    115          				DROPDOWN_AddString(hDropdCol2, FindDictionaryWord(TankValueList[i].Name).c_str());
    116          				DROPDOWN_AddString(hDropdCol3, FindDictionaryWord(TankValueList[i].Name).c_str());
    117          				DROPDOWN_AddString(hDropdCol4, FindDictionaryWord(TankValueList[i].Name).c_str());
    118          				if ( TankValueList[i].Value==TankFarmWindow->ValueTable[2].ValueId )ind1=i;
    119          				if ( TankValueList[i].Value==TankFarmWindow->ValueTable[3].ValueId )ind2=i;
    120          				if ( TankValueList[i].Value==TankFarmWindow->ValueTable[4].ValueId )ind3=i;
    121          			}
    122          		}
    123          		break;
    124          	case TDU_BALLAST_WIN:
    125          		{
    126          			int SizeOfTankValueList;
    127          			TankValueList = PROBallastTank::GetValueInfoTableStatic(SizeOfTankValueList,TAB_TANK_VALUES);
    128          			for ( int i = 0; i < SizeOfTankValueList; i++ ) {
    129          				DROPDOWN_AddString(hDropdCol2, FindDictionaryWord(TankValueList[i].Name).c_str());
    130          				DROPDOWN_AddString(hDropdCol3, FindDictionaryWord(TankValueList[i].Name).c_str());
    131          				DROPDOWN_AddString(hDropdCol4, FindDictionaryWord(TankValueList[i].Name).c_str());
    132          				if ( TankValueList[i].Value==BallastWindow->ValueTable[2].ValueId )ind1=i;
    133          				if ( TankValueList[i].Value==BallastWindow->ValueTable[3].ValueId )ind2=i;
    134          				if ( TankValueList[i].Value==BallastWindow->ValueTable[4].ValueId )ind3=i;
    135          				TEXT_SetText(hTextWarning,"Common input for all Ballast tanks");
    136          			}
    137          		}
    138          		break;
    139          	case TDU_SERVICE_WIN:
    140          		{
    141          			int SizeOfTankValueList;
    142          			TankValueList = PROServiceTank::GetValueInfoTableStatic(SizeOfTankValueList,TAB_TANK_VALUES);
    143          			for ( int i = 0; i < SizeOfTankValueList; i++ ) {
    144          				DROPDOWN_AddString(hDropdCol2, FindDictionaryWord(TankValueList[i].Name).c_str());
    145          				DROPDOWN_AddString(hDropdCol3, FindDictionaryWord(TankValueList[i].Name).c_str());
    146          				DROPDOWN_AddString(hDropdCol4, FindDictionaryWord(TankValueList[i].Name).c_str());
    147          				if ( TankValueList[i].Value==ServiceWindow->ValueTable[2].ValueId )ind1=i;
    148          				if ( TankValueList[i].Value==ServiceWindow->ValueTable[3].ValueId )ind2=i;
    149          				if ( TankValueList[i].Value==ServiceWindow->ValueTable[4].ValueId )ind3=i;
    150          			}
    151          		}
    152          		break;
    153          	case TDU_TANKPRESS_WIN:
    154          		{
    155          			int SizeOfTankValueList;
    156          			TankValueList = PROTankPressure::GetValueInfoTableStatic(SizeOfTankValueList,TAB_TANK_VALUES);
    157          			for ( int i = 0; i < SizeOfTankValueList; i++ ) {
    158          				DROPDOWN_AddString(hDropdCol2, FindDictionaryWord(TankValueList[i].Name).c_str());
    159          				DROPDOWN_AddString(hDropdCol3, FindDictionaryWord(TankValueList[i].Name).c_str());
    160          				DROPDOWN_AddString(hDropdCol4, FindDictionaryWord(TankValueList[i].Name).c_str());
    161          				if ( TankValueList[i].Value==TankPressWindow->ValueTable[2].ValueId )ind1=i;
    162          				if ( TankValueList[i].Value==TankPressWindow->ValueTable[3].ValueId )ind2=i;
    163          				if ( TankValueList[i].Value==TankPressWindow->ValueTable[4].ValueId )ind3=i;
    164          			}
    165          		}
    166          		break;
    167          	case TDU_TEMP_WIN:
    168          		{
    169          			int SizeOfTankValueList;
    170          			TankValueList = PROTemperature::GetValueInfoTableStatic(SizeOfTankValueList,TAB_TANK_VALUES);
    171          			for ( int i = 0; i < SizeOfTankValueList; i++ ) {
    172          				DROPDOWN_AddString(hDropdCol2, FindDictionaryWord(TankValueList[i].Name).c_str());
    173          				DROPDOWN_AddString(hDropdCol3, FindDictionaryWord(TankValueList[i].Name).c_str());
    174          				DROPDOWN_AddString(hDropdCol4, FindDictionaryWord(TankValueList[i].Name).c_str());
    175          				if ( TankValueList[i].Value==TempWindow->ValueTable[2].ValueId )ind1=i;
    176          				if ( TankValueList[i].Value==TempWindow->ValueTable[3].ValueId )ind2=i;
    177          				if ( TankValueList[i].Value==TempWindow->ValueTable[4].ValueId )ind3=i;
    178          			}
    179          		}
    180          		break;
    181          	case TDU_VOIDSPACE_WIN:
    182          		{
    183          			int SizeOfTankValueList;
    184          			TankValueList = PROVoidSpace::GetValueInfoTableStatic(SizeOfTankValueList,TAB_TANK_VALUES);
    185          			for ( int i = 0; i < SizeOfTankValueList; i++ ) {
    186          				DROPDOWN_AddString(hDropdCol2, FindDictionaryWord(TankValueList[i].Name).c_str());
    187          				DROPDOWN_AddString(hDropdCol3, FindDictionaryWord(TankValueList[i].Name).c_str());
    188          				DROPDOWN_AddString(hDropdCol4, FindDictionaryWord(TankValueList[i].Name).c_str());
    189          				if ( TankValueList[i].Value==VoidSpaceWindow->ValueTable[2].ValueId )ind1=i;
    190          				if ( TankValueList[i].Value==VoidSpaceWindow->ValueTable[3].ValueId )ind2=i;
    191          				if ( TankValueList[i].Value==VoidSpaceWindow->ValueTable[4].ValueId )ind3=i;
    192          				TEXT_SetText(hTextWarning,"Common input for all Void spaces");
    193          			}
    194          		}
    195          		break;
    196          	case TDU_LINEPRESS_WIN:
    197          	case TDU_LEVELSWITCH_WIN:
    198          	case TDU_WATERINGR_WIN:
    199          	default:
    200          		break;
    201          	}
    202          	DROPDOWN_SetSel(hDropdCol2,ind1);
   \                     ??InitDialog_8:
   \   000000D8   F403D4E1           LDRSH    R0,[R4, #+52]
   \   000000DC   0610A0E1           MOV      R1,R6
   \   000000E0   ........           _BLF     DROPDOWN_SetSel,??DROPDOWN_SetSel??rA
    203          	DROPDOWN_SetSel(hDropdCol3,ind2);
   \   000000E4   F603D4E1           LDRSH    R0,[R4, #+54]
   \   000000E8   0710A0E1           MOV      R1,R7
   \   000000EC   ........           _BLF     DROPDOWN_SetSel,??DROPDOWN_SetSel??rA
    204          	DROPDOWN_SetSel(hDropdCol4,ind3);
   \   000000F0   F803D4E1           LDRSH    R0,[R4, #+56]
   \   000000F4   0810A0E1           MOV      R1,R8
   \   000000F8   ........           _BLF     DROPDOWN_SetSel,??DROPDOWN_SetSel??rA
    205          	{
    206          		const GUIKey Words[] ={
    207          			{TDU_APPSETUP_WIN   ,0,L_WORD69},
    208          			{GUI_ID_CLOSE       ,0,L_WORD18},
    209          			{GUI_ID_TEXT10      ,0,L_WORD70},
    210          			{GUI_ID_TEXT11      ,0,L_WORD71},
    211          			{GUI_ID_TEXT12      ,0,L_WORD72},
    212          			{GUI_ID_TEXT13      ,0,L_WORD73},
    213          			{GUI_ID_TEXT14      ,0,L_WORD74},
    214          			{GUI_ID_TEXT20      ,0,L_WORD82},
    215          			{GUI_ID_TEXT21      ,0,L_WORD83},
    216          		};
   \   000000FC   58008DE2           ADD      R0,SP,#+88
   \   00000100   6C20A0E3           MOV      R2,#+108
   \                     ??InitDialog_11:
   \   00000104   042052E2           SUBS     R2,R2,#+4
   \   00000108   021095E7           LDR      R1,[R5, R2]
   \   0000010C   021080E7           STR      R1,[R0, R2]
   \   00000110   FBFFFF1A           BNE      ??InitDialog_11
    217          		AddToSKeyList((GUIKey*)Words,NELEMENTS(Words));
   \   00000114   0130A0E3           MOV      R3,#+1
   \   00000118   0920A0E3           MOV      R2,#+9
   \   0000011C   58108DE2           ADD      R1,SP,#+88
   \   00000120   0400A0E1           MOV      R0,R4
   \   00000124   ........           _BLF     ??AddToSKeyList,??AddToSKeyList??rA
    218          	}
    219          }
   \   00000128   C4D08DE2           ADD      SP,SP,#+196
   \   0000012C   F047BDE8           POP      {R4-R10,LR}
   \   00000130   1EFF2FE1           BX       LR               ;; return
   \                     ??InitDialog_12:
   \   00000134   F803D4E1           LDRSH    R0,[R4, #+56]
   \   00000138   ........           _BLF     DROPDOWN_AddString,??DROPDOWN_AddString??rA
   \   0000013C   0020A0E3           MOV      R2,#+0
   \   00000140   0110A0E3           MOV      R1,#+1
   \   00000144   04008DE2           ADD      R0,SP,#+4
   \   00000148   ........           _BLF     ??_Tidy,??_Tidy??rA
   \   0000014C   ........           LDR      R0,??DataTable11  ;; CargoWindow
   \   00000150   481094E5           LDR      R1,[R4, #+72]
   \   00000154   000090E5           LDR      R0,[R0, #+0]
   \   00000158   01108AE0           ADD      R1,R10,R1
   \   0000015C   7C0090E5           LDR      R0,[R0, #+124]
   \   00000160   082091E5           LDR      R2,[R1, #+8]
   \   00000164   183090E5           LDR      R3,[R0, #+24]
   \   00000168   030052E1           CMP      R2,R3
   \   0000016C   243090E5           LDR      R3,[R0, #+36]
   \   00000170   300090E5           LDR      R0,[R0, #+48]
   \   00000174   0960A001           MOVEQ    R6,R9
   \   00000178   030052E1           CMP      R2,R3
   \   0000017C   0970A001           MOVEQ    R7,R9
   \   00000180   000052E1           CMP      R2,R0
   \   00000184   0980A001           MOVEQ    R8,R9
   \   00000188   019089E2           ADD      R9,R9,#+1
   \                     ??InitDialog_10:
   \   0000018C   00009DE5           LDR      R0,[SP, #+0]
   \   00000190   000059E1           CMP      R9,R0
   \   00000194   CFFFFFAA           BGE      ??InitDialog_8
   \   00000198   0C00A0E3           MOV      R0,#+12
   \   0000019C   90090AE0           MUL      R10,R0,R9
   \   000001A0   480094E5           LDR      R0,[R4, #+72]
   \   000001A4   00109AE7           LDR      R1,[R10, +R0]
   \   000001A8   20008DE2           ADD      R0,SP,#+32
   \   000001AC   ........           _BLF     ??FindDictionaryWord,??FindDictionaryWord??rA
   \   000001B0   38009DE5           LDR      R0,[SP, #+56]
   \   000001B4   100050E3           CMP      R0,#+16
   \   000001B8   F403D4E1           LDRSH    R0,[R4, #+52]
   \   000001BC   24109D25           LDRCS    R1,[SP, #+36]
   \   000001C0   24108D32           ADDCC    R1,SP,#+36
   \   000001C4   ........           _BLF     DROPDOWN_AddString,??DROPDOWN_AddString??rA
   \   000001C8   0020A0E3           MOV      R2,#+0
   \   000001CC   0110A0E3           MOV      R1,#+1
   \   000001D0   20008DE2           ADD      R0,SP,#+32
   \   000001D4   ........           _BLF     ??_Tidy,??_Tidy??rA
   \   000001D8   480094E5           LDR      R0,[R4, #+72]
   \   000001DC   00109AE7           LDR      R1,[R10, +R0]
   \   000001E0   3C008DE2           ADD      R0,SP,#+60
   \   000001E4   ........           _BLF     ??FindDictionaryWord,??FindDictionaryWord??rA
   \   000001E8   54009DE5           LDR      R0,[SP, #+84]
   \   000001EC   100050E3           CMP      R0,#+16
   \   000001F0   F603D4E1           LDRSH    R0,[R4, #+54]
   \   000001F4   40109D25           LDRCS    R1,[SP, #+64]
   \   000001F8   40108D32           ADDCC    R1,SP,#+64
   \   000001FC   ........           _BLF     DROPDOWN_AddString,??DROPDOWN_AddString??rA
   \   00000200   0020A0E3           MOV      R2,#+0
   \   00000204   0110A0E3           MOV      R1,#+1
   \   00000208   3C008DE2           ADD      R0,SP,#+60
   \   0000020C   ........           _BLF     ??_Tidy,??_Tidy??rA
   \   00000210   480094E5           LDR      R0,[R4, #+72]
   \   00000214   00109AE7           LDR      R1,[R10, +R0]
   \   00000218   04008DE2           ADD      R0,SP,#+4
   \   0000021C   ........           _BLF     ??FindDictionaryWord,??FindDictionaryWord??rA
   \   00000220   1C009DE5           LDR      R0,[SP, #+28]
   \   00000224   100050E3           CMP      R0,#+16
   \   00000228   08109D25           LDRCS    R1,[SP, #+8]
   \   0000022C   08108D32           ADDCC    R1,SP,#+8
   \   00000230   BFFFFFEA           B        ??InitDialog_12
   \                     ??InitDialog_13:
   \   00000234   0010A0E3           MOV      R1,#+0
   \   00000238   0D00A0E1           MOV      R0,SP
   \   0000023C   ........           _BLF     ??GetValueInfoTableStatic,??GetValueInfoTableStatic??rA
   \   00000240   480084E5           STR      R0,[R4, #+72]
   \   00000244   00009DE5           LDR      R0,[SP, #+0]
   \   00000248   0690A0E1           MOV      R9,R6
   \   0000024C   010050E3           CMP      R0,#+1
   \   00000250   160000AA           BGE      ??InitDialog_14
   \   00000254   9FFFFFEA           B        ??InitDialog_8
   \                     ??InitDialog_15:
   \   00000258   F803D4E1           LDRSH    R0,[R4, #+56]
   \   0000025C   ........           _BLF     DROPDOWN_AddString,??DROPDOWN_AddString??rA
   \   00000260   0020A0E3           MOV      R2,#+0
   \   00000264   0110A0E3           MOV      R1,#+1
   \   00000268   3C008DE2           ADD      R0,SP,#+60
   \   0000026C   ........           _BLF     ??_Tidy,??_Tidy??rA
   \   00000270   ........           LDR      R0,??DataTable12  ;; TankFarmWindow
   \   00000274   481094E5           LDR      R1,[R4, #+72]
   \   00000278   000090E5           LDR      R0,[R0, #+0]
   \   0000027C   01108AE0           ADD      R1,R10,R1
   \   00000280   7C0090E5           LDR      R0,[R0, #+124]
   \   00000284   082091E5           LDR      R2,[R1, #+8]
   \   00000288   183090E5           LDR      R3,[R0, #+24]
   \   0000028C   030052E1           CMP      R2,R3
   \   00000290   243090E5           LDR      R3,[R0, #+36]
   \   00000294   300090E5           LDR      R0,[R0, #+48]
   \   00000298   0960A001           MOVEQ    R6,R9
   \   0000029C   030052E1           CMP      R2,R3
   \   000002A0   0970A001           MOVEQ    R7,R9
   \   000002A4   000052E1           CMP      R2,R0
   \   000002A8   0980A001           MOVEQ    R8,R9
   \   000002AC   019089E2           ADD      R9,R9,#+1
   \                     ??InitDialog_14:
   \   000002B0   00009DE5           LDR      R0,[SP, #+0]
   \   000002B4   000059E1           CMP      R9,R0
   \   000002B8   86FFFFAA           BGE      ??InitDialog_8
   \   000002BC   0C00A0E3           MOV      R0,#+12
   \   000002C0   90090AE0           MUL      R10,R0,R9
   \   000002C4   480094E5           LDR      R0,[R4, #+72]
   \   000002C8   00109AE7           LDR      R1,[R10, +R0]
   \   000002CC   20008DE2           ADD      R0,SP,#+32
   \   000002D0   ........           _BLF     ??FindDictionaryWord,??FindDictionaryWord??rA
   \   000002D4   38009DE5           LDR      R0,[SP, #+56]
   \   000002D8   100050E3           CMP      R0,#+16
   \   000002DC   F403D4E1           LDRSH    R0,[R4, #+52]
   \   000002E0   24109D25           LDRCS    R1,[SP, #+36]
   \   000002E4   24108D32           ADDCC    R1,SP,#+36
   \   000002E8   ........           _BLF     DROPDOWN_AddString,??DROPDOWN_AddString??rA
   \   000002EC   0020A0E3           MOV      R2,#+0
   \   000002F0   0110A0E3           MOV      R1,#+1
   \   000002F4   20008DE2           ADD      R0,SP,#+32
   \   000002F8   ........           _BLF     ??_Tidy,??_Tidy??rA
   \   000002FC   480094E5           LDR      R0,[R4, #+72]
   \   00000300   00109AE7           LDR      R1,[R10, +R0]
   \   00000304   04008DE2           ADD      R0,SP,#+4
   \   00000308   ........           _BLF     ??FindDictionaryWord,??FindDictionaryWord??rA
   \   0000030C   1C009DE5           LDR      R0,[SP, #+28]
   \   00000310   100050E3           CMP      R0,#+16
   \   00000314   F603D4E1           LDRSH    R0,[R4, #+54]
   \   00000318   08109D25           LDRCS    R1,[SP, #+8]
   \   0000031C   08108D32           ADDCC    R1,SP,#+8
   \   00000320   ........           _BLF     DROPDOWN_AddString,??DROPDOWN_AddString??rA
   \   00000324   0020A0E3           MOV      R2,#+0
   \   00000328   0110A0E3           MOV      R1,#+1
   \   0000032C   04008DE2           ADD      R0,SP,#+4
   \   00000330   ........           _BLF     ??_Tidy,??_Tidy??rA
   \   00000334   480094E5           LDR      R0,[R4, #+72]
   \   00000338   00109AE7           LDR      R1,[R10, +R0]
   \   0000033C   3C008DE2           ADD      R0,SP,#+60
   \   00000340   ........           _BLF     ??FindDictionaryWord,??FindDictionaryWord??rA
   \   00000344   54009DE5           LDR      R0,[SP, #+84]
   \   00000348   100050E3           CMP      R0,#+16
   \   0000034C   40109D25           LDRCS    R1,[SP, #+64]
   \   00000350   40108D32           ADDCC    R1,SP,#+64
   \   00000354   BFFFFFEA           B        ??InitDialog_15
   \                     ??InitDialog_16:
   \   00000358   0010A0E3           MOV      R1,#+0
   \   0000035C   0D00A0E1           MOV      R0,SP
   \   00000360   ........           _BLF     ??GetValueInfoTableStatic_1,??GetValueInfoTableStatic??rA_1
   \   00000364   480084E5           STR      R0,[R4, #+72]
   \   00000368   00009DE5           LDR      R0,[SP, #+0]
   \   0000036C   0690A0E1           MOV      R9,R6
   \   00000370   010050E3           CMP      R0,#+1
   \   00000374   190000AA           BGE      ??InitDialog_17
   \   00000378   56FFFFEA           B        ??InitDialog_8
   \                     ??InitDialog_18:
   \   0000037C   F803D4E1           LDRSH    R0,[R4, #+56]
   \   00000380   ........           _BLF     DROPDOWN_AddString,??DROPDOWN_AddString??rA
   \   00000384   0020A0E3           MOV      R2,#+0
   \   00000388   0110A0E3           MOV      R1,#+1
   \   0000038C   04008DE2           ADD      R0,SP,#+4
   \   00000390   ........           _BLF     ??_Tidy,??_Tidy??rA
   \   00000394   ........           LDR      R0,??DataTable13  ;; BallastWindow
   \   00000398   481094E5           LDR      R1,[R4, #+72]
   \   0000039C   000090E5           LDR      R0,[R0, #+0]
   \   000003A0   01108AE0           ADD      R1,R10,R1
   \   000003A4   7C0090E5           LDR      R0,[R0, #+124]
   \   000003A8   082091E5           LDR      R2,[R1, #+8]
   \   000003AC   183090E5           LDR      R3,[R0, #+24]
   \   000003B0   6C1085E2           ADD      R1,R5,#+108
   \   000003B4   030052E1           CMP      R2,R3
   \   000003B8   243090E5           LDR      R3,[R0, #+36]
   \   000003BC   300090E5           LDR      R0,[R0, #+48]
   \   000003C0   0960A001           MOVEQ    R6,R9
   \   000003C4   030052E1           CMP      R2,R3
   \   000003C8   0970A001           MOVEQ    R7,R9
   \   000003CC   000052E1           CMP      R2,R0
   \   000003D0   F004D4E1           LDRSH    R0,[R4, #+64]
   \   000003D4   0980A001           MOVEQ    R8,R9
   \   000003D8   019089E2           ADD      R9,R9,#+1
   \   000003DC   ........           _BLF     TEXT_SetText,??TEXT_SetText??rA
   \                     ??InitDialog_17:
   \   000003E0   00009DE5           LDR      R0,[SP, #+0]
   \   000003E4   000059E1           CMP      R9,R0
   \   000003E8   3AFFFFAA           BGE      ??InitDialog_8
   \   000003EC   0C00A0E3           MOV      R0,#+12
   \   000003F0   90090AE0           MUL      R10,R0,R9
   \   000003F4   480094E5           LDR      R0,[R4, #+72]
   \   000003F8   00109AE7           LDR      R1,[R10, +R0]
   \   000003FC   20008DE2           ADD      R0,SP,#+32
   \   00000400   ........           _BLF     ??FindDictionaryWord,??FindDictionaryWord??rA
   \   00000404   38009DE5           LDR      R0,[SP, #+56]
   \   00000408   100050E3           CMP      R0,#+16
   \   0000040C   F403D4E1           LDRSH    R0,[R4, #+52]
   \   00000410   24109D25           LDRCS    R1,[SP, #+36]
   \   00000414   24108D32           ADDCC    R1,SP,#+36
   \   00000418   ........           _BLF     DROPDOWN_AddString,??DROPDOWN_AddString??rA
   \   0000041C   0020A0E3           MOV      R2,#+0
   \   00000420   0110A0E3           MOV      R1,#+1
   \   00000424   20008DE2           ADD      R0,SP,#+32
   \   00000428   ........           _BLF     ??_Tidy,??_Tidy??rA
   \   0000042C   480094E5           LDR      R0,[R4, #+72]
   \   00000430   00109AE7           LDR      R1,[R10, +R0]
   \   00000434   3C008DE2           ADD      R0,SP,#+60
   \   00000438   ........           _BLF     ??FindDictionaryWord,??FindDictionaryWord??rA
   \   0000043C   54009DE5           LDR      R0,[SP, #+84]
   \   00000440   100050E3           CMP      R0,#+16
   \   00000444   F603D4E1           LDRSH    R0,[R4, #+54]
   \   00000448   40109D25           LDRCS    R1,[SP, #+64]
   \   0000044C   40108D32           ADDCC    R1,SP,#+64
   \   00000450   ........           _BLF     DROPDOWN_AddString,??DROPDOWN_AddString??rA
   \   00000454   0020A0E3           MOV      R2,#+0
   \   00000458   0110A0E3           MOV      R1,#+1
   \   0000045C   3C008DE2           ADD      R0,SP,#+60
   \   00000460   ........           _BLF     ??_Tidy,??_Tidy??rA
   \   00000464   480094E5           LDR      R0,[R4, #+72]
   \   00000468   00109AE7           LDR      R1,[R10, +R0]
   \   0000046C   04008DE2           ADD      R0,SP,#+4
   \   00000470   ........           _BLF     ??FindDictionaryWord,??FindDictionaryWord??rA
   \   00000474   1C009DE5           LDR      R0,[SP, #+28]
   \   00000478   100050E3           CMP      R0,#+16
   \   0000047C   08109D25           LDRCS    R1,[SP, #+8]
   \   00000480   08108D32           ADDCC    R1,SP,#+8
   \   00000484   BCFFFFEA           B        ??InitDialog_18
   \                     ??InitDialog_19:
   \   00000488   0010A0E3           MOV      R1,#+0
   \   0000048C   0D00A0E1           MOV      R0,SP
   \   00000490   ........           _BLF     ??GetValueInfoTableStatic_2,??GetValueInfoTableStatic??rA_2
   \   00000494   480084E5           STR      R0,[R4, #+72]
   \   00000498   00009DE5           LDR      R0,[SP, #+0]
   \   0000049C   0690A0E1           MOV      R9,R6
   \   000004A0   010050E3           CMP      R0,#+1
   \   000004A4   160000AA           BGE      ??InitDialog_20
   \   000004A8   0AFFFFEA           B        ??InitDialog_8
   \                     ??InitDialog_21:
   \   000004AC   F803D4E1           LDRSH    R0,[R4, #+56]
   \   000004B0   ........           _BLF     DROPDOWN_AddString,??DROPDOWN_AddString??rA
   \   000004B4   0020A0E3           MOV      R2,#+0
   \   000004B8   0110A0E3           MOV      R1,#+1
   \   000004BC   3C008DE2           ADD      R0,SP,#+60
   \   000004C0   ........           _BLF     ??_Tidy,??_Tidy??rA
   \   000004C4   ........           LDR      R0,??DataTable14  ;; ServiceWindow
   \   000004C8   481094E5           LDR      R1,[R4, #+72]
   \   000004CC   000090E5           LDR      R0,[R0, #+0]
   \   000004D0   01108AE0           ADD      R1,R10,R1
   \   000004D4   7C0090E5           LDR      R0,[R0, #+124]
   \   000004D8   082091E5           LDR      R2,[R1, #+8]
   \   000004DC   183090E5           LDR      R3,[R0, #+24]
   \   000004E0   030052E1           CMP      R2,R3
   \   000004E4   243090E5           LDR      R3,[R0, #+36]
   \   000004E8   300090E5           LDR      R0,[R0, #+48]
   \   000004EC   0960A001           MOVEQ    R6,R9
   \   000004F0   030052E1           CMP      R2,R3
   \   000004F4   0970A001           MOVEQ    R7,R9
   \   000004F8   000052E1           CMP      R2,R0
   \   000004FC   0980A001           MOVEQ    R8,R9
   \   00000500   019089E2           ADD      R9,R9,#+1
   \                     ??InitDialog_20:
   \   00000504   00009DE5           LDR      R0,[SP, #+0]
   \   00000508   000059E1           CMP      R9,R0
   \   0000050C   F1FEFFAA           BGE      ??InitDialog_8
   \   00000510   0C00A0E3           MOV      R0,#+12
   \   00000514   90090AE0           MUL      R10,R0,R9
   \   00000518   480094E5           LDR      R0,[R4, #+72]
   \   0000051C   00109AE7           LDR      R1,[R10, +R0]
   \   00000520   20008DE2           ADD      R0,SP,#+32
   \   00000524   ........           _BLF     ??FindDictionaryWord,??FindDictionaryWord??rA
   \   00000528   38009DE5           LDR      R0,[SP, #+56]
   \   0000052C   100050E3           CMP      R0,#+16
   \   00000530   F403D4E1           LDRSH    R0,[R4, #+52]
   \   00000534   24109D25           LDRCS    R1,[SP, #+36]
   \   00000538   24108D32           ADDCC    R1,SP,#+36
   \   0000053C   ........           _BLF     DROPDOWN_AddString,??DROPDOWN_AddString??rA
   \   00000540   0020A0E3           MOV      R2,#+0
   \   00000544   0110A0E3           MOV      R1,#+1
   \   00000548   20008DE2           ADD      R0,SP,#+32
   \   0000054C   ........           _BLF     ??_Tidy,??_Tidy??rA
   \   00000550   480094E5           LDR      R0,[R4, #+72]
   \   00000554   00109AE7           LDR      R1,[R10, +R0]
   \   00000558   04008DE2           ADD      R0,SP,#+4
   \   0000055C   ........           _BLF     ??FindDictionaryWord,??FindDictionaryWord??rA
   \   00000560   1C009DE5           LDR      R0,[SP, #+28]
   \   00000564   100050E3           CMP      R0,#+16
   \   00000568   F603D4E1           LDRSH    R0,[R4, #+54]
   \   0000056C   08109D25           LDRCS    R1,[SP, #+8]
   \   00000570   08108D32           ADDCC    R1,SP,#+8
   \   00000574   ........           _BLF     DROPDOWN_AddString,??DROPDOWN_AddString??rA
   \   00000578   0020A0E3           MOV      R2,#+0
   \   0000057C   0110A0E3           MOV      R1,#+1
   \   00000580   04008DE2           ADD      R0,SP,#+4
   \   00000584   ........           _BLF     ??_Tidy,??_Tidy??rA
   \   00000588   480094E5           LDR      R0,[R4, #+72]
   \   0000058C   00109AE7           LDR      R1,[R10, +R0]
   \   00000590   3C008DE2           ADD      R0,SP,#+60
   \   00000594   ........           _BLF     ??FindDictionaryWord,??FindDictionaryWord??rA
   \   00000598   54009DE5           LDR      R0,[SP, #+84]
   \   0000059C   100050E3           CMP      R0,#+16
   \   000005A0   40109D25           LDRCS    R1,[SP, #+64]
   \   000005A4   40108D32           ADDCC    R1,SP,#+64
   \   000005A8   BFFFFFEA           B        ??InitDialog_21
   \                     ??InitDialog_22:
   \   000005AC   0010A0E3           MOV      R1,#+0
   \   000005B0   0D00A0E1           MOV      R0,SP
   \   000005B4   ........           _BLF     ??GetValueInfoTableStatic_3,??GetValueInfoTableStatic??rA_3
   \   000005B8   480084E5           STR      R0,[R4, #+72]
   \   000005BC   00009DE5           LDR      R0,[SP, #+0]
   \   000005C0   0690A0E1           MOV      R9,R6
   \   000005C4   010050E3           CMP      R0,#+1
   \   000005C8   160000AA           BGE      ??InitDialog_23
   \   000005CC   C1FEFFEA           B        ??InitDialog_8
   \                     ??InitDialog_24:
   \   000005D0   F803D4E1           LDRSH    R0,[R4, #+56]
   \   000005D4   ........           _BLF     DROPDOWN_AddString,??DROPDOWN_AddString??rA
   \   000005D8   0020A0E3           MOV      R2,#+0
   \   000005DC   0110A0E3           MOV      R1,#+1
   \   000005E0   04008DE2           ADD      R0,SP,#+4
   \   000005E4   ........           _BLF     ??_Tidy,??_Tidy??rA
   \   000005E8   ........           LDR      R0,??DataTable15  ;; TankPressWindow
   \   000005EC   481094E5           LDR      R1,[R4, #+72]
   \   000005F0   000090E5           LDR      R0,[R0, #+0]
   \   000005F4   01108AE0           ADD      R1,R10,R1
   \   000005F8   7C0090E5           LDR      R0,[R0, #+124]
   \   000005FC   082091E5           LDR      R2,[R1, #+8]
   \   00000600   183090E5           LDR      R3,[R0, #+24]
   \   00000604   030052E1           CMP      R2,R3
   \   00000608   243090E5           LDR      R3,[R0, #+36]
   \   0000060C   300090E5           LDR      R0,[R0, #+48]
   \   00000610   0960A001           MOVEQ    R6,R9
   \   00000614   030052E1           CMP      R2,R3
   \   00000618   0970A001           MOVEQ    R7,R9
   \   0000061C   000052E1           CMP      R2,R0
   \   00000620   0980A001           MOVEQ    R8,R9
   \   00000624   019089E2           ADD      R9,R9,#+1
   \                     ??InitDialog_23:
   \   00000628   00009DE5           LDR      R0,[SP, #+0]
   \   0000062C   000059E1           CMP      R9,R0
   \   00000630   A8FEFFAA           BGE      ??InitDialog_8
   \   00000634   0C00A0E3           MOV      R0,#+12
   \   00000638   90090AE0           MUL      R10,R0,R9
   \   0000063C   480094E5           LDR      R0,[R4, #+72]
   \   00000640   00109AE7           LDR      R1,[R10, +R0]
   \   00000644   20008DE2           ADD      R0,SP,#+32
   \   00000648   ........           _BLF     ??FindDictionaryWord,??FindDictionaryWord??rA
   \   0000064C   38009DE5           LDR      R0,[SP, #+56]
   \   00000650   100050E3           CMP      R0,#+16
   \   00000654   F403D4E1           LDRSH    R0,[R4, #+52]
   \   00000658   24109D25           LDRCS    R1,[SP, #+36]
   \   0000065C   24108D32           ADDCC    R1,SP,#+36
   \   00000660   ........           _BLF     DROPDOWN_AddString,??DROPDOWN_AddString??rA
   \   00000664   0020A0E3           MOV      R2,#+0
   \   00000668   0110A0E3           MOV      R1,#+1
   \   0000066C   20008DE2           ADD      R0,SP,#+32
   \   00000670   ........           _BLF     ??_Tidy,??_Tidy??rA
   \   00000674   480094E5           LDR      R0,[R4, #+72]
   \   00000678   00109AE7           LDR      R1,[R10, +R0]
   \   0000067C   3C008DE2           ADD      R0,SP,#+60
   \   00000680   ........           _BLF     ??FindDictionaryWord,??FindDictionaryWord??rA
   \   00000684   54009DE5           LDR      R0,[SP, #+84]
   \   00000688   100050E3           CMP      R0,#+16
   \   0000068C   F603D4E1           LDRSH    R0,[R4, #+54]
   \   00000690   40109D25           LDRCS    R1,[SP, #+64]
   \   00000694   40108D32           ADDCC    R1,SP,#+64
   \   00000698   ........           _BLF     DROPDOWN_AddString,??DROPDOWN_AddString??rA
   \   0000069C   0020A0E3           MOV      R2,#+0
   \   000006A0   0110A0E3           MOV      R1,#+1
   \   000006A4   3C008DE2           ADD      R0,SP,#+60
   \   000006A8   ........           _BLF     ??_Tidy,??_Tidy??rA
   \   000006AC   480094E5           LDR      R0,[R4, #+72]
   \   000006B0   00109AE7           LDR      R1,[R10, +R0]
   \   000006B4   04008DE2           ADD      R0,SP,#+4
   \   000006B8   ........           _BLF     ??FindDictionaryWord,??FindDictionaryWord??rA
   \   000006BC   1C009DE5           LDR      R0,[SP, #+28]
   \   000006C0   100050E3           CMP      R0,#+16
   \   000006C4   08109D25           LDRCS    R1,[SP, #+8]
   \   000006C8   08108D32           ADDCC    R1,SP,#+8
   \   000006CC   BFFFFFEA           B        ??InitDialog_24
   \                     ??InitDialog_25:
   \   000006D0   0010A0E3           MOV      R1,#+0
   \   000006D4   0D00A0E1           MOV      R0,SP
   \   000006D8   ........           _BLF     ??GetValueInfoTableStatic_4,??GetValueInfoTableStatic??rA_4
   \   000006DC   480084E5           STR      R0,[R4, #+72]
   \   000006E0   00009DE5           LDR      R0,[SP, #+0]
   \   000006E4   0690A0E1           MOV      R9,R6
   \   000006E8   010050E3           CMP      R0,#+1
   \   000006EC   160000AA           BGE      ??InitDialog_26
   \   000006F0   78FEFFEA           B        ??InitDialog_8
   \                     ??InitDialog_27:
   \   000006F4   F803D4E1           LDRSH    R0,[R4, #+56]
   \   000006F8   ........           _BLF     DROPDOWN_AddString,??DROPDOWN_AddString??rA
   \   000006FC   0020A0E3           MOV      R2,#+0
   \   00000700   0110A0E3           MOV      R1,#+1
   \   00000704   3C008DE2           ADD      R0,SP,#+60
   \   00000708   ........           _BLF     ??_Tidy,??_Tidy??rA
   \   0000070C   ........           LDR      R0,??DataTable16  ;; TempWindow
   \   00000710   481094E5           LDR      R1,[R4, #+72]
   \   00000714   000090E5           LDR      R0,[R0, #+0]
   \   00000718   01108AE0           ADD      R1,R10,R1
   \   0000071C   7C0090E5           LDR      R0,[R0, #+124]
   \   00000720   082091E5           LDR      R2,[R1, #+8]
   \   00000724   183090E5           LDR      R3,[R0, #+24]
   \   00000728   030052E1           CMP      R2,R3
   \   0000072C   243090E5           LDR      R3,[R0, #+36]
   \   00000730   300090E5           LDR      R0,[R0, #+48]
   \   00000734   0960A001           MOVEQ    R6,R9
   \   00000738   030052E1           CMP      R2,R3
   \   0000073C   0970A001           MOVEQ    R7,R9
   \   00000740   000052E1           CMP      R2,R0
   \   00000744   0980A001           MOVEQ    R8,R9
   \   00000748   019089E2           ADD      R9,R9,#+1
   \                     ??InitDialog_26:
   \   0000074C   00009DE5           LDR      R0,[SP, #+0]
   \   00000750   000059E1           CMP      R9,R0
   \   00000754   5FFEFFAA           BGE      ??InitDialog_8
   \   00000758   0C00A0E3           MOV      R0,#+12
   \   0000075C   90090AE0           MUL      R10,R0,R9
   \   00000760   480094E5           LDR      R0,[R4, #+72]
   \   00000764   00109AE7           LDR      R1,[R10, +R0]
   \   00000768   20008DE2           ADD      R0,SP,#+32
   \   0000076C   ........           _BLF     ??FindDictionaryWord,??FindDictionaryWord??rA
   \   00000770   38009DE5           LDR      R0,[SP, #+56]
   \   00000774   100050E3           CMP      R0,#+16
   \   00000778   F403D4E1           LDRSH    R0,[R4, #+52]
   \   0000077C   24109D25           LDRCS    R1,[SP, #+36]
   \   00000780   24108D32           ADDCC    R1,SP,#+36
   \   00000784   ........           _BLF     DROPDOWN_AddString,??DROPDOWN_AddString??rA
   \   00000788   0020A0E3           MOV      R2,#+0
   \   0000078C   0110A0E3           MOV      R1,#+1
   \   00000790   20008DE2           ADD      R0,SP,#+32
   \   00000794   ........           _BLF     ??_Tidy,??_Tidy??rA
   \   00000798   480094E5           LDR      R0,[R4, #+72]
   \   0000079C   00109AE7           LDR      R1,[R10, +R0]
   \   000007A0   04008DE2           ADD      R0,SP,#+4
   \   000007A4   ........           _BLF     ??FindDictionaryWord,??FindDictionaryWord??rA
   \   000007A8   1C009DE5           LDR      R0,[SP, #+28]
   \   000007AC   100050E3           CMP      R0,#+16
   \   000007B0   F603D4E1           LDRSH    R0,[R4, #+54]
   \   000007B4   08109D25           LDRCS    R1,[SP, #+8]
   \   000007B8   08108D32           ADDCC    R1,SP,#+8
   \   000007BC   ........           _BLF     DROPDOWN_AddString,??DROPDOWN_AddString??rA
   \   000007C0   0020A0E3           MOV      R2,#+0
   \   000007C4   0110A0E3           MOV      R1,#+1
   \   000007C8   04008DE2           ADD      R0,SP,#+4
   \   000007CC   ........           _BLF     ??_Tidy,??_Tidy??rA
   \   000007D0   480094E5           LDR      R0,[R4, #+72]
   \   000007D4   00109AE7           LDR      R1,[R10, +R0]
   \   000007D8   3C008DE2           ADD      R0,SP,#+60
   \   000007DC   ........           _BLF     ??FindDictionaryWord,??FindDictionaryWord??rA
   \   000007E0   54009DE5           LDR      R0,[SP, #+84]
   \   000007E4   100050E3           CMP      R0,#+16
   \   000007E8   40109D25           LDRCS    R1,[SP, #+64]
   \   000007EC   40108D32           ADDCC    R1,SP,#+64
   \   000007F0   BFFFFFEA           B        ??InitDialog_27
   \                     ??InitDialog_28:
   \   000007F4   0010A0E3           MOV      R1,#+0
   \   000007F8   0D00A0E1           MOV      R0,SP
   \   000007FC   ........           _BLF     ??GetValueInfoTableStatic_5,??GetValueInfoTableStatic??rA_5
   \   00000800   480084E5           STR      R0,[R4, #+72]
   \   00000804   00009DE5           LDR      R0,[SP, #+0]
   \   00000808   0690A0E1           MOV      R9,R6
   \   0000080C   010050E3           CMP      R0,#+1
   \   00000810   190000AA           BGE      ??InitDialog_29
   \   00000814   2FFEFFEA           B        ??InitDialog_8
   \                     ??InitDialog_30:
   \   00000818   F803D4E1           LDRSH    R0,[R4, #+56]
   \   0000081C   ........           _BLF     DROPDOWN_AddString,??DROPDOWN_AddString??rA
   \   00000820   0020A0E3           MOV      R2,#+0
   \   00000824   0110A0E3           MOV      R1,#+1
   \   00000828   04008DE2           ADD      R0,SP,#+4
   \   0000082C   ........           _BLF     ??_Tidy,??_Tidy??rA
   \   00000830   ........           LDR      R0,??DataTable17  ;; VoidSpaceWindow
   \   00000834   481094E5           LDR      R1,[R4, #+72]
   \   00000838   000090E5           LDR      R0,[R0, #+0]
   \   0000083C   01108AE0           ADD      R1,R10,R1
   \   00000840   7C0090E5           LDR      R0,[R0, #+124]
   \   00000844   082091E5           LDR      R2,[R1, #+8]
   \   00000848   183090E5           LDR      R3,[R0, #+24]
   \   0000084C   901085E2           ADD      R1,R5,#+144
   \   00000850   030052E1           CMP      R2,R3
   \   00000854   243090E5           LDR      R3,[R0, #+36]
   \   00000858   300090E5           LDR      R0,[R0, #+48]
   \   0000085C   0960A001           MOVEQ    R6,R9
   \   00000860   030052E1           CMP      R2,R3
   \   00000864   0970A001           MOVEQ    R7,R9
   \   00000868   000052E1           CMP      R2,R0
   \   0000086C   F004D4E1           LDRSH    R0,[R4, #+64]
   \   00000870   0980A001           MOVEQ    R8,R9
   \   00000874   019089E2           ADD      R9,R9,#+1
   \   00000878   ........           _BLF     TEXT_SetText,??TEXT_SetText??rA
   \                     ??InitDialog_29:
   \   0000087C   00009DE5           LDR      R0,[SP, #+0]
   \   00000880   000059E1           CMP      R9,R0
   \   00000884   13FEFFAA           BGE      ??InitDialog_8
   \   00000888   0C00A0E3           MOV      R0,#+12
   \   0000088C   90090AE0           MUL      R10,R0,R9
   \   00000890   480094E5           LDR      R0,[R4, #+72]
   \   00000894   00109AE7           LDR      R1,[R10, +R0]
   \   00000898   20008DE2           ADD      R0,SP,#+32
   \   0000089C   ........           _BLF     ??FindDictionaryWord,??FindDictionaryWord??rA
   \   000008A0   38009DE5           LDR      R0,[SP, #+56]
   \   000008A4   100050E3           CMP      R0,#+16
   \   000008A8   F403D4E1           LDRSH    R0,[R4, #+52]
   \   000008AC   24109D25           LDRCS    R1,[SP, #+36]
   \   000008B0   24108D32           ADDCC    R1,SP,#+36
   \   000008B4   ........           _BLF     DROPDOWN_AddString,??DROPDOWN_AddString??rA
   \   000008B8   0020A0E3           MOV      R2,#+0
   \   000008BC   0110A0E3           MOV      R1,#+1
   \   000008C0   20008DE2           ADD      R0,SP,#+32
   \   000008C4   ........           _BLF     ??_Tidy,??_Tidy??rA
   \   000008C8   480094E5           LDR      R0,[R4, #+72]
   \   000008CC   00109AE7           LDR      R1,[R10, +R0]
   \   000008D0   3C008DE2           ADD      R0,SP,#+60
   \   000008D4   ........           _BLF     ??FindDictionaryWord,??FindDictionaryWord??rA
   \   000008D8   54009DE5           LDR      R0,[SP, #+84]
   \   000008DC   100050E3           CMP      R0,#+16
   \   000008E0   F603D4E1           LDRSH    R0,[R4, #+54]
   \   000008E4   40109D25           LDRCS    R1,[SP, #+64]
   \   000008E8   40108D32           ADDCC    R1,SP,#+64
   \   000008EC   ........           _BLF     DROPDOWN_AddString,??DROPDOWN_AddString??rA
   \   000008F0   0020A0E3           MOV      R2,#+0
   \   000008F4   0110A0E3           MOV      R1,#+1
   \   000008F8   3C008DE2           ADD      R0,SP,#+60
   \   000008FC   ........           _BLF     ??_Tidy,??_Tidy??rA
   \   00000900   480094E5           LDR      R0,[R4, #+72]
   \   00000904   00109AE7           LDR      R1,[R10, +R0]
   \   00000908   04008DE2           ADD      R0,SP,#+4
   \   0000090C   ........           _BLF     ??FindDictionaryWord,??FindDictionaryWord??rA
   \   00000910   1C009DE5           LDR      R0,[SP, #+28]
   \   00000914   100050E3           CMP      R0,#+16
   \   00000918   08109D25           LDRCS    R1,[SP, #+8]
   \   0000091C   08108D32           ADDCC    R1,SP,#+8
   \   00000920   BCFFFFEA           B        ??InitDialog_30
   \                     ??InitDialog_7:
   \   00000924   ........           DC32     `?<Constant {{2202, 0, 69}, {5, 0, 18}, {2558, `
    220          

   \                                 In segment CODE, align 4, keep-with-next
    221          void TDUAppWinSetup::UpdateDialog(WM_HWIN hWin,int Key)
    222          {
   \                     ??UpdateDialog:
   \   00000000   F0412DE9           PUSH     {R4-R8,LR}
   \   00000004   70D04DE2           SUB      SP,SP,#+112
   \   00000008   0040A0E1           MOV      R4,R0
   \   0000000C   0100A0E1           MOV      R0,R1
   \   00000010   0250A0E1           MOV      R5,R2
    223          	WM_HWIN hDropd0 = WM_GetDialogItem(hWin, Key);
   \   00000014   0510A0E1           MOV      R1,R5
   \   00000018   ........           _BLF     WM_GetDialogItem,??WM_GetDialogItem??rA
   \   0000001C   0080A0E1           MOV      R8,R0
    224          	AnsiString str, unitstr;
   \   00000020   1C008DE2           ADD      R0,SP,#+28
   \   00000024   ........           _BLF     ??AnsiString,??AnsiString??rA
   \   00000028   0D00A0E1           MOV      R0,SP
   \   0000002C   ........           _BLF     ??AnsiString,??AnsiString??rA
    225          	int col;
    226          	switch ( Key ) {
   \   00000030   810045E2           SUB      R0,R5,#+129
   \   00000034   400F40E2           SUB      R0,R0,#+256
   \   00000038   020050E3           CMP      R0,#+2
   \   0000003C   0800008A           BHI      ??UpdateDialog_4
   \   00000040   011F8FE2           ADR      R1,??UpdateDialog_1
   \   00000044   0010D1E7           LDRB     R1,[R1, R0]
   \   00000048   01F18FE0           ADD      PC,PC,R1, LSL #+2
   \                     ??UpdateDialog_1:
   \   0000004C   00020400           DC8      +0,+2,+4,+0
    227          	case GUI_ID_DROPDOWN1:
    228          		col = 2;
   \                     ??UpdateDialog_5:
   \   00000050   0260A0E3           MOV      R6,#+2
   \   00000054   020000EA           B        ??UpdateDialog_4
    229          		break;
    230          	case GUI_ID_DROPDOWN2:
    231          		col = 3;
   \                     ??UpdateDialog_6:
   \   00000058   0360A0E3           MOV      R6,#+3
   \   0000005C   000000EA           B        ??UpdateDialog_4
    232          		break;
    233          	case GUI_ID_DROPDOWN3:
    234          		col = 4;
   \                     ??UpdateDialog_7:
   \   00000060   0460A0E3           MOV      R6,#+4
    235          		break;
    236          	}
    237          	switch ( CurrentWinID ) {
   \                     ??UpdateDialog_4:
   \   00000064   28729FE5           LDR      R7,??UpdateDialog_8  ;; ??AllObjVector
   \   00000068   0C00A0E3           MOV      R0,#+12
   \   0000006C   900606E0           MUL      R6,R0,R6
   \   00000070   ........           LDR      R0,??DataTable10  ;; CurrentWinID
   \   00000074   000090E5           LDR      R0,[R0, #+0]
   \   00000078   6F0040E2           SUB      R0,R0,#+111
   \   0000007C   800E40E2           SUB      R0,R0,#+2048
   \   00000080   0A0050E3           CMP      R0,#+10
   \   00000084   6300008A           BHI      ??UpdateDialog_9
   \   00000088   011F8FE2           ADR      R1,??UpdateDialog_2
   \   0000008C   0010D1E7           LDRB     R1,[R1, R0]
   \   00000090   01F18FE0           ADD      PC,PC,R1, LSL #+2
   \                     ??UpdateDialog_2:
   \   00000094   0240454A           DC8      +2,+64,+69,+74
   \   00000098   604F6060           DC8      +96,+79,+96,+96
   \   0000009C   60542300           DC8      +96,+84,+35,+0
    238          	case TDU_CARGO_WIN:
    239          		CargoWindow->ValueTable[col].ValueId = TankValueList[DROPDOWN_GetSel(hDropd0)].Value;
   \                     ??UpdateDialog_10:
   \   000000A0   0800A0E1           MOV      R0,R8
   \   000000A4   ........           LDR      R8,??DataTable11  ;; CargoWindow
   \   000000A8   ........           _BLF     DROPDOWN_GetSel,??DROPDOWN_GetSel??rA
   \   000000AC   001098E5           LDR      R1,[R8, #+0]
   \   000000B0   483094E5           LDR      R3,[R4, #+72]
   \   000000B4   7C1091E5           LDR      R1,[R1, #+124]
   \   000000B8   0C20A0E3           MOV      R2,#+12
   \   000000BC   923020E0           MLA      R0,R2,R0,R3
   \   000000C0   080090E5           LDR      R0,[R0, #+8]
   \   000000C4   011086E0           ADD      R1,R6,R1
   \   000000C8   000081E5           STR      R0,[R1, #+0]
    240          		str = LibGetValue(CargoWindow->ValueTable[col].ValueId,PROCargoTank::AllObjVector[0],&unitstr);
   \   000000CC   0000A0E3           MOV      R0,#+0
   \   000000D0   01002DE9           PUSH     {R0}
   \   000000D4   000097E5           LDR      R0,[R7, #+0]
   \   000000D8   001091E5           LDR      R1,[R1, #+0]
   \   000000DC   002090E5           LDR      R2,[R0, #+0]
   \   000000E0   04308DE2           ADD      R3,SP,#+4
   \   000000E4   3C008DE2           ADD      R0,SP,#+60
   \   000000E8   ........           _BLF     ??LibGetValue,??LibGetValue??rA
   \   000000EC   A4019FE5           LDR      R0,??UpdateDialog_8+0x4  ;; ??npos
   \   000000F0   0020A0E3           MOV      R2,#+0
   \   000000F4   003090E5           LDR      R3,[R0, #+0]
   \   000000F8   3C108DE2           ADD      R1,SP,#+60
   \   000000FC   20008DE2           ADD      R0,SP,#+32
   \   00000100   ........           _BLF     ??assign,??assign??rA
   \   00000104   0020A0E3           MOV      R2,#+0
   \   00000108   0110A0E3           MOV      R1,#+1
   \   0000010C   3C008DE2           ADD      R0,SP,#+60
   \                     ??UpdateDialog_11:
   \   00000110   ........           _BLF     ??_Tidy,??_Tidy??rA
    241          		CargoWindow->PaintnewHeading();
   \   00000114   000098E5           LDR      R0,[R8, #+0]
   \   00000118   ........           _BLF     ??PaintnewHeading,??PaintnewHeading??rA
   \   0000011C   04D08DE2           ADD      SP,SP,#+4
   \   00000120   3C0000EA           B        ??UpdateDialog_9
    242          		break;
    243          	case TDU_TANKFARM_WIN:
    244          		TankFarmWindow->ValueTable[col].ValueId = TankValueList[DROPDOWN_GetSel(hDropd0)].Value;
   \                     ??UpdateDialog_12:
   \   00000124   0800A0E1           MOV      R0,R8
   \   00000128   ........           LDR      R8,??DataTable12  ;; TankFarmWindow
   \   0000012C   ........           _BLF     DROPDOWN_GetSel,??DROPDOWN_GetSel??rA
   \   00000130   001098E5           LDR      R1,[R8, #+0]
   \   00000134   483094E5           LDR      R3,[R4, #+72]
   \   00000138   7C1091E5           LDR      R1,[R1, #+124]
   \   0000013C   0C20A0E3           MOV      R2,#+12
   \   00000140   923020E0           MLA      R0,R2,R0,R3
   \   00000144   080090E5           LDR      R0,[R0, #+8]
   \   00000148   011086E0           ADD      R1,R6,R1
   \   0000014C   000081E5           STR      R0,[R1, #+0]
    245          		str = LibGetValue(TankFarmWindow->ValueTable[col].ValueId,PROCargoTank::AllObjVector[0],&unitstr);
   \   00000150   0000A0E3           MOV      R0,#+0
   \   00000154   01002DE9           PUSH     {R0}
   \   00000158   000097E5           LDR      R0,[R7, #+0]
   \   0000015C   001091E5           LDR      R1,[R1, #+0]
   \   00000160   002090E5           LDR      R2,[R0, #+0]
   \   00000164   04308DE2           ADD      R3,SP,#+4
   \   00000168   58008DE2           ADD      R0,SP,#+88
   \   0000016C   ........           _BLF     ??LibGetValue,??LibGetValue??rA
   \   00000170   20019FE5           LDR      R0,??UpdateDialog_8+0x4  ;; ??npos
   \   00000174   0020A0E3           MOV      R2,#+0
   \   00000178   003090E5           LDR      R3,[R0, #+0]
   \   0000017C   58108DE2           ADD      R1,SP,#+88
   \   00000180   20008DE2           ADD      R0,SP,#+32
   \   00000184   ........           _BLF     ??assign,??assign??rA
   \   00000188   0020A0E3           MOV      R2,#+0
   \   0000018C   0110A0E3           MOV      R1,#+1
   \   00000190   58008DE2           ADD      R0,SP,#+88
   \   00000194   DDFFFFEA           B        ??UpdateDialog_11
    246          		TankFarmWindow->PaintnewHeading();
    247          		break;
    248          	case TDU_BALLAST_WIN:
    249          		BallastWindow->ValueTable[col].ValueId = TankValueList[DROPDOWN_GetSel(hDropd0)].Value;
   \                     ??UpdateDialog_13:
   \   00000198   0800A0E1           MOV      R0,R8
   \   0000019C   ........           _BLF     DROPDOWN_GetSel,??DROPDOWN_GetSel??rA
   \   000001A0   0010A0E1           MOV      R1,R0
   \   000001A4   ........           LDR      R0,??DataTable13  ;; BallastWindow
   \   000001A8   120000EA           B        ??UpdateDialog_14
    250          		BallastWindow->PaintnewHeading();
    251          		break;
    252          	case TDU_SERVICE_WIN:
    253          		ServiceWindow->ValueTable[col].ValueId = TankValueList[DROPDOWN_GetSel(hDropd0)].Value;
   \                     ??UpdateDialog_15:
   \   000001AC   0800A0E1           MOV      R0,R8
   \   000001B0   ........           _BLF     DROPDOWN_GetSel,??DROPDOWN_GetSel??rA
   \   000001B4   0010A0E1           MOV      R1,R0
   \   000001B8   ........           LDR      R0,??DataTable14  ;; ServiceWindow
   \   000001BC   0D0000EA           B        ??UpdateDialog_14
    254          		ServiceWindow->PaintnewHeading();
    255          		break;
    256          	case TDU_TANKPRESS_WIN:
    257          		TankPressWindow->ValueTable[col].ValueId = TankValueList[DROPDOWN_GetSel(hDropd0)].Value;
   \                     ??UpdateDialog_16:
   \   000001C0   0800A0E1           MOV      R0,R8
   \   000001C4   ........           _BLF     DROPDOWN_GetSel,??DROPDOWN_GetSel??rA
   \   000001C8   0010A0E1           MOV      R1,R0
   \   000001CC   ........           LDR      R0,??DataTable15  ;; TankPressWindow
   \   000001D0   080000EA           B        ??UpdateDialog_14
    258          		TankPressWindow->PaintnewHeading();
    259          		break;
    260          	case TDU_LINEPRESS_WIN:
    261          		break;
    262          	case TDU_TEMP_WIN:
    263          		TempWindow->ValueTable[col].ValueId = TankValueList[DROPDOWN_GetSel(hDropd0)].Value;
   \                     ??UpdateDialog_17:
   \   000001D4   0800A0E1           MOV      R0,R8
   \   000001D8   ........           _BLF     DROPDOWN_GetSel,??DROPDOWN_GetSel??rA
   \   000001DC   0010A0E1           MOV      R1,R0
   \   000001E0   ........           LDR      R0,??DataTable16  ;; TempWindow
   \   000001E4   030000EA           B        ??UpdateDialog_14
    264          		TempWindow->PaintnewHeading();
    265          		break;
    266          	case TDU_VOIDSPACE_WIN:
    267          		VoidSpaceWindow->ValueTable[col].ValueId = TankValueList[DROPDOWN_GetSel(hDropd0)].Value;
   \                     ??UpdateDialog_18:
   \   000001E8   0800A0E1           MOV      R0,R8
   \   000001EC   ........           _BLF     DROPDOWN_GetSel,??DROPDOWN_GetSel??rA
   \   000001F0   0010A0E1           MOV      R1,R0
   \   000001F4   ........           LDR      R0,??DataTable17  ;; VoidSpaceWindow
   \                     ??UpdateDialog_14:
   \   000001F8   487094E5           LDR      R7,[R4, #+72]
   \   000001FC   000090E5           LDR      R0,[R0, #+0]
   \   00000200   0C30A0E3           MOV      R3,#+12
   \   00000204   7C2090E5           LDR      R2,[R0, #+124]
   \   00000208   937121E0           MLA      R1,R3,R1,R7
   \   0000020C   081091E5           LDR      R1,[R1, #+8]
   \   00000210   021086E7           STR      R1,[R6, +R2]
    268          		VoidSpaceWindow->PaintnewHeading();
   \   00000214   ........           _BLF     ??PaintnewHeading,??PaintnewHeading??rA
    269          		break;
    270          	case TDU_LEVELSWITCH_WIN:
    271          	case TDU_WATERINGR_WIN:
    272          	default:
    273          		break;
    274          	}
    275          	switch ( Key ) {
   \                     ??UpdateDialog_9:
   \   00000218   04109DE5           LDR      R1,[SP, #+4]
   \   0000021C   18009DE5           LDR      R0,[SP, #+24]
   \   00000220   815045E2           SUB      R5,R5,#+129
   \   00000224   405F45E2           SUB      R5,R5,#+256
   \   00000228   020055E3           CMP      R5,#+2
   \   0000022C   0D00008A           BHI      ??UpdateDialog_19
   \   00000230   012F8FE2           ADR      R2,??UpdateDialog_3
   \   00000234   0520D2E7           LDRB     R2,[R2, R5]
   \   00000238   02F18FE0           ADD      PC,PC,R2, LSL #+2
   \                     ??UpdateDialog_3:
   \   0000023C   00030600           DC8      +0,+3,+6,+0
    276          	case GUI_ID_DROPDOWN1:
    277          		TEXT_SetText(hTextUnitCol2, unitstr.c_str());
   \                     ??UpdateDialog_20:
   \   00000240   100050E3           CMP      R0,#+16
   \   00000244   FA03D4E1           LDRSH    R0,[R4, #+58]
   \   00000248   040000EA           B        ??UpdateDialog_21
    278          		break;
    279          	case GUI_ID_DROPDOWN2:
    280          		TEXT_SetText(hTextUnitCol3, unitstr.c_str());
   \                     ??UpdateDialog_22:
   \   0000024C   100050E3           CMP      R0,#+16
   \   00000250   FC03D4E1           LDRSH    R0,[R4, #+60]
   \   00000254   010000EA           B        ??UpdateDialog_21
    281          		break;
    282          	case GUI_ID_DROPDOWN3:
    283          		TEXT_SetText(hTextUnitCol4, unitstr.c_str());
   \                     ??UpdateDialog_23:
   \   00000258   100050E3           CMP      R0,#+16
   \   0000025C   FE03D4E1           LDRSH    R0,[R4, #+62]
   \                     ??UpdateDialog_21:
   \   00000260   04108D32           ADDCC    R1,SP,#+4
   \   00000264   ........           _BLF     TEXT_SetText,??TEXT_SetText??rA
    284          		break;
    285          	}
    286          }
   \                     ??UpdateDialog_19:
   \   00000268   0020A0E3           MOV      R2,#+0
   \   0000026C   0110A0E3           MOV      R1,#+1
   \   00000270   0D00A0E1           MOV      R0,SP
   \   00000274   ........           _BLF     ??_Tidy,??_Tidy??rA
   \   00000278   0020A0E3           MOV      R2,#+0
   \   0000027C   0110A0E3           MOV      R1,#+1
   \   00000280   1C008DE2           ADD      R0,SP,#+28
   \   00000284   ........           _BLF     ??_Tidy,??_Tidy??rA
   \   00000288   70D08DE2           ADD      SP,SP,#+112
   \   0000028C   F041BDE8           POP      {R4-R8,LR}
   \   00000290   1EFF2FE1           BX       LR               ;; return
   \                     ??UpdateDialog_8:
   \   00000294   ........           DC32     ??AllObjVector
   \   00000298   ........           DC32     ??npos
    287          

   \                                 In segment CODE, align 4, keep-with-next
    288          void TDUAppWinSetup::cbTankSetup(WM_MESSAGE *pMsg)
    289          {
   \                     ??cbTankSetup:
   \   00000000   F0402DE9           PUSH     {R4-R7,LR}
    290          	int NCode, Id;
    291          	WM_HWIN hWin = pMsg->hWin;
    292          	switch ( pMsg->MsgId ) {
   \   00000004   0C519FE5           LDR      R5,??cbTankSetup_3  ;; AppWinSetup
   \   00000008   0070A0E1           MOV      R7,R0
   \   0000000C   000097E5           LDR      R0,[R7, #+0]
   \   00000010   F460D7E1           LDRSH    R6,[R7, #+4]
   \   00000014   0140A0E3           MOV      R4,#+1
   \   00000018   0F0050E2           SUBS     R0,R0,#+15
   \   0000001C   0700000A           BEQ      ??cbTankSetup_4
   \   00000020   0E0050E2           SUBS     R0,R0,#+14
   \   00000024   0200000A           BEQ      ??cbTankSetup_5
   \   00000028   090050E2           SUBS     R0,R0,#+9
   \   0000002C   0C00000A           BEQ      ??cbTankSetup_6
   \   00000030   350000EA           B        ??cbTankSetup_7
    293          	case WM_INIT_DIALOG:
    294          		AppWinSetup->FirstTime = true;
   \                     ??cbTankSetup_5:
   \   00000034   000095E5           LDR      R0,[R5, #+0]
   \   00000038   2840C0E5           STRB     R4,[R0, #+40]
   \   0000003C   060000EA           B        ??cbTankSetup_8
    295          		break;
    296          	case WM_PAINT:
    297          		//           GUI_DrawRect(   2,  22, 110,  62);
    298          		//           GUI_DrawRect( 120,  24, 260,  46);
    299          		GUI_DrawRect(   2,  60, 270, 140);
   \                     ??cbTankSetup_4:
   \   00000040   8C30A0E3           MOV      R3,#+140
   \   00000044   822083E2           ADD      R2,R3,#+130
   \   00000048   3C10A0E3           MOV      R1,#+60
   \   0000004C   0200A0E3           MOV      R0,#+2
   \   00000050   ........           _BLF     GUI_DrawRect,??GUI_DrawRect??rA
    300          		AppWinSetup->UpdateLanguage();
   \   00000054   000095E5           LDR      R0,[R5, #+0]
   \   00000058   ........           _BLF     ??UpdateLanguage,??UpdateLanguage??rA
   \                     ??cbTankSetup_8:
   \   0000005C   F040BDE8           POP      {R4-R7,LR}
   \   00000060   1EFF2FE1           BX       LR
    301          		break;
    302          	case WM_NOTIFY_PARENT:
    303          		Id    = WM_GetId(pMsg->hWinSrc);	/* Id of widget */
   \                     ??cbTankSetup_6:
   \   00000064   F600D7E1           LDRSH    R0,[R7, #+6]
   \   00000068   ........           _BLF     WM_GetId,??WM_GetId??rA
    304          		NCode = pMsg->Data.v;				/* Notification code */
    305          		switch ( NCode ) {
   \   0000006C   081097E5           LDR      R1,[R7, #+8]
   \   00000070   021051E2           SUBS     R1,R1,#+2
   \   00000074   0400000A           BEQ      ??cbTankSetup_9
   \   00000078   021051E2           SUBS     R1,R1,#+2
   \   0000007C   1A00000A           BEQ      ??cbTankSetup_10
   \   00000080   011051E2           SUBS     R1,R1,#+1
   \   00000084   0B00000A           BEQ      ??cbTankSetup_11
   \   00000088   F3FFFFEA           B        ??cbTankSetup_8
    306          		case WM_NOTIFICATION_RELEASED:	  /* React only if released */
    307          			switch ( Id ) {
   \                     ??cbTankSetup_9:
   \   0000008C   050050E3           CMP      R0,#+5
   \   00000090   F1FFFF1A           BNE      ??cbTankSetup_8
    308          			case GUI_ID_CLOSE: /* Close Button */
    309          				if ( !AppWinSetupDiaIsClosed ) {
   \   00000094   ........           LDR      R0,??DataTable18  ;; AppWinSetupDiaIsClosed
   \   00000098   0010D0E5           LDRB     R1,[R0, #+0]
   \   0000009C   000051E3           CMP      R1,#+0
   \   000000A0   EDFFFF1A           BNE      ??cbTankSetup_8
    310          					AppWinSetupDiaIsClosed = true;
   \   000000A4   0040C0E5           STRB     R4,[R0, #+0]
    311          					GUI_EndDialog(AppWinSetup->WinHandl, 0);
   \   000000A8   000095E5           LDR      R0,[R5, #+0]
   \   000000AC   FA02D0E1           LDRSH    R0,[R0, #+42]
   \   000000B0   ........           _BLF     GUI_EndDialog,??GUI_EndDialog??rA
   \   000000B4   E8FFFFEA           B        ??cbTankSetup_8
    312          				}
    313          				break;
    314          			}
    315          			break;
    316          		case WM_NOTIFICATION_VALUE_CHANGED:
    317          			{
    318          				switch ( Id ) {
   \                     ??cbTankSetup_11:
   \   000000B8   811040E2           SUB      R1,R0,#+129
   \   000000BC   401F41E2           SUB      R1,R1,#+256
   \   000000C0   020051E3           CMP      R1,#+2
   \   000000C4   E4FFFF8A           BHI      ??cbTankSetup_8
   \   000000C8   012F8FE2           ADR      R2,??cbTankSetup_1
   \   000000CC   D12092E1           LDRSB    R2,[R2, R1]
   \   000000D0   02F18FE0           ADD      PC,PC,R2, LSL #+2
   \                     ??cbTankSetup_1:
   \   000000D4   00000000           DC8      +0,+0,+0,+0
    319          				case GUI_ID_DROPDOWN1:
    320          				case GUI_ID_DROPDOWN2:
    321          				case GUI_ID_DROPDOWN3:
    322          					AppWinSetup->UpdateDialog(hWin,Id);
   \                     ??cbTankSetup_12:
   \   000000D8   0020A0E1           MOV      R2,R0
   \   000000DC   000095E5           LDR      R0,[R5, #+0]
   \   000000E0   0610A0E1           MOV      R1,R6
   \   000000E4   ........           BL       ??UpdateDialog
   \   000000E8   DBFFFFEA           B        ??cbTankSetup_8
    323          					break;
    324          				}
    325          			}
    326          			break;
    327          		case WM_NOTIFICATION_SEL_CHANGED:
    328          			{
    329          				switch ( Id ) {
   \                     ??cbTankSetup_10:
   \   000000EC   811040E2           SUB      R1,R0,#+129
   \   000000F0   401F41E2           SUB      R1,R1,#+256
   \   000000F4   020051E3           CMP      R1,#+2
   \   000000F8   D7FFFF8A           BHI      ??cbTankSetup_8
   \   000000FC   012F8FE2           ADR      R2,??cbTankSetup_2
   \   00000100   D12092E1           LDRSB    R2,[R2, R1]
   \   00000104   02F18FE0           ADD      PC,PC,R2, LSL #+2
   \                     ??cbTankSetup_2:
   \   00000108   F3F3F300           DC8      +243,+243,+243,+0
    330          				case GUI_ID_DROPDOWN1:
    331          				case GUI_ID_DROPDOWN2:
    332          				case GUI_ID_DROPDOWN3:
    333          					AppWinSetup->UpdateDialog(hWin,Id);
    334          					break;
    335          				}
    336          			}
    337          			break;
    338          		}
    339          		break;
    340          	default:
    341          		WM_DefaultProc(pMsg);
   \                     ??cbTankSetup_7:
   \   0000010C   0700A0E1           MOV      R0,R7
   \   00000110   ........           _BLF     WM_DefaultProc,??WM_DefaultProc??rA
    342          	}
    343          }
   \                     ??cbTankSetup_13:
   \   00000114   D0FFFFEA           B        ??cbTankSetup_8
   \                     ??cbTankSetup_3:
   \   00000118   ........           DC32     AppWinSetup

   \                                 In segment DIFUNCT, align 4, keep-with-next, root
   \   00000000                      REQUIRE ?call_ctors
   \   00000000   ........           DC32    ??__sti__routine

   \                                 In segment DATA_C, align 4, align-sorted
   \                     `?<Constant "Application setup">`:
   \   00000000   4170706C6963       DC8 "Application setup"
   \              6174696F6E20
   \              736574757000
   \   00000012   0000               DC8 0, 0

   \                                 In segment DATA_C, align 4, align-sorted
   \                     `?<Constant "Close">`:
   \   00000000   436C6F736500       DC8 "Close"
   \   00000006   0000               DC8 0, 0

   \                                 In segment DATA_C, align 4, align-sorted
   \                     `?<Constant "Col. 1">`:
   \   00000000   436F6C2E2031       DC8 "Col. 1"
   \              00          
   \   00000007   00                 DC8 0

   \                                 In segment DATA_C, align 4, align-sorted
   \                     `?<Constant "Col. 2">`:
   \   00000000   436F6C2E2032       DC8 "Col. 2"
   \              00          
   \   00000007   00                 DC8 0

   \                                 In segment DATA_C, align 4, align-sorted
   \                     `?<Constant "Col. 3">`:
   \   00000000   436F6C2E2033       DC8 "Col. 3"
   \              00          
   \   00000007   00                 DC8 0

   \                                 In segment DATA_C, align 4, align-sorted
   \                     `?<Constant "Col. 4">`:
   \   00000000   436F6C2E2034       DC8 "Col. 4"
   \              00          
   \   00000007   00                 DC8 0

   \                                 In segment DATA_C, align 4, align-sorted
   \                     `?<Constant "Name ">`:
   \   00000000   4E616D652000       DC8 "Name "
   \   00000006   0000               DC8 0, 0

   \                                 In segment DATA_C, align 4, align-sorted
   \                     `?<Constant "unit">`:
   \   00000000   756E697400         DC8 "unit"
   \   00000005   000000             DC8 0, 0, 0

   \                                 In segment DATA_C, align 4, align-sorted
   \                     `?<Constant {{2202, 0, 69}, {5, 0, 18}, {2558, `:
   \   00000000   9A0800000000       DC32 2202, 0, 69, 5, 0, 18, 2558, 0, 70, 2559, 0, 71, 2560, 0, 72, 2561
   \              000045000000
   \              050000000000
   \              000012000000
   \              FE0900000000
   \              000046000000
   \              FF0900000000
   \              000047000000
   \              000A00000000
   \              000048000000
   \              010A0000    
   \   00000040   000000004900       DC32 0, 73, 2562, 0, 74, 2568, 0, 82, 2569, 0, 83
   \              0000020A0000
   \              000000004A00
   \              0000080A0000
   \              000000005200
   \              0000090A0000
   \              000000005300
   \              0000        
   \                     `?<Constant "Common input for all ...">`:
   \   0000006C   436F6D6D6F6E       DC8 "Common input for all Ballast tanks"
   \              20696E707574
   \              20666F722061
   \              6C6C2042616C
   \              6C6173742074
   \              616E6B7300  
   \   0000008F   00                 DC8 0
   \   00000090   436F6D6D6F6E       DC8 "Common input for all Void spaces"
   \              20696E707574
   \              20666F722061
   \              6C6C20566F69
   \              642073706163
   \              657300      
   \   000000B1   000000             DC8 0, 0, 0

   \                                 In segment DATA_C, align 4, align-sorted
   \                     `?<Constant "Density">`:
   \   00000000   44656E736974       DC8 "Density"
   \              7900        

   \                                 In segment CODE, align 4, keep-with-next
   \   __??Code32?? __code __interwork __atpcs TDUAppWinSetup &TDUAppWinSetup::new TDUAppWinSetup()
   \                     `??new TDUAppWinSetup`:
   \   00000000   00402DE9           PUSH     {LR}
   \   00000004   4C00A0E3           MOV      R0,#+76
   \   00000008   ........           _BLF     `??operator new`,`??operator new??rA`
   \   0000000C   000050E3           CMP      R0,#+0
   \   00000010   0000000A           BEQ      `??new TDUAppWinSetup_1`
   \   00000014   ........           BL       ??TDUAppWinSetup
   \                     `??new TDUAppWinSetup_1`:
   \   00000018   0040BDE8           POP      {LR}
   \   0000001C   1EFF2FE1           BX       LR               ;; return

   \                                 In segment CODE, align 4, keep-with-next
   \   __??Code32?? __code __interwork __atpcs void TDUAppWinSetup::delete ~TDUAppWinSetup(TDUAppWinSetup *)
   \                     `??delete ~TDUAppWinSetup`:
   \   00000000   10402DE9           PUSH     {R4,LR}
   \   00000004   0040B0E1           MOVS     R4,R0
   \   00000008   0200000A           BEQ      `??delete ~TDUAppWinSetup_1`
   \   0000000C   ........           _BLF     `?~TDUBasicWin`,`?~TDUBasicWin??rA`
   \   00000010   0400A0E1           MOV      R0,R4
   \   00000014   ........           _BLF     `??operator delete`,`??operator delete??rA`
   \                     `??delete ~TDUAppWinSetup_1`:
   \   00000018   1040BDE8           POP      {R4,LR}
   \   0000001C   1EFF2FE1           BX       LR               ;; return

   \                                 In segment CODE, align 4, keep-with-next
   \   static __??Code32?? __intrinsic __code __interwork __atpcs void __sti__routine()
   \                     ??__sti__routine:
   \   00000000   1EFF2FE1           BX       LR               ;; return

   \                                 In segment CODE, align 4, keep-with-next
   \                     ??DataTable10:
   \   00000000   ........           DC32     CurrentWinID

   \                                 In segment CODE, align 4, keep-with-next
   \                     ??DataTable11:
   \   00000000   ........           DC32     CargoWindow

   \                                 In segment CODE, align 4, keep-with-next
   \                     ??DataTable12:
   \   00000000   ........           DC32     TankFarmWindow

   \                                 In segment CODE, align 4, keep-with-next
   \                     ??DataTable13:
   \   00000000   ........           DC32     BallastWindow

   \                                 In segment CODE, align 4, keep-with-next
   \                     ??DataTable14:
   \   00000000   ........           DC32     ServiceWindow

   \                                 In segment CODE, align 4, keep-with-next
   \                     ??DataTable15:
   \   00000000   ........           DC32     TankPressWindow

   \                                 In segment CODE, align 4, keep-with-next
   \                     ??DataTable16:
   \   00000000   ........           DC32     TempWindow

   \                                 In segment CODE, align 4, keep-with-next
   \                     ??DataTable17:
   \   00000000   ........           DC32     VoidSpaceWindow

   \                                 In segment CODE, align 4, keep-with-next
   \                     ??DataTable18:
   \   00000000   ........           DC32     AppWinSetupDiaIsClosed

   Maximum stack usage in bytes:

     Function                       CSTACK
     --------                       ------
     TDUAppWinSetup::ExecDialogBox(GUI_HWIN)
                                       16
     TDUAppWinSetup::GetDialogHandles()
                                        8
     TDUAppWinSetup::InitDialog()     228
     TDUAppWinSetup::TDUAppWinSetup()
                                        8
     TDUAppWinSetup::UpdateDialog(GUI_HWIN, int)
                                      140
     TDUAppWinSetup::cbTankSetup(WM_MESSAGE *)
                                       20
     TDUAppWinSetup::delete ~TDUAppWinSetup(TDUAppWinSetup *)
                                        8
     TDUAppWinSetup::new TDUAppWinSetup()
                                        4
     TDUAppWinSetup::~TDUAppWinSetup()
                                        4
     __sti__routine()                   0


   Segment part sizes:

     Function/Label                 Bytes
     --------------                 -----
     TDUAppWinSetup::~TDUAppWinSetup()
                                      16
     TDUAppWinSetup::TDUAppWinSetup()
                                      44
     TDUAppWinSetup::aDialogCreate   408
     TDUAppWinSetup::ExecDialogBox(GUI_HWIN)
                                     184
     TDUAppWinSetup::GetDialogHandles()
                                     220
     TDUAppWinSetup::InitDialog()   2344
     TDUAppWinSetup::UpdateDialog(GUI_HWIN, int)
                                     668
     TDUAppWinSetup::cbTankSetup(WM_MESSAGE *)
                                     284
     ?<Constant "Application setup">
                                      20
     ?<Constant "Close">               8
     ?<Constant "Col. 1">              8
     ?<Constant "Col. 2">              8
     ?<Constant "Col. 3">              8
     ?<Constant "Col. 4">              8
     ?<Constant "Name ">               8
     ?<Constant "unit">                8
     ?<Constant {{2202, 0, 69}, {5, 0, 18}, {2558,
                                     180
     ?<Constant "Density">             8
     TDUAppWinSetup::new TDUAppWinSetup()
                                      32
     TDUAppWinSetup::delete ~TDUAppWinSetup(TDUAppWinSetup *)
                                      32
     __sti__routine()                  4
     ??DataTable10                     4
     ??DataTable11                     4
     ??DataTable12                     4
     ??DataTable13                     4
     ??DataTable14                     4
     ??DataTable15                     4
     ??DataTable16                     4
     ??DataTable17                     4
     ??DataTable18                     4
      Others                         440

 
 4 300 bytes in segment CODE
   672 bytes in segment DATA_C
     4 bytes in segment DIFUNCT
 
 3 868 bytes of CODE  memory (+ 436 bytes shared)
   672 bytes of CONST memory

Errors: none
Warnings: none
