##############################################################################
#                                                                            #
# IAR ARM ANSI C/C++ Compiler V4.42A/W32               14/Sep/2022  15:17:39 #
# Copyright 1999-2005 IAR Systems. All rights reserved.                      #
#                                                                            #
#    Cpu mode        =  interwork                                            #
#    Endian          =  little                                               #
#    Stack alignment =  4                                                    #
#    Source file     =  D:\S2Prog\TXU\src\TDUAppSetupCargo.cpp               #
#    Command line    =  D:\S2Prog\TXU\src\TDUAppSetupCargo.cpp --fpu None    #
#                       -D OS_LIBMODE_SP -D CPU_S3C2410 -D OS_RAMVECT=0 -D   #
#                       OS_UART=-1 -D S2TXU -D USE_LZO=1 -D __ARM_LIBRARY__  #
#                       -D WATCHDOG=1 -D NETWORK=1 -lCN                      #
#                       D:\S2Prog\TXU\Debug\List\ -o                         #
#                       D:\S2Prog\TXU\Debug\Obj\ -s9 --debug --cpu_mode arm  #
#                       --endian little --cpu ARM920T --stack_align 4        #
#                       --interwork -e --enable_multibytes --eec++           #
#                       --dlib_config "C:\Program Files (x86)\IAR            #
#                       Systems\Embedded Workbench                           #
#                       4.0\arm\LIB\dl4tpainl8n.h" -I                        #
#                       D:\S2Prog\TXU\GUI\CORE\ -I D:\S2Prog\TXU\GUI\WM\ -I  #
#                       D:\S2Prog\TXU\GUI\WIDGET\ -I D:\S2Prog\TXU\CONFIG\   #
#                       -I D:\S2Prog\TXU\INC\ -I D:\S2Prog\TXU\..\SHARED\INC #
#                       \ -I D:\S2Prog\TXU\..\SHARED\SRC\ -I                 #
#                       D:\S2Prog\TXU\..\SHARED\LZO\minilzo.210\ -I          #
#                       D:\S2Prog\TXU\lwip-1.4.1\src\include\ -I             #
#                       D:\S2Prog\TXU\lwip-1.4.1\src\include\ipv4\ -I        #
#                       D:\S2Prog\TXU\lwip-1.4.1\src\ -I                     #
#                       D:\S2Prog\TXU\..\SHARED\Database\ -I                 #
#                       D:\S2Prog\TXU\src\ -I "C:\Program Files (x86)\IAR    #
#                       Systems\Embedded Workbench 4.0\arm\INC\"             #
#                       --inline_threshold=2                                 #
#    List file       =  D:\S2Prog\TXU\Debug\List\TDUAppSetupCargo.lst        #
#    Object file     =  D:\S2Prog\TXU\Debug\Obj\TDUAppSetupCargo.r79         #
#                                                                            #
#                                                                            #
##############################################################################

D:\S2Prog\TXU\src\TDUAppSetupCargo.cpp
      1          #include "TDUIncludes.h"

   \                                 In segment CODE, align 4, keep-with-next
   \   __??Code32?? __code __interwork __atpcs _Tree<_Tset_traits<PRogramObjectBase *, less<PRogramObjectBase *>, allocator<PRogramObjectBase *>, false>>::_Tree(_Tree<_Tset_traits<PRogramObjectBase *, less<PRogramObjectBase *>, allocator<PRogramObjectBase *>, false>> const &)
   \                     ??_Tree:
   \   00000000   30402DE9           PUSH     {R4,R5,LR}
   \   00000004   0040A0E1           MOV      R4,R0
   \   00000008   0150A0E1           MOV      R5,R1
   \   0000000C   1400D5E5           LDRB     R0,[R5, #+20]
   \   00000010   044084E5           STR      R4,[R4, #+4]
   \   00000014   004084E5           STR      R4,[R4, #+0]
   \   00000018   084084E5           STR      R4,[R4, #+8]
   \   0000001C   0110A0E3           MOV      R1,#+1
   \   00000020   0D10C4E5           STRB     R1,[R4, #+13]
   \   00000024   0C10C4E5           STRB     R1,[R4, #+12]
   \   00000028   0010A0E3           MOV      R1,#+0
   \   0000002C   101084E5           STR      R1,[R4, #+16]
   \   00000030   1400C4E5           STRB     R0,[R4, #+20]
   \   00000034   041095E5           LDR      R1,[R5, #+4]
   \   00000038   0420A0E1           MOV      R2,R4
   \   0000003C   0400A0E1           MOV      R0,R4
   \   00000040   ........           _BLF     ??_Copy,??_Copy??rA
   \   00000044   040084E5           STR      R0,[R4, #+4]
   \   00000048   100095E5           LDR      R0,[R5, #+16]
   \   0000004C   100084E5           STR      R0,[R4, #+16]
   \   00000050   040094E5           LDR      R0,[R4, #+4]
   \   00000054   0D10D0E5           LDRB     R1,[R0, #+13]
   \   00000058   000051E3           CMP      R1,#+0
   \   0000005C   1600001A           BNE      ??_Tree_1
   \   00000060   0010A0E1           MOV      R1,R0
   \   00000064   002091E5           LDR      R2,[R1, #+0]
   \   00000068   0D20D2E5           LDRB     R2,[R2, #+13]
   \   0000006C   000052E3           CMP      R2,#+0
   \   00000070   0400001A           BNE      ??_Tree_2
   \                     ??_Tree_3:
   \   00000074   001091E5           LDR      R1,[R1, #+0]
   \   00000078   002091E5           LDR      R2,[R1, #+0]
   \   0000007C   0D20D2E5           LDRB     R2,[R2, #+13]
   \   00000080   000052E3           CMP      R2,#+0
   \   00000084   FAFFFF0A           BEQ      ??_Tree_3
   \                     ??_Tree_2:
   \   00000088   001084E5           STR      R1,[R4, #+0]
   \   0000008C   082090E5           LDR      R2,[R0, #+8]
   \   00000090   081084E2           ADD      R1,R4,#+8
   \   00000094   0D20D2E5           LDRB     R2,[R2, #+13]
   \   00000098   000052E3           CMP      R2,#+0
   \   0000009C   0400001A           BNE      ??_Tree_4
   \                     ??_Tree_5:
   \   000000A0   080090E5           LDR      R0,[R0, #+8]
   \   000000A4   082090E5           LDR      R2,[R0, #+8]
   \   000000A8   0D20D2E5           LDRB     R2,[R2, #+13]
   \   000000AC   000052E3           CMP      R2,#+0
   \   000000B0   FAFFFF0A           BEQ      ??_Tree_5
   \                     ??_Tree_4:
   \   000000B4   000081E5           STR      R0,[R1, #+0]
   \   000000B8   010000EA           B        ??_Tree_6
   \                     ??_Tree_1:
   \   000000BC   004084E5           STR      R4,[R4, #+0]
   \   000000C0   084084E5           STR      R4,[R4, #+8]
   \                     ??_Tree_6:
   \   000000C4   0400A0E1           MOV      R0,R4
   \   000000C8   3040BDE8           POP      {R4,R5,LR}
   \   000000CC   1EFF2FE1           BX       LR               ;; return

   \                                 In segment CODE, align 4, keep-with-next
   \   __??Code32?? __code __interwork __atpcs _Tree<_Tset_traits<PRogramObjectBase *, less<PRogramObjectBase *>, allocator<PRogramObjectBase *>, false>>::_Nodeptr _Tree<_Tset_traits<PRogramObjectBase *, less<PRogramObjectBase *>, allocator<PRogramObjectBase *>, false>>::_Copy(_Tree<_Tset_traits<PRogramObjectBase *, less<PRogramObjectBase *>, allocator<PRogramObjectBase *>, false>>::_Nodeptr, _Tree<_Tset_traits<PRogramObjectBase *, less<PRogramObjectBase *>, allocator<PRogramObjectBase *>, false>>::_Nodeptr)
   \                     ??_Copy:
   \   00000000   F0472DE9           PUSH     {R4-R10,LR}
   \   00000004   0040A0E1           MOV      R4,R0
   \   00000008   0150A0E1           MOV      R5,R1
   \   0000000C   0D00D5E5           LDRB     R0,[R5, #+13]
   \   00000010   0280A0E1           MOV      R8,R2
   \   00000014   0460A0E1           MOV      R6,R4
   \   00000018   000050E3           CMP      R0,#+0
   \   0000001C   1900001A           BNE      ??_Copy_1
   \   00000020   0C90D5E5           LDRB     R9,[R5, #+12]
   \   00000024   10A095E5           LDR      R10,[R5, #+16]
   \   00000028   1400A0E3           MOV      R0,#+20
   \   0000002C   ........           _BLF     `??operator new`,`??operator new??rA`
   \   00000030   0070B0E1           MOVS     R7,R0
   \   00000034   0600000A           BEQ      ??_Copy_2
   \   00000038   004087E5           STR      R4,[R7, #+0]
   \   0000003C   048087E5           STR      R8,[R7, #+4]
   \   00000040   084087E5           STR      R4,[R7, #+8]
   \   00000044   0C90C7E5           STRB     R9,[R7, #+12]
   \   00000048   0000A0E3           MOV      R0,#+0
   \   0000004C   0D00C7E5           STRB     R0,[R7, #+13]
   \   00000050   10A087E5           STR      R10,[R7, #+16]
   \                     ??_Copy_2:
   \   00000054   0D00D6E5           LDRB     R0,[R6, #+13]
   \   00000058   001095E5           LDR      R1,[R5, #+0]
   \   0000005C   0720A0E1           MOV      R2,R7
   \   00000060   000050E3           CMP      R0,#+0
   \   00000064   0760A011           MOVNE    R6,R7
   \   00000068   0400A0E1           MOV      R0,R4
   \   0000006C   E3FFFFEB           BL       ??_Copy
   \   00000070   000087E5           STR      R0,[R7, #+0]
   \   00000074   081095E5           LDR      R1,[R5, #+8]
   \   00000078   0720A0E1           MOV      R2,R7
   \   0000007C   0400A0E1           MOV      R0,R4
   \   00000080   DEFFFFEB           BL       ??_Copy
   \   00000084   080087E5           STR      R0,[R7, #+8]
   \                     ??_Copy_1:
   \   00000088   0600A0E1           MOV      R0,R6
   \   0000008C   F047BDE8           POP      {R4-R10,LR}
   \   00000090   1EFF2FE1           BX       LR               ;; return

   \                                 In segment CODE, align 4, keep-with-next
   \   __??Code32?? __code __interwork __atpcs void _Tree<_Tset_traits<PRogramObjectBase *, less<PRogramObjectBase *>, allocator<PRogramObjectBase *>, false>>::_Erase(_Tree<_Tset_traits<PRogramObjectBase *, less<PRogramObjectBase *>, allocator<PRogramObjectBase *>, false>>::_Nodeptr)
   \                     ??_Erase:
   \   00000000   70402DE9           PUSH     {R4-R6,LR}
   \   00000004   0040A0E1           MOV      R4,R0
   \   00000008   0150A0E1           MOV      R5,R1
   \   0000000C   0560A0E1           MOV      R6,R5
   \   00000010   0D00D6E5           LDRB     R0,[R6, #+13]
   \   00000014   000050E3           CMP      R0,#+0
   \   00000018   0900001A           BNE      ??_Erase_1
   \                     ??_Erase_2:
   \   0000001C   081096E5           LDR      R1,[R6, #+8]
   \   00000020   0400A0E1           MOV      R0,R4
   \   00000024   F5FFFFEB           BL       ??_Erase
   \   00000028   006096E5           LDR      R6,[R6, #+0]
   \   0000002C   0500A0E1           MOV      R0,R5
   \   00000030   ........           _BLF     `??operator delete`,`??operator delete??rA`
   \   00000034   0D00D6E5           LDRB     R0,[R6, #+13]
   \   00000038   0650A0E1           MOV      R5,R6
   \   0000003C   000050E3           CMP      R0,#+0
   \   00000040   F5FFFF0A           BEQ      ??_Erase_2
   \                     ??_Erase_1:
   \   00000044   7040BDE8           POP      {R4-R6,LR}
   \   00000048   1EFF2FE1           BX       LR               ;; return
      2          
      3          

   \                                 In segment CODE, align 4, keep-with-next
      4          TDUAppSetupCargo::~TDUAppSetupCargo(void)
      5          {
   \                     `?~TDUAppSetupCargo`:
   \   00000000   00402DE9           PUSH     {LR}
      6          }
   \   00000004   ........           _BLF     `?~TDUBasicWin`,`?~TDUBasicWin??rA`
   \   00000008   0040BDE8           POP      {LR}
   \   0000000C   1EFF2FE1           BX       LR               ;; return
      7          

   \                                 In segment CODE, align 4, keep-with-next
      8          TDUAppSetupCargo::TDUAppSetupCargo(void)
   \                     ??TDUAppSetupCargo:
   \   00000000   10402DE9           PUSH     {R4,LR}
   \   00000004   0040A0E1           MOV      R4,R0
      9          {
   \   00000008   ........           _BLF     ??TDUBasicWin,??TDUBasicWin??rA
     10          	ValTabPtr = PROCargoTank::GetValueInfoTableStatic(ValTabEntries,TAB_TANK_VALUES);
   \   0000000C   0010A0E3           MOV      R1,#+0
   \   00000010   540084E2           ADD      R0,R4,#+84
   \   00000014   ........           _BLF     ??GetValueInfoTableStatic,??GetValueInfoTableStatic??rA
   \   00000018   580084E5           STR      R0,[R4, #+88]
     11          	AppSetupCargoIsClosed = true;
   \   0000001C   ........           LDR      R0,??DataTable1  ;; AppSetupCargoIsClosed
   \   00000020   0110A0E3           MOV      R1,#+1
   \   00000024   0010C0E5           STRB     R1,[R0, #+0]
     12          }
   \   00000028   0400A0E1           MOV      R0,R4
   \   0000002C   1040BDE8           POP      {R4,LR}
   \   00000030   1EFF2FE1           BX       LR               ;; return
     13          

   \                                 In segment DATA_C, align 4, align-sorted
     14          const GUI_WIDGET_CREATE_INFO TDUAppSetupCargo::aDialogCreate[] =
   \                     ??aDialogCreate:
   \   00000000   ............       DC32 FRAMEWIN_CreateIndirect, `?<Constant "Application setup">`
   \              ....        
   \   00000008   960800000000       DC16 2198, 0, 0, 0, 0, 128
   \              000000008000
   \   00000014   00000000....       DC32 0, TEXT_CreateIndirect, `?<Constant "Operation mode">`
   \              ............
   \   00000020   030A05009D00       DC16 2563, 5, 157, 80, 15, 0
   \              50000F000000
   \   0000002C   00000000           DC8 0, 0, 0, 0
   \   00000030   ........0000       DC32 DROPDOWN_CreateIndirect, 0H
   \              0000        
   \   00000038   C00A5A009D00       DC16 2752, 90, 157, 85, 50, 2
   \              550032000200
   \   00000044   03000000....       DC32 3, BUTTON_CreateIndirect, `?<Constant "Close">`
   \              ............
   \   00000050   0500BE009A00       DC16 5, 190, 154, 85, 25
   \              55001900    
   \   0000005A   000000000000       DC8 0, 0, 0, 0, 0, 0
   \   00000060   ............       DC32 TEXT_CreateIndirect, `?<Constant "Col. 1">`
   \              ....        
   \   00000068   FE0904000400       DC16 2558, 4, 4, 40, 15, 0
   \              28000F000000
   \   00000074   00000000           DC8 0, 0, 0, 0
   \   00000078   ............       DC32 TEXT_CreateIndirect, `?<Constant "Col. 2">`
   \              ....        
   \   00000080   FF092C000400       DC16 2559, 44, 4, 74, 15, 0
   \              4A000F000000
   \   0000008C   00000000           DC8 0, 0, 0, 0
   \   00000090   ............       DC32 TEXT_CreateIndirect, `?<Constant "Col. 3">`
   \              ....        
   \   00000098   000A7C000400       DC16 2560, 124, 4, 74, 15, 0
   \              4A000F000000
   \   000000A4   00000000           DC8 0, 0, 0, 0
   \   000000A8   ............       DC32 TEXT_CreateIndirect, `?<Constant "Col. 4">`
   \              ....        
   \   000000B0   010ACC000400       DC16 2561, 204, 4, 74, 15, 0
   \              4A000F000000
   \   000000BC   00000000           DC8 0, 0, 0, 0
   \   000000C0   ............       DC32 TEXT_CreateIndirect, `?<Constant "Name ">`
   \              ....        
   \   000000C8   020A04001400       DC16 2562, 4, 20, 74, 15, 0
   \              4A000F000000
   \   000000D4   00000000           DC8 0, 0, 0, 0
   \   000000D8   ........0000       DC32 DROPDOWN_CreateIndirect, 0H
   \              0000        
   \   000000E0   81012C001400       DC16 385, 44, 20, 74, 110, 0
   \              4A006E000000
   \   000000EC   00000000....       DC32 0, DROPDOWN_CreateIndirect, 0H
   \              ....00000000
   \   000000F8   82017C001400       DC16 386, 124, 20, 74, 110, 0
   \              4A006E000000
   \   00000104   00000000....       DC32 0, DROPDOWN_CreateIndirect, 0H
   \              ....00000000
   \   00000110   8301CC001400       DC16 387, 204, 20, 74, 110, 0
   \              4A006E000000
   \   0000011C   00000000....       DC32 0, TEXT_CreateIndirect, `?<Constant "unit">`
   \              ............
   \   00000128   620130002800       DC16 354, 48, 40, 74, 15, 0
   \              4A000F000000
   \   00000134   00000000           DC8 0, 0, 0, 0
   \   00000138   ............       DC32 TEXT_CreateIndirect, `?<Constant "unit">`
   \              ....        
   \   00000140   630180002800       DC16 355, 128, 40, 74, 15, 0
   \              4A000F000000
   \   0000014C   00000000           DC8 0, 0, 0, 0
   \   00000150   ............       DC32 TEXT_CreateIndirect, `?<Constant "unit">`
   \              ....        
   \   00000158   6401D0002800       DC16 356, 208, 40, 74, 15, 0
   \              4A000F000000
   \   00000164   00000000           DC8 0, 0, 0, 0
   \   00000168   ............       DC32 BUTTON_CreateIndirect, `?<Constant "Zero adjust tank\\n pre...">`
   \              ....        
   \   00000170   700105006900       DC16 368, 5, 105, 130, 45
   \              82002D00    
   \   0000017A   000000000000       DC8 0, 0, 0, 0, 0, 0
   \   00000180   ............       DC32 BUTTON_CreateIndirect, `?<Constant "Zero adjust level\\n se...">`
   \              ....        
   \   00000188   710190006900       DC16 369, 144, 105, 130, 45
   \              82002D00    
   \   00000192   000000000000       DC8 0, 0, 0, 0, 0, 0
     15          {
     16          	{ FRAMEWIN_CreateIndirect, "Application setup",TDU_APPCARGO_WIN , 0, 0, 0, 0, FRAMEWIN_CF_MAXIMIZED, 0},
     17          	{ TEXT_CreateIndirect, "Operation mode"       , GUI_ID_TEXT15   ,   5, 157,  80, 15, TEXT_CF_LEFT},
     18          	{ DROPDOWN_CreateIndirect,   NULL             , GUI_ID_DROPDOWN4,  90, 157,  85, 50, DROPDOWN_CF_UP, 3},
     19          	{ BUTTON_CreateIndirect, "Close"              , GUI_ID_CLOSE    , 190, 154,  85, 25},
     20          	{ TEXT_CreateIndirect, "Col. 1"               , GUI_ID_TEXT10   ,   4,   4,  40,  15, TEXT_CF_LEFT},
     21          	{ TEXT_CreateIndirect, "Col. 2"               , GUI_ID_TEXT11   ,  44,   4,  74,  15, TEXT_CF_LEFT},
     22          	{ TEXT_CreateIndirect, "Col. 3"               , GUI_ID_TEXT12   , 124,   4,  74,  15, TEXT_CF_LEFT},
     23          	{ TEXT_CreateIndirect, "Col. 4"               , GUI_ID_TEXT13   , 204,   4,  74,  15, TEXT_CF_LEFT},
     24          	{ TEXT_CreateIndirect, "Name "                , GUI_ID_TEXT14   ,   4,  20,  74,  15, TEXT_CF_LEFT},
     25          	{ DROPDOWN_CreateIndirect, NULL               , GUI_ID_DROPDOWN1,  44,  20,  74, 110, 0, 0},
     26          	{ DROPDOWN_CreateIndirect, NULL               , GUI_ID_DROPDOWN2, 124,  20,  74, 110, 0, 0},
     27          	{ DROPDOWN_CreateIndirect, NULL               , GUI_ID_DROPDOWN3, 204,  20,  74, 110, 0, 0},
     28          	{ TEXT_CreateIndirect, "unit"                 , GUI_ID_TEXT2    ,  48,  40,  74,  15, TEXT_CF_LEFT},
     29          	{ TEXT_CreateIndirect, "unit"                 , GUI_ID_TEXT3    , 128,  40,  74,  15, TEXT_CF_LEFT},
     30          	{ TEXT_CreateIndirect, "unit"                 , GUI_ID_TEXT4    , 208,  40,  74,  15, TEXT_CF_LEFT},
     31          	{ BUTTON_CreateIndirect,"Zero adjust tank\n pressure sensor for\n all cargo tanks." ,GUI_ID_BUTTON0,  5,  105, 130, 45},
     32          	{ BUTTON_CreateIndirect,"Zero adjust level\n sensor(s) for\n all cargo tanks."      ,GUI_ID_BUTTON1,  144, 105, 130, 45},
     33          };
     34          
     35          

   \                                 In segment CODE, align 4, keep-with-next
     36          void TDUAppSetupCargo::ExecDialogBox(WM_HWIN hCurrentWin)
     37          {
   \                     ??ExecDialogBox:
   \   00000000   10402DE9           PUSH     {R4,LR}
   \   00000004   0040A0E1           MOV      R4,R0
     38          	if ( AppSetupCargoIsClosed ) {
   \   00000008   ........           LDR      R0,??DataTable1  ;; AppSetupCargoIsClosed
   \   0000000C   0020D0E5           LDRB     R2,[R0, #+0]
   \   00000010   000052E3           CMP      R2,#+0
   \   00000014   2100000A           BEQ      ??ExecDialogBox_1
     39          		AppSetupCargoIsClosed = false;
   \   00000018   0020A0E3           MOV      R2,#+0
   \   0000001C   0020C0E5           STRB     R2,[R0, #+0]
     40          		WinHandl = GUI_CreateDialogBox(aDialogCreate, GUI_COUNTOF(aDialogCreate),&cbTankSetup,
     41          									   hCurrentWin, 0, 0);
   \   00000020   88209FE5           LDR      R2,??ExecDialogBox_2  ;; ??cbTankSetup
   \   00000024   0000A0E3           MOV      R0,#+0
   \   00000028   01002DE9           PUSH     {R0}
   \   0000002C   01002DE9           PUSH     {R0}
   \   00000030   7C009FE5           LDR      R0,??ExecDialogBox_2+0x4  ;; ??aDialogCreate
   \   00000034   0130A0E1           MOV      R3,R1
   \   00000038   1110A0E3           MOV      R1,#+17
   \   0000003C   ........           _BLF     GUI_CreateDialogBox,??GUI_CreateDialogBox??rA
   \   00000040   BA02C4E1           STRH     R0,[R4, #+42]
     42          		DROPDOWN_SetAutoScroll( WM_GetDialogItem(WinHandl, GUI_ID_DROPDOWN1), 1 );
   \   00000044   8110A0E3           MOV      R1,#+129
   \   00000048   401F81E3           ORR      R1,R1,#0x100
   \   0000004C   ........           _BLF     WM_GetDialogItem,??WM_GetDialogItem??rA
   \   00000050   0110A0E3           MOV      R1,#+1
   \   00000054   ........           _BLF     DROPDOWN_SetAutoScroll,??DROPDOWN_SetAutoScroll??rA
     43          		DROPDOWN_SetAutoScroll( WM_GetDialogItem(WinHandl, GUI_ID_DROPDOWN2), 1 );
   \   00000058   FA02D4E1           LDRSH    R0,[R4, #+42]
   \   0000005C   8210A0E3           MOV      R1,#+130
   \   00000060   401F81E3           ORR      R1,R1,#0x100
   \   00000064   ........           _BLF     WM_GetDialogItem,??WM_GetDialogItem??rA
   \   00000068   0110A0E3           MOV      R1,#+1
   \   0000006C   ........           _BLF     DROPDOWN_SetAutoScroll,??DROPDOWN_SetAutoScroll??rA
     44          		DROPDOWN_SetAutoScroll( WM_GetDialogItem(WinHandl, GUI_ID_DROPDOWN3), 1 );
   \   00000070   FA02D4E1           LDRSH    R0,[R4, #+42]
   \   00000074   8310A0E3           MOV      R1,#+131
   \   00000078   401F81E3           ORR      R1,R1,#0x100
   \   0000007C   ........           _BLF     WM_GetDialogItem,??WM_GetDialogItem??rA
   \   00000080   0110A0E3           MOV      R1,#+1
   \   00000084   ........           _BLF     DROPDOWN_SetAutoScroll,??DROPDOWN_SetAutoScroll??rA
     45          		WM_EnableMemdev(WinHandl);
   \   00000088   FA02D4E1           LDRSH    R0,[R4, #+42]
   \   0000008C   ........           _BLF     WM_EnableMemdev,??WM_EnableMemdev??rA
     46          		GetDialogHandles();
   \   00000090   0400A0E1           MOV      R0,R4
   \   00000094   ........           BL       ??GetDialogHandles
   \   00000098   08D08DE2           ADD      SP,SP,#+8
   \   0000009C   010000EA           B        ??ExecDialogBox_3
     47          		//if ( hTimer ) WM_RestartTimer(hTimer, 1000); else hTimer  = WM_CreateTimer(WinHandl, 0, 1000, 0);
     48          	} else {
     49          		WM_BringToTop(WinHandl);
   \                     ??ExecDialogBox_1:
   \   000000A0   FA02D4E1           LDRSH    R0,[R4, #+42]
   \   000000A4   ........           _BLF     WM_BringToTop,??WM_BringToTop??rA
     50          	}
     51          }
   \                     ??ExecDialogBox_3:
   \   000000A8   1040BDE8           POP      {R4,LR}
   \   000000AC   1EFF2FE1           BX       LR               ;; return
   \                     ??ExecDialogBox_2:
   \   000000B0   ........           DC32     ??cbTankSetup
   \   000000B4   ........           DC32     ??aDialogCreate
     52          
     53          /*********************************************************************
     54          *
     55          * Dialog procedure
     56          */

   \                                 In segment CODE, align 4, keep-with-next
     57          void TDUAppSetupCargo::GetDialogHandles(void)
     58          {
   \                     ??GetDialogHandles:
   \   00000000   10402DE9           PUSH     {R4,LR}
   \   00000004   0040A0E1           MOV      R4,R0
     59          	/* Get window handles for all widgets */
     60          	hDropdCol2      = WM_GetDialogItem(WinHandl, GUI_ID_DROPDOWN1);
   \   00000008   FA02D4E1           LDRSH    R0,[R4, #+42]
   \   0000000C   8110A0E3           MOV      R1,#+129
   \   00000010   401F81E3           ORR      R1,R1,#0x100
   \   00000014   ........           _BLF     WM_GetDialogItem,??WM_GetDialogItem??rA
   \   00000018   B403C4E1           STRH     R0,[R4, #+52]
     61          	hDropdCol3      = WM_GetDialogItem(WinHandl, GUI_ID_DROPDOWN2);
   \   0000001C   FA02D4E1           LDRSH    R0,[R4, #+42]
   \   00000020   8210A0E3           MOV      R1,#+130
   \   00000024   401F81E3           ORR      R1,R1,#0x100
   \   00000028   ........           _BLF     WM_GetDialogItem,??WM_GetDialogItem??rA
   \   0000002C   B603C4E1           STRH     R0,[R4, #+54]
     62          	hDropdCol4      = WM_GetDialogItem(WinHandl, GUI_ID_DROPDOWN3);
   \   00000030   FA02D4E1           LDRSH    R0,[R4, #+42]
   \   00000034   8310A0E3           MOV      R1,#+131
   \   00000038   401F81E3           ORR      R1,R1,#0x100
   \   0000003C   ........           _BLF     WM_GetDialogItem,??WM_GetDialogItem??rA
   \   00000040   B803C4E1           STRH     R0,[R4, #+56]
     63          	hDropdOpMode    = WM_GetDialogItem(WinHandl, GUI_ID_DROPDOWN4);
   \   00000044   FA02D4E1           LDRSH    R0,[R4, #+42]
   \   00000048   AC1EA0E3           MOV      R1,#+2752
   \   0000004C   ........           _BLF     WM_GetDialogItem,??WM_GetDialogItem??rA
   \   00000050   BA03C4E1           STRH     R0,[R4, #+58]
     64          	hTextUnitCol2   = WM_GetDialogItem(WinHandl, GUI_ID_TEXT2);
   \   00000054   FA02D4E1           LDRSH    R0,[R4, #+42]
   \   00000058   6210A0E3           MOV      R1,#+98
   \   0000005C   401F81E3           ORR      R1,R1,#0x100
   \   00000060   ........           _BLF     WM_GetDialogItem,??WM_GetDialogItem??rA
   \   00000064   BC03C4E1           STRH     R0,[R4, #+60]
     65          	hTextUnitCol3   = WM_GetDialogItem(WinHandl, GUI_ID_TEXT3);
   \   00000068   FA02D4E1           LDRSH    R0,[R4, #+42]
   \   0000006C   6310A0E3           MOV      R1,#+99
   \   00000070   401F81E3           ORR      R1,R1,#0x100
   \   00000074   ........           _BLF     WM_GetDialogItem,??WM_GetDialogItem??rA
   \   00000078   BE03C4E1           STRH     R0,[R4, #+62]
     66          	hTextUnitCol4   = WM_GetDialogItem(WinHandl, GUI_ID_TEXT4);
   \   0000007C   FA02D4E1           LDRSH    R0,[R4, #+42]
   \   00000080   591FA0E3           MOV      R1,#+356
   \   00000084   ........           _BLF     WM_GetDialogItem,??WM_GetDialogItem??rA
   \   00000088   B004C4E1           STRH     R0,[R4, #+64]
     67          	hTextTotalCol2  = WM_GetDialogItem(WinHandl, GUI_ID_TEXT5);
   \   0000008C   FA02D4E1           LDRSH    R0,[R4, #+42]
   \   00000090   6510A0E3           MOV      R1,#+101
   \   00000094   401F81E3           ORR      R1,R1,#0x100
   \   00000098   ........           _BLF     WM_GetDialogItem,??WM_GetDialogItem??rA
   \   0000009C   B204C4E1           STRH     R0,[R4, #+66]
     68          	hTextTotalCol3  = WM_GetDialogItem(WinHandl, GUI_ID_TEXT6);
   \   000000A0   FA02D4E1           LDRSH    R0,[R4, #+42]
   \   000000A4   6610A0E3           MOV      R1,#+102
   \   000000A8   401F81E3           ORR      R1,R1,#0x100
   \   000000AC   ........           _BLF     WM_GetDialogItem,??WM_GetDialogItem??rA
   \   000000B0   B404C4E1           STRH     R0,[R4, #+68]
     69          	hTextTotalCol4  = WM_GetDialogItem(WinHandl, GUI_ID_TEXT7);
   \   000000B4   FA02D4E1           LDRSH    R0,[R4, #+42]
   \   000000B8   6710A0E3           MOV      R1,#+103
   \   000000BC   401F81E3           ORR      R1,R1,#0x100
   \   000000C0   ........           _BLF     WM_GetDialogItem,??WM_GetDialogItem??rA
   \   000000C4   B604C4E1           STRH     R0,[R4, #+70]
     70          	hButZeroTP    = WM_GetDialogItem(WinHandl, GUI_ID_BUTTON0);
   \   000000C8   FA02D4E1           LDRSH    R0,[R4, #+42]
   \   000000CC   5C1FA0E3           MOV      R1,#+368
   \   000000D0   ........           _BLF     WM_GetDialogItem,??WM_GetDialogItem??rA
   \   000000D4   B005C4E1           STRH     R0,[R4, #+80]
     71          	hButZeroLevel = WM_GetDialogItem(WinHandl, GUI_ID_BUTTON1);
   \   000000D8   FA02D4E1           LDRSH    R0,[R4, #+42]
   \   000000DC   7110A0E3           MOV      R1,#+113
   \   000000E0   401F81E3           ORR      R1,R1,#0x100
   \   000000E4   ........           _BLF     WM_GetDialogItem,??WM_GetDialogItem??rA
   \   000000E8   B205C4E1           STRH     R0,[R4, #+82]
     72          	InitDialog();
   \   000000EC   0400A0E1           MOV      R0,R4
   \   000000F0   ........           BL       ??InitDialog
     73          }
   \   000000F4   1040BDE8           POP      {R4,LR}
   \   000000F8   1EFF2FE1           BX       LR               ;; return
     74          

   \                                 In segment CODE, align 4, keep-with-next
     75          void TDUAppSetupCargo::InitDialog(void)
     76          {
   \                     ??InitDialog:
   \   00000000   F0432DE9           PUSH     {R4-R9,LR}
   \   00000004   CCD04DE2           SUB      SP,SP,#+204
   \   00000008   0040A0E1           MOV      R4,R0
   \   0000000C   020000EA           B        ??InitDialog_1
     77          
     78          	/* Initialize all widgets */
     79          	while ( DROPDOWN_GetNumItems(hDropdCol2)>0 ) {
     80          		DROPDOWN_DeleteItem(hDropdCol2, 0);
   \                     ??InitDialog_2:
   \   00000010   F403D4E1           LDRSH    R0,[R4, #+52]
   \   00000014   0010A0E3           MOV      R1,#+0
   \   00000018   ........           _BLF     DROPDOWN_DeleteItem,??DROPDOWN_DeleteItem??rA
     81          	}
   \                     ??InitDialog_1:
   \   0000001C   F403D4E1           LDRSH    R0,[R4, #+52]
   \   00000020   ........           _BLF     DROPDOWN_GetNumItems,??DROPDOWN_GetNumItems??rA
   \   00000024   010050E3           CMP      R0,#+1
   \   00000028   F8FFFFAA           BGE      ??InitDialog_2
     82          	while ( DROPDOWN_GetNumItems(hDropdCol3)>0 ) {
   \                     ??InitDialog_3:
   \   0000002C   F603D4E1           LDRSH    R0,[R4, #+54]
   \   00000030   ........           _BLF     DROPDOWN_GetNumItems,??DROPDOWN_GetNumItems??rA
   \   00000034   010050E3           CMP      R0,#+1
   \   00000038   060000BA           BLT      ??InitDialog_4
     83          		DROPDOWN_DeleteItem(hDropdCol3, 0);
   \   0000003C   F603D4E1           LDRSH    R0,[R4, #+54]
   \   00000040   0010A0E3           MOV      R1,#+0
   \   00000044   ........           _BLF     DROPDOWN_DeleteItem,??DROPDOWN_DeleteItem??rA
   \   00000048   F7FFFFEA           B        ??InitDialog_3
     84          	}
     85          	while ( DROPDOWN_GetNumItems(hDropdCol4)>0 ) {
     86          		DROPDOWN_DeleteItem(hDropdCol4, 0);
   \                     ??InitDialog_5:
   \   0000004C   F803D4E1           LDRSH    R0,[R4, #+56]
   \   00000050   0010A0E3           MOV      R1,#+0
   \   00000054   ........           _BLF     DROPDOWN_DeleteItem,??DROPDOWN_DeleteItem??rA
     87          	}
   \                     ??InitDialog_4:
   \   00000058   F803D4E1           LDRSH    R0,[R4, #+56]
   \   0000005C   ........           _BLF     DROPDOWN_GetNumItems,??DROPDOWN_GetNumItems??rA
   \   00000060   010050E3           CMP      R0,#+1
   \   00000064   F8FFFFAA           BGE      ??InitDialog_5
     88          	int ind1 = 0;
     89          	int ind2 = 0;
     90          	int ind3 = 0;
     91          	for ( int i = 0; i < ValTabEntries; i++ ) {
   \   00000068   540094E5           LDR      R0,[R4, #+84]
   \   0000006C   0050A0E3           MOV      R5,#+0
   \   00000070   0060A0E3           MOV      R6,#+0
   \   00000074   0570A0E1           MOV      R7,R5
   \   00000078   0580A0E1           MOV      R8,R5
   \   0000007C   010050E3           CMP      R0,#+1
   \   00000080   220000AA           BGE      ??InitDialog_6
     92          		DROPDOWN_AddString(hDropdCol2, FindDictionaryWord(ValTabPtr[i].Name).c_str());
     93          		DROPDOWN_AddString(hDropdCol3,  FindDictionaryWord(ValTabPtr[i].Name).c_str());
     94          		DROPDOWN_AddString(hDropdCol4,  FindDictionaryWord(ValTabPtr[i].Name).c_str());
     95          		if ( ValTabPtr[i].Value==CargoWindow->ValueTable[2].ValueId )ind1=i;
     96          		if ( ValTabPtr[i].Value==CargoWindow->ValueTable[3].ValueId )ind2=i;
     97          		if ( ValTabPtr[i].Value==CargoWindow->ValueTable[4].ValueId )ind3=i;
     98          	}
     99          	DROPDOWN_SetSel(hDropdCol2,ind1);
   \                     ??InitDialog_7:
   \   00000084   F403D4E1           LDRSH    R0,[R4, #+52]
   \   00000088   0510A0E1           MOV      R1,R5
   \   0000008C   ........           _BLF     DROPDOWN_SetSel,??DROPDOWN_SetSel??rA
    100          	DROPDOWN_SetSel(hDropdCol3,ind2);
   \   00000090   F603D4E1           LDRSH    R0,[R4, #+54]
   \   00000094   0610A0E1           MOV      R1,R6
   \   00000098   ........           _BLF     DROPDOWN_SetSel,??DROPDOWN_SetSel??rA
    101          	DROPDOWN_SetSel(hDropdCol4,ind3);
   \   0000009C   F803D4E1           LDRSH    R0,[R4, #+56]
   \   000000A0   0710A0E1           MOV      R1,R7
   \   000000A4   ........           _BLF     DROPDOWN_SetSel,??DROPDOWN_SetSel??rA
    102          // Operation Mode Drop Down
    103          	DROPDOWN_SetAutoScroll(hDropdOpMode,1);
   \   000000A8   FA03D4E1           LDRSH    R0,[R4, #+58]
   \   000000AC   0110A0E3           MOV      R1,#+1
   \   000000B0   ........           _BLF     DROPDOWN_SetAutoScroll,??DROPDOWN_SetAutoScroll??rA
   \   000000B4   420000EA           B        ??InitDialog_8
   \                     ??InitDialog_9:
   \   000000B8   F803D4E1           LDRSH    R0,[R4, #+56]
   \   000000BC   ........           _BLF     DROPDOWN_AddString,??DROPDOWN_AddString??rA
   \   000000C0   0020A0E3           MOV      R2,#+0
   \   000000C4   0110A0E3           MOV      R1,#+1
   \   000000C8   1C008DE2           ADD      R0,SP,#+28
   \   000000CC   ........           _BLF     ??_Tidy,??_Tidy??rA
   \   000000D0   ........           LDR      R0,??DataTable2  ;; CargoWindow
   \   000000D4   581094E5           LDR      R1,[R4, #+88]
   \   000000D8   000090E5           LDR      R0,[R0, #+0]
   \   000000DC   011089E0           ADD      R1,R9,R1
   \   000000E0   7C0090E5           LDR      R0,[R0, #+124]
   \   000000E4   082091E5           LDR      R2,[R1, #+8]
   \   000000E8   183090E5           LDR      R3,[R0, #+24]
   \   000000EC   030052E1           CMP      R2,R3
   \   000000F0   243090E5           LDR      R3,[R0, #+36]
   \   000000F4   300090E5           LDR      R0,[R0, #+48]
   \   000000F8   0850A001           MOVEQ    R5,R8
   \   000000FC   030052E1           CMP      R2,R3
   \   00000100   0860A001           MOVEQ    R6,R8
   \   00000104   000052E1           CMP      R2,R0
   \   00000108   0870A001           MOVEQ    R7,R8
   \   0000010C   018088E2           ADD      R8,R8,#+1
   \                     ??InitDialog_6:
   \   00000110   540094E5           LDR      R0,[R4, #+84]
   \   00000114   000058E1           CMP      R8,R0
   \   00000118   D9FFFFAA           BGE      ??InitDialog_7
   \   0000011C   0C00A0E3           MOV      R0,#+12
   \   00000120   900809E0           MUL      R9,R0,R8
   \   00000124   580094E5           LDR      R0,[R4, #+88]
   \   00000128   001099E7           LDR      R1,[R9, +R0]
   \   0000012C   38008DE2           ADD      R0,SP,#+56
   \   00000130   ........           _BLF     ??FindDictionaryWord,??FindDictionaryWord??rA
   \   00000134   50009DE5           LDR      R0,[SP, #+80]
   \   00000138   100050E3           CMP      R0,#+16
   \   0000013C   F403D4E1           LDRSH    R0,[R4, #+52]
   \   00000140   3C109D25           LDRCS    R1,[SP, #+60]
   \   00000144   3C108D32           ADDCC    R1,SP,#+60
   \   00000148   ........           _BLF     DROPDOWN_AddString,??DROPDOWN_AddString??rA
   \   0000014C   0020A0E3           MOV      R2,#+0
   \   00000150   0110A0E3           MOV      R1,#+1
   \   00000154   38008DE2           ADD      R0,SP,#+56
   \   00000158   ........           _BLF     ??_Tidy,??_Tidy??rA
   \   0000015C   580094E5           LDR      R0,[R4, #+88]
   \   00000160   001099E7           LDR      R1,[R9, +R0]
   \   00000164   0D00A0E1           MOV      R0,SP
   \   00000168   ........           _BLF     ??FindDictionaryWord,??FindDictionaryWord??rA
   \   0000016C   18009DE5           LDR      R0,[SP, #+24]
   \   00000170   100050E3           CMP      R0,#+16
   \   00000174   F603D4E1           LDRSH    R0,[R4, #+54]
   \   00000178   04109D25           LDRCS    R1,[SP, #+4]
   \   0000017C   04108D32           ADDCC    R1,SP,#+4
   \   00000180   ........           _BLF     DROPDOWN_AddString,??DROPDOWN_AddString??rA
   \   00000184   0020A0E3           MOV      R2,#+0
   \   00000188   0110A0E3           MOV      R1,#+1
   \   0000018C   0D00A0E1           MOV      R0,SP
   \   00000190   ........           _BLF     ??_Tidy,??_Tidy??rA
   \   00000194   580094E5           LDR      R0,[R4, #+88]
   \   00000198   001099E7           LDR      R1,[R9, +R0]
   \   0000019C   1C008DE2           ADD      R0,SP,#+28
   \   000001A0   ........           _BLF     ??FindDictionaryWord,??FindDictionaryWord??rA
   \   000001A4   34009DE5           LDR      R0,[SP, #+52]
   \   000001A8   100050E3           CMP      R0,#+16
   \   000001AC   20109D25           LDRCS    R1,[SP, #+32]
   \   000001B0   20108D32           ADDCC    R1,SP,#+32
   \   000001B4   BFFFFFEA           B        ??InitDialog_9
    104          	while ( DROPDOWN_GetNumItems(hDropdOpMode)>0 ) {
    105          		DROPDOWN_DeleteItem(hDropdOpMode, 0);
   \                     ??InitDialog_10:
   \   000001B8   FA03D4E1           LDRSH    R0,[R4, #+58]
   \   000001BC   0010A0E3           MOV      R1,#+0
   \   000001C0   ........           _BLF     DROPDOWN_DeleteItem,??DROPDOWN_DeleteItem??rA
    106          	}
   \                     ??InitDialog_8:
   \   000001C4   FA03D4E1           LDRSH    R0,[R4, #+58]
   \   000001C8   ........           _BLF     DROPDOWN_GetNumItems,??DROPDOWN_GetNumItems??rA
   \   000001CC   010050E3           CMP      R0,#+1
   \   000001D0   F8FFFFAA           BGE      ??InitDialog_10
    107          	{
    108          		for ( int OpModeKey = (int)tSeaGoing; OpModeKey <= (int)tUndefined; OpModeKey++ ) {
   \   000001D4   0050A0E3           MOV      R5,#+0
    109          			AnsiString CName = PROXRefObject::GetStateString((TankState)OpModeKey);
   \                     ??InitDialog_11:
   \   000001D8   FF1005E2           AND      R1,R5,#0xFF
   \   000001DC   0D00A0E1           MOV      R0,SP
   \   000001E0   ........           _BLF     ??GetStateString,??GetStateString??rA
    110          			if ( !CName.IsEmpty() ) {
   \   000001E4   0D00A0E1           MOV      R0,SP
   \   000001E8   ........           _BLF     ??IsEmpty,??IsEmpty??rA
   \   000001EC   000050E3           CMP      R0,#+0
   \   000001F0   0500001A           BNE      ??InitDialog_12
    111          				DROPDOWN_AddString(hDropdOpMode, CName.c_str());
   \   000001F4   18009DE5           LDR      R0,[SP, #+24]
   \   000001F8   100050E3           CMP      R0,#+16
   \   000001FC   FA03D4E1           LDRSH    R0,[R4, #+58]
   \   00000200   04109D25           LDRCS    R1,[SP, #+4]
   \   00000204   04108D32           ADDCC    R1,SP,#+4
   \   00000208   ........           _BLF     DROPDOWN_AddString,??DROPDOWN_AddString??rA
    112          			}
    113          		}
   \                     ??InitDialog_12:
   \   0000020C   0020A0E3           MOV      R2,#+0
   \   00000210   0110A0E3           MOV      R1,#+1
   \   00000214   0D00A0E1           MOV      R0,SP
   \   00000218   ........           _BLF     ??_Tidy,??_Tidy??rA
   \   0000021C   015085E2           ADD      R5,R5,#+1
   \   00000220   050055E3           CMP      R5,#+5
   \   00000224   EBFFFFBA           BLT      ??InitDialog_11
    114          		int Selected = PROSystemData::TXUSystemData->GetOpModeState(SVT_TANK_STATE_STR_CGO);
   \   00000228   ........           LDR      R0,??DataTable3  ;; ??TXUSystemData
   \   0000022C   C810A0E3           MOV      R1,#+200
   \   00000230   000090E5           LDR      R0,[R0, #+0]
   \   00000234   501E81E3           ORR      R1,R1,#0x500
   \   00000238   ........           _BLF     ??GetOpModeState,??GetOpModeState??rA
    115          		SetSelected(GUI_ID_DROPDOWN4,Selected);
   \   0000023C   0020A0E1           MOV      R2,R0
   \   00000240   AC1EA0E3           MOV      R1,#+2752
   \   00000244   0400A0E1           MOV      R0,R4
   \   00000248   ........           _BLF     ??SetSelected,??SetSelected??rA
    116          
    117          	}
    118          
    119          
    120          	{
    121          		const GUIKey Words[] ={
    122          			{TDU_APPCARGO_WIN   ,0,L_WORD69},
    123          			{GUI_ID_TEXT10      ,0,L_WORD70},
    124          			{GUI_ID_TEXT11      ,0,L_WORD71},
    125          			{GUI_ID_TEXT12      ,0,L_WORD72},
    126          			{GUI_ID_TEXT13      ,0,L_WORD73},
    127          			{GUI_ID_TEXT14      ,0,L_WORD74},
    128          			{GUI_ID_TEXT15      ,0,L_WORD857},
    129          			{GUI_ID_BUTTON0     ,0,L_WORD78},
    130          			{GUI_ID_BUTTON1     ,0,L_WORD79},
    131          			{GUI_ID_CLOSE       ,0,L_WORD18},
    132          		};
   \   0000024C   34109FE5           LDR      R1,??InitDialog_13  ;; `?<Constant {{2198, 0, 69}, {2558, 0, 70}, {255`
   \   00000250   54008DE2           ADD      R0,SP,#+84
   \   00000254   7830A0E3           MOV      R3,#+120
   \                     ??InitDialog_14:
   \   00000258   043053E2           SUBS     R3,R3,#+4
   \   0000025C   032091E7           LDR      R2,[R1, R3]
   \   00000260   032080E7           STR      R2,[R0, R3]
   \   00000264   FBFFFF1A           BNE      ??InitDialog_14
    133          		AddToSKeyList((GUIKey*)Words,NELEMENTS(Words));
   \   00000268   0130A0E3           MOV      R3,#+1
   \   0000026C   0A20A0E3           MOV      R2,#+10
   \   00000270   54108DE2           ADD      R1,SP,#+84
   \   00000274   0400A0E1           MOV      R0,R4
   \   00000278   ........           _BLF     ??AddToSKeyList,??AddToSKeyList??rA
    134          	}
    135          }
   \   0000027C   CCD08DE2           ADD      SP,SP,#+204
   \   00000280   F043BDE8           POP      {R4-R9,LR}
   \   00000284   1EFF2FE1           BX       LR               ;; return
   \                     ??InitDialog_13:
   \   00000288   ........           DC32     `?<Constant {{2198, 0, 69}, {2558, 0, 70}, {255`
    136          

   \                                 In segment CODE, align 4, keep-with-next
    137          void TDUAppSetupCargo::UpdateDialog(WM_HWIN hWin,int Key)
    138          {
   \                     ??UpdateDialog:
   \   00000000   F0412DE9           PUSH     {R4-R8,LR}
   \   00000004   54D04DE2           SUB      SP,SP,#+84
   \   00000008   0040A0E1           MOV      R4,R0
   \   0000000C   0160A0E1           MOV      R6,R1
   \   00000010   0270A0E1           MOV      R7,R2
    139          	switch ( Key ) {
   \   00000014   810047E2           SUB      R0,R7,#+129
   \   00000018   400F40E2           SUB      R0,R0,#+256
   \   0000001C   3F10A0E3           MOV      R1,#+63
   \   00000020   901E81E3           ORR      R1,R1,#0x900
   \   00000024   010050E1           CMP      R0,R1
   \   00000028   F204008A           BHI      ??UpdateDialog_3
   \   0000002C   021F8FE2           ADR      R1,??UpdateDialog_1
   \   00000030   8000A0E1           MOV      R0,R0, LSL #+1
   \   00000034   B01091E1           LDRH     R1,[R1, R0]
   \   00000038   01F18FE0           ADD      PC,PC,R1, LSL #+2
   \                     ??UpdateDialog_1:
   \   0000003C   9F049F049F04       DC16     +1183,+1183,+1183,+1262
   \              EE04        
   \   00000044   EE04EE04EE04       DC16     +1262,+1262,+1262,+1262
   \              EE04        
   \   0000004C   EE04EE04EE04       DC16     +1262,+1262,+1262,+1262
   \              EE04        
   \   00000054   EE04EE04EE04       DC16     +1262,+1262,+1262,+1262
   \              EE04        
   \   0000005C   EE04EE04EE04       DC16     +1262,+1262,+1262,+1262
   \              EE04        
   \   00000064   EE04EE04EE04       DC16     +1262,+1262,+1262,+1262
   \              EE04        
   \   0000006C   EE04EE04EE04       DC16     +1262,+1262,+1262,+1262
   \              EE04        
   \   00000074   EE04EE04EE04       DC16     +1262,+1262,+1262,+1262
   \              EE04        
   \   0000007C   EE04EE04EE04       DC16     +1262,+1262,+1262,+1262
   \              EE04        
   \   00000084   EE04EE04EE04       DC16     +1262,+1262,+1262,+1262
   \              EE04        
   \   0000008C   EE04EE04EE04       DC16     +1262,+1262,+1262,+1262
   \              EE04        
   \   00000094   EE04EE04EE04       DC16     +1262,+1262,+1262,+1262
   \              EE04        
   \   0000009C   EE04EE04EE04       DC16     +1262,+1262,+1262,+1262
   \              EE04        
   \   000000A4   EE04EE04EE04       DC16     +1262,+1262,+1262,+1262
   \              EE04        
   \   000000AC   EE04EE04EE04       DC16     +1262,+1262,+1262,+1262
   \              EE04        
   \   000000B4   EE04EE04EE04       DC16     +1262,+1262,+1262,+1262
   \              EE04        
   \   000000BC   EE04EE04EE04       DC16     +1262,+1262,+1262,+1262
   \              EE04        
   \   000000C4   EE04EE04EE04       DC16     +1262,+1262,+1262,+1262
   \              EE04        
   \   000000CC   EE04EE04EE04       DC16     +1262,+1262,+1262,+1262
   \              EE04        
   \   000000D4   EE04EE04EE04       DC16     +1262,+1262,+1262,+1262
   \              EE04        
   \   000000DC   EE04EE04EE04       DC16     +1262,+1262,+1262,+1262
   \              EE04        
   \   000000E4   EE04EE04EE04       DC16     +1262,+1262,+1262,+1262
   \              EE04        
   \   000000EC   EE04EE04EE04       DC16     +1262,+1262,+1262,+1262
   \              EE04        
   \   000000F4   EE04EE04EE04       DC16     +1262,+1262,+1262,+1262
   \              EE04        
   \   000000FC   EE04EE04EE04       DC16     +1262,+1262,+1262,+1262
   \              EE04        
   \   00000104   EE04EE04EE04       DC16     +1262,+1262,+1262,+1262
   \              EE04        
   \   0000010C   EE04EE04EE04       DC16     +1262,+1262,+1262,+1262
   \              EE04        
   \   00000114   EE04EE04EE04       DC16     +1262,+1262,+1262,+1262
   \              EE04        
   \   0000011C   EE04EE04EE04       DC16     +1262,+1262,+1262,+1262
   \              EE04        
   \   00000124   EE04EE04EE04       DC16     +1262,+1262,+1262,+1262
   \              EE04        
   \   0000012C   EE04EE04EE04       DC16     +1262,+1262,+1262,+1262
   \              EE04        
   \   00000134   EE04EE04EE04       DC16     +1262,+1262,+1262,+1262
   \              EE04        
   \   0000013C   EE04EE04EE04       DC16     +1262,+1262,+1262,+1262
   \              EE04        
   \   00000144   EE04EE04EE04       DC16     +1262,+1262,+1262,+1262
   \              EE04        
   \   0000014C   EE04EE04EE04       DC16     +1262,+1262,+1262,+1262
   \              EE04        
   \   00000154   EE04EE04EE04       DC16     +1262,+1262,+1262,+1262
   \              EE04        
   \   0000015C   EE04EE04EE04       DC16     +1262,+1262,+1262,+1262
   \              EE04        
   \   00000164   EE04EE04EE04       DC16     +1262,+1262,+1262,+1262
   \              EE04        
   \   0000016C   EE04EE04EE04       DC16     +1262,+1262,+1262,+1262
   \              EE04        
   \   00000174   EE04EE04EE04       DC16     +1262,+1262,+1262,+1262
   \              EE04        
   \   0000017C   EE04EE04EE04       DC16     +1262,+1262,+1262,+1262
   \              EE04        
   \   00000184   EE04EE04EE04       DC16     +1262,+1262,+1262,+1262
   \              EE04        
   \   0000018C   EE04EE04EE04       DC16     +1262,+1262,+1262,+1262
   \              EE04        
   \   00000194   EE04EE04EE04       DC16     +1262,+1262,+1262,+1262
   \              EE04        
   \   0000019C   EE04EE04EE04       DC16     +1262,+1262,+1262,+1262
   \              EE04        
   \   000001A4   EE04EE04EE04       DC16     +1262,+1262,+1262,+1262
   \              EE04        
   \   000001AC   EE04EE04EE04       DC16     +1262,+1262,+1262,+1262
   \              EE04        
   \   000001B4   EE04EE04EE04       DC16     +1262,+1262,+1262,+1262
   \              EE04        
   \   000001BC   EE04EE04EE04       DC16     +1262,+1262,+1262,+1262
   \              EE04        
   \   000001C4   EE04EE04EE04       DC16     +1262,+1262,+1262,+1262
   \              EE04        
   \   000001CC   EE04EE04EE04       DC16     +1262,+1262,+1262,+1262
   \              EE04        
   \   000001D4   EE04EE04EE04       DC16     +1262,+1262,+1262,+1262
   \              EE04        
   \   000001DC   EE04EE04EE04       DC16     +1262,+1262,+1262,+1262
   \              EE04        
   \   000001E4   EE04EE04EE04       DC16     +1262,+1262,+1262,+1262
   \              EE04        
   \   000001EC   EE04EE04EE04       DC16     +1262,+1262,+1262,+1262
   \              EE04        
   \   000001F4   EE04EE04EE04       DC16     +1262,+1262,+1262,+1262
   \              EE04        
   \   000001FC   EE04EE04EE04       DC16     +1262,+1262,+1262,+1262
   \              EE04        
   \   00000204   EE04EE04EE04       DC16     +1262,+1262,+1262,+1262
   \              EE04        
   \   0000020C   EE04EE04EE04       DC16     +1262,+1262,+1262,+1262
   \              EE04        
   \   00000214   EE04EE04EE04       DC16     +1262,+1262,+1262,+1262
   \              EE04        
   \   0000021C   EE04EE04EE04       DC16     +1262,+1262,+1262,+1262
   \              EE04        
   \   00000224   EE04EE04EE04       DC16     +1262,+1262,+1262,+1262
   \              EE04        
   \   0000022C   EE04EE04EE04       DC16     +1262,+1262,+1262,+1262
   \              EE04        
   \   00000234   EE04EE04EE04       DC16     +1262,+1262,+1262,+1262
   \              EE04        
   \   0000023C   EE04EE04EE04       DC16     +1262,+1262,+1262,+1262
   \              EE04        
   \   00000244   EE04EE04EE04       DC16     +1262,+1262,+1262,+1262
   \              EE04        
   \   0000024C   EE04EE04EE04       DC16     +1262,+1262,+1262,+1262
   \              EE04        
   \   00000254   EE04EE04EE04       DC16     +1262,+1262,+1262,+1262
   \              EE04        
   \   0000025C   EE04EE04EE04       DC16     +1262,+1262,+1262,+1262
   \              EE04        
   \   00000264   EE04EE04EE04       DC16     +1262,+1262,+1262,+1262
   \              EE04        
   \   0000026C   EE04EE04EE04       DC16     +1262,+1262,+1262,+1262
   \              EE04        
   \   00000274   EE04EE04EE04       DC16     +1262,+1262,+1262,+1262
   \              EE04        
   \   0000027C   EE04EE04EE04       DC16     +1262,+1262,+1262,+1262
   \              EE04        
   \   00000284   EE04EE04EE04       DC16     +1262,+1262,+1262,+1262
   \              EE04        
   \   0000028C   EE04EE04EE04       DC16     +1262,+1262,+1262,+1262
   \              EE04        
   \   00000294   EE04EE04EE04       DC16     +1262,+1262,+1262,+1262
   \              EE04        
   \   0000029C   EE04EE04EE04       DC16     +1262,+1262,+1262,+1262
   \              EE04        
   \   000002A4   EE04EE04EE04       DC16     +1262,+1262,+1262,+1262
   \              EE04        
   \   000002AC   EE04EE04EE04       DC16     +1262,+1262,+1262,+1262
   \              EE04        
   \   000002B4   EE04EE04EE04       DC16     +1262,+1262,+1262,+1262
   \              EE04        
   \   000002BC   EE04EE04EE04       DC16     +1262,+1262,+1262,+1262
   \              EE04        
   \   000002C4   EE04EE04EE04       DC16     +1262,+1262,+1262,+1262
   \              EE04        
   \   000002CC   EE04EE04EE04       DC16     +1262,+1262,+1262,+1262
   \              EE04        
   \   000002D4   EE04EE04EE04       DC16     +1262,+1262,+1262,+1262
   \              EE04        
   \   000002DC   EE04EE04EE04       DC16     +1262,+1262,+1262,+1262
   \              EE04        
   \   000002E4   EE04EE04EE04       DC16     +1262,+1262,+1262,+1262
   \              EE04        
   \   000002EC   EE04EE04EE04       DC16     +1262,+1262,+1262,+1262
   \              EE04        
   \   000002F4   EE04EE04EE04       DC16     +1262,+1262,+1262,+1262
   \              EE04        
   \   000002FC   EE04EE04EE04       DC16     +1262,+1262,+1262,+1262
   \              EE04        
   \   00000304   EE04EE04EE04       DC16     +1262,+1262,+1262,+1262
   \              EE04        
   \   0000030C   EE04EE04EE04       DC16     +1262,+1262,+1262,+1262
   \              EE04        
   \   00000314   EE04EE04EE04       DC16     +1262,+1262,+1262,+1262
   \              EE04        
   \   0000031C   EE04EE04EE04       DC16     +1262,+1262,+1262,+1262
   \              EE04        
   \   00000324   EE04EE04EE04       DC16     +1262,+1262,+1262,+1262
   \              EE04        
   \   0000032C   EE04EE04EE04       DC16     +1262,+1262,+1262,+1262
   \              EE04        
   \   00000334   EE04EE04EE04       DC16     +1262,+1262,+1262,+1262
   \              EE04        
   \   0000033C   EE04EE04EE04       DC16     +1262,+1262,+1262,+1262
   \              EE04        
   \   00000344   EE04EE04EE04       DC16     +1262,+1262,+1262,+1262
   \              EE04        
   \   0000034C   EE04EE04EE04       DC16     +1262,+1262,+1262,+1262
   \              EE04        
   \   00000354   EE04EE04EE04       DC16     +1262,+1262,+1262,+1262
   \              EE04        
   \   0000035C   EE04EE04EE04       DC16     +1262,+1262,+1262,+1262
   \              EE04        
   \   00000364   EE04EE04EE04       DC16     +1262,+1262,+1262,+1262
   \              EE04        
   \   0000036C   EE04EE04EE04       DC16     +1262,+1262,+1262,+1262
   \              EE04        
   \   00000374   EE04EE04EE04       DC16     +1262,+1262,+1262,+1262
   \              EE04        
   \   0000037C   EE04EE04EE04       DC16     +1262,+1262,+1262,+1262
   \              EE04        
   \   00000384   EE04EE04EE04       DC16     +1262,+1262,+1262,+1262
   \              EE04        
   \   0000038C   EE04EE04EE04       DC16     +1262,+1262,+1262,+1262
   \              EE04        
   \   00000394   EE04EE04EE04       DC16     +1262,+1262,+1262,+1262
   \              EE04        
   \   0000039C   EE04EE04EE04       DC16     +1262,+1262,+1262,+1262
   \              EE04        
   \   000003A4   EE04EE04EE04       DC16     +1262,+1262,+1262,+1262
   \              EE04        
   \   000003AC   EE04EE04EE04       DC16     +1262,+1262,+1262,+1262
   \              EE04        
   \   000003B4   EE04EE04EE04       DC16     +1262,+1262,+1262,+1262
   \              EE04        
   \   000003BC   EE04EE04EE04       DC16     +1262,+1262,+1262,+1262
   \              EE04        
   \   000003C4   EE04EE04EE04       DC16     +1262,+1262,+1262,+1262
   \              EE04        
   \   000003CC   EE04EE04EE04       DC16     +1262,+1262,+1262,+1262
   \              EE04        
   \   000003D4   EE04EE04EE04       DC16     +1262,+1262,+1262,+1262
   \              EE04        
   \   000003DC   EE04EE04EE04       DC16     +1262,+1262,+1262,+1262
   \              EE04        
   \   000003E4   EE04EE04EE04       DC16     +1262,+1262,+1262,+1262
   \              EE04        
   \   000003EC   EE04EE04EE04       DC16     +1262,+1262,+1262,+1262
   \              EE04        
   \   000003F4   EE04EE04EE04       DC16     +1262,+1262,+1262,+1262
   \              EE04        
   \   000003FC   EE04EE04EE04       DC16     +1262,+1262,+1262,+1262
   \              EE04        
   \   00000404   EE04EE04EE04       DC16     +1262,+1262,+1262,+1262
   \              EE04        
   \   0000040C   EE04EE04EE04       DC16     +1262,+1262,+1262,+1262
   \              EE04        
   \   00000414   EE04EE04EE04       DC16     +1262,+1262,+1262,+1262
   \              EE04        
   \   0000041C   EE04EE04EE04       DC16     +1262,+1262,+1262,+1262
   \              EE04        
   \   00000424   EE04EE04EE04       DC16     +1262,+1262,+1262,+1262
   \              EE04        
   \   0000042C   EE04EE04EE04       DC16     +1262,+1262,+1262,+1262
   \              EE04        
   \   00000434   EE04EE04EE04       DC16     +1262,+1262,+1262,+1262
   \              EE04        
   \   0000043C   EE04EE04EE04       DC16     +1262,+1262,+1262,+1262
   \              EE04        
   \   00000444   EE04EE04EE04       DC16     +1262,+1262,+1262,+1262
   \              EE04        
   \   0000044C   EE04EE04EE04       DC16     +1262,+1262,+1262,+1262
   \              EE04        
   \   00000454   EE04EE04EE04       DC16     +1262,+1262,+1262,+1262
   \              EE04        
   \   0000045C   EE04EE04EE04       DC16     +1262,+1262,+1262,+1262
   \              EE04        
   \   00000464   EE04EE04EE04       DC16     +1262,+1262,+1262,+1262
   \              EE04        
   \   0000046C   EE04EE04EE04       DC16     +1262,+1262,+1262,+1262
   \              EE04        
   \   00000474   EE04EE04EE04       DC16     +1262,+1262,+1262,+1262
   \              EE04        
   \   0000047C   EE04EE04EE04       DC16     +1262,+1262,+1262,+1262
   \              EE04        
   \   00000484   EE04EE04EE04       DC16     +1262,+1262,+1262,+1262
   \              EE04        
   \   0000048C   EE04EE04EE04       DC16     +1262,+1262,+1262,+1262
   \              EE04        
   \   00000494   EE04EE04EE04       DC16     +1262,+1262,+1262,+1262
   \              EE04        
   \   0000049C   EE04EE04EE04       DC16     +1262,+1262,+1262,+1262
   \              EE04        
   \   000004A4   EE04EE04EE04       DC16     +1262,+1262,+1262,+1262
   \              EE04        
   \   000004AC   EE04EE04EE04       DC16     +1262,+1262,+1262,+1262
   \              EE04        
   \   000004B4   EE04EE04EE04       DC16     +1262,+1262,+1262,+1262
   \              EE04        
   \   000004BC   EE04EE04EE04       DC16     +1262,+1262,+1262,+1262
   \              EE04        
   \   000004C4   EE04EE04EE04       DC16     +1262,+1262,+1262,+1262
   \              EE04        
   \   000004CC   EE04EE04EE04       DC16     +1262,+1262,+1262,+1262
   \              EE04        
   \   000004D4   EE04EE04EE04       DC16     +1262,+1262,+1262,+1262
   \              EE04        
   \   000004DC   EE04EE04EE04       DC16     +1262,+1262,+1262,+1262
   \              EE04        
   \   000004E4   EE04EE04EE04       DC16     +1262,+1262,+1262,+1262
   \              EE04        
   \   000004EC   EE04EE04EE04       DC16     +1262,+1262,+1262,+1262
   \              EE04        
   \   000004F4   EE04EE04EE04       DC16     +1262,+1262,+1262,+1262
   \              EE04        
   \   000004FC   EE04EE04EE04       DC16     +1262,+1262,+1262,+1262
   \              EE04        
   \   00000504   EE04EE04EE04       DC16     +1262,+1262,+1262,+1262
   \              EE04        
   \   0000050C   EE04EE04EE04       DC16     +1262,+1262,+1262,+1262
   \              EE04        
   \   00000514   EE04EE04EE04       DC16     +1262,+1262,+1262,+1262
   \              EE04        
   \   0000051C   EE04EE04EE04       DC16     +1262,+1262,+1262,+1262
   \              EE04        
   \   00000524   EE04EE04EE04       DC16     +1262,+1262,+1262,+1262
   \              EE04        
   \   0000052C   EE04EE04EE04       DC16     +1262,+1262,+1262,+1262
   \              EE04        
   \   00000534   EE04EE04EE04       DC16     +1262,+1262,+1262,+1262
   \              EE04        
   \   0000053C   EE04EE04EE04       DC16     +1262,+1262,+1262,+1262
   \              EE04        
   \   00000544   EE04EE04EE04       DC16     +1262,+1262,+1262,+1262
   \              EE04        
   \   0000054C   EE04EE04EE04       DC16     +1262,+1262,+1262,+1262
   \              EE04        
   \   00000554   EE04EE04EE04       DC16     +1262,+1262,+1262,+1262
   \              EE04        
   \   0000055C   EE04EE04EE04       DC16     +1262,+1262,+1262,+1262
   \              EE04        
   \   00000564   EE04EE04EE04       DC16     +1262,+1262,+1262,+1262
   \              EE04        
   \   0000056C   EE04EE04EE04       DC16     +1262,+1262,+1262,+1262
   \              EE04        
   \   00000574   EE04EE04EE04       DC16     +1262,+1262,+1262,+1262
   \              EE04        
   \   0000057C   EE04EE04EE04       DC16     +1262,+1262,+1262,+1262
   \              EE04        
   \   00000584   EE04EE04EE04       DC16     +1262,+1262,+1262,+1262
   \              EE04        
   \   0000058C   EE04EE04EE04       DC16     +1262,+1262,+1262,+1262
   \              EE04        
   \   00000594   EE04EE04EE04       DC16     +1262,+1262,+1262,+1262
   \              EE04        
   \   0000059C   EE04EE04EE04       DC16     +1262,+1262,+1262,+1262
   \              EE04        
   \   000005A4   EE04EE04EE04       DC16     +1262,+1262,+1262,+1262
   \              EE04        
   \   000005AC   EE04EE04EE04       DC16     +1262,+1262,+1262,+1262
   \              EE04        
   \   000005B4   EE04EE04EE04       DC16     +1262,+1262,+1262,+1262
   \              EE04        
   \   000005BC   EE04EE04EE04       DC16     +1262,+1262,+1262,+1262
   \              EE04        
   \   000005C4   EE04EE04EE04       DC16     +1262,+1262,+1262,+1262
   \              EE04        
   \   000005CC   EE04EE04EE04       DC16     +1262,+1262,+1262,+1262
   \              EE04        
   \   000005D4   EE04EE04EE04       DC16     +1262,+1262,+1262,+1262
   \              EE04        
   \   000005DC   EE04EE04EE04       DC16     +1262,+1262,+1262,+1262
   \              EE04        
   \   000005E4   EE04EE04EE04       DC16     +1262,+1262,+1262,+1262
   \              EE04        
   \   000005EC   EE04EE04EE04       DC16     +1262,+1262,+1262,+1262
   \              EE04        
   \   000005F4   EE04EE04EE04       DC16     +1262,+1262,+1262,+1262
   \              EE04        
   \   000005FC   EE04EE04EE04       DC16     +1262,+1262,+1262,+1262
   \              EE04        
   \   00000604   EE04EE04EE04       DC16     +1262,+1262,+1262,+1262
   \              EE04        
   \   0000060C   EE04EE04EE04       DC16     +1262,+1262,+1262,+1262
   \              EE04        
   \   00000614   EE04EE04EE04       DC16     +1262,+1262,+1262,+1262
   \              EE04        
   \   0000061C   EE04EE04EE04       DC16     +1262,+1262,+1262,+1262
   \              EE04        
   \   00000624   EE04EE04EE04       DC16     +1262,+1262,+1262,+1262
   \              EE04        
   \   0000062C   EE04EE04EE04       DC16     +1262,+1262,+1262,+1262
   \              EE04        
   \   00000634   EE04EE04EE04       DC16     +1262,+1262,+1262,+1262
   \              EE04        
   \   0000063C   EE04EE04EE04       DC16     +1262,+1262,+1262,+1262
   \              EE04        
   \   00000644   EE04EE04EE04       DC16     +1262,+1262,+1262,+1262
   \              EE04        
   \   0000064C   EE04EE04EE04       DC16     +1262,+1262,+1262,+1262
   \              EE04        
   \   00000654   EE04EE04EE04       DC16     +1262,+1262,+1262,+1262
   \              EE04        
   \   0000065C   EE04EE04EE04       DC16     +1262,+1262,+1262,+1262
   \              EE04        
   \   00000664   EE04EE04EE04       DC16     +1262,+1262,+1262,+1262
   \              EE04        
   \   0000066C   EE04EE04EE04       DC16     +1262,+1262,+1262,+1262
   \              EE04        
   \   00000674   EE04EE04EE04       DC16     +1262,+1262,+1262,+1262
   \              EE04        
   \   0000067C   EE04EE04EE04       DC16     +1262,+1262,+1262,+1262
   \              EE04        
   \   00000684   EE04EE04EE04       DC16     +1262,+1262,+1262,+1262
   \              EE04        
   \   0000068C   EE04EE04EE04       DC16     +1262,+1262,+1262,+1262
   \              EE04        
   \   00000694   EE04EE04EE04       DC16     +1262,+1262,+1262,+1262
   \              EE04        
   \   0000069C   EE04EE04EE04       DC16     +1262,+1262,+1262,+1262
   \              EE04        
   \   000006A4   EE04EE04EE04       DC16     +1262,+1262,+1262,+1262
   \              EE04        
   \   000006AC   EE04EE04EE04       DC16     +1262,+1262,+1262,+1262
   \              EE04        
   \   000006B4   EE04EE04EE04       DC16     +1262,+1262,+1262,+1262
   \              EE04        
   \   000006BC   EE04EE04EE04       DC16     +1262,+1262,+1262,+1262
   \              EE04        
   \   000006C4   EE04EE04EE04       DC16     +1262,+1262,+1262,+1262
   \              EE04        
   \   000006CC   EE04EE04EE04       DC16     +1262,+1262,+1262,+1262
   \              EE04        
   \   000006D4   EE04EE04EE04       DC16     +1262,+1262,+1262,+1262
   \              EE04        
   \   000006DC   EE04EE04EE04       DC16     +1262,+1262,+1262,+1262
   \              EE04        
   \   000006E4   EE04EE04EE04       DC16     +1262,+1262,+1262,+1262
   \              EE04        
   \   000006EC   EE04EE04EE04       DC16     +1262,+1262,+1262,+1262
   \              EE04        
   \   000006F4   EE04EE04EE04       DC16     +1262,+1262,+1262,+1262
   \              EE04        
   \   000006FC   EE04EE04EE04       DC16     +1262,+1262,+1262,+1262
   \              EE04        
   \   00000704   EE04EE04EE04       DC16     +1262,+1262,+1262,+1262
   \              EE04        
   \   0000070C   EE04EE04EE04       DC16     +1262,+1262,+1262,+1262
   \              EE04        
   \   00000714   EE04EE04EE04       DC16     +1262,+1262,+1262,+1262
   \              EE04        
   \   0000071C   EE04EE04EE04       DC16     +1262,+1262,+1262,+1262
   \              EE04        
   \   00000724   EE04EE04EE04       DC16     +1262,+1262,+1262,+1262
   \              EE04        
   \   0000072C   EE04EE04EE04       DC16     +1262,+1262,+1262,+1262
   \              EE04        
   \   00000734   EE04EE04EE04       DC16     +1262,+1262,+1262,+1262
   \              EE04        
   \   0000073C   EE04EE04EE04       DC16     +1262,+1262,+1262,+1262
   \              EE04        
   \   00000744   EE04EE04EE04       DC16     +1262,+1262,+1262,+1262
   \              EE04        
   \   0000074C   EE04EE04EE04       DC16     +1262,+1262,+1262,+1262
   \              EE04        
   \   00000754   EE04EE04EE04       DC16     +1262,+1262,+1262,+1262
   \              EE04        
   \   0000075C   EE04EE04EE04       DC16     +1262,+1262,+1262,+1262
   \              EE04        
   \   00000764   EE04EE04EE04       DC16     +1262,+1262,+1262,+1262
   \              EE04        
   \   0000076C   EE04EE04EE04       DC16     +1262,+1262,+1262,+1262
   \              EE04        
   \   00000774   EE04EE04EE04       DC16     +1262,+1262,+1262,+1262
   \              EE04        
   \   0000077C   EE04EE04EE04       DC16     +1262,+1262,+1262,+1262
   \              EE04        
   \   00000784   EE04EE04EE04       DC16     +1262,+1262,+1262,+1262
   \              EE04        
   \   0000078C   EE04EE04EE04       DC16     +1262,+1262,+1262,+1262
   \              EE04        
   \   00000794   EE04EE04EE04       DC16     +1262,+1262,+1262,+1262
   \              EE04        
   \   0000079C   EE04EE04EE04       DC16     +1262,+1262,+1262,+1262
   \              EE04        
   \   000007A4   EE04EE04EE04       DC16     +1262,+1262,+1262,+1262
   \              EE04        
   \   000007AC   EE04EE04EE04       DC16     +1262,+1262,+1262,+1262
   \              EE04        
   \   000007B4   EE04EE04EE04       DC16     +1262,+1262,+1262,+1262
   \              EE04        
   \   000007BC   EE04EE04EE04       DC16     +1262,+1262,+1262,+1262
   \              EE04        
   \   000007C4   EE04EE04EE04       DC16     +1262,+1262,+1262,+1262
   \              EE04        
   \   000007CC   EE04EE04EE04       DC16     +1262,+1262,+1262,+1262
   \              EE04        
   \   000007D4   EE04EE04EE04       DC16     +1262,+1262,+1262,+1262
   \              EE04        
   \   000007DC   EE04EE04EE04       DC16     +1262,+1262,+1262,+1262
   \              EE04        
   \   000007E4   EE04EE04EE04       DC16     +1262,+1262,+1262,+1262
   \              EE04        
   \   000007EC   EE04EE04EE04       DC16     +1262,+1262,+1262,+1262
   \              EE04        
   \   000007F4   EE04EE04EE04       DC16     +1262,+1262,+1262,+1262
   \              EE04        
   \   000007FC   EE04EE04EE04       DC16     +1262,+1262,+1262,+1262
   \              EE04        
   \   00000804   EE04EE04EE04       DC16     +1262,+1262,+1262,+1262
   \              EE04        
   \   0000080C   EE04EE04EE04       DC16     +1262,+1262,+1262,+1262
   \              EE04        
   \   00000814   EE04EE04EE04       DC16     +1262,+1262,+1262,+1262
   \              EE04        
   \   0000081C   EE04EE04EE04       DC16     +1262,+1262,+1262,+1262
   \              EE04        
   \   00000824   EE04EE04EE04       DC16     +1262,+1262,+1262,+1262
   \              EE04        
   \   0000082C   EE04EE04EE04       DC16     +1262,+1262,+1262,+1262
   \              EE04        
   \   00000834   EE04EE04EE04       DC16     +1262,+1262,+1262,+1262
   \              EE04        
   \   0000083C   EE04EE04EE04       DC16     +1262,+1262,+1262,+1262
   \              EE04        
   \   00000844   EE04EE04EE04       DC16     +1262,+1262,+1262,+1262
   \              EE04        
   \   0000084C   EE04EE04EE04       DC16     +1262,+1262,+1262,+1262
   \              EE04        
   \   00000854   EE04EE04EE04       DC16     +1262,+1262,+1262,+1262
   \              EE04        
   \   0000085C   EE04EE04EE04       DC16     +1262,+1262,+1262,+1262
   \              EE04        
   \   00000864   EE04EE04EE04       DC16     +1262,+1262,+1262,+1262
   \              EE04        
   \   0000086C   EE04EE04EE04       DC16     +1262,+1262,+1262,+1262
   \              EE04        
   \   00000874   EE04EE04EE04       DC16     +1262,+1262,+1262,+1262
   \              EE04        
   \   0000087C   EE04EE04EE04       DC16     +1262,+1262,+1262,+1262
   \              EE04        
   \   00000884   EE04EE04EE04       DC16     +1262,+1262,+1262,+1262
   \              EE04        
   \   0000088C   EE04EE04EE04       DC16     +1262,+1262,+1262,+1262
   \              EE04        
   \   00000894   EE04EE04EE04       DC16     +1262,+1262,+1262,+1262
   \              EE04        
   \   0000089C   EE04EE04EE04       DC16     +1262,+1262,+1262,+1262
   \              EE04        
   \   000008A4   EE04EE04EE04       DC16     +1262,+1262,+1262,+1262
   \              EE04        
   \   000008AC   EE04EE04EE04       DC16     +1262,+1262,+1262,+1262
   \              EE04        
   \   000008B4   EE04EE04EE04       DC16     +1262,+1262,+1262,+1262
   \              EE04        
   \   000008BC   EE04EE04EE04       DC16     +1262,+1262,+1262,+1262
   \              EE04        
   \   000008C4   EE04EE04EE04       DC16     +1262,+1262,+1262,+1262
   \              EE04        
   \   000008CC   EE04EE04EE04       DC16     +1262,+1262,+1262,+1262
   \              EE04        
   \   000008D4   EE04EE04EE04       DC16     +1262,+1262,+1262,+1262
   \              EE04        
   \   000008DC   EE04EE04EE04       DC16     +1262,+1262,+1262,+1262
   \              EE04        
   \   000008E4   EE04EE04EE04       DC16     +1262,+1262,+1262,+1262
   \              EE04        
   \   000008EC   EE04EE04EE04       DC16     +1262,+1262,+1262,+1262
   \              EE04        
   \   000008F4   EE04EE04EE04       DC16     +1262,+1262,+1262,+1262
   \              EE04        
   \   000008FC   EE04EE04EE04       DC16     +1262,+1262,+1262,+1262
   \              EE04        
   \   00000904   EE04EE04EE04       DC16     +1262,+1262,+1262,+1262
   \              EE04        
   \   0000090C   EE04EE04EE04       DC16     +1262,+1262,+1262,+1262
   \              EE04        
   \   00000914   EE04EE04EE04       DC16     +1262,+1262,+1262,+1262
   \              EE04        
   \   0000091C   EE04EE04EE04       DC16     +1262,+1262,+1262,+1262
   \              EE04        
   \   00000924   EE04EE04EE04       DC16     +1262,+1262,+1262,+1262
   \              EE04        
   \   0000092C   EE04EE04EE04       DC16     +1262,+1262,+1262,+1262
   \              EE04        
   \   00000934   EE04EE04EE04       DC16     +1262,+1262,+1262,+1262
   \              EE04        
   \   0000093C   EE04EE04EE04       DC16     +1262,+1262,+1262,+1262
   \              EE04        
   \   00000944   EE04EE04EE04       DC16     +1262,+1262,+1262,+1262
   \              EE04        
   \   0000094C   EE04EE04EE04       DC16     +1262,+1262,+1262,+1262
   \              EE04        
   \   00000954   EE04EE04EE04       DC16     +1262,+1262,+1262,+1262
   \              EE04        
   \   0000095C   EE04EE04EE04       DC16     +1262,+1262,+1262,+1262
   \              EE04        
   \   00000964   EE04EE04EE04       DC16     +1262,+1262,+1262,+1262
   \              EE04        
   \   0000096C   EE04EE04EE04       DC16     +1262,+1262,+1262,+1262
   \              EE04        
   \   00000974   EE04EE04EE04       DC16     +1262,+1262,+1262,+1262
   \              EE04        
   \   0000097C   EE04EE04EE04       DC16     +1262,+1262,+1262,+1262
   \              EE04        
   \   00000984   EE04EE04EE04       DC16     +1262,+1262,+1262,+1262
   \              EE04        
   \   0000098C   EE04EE04EE04       DC16     +1262,+1262,+1262,+1262
   \              EE04        
   \   00000994   EE04EE04EE04       DC16     +1262,+1262,+1262,+1262
   \              EE04        
   \   0000099C   EE04EE04EE04       DC16     +1262,+1262,+1262,+1262
   \              EE04        
   \   000009A4   EE04EE04EE04       DC16     +1262,+1262,+1262,+1262
   \              EE04        
   \   000009AC   EE04EE04EE04       DC16     +1262,+1262,+1262,+1262
   \              EE04        
   \   000009B4   EE04EE04EE04       DC16     +1262,+1262,+1262,+1262
   \              EE04        
   \   000009BC   EE04EE04EE04       DC16     +1262,+1262,+1262,+1262
   \              EE04        
   \   000009C4   EE04EE04EE04       DC16     +1262,+1262,+1262,+1262
   \              EE04        
   \   000009CC   EE04EE04EE04       DC16     +1262,+1262,+1262,+1262
   \              EE04        
   \   000009D4   EE04EE04EE04       DC16     +1262,+1262,+1262,+1262
   \              EE04        
   \   000009DC   EE04EE04EE04       DC16     +1262,+1262,+1262,+1262
   \              EE04        
   \   000009E4   EE04EE04EE04       DC16     +1262,+1262,+1262,+1262
   \              EE04        
   \   000009EC   EE04EE04EE04       DC16     +1262,+1262,+1262,+1262
   \              EE04        
   \   000009F4   EE04EE04EE04       DC16     +1262,+1262,+1262,+1262
   \              EE04        
   \   000009FC   EE04EE04EE04       DC16     +1262,+1262,+1262,+1262
   \              EE04        
   \   00000A04   EE04EE04EE04       DC16     +1262,+1262,+1262,+1262
   \              EE04        
   \   00000A0C   EE04EE04EE04       DC16     +1262,+1262,+1262,+1262
   \              EE04        
   \   00000A14   EE04EE04EE04       DC16     +1262,+1262,+1262,+1262
   \              EE04        
   \   00000A1C   EE04EE04EE04       DC16     +1262,+1262,+1262,+1262
   \              EE04        
   \   00000A24   EE04EE04EE04       DC16     +1262,+1262,+1262,+1262
   \              EE04        
   \   00000A2C   EE04EE04EE04       DC16     +1262,+1262,+1262,+1262
   \              EE04        
   \   00000A34   EE04EE04EE04       DC16     +1262,+1262,+1262,+1262
   \              EE04        
   \   00000A3C   EE04EE04EE04       DC16     +1262,+1262,+1262,+1262
   \              EE04        
   \   00000A44   EE04EE04EE04       DC16     +1262,+1262,+1262,+1262
   \              EE04        
   \   00000A4C   EE04EE04EE04       DC16     +1262,+1262,+1262,+1262
   \              EE04        
   \   00000A54   EE04EE04EE04       DC16     +1262,+1262,+1262,+1262
   \              EE04        
   \   00000A5C   EE04EE04EE04       DC16     +1262,+1262,+1262,+1262
   \              EE04        
   \   00000A64   EE04EE04EE04       DC16     +1262,+1262,+1262,+1262
   \              EE04        
   \   00000A6C   EE04EE04EE04       DC16     +1262,+1262,+1262,+1262
   \              EE04        
   \   00000A74   EE04EE04EE04       DC16     +1262,+1262,+1262,+1262
   \              EE04        
   \   00000A7C   EE04EE04EE04       DC16     +1262,+1262,+1262,+1262
   \              EE04        
   \   00000A84   EE04EE04EE04       DC16     +1262,+1262,+1262,+1262
   \              EE04        
   \   00000A8C   EE04EE04EE04       DC16     +1262,+1262,+1262,+1262
   \              EE04        
   \   00000A94   EE04EE04EE04       DC16     +1262,+1262,+1262,+1262
   \              EE04        
   \   00000A9C   EE04EE04EE04       DC16     +1262,+1262,+1262,+1262
   \              EE04        
   \   00000AA4   EE04EE04EE04       DC16     +1262,+1262,+1262,+1262
   \              EE04        
   \   00000AAC   EE04EE04EE04       DC16     +1262,+1262,+1262,+1262
   \              EE04        
   \   00000AB4   EE04EE04EE04       DC16     +1262,+1262,+1262,+1262
   \              EE04        
   \   00000ABC   EE04EE04EE04       DC16     +1262,+1262,+1262,+1262
   \              EE04        
   \   00000AC4   EE04EE04EE04       DC16     +1262,+1262,+1262,+1262
   \              EE04        
   \   00000ACC   EE04EE04EE04       DC16     +1262,+1262,+1262,+1262
   \              EE04        
   \   00000AD4   EE04EE04EE04       DC16     +1262,+1262,+1262,+1262
   \              EE04        
   \   00000ADC   EE04EE04EE04       DC16     +1262,+1262,+1262,+1262
   \              EE04        
   \   00000AE4   EE04EE04EE04       DC16     +1262,+1262,+1262,+1262
   \              EE04        
   \   00000AEC   EE04EE04EE04       DC16     +1262,+1262,+1262,+1262
   \              EE04        
   \   00000AF4   EE04EE04EE04       DC16     +1262,+1262,+1262,+1262
   \              EE04        
   \   00000AFC   EE04EE04EE04       DC16     +1262,+1262,+1262,+1262
   \              EE04        
   \   00000B04   EE04EE04EE04       DC16     +1262,+1262,+1262,+1262
   \              EE04        
   \   00000B0C   EE04EE04EE04       DC16     +1262,+1262,+1262,+1262
   \              EE04        
   \   00000B14   EE04EE04EE04       DC16     +1262,+1262,+1262,+1262
   \              EE04        
   \   00000B1C   EE04EE04EE04       DC16     +1262,+1262,+1262,+1262
   \              EE04        
   \   00000B24   EE04EE04EE04       DC16     +1262,+1262,+1262,+1262
   \              EE04        
   \   00000B2C   EE04EE04EE04       DC16     +1262,+1262,+1262,+1262
   \              EE04        
   \   00000B34   EE04EE04EE04       DC16     +1262,+1262,+1262,+1262
   \              EE04        
   \   00000B3C   EE04EE04EE04       DC16     +1262,+1262,+1262,+1262
   \              EE04        
   \   00000B44   EE04EE04EE04       DC16     +1262,+1262,+1262,+1262
   \              EE04        
   \   00000B4C   EE04EE04EE04       DC16     +1262,+1262,+1262,+1262
   \              EE04        
   \   00000B54   EE04EE04EE04       DC16     +1262,+1262,+1262,+1262
   \              EE04        
   \   00000B5C   EE04EE04EE04       DC16     +1262,+1262,+1262,+1262
   \              EE04        
   \   00000B64   EE04EE04EE04       DC16     +1262,+1262,+1262,+1262
   \              EE04        
   \   00000B6C   EE04EE04EE04       DC16     +1262,+1262,+1262,+1262
   \              EE04        
   \   00000B74   EE04EE04EE04       DC16     +1262,+1262,+1262,+1262
   \              EE04        
   \   00000B7C   EE04EE04EE04       DC16     +1262,+1262,+1262,+1262
   \              EE04        
   \   00000B84   EE04EE04EE04       DC16     +1262,+1262,+1262,+1262
   \              EE04        
   \   00000B8C   EE04EE04EE04       DC16     +1262,+1262,+1262,+1262
   \              EE04        
   \   00000B94   EE04EE04EE04       DC16     +1262,+1262,+1262,+1262
   \              EE04        
   \   00000B9C   EE04EE04EE04       DC16     +1262,+1262,+1262,+1262
   \              EE04        
   \   00000BA4   EE04EE04EE04       DC16     +1262,+1262,+1262,+1262
   \              EE04        
   \   00000BAC   EE04EE04EE04       DC16     +1262,+1262,+1262,+1262
   \              EE04        
   \   00000BB4   EE04EE04EE04       DC16     +1262,+1262,+1262,+1262
   \              EE04        
   \   00000BBC   EE04EE04EE04       DC16     +1262,+1262,+1262,+1262
   \              EE04        
   \   00000BC4   EE04EE04EE04       DC16     +1262,+1262,+1262,+1262
   \              EE04        
   \   00000BCC   EE04EE04EE04       DC16     +1262,+1262,+1262,+1262
   \              EE04        
   \   00000BD4   EE04EE04EE04       DC16     +1262,+1262,+1262,+1262
   \              EE04        
   \   00000BDC   EE04EE04EE04       DC16     +1262,+1262,+1262,+1262
   \              EE04        
   \   00000BE4   EE04EE04EE04       DC16     +1262,+1262,+1262,+1262
   \              EE04        
   \   00000BEC   EE04EE04EE04       DC16     +1262,+1262,+1262,+1262
   \              EE04        
   \   00000BF4   EE04EE04EE04       DC16     +1262,+1262,+1262,+1262
   \              EE04        
   \   00000BFC   EE04EE04EE04       DC16     +1262,+1262,+1262,+1262
   \              EE04        
   \   00000C04   EE04EE04EE04       DC16     +1262,+1262,+1262,+1262
   \              EE04        
   \   00000C0C   EE04EE04EE04       DC16     +1262,+1262,+1262,+1262
   \              EE04        
   \   00000C14   EE04EE04EE04       DC16     +1262,+1262,+1262,+1262
   \              EE04        
   \   00000C1C   EE04EE04EE04       DC16     +1262,+1262,+1262,+1262
   \              EE04        
   \   00000C24   EE04EE04EE04       DC16     +1262,+1262,+1262,+1262
   \              EE04        
   \   00000C2C   EE04EE04EE04       DC16     +1262,+1262,+1262,+1262
   \              EE04        
   \   00000C34   EE04EE04EE04       DC16     +1262,+1262,+1262,+1262
   \              EE04        
   \   00000C3C   EE04EE04EE04       DC16     +1262,+1262,+1262,+1262
   \              EE04        
   \   00000C44   EE04EE04EE04       DC16     +1262,+1262,+1262,+1262
   \              EE04        
   \   00000C4C   EE04EE04EE04       DC16     +1262,+1262,+1262,+1262
   \              EE04        
   \   00000C54   EE04EE04EE04       DC16     +1262,+1262,+1262,+1262
   \              EE04        
   \   00000C5C   EE04EE04EE04       DC16     +1262,+1262,+1262,+1262
   \              EE04        
   \   00000C64   EE04EE04EE04       DC16     +1262,+1262,+1262,+1262
   \              EE04        
   \   00000C6C   EE04EE04EE04       DC16     +1262,+1262,+1262,+1262
   \              EE04        
   \   00000C74   EE04EE04EE04       DC16     +1262,+1262,+1262,+1262
   \              EE04        
   \   00000C7C   EE04EE04EE04       DC16     +1262,+1262,+1262,+1262
   \              EE04        
   \   00000C84   EE04EE04EE04       DC16     +1262,+1262,+1262,+1262
   \              EE04        
   \   00000C8C   EE04EE04EE04       DC16     +1262,+1262,+1262,+1262
   \              EE04        
   \   00000C94   EE04EE04EE04       DC16     +1262,+1262,+1262,+1262
   \              EE04        
   \   00000C9C   EE04EE04EE04       DC16     +1262,+1262,+1262,+1262
   \              EE04        
   \   00000CA4   EE04EE04EE04       DC16     +1262,+1262,+1262,+1262
   \              EE04        
   \   00000CAC   EE04EE04EE04       DC16     +1262,+1262,+1262,+1262
   \              EE04        
   \   00000CB4   EE04EE04EE04       DC16     +1262,+1262,+1262,+1262
   \              EE04        
   \   00000CBC   EE04EE04EE04       DC16     +1262,+1262,+1262,+1262
   \              EE04        
   \   00000CC4   EE04EE04EE04       DC16     +1262,+1262,+1262,+1262
   \              EE04        
   \   00000CCC   EE04EE04EE04       DC16     +1262,+1262,+1262,+1262
   \              EE04        
   \   00000CD4   EE04EE04EE04       DC16     +1262,+1262,+1262,+1262
   \              EE04        
   \   00000CDC   EE04EE04EE04       DC16     +1262,+1262,+1262,+1262
   \              EE04        
   \   00000CE4   EE04EE04EE04       DC16     +1262,+1262,+1262,+1262
   \              EE04        
   \   00000CEC   EE04EE04EE04       DC16     +1262,+1262,+1262,+1262
   \              EE04        
   \   00000CF4   EE04EE04EE04       DC16     +1262,+1262,+1262,+1262
   \              EE04        
   \   00000CFC   EE04EE04EE04       DC16     +1262,+1262,+1262,+1262
   \              EE04        
   \   00000D04   EE04EE04EE04       DC16     +1262,+1262,+1262,+1262
   \              EE04        
   \   00000D0C   EE04EE04EE04       DC16     +1262,+1262,+1262,+1262
   \              EE04        
   \   00000D14   EE04EE04EE04       DC16     +1262,+1262,+1262,+1262
   \              EE04        
   \   00000D1C   EE04EE04EE04       DC16     +1262,+1262,+1262,+1262
   \              EE04        
   \   00000D24   EE04EE04EE04       DC16     +1262,+1262,+1262,+1262
   \              EE04        
   \   00000D2C   EE04EE04EE04       DC16     +1262,+1262,+1262,+1262
   \              EE04        
   \   00000D34   EE04EE04EE04       DC16     +1262,+1262,+1262,+1262
   \              EE04        
   \   00000D3C   EE04EE04EE04       DC16     +1262,+1262,+1262,+1262
   \              EE04        
   \   00000D44   EE04EE04EE04       DC16     +1262,+1262,+1262,+1262
   \              EE04        
   \   00000D4C   EE04EE04EE04       DC16     +1262,+1262,+1262,+1262
   \              EE04        
   \   00000D54   EE04EE04EE04       DC16     +1262,+1262,+1262,+1262
   \              EE04        
   \   00000D5C   EE04EE04EE04       DC16     +1262,+1262,+1262,+1262
   \              EE04        
   \   00000D64   EE04EE04EE04       DC16     +1262,+1262,+1262,+1262
   \              EE04        
   \   00000D6C   EE04EE04EE04       DC16     +1262,+1262,+1262,+1262
   \              EE04        
   \   00000D74   EE04EE04EE04       DC16     +1262,+1262,+1262,+1262
   \              EE04        
   \   00000D7C   EE04EE04EE04       DC16     +1262,+1262,+1262,+1262
   \              EE04        
   \   00000D84   EE04EE04EE04       DC16     +1262,+1262,+1262,+1262
   \              EE04        
   \   00000D8C   EE04EE04EE04       DC16     +1262,+1262,+1262,+1262
   \              EE04        
   \   00000D94   EE04EE04EE04       DC16     +1262,+1262,+1262,+1262
   \              EE04        
   \   00000D9C   EE04EE04EE04       DC16     +1262,+1262,+1262,+1262
   \              EE04        
   \   00000DA4   EE04EE04EE04       DC16     +1262,+1262,+1262,+1262
   \              EE04        
   \   00000DAC   EE04EE04EE04       DC16     +1262,+1262,+1262,+1262
   \              EE04        
   \   00000DB4   EE04EE04EE04       DC16     +1262,+1262,+1262,+1262
   \              EE04        
   \   00000DBC   EE04EE04EE04       DC16     +1262,+1262,+1262,+1262
   \              EE04        
   \   00000DC4   EE04EE04EE04       DC16     +1262,+1262,+1262,+1262
   \              EE04        
   \   00000DCC   EE04EE04EE04       DC16     +1262,+1262,+1262,+1262
   \              EE04        
   \   00000DD4   EE04EE04EE04       DC16     +1262,+1262,+1262,+1262
   \              EE04        
   \   00000DDC   EE04EE04EE04       DC16     +1262,+1262,+1262,+1262
   \              EE04        
   \   00000DE4   EE04EE04EE04       DC16     +1262,+1262,+1262,+1262
   \              EE04        
   \   00000DEC   EE04EE04EE04       DC16     +1262,+1262,+1262,+1262
   \              EE04        
   \   00000DF4   EE04EE04EE04       DC16     +1262,+1262,+1262,+1262
   \              EE04        
   \   00000DFC   EE04EE04EE04       DC16     +1262,+1262,+1262,+1262
   \              EE04        
   \   00000E04   EE04EE04EE04       DC16     +1262,+1262,+1262,+1262
   \              EE04        
   \   00000E0C   EE04EE04EE04       DC16     +1262,+1262,+1262,+1262
   \              EE04        
   \   00000E14   EE04EE04EE04       DC16     +1262,+1262,+1262,+1262
   \              EE04        
   \   00000E1C   EE04EE04EE04       DC16     +1262,+1262,+1262,+1262
   \              EE04        
   \   00000E24   EE04EE04EE04       DC16     +1262,+1262,+1262,+1262
   \              EE04        
   \   00000E2C   EE04EE04EE04       DC16     +1262,+1262,+1262,+1262
   \              EE04        
   \   00000E34   EE04EE04EE04       DC16     +1262,+1262,+1262,+1262
   \              EE04        
   \   00000E3C   EE04EE04EE04       DC16     +1262,+1262,+1262,+1262
   \              EE04        
   \   00000E44   EE04EE04EE04       DC16     +1262,+1262,+1262,+1262
   \              EE04        
   \   00000E4C   EE04EE04EE04       DC16     +1262,+1262,+1262,+1262
   \              EE04        
   \   00000E54   EE04EE04EE04       DC16     +1262,+1262,+1262,+1262
   \              EE04        
   \   00000E5C   EE04EE04EE04       DC16     +1262,+1262,+1262,+1262
   \              EE04        
   \   00000E64   EE04EE04EE04       DC16     +1262,+1262,+1262,+1262
   \              EE04        
   \   00000E6C   EE04EE04EE04       DC16     +1262,+1262,+1262,+1262
   \              EE04        
   \   00000E74   EE04EE04EE04       DC16     +1262,+1262,+1262,+1262
   \              EE04        
   \   00000E7C   EE04EE04EE04       DC16     +1262,+1262,+1262,+1262
   \              EE04        
   \   00000E84   EE04EE04EE04       DC16     +1262,+1262,+1262,+1262
   \              EE04        
   \   00000E8C   EE04EE04EE04       DC16     +1262,+1262,+1262,+1262
   \              EE04        
   \   00000E94   EE04EE04EE04       DC16     +1262,+1262,+1262,+1262
   \              EE04        
   \   00000E9C   EE04EE04EE04       DC16     +1262,+1262,+1262,+1262
   \              EE04        
   \   00000EA4   EE04EE04EE04       DC16     +1262,+1262,+1262,+1262
   \              EE04        
   \   00000EAC   EE04EE04EE04       DC16     +1262,+1262,+1262,+1262
   \              EE04        
   \   00000EB4   EE04EE04EE04       DC16     +1262,+1262,+1262,+1262
   \              EE04        
   \   00000EBC   EE04EE04EE04       DC16     +1262,+1262,+1262,+1262
   \              EE04        
   \   00000EC4   EE04EE04EE04       DC16     +1262,+1262,+1262,+1262
   \              EE04        
   \   00000ECC   EE04EE04EE04       DC16     +1262,+1262,+1262,+1262
   \              EE04        
   \   00000ED4   EE04EE04EE04       DC16     +1262,+1262,+1262,+1262
   \              EE04        
   \   00000EDC   EE04EE04EE04       DC16     +1262,+1262,+1262,+1262
   \              EE04        
   \   00000EE4   EE04EE04EE04       DC16     +1262,+1262,+1262,+1262
   \              EE04        
   \   00000EEC   EE04EE04EE04       DC16     +1262,+1262,+1262,+1262
   \              EE04        
   \   00000EF4   EE04EE04EE04       DC16     +1262,+1262,+1262,+1262
   \              EE04        
   \   00000EFC   EE04EE04EE04       DC16     +1262,+1262,+1262,+1262
   \              EE04        
   \   00000F04   EE04EE04EE04       DC16     +1262,+1262,+1262,+1262
   \              EE04        
   \   00000F0C   EE04EE04EE04       DC16     +1262,+1262,+1262,+1262
   \              EE04        
   \   00000F14   EE04EE04EE04       DC16     +1262,+1262,+1262,+1262
   \              EE04        
   \   00000F1C   EE04EE04EE04       DC16     +1262,+1262,+1262,+1262
   \              EE04        
   \   00000F24   EE04EE04EE04       DC16     +1262,+1262,+1262,+1262
   \              EE04        
   \   00000F2C   EE04EE04EE04       DC16     +1262,+1262,+1262,+1262
   \              EE04        
   \   00000F34   EE04EE04EE04       DC16     +1262,+1262,+1262,+1262
   \              EE04        
   \   00000F3C   EE04EE04EE04       DC16     +1262,+1262,+1262,+1262
   \              EE04        
   \   00000F44   EE04EE04EE04       DC16     +1262,+1262,+1262,+1262
   \              EE04        
   \   00000F4C   EE04EE04EE04       DC16     +1262,+1262,+1262,+1262
   \              EE04        
   \   00000F54   EE04EE04EE04       DC16     +1262,+1262,+1262,+1262
   \              EE04        
   \   00000F5C   EE04EE04EE04       DC16     +1262,+1262,+1262,+1262
   \              EE04        
   \   00000F64   EE04EE04EE04       DC16     +1262,+1262,+1262,+1262
   \              EE04        
   \   00000F6C   EE04EE04EE04       DC16     +1262,+1262,+1262,+1262
   \              EE04        
   \   00000F74   EE04EE04EE04       DC16     +1262,+1262,+1262,+1262
   \              EE04        
   \   00000F7C   EE04EE04EE04       DC16     +1262,+1262,+1262,+1262
   \              EE04        
   \   00000F84   EE04EE04EE04       DC16     +1262,+1262,+1262,+1262
   \              EE04        
   \   00000F8C   EE04EE04EE04       DC16     +1262,+1262,+1262,+1262
   \              EE04        
   \   00000F94   EE04EE04EE04       DC16     +1262,+1262,+1262,+1262
   \              EE04        
   \   00000F9C   EE04EE04EE04       DC16     +1262,+1262,+1262,+1262
   \              EE04        
   \   00000FA4   EE04EE04EE04       DC16     +1262,+1262,+1262,+1262
   \              EE04        
   \   00000FAC   EE04EE04EE04       DC16     +1262,+1262,+1262,+1262
   \              EE04        
   \   00000FB4   EE04EE04EE04       DC16     +1262,+1262,+1262,+1262
   \              EE04        
   \   00000FBC   EE04EE04EE04       DC16     +1262,+1262,+1262,+1262
   \              EE04        
   \   00000FC4   EE04EE04EE04       DC16     +1262,+1262,+1262,+1262
   \              EE04        
   \   00000FCC   EE04EE04EE04       DC16     +1262,+1262,+1262,+1262
   \              EE04        
   \   00000FD4   EE04EE04EE04       DC16     +1262,+1262,+1262,+1262
   \              EE04        
   \   00000FDC   EE04EE04EE04       DC16     +1262,+1262,+1262,+1262
   \              EE04        
   \   00000FE4   EE04EE04EE04       DC16     +1262,+1262,+1262,+1262
   \              EE04        
   \   00000FEC   EE04EE04EE04       DC16     +1262,+1262,+1262,+1262
   \              EE04        
   \   00000FF4   EE04EE04EE04       DC16     +1262,+1262,+1262,+1262
   \              EE04        
   \   00000FFC   EE04EE04EE04       DC16     +1262,+1262,+1262,+1262
   \              EE04        
   \   00001004   EE04EE04EE04       DC16     +1262,+1262,+1262,+1262
   \              EE04        
   \   0000100C   EE04EE04EE04       DC16     +1262,+1262,+1262,+1262
   \              EE04        
   \   00001014   EE04EE04EE04       DC16     +1262,+1262,+1262,+1262
   \              EE04        
   \   0000101C   EE04EE04EE04       DC16     +1262,+1262,+1262,+1262
   \              EE04        
   \   00001024   EE04EE04EE04       DC16     +1262,+1262,+1262,+1262
   \              EE04        
   \   0000102C   EE04EE04EE04       DC16     +1262,+1262,+1262,+1262
   \              EE04        
   \   00001034   EE04EE04EE04       DC16     +1262,+1262,+1262,+1262
   \              EE04        
   \   0000103C   EE04EE04EE04       DC16     +1262,+1262,+1262,+1262
   \              EE04        
   \   00001044   EE04EE04EE04       DC16     +1262,+1262,+1262,+1262
   \              EE04        
   \   0000104C   EE04EE04EE04       DC16     +1262,+1262,+1262,+1262
   \              EE04        
   \   00001054   EE04EE04EE04       DC16     +1262,+1262,+1262,+1262
   \              EE04        
   \   0000105C   EE04EE04EE04       DC16     +1262,+1262,+1262,+1262
   \              EE04        
   \   00001064   EE04EE04EE04       DC16     +1262,+1262,+1262,+1262
   \              EE04        
   \   0000106C   EE04EE04EE04       DC16     +1262,+1262,+1262,+1262
   \              EE04        
   \   00001074   EE04EE04EE04       DC16     +1262,+1262,+1262,+1262
   \              EE04        
   \   0000107C   EE04EE04EE04       DC16     +1262,+1262,+1262,+1262
   \              EE04        
   \   00001084   EE04EE04EE04       DC16     +1262,+1262,+1262,+1262
   \              EE04        
   \   0000108C   EE04EE04EE04       DC16     +1262,+1262,+1262,+1262
   \              EE04        
   \   00001094   EE04EE04EE04       DC16     +1262,+1262,+1262,+1262
   \              EE04        
   \   0000109C   EE04EE04EE04       DC16     +1262,+1262,+1262,+1262
   \              EE04        
   \   000010A4   EE04EE04EE04       DC16     +1262,+1262,+1262,+1262
   \              EE04        
   \   000010AC   EE04EE04EE04       DC16     +1262,+1262,+1262,+1262
   \              EE04        
   \   000010B4   EE04EE04EE04       DC16     +1262,+1262,+1262,+1262
   \              EE04        
   \   000010BC   EE04EE04EE04       DC16     +1262,+1262,+1262,+1262
   \              EE04        
   \   000010C4   EE04EE04EE04       DC16     +1262,+1262,+1262,+1262
   \              EE04        
   \   000010CC   EE04EE04EE04       DC16     +1262,+1262,+1262,+1262
   \              EE04        
   \   000010D4   EE04EE04EE04       DC16     +1262,+1262,+1262,+1262
   \              EE04        
   \   000010DC   EE04EE04EE04       DC16     +1262,+1262,+1262,+1262
   \              EE04        
   \   000010E4   EE04EE04EE04       DC16     +1262,+1262,+1262,+1262
   \              EE04        
   \   000010EC   EE04EE04EE04       DC16     +1262,+1262,+1262,+1262
   \              EE04        
   \   000010F4   EE04EE04EE04       DC16     +1262,+1262,+1262,+1262
   \              EE04        
   \   000010FC   EE04EE04EE04       DC16     +1262,+1262,+1262,+1262
   \              EE04        
   \   00001104   EE04EE04EE04       DC16     +1262,+1262,+1262,+1262
   \              EE04        
   \   0000110C   EE04EE04EE04       DC16     +1262,+1262,+1262,+1262
   \              EE04        
   \   00001114   EE04EE04EE04       DC16     +1262,+1262,+1262,+1262
   \              EE04        
   \   0000111C   EE04EE04EE04       DC16     +1262,+1262,+1262,+1262
   \              EE04        
   \   00001124   EE04EE04EE04       DC16     +1262,+1262,+1262,+1262
   \              EE04        
   \   0000112C   EE04EE04EE04       DC16     +1262,+1262,+1262,+1262
   \              EE04        
   \   00001134   EE04EE04EE04       DC16     +1262,+1262,+1262,+1262
   \              EE04        
   \   0000113C   EE04EE04EE04       DC16     +1262,+1262,+1262,+1262
   \              EE04        
   \   00001144   EE04EE04EE04       DC16     +1262,+1262,+1262,+1262
   \              EE04        
   \   0000114C   EE04EE04EE04       DC16     +1262,+1262,+1262,+1262
   \              EE04        
   \   00001154   EE04EE04EE04       DC16     +1262,+1262,+1262,+1262
   \              EE04        
   \   0000115C   EE04EE04EE04       DC16     +1262,+1262,+1262,+1262
   \              EE04        
   \   00001164   EE04EE04EE04       DC16     +1262,+1262,+1262,+1262
   \              EE04        
   \   0000116C   EE04EE04EE04       DC16     +1262,+1262,+1262,+1262
   \              EE04        
   \   00001174   EE04EE04EE04       DC16     +1262,+1262,+1262,+1262
   \              EE04        
   \   0000117C   EE04EE04EE04       DC16     +1262,+1262,+1262,+1262
   \              EE04        
   \   00001184   EE04EE04EE04       DC16     +1262,+1262,+1262,+1262
   \              EE04        
   \   0000118C   EE04EE04EE04       DC16     +1262,+1262,+1262,+1262
   \              EE04        
   \   00001194   EE04EE04EE04       DC16     +1262,+1262,+1262,+1262
   \              EE04        
   \   0000119C   EE04EE04EE04       DC16     +1262,+1262,+1262,+1262
   \              EE04        
   \   000011A4   EE04EE04EE04       DC16     +1262,+1262,+1262,+1262
   \              EE04        
   \   000011AC   EE04EE04EE04       DC16     +1262,+1262,+1262,+1262
   \              EE04        
   \   000011B4   EE04EE04EE04       DC16     +1262,+1262,+1262,+1262
   \              EE04        
   \   000011BC   EE04EE04EE04       DC16     +1262,+1262,+1262,+1262
   \              EE04        
   \   000011C4   EE04EE04EE04       DC16     +1262,+1262,+1262,+1262
   \              EE04        
   \   000011CC   EE04EE04EE04       DC16     +1262,+1262,+1262,+1262
   \              EE04        
   \   000011D4   EE04EE04EE04       DC16     +1262,+1262,+1262,+1262
   \              EE04        
   \   000011DC   EE04EE04EE04       DC16     +1262,+1262,+1262,+1262
   \              EE04        
   \   000011E4   EE04EE04EE04       DC16     +1262,+1262,+1262,+1262
   \              EE04        
   \   000011EC   EE04EE04EE04       DC16     +1262,+1262,+1262,+1262
   \              EE04        
   \   000011F4   EE04EE04EE04       DC16     +1262,+1262,+1262,+1262
   \              EE04        
   \   000011FC   EE04EE04EE04       DC16     +1262,+1262,+1262,+1262
   \              EE04        
   \   00001204   EE04EE04EE04       DC16     +1262,+1262,+1262,+1262
   \              EE04        
   \   0000120C   EE04EE04EE04       DC16     +1262,+1262,+1262,+1262
   \              EE04        
   \   00001214   EE04EE04EE04       DC16     +1262,+1262,+1262,+1262
   \              EE04        
   \   0000121C   EE04EE04EE04       DC16     +1262,+1262,+1262,+1262
   \              EE04        
   \   00001224   EE04EE04EE04       DC16     +1262,+1262,+1262,+1262
   \              EE04        
   \   0000122C   EE04EE04EE04       DC16     +1262,+1262,+1262,+1262
   \              EE04        
   \   00001234   EE04EE04EE04       DC16     +1262,+1262,+1262,+1262
   \              EE04        
   \   0000123C   EE04EE04EE04       DC16     +1262,+1262,+1262,+1262
   \              EE04        
   \   00001244   EE04EE04EE04       DC16     +1262,+1262,+1262,+1262
   \              EE04        
   \   0000124C   EE04EE04EE04       DC16     +1262,+1262,+1262,+1262
   \              EE04        
   \   00001254   EE04EE04EE04       DC16     +1262,+1262,+1262,+1262
   \              EE04        
   \   0000125C   EE04EE04EE04       DC16     +1262,+1262,+1262,+1262
   \              EE04        
   \   00001264   EE04EE04EE04       DC16     +1262,+1262,+1262,+1262
   \              EE04        
   \   0000126C   EE04EE04EE04       DC16     +1262,+1262,+1262,+1262
   \              EE04        
   \   00001274   EE04EE04EE04       DC16     +1262,+1262,+1262,+1262
   \              EE04        
   \   0000127C   EE04EE04EE04       DC16     +1262,+1262,+1262,+1262
   \              EE04        
   \   00001284   EE04EE04EE04       DC16     +1262,+1262,+1262,+1262
   \              EE04        
   \   0000128C   EE04EE04EE04       DC16     +1262,+1262,+1262,+1262
   \              EE04        
   \   00001294   EE04EE04EE04       DC16     +1262,+1262,+1262,+1262
   \              EE04        
   \   0000129C   EE04EE04EE04       DC16     +1262,+1262,+1262,+1262
   \              EE04        
   \   000012A4   EE04EE04EE04       DC16     +1262,+1262,+1262,+1262
   \              EE04        
   \   000012AC   EE04EE04EE04       DC16     +1262,+1262,+1262,+1262
   \              EE04        
   \   000012B4   EE04EE04EE04       DC16     +1262,+1262,+1262,+1253
   \              E504        
    140          	case GUI_ID_DROPDOWN1:
    141          	case GUI_ID_DROPDOWN2:
    142          	case GUI_ID_DROPDOWN3:
    143          		{
    144          			int col;
    145          			WM_HWIN hTextUnitCol;
    146          			switch ( Key ) {
   \                     ??UpdateDialog_4:
   \   000012BC   810047E2           SUB      R0,R7,#+129
   \   000012C0   400F40E2           SUB      R0,R0,#+256
   \   000012C4   020050E3           CMP      R0,#+2
   \   000012C8   0B00008A           BHI      ??UpdateDialog_5
   \   000012CC   011F8FE2           ADR      R1,??UpdateDialog_2
   \   000012D0   0010D1E7           LDRB     R1,[R1, R0]
   \   000012D4   01F18FE0           ADD      PC,PC,R1, LSL #+2
   \                     ??UpdateDialog_2:
   \   000012D8   00030600           DC8      +0,+3,+6,+0
    147          			case GUI_ID_DROPDOWN1:
    148          				col          = 2;
    149          				hTextUnitCol = hTextUnitCol2;
   \                     ??UpdateDialog_6:
   \   000012DC   FC53D4E1           LDRSH    R5,[R4, #+60]
   \   000012E0   0280A0E3           MOV      R8,#+2
   \   000012E4   040000EA           B        ??UpdateDialog_5
    150          				break;
    151          			case GUI_ID_DROPDOWN2:
    152          				col          = 3;
    153          				hTextUnitCol = hTextUnitCol3;
   \                     ??UpdateDialog_7:
   \   000012E8   FE53D4E1           LDRSH    R5,[R4, #+62]
   \   000012EC   0380A0E3           MOV      R8,#+3
   \   000012F0   010000EA           B        ??UpdateDialog_5
    154          				break;
    155          			case GUI_ID_DROPDOWN3:
    156          				col          = 4;
    157          				hTextUnitCol = hTextUnitCol4;
   \                     ??UpdateDialog_8:
   \   000012F4   F054D4E1           LDRSH    R5,[R4, #+64]
   \   000012F8   0480A0E3           MOV      R8,#+4
    158          				break;
    159          			}
    160          			AnsiString str, unitstr;
   \                     ??UpdateDialog_5:
   \   000012FC   38008DE2           ADD      R0,SP,#+56
   \   00001300   ........           _BLF     ??AnsiString,??AnsiString??rA
   \   00001304   0D00A0E1           MOV      R0,SP
   \   00001308   ........           _BLF     ??AnsiString,??AnsiString??rA
    161          			WM_HWIN hDropd0 = WM_GetDialogItem(hWin, Key);
   \   0000130C   0600A0E1           MOV      R0,R6
    162          			CargoWindow->ValueTable[col].ValueId = ValTabPtr[DROPDOWN_GetSel(hDropd0)].Value;
   \   00001310   ........           LDR      R6,??DataTable4  ;; CargoWindow
   \   00001314   0710A0E1           MOV      R1,R7
   \   00001318   ........           _BLF     WM_GetDialogItem,??WM_GetDialogItem??rA
   \   0000131C   ........           _BLF     DROPDOWN_GetSel,??DROPDOWN_GetSel??rA
   \   00001320   001096E5           LDR      R1,[R6, #+0]
   \   00001324   583094E5           LDR      R3,[R4, #+88]
   \   00001328   7C1091E5           LDR      R1,[R1, #+124]
   \   0000132C   0C20A0E3           MOV      R2,#+12
   \   00001330   923020E0           MLA      R0,R2,R0,R3
   \   00001334   080090E5           LDR      R0,[R0, #+8]
   \   00001338   921821E0           MLA      R1,R2,R8,R1
   \   0000133C   000081E5           STR      R0,[R1, #+0]
    163          			str = LibGetValue(CargoWindow->ValueTable[col].ValueId,PROCargoTank::AllObjVector[0],&unitstr);
   \   00001340   0000A0E3           MOV      R0,#+0
   \   00001344   01002DE9           PUSH     {R0}
   \   00001348   CC009FE5           LDR      R0,??UpdateDialog_9  ;; ??AllObjVector
   \   0000134C   001091E5           LDR      R1,[R1, #+0]
   \   00001350   000090E5           LDR      R0,[R0, #+0]
   \   00001354   04308DE2           ADD      R3,SP,#+4
   \   00001358   002090E5           LDR      R2,[R0, #+0]
   \   0000135C   20008DE2           ADD      R0,SP,#+32
   \   00001360   ........           _BLF     ??LibGetValue,??LibGetValue??rA
   \   00001364   ........           LDR      R0,??DataTable5  ;; ??npos
   \   00001368   0020A0E3           MOV      R2,#+0
   \   0000136C   003090E5           LDR      R3,[R0, #+0]
   \   00001370   20108DE2           ADD      R1,SP,#+32
   \   00001374   3C008DE2           ADD      R0,SP,#+60
   \   00001378   ........           _BLF     ??assign,??assign??rA
   \   0000137C   0020A0E3           MOV      R2,#+0
   \   00001380   0110A0E3           MOV      R1,#+1
   \   00001384   20008DE2           ADD      R0,SP,#+32
   \   00001388   ........           _BLF     ??_Tidy,??_Tidy??rA
    164          			CargoWindow->PaintnewHeading();
   \   0000138C   000096E5           LDR      R0,[R6, #+0]
   \   00001390   ........           _BLF     ??PaintnewHeading,??PaintnewHeading??rA
    165          			TEXT_SetText(hTextUnitCol, unitstr.c_str());
   \   00001394   1C009DE5           LDR      R0,[SP, #+28]
   \   00001398   04D08DE2           ADD      SP,SP,#+4
   \   0000139C   100050E3           CMP      R0,#+16
   \   000013A0   04109D25           LDRCS    R1,[SP, #+4]
   \   000013A4   0500A0E1           MOV      R0,R5
   \   000013A8   04108D32           ADDCC    R1,SP,#+4
   \   000013AC   ........           _BLF     TEXT_SetText,??TEXT_SetText??rA
    166          		}
   \   000013B0   0020A0E3           MOV      R2,#+0
   \   000013B4   0110A0E3           MOV      R1,#+1
   \   000013B8   0D00A0E1           MOV      R0,SP
   \   000013BC   ........           _BLF     ??_Tidy,??_Tidy??rA
   \   000013C0   0020A0E3           MOV      R2,#+0
   \   000013C4   0110A0E3           MOV      R1,#+1
   \   000013C8   38008DE2           ADD      R0,SP,#+56
   \   000013CC   ........           _BLF     ??_Tidy,??_Tidy??rA
   \   000013D0   080000EA           B        ??UpdateDialog_3
    167          		break;
    168          	case GUI_ID_DROPDOWN4:
    169          		SetSelected(GUI_ID_DROPDOWN4,PROSystemData::TXUSystemData->GetOpModeState(SVT_TANK_STATE_STR_CGO));
   \                     ??UpdateDialog_10:
   \   000013D4   ........           LDR      R0,??DataTable7  ;; ??TXUSystemData
   \   000013D8   C810A0E3           MOV      R1,#+200
   \   000013DC   000090E5           LDR      R0,[R0, #+0]
   \   000013E0   501E81E3           ORR      R1,R1,#0x500
   \   000013E4   ........           _BLF     ??GetOpModeState,??GetOpModeState??rA
   \   000013E8   0020A0E1           MOV      R2,R0
   \   000013EC   AC1EA0E3           MOV      R1,#+2752
   \   000013F0   0400A0E1           MOV      R0,R4
   \   000013F4   ........           _BLF     ??SetSelected,??SetSelected??rA
    170          		break;
    171          	}
    172          	SystemWindow->IsModified = true;
   \                     ??UpdateDialog_3:
   \   000013F8   20009FE5           LDR      R0,??UpdateDialog_9+0x4  ;; SystemWindow
   \   000013FC   0110A0E3           MOV      R1,#+1
   \   00001400   000090E5           LDR      R0,[R0, #+0]
   \   00001404   7510C0E5           STRB     R1,[R0, #+117]
    173          
    174          	SignalSaveSettings(FLASH_SAVE_SETTINGS);
   \   00001408   0100A0E3           MOV      R0,#+1
   \   0000140C   ........           _BLF     ??SignalSaveSettings,??SignalSaveSettings??rA
    175          }
   \   00001410   54D08DE2           ADD      SP,SP,#+84
   \   00001414   F041BDE8           POP      {R4-R8,LR}
   \   00001418   1EFF2FE1           BX       LR               ;; return
   \                     ??UpdateDialog_9:
   \   0000141C   ........           DC32     ??AllObjVector
   \   00001420   ........           DC32     SystemWindow

   \                                 In segment CODE, align 4, keep-with-next
    176          void TDUAppSetupCargo::Update(void)
    177          {
   \                     ??Update:
   \   00000000   10402DE9           PUSH     {R4,LR}
   \   00000004   0040A0E1           MOV      R4,R0
    178          	SetSelected(GUI_ID_DROPDOWN4,PROSystemData::TXUSystemData->GetOpModeState(SVT_TANK_STATE_STR_CGO));
   \   00000008   ........           LDR      R0,??DataTable7  ;; ??TXUSystemData
   \   0000000C   C810A0E3           MOV      R1,#+200
   \   00000010   000090E5           LDR      R0,[R0, #+0]
   \   00000014   501E81E3           ORR      R1,R1,#0x500
   \   00000018   ........           _BLF     ??GetOpModeState,??GetOpModeState??rA
   \   0000001C   0020A0E1           MOV      R2,R0
   \   00000020   AC1EA0E3           MOV      R1,#+2752
   \   00000024   0400A0E1           MOV      R0,R4
   \   00000028   ........           _BLF     ??SetSelected,??SetSelected??rA
    179          	if ( hTimer ) WM_RestartTimer(hTimer, 1000);
   \   0000002C   FC02D4E1           LDRSH    R0,[R4, #+44]
   \   00000030   000050E3           CMP      R0,#+0
   \   00000034   0100000A           BEQ      ??Update_1
   \   00000038   FA1FA0E3           MOV      R1,#+1000
   \   0000003C   ........           _BLF     WM_RestartTimer,??WM_RestartTimer??rA
    180          }
   \                     ??Update_1:
   \   00000040   1040BDE8           POP      {R4,LR}
   \   00000044   1EFF2FE1           BX       LR               ;; return
    181          

   \                                 In segment CODE, align 4, keep-with-next
    182          void TDUAppSetupCargo::cbTankSetup(WM_MESSAGE *pMsg)
    183          {
   \                     ??cbTankSetup:
   \   00000000   F0412DE9           PUSH     {R4-R8,LR}
    184          	int NCode, Id;
    185          	WM_HWIN hWin = pMsg->hWin;
    186          	switch ( pMsg->MsgId ) {
   \   00000004   C88B9FE5           LDR      R8,??cbTankSetup_4  ;; AppSetupCargo
   \   00000008   F0D04DE2           SUB      SP,SP,#+240
   \   0000000C   0060A0E1           MOV      R6,R0
   \   00000010   001096E5           LDR      R1,[R6, #+0]
   \   00000014   F450D6E1           LDRSH    R5,[R6, #+4]
   \   00000018   F670D6E1           LDRSH    R7,[R6, #+6]
   \   0000001C   000098E5           LDR      R0,[R8, #+0]
   \   00000020   0140A0E3           MOV      R4,#+1
   \   00000024   0F1041E2           SUB      R1,R1,#+15
   \   00000028   0520A0E3           MOV      R2,#+5
   \   0000002C   402E82E3           ORR      R2,R2,#0x400
   \   00000030   020051E1           CMP      R1,R2
   \   00000034   A107008A           BHI      ??cbTankSetup_5
   \   00000038   022F8FE2           ADR      R2,??cbTankSetup_1
   \   0000003C   8110A0E1           MOV      R1,R1, LSL #+1
   \   00000040   B12092E1           LDRH     R2,[R2, R1]
   \   00000044   02F18FE0           ADD      PC,PC,R2, LSL #+2
   \                     ??cbTankSetup_1:
   \   00000048   04029D079D07       DC16     +516,+1949,+1949,+1949
   \              9D07        
   \   00000050   9D079D079D07       DC16     +1949,+1949,+1949,+1949
   \              9D07        
   \   00000058   9D079D079D07       DC16     +1949,+1949,+1949,+1949
   \              9D07        
   \   00000060   9D079D070202       DC16     +1949,+1949,+514,+1949
   \              9D07        
   \   00000068   9D079D079D07       DC16     +1949,+1949,+1949,+1949
   \              9D07        
   \   00000070   9D079D079D07       DC16     +1949,+1949,+1949,+688
   \              B002        
   \   00000078   9D079D079D07       DC16     +1949,+1949,+1949,+1949
   \              9D07        
   \   00000080   9D079D079D07       DC16     +1949,+1949,+1949,+1949
   \              9D07        
   \   00000088   9D079D079D07       DC16     +1949,+1949,+1949,+1949
   \              9D07        
   \   00000090   9D079D079D07       DC16     +1949,+1949,+1949,+1949
   \              9D07        
   \   00000098   9D079D079D07       DC16     +1949,+1949,+1949,+1949
   \              9D07        
   \   000000A0   9D079D079D07       DC16     +1949,+1949,+1949,+1949
   \              9D07        
   \   000000A8   9D079D079D07       DC16     +1949,+1949,+1949,+1949
   \              9D07        
   \   000000B0   9D079D079D07       DC16     +1949,+1949,+1949,+1949
   \              9D07        
   \   000000B8   9D079D079D07       DC16     +1949,+1949,+1949,+1949
   \              9D07        
   \   000000C0   9D079D079D07       DC16     +1949,+1949,+1949,+1949
   \              9D07        
   \   000000C8   9D079D079D07       DC16     +1949,+1949,+1949,+1949
   \              9D07        
   \   000000D0   9D079D079D07       DC16     +1949,+1949,+1949,+1949
   \              9D07        
   \   000000D8   9D079D079D07       DC16     +1949,+1949,+1949,+1949
   \              9D07        
   \   000000E0   9D079D079D07       DC16     +1949,+1949,+1949,+1949
   \              9D07        
   \   000000E8   9D079D079D07       DC16     +1949,+1949,+1949,+1949
   \              9D07        
   \   000000F0   9D079D079D07       DC16     +1949,+1949,+1949,+1949
   \              9D07        
   \   000000F8   9D079D079D07       DC16     +1949,+1949,+1949,+1949
   \              9D07        
   \   00000100   9D079D079D07       DC16     +1949,+1949,+1949,+1949
   \              9D07        
   \   00000108   9D079D079D07       DC16     +1949,+1949,+1949,+1949
   \              9D07        
   \   00000110   9D079D079D07       DC16     +1949,+1949,+1949,+1949
   \              9D07        
   \   00000118   9D079D079D07       DC16     +1949,+1949,+1949,+1949
   \              9D07        
   \   00000120   9D079D079D07       DC16     +1949,+1949,+1949,+1949
   \              9D07        
   \   00000128   9D079D079D07       DC16     +1949,+1949,+1949,+1949
   \              9D07        
   \   00000130   9D079D079D07       DC16     +1949,+1949,+1949,+1949
   \              9D07        
   \   00000138   9D079D079D07       DC16     +1949,+1949,+1949,+1949
   \              9D07        
   \   00000140   9D079D079D07       DC16     +1949,+1949,+1949,+1949
   \              9D07        
   \   00000148   9D079D079D07       DC16     +1949,+1949,+1949,+1949
   \              9D07        
   \   00000150   9D079D079D07       DC16     +1949,+1949,+1949,+1949
   \              9D07        
   \   00000158   9D079D079D07       DC16     +1949,+1949,+1949,+1949
   \              9D07        
   \   00000160   9D079D079D07       DC16     +1949,+1949,+1949,+1949
   \              9D07        
   \   00000168   9D079D079D07       DC16     +1949,+1949,+1949,+1949
   \              9D07        
   \   00000170   9D079D079D07       DC16     +1949,+1949,+1949,+1949
   \              9D07        
   \   00000178   9D079D079D07       DC16     +1949,+1949,+1949,+1949
   \              9D07        
   \   00000180   9D079D079D07       DC16     +1949,+1949,+1949,+1949
   \              9D07        
   \   00000188   9D079D079D07       DC16     +1949,+1949,+1949,+1949
   \              9D07        
   \   00000190   9D079D079D07       DC16     +1949,+1949,+1949,+1949
   \              9D07        
   \   00000198   9D079D079D07       DC16     +1949,+1949,+1949,+1949
   \              9D07        
   \   000001A0   9D079D079D07       DC16     +1949,+1949,+1949,+1949
   \              9D07        
   \   000001A8   9D079D079D07       DC16     +1949,+1949,+1949,+1949
   \              9D07        
   \   000001B0   9D079D079D07       DC16     +1949,+1949,+1949,+1949
   \              9D07        
   \   000001B8   9D079D079D07       DC16     +1949,+1949,+1949,+1949
   \              9D07        
   \   000001C0   9D079D079D07       DC16     +1949,+1949,+1949,+1949
   \              9D07        
   \   000001C8   9D079D079D07       DC16     +1949,+1949,+1949,+1949
   \              9D07        
   \   000001D0   9D079D079D07       DC16     +1949,+1949,+1949,+1949
   \              9D07        
   \   000001D8   9D079D079D07       DC16     +1949,+1949,+1949,+1949
   \              9D07        
   \   000001E0   9D079D079D07       DC16     +1949,+1949,+1949,+1949
   \              9D07        
   \   000001E8   9D079D079D07       DC16     +1949,+1949,+1949,+1949
   \              9D07        
   \   000001F0   9D079D079D07       DC16     +1949,+1949,+1949,+1949
   \              9D07        
   \   000001F8   9D079D079D07       DC16     +1949,+1949,+1949,+1949
   \              9D07        
   \   00000200   9D079D079D07       DC16     +1949,+1949,+1949,+1949
   \              9D07        
   \   00000208   9D079D079D07       DC16     +1949,+1949,+1949,+1949
   \              9D07        
   \   00000210   9D079D079D07       DC16     +1949,+1949,+1949,+1949
   \              9D07        
   \   00000218   9D079D079D07       DC16     +1949,+1949,+1949,+1949
   \              9D07        
   \   00000220   9D079D079D07       DC16     +1949,+1949,+1949,+1949
   \              9D07        
   \   00000228   9D079D079D07       DC16     +1949,+1949,+1949,+1949
   \              9D07        
   \   00000230   9D079D079D07       DC16     +1949,+1949,+1949,+1949
   \              9D07        
   \   00000238   9D079D079D07       DC16     +1949,+1949,+1949,+1949
   \              9D07        
   \   00000240   9D079D079D07       DC16     +1949,+1949,+1949,+1949
   \              9D07        
   \   00000248   9D079D079D07       DC16     +1949,+1949,+1949,+1949
   \              9D07        
   \   00000250   9B079D079D07       DC16     +1947,+1949,+1949,+1949
   \              9D07        
   \   00000258   9D079D079D07       DC16     +1949,+1949,+1949,+1949
   \              9D07        
   \   00000260   9D079D079D07       DC16     +1949,+1949,+1949,+1949
   \              9D07        
   \   00000268   9D079D079D07       DC16     +1949,+1949,+1949,+1949
   \              9D07        
   \   00000270   9D079D079D07       DC16     +1949,+1949,+1949,+1949
   \              9D07        
   \   00000278   9D079D079D07       DC16     +1949,+1949,+1949,+1949
   \              9D07        
   \   00000280   9D079D079D07       DC16     +1949,+1949,+1949,+1949
   \              9D07        
   \   00000288   9D079D079D07       DC16     +1949,+1949,+1949,+1949
   \              9D07        
   \   00000290   9D079D079D07       DC16     +1949,+1949,+1949,+1949
   \              9D07        
   \   00000298   9D079D079D07       DC16     +1949,+1949,+1949,+1949
   \              9D07        
   \   000002A0   9D079D079D07       DC16     +1949,+1949,+1949,+1949
   \              9D07        
   \   000002A8   9D079D079D07       DC16     +1949,+1949,+1949,+1949
   \              9D07        
   \   000002B0   9D079D079D07       DC16     +1949,+1949,+1949,+1949
   \              9D07        
   \   000002B8   9D079D079D07       DC16     +1949,+1949,+1949,+1949
   \              9D07        
   \   000002C0   9D079D079D07       DC16     +1949,+1949,+1949,+1949
   \              9D07        
   \   000002C8   9D079D079D07       DC16     +1949,+1949,+1949,+1949
   \              9D07        
   \   000002D0   9D079D079D07       DC16     +1949,+1949,+1949,+1949
   \              9D07        
   \   000002D8   9D079D079D07       DC16     +1949,+1949,+1949,+1949
   \              9D07        
   \   000002E0   9D079D079D07       DC16     +1949,+1949,+1949,+1949
   \              9D07        
   \   000002E8   9D079D079D07       DC16     +1949,+1949,+1949,+1949
   \              9D07        
   \   000002F0   9D079D079D07       DC16     +1949,+1949,+1949,+1949
   \              9D07        
   \   000002F8   9D079D079D07       DC16     +1949,+1949,+1949,+1949
   \              9D07        
   \   00000300   9D079D079D07       DC16     +1949,+1949,+1949,+1949
   \              9D07        
   \   00000308   9D079D079D07       DC16     +1949,+1949,+1949,+1949
   \              9D07        
   \   00000310   9D079D079D07       DC16     +1949,+1949,+1949,+1949
   \              9D07        
   \   00000318   9D079D079D07       DC16     +1949,+1949,+1949,+1949
   \              9D07        
   \   00000320   9D079D079D07       DC16     +1949,+1949,+1949,+1949
   \              9D07        
   \   00000328   9D079D079D07       DC16     +1949,+1949,+1949,+1949
   \              9D07        
   \   00000330   9D079D079D07       DC16     +1949,+1949,+1949,+1949
   \              9D07        
   \   00000338   9D079D079D07       DC16     +1949,+1949,+1949,+1949
   \              9D07        
   \   00000340   9D079D079D07       DC16     +1949,+1949,+1949,+1949
   \              9D07        
   \   00000348   9D079D079D07       DC16     +1949,+1949,+1949,+1949
   \              9D07        
   \   00000350   9D079D079D07       DC16     +1949,+1949,+1949,+1949
   \              9D07        
   \   00000358   9D079D079D07       DC16     +1949,+1949,+1949,+1949
   \              9D07        
   \   00000360   9D079D079D07       DC16     +1949,+1949,+1949,+1949
   \              9D07        
   \   00000368   9D079D079D07       DC16     +1949,+1949,+1949,+1949
   \              9D07        
   \   00000370   9D079D079D07       DC16     +1949,+1949,+1949,+1949
   \              9D07        
   \   00000378   9D079D079D07       DC16     +1949,+1949,+1949,+1949
   \              9D07        
   \   00000380   9D079D079D07       DC16     +1949,+1949,+1949,+1949
   \              9D07        
   \   00000388   9D079D079D07       DC16     +1949,+1949,+1949,+1949
   \              9D07        
   \   00000390   9D079D079D07       DC16     +1949,+1949,+1949,+1949
   \              9D07        
   \   00000398   9D079D079D07       DC16     +1949,+1949,+1949,+1949
   \              9D07        
   \   000003A0   9D079D079D07       DC16     +1949,+1949,+1949,+1949
   \              9D07        
   \   000003A8   9D079D079D07       DC16     +1949,+1949,+1949,+1949
   \              9D07        
   \   000003B0   9D079D079D07       DC16     +1949,+1949,+1949,+1949
   \              9D07        
   \   000003B8   9D079D079D07       DC16     +1949,+1949,+1949,+1949
   \              9D07        
   \   000003C0   9D079D079D07       DC16     +1949,+1949,+1949,+1949
   \              9D07        
   \   000003C8   9D079D079D07       DC16     +1949,+1949,+1949,+1949
   \              9D07        
   \   000003D0   9D079D079D07       DC16     +1949,+1949,+1949,+1949
   \              9D07        
   \   000003D8   9D079D079D07       DC16     +1949,+1949,+1949,+1949
   \              9D07        
   \   000003E0   9D079D079D07       DC16     +1949,+1949,+1949,+1949
   \              9D07        
   \   000003E8   9D079D079D07       DC16     +1949,+1949,+1949,+1949
   \              9D07        
   \   000003F0   9D079D079D07       DC16     +1949,+1949,+1949,+1949
   \              9D07        
   \   000003F8   9D079D079D07       DC16     +1949,+1949,+1949,+1949
   \              9D07        
   \   00000400   9D079D079D07       DC16     +1949,+1949,+1949,+1949
   \              9D07        
   \   00000408   9D079D079D07       DC16     +1949,+1949,+1949,+1949
   \              9D07        
   \   00000410   9D079D079D07       DC16     +1949,+1949,+1949,+1949
   \              9D07        
   \   00000418   9D079D079D07       DC16     +1949,+1949,+1949,+1949
   \              9D07        
   \   00000420   9D079D079D07       DC16     +1949,+1949,+1949,+1949
   \              9D07        
   \   00000428   9D079D079D07       DC16     +1949,+1949,+1949,+1949
   \              9D07        
   \   00000430   9D079D079D07       DC16     +1949,+1949,+1949,+1949
   \              9D07        
   \   00000438   9D079D079D07       DC16     +1949,+1949,+1949,+1949
   \              9D07        
   \   00000440   9D079D079D07       DC16     +1949,+1949,+1949,+1949
   \              9D07        
   \   00000448   9D079D079D07       DC16     +1949,+1949,+1949,+1949
   \              9D07        
   \   00000450   9D079D079D07       DC16     +1949,+1949,+1949,+1949
   \              9D07        
   \   00000458   9D079D079D07       DC16     +1949,+1949,+1949,+1949
   \              9D07        
   \   00000460   9D079D079D07       DC16     +1949,+1949,+1949,+1949
   \              9D07        
   \   00000468   9D079D079D07       DC16     +1949,+1949,+1949,+1949
   \              9D07        
   \   00000470   9D079D079D07       DC16     +1949,+1949,+1949,+1949
   \              9D07        
   \   00000478   9D079D079D07       DC16     +1949,+1949,+1949,+1949
   \              9D07        
   \   00000480   9D079D079D07       DC16     +1949,+1949,+1949,+1949
   \              9D07        
   \   00000488   9D079D079D07       DC16     +1949,+1949,+1949,+1949
   \              9D07        
   \   00000490   9D079D079D07       DC16     +1949,+1949,+1949,+1949
   \              9D07        
   \   00000498   9D079D079D07       DC16     +1949,+1949,+1949,+1949
   \              9D07        
   \   000004A0   9D079D079D07       DC16     +1949,+1949,+1949,+1949
   \              9D07        
   \   000004A8   9D079D079D07       DC16     +1949,+1949,+1949,+1949
   \              9D07        
   \   000004B0   9D079D079D07       DC16     +1949,+1949,+1949,+1949
   \              9D07        
   \   000004B8   9D079D079D07       DC16     +1949,+1949,+1949,+1949
   \              9D07        
   \   000004C0   9D079D079D07       DC16     +1949,+1949,+1949,+1949
   \              9D07        
   \   000004C8   9D079D079D07       DC16     +1949,+1949,+1949,+1949
   \              9D07        
   \   000004D0   9D079D079D07       DC16     +1949,+1949,+1949,+1949
   \              9D07        
   \   000004D8   9D079D079D07       DC16     +1949,+1949,+1949,+1949
   \              9D07        
   \   000004E0   9D079D079D07       DC16     +1949,+1949,+1949,+1949
   \              9D07        
   \   000004E8   9D079D079D07       DC16     +1949,+1949,+1949,+1949
   \              9D07        
   \   000004F0   9D079D079D07       DC16     +1949,+1949,+1949,+1949
   \              9D07        
   \   000004F8   9D079D079D07       DC16     +1949,+1949,+1949,+1949
   \              9D07        
   \   00000500   9D079D079D07       DC16     +1949,+1949,+1949,+1949
   \              9D07        
   \   00000508   9D079D079D07       DC16     +1949,+1949,+1949,+1949
   \              9D07        
   \   00000510   9D079D079D07       DC16     +1949,+1949,+1949,+1949
   \              9D07        
   \   00000518   9D079D079D07       DC16     +1949,+1949,+1949,+1949
   \              9D07        
   \   00000520   9D079D079D07       DC16     +1949,+1949,+1949,+1949
   \              9D07        
   \   00000528   9D079D079D07       DC16     +1949,+1949,+1949,+1949
   \              9D07        
   \   00000530   9D079D079D07       DC16     +1949,+1949,+1949,+1949
   \              9D07        
   \   00000538   9D079D079D07       DC16     +1949,+1949,+1949,+1949
   \              9D07        
   \   00000540   9D079D079D07       DC16     +1949,+1949,+1949,+1949
   \              9D07        
   \   00000548   9D079D079D07       DC16     +1949,+1949,+1949,+1949
   \              9D07        
   \   00000550   9D079D079D07       DC16     +1949,+1949,+1949,+1949
   \              9D07        
   \   00000558   9D079D079D07       DC16     +1949,+1949,+1949,+1949
   \              9D07        
   \   00000560   9D079D079D07       DC16     +1949,+1949,+1949,+1949
   \              9D07        
   \   00000568   9D079D079D07       DC16     +1949,+1949,+1949,+1949
   \              9D07        
   \   00000570   9D079D079D07       DC16     +1949,+1949,+1949,+1949
   \              9D07        
   \   00000578   9D079D079D07       DC16     +1949,+1949,+1949,+1949
   \              9D07        
   \   00000580   9D079D079D07       DC16     +1949,+1949,+1949,+1949
   \              9D07        
   \   00000588   9D079D079D07       DC16     +1949,+1949,+1949,+1949
   \              9D07        
   \   00000590   9D079D079D07       DC16     +1949,+1949,+1949,+1949
   \              9D07        
   \   00000598   9D079D079D07       DC16     +1949,+1949,+1949,+1949
   \              9D07        
   \   000005A0   9D079D079D07       DC16     +1949,+1949,+1949,+1949
   \              9D07        
   \   000005A8   9D079D079D07       DC16     +1949,+1949,+1949,+1949
   \              9D07        
   \   000005B0   9D079D079D07       DC16     +1949,+1949,+1949,+1949
   \              9D07        
   \   000005B8   9D079D079D07       DC16     +1949,+1949,+1949,+1949
   \              9D07        
   \   000005C0   9D079D079D07       DC16     +1949,+1949,+1949,+1949
   \              9D07        
   \   000005C8   9D079D079D07       DC16     +1949,+1949,+1949,+1949
   \              9D07        
   \   000005D0   9D079D079D07       DC16     +1949,+1949,+1949,+1949
   \              9D07        
   \   000005D8   9D079D079D07       DC16     +1949,+1949,+1949,+1949
   \              9D07        
   \   000005E0   9D079D079D07       DC16     +1949,+1949,+1949,+1949
   \              9D07        
   \   000005E8   9D079D079D07       DC16     +1949,+1949,+1949,+1949
   \              9D07        
   \   000005F0   9D079D079D07       DC16     +1949,+1949,+1949,+1949
   \              9D07        
   \   000005F8   9D079D079D07       DC16     +1949,+1949,+1949,+1949
   \              9D07        
   \   00000600   9D079D079D07       DC16     +1949,+1949,+1949,+1949
   \              9D07        
   \   00000608   9D079D079D07       DC16     +1949,+1949,+1949,+1949
   \              9D07        
   \   00000610   9D079D079D07       DC16     +1949,+1949,+1949,+1949
   \              9D07        
   \   00000618   9D079D079D07       DC16     +1949,+1949,+1949,+1949
   \              9D07        
   \   00000620   9D079D079D07       DC16     +1949,+1949,+1949,+1949
   \              9D07        
   \   00000628   9D079D079D07       DC16     +1949,+1949,+1949,+1949
   \              9D07        
   \   00000630   9D079D079D07       DC16     +1949,+1949,+1949,+1949
   \              9D07        
   \   00000638   9D079D079D07       DC16     +1949,+1949,+1949,+1949
   \              9D07        
   \   00000640   9D079D079D07       DC16     +1949,+1949,+1949,+1949
   \              9D07        
   \   00000648   9D079D079D07       DC16     +1949,+1949,+1949,+1949
   \              9D07        
   \   00000650   9D079D079D07       DC16     +1949,+1949,+1949,+1949
   \              9D07        
   \   00000658   9D079D079D07       DC16     +1949,+1949,+1949,+1949
   \              9D07        
   \   00000660   9D079D079D07       DC16     +1949,+1949,+1949,+1949
   \              9D07        
   \   00000668   9D079D079D07       DC16     +1949,+1949,+1949,+1949
   \              9D07        
   \   00000670   9D079D079D07       DC16     +1949,+1949,+1949,+1949
   \              9D07        
   \   00000678   9D079D079D07       DC16     +1949,+1949,+1949,+1949
   \              9D07        
   \   00000680   9D079D079D07       DC16     +1949,+1949,+1949,+1949
   \              9D07        
   \   00000688   9D079D079D07       DC16     +1949,+1949,+1949,+1949
   \              9D07        
   \   00000690   9D079D079D07       DC16     +1949,+1949,+1949,+1949
   \              9D07        
   \   00000698   9D079D079D07       DC16     +1949,+1949,+1949,+1949
   \              9D07        
   \   000006A0   9D079D079D07       DC16     +1949,+1949,+1949,+1949
   \              9D07        
   \   000006A8   9D079D079D07       DC16     +1949,+1949,+1949,+1949
   \              9D07        
   \   000006B0   9D079D079D07       DC16     +1949,+1949,+1949,+1949
   \              9D07        
   \   000006B8   9D079D079D07       DC16     +1949,+1949,+1949,+1949
   \              9D07        
   \   000006C0   9D079D079D07       DC16     +1949,+1949,+1949,+1949
   \              9D07        
   \   000006C8   9D079D079D07       DC16     +1949,+1949,+1949,+1949
   \              9D07        
   \   000006D0   9D079D079D07       DC16     +1949,+1949,+1949,+1949
   \              9D07        
   \   000006D8   9D079D079D07       DC16     +1949,+1949,+1949,+1949
   \              9D07        
   \   000006E0   9D079D079D07       DC16     +1949,+1949,+1949,+1949
   \              9D07        
   \   000006E8   9D079D079D07       DC16     +1949,+1949,+1949,+1949
   \              9D07        
   \   000006F0   9D079D079D07       DC16     +1949,+1949,+1949,+1949
   \              9D07        
   \   000006F8   9D079D079D07       DC16     +1949,+1949,+1949,+1949
   \              9D07        
   \   00000700   9D079D079D07       DC16     +1949,+1949,+1949,+1949
   \              9D07        
   \   00000708   9D079D079D07       DC16     +1949,+1949,+1949,+1949
   \              9D07        
   \   00000710   9D079D079D07       DC16     +1949,+1949,+1949,+1949
   \              9D07        
   \   00000718   9D079D079D07       DC16     +1949,+1949,+1949,+1949
   \              9D07        
   \   00000720   9D079D079D07       DC16     +1949,+1949,+1949,+1949
   \              9D07        
   \   00000728   9D079D079D07       DC16     +1949,+1949,+1949,+1949
   \              9D07        
   \   00000730   9D079D079D07       DC16     +1949,+1949,+1949,+1949
   \              9D07        
   \   00000738   9D079D079D07       DC16     +1949,+1949,+1949,+1949
   \              9D07        
   \   00000740   9D079D079D07       DC16     +1949,+1949,+1949,+1949
   \              9D07        
   \   00000748   9D079D079D07       DC16     +1949,+1949,+1949,+1949
   \              9D07        
   \   00000750   9D079D079D07       DC16     +1949,+1949,+1949,+1949
   \              9D07        
   \   00000758   9D079D079D07       DC16     +1949,+1949,+1949,+1949
   \              9D07        
   \   00000760   9D079D079D07       DC16     +1949,+1949,+1949,+1949
   \              9D07        
   \   00000768   9D079D079D07       DC16     +1949,+1949,+1949,+1949
   \              9D07        
   \   00000770   9D079D079D07       DC16     +1949,+1949,+1949,+1949
   \              9D07        
   \   00000778   9D079D079D07       DC16     +1949,+1949,+1949,+1949
   \              9D07        
   \   00000780   9D079D079D07       DC16     +1949,+1949,+1949,+1949
   \              9D07        
   \   00000788   9D079D079D07       DC16     +1949,+1949,+1949,+1949
   \              9D07        
   \   00000790   9D079D079D07       DC16     +1949,+1949,+1949,+1949
   \              9D07        
   \   00000798   9D079D079D07       DC16     +1949,+1949,+1949,+1949
   \              9D07        
   \   000007A0   9D079D079D07       DC16     +1949,+1949,+1949,+1949
   \              9D07        
   \   000007A8   9D079D079D07       DC16     +1949,+1949,+1949,+1949
   \              9D07        
   \   000007B0   9D079D079D07       DC16     +1949,+1949,+1949,+1949
   \              9D07        
   \   000007B8   9D079D079D07       DC16     +1949,+1949,+1949,+1949
   \              9D07        
   \   000007C0   9D079D079D07       DC16     +1949,+1949,+1949,+1949
   \              9D07        
   \   000007C8   9D079D079D07       DC16     +1949,+1949,+1949,+1949
   \              9D07        
   \   000007D0   9D079D079D07       DC16     +1949,+1949,+1949,+1949
   \              9D07        
   \   000007D8   9D079D079D07       DC16     +1949,+1949,+1949,+1949
   \              9D07        
   \   000007E0   9D079D079D07       DC16     +1949,+1949,+1949,+1949
   \              9D07        
   \   000007E8   9D079D079D07       DC16     +1949,+1949,+1949,+1949
   \              9D07        
   \   000007F0   9D079D079D07       DC16     +1949,+1949,+1949,+1949
   \              9D07        
   \   000007F8   9D079D079D07       DC16     +1949,+1949,+1949,+1949
   \              9D07        
   \   00000800   9D079D079D07       DC16     +1949,+1949,+1949,+1949
   \              9D07        
   \   00000808   9D079D079D07       DC16     +1949,+1949,+1949,+1949
   \              9D07        
   \   00000810   9D079D079D07       DC16     +1949,+1949,+1949,+1949
   \              9D07        
   \   00000818   9D079D079D07       DC16     +1949,+1949,+1949,+1949
   \              9D07        
   \   00000820   9D079D079D07       DC16     +1949,+1949,+1949,+1949
   \              9D07        
   \   00000828   9D079D079D07       DC16     +1949,+1949,+1949,+1949
   \              9D07        
   \   00000830   9D079D079D07       DC16     +1949,+1949,+1949,+1949
   \              9D07        
   \   00000838   9D079D079D07       DC16     +1949,+1949,+1949,+1949
   \              9D07        
   \   00000840   9D0713029D07       DC16     +1949,+531,+1949,+1949
   \              9D07        
   \   00000848   9D079D079D07       DC16     +1949,+1949,+1949,+1949
   \              9D07        
   \   00000850   9D074402           DC16     +1949,+580
    187          	case WM_INIT_DIALOG:
    188          		AppSetupCargo->FirstTime = true;
   \                     ??cbTankSetup_6:
   \   00000854   2840C0E5           STRB     R4,[R0, #+40]
   \   00000858   0B0000EA           B        ??cbTankSetup_7
    189          		break;
    190          	case WM_PAINT:
    191          		GUI_DrawRect(   2,  55, 275, 98 );
   \                     ??cbTankSetup_8:
   \   0000085C   6230A0E3           MOV      R3,#+98
   \   00000860   B12083E2           ADD      R2,R3,#+177
   \   00000864   3710A0E3           MOV      R1,#+55
   \   00000868   0200A0E3           MOV      R0,#+2
   \   0000086C   ........           _BLF     GUI_DrawRect,??GUI_DrawRect??rA
    192          		GUI_DrawRect(   2,  154, 175, 177 );
   \   00000870   B130A0E3           MOV      R3,#+177
   \   00000874   AF20A0E3           MOV      R2,#+175
   \   00000878   9A10A0E3           MOV      R1,#+154
   \   0000087C   0200A0E3           MOV      R0,#+2
   \   00000880   ........           _BLF     GUI_DrawRect,??GUI_DrawRect??rA
    193          		AppSetupCargo->UpdateLanguage();
   \   00000884   000098E5           LDR      R0,[R8, #+0]
   \   00000888   ........           _BLF     ??UpdateLanguage,??UpdateLanguage??rA
   \                     ??cbTankSetup_7:
   \   0000088C   F0D08DE2           ADD      SP,SP,#+240
   \   00000890   F041BDE8           POP      {R4-R8,LR}
   \   00000894   1EFF2FE1           BX       LR
    194          		break;
    195          	case MESSAGE_PINCODE_RETURN:
    196          		{
    197          			int ValueId = pMsg->hWinSrc;
    198          			char StringBuf[BUF_SIZE]={""};
   \                     ??cbTankSetup_9:
   \   00000898   84008DE2           ADD      R0,SP,#+132
   \   0000089C   0010A0E3           MOV      R1,#+0
   \   000008A0   5020A0E3           MOV      R2,#+80
   \                     ??cbTankSetup_10:
   \   000008A4   042052E2           SUBS     R2,R2,#+4
   \   000008A8   021080E7           STR      R1,[R0, R2]
   \   000008AC   FCFFFF1A           BNE      ??cbTankSetup_10
    199          			strcpy( StringBuf,(char *)pMsg->Data.p);
   \   000008B0   081096E5           LDR      R1,[R6, #+8]
   \   000008B4   ........           _BLF     strcpy,??strcpy??rA
    200          			if ( PinUnlock || CheckPinCode(StringBuf) ) {
   \   000008B8   18039FE5           LDR      R0,??cbTankSetup_4+0x4  ;; PinUnlock
   \   000008BC   0000D0E5           LDRB     R0,[R0, #+0]
   \   000008C0   000050E3           CMP      R0,#+0
   \   000008C4   0B00001A           BNE      ??cbTankSetup_11
   \   000008C8   84108DE2           ADD      R1,SP,#+132
   \   000008CC   30008DE2           ADD      R0,SP,#+48
   \   000008D0   ........           _BLF     ??AnsiString_1,??AnsiString??rA_1
   \   000008D4   30008DE2           ADD      R0,SP,#+48
   \   000008D8   ........           _BLF     ??CheckPinCode,??CheckPinCode??rA
   \   000008DC   0040A0E1           MOV      R4,R0
   \   000008E0   0020A0E3           MOV      R2,#+0
   \   000008E4   0110A0E3           MOV      R1,#+1
   \   000008E8   30008DE2           ADD      R0,SP,#+48
   \   000008EC   ........           _BLF     ??_Tidy,??_Tidy??rA
   \   000008F0   000054E3           CMP      R4,#+0
   \   000008F4   E4FFFF0A           BEQ      ??cbTankSetup_7
    201          				switch ( ValueId ) {
   \                     ??cbTankSetup_11:
   \   000008F8   DC429FE5           LDR      R4,??cbTankSetup_4+0x8  ;; ConfirmMessageBox
   \   000008FC   5C0F57E2           SUBS     R0,R7,#+368
   \   00000900   0200000A           BEQ      ??cbTankSetup_12
   \   00000904   010050E2           SUBS     R0,R0,#+1
   \   00000908   0B00000A           BEQ      ??cbTankSetup_13
   \   0000090C   DEFFFFEA           B        ??cbTankSetup_7
    202          				case GUI_ID_BUTTON0:	/* Pressure Button */
    203          					{
    204          						ConfirmMessageBox->Exec(WM_GetClientWindow(hWin), L_WORD602, L_WORD603, ValueId);
   \                     ??cbTankSetup_12:
   \   00000910   0500A0E1           MOV      R0,R5
   \   00000914   ........           _BLF     WM_GetClientWindow,??WM_GetClientWindow??rA
   \   00000918   80002DE9           PUSH     {R7}
   \   0000091C   5B30A0E3           MOV      R3,#+91
   \   00000920   803F83E3           ORR      R3,R3,#0x200
   \   00000924   0120C3E3           BIC      R2,R3,#0x1
   \   00000928   0010A0E1           MOV      R1,R0
   \                     ??cbTankSetup_14:
   \   0000092C   000094E5           LDR      R0,[R4, #+0]
   \   00000930   ........           _BLF     ??Exec,??Exec??rA
   \   00000934   04D08DE2           ADD      SP,SP,#+4
   \   00000938   D3FFFFEA           B        ??cbTankSetup_7
    205          						// Zero adjust tank pressure!  The tanks must be vented to the atmosphere. This operation affects all cargo tanks.
    206          					}
    207          					break;
    208          				case GUI_ID_BUTTON1:	/* Level Button */
    209          					{
    210          						ConfirmMessageBox->Exec(WM_GetClientWindow(hWin), L_WORD604, L_WORD605, ValueId);
   \                     ??cbTankSetup_13:
   \   0000093C   0500A0E1           MOV      R0,R5
   \   00000940   ........           _BLF     WM_GetClientWindow,??WM_GetClientWindow??rA
   \   00000944   80002DE9           PUSH     {R7}
   \   00000948   0010A0E1           MOV      R1,R0
   \   0000094C   5D30A0E3           MOV      R3,#+93
   \   00000950   803F83E3           ORR      R3,R3,#0x200
   \   00000954   972FA0E3           MOV      R2,#+604
   \   00000958   F3FFFFEA           B        ??cbTankSetup_14
    211          						// Zero adjust level sensor(s)! The tanks must be empty and no tank cleaning the last 30 minutes. This operation affects all cargo tanks.
    212          					}
    213          					break;
    214          				}
    215          			}
    216          		}
    217          		break;
    218          	case MESSAGE_YES_RETURN:
    219          		{
    220          			AnsiString TmpString;
   \                     ??cbTankSetup_15:
   \   0000095C   68008DE2           ADD      R0,SP,#+104
   \   00000960   ........           _BLF     ??AnsiString,??AnsiString??rA
    221          			int ValueId = pMsg->hWinSrc;
   \   00000964   F670D6E1           LDRSH    R7,[R6, #+6]
    222          			char StringBuf[BUF_SIZE]={""};
   \   00000968   84008DE2           ADD      R0,SP,#+132
   \   0000096C   0010A0E3           MOV      R1,#+0
   \   00000970   5020A0E3           MOV      R2,#+80
   \                     ??cbTankSetup_16:
   \   00000974   042052E2           SUBS     R2,R2,#+4
   \   00000978   021080E7           STR      R1,[R0, R2]
   \   0000097C   FCFFFF1A           BNE      ??cbTankSetup_16
    223          			strcpy( StringBuf,(char *)pMsg->Data.p);
   \   00000980   081096E5           LDR      R1,[R6, #+8]
    224          			switch ( ValueId ) {
   \   00000984   0050A0E3           MOV      R5,#+0
   \   00000988   ........           _BLF     strcpy,??strcpy??rA
   \   0000098C   4C129FE5           LDR      R1,??cbTankSetup_4+0xC  ;; ??ObjectSet
   \   00000990   5C7F57E2           SUBS     R7,R7,#+368
   \   00000994   0200000A           BEQ      ??cbTankSetup_17
   \   00000998   017057E2           SUBS     R7,R7,#+1
   \   0000099C   1C00000A           BEQ      ??cbTankSetup_18
   \   000009A0   370000EA           B        ??cbTankSetup_19
    225          			case GUI_ID_BUTTON0:	/* Pressure Button */
    226          				TmpString = PROTank::ZeroSetAllTankPressureSensor(PROCargoTank::ObjectSet,true);
   \                     ??cbTankSetup_17:
   \   000009A4   0D00A0E1           MOV      R0,SP
   \   000009A8   ........           _BLF     ??_Tree,??_Tree??rA
   \   000009AC   0120A0E3           MOV      R2,#+1
   \   000009B0   0D10A0E1           MOV      R1,SP
   \   000009B4   D4008DE2           ADD      R0,SP,#+212
   \   000009B8   ........           _BLF     ??ZeroSetAllTankPressureSensor,??ZeroSetAllTankPressureSensor??rA
   \   000009BC   20029FE5           LDR      R0,??cbTankSetup_4+0x10  ;; ??npos
   \   000009C0   0520A0E1           MOV      R2,R5
   \   000009C4   003090E5           LDR      R3,[R0, #+0]
   \   000009C8   D4108DE2           ADD      R1,SP,#+212
   \   000009CC   68008DE2           ADD      R0,SP,#+104
   \   000009D0   ........           _BLF     ??assign,??assign??rA
   \   000009D4   0520A0E1           MOV      R2,R5
   \   000009D8   0410A0E1           MOV      R1,R4
   \   000009DC   D4008DE2           ADD      R0,SP,#+212
   \   000009E0   ........           _BLF     ??_Tidy,??_Tidy??rA
   \   000009E4   04109DE5           LDR      R1,[SP, #+4]
   \   000009E8   0D00A0E1           MOV      R0,SP
   \   000009EC   ........           _BLF     ??_Erase,??_Erase??rA
   \   000009F0   0D10A0E1           MOV      R1,SP
   \   000009F4   04108DE5           STR      R1,[SP, #+4]
   \   000009F8   00108DE5           STR      R1,[SP, #+0]
   \   000009FC   08108DE5           STR      R1,[SP, #+8]
   \   00000A00   0D40CDE5           STRB     R4,[SP, #+13]
   \   00000A04   0C40CDE5           STRB     R4,[SP, #+12]
   \   00000A08   10508DE5           STR      R5,[SP, #+16]
    227          				ANPRO10_SendZerosetAll(CMD_ZSET_ALL_CARGO_TANK_PRESS);
   \   00000A0C   C80E84E3           ORR      R0,R4,#0xC80
   \   00000A10   1A0000EA           B        ??cbTankSetup_20
    228          				break;
    229          			case GUI_ID_BUTTON1:	/* Level Button */
    230          				TmpString = PROTank::ZeroSetAllLevelSensors(PROCargoTank::ObjectSet,true);
   \                     ??cbTankSetup_18:
   \   00000A14   18008DE2           ADD      R0,SP,#+24
   \   00000A18   ........           _BLF     ??_Tree,??_Tree??rA
   \   00000A1C   0120A0E3           MOV      R2,#+1
   \   00000A20   18108DE2           ADD      R1,SP,#+24
   \   00000A24   4C008DE2           ADD      R0,SP,#+76
   \   00000A28   ........           _BLF     ??ZeroSetAllLevelSensors,??ZeroSetAllLevelSensors??rA
   \   00000A2C   B0019FE5           LDR      R0,??cbTankSetup_4+0x10  ;; ??npos
   \   00000A30   0520A0E1           MOV      R2,R5
   \   00000A34   003090E5           LDR      R3,[R0, #+0]
   \   00000A38   4C108DE2           ADD      R1,SP,#+76
   \   00000A3C   68008DE2           ADD      R0,SP,#+104
   \   00000A40   ........           _BLF     ??assign,??assign??rA
   \   00000A44   0520A0E1           MOV      R2,R5
   \   00000A48   0410A0E1           MOV      R1,R4
   \   00000A4C   4C008DE2           ADD      R0,SP,#+76
   \   00000A50   ........           _BLF     ??_Tidy,??_Tidy??rA
   \   00000A54   1C109DE5           LDR      R1,[SP, #+28]
   \   00000A58   18008DE2           ADD      R0,SP,#+24
   \   00000A5C   ........           _BLF     ??_Erase,??_Erase??rA
   \   00000A60   18108DE2           ADD      R1,SP,#+24
   \   00000A64   1C108DE5           STR      R1,[SP, #+28]
   \   00000A68   18108DE5           STR      R1,[SP, #+24]
   \   00000A6C   20108DE5           STR      R1,[SP, #+32]
   \   00000A70   2540CDE5           STRB     R4,[SP, #+37]
   \   00000A74   2440CDE5           STRB     R4,[SP, #+36]
   \   00000A78   28508DE5           STR      R5,[SP, #+40]
    231          				ANPRO10_SendZerosetAll(CMD_ZSET_ALL_CARGO_LEVEL);
   \   00000A7C   C80EA0E3           MOV      R0,#+3200
   \                     ??cbTankSetup_20:
   \   00000A80   ........           _BLF     ??ANPRO10_SendZerosetAll,??ANPRO10_SendZerosetAll??rA
    232          				break;
    233          			}
    234          			if ( TmpString.Length() ) {
   \                     ??cbTankSetup_19:
   \   00000A84   68008DE2           ADD      R0,SP,#+104
   \   00000A88   ........           _BLF     ??Length,??Length??rA
   \   00000A8C   000050E3           CMP      R0,#+0
   \   00000A90   1800000A           BEQ      ??cbTankSetup_21
    235          				DisplayMessage(FindDictionaryWord(L_WORD606), TmpString); // Zeroset warnings:
   \   00000A94   0020A0E3           MOV      R2,#+0
   \   00000A98   0210A0E1           MOV      R1,R2
   \   00000A9C   4C008DE2           ADD      R0,SP,#+76
   \   00000AA0   ........           _BLF     ??_Tidy,??_Tidy??rA
   \   00000AA4   38019FE5           LDR      R0,??cbTankSetup_4+0x10  ;; ??npos
   \   00000AA8   0520A0E1           MOV      R2,R5
   \   00000AAC   003090E5           LDR      R3,[R0, #+0]
   \   00000AB0   68108DE2           ADD      R1,SP,#+104
   \   00000AB4   4C008DE2           ADD      R0,SP,#+76
   \   00000AB8   ........           _BLF     ??assign,??assign??rA
   \   00000ABC   5E10A0E3           MOV      R1,#+94
   \   00000AC0   801F81E3           ORR      R1,R1,#0x200
   \   00000AC4   30008DE2           ADD      R0,SP,#+48
   \   00000AC8   ........           _BLF     ??FindDictionaryWord,??FindDictionaryWord??rA
   \   00000ACC   4C108DE2           ADD      R1,SP,#+76
   \   00000AD0   30008DE2           ADD      R0,SP,#+48
   \   00000AD4   ........           _BLF     ??DisplayMessage,??DisplayMessage??rA
   \   00000AD8   0520A0E1           MOV      R2,R5
   \   00000ADC   0410A0E1           MOV      R1,R4
   \   00000AE0   4C008DE2           ADD      R0,SP,#+76
   \   00000AE4   ........           _BLF     ??_Tidy,??_Tidy??rA
   \   00000AE8   0520A0E1           MOV      R2,R5
   \   00000AEC   0410A0E1           MOV      R1,R4
   \   00000AF0   30008DE2           ADD      R0,SP,#+48
   \   00000AF4   ........           _BLF     ??_Tidy,??_Tidy??rA
    236          			}
    237          		}
   \                     ??cbTankSetup_21:
   \   00000AF8   0020A0E3           MOV      R2,#+0
   \   00000AFC   0410A0E1           MOV      R1,R4
   \   00000B00   68008DE2           ADD      R0,SP,#+104
   \   00000B04   ........           _BLF     ??_Tidy,??_Tidy??rA
   \   00000B08   5FFFFFEA           B        ??cbTankSetup_7
    238          		break;
    239          	case WM_NOTIFY_PARENT:
    240          		Id    = WM_GetId(pMsg->hWinSrc);	/* Id of widget */
   \                     ??cbTankSetup_22:
   \   00000B0C   0700A0E1           MOV      R0,R7
   \   00000B10   ........           _BLF     WM_GetId,??WM_GetId??rA
   \   00000B14   0070A0E1           MOV      R7,R0
    241          		NCode = pMsg->Data.v;				/* Notification code */
    242          		switch ( NCode ) {
   \   00000B18   080096E5           LDR      R0,[R6, #+8]
   \   00000B1C   020050E2           SUBS     R0,R0,#+2
   \   00000B20   0400000A           BEQ      ??cbTankSetup_23
   \   00000B24   020050E2           SUBS     R0,R0,#+2
   \   00000B28   3000000A           BEQ      ??cbTankSetup_24
   \   00000B2C   010050E2           SUBS     R0,R0,#+1
   \   00000B30   1800000A           BEQ      ??cbTankSetup_25
   \   00000B34   54FFFFEA           B        ??cbTankSetup_7
    243          		case WM_NOTIFICATION_RELEASED:	  /* React only if released */
    244          			switch ( Id ) {
   \                     ??cbTankSetup_23:
   \   00000B38   050057E3           CMP      R7,#+5
   \   00000B3C   0C00000A           BEQ      ??cbTankSetup_26
   \   00000B40   5C0F57E3           CMP      R7,#+368
   \   00000B44   5C1F8413           ORRNE    R1,R4,#0x170
   \   00000B48   01005711           CMPNE    R7,R1
   \   00000B4C   4EFFFF1A           BNE      ??cbTankSetup_7
    245          			case GUI_ID_BUTTON0:	/* Pressure Button */
    246          			case GUI_ID_BUTTON1:	/* Level Button */
    247          				KeyBoard->ExecKeyBoardPinCode(WM_GetClientWindow(hWin),L_WORD150,Id);// Enter Pin code:
   \   00000B50   0500A0E1           MOV      R0,R5
   \   00000B54   ........           _BLF     WM_GetClientWindow,??WM_GetClientWindow??rA
   \   00000B58   0010A0E1           MOV      R1,R0
   \   00000B5C   84009FE5           LDR      R0,??cbTankSetup_4+0x14  ;; KeyBoard
   \   00000B60   0730A0E1           MOV      R3,R7
   \   00000B64   000090E5           LDR      R0,[R0, #+0]
   \   00000B68   9620A0E3           MOV      R2,#+150
   \   00000B6C   ........           _BLF     ??ExecKeyBoardPinCode,??ExecKeyBoardPinCode??rA
   \   00000B70   45FFFFEA           B        ??cbTankSetup_7
    248          				break;
    249          			case GUI_ID_CLOSE: /* Close Button */
    250          				if ( !AppSetupCargoIsClosed ) {
   \                     ??cbTankSetup_26:
   \   00000B74   70009FE5           LDR      R0,??cbTankSetup_4+0x18  ;; AppSetupCargoIsClosed
   \   00000B78   0010D0E5           LDRB     R1,[R0, #+0]
   \   00000B7C   000051E3           CMP      R1,#+0
   \   00000B80   41FFFF1A           BNE      ??cbTankSetup_7
    251          					AppSetupCargoIsClosed = true;
   \   00000B84   0040C0E5           STRB     R4,[R0, #+0]
    252          					GUI_EndDialog(AppSetupCargo->WinHandl, 0);
   \   00000B88   000098E5           LDR      R0,[R8, #+0]
   \   00000B8C   FA02D0E1           LDRSH    R0,[R0, #+42]
   \   00000B90   ........           _BLF     GUI_EndDialog,??GUI_EndDialog??rA
   \   00000B94   3CFFFFEA           B        ??cbTankSetup_7
    253          				}
    254          				break;
    255          			}
    256          			break;
    257          		case WM_NOTIFICATION_VALUE_CHANGED:
    258          			switch ( Id ) {
   \                     ??cbTankSetup_25:
   \   00000B98   810047E2           SUB      R0,R7,#+129
   \   00000B9C   400F40E2           SUB      R0,R0,#+256
   \   00000BA0   020050E3           CMP      R0,#+2
   \   00000BA4   38FFFF8A           BHI      ??cbTankSetup_7
   \   00000BA8   021F8FE2           ADR      R1,??cbTankSetup_2
   \   00000BAC   8000A0E1           MOV      R0,R0, LSL #+1
   \   00000BB0   F01091E1           LDRSH    R1,[R1, R0]
   \   00000BB4   01F18FE0           ADD      PC,PC,R1, LSL #+2
   \                     ??cbTankSetup_2:
   \   00000BB8   010001000100       DC16     +1,+1,+1,+0
   \              0000        
    259          			case GUI_ID_DROPDOWN1:
    260          			case GUI_ID_DROPDOWN2:
    261          			case GUI_ID_DROPDOWN3:
    262          				AppSetupCargo->UpdateDialog(hWin,Id);
   \                     ??cbTankSetup_27:
   \   00000BC0   000098E5           LDR      R0,[R8, #+0]
   \   00000BC4   0720A0E1           MOV      R2,R7
   \   00000BC8   0510A0E1           MOV      R1,R5
   \   00000BCC   ........           BL       ??UpdateDialog
   \   00000BD0   2DFFFFEA           B        ??cbTankSetup_7
   \                     ??cbTankSetup_4:
   \   00000BD4   ........           DC32     AppSetupCargo
   \   00000BD8   ........           DC32     PinUnlock
   \   00000BDC   ........           DC32     ConfirmMessageBox
   \   00000BE0   ........           DC32     ??ObjectSet
   \   00000BE4   ........           DC32     ??npos
   \   00000BE8   ........           DC32     KeyBoard
   \   00000BEC   ........           DC32     AppSetupCargoIsClosed
    263          				break;
    264          			case GUI_ID_DROPDOWN4: /* OpMode  */
    265          				break;
    266          			}
    267          			break;
    268          		case WM_NOTIFICATION_SEL_CHANGED:
    269          			switch ( Id ) {
   \                     ??cbTankSetup_24:
   \   00000BF0   810047E2           SUB      R0,R7,#+129
   \   00000BF4   400F40E2           SUB      R0,R0,#+256
   \   00000BF8   3F10A0E3           MOV      R1,#+63
   \   00000BFC   901E81E3           ORR      R1,R1,#0x900
   \   00000C00   010050E1           CMP      R0,R1
   \   00000C04   20FFFF8A           BHI      ??cbTankSetup_7
   \   00000C08   021F8FE2           ADR      R1,??cbTankSetup_3
   \   00000C0C   8000A0E1           MOV      R0,R0, LSL #+1
   \   00000C10   F01091E1           LDRSH    R1,[R1, R0]
   \   00000C14   01F18FE0           ADD      PC,PC,R1, LSL #+2
   \                     ??cbTankSetup_3:
   \   00000C18   E9FFE9FFE9FF       DC16     +65513,+65513,+65513,+65308
   \              1CFF        
   \   00000C20   1CFF1CFF1CFF       DC16     +65308,+65308,+65308,+65308
   \              1CFF        
   \   00000C28   1CFF1CFF1CFF       DC16     +65308,+65308,+65308,+65308
   \              1CFF        
   \   00000C30   1CFF1CFF1CFF       DC16     +65308,+65308,+65308,+65308
   \              1CFF        
   \   00000C38   1CFF1CFF1CFF       DC16     +65308,+65308,+65308,+65308
   \              1CFF        
   \   00000C40   1CFF1CFF1CFF       DC16     +65308,+65308,+65308,+65308
   \              1CFF        
   \   00000C48   1CFF1CFF1CFF       DC16     +65308,+65308,+65308,+65308
   \              1CFF        
   \   00000C50   1CFF1CFF1CFF       DC16     +65308,+65308,+65308,+65308
   \              1CFF        
   \   00000C58   1CFF1CFF1CFF       DC16     +65308,+65308,+65308,+65308
   \              1CFF        
   \   00000C60   1CFF1CFF1CFF       DC16     +65308,+65308,+65308,+65308
   \              1CFF        
   \   00000C68   1CFF1CFF1CFF       DC16     +65308,+65308,+65308,+65308
   \              1CFF        
   \   00000C70   1CFF1CFF1CFF       DC16     +65308,+65308,+65308,+65308
   \              1CFF        
   \   00000C78   1CFF1CFF1CFF       DC16     +65308,+65308,+65308,+65308
   \              1CFF        
   \   00000C80   1CFF1CFF1CFF       DC16     +65308,+65308,+65308,+65308
   \              1CFF        
   \   00000C88   1CFF1CFF1CFF       DC16     +65308,+65308,+65308,+65308
   \              1CFF        
   \   00000C90   1CFF1CFF1CFF       DC16     +65308,+65308,+65308,+65308
   \              1CFF        
   \   00000C98   1CFF1CFF1CFF       DC16     +65308,+65308,+65308,+65308
   \              1CFF        
   \   00000CA0   1CFF1CFF1CFF       DC16     +65308,+65308,+65308,+65308
   \              1CFF        
   \   00000CA8   1CFF1CFF1CFF       DC16     +65308,+65308,+65308,+65308
   \              1CFF        
   \   00000CB0   1CFF1CFF1CFF       DC16     +65308,+65308,+65308,+65308
   \              1CFF        
   \   00000CB8   1CFF1CFF1CFF       DC16     +65308,+65308,+65308,+65308
   \              1CFF        
   \   00000CC0   1CFF1CFF1CFF       DC16     +65308,+65308,+65308,+65308
   \              1CFF        
   \   00000CC8   1CFF1CFF1CFF       DC16     +65308,+65308,+65308,+65308
   \              1CFF        
   \   00000CD0   1CFF1CFF1CFF       DC16     +65308,+65308,+65308,+65308
   \              1CFF        
   \   00000CD8   1CFF1CFF1CFF       DC16     +65308,+65308,+65308,+65308
   \              1CFF        
   \   00000CE0   1CFF1CFF1CFF       DC16     +65308,+65308,+65308,+65308
   \              1CFF        
   \   00000CE8   1CFF1CFF1CFF       DC16     +65308,+65308,+65308,+65308
   \              1CFF        
   \   00000CF0   1CFF1CFF1CFF       DC16     +65308,+65308,+65308,+65308
   \              1CFF        
   \   00000CF8   1CFF1CFF1CFF       DC16     +65308,+65308,+65308,+65308
   \              1CFF        
   \   00000D00   1CFF1CFF1CFF       DC16     +65308,+65308,+65308,+65308
   \              1CFF        
   \   00000D08   1CFF1CFF1CFF       DC16     +65308,+65308,+65308,+65308
   \              1CFF        
   \   00000D10   1CFF1CFF1CFF       DC16     +65308,+65308,+65308,+65308
   \              1CFF        
   \   00000D18   1CFF1CFF1CFF       DC16     +65308,+65308,+65308,+65308
   \              1CFF        
   \   00000D20   1CFF1CFF1CFF       DC16     +65308,+65308,+65308,+65308
   \              1CFF        
   \   00000D28   1CFF1CFF1CFF       DC16     +65308,+65308,+65308,+65308
   \              1CFF        
   \   00000D30   1CFF1CFF1CFF       DC16     +65308,+65308,+65308,+65308
   \              1CFF        
   \   00000D38   1CFF1CFF1CFF       DC16     +65308,+65308,+65308,+65308
   \              1CFF        
   \   00000D40   1CFF1CFF1CFF       DC16     +65308,+65308,+65308,+65308
   \              1CFF        
   \   00000D48   1CFF1CFF1CFF       DC16     +65308,+65308,+65308,+65308
   \              1CFF        
   \   00000D50   1CFF1CFF1CFF       DC16     +65308,+65308,+65308,+65308
   \              1CFF        
   \   00000D58   1CFF1CFF1CFF       DC16     +65308,+65308,+65308,+65308
   \              1CFF        
   \   00000D60   1CFF1CFF1CFF       DC16     +65308,+65308,+65308,+65308
   \              1CFF        
   \   00000D68   1CFF1CFF1CFF       DC16     +65308,+65308,+65308,+65308
   \              1CFF        
   \   00000D70   1CFF1CFF1CFF       DC16     +65308,+65308,+65308,+65308
   \              1CFF        
   \   00000D78   1CFF1CFF1CFF       DC16     +65308,+65308,+65308,+65308
   \              1CFF        
   \   00000D80   1CFF1CFF1CFF       DC16     +65308,+65308,+65308,+65308
   \              1CFF        
   \   00000D88   1CFF1CFF1CFF       DC16     +65308,+65308,+65308,+65308
   \              1CFF        
   \   00000D90   1CFF1CFF1CFF       DC16     +65308,+65308,+65308,+65308
   \              1CFF        
   \   00000D98   1CFF1CFF1CFF       DC16     +65308,+65308,+65308,+65308
   \              1CFF        
   \   00000DA0   1CFF1CFF1CFF       DC16     +65308,+65308,+65308,+65308
   \              1CFF        
   \   00000DA8   1CFF1CFF1CFF       DC16     +65308,+65308,+65308,+65308
   \              1CFF        
   \   00000DB0   1CFF1CFF1CFF       DC16     +65308,+65308,+65308,+65308
   \              1CFF        
   \   00000DB8   1CFF1CFF1CFF       DC16     +65308,+65308,+65308,+65308
   \              1CFF        
   \   00000DC0   1CFF1CFF1CFF       DC16     +65308,+65308,+65308,+65308
   \              1CFF        
   \   00000DC8   1CFF1CFF1CFF       DC16     +65308,+65308,+65308,+65308
   \              1CFF        
   \   00000DD0   1CFF1CFF1CFF       DC16     +65308,+65308,+65308,+65308
   \              1CFF        
   \   00000DD8   1CFF1CFF1CFF       DC16     +65308,+65308,+65308,+65308
   \              1CFF        
   \   00000DE0   1CFF1CFF1CFF       DC16     +65308,+65308,+65308,+65308
   \              1CFF        
   \   00000DE8   1CFF1CFF1CFF       DC16     +65308,+65308,+65308,+65308
   \              1CFF        
   \   00000DF0   1CFF1CFF1CFF       DC16     +65308,+65308,+65308,+65308
   \              1CFF        
   \   00000DF8   1CFF1CFF1CFF       DC16     +65308,+65308,+65308,+65308
   \              1CFF        
   \   00000E00   1CFF1CFF1CFF       DC16     +65308,+65308,+65308,+65308
   \              1CFF        
   \   00000E08   1CFF1CFF1CFF       DC16     +65308,+65308,+65308,+65308
   \              1CFF        
   \   00000E10   1CFF1CFF1CFF       DC16     +65308,+65308,+65308,+65308
   \              1CFF        
   \   00000E18   1CFF1CFF1CFF       DC16     +65308,+65308,+65308,+65308
   \              1CFF        
   \   00000E20   1CFF1CFF1CFF       DC16     +65308,+65308,+65308,+65308
   \              1CFF        
   \   00000E28   1CFF1CFF1CFF       DC16     +65308,+65308,+65308,+65308
   \              1CFF        
   \   00000E30   1CFF1CFF1CFF       DC16     +65308,+65308,+65308,+65308
   \              1CFF        
   \   00000E38   1CFF1CFF1CFF       DC16     +65308,+65308,+65308,+65308
   \              1CFF        
   \   00000E40   1CFF1CFF1CFF       DC16     +65308,+65308,+65308,+65308
   \              1CFF        
   \   00000E48   1CFF1CFF1CFF       DC16     +65308,+65308,+65308,+65308
   \              1CFF        
   \   00000E50   1CFF1CFF1CFF       DC16     +65308,+65308,+65308,+65308
   \              1CFF        
   \   00000E58   1CFF1CFF1CFF       DC16     +65308,+65308,+65308,+65308
   \              1CFF        
   \   00000E60   1CFF1CFF1CFF       DC16     +65308,+65308,+65308,+65308
   \              1CFF        
   \   00000E68   1CFF1CFF1CFF       DC16     +65308,+65308,+65308,+65308
   \              1CFF        
   \   00000E70   1CFF1CFF1CFF       DC16     +65308,+65308,+65308,+65308
   \              1CFF        
   \   00000E78   1CFF1CFF1CFF       DC16     +65308,+65308,+65308,+65308
   \              1CFF        
   \   00000E80   1CFF1CFF1CFF       DC16     +65308,+65308,+65308,+65308
   \              1CFF        
   \   00000E88   1CFF1CFF1CFF       DC16     +65308,+65308,+65308,+65308
   \              1CFF        
   \   00000E90   1CFF1CFF1CFF       DC16     +65308,+65308,+65308,+65308
   \              1CFF        
   \   00000E98   1CFF1CFF1CFF       DC16     +65308,+65308,+65308,+65308
   \              1CFF        
   \   00000EA0   1CFF1CFF1CFF       DC16     +65308,+65308,+65308,+65308
   \              1CFF        
   \   00000EA8   1CFF1CFF1CFF       DC16     +65308,+65308,+65308,+65308
   \              1CFF        
   \   00000EB0   1CFF1CFF1CFF       DC16     +65308,+65308,+65308,+65308
   \              1CFF        
   \   00000EB8   1CFF1CFF1CFF       DC16     +65308,+65308,+65308,+65308
   \              1CFF        
   \   00000EC0   1CFF1CFF1CFF       DC16     +65308,+65308,+65308,+65308
   \              1CFF        
   \   00000EC8   1CFF1CFF1CFF       DC16     +65308,+65308,+65308,+65308
   \              1CFF        
   \   00000ED0   1CFF1CFF1CFF       DC16     +65308,+65308,+65308,+65308
   \              1CFF        
   \   00000ED8   1CFF1CFF1CFF       DC16     +65308,+65308,+65308,+65308
   \              1CFF        
   \   00000EE0   1CFF1CFF1CFF       DC16     +65308,+65308,+65308,+65308
   \              1CFF        
   \   00000EE8   1CFF1CFF1CFF       DC16     +65308,+65308,+65308,+65308
   \              1CFF        
   \   00000EF0   1CFF1CFF1CFF       DC16     +65308,+65308,+65308,+65308
   \              1CFF        
   \   00000EF8   1CFF1CFF1CFF       DC16     +65308,+65308,+65308,+65308
   \              1CFF        
   \   00000F00   1CFF1CFF1CFF       DC16     +65308,+65308,+65308,+65308
   \              1CFF        
   \   00000F08   1CFF1CFF1CFF       DC16     +65308,+65308,+65308,+65308
   \              1CFF        
   \   00000F10   1CFF1CFF1CFF       DC16     +65308,+65308,+65308,+65308
   \              1CFF        
   \   00000F18   1CFF1CFF1CFF       DC16     +65308,+65308,+65308,+65308
   \              1CFF        
   \   00000F20   1CFF1CFF1CFF       DC16     +65308,+65308,+65308,+65308
   \              1CFF        
   \   00000F28   1CFF1CFF1CFF       DC16     +65308,+65308,+65308,+65308
   \              1CFF        
   \   00000F30   1CFF1CFF1CFF       DC16     +65308,+65308,+65308,+65308
   \              1CFF        
   \   00000F38   1CFF1CFF1CFF       DC16     +65308,+65308,+65308,+65308
   \              1CFF        
   \   00000F40   1CFF1CFF1CFF       DC16     +65308,+65308,+65308,+65308
   \              1CFF        
   \   00000F48   1CFF1CFF1CFF       DC16     +65308,+65308,+65308,+65308
   \              1CFF        
   \   00000F50   1CFF1CFF1CFF       DC16     +65308,+65308,+65308,+65308
   \              1CFF        
   \   00000F58   1CFF1CFF1CFF       DC16     +65308,+65308,+65308,+65308
   \              1CFF        
   \   00000F60   1CFF1CFF1CFF       DC16     +65308,+65308,+65308,+65308
   \              1CFF        
   \   00000F68   1CFF1CFF1CFF       DC16     +65308,+65308,+65308,+65308
   \              1CFF        
   \   00000F70   1CFF1CFF1CFF       DC16     +65308,+65308,+65308,+65308
   \              1CFF        
   \   00000F78   1CFF1CFF1CFF       DC16     +65308,+65308,+65308,+65308
   \              1CFF        
   \   00000F80   1CFF1CFF1CFF       DC16     +65308,+65308,+65308,+65308
   \              1CFF        
   \   00000F88   1CFF1CFF1CFF       DC16     +65308,+65308,+65308,+65308
   \              1CFF        
   \   00000F90   1CFF1CFF1CFF       DC16     +65308,+65308,+65308,+65308
   \              1CFF        
   \   00000F98   1CFF1CFF1CFF       DC16     +65308,+65308,+65308,+65308
   \              1CFF        
   \   00000FA0   1CFF1CFF1CFF       DC16     +65308,+65308,+65308,+65308
   \              1CFF        
   \   00000FA8   1CFF1CFF1CFF       DC16     +65308,+65308,+65308,+65308
   \              1CFF        
   \   00000FB0   1CFF1CFF1CFF       DC16     +65308,+65308,+65308,+65308
   \              1CFF        
   \   00000FB8   1CFF1CFF1CFF       DC16     +65308,+65308,+65308,+65308
   \              1CFF        
   \   00000FC0   1CFF1CFF1CFF       DC16     +65308,+65308,+65308,+65308
   \              1CFF        
   \   00000FC8   1CFF1CFF1CFF       DC16     +65308,+65308,+65308,+65308
   \              1CFF        
   \   00000FD0   1CFF1CFF1CFF       DC16     +65308,+65308,+65308,+65308
   \              1CFF        
   \   00000FD8   1CFF1CFF1CFF       DC16     +65308,+65308,+65308,+65308
   \              1CFF        
   \   00000FE0   1CFF1CFF1CFF       DC16     +65308,+65308,+65308,+65308
   \              1CFF        
   \   00000FE8   1CFF1CFF1CFF       DC16     +65308,+65308,+65308,+65308
   \              1CFF        
   \   00000FF0   1CFF1CFF1CFF       DC16     +65308,+65308,+65308,+65308
   \              1CFF        
   \   00000FF8   1CFF1CFF1CFF       DC16     +65308,+65308,+65308,+65308
   \              1CFF        
   \   00001000   1CFF1CFF1CFF       DC16     +65308,+65308,+65308,+65308
   \              1CFF        
   \   00001008   1CFF1CFF1CFF       DC16     +65308,+65308,+65308,+65308
   \              1CFF        
   \   00001010   1CFF1CFF1CFF       DC16     +65308,+65308,+65308,+65308
   \              1CFF        
   \   00001018   1CFF1CFF1CFF       DC16     +65308,+65308,+65308,+65308
   \              1CFF        
   \   00001020   1CFF1CFF1CFF       DC16     +65308,+65308,+65308,+65308
   \              1CFF        
   \   00001028   1CFF1CFF1CFF       DC16     +65308,+65308,+65308,+65308
   \              1CFF        
   \   00001030   1CFF1CFF1CFF       DC16     +65308,+65308,+65308,+65308
   \              1CFF        
   \   00001038   1CFF1CFF1CFF       DC16     +65308,+65308,+65308,+65308
   \              1CFF        
   \   00001040   1CFF1CFF1CFF       DC16     +65308,+65308,+65308,+65308
   \              1CFF        
   \   00001048   1CFF1CFF1CFF       DC16     +65308,+65308,+65308,+65308
   \              1CFF        
   \   00001050   1CFF1CFF1CFF       DC16     +65308,+65308,+65308,+65308
   \              1CFF        
   \   00001058   1CFF1CFF1CFF       DC16     +65308,+65308,+65308,+65308
   \              1CFF        
   \   00001060   1CFF1CFF1CFF       DC16     +65308,+65308,+65308,+65308
   \              1CFF        
   \   00001068   1CFF1CFF1CFF       DC16     +65308,+65308,+65308,+65308
   \              1CFF        
   \   00001070   1CFF1CFF1CFF       DC16     +65308,+65308,+65308,+65308
   \              1CFF        
   \   00001078   1CFF1CFF1CFF       DC16     +65308,+65308,+65308,+65308
   \              1CFF        
   \   00001080   1CFF1CFF1CFF       DC16     +65308,+65308,+65308,+65308
   \              1CFF        
   \   00001088   1CFF1CFF1CFF       DC16     +65308,+65308,+65308,+65308
   \              1CFF        
   \   00001090   1CFF1CFF1CFF       DC16     +65308,+65308,+65308,+65308
   \              1CFF        
   \   00001098   1CFF1CFF1CFF       DC16     +65308,+65308,+65308,+65308
   \              1CFF        
   \   000010A0   1CFF1CFF1CFF       DC16     +65308,+65308,+65308,+65308
   \              1CFF        
   \   000010A8   1CFF1CFF1CFF       DC16     +65308,+65308,+65308,+65308
   \              1CFF        
   \   000010B0   1CFF1CFF1CFF       DC16     +65308,+65308,+65308,+65308
   \              1CFF        
   \   000010B8   1CFF1CFF1CFF       DC16     +65308,+65308,+65308,+65308
   \              1CFF        
   \   000010C0   1CFF1CFF1CFF       DC16     +65308,+65308,+65308,+65308
   \              1CFF        
   \   000010C8   1CFF1CFF1CFF       DC16     +65308,+65308,+65308,+65308
   \              1CFF        
   \   000010D0   1CFF1CFF1CFF       DC16     +65308,+65308,+65308,+65308
   \              1CFF        
   \   000010D8   1CFF1CFF1CFF       DC16     +65308,+65308,+65308,+65308
   \              1CFF        
   \   000010E0   1CFF1CFF1CFF       DC16     +65308,+65308,+65308,+65308
   \              1CFF        
   \   000010E8   1CFF1CFF1CFF       DC16     +65308,+65308,+65308,+65308
   \              1CFF        
   \   000010F0   1CFF1CFF1CFF       DC16     +65308,+65308,+65308,+65308
   \              1CFF        
   \   000010F8   1CFF1CFF1CFF       DC16     +65308,+65308,+65308,+65308
   \              1CFF        
   \   00001100   1CFF1CFF1CFF       DC16     +65308,+65308,+65308,+65308
   \              1CFF        
   \   00001108   1CFF1CFF1CFF       DC16     +65308,+65308,+65308,+65308
   \              1CFF        
   \   00001110   1CFF1CFF1CFF       DC16     +65308,+65308,+65308,+65308
   \              1CFF        
   \   00001118   1CFF1CFF1CFF       DC16     +65308,+65308,+65308,+65308
   \              1CFF        
   \   00001120   1CFF1CFF1CFF       DC16     +65308,+65308,+65308,+65308
   \              1CFF        
   \   00001128   1CFF1CFF1CFF       DC16     +65308,+65308,+65308,+65308
   \              1CFF        
   \   00001130   1CFF1CFF1CFF       DC16     +65308,+65308,+65308,+65308
   \              1CFF        
   \   00001138   1CFF1CFF1CFF       DC16     +65308,+65308,+65308,+65308
   \              1CFF        
   \   00001140   1CFF1CFF1CFF       DC16     +65308,+65308,+65308,+65308
   \              1CFF        
   \   00001148   1CFF1CFF1CFF       DC16     +65308,+65308,+65308,+65308
   \              1CFF        
   \   00001150   1CFF1CFF1CFF       DC16     +65308,+65308,+65308,+65308
   \              1CFF        
   \   00001158   1CFF1CFF1CFF       DC16     +65308,+65308,+65308,+65308
   \              1CFF        
   \   00001160   1CFF1CFF1CFF       DC16     +65308,+65308,+65308,+65308
   \              1CFF        
   \   00001168   1CFF1CFF1CFF       DC16     +65308,+65308,+65308,+65308
   \              1CFF        
   \   00001170   1CFF1CFF1CFF       DC16     +65308,+65308,+65308,+65308
   \              1CFF        
   \   00001178   1CFF1CFF1CFF       DC16     +65308,+65308,+65308,+65308
   \              1CFF        
   \   00001180   1CFF1CFF1CFF       DC16     +65308,+65308,+65308,+65308
   \              1CFF        
   \   00001188   1CFF1CFF1CFF       DC16     +65308,+65308,+65308,+65308
   \              1CFF        
   \   00001190   1CFF1CFF1CFF       DC16     +65308,+65308,+65308,+65308
   \              1CFF        
   \   00001198   1CFF1CFF1CFF       DC16     +65308,+65308,+65308,+65308
   \              1CFF        
   \   000011A0   1CFF1CFF1CFF       DC16     +65308,+65308,+65308,+65308
   \              1CFF        
   \   000011A8   1CFF1CFF1CFF       DC16     +65308,+65308,+65308,+65308
   \              1CFF        
   \   000011B0   1CFF1CFF1CFF       DC16     +65308,+65308,+65308,+65308
   \              1CFF        
   \   000011B8   1CFF1CFF1CFF       DC16     +65308,+65308,+65308,+65308
   \              1CFF        
   \   000011C0   1CFF1CFF1CFF       DC16     +65308,+65308,+65308,+65308
   \              1CFF        
   \   000011C8   1CFF1CFF1CFF       DC16     +65308,+65308,+65308,+65308
   \              1CFF        
   \   000011D0   1CFF1CFF1CFF       DC16     +65308,+65308,+65308,+65308
   \              1CFF        
   \   000011D8   1CFF1CFF1CFF       DC16     +65308,+65308,+65308,+65308
   \              1CFF        
   \   000011E0   1CFF1CFF1CFF       DC16     +65308,+65308,+65308,+65308
   \              1CFF        
   \   000011E8   1CFF1CFF1CFF       DC16     +65308,+65308,+65308,+65308
   \              1CFF        
   \   000011F0   1CFF1CFF1CFF       DC16     +65308,+65308,+65308,+65308
   \              1CFF        
   \   000011F8   1CFF1CFF1CFF       DC16     +65308,+65308,+65308,+65308
   \              1CFF        
   \   00001200   1CFF1CFF1CFF       DC16     +65308,+65308,+65308,+65308
   \              1CFF        
   \   00001208   1CFF1CFF1CFF       DC16     +65308,+65308,+65308,+65308
   \              1CFF        
   \   00001210   1CFF1CFF1CFF       DC16     +65308,+65308,+65308,+65308
   \              1CFF        
   \   00001218   1CFF1CFF1CFF       DC16     +65308,+65308,+65308,+65308
   \              1CFF        
   \   00001220   1CFF1CFF1CFF       DC16     +65308,+65308,+65308,+65308
   \              1CFF        
   \   00001228   1CFF1CFF1CFF       DC16     +65308,+65308,+65308,+65308
   \              1CFF        
   \   00001230   1CFF1CFF1CFF       DC16     +65308,+65308,+65308,+65308
   \              1CFF        
   \   00001238   1CFF1CFF1CFF       DC16     +65308,+65308,+65308,+65308
   \              1CFF        
   \   00001240   1CFF1CFF1CFF       DC16     +65308,+65308,+65308,+65308
   \              1CFF        
   \   00001248   1CFF1CFF1CFF       DC16     +65308,+65308,+65308,+65308
   \              1CFF        
   \   00001250   1CFF1CFF1CFF       DC16     +65308,+65308,+65308,+65308
   \              1CFF        
   \   00001258   1CFF1CFF1CFF       DC16     +65308,+65308,+65308,+65308
   \              1CFF        
   \   00001260   1CFF1CFF1CFF       DC16     +65308,+65308,+65308,+65308
   \              1CFF        
   \   00001268   1CFF1CFF1CFF       DC16     +65308,+65308,+65308,+65308
   \              1CFF        
   \   00001270   1CFF1CFF1CFF       DC16     +65308,+65308,+65308,+65308
   \              1CFF        
   \   00001278   1CFF1CFF1CFF       DC16     +65308,+65308,+65308,+65308
   \              1CFF        
   \   00001280   1CFF1CFF1CFF       DC16     +65308,+65308,+65308,+65308
   \              1CFF        
   \   00001288   1CFF1CFF1CFF       DC16     +65308,+65308,+65308,+65308
   \              1CFF        
   \   00001290   1CFF1CFF1CFF       DC16     +65308,+65308,+65308,+65308
   \              1CFF        
   \   00001298   1CFF1CFF1CFF       DC16     +65308,+65308,+65308,+65308
   \              1CFF        
   \   000012A0   1CFF1CFF1CFF       DC16     +65308,+65308,+65308,+65308
   \              1CFF        
   \   000012A8   1CFF1CFF1CFF       DC16     +65308,+65308,+65308,+65308
   \              1CFF        
   \   000012B0   1CFF1CFF1CFF       DC16     +65308,+65308,+65308,+65308
   \              1CFF        
   \   000012B8   1CFF1CFF1CFF       DC16     +65308,+65308,+65308,+65308
   \              1CFF        
   \   000012C0   1CFF1CFF1CFF       DC16     +65308,+65308,+65308,+65308
   \              1CFF        
   \   000012C8   1CFF1CFF1CFF       DC16     +65308,+65308,+65308,+65308
   \              1CFF        
   \   000012D0   1CFF1CFF1CFF       DC16     +65308,+65308,+65308,+65308
   \              1CFF        
   \   000012D8   1CFF1CFF1CFF       DC16     +65308,+65308,+65308,+65308
   \              1CFF        
   \   000012E0   1CFF1CFF1CFF       DC16     +65308,+65308,+65308,+65308
   \              1CFF        
   \   000012E8   1CFF1CFF1CFF       DC16     +65308,+65308,+65308,+65308
   \              1CFF        
   \   000012F0   1CFF1CFF1CFF       DC16     +65308,+65308,+65308,+65308
   \              1CFF        
   \   000012F8   1CFF1CFF1CFF       DC16     +65308,+65308,+65308,+65308
   \              1CFF        
   \   00001300   1CFF1CFF1CFF       DC16     +65308,+65308,+65308,+65308
   \              1CFF        
   \   00001308   1CFF1CFF1CFF       DC16     +65308,+65308,+65308,+65308
   \              1CFF        
   \   00001310   1CFF1CFF1CFF       DC16     +65308,+65308,+65308,+65308
   \              1CFF        
   \   00001318   1CFF1CFF1CFF       DC16     +65308,+65308,+65308,+65308
   \              1CFF        
   \   00001320   1CFF1CFF1CFF       DC16     +65308,+65308,+65308,+65308
   \              1CFF        
   \   00001328   1CFF1CFF1CFF       DC16     +65308,+65308,+65308,+65308
   \              1CFF        
   \   00001330   1CFF1CFF1CFF       DC16     +65308,+65308,+65308,+65308
   \              1CFF        
   \   00001338   1CFF1CFF1CFF       DC16     +65308,+65308,+65308,+65308
   \              1CFF        
   \   00001340   1CFF1CFF1CFF       DC16     +65308,+65308,+65308,+65308
   \              1CFF        
   \   00001348   1CFF1CFF1CFF       DC16     +65308,+65308,+65308,+65308
   \              1CFF        
   \   00001350   1CFF1CFF1CFF       DC16     +65308,+65308,+65308,+65308
   \              1CFF        
   \   00001358   1CFF1CFF1CFF       DC16     +65308,+65308,+65308,+65308
   \              1CFF        
   \   00001360   1CFF1CFF1CFF       DC16     +65308,+65308,+65308,+65308
   \              1CFF        
   \   00001368   1CFF1CFF1CFF       DC16     +65308,+65308,+65308,+65308
   \              1CFF        
   \   00001370   1CFF1CFF1CFF       DC16     +65308,+65308,+65308,+65308
   \              1CFF        
   \   00001378   1CFF1CFF1CFF       DC16     +65308,+65308,+65308,+65308
   \              1CFF        
   \   00001380   1CFF1CFF1CFF       DC16     +65308,+65308,+65308,+65308
   \              1CFF        
   \   00001388   1CFF1CFF1CFF       DC16     +65308,+65308,+65308,+65308
   \              1CFF        
   \   00001390   1CFF1CFF1CFF       DC16     +65308,+65308,+65308,+65308
   \              1CFF        
   \   00001398   1CFF1CFF1CFF       DC16     +65308,+65308,+65308,+65308
   \              1CFF        
   \   000013A0   1CFF1CFF1CFF       DC16     +65308,+65308,+65308,+65308
   \              1CFF        
   \   000013A8   1CFF1CFF1CFF       DC16     +65308,+65308,+65308,+65308
   \              1CFF        
   \   000013B0   1CFF1CFF1CFF       DC16     +65308,+65308,+65308,+65308
   \              1CFF        
   \   000013B8   1CFF1CFF1CFF       DC16     +65308,+65308,+65308,+65308
   \              1CFF        
   \   000013C0   1CFF1CFF1CFF       DC16     +65308,+65308,+65308,+65308
   \              1CFF        
   \   000013C8   1CFF1CFF1CFF       DC16     +65308,+65308,+65308,+65308
   \              1CFF        
   \   000013D0   1CFF1CFF1CFF       DC16     +65308,+65308,+65308,+65308
   \              1CFF        
   \   000013D8   1CFF1CFF1CFF       DC16     +65308,+65308,+65308,+65308
   \              1CFF        
   \   000013E0   1CFF1CFF1CFF       DC16     +65308,+65308,+65308,+65308
   \              1CFF        
   \   000013E8   1CFF1CFF1CFF       DC16     +65308,+65308,+65308,+65308
   \              1CFF        
   \   000013F0   1CFF1CFF1CFF       DC16     +65308,+65308,+65308,+65308
   \              1CFF        
   \   000013F8   1CFF1CFF1CFF       DC16     +65308,+65308,+65308,+65308
   \              1CFF        
   \   00001400   1CFF1CFF1CFF       DC16     +65308,+65308,+65308,+65308
   \              1CFF        
   \   00001408   1CFF1CFF1CFF       DC16     +65308,+65308,+65308,+65308
   \              1CFF        
   \   00001410   1CFF1CFF1CFF       DC16     +65308,+65308,+65308,+65308
   \              1CFF        
   \   00001418   1CFF1CFF1CFF       DC16     +65308,+65308,+65308,+65308
   \              1CFF        
   \   00001420   1CFF1CFF1CFF       DC16     +65308,+65308,+65308,+65308
   \              1CFF        
   \   00001428   1CFF1CFF1CFF       DC16     +65308,+65308,+65308,+65308
   \              1CFF        
   \   00001430   1CFF1CFF1CFF       DC16     +65308,+65308,+65308,+65308
   \              1CFF        
   \   00001438   1CFF1CFF1CFF       DC16     +65308,+65308,+65308,+65308
   \              1CFF        
   \   00001440   1CFF1CFF1CFF       DC16     +65308,+65308,+65308,+65308
   \              1CFF        
   \   00001448   1CFF1CFF1CFF       DC16     +65308,+65308,+65308,+65308
   \              1CFF        
   \   00001450   1CFF1CFF1CFF       DC16     +65308,+65308,+65308,+65308
   \              1CFF        
   \   00001458   1CFF1CFF1CFF       DC16     +65308,+65308,+65308,+65308
   \              1CFF        
   \   00001460   1CFF1CFF1CFF       DC16     +65308,+65308,+65308,+65308
   \              1CFF        
   \   00001468   1CFF1CFF1CFF       DC16     +65308,+65308,+65308,+65308
   \              1CFF        
   \   00001470   1CFF1CFF1CFF       DC16     +65308,+65308,+65308,+65308
   \              1CFF        
   \   00001478   1CFF1CFF1CFF       DC16     +65308,+65308,+65308,+65308
   \              1CFF        
   \   00001480   1CFF1CFF1CFF       DC16     +65308,+65308,+65308,+65308
   \              1CFF        
   \   00001488   1CFF1CFF1CFF       DC16     +65308,+65308,+65308,+65308
   \              1CFF        
   \   00001490   1CFF1CFF1CFF       DC16     +65308,+65308,+65308,+65308
   \              1CFF        
   \   00001498   1CFF1CFF1CFF       DC16     +65308,+65308,+65308,+65308
   \              1CFF        
   \   000014A0   1CFF1CFF1CFF       DC16     +65308,+65308,+65308,+65308
   \              1CFF        
   \   000014A8   1CFF1CFF1CFF       DC16     +65308,+65308,+65308,+65308
   \              1CFF        
   \   000014B0   1CFF1CFF1CFF       DC16     +65308,+65308,+65308,+65308
   \              1CFF        
   \   000014B8   1CFF1CFF1CFF       DC16     +65308,+65308,+65308,+65308
   \              1CFF        
   \   000014C0   1CFF1CFF1CFF       DC16     +65308,+65308,+65308,+65308
   \              1CFF        
   \   000014C8   1CFF1CFF1CFF       DC16     +65308,+65308,+65308,+65308
   \              1CFF        
   \   000014D0   1CFF1CFF1CFF       DC16     +65308,+65308,+65308,+65308
   \              1CFF        
   \   000014D8   1CFF1CFF1CFF       DC16     +65308,+65308,+65308,+65308
   \              1CFF        
   \   000014E0   1CFF1CFF1CFF       DC16     +65308,+65308,+65308,+65308
   \              1CFF        
   \   000014E8   1CFF1CFF1CFF       DC16     +65308,+65308,+65308,+65308
   \              1CFF        
   \   000014F0   1CFF1CFF1CFF       DC16     +65308,+65308,+65308,+65308
   \              1CFF        
   \   000014F8   1CFF1CFF1CFF       DC16     +65308,+65308,+65308,+65308
   \              1CFF        
   \   00001500   1CFF1CFF1CFF       DC16     +65308,+65308,+65308,+65308
   \              1CFF        
   \   00001508   1CFF1CFF1CFF       DC16     +65308,+65308,+65308,+65308
   \              1CFF        
   \   00001510   1CFF1CFF1CFF       DC16     +65308,+65308,+65308,+65308
   \              1CFF        
   \   00001518   1CFF1CFF1CFF       DC16     +65308,+65308,+65308,+65308
   \              1CFF        
   \   00001520   1CFF1CFF1CFF       DC16     +65308,+65308,+65308,+65308
   \              1CFF        
   \   00001528   1CFF1CFF1CFF       DC16     +65308,+65308,+65308,+65308
   \              1CFF        
   \   00001530   1CFF1CFF1CFF       DC16     +65308,+65308,+65308,+65308
   \              1CFF        
   \   00001538   1CFF1CFF1CFF       DC16     +65308,+65308,+65308,+65308
   \              1CFF        
   \   00001540   1CFF1CFF1CFF       DC16     +65308,+65308,+65308,+65308
   \              1CFF        
   \   00001548   1CFF1CFF1CFF       DC16     +65308,+65308,+65308,+65308
   \              1CFF        
   \   00001550   1CFF1CFF1CFF       DC16     +65308,+65308,+65308,+65308
   \              1CFF        
   \   00001558   1CFF1CFF1CFF       DC16     +65308,+65308,+65308,+65308
   \              1CFF        
   \   00001560   1CFF1CFF1CFF       DC16     +65308,+65308,+65308,+65308
   \              1CFF        
   \   00001568   1CFF1CFF1CFF       DC16     +65308,+65308,+65308,+65308
   \              1CFF        
   \   00001570   1CFF1CFF1CFF       DC16     +65308,+65308,+65308,+65308
   \              1CFF        
   \   00001578   1CFF1CFF1CFF       DC16     +65308,+65308,+65308,+65308
   \              1CFF        
   \   00001580   1CFF1CFF1CFF       DC16     +65308,+65308,+65308,+65308
   \              1CFF        
   \   00001588   1CFF1CFF1CFF       DC16     +65308,+65308,+65308,+65308
   \              1CFF        
   \   00001590   1CFF1CFF1CFF       DC16     +65308,+65308,+65308,+65308
   \              1CFF        
   \   00001598   1CFF1CFF1CFF       DC16     +65308,+65308,+65308,+65308
   \              1CFF        
   \   000015A0   1CFF1CFF1CFF       DC16     +65308,+65308,+65308,+65308
   \              1CFF        
   \   000015A8   1CFF1CFF1CFF       DC16     +65308,+65308,+65308,+65308
   \              1CFF        
   \   000015B0   1CFF1CFF1CFF       DC16     +65308,+65308,+65308,+65308
   \              1CFF        
   \   000015B8   1CFF1CFF1CFF       DC16     +65308,+65308,+65308,+65308
   \              1CFF        
   \   000015C0   1CFF1CFF1CFF       DC16     +65308,+65308,+65308,+65308
   \              1CFF        
   \   000015C8   1CFF1CFF1CFF       DC16     +65308,+65308,+65308,+65308
   \              1CFF        
   \   000015D0   1CFF1CFF1CFF       DC16     +65308,+65308,+65308,+65308
   \              1CFF        
   \   000015D8   1CFF1CFF1CFF       DC16     +65308,+65308,+65308,+65308
   \              1CFF        
   \   000015E0   1CFF1CFF1CFF       DC16     +65308,+65308,+65308,+65308
   \              1CFF        
   \   000015E8   1CFF1CFF1CFF       DC16     +65308,+65308,+65308,+65308
   \              1CFF        
   \   000015F0   1CFF1CFF1CFF       DC16     +65308,+65308,+65308,+65308
   \              1CFF        
   \   000015F8   1CFF1CFF1CFF       DC16     +65308,+65308,+65308,+65308
   \              1CFF        
   \   00001600   1CFF1CFF1CFF       DC16     +65308,+65308,+65308,+65308
   \              1CFF        
   \   00001608   1CFF1CFF1CFF       DC16     +65308,+65308,+65308,+65308
   \              1CFF        
   \   00001610   1CFF1CFF1CFF       DC16     +65308,+65308,+65308,+65308
   \              1CFF        
   \   00001618   1CFF1CFF1CFF       DC16     +65308,+65308,+65308,+65308
   \              1CFF        
   \   00001620   1CFF1CFF1CFF       DC16     +65308,+65308,+65308,+65308
   \              1CFF        
   \   00001628   1CFF1CFF1CFF       DC16     +65308,+65308,+65308,+65308
   \              1CFF        
   \   00001630   1CFF1CFF1CFF       DC16     +65308,+65308,+65308,+65308
   \              1CFF        
   \   00001638   1CFF1CFF1CFF       DC16     +65308,+65308,+65308,+65308
   \              1CFF        
   \   00001640   1CFF1CFF1CFF       DC16     +65308,+65308,+65308,+65308
   \              1CFF        
   \   00001648   1CFF1CFF1CFF       DC16     +65308,+65308,+65308,+65308
   \              1CFF        
   \   00001650   1CFF1CFF1CFF       DC16     +65308,+65308,+65308,+65308
   \              1CFF        
   \   00001658   1CFF1CFF1CFF       DC16     +65308,+65308,+65308,+65308
   \              1CFF        
   \   00001660   1CFF1CFF1CFF       DC16     +65308,+65308,+65308,+65308
   \              1CFF        
   \   00001668   1CFF1CFF1CFF       DC16     +65308,+65308,+65308,+65308
   \              1CFF        
   \   00001670   1CFF1CFF1CFF       DC16     +65308,+65308,+65308,+65308
   \              1CFF        
   \   00001678   1CFF1CFF1CFF       DC16     +65308,+65308,+65308,+65308
   \              1CFF        
   \   00001680   1CFF1CFF1CFF       DC16     +65308,+65308,+65308,+65308
   \              1CFF        
   \   00001688   1CFF1CFF1CFF       DC16     +65308,+65308,+65308,+65308
   \              1CFF        
   \   00001690   1CFF1CFF1CFF       DC16     +65308,+65308,+65308,+65308
   \              1CFF        
   \   00001698   1CFF1CFF1CFF       DC16     +65308,+65308,+65308,+65308
   \              1CFF        
   \   000016A0   1CFF1CFF1CFF       DC16     +65308,+65308,+65308,+65308
   \              1CFF        
   \   000016A8   1CFF1CFF1CFF       DC16     +65308,+65308,+65308,+65308
   \              1CFF        
   \   000016B0   1CFF1CFF1CFF       DC16     +65308,+65308,+65308,+65308
   \              1CFF        
   \   000016B8   1CFF1CFF1CFF       DC16     +65308,+65308,+65308,+65308
   \              1CFF        
   \   000016C0   1CFF1CFF1CFF       DC16     +65308,+65308,+65308,+65308
   \              1CFF        
   \   000016C8   1CFF1CFF1CFF       DC16     +65308,+65308,+65308,+65308
   \              1CFF        
   \   000016D0   1CFF1CFF1CFF       DC16     +65308,+65308,+65308,+65308
   \              1CFF        
   \   000016D8   1CFF1CFF1CFF       DC16     +65308,+65308,+65308,+65308
   \              1CFF        
   \   000016E0   1CFF1CFF1CFF       DC16     +65308,+65308,+65308,+65308
   \              1CFF        
   \   000016E8   1CFF1CFF1CFF       DC16     +65308,+65308,+65308,+65308
   \              1CFF        
   \   000016F0   1CFF1CFF1CFF       DC16     +65308,+65308,+65308,+65308
   \              1CFF        
   \   000016F8   1CFF1CFF1CFF       DC16     +65308,+65308,+65308,+65308
   \              1CFF        
   \   00001700   1CFF1CFF1CFF       DC16     +65308,+65308,+65308,+65308
   \              1CFF        
   \   00001708   1CFF1CFF1CFF       DC16     +65308,+65308,+65308,+65308
   \              1CFF        
   \   00001710   1CFF1CFF1CFF       DC16     +65308,+65308,+65308,+65308
   \              1CFF        
   \   00001718   1CFF1CFF1CFF       DC16     +65308,+65308,+65308,+65308
   \              1CFF        
   \   00001720   1CFF1CFF1CFF       DC16     +65308,+65308,+65308,+65308
   \              1CFF        
   \   00001728   1CFF1CFF1CFF       DC16     +65308,+65308,+65308,+65308
   \              1CFF        
   \   00001730   1CFF1CFF1CFF       DC16     +65308,+65308,+65308,+65308
   \              1CFF        
   \   00001738   1CFF1CFF1CFF       DC16     +65308,+65308,+65308,+65308
   \              1CFF        
   \   00001740   1CFF1CFF1CFF       DC16     +65308,+65308,+65308,+65308
   \              1CFF        
   \   00001748   1CFF1CFF1CFF       DC16     +65308,+65308,+65308,+65308
   \              1CFF        
   \   00001750   1CFF1CFF1CFF       DC16     +65308,+65308,+65308,+65308
   \              1CFF        
   \   00001758   1CFF1CFF1CFF       DC16     +65308,+65308,+65308,+65308
   \              1CFF        
   \   00001760   1CFF1CFF1CFF       DC16     +65308,+65308,+65308,+65308
   \              1CFF        
   \   00001768   1CFF1CFF1CFF       DC16     +65308,+65308,+65308,+65308
   \              1CFF        
   \   00001770   1CFF1CFF1CFF       DC16     +65308,+65308,+65308,+65308
   \              1CFF        
   \   00001778   1CFF1CFF1CFF       DC16     +65308,+65308,+65308,+65308
   \              1CFF        
   \   00001780   1CFF1CFF1CFF       DC16     +65308,+65308,+65308,+65308
   \              1CFF        
   \   00001788   1CFF1CFF1CFF       DC16     +65308,+65308,+65308,+65308
   \              1CFF        
   \   00001790   1CFF1CFF1CFF       DC16     +65308,+65308,+65308,+65308
   \              1CFF        
   \   00001798   1CFF1CFF1CFF       DC16     +65308,+65308,+65308,+65308
   \              1CFF        
   \   000017A0   1CFF1CFF1CFF       DC16     +65308,+65308,+65308,+65308
   \              1CFF        
   \   000017A8   1CFF1CFF1CFF       DC16     +65308,+65308,+65308,+65308
   \              1CFF        
   \   000017B0   1CFF1CFF1CFF       DC16     +65308,+65308,+65308,+65308
   \              1CFF        
   \   000017B8   1CFF1CFF1CFF       DC16     +65308,+65308,+65308,+65308
   \              1CFF        
   \   000017C0   1CFF1CFF1CFF       DC16     +65308,+65308,+65308,+65308
   \              1CFF        
   \   000017C8   1CFF1CFF1CFF       DC16     +65308,+65308,+65308,+65308
   \              1CFF        
   \   000017D0   1CFF1CFF1CFF       DC16     +65308,+65308,+65308,+65308
   \              1CFF        
   \   000017D8   1CFF1CFF1CFF       DC16     +65308,+65308,+65308,+65308
   \              1CFF        
   \   000017E0   1CFF1CFF1CFF       DC16     +65308,+65308,+65308,+65308
   \              1CFF        
   \   000017E8   1CFF1CFF1CFF       DC16     +65308,+65308,+65308,+65308
   \              1CFF        
   \   000017F0   1CFF1CFF1CFF       DC16     +65308,+65308,+65308,+65308
   \              1CFF        
   \   000017F8   1CFF1CFF1CFF       DC16     +65308,+65308,+65308,+65308
   \              1CFF        
   \   00001800   1CFF1CFF1CFF       DC16     +65308,+65308,+65308,+65308
   \              1CFF        
   \   00001808   1CFF1CFF1CFF       DC16     +65308,+65308,+65308,+65308
   \              1CFF        
   \   00001810   1CFF1CFF1CFF       DC16     +65308,+65308,+65308,+65308
   \              1CFF        
   \   00001818   1CFF1CFF1CFF       DC16     +65308,+65308,+65308,+65308
   \              1CFF        
   \   00001820   1CFF1CFF1CFF       DC16     +65308,+65308,+65308,+65308
   \              1CFF        
   \   00001828   1CFF1CFF1CFF       DC16     +65308,+65308,+65308,+65308
   \              1CFF        
   \   00001830   1CFF1CFF1CFF       DC16     +65308,+65308,+65308,+65308
   \              1CFF        
   \   00001838   1CFF1CFF1CFF       DC16     +65308,+65308,+65308,+65308
   \              1CFF        
   \   00001840   1CFF1CFF1CFF       DC16     +65308,+65308,+65308,+65308
   \              1CFF        
   \   00001848   1CFF1CFF1CFF       DC16     +65308,+65308,+65308,+65308
   \              1CFF        
   \   00001850   1CFF1CFF1CFF       DC16     +65308,+65308,+65308,+65308
   \              1CFF        
   \   00001858   1CFF1CFF1CFF       DC16     +65308,+65308,+65308,+65308
   \              1CFF        
   \   00001860   1CFF1CFF1CFF       DC16     +65308,+65308,+65308,+65308
   \              1CFF        
   \   00001868   1CFF1CFF1CFF       DC16     +65308,+65308,+65308,+65308
   \              1CFF        
   \   00001870   1CFF1CFF1CFF       DC16     +65308,+65308,+65308,+65308
   \              1CFF        
   \   00001878   1CFF1CFF1CFF       DC16     +65308,+65308,+65308,+65308
   \              1CFF        
   \   00001880   1CFF1CFF1CFF       DC16     +65308,+65308,+65308,+65308
   \              1CFF        
   \   00001888   1CFF1CFF1CFF       DC16     +65308,+65308,+65308,+65308
   \              1CFF        
   \   00001890   1CFF1CFF1CFF       DC16     +65308,+65308,+65308,+65308
   \              1CFF        
   \   00001898   1CFF1CFF1CFF       DC16     +65308,+65308,+65308,+65308
   \              1CFF        
   \   000018A0   1CFF1CFF1CFF       DC16     +65308,+65308,+65308,+65308
   \              1CFF        
   \   000018A8   1CFF1CFF1CFF       DC16     +65308,+65308,+65308,+65308
   \              1CFF        
   \   000018B0   1CFF1CFF1CFF       DC16     +65308,+65308,+65308,+65308
   \              1CFF        
   \   000018B8   1CFF1CFF1CFF       DC16     +65308,+65308,+65308,+65308
   \              1CFF        
   \   000018C0   1CFF1CFF1CFF       DC16     +65308,+65308,+65308,+65308
   \              1CFF        
   \   000018C8   1CFF1CFF1CFF       DC16     +65308,+65308,+65308,+65308
   \              1CFF        
   \   000018D0   1CFF1CFF1CFF       DC16     +65308,+65308,+65308,+65308
   \              1CFF        
   \   000018D8   1CFF1CFF1CFF       DC16     +65308,+65308,+65308,+65308
   \              1CFF        
   \   000018E0   1CFF1CFF1CFF       DC16     +65308,+65308,+65308,+65308
   \              1CFF        
   \   000018E8   1CFF1CFF1CFF       DC16     +65308,+65308,+65308,+65308
   \              1CFF        
   \   000018F0   1CFF1CFF1CFF       DC16     +65308,+65308,+65308,+65308
   \              1CFF        
   \   000018F8   1CFF1CFF1CFF       DC16     +65308,+65308,+65308,+65308
   \              1CFF        
   \   00001900   1CFF1CFF1CFF       DC16     +65308,+65308,+65308,+65308
   \              1CFF        
   \   00001908   1CFF1CFF1CFF       DC16     +65308,+65308,+65308,+65308
   \              1CFF        
   \   00001910   1CFF1CFF1CFF       DC16     +65308,+65308,+65308,+65308
   \              1CFF        
   \   00001918   1CFF1CFF1CFF       DC16     +65308,+65308,+65308,+65308
   \              1CFF        
   \   00001920   1CFF1CFF1CFF       DC16     +65308,+65308,+65308,+65308
   \              1CFF        
   \   00001928   1CFF1CFF1CFF       DC16     +65308,+65308,+65308,+65308
   \              1CFF        
   \   00001930   1CFF1CFF1CFF       DC16     +65308,+65308,+65308,+65308
   \              1CFF        
   \   00001938   1CFF1CFF1CFF       DC16     +65308,+65308,+65308,+65308
   \              1CFF        
   \   00001940   1CFF1CFF1CFF       DC16     +65308,+65308,+65308,+65308
   \              1CFF        
   \   00001948   1CFF1CFF1CFF       DC16     +65308,+65308,+65308,+65308
   \              1CFF        
   \   00001950   1CFF1CFF1CFF       DC16     +65308,+65308,+65308,+65308
   \              1CFF        
   \   00001958   1CFF1CFF1CFF       DC16     +65308,+65308,+65308,+65308
   \              1CFF        
   \   00001960   1CFF1CFF1CFF       DC16     +65308,+65308,+65308,+65308
   \              1CFF        
   \   00001968   1CFF1CFF1CFF       DC16     +65308,+65308,+65308,+65308
   \              1CFF        
   \   00001970   1CFF1CFF1CFF       DC16     +65308,+65308,+65308,+65308
   \              1CFF        
   \   00001978   1CFF1CFF1CFF       DC16     +65308,+65308,+65308,+65308
   \              1CFF        
   \   00001980   1CFF1CFF1CFF       DC16     +65308,+65308,+65308,+65308
   \              1CFF        
   \   00001988   1CFF1CFF1CFF       DC16     +65308,+65308,+65308,+65308
   \              1CFF        
   \   00001990   1CFF1CFF1CFF       DC16     +65308,+65308,+65308,+65308
   \              1CFF        
   \   00001998   1CFF1CFF1CFF       DC16     +65308,+65308,+65308,+65308
   \              1CFF        
   \   000019A0   1CFF1CFF1CFF       DC16     +65308,+65308,+65308,+65308
   \              1CFF        
   \   000019A8   1CFF1CFF1CFF       DC16     +65308,+65308,+65308,+65308
   \              1CFF        
   \   000019B0   1CFF1CFF1CFF       DC16     +65308,+65308,+65308,+65308
   \              1CFF        
   \   000019B8   1CFF1CFF1CFF       DC16     +65308,+65308,+65308,+65308
   \              1CFF        
   \   000019C0   1CFF1CFF1CFF       DC16     +65308,+65308,+65308,+65308
   \              1CFF        
   \   000019C8   1CFF1CFF1CFF       DC16     +65308,+65308,+65308,+65308
   \              1CFF        
   \   000019D0   1CFF1CFF1CFF       DC16     +65308,+65308,+65308,+65308
   \              1CFF        
   \   000019D8   1CFF1CFF1CFF       DC16     +65308,+65308,+65308,+65308
   \              1CFF        
   \   000019E0   1CFF1CFF1CFF       DC16     +65308,+65308,+65308,+65308
   \              1CFF        
   \   000019E8   1CFF1CFF1CFF       DC16     +65308,+65308,+65308,+65308
   \              1CFF        
   \   000019F0   1CFF1CFF1CFF       DC16     +65308,+65308,+65308,+65308
   \              1CFF        
   \   000019F8   1CFF1CFF1CFF       DC16     +65308,+65308,+65308,+65308
   \              1CFF        
   \   00001A00   1CFF1CFF1CFF       DC16     +65308,+65308,+65308,+65308
   \              1CFF        
   \   00001A08   1CFF1CFF1CFF       DC16     +65308,+65308,+65308,+65308
   \              1CFF        
   \   00001A10   1CFF1CFF1CFF       DC16     +65308,+65308,+65308,+65308
   \              1CFF        
   \   00001A18   1CFF1CFF1CFF       DC16     +65308,+65308,+65308,+65308
   \              1CFF        
   \   00001A20   1CFF1CFF1CFF       DC16     +65308,+65308,+65308,+65308
   \              1CFF        
   \   00001A28   1CFF1CFF1CFF       DC16     +65308,+65308,+65308,+65308
   \              1CFF        
   \   00001A30   1CFF1CFF1CFF       DC16     +65308,+65308,+65308,+65308
   \              1CFF        
   \   00001A38   1CFF1CFF1CFF       DC16     +65308,+65308,+65308,+65308
   \              1CFF        
   \   00001A40   1CFF1CFF1CFF       DC16     +65308,+65308,+65308,+65308
   \              1CFF        
   \   00001A48   1CFF1CFF1CFF       DC16     +65308,+65308,+65308,+65308
   \              1CFF        
   \   00001A50   1CFF1CFF1CFF       DC16     +65308,+65308,+65308,+65308
   \              1CFF        
   \   00001A58   1CFF1CFF1CFF       DC16     +65308,+65308,+65308,+65308
   \              1CFF        
   \   00001A60   1CFF1CFF1CFF       DC16     +65308,+65308,+65308,+65308
   \              1CFF        
   \   00001A68   1CFF1CFF1CFF       DC16     +65308,+65308,+65308,+65308
   \              1CFF        
   \   00001A70   1CFF1CFF1CFF       DC16     +65308,+65308,+65308,+65308
   \              1CFF        
   \   00001A78   1CFF1CFF1CFF       DC16     +65308,+65308,+65308,+65308
   \              1CFF        
   \   00001A80   1CFF1CFF1CFF       DC16     +65308,+65308,+65308,+65308
   \              1CFF        
   \   00001A88   1CFF1CFF1CFF       DC16     +65308,+65308,+65308,+65308
   \              1CFF        
   \   00001A90   1CFF1CFF1CFF       DC16     +65308,+65308,+65308,+65308
   \              1CFF        
   \   00001A98   1CFF1CFF1CFF       DC16     +65308,+65308,+65308,+65308
   \              1CFF        
   \   00001AA0   1CFF1CFF1CFF       DC16     +65308,+65308,+65308,+65308
   \              1CFF        
   \   00001AA8   1CFF1CFF1CFF       DC16     +65308,+65308,+65308,+65308
   \              1CFF        
   \   00001AB0   1CFF1CFF1CFF       DC16     +65308,+65308,+65308,+65308
   \              1CFF        
   \   00001AB8   1CFF1CFF1CFF       DC16     +65308,+65308,+65308,+65308
   \              1CFF        
   \   00001AC0   1CFF1CFF1CFF       DC16     +65308,+65308,+65308,+65308
   \              1CFF        
   \   00001AC8   1CFF1CFF1CFF       DC16     +65308,+65308,+65308,+65308
   \              1CFF        
   \   00001AD0   1CFF1CFF1CFF       DC16     +65308,+65308,+65308,+65308
   \              1CFF        
   \   00001AD8   1CFF1CFF1CFF       DC16     +65308,+65308,+65308,+65308
   \              1CFF        
   \   00001AE0   1CFF1CFF1CFF       DC16     +65308,+65308,+65308,+65308
   \              1CFF        
   \   00001AE8   1CFF1CFF1CFF       DC16     +65308,+65308,+65308,+65308
   \              1CFF        
   \   00001AF0   1CFF1CFF1CFF       DC16     +65308,+65308,+65308,+65308
   \              1CFF        
   \   00001AF8   1CFF1CFF1CFF       DC16     +65308,+65308,+65308,+65308
   \              1CFF        
   \   00001B00   1CFF1CFF1CFF       DC16     +65308,+65308,+65308,+65308
   \              1CFF        
   \   00001B08   1CFF1CFF1CFF       DC16     +65308,+65308,+65308,+65308
   \              1CFF        
   \   00001B10   1CFF1CFF1CFF       DC16     +65308,+65308,+65308,+65308
   \              1CFF        
   \   00001B18   1CFF1CFF1CFF       DC16     +65308,+65308,+65308,+65308
   \              1CFF        
   \   00001B20   1CFF1CFF1CFF       DC16     +65308,+65308,+65308,+65308
   \              1CFF        
   \   00001B28   1CFF1CFF1CFF       DC16     +65308,+65308,+65308,+65308
   \              1CFF        
   \   00001B30   1CFF1CFF1CFF       DC16     +65308,+65308,+65308,+65308
   \              1CFF        
   \   00001B38   1CFF1CFF1CFF       DC16     +65308,+65308,+65308,+65308
   \              1CFF        
   \   00001B40   1CFF1CFF1CFF       DC16     +65308,+65308,+65308,+65308
   \              1CFF        
   \   00001B48   1CFF1CFF1CFF       DC16     +65308,+65308,+65308,+65308
   \              1CFF        
   \   00001B50   1CFF1CFF1CFF       DC16     +65308,+65308,+65308,+65308
   \              1CFF        
   \   00001B58   1CFF1CFF1CFF       DC16     +65308,+65308,+65308,+65308
   \              1CFF        
   \   00001B60   1CFF1CFF1CFF       DC16     +65308,+65308,+65308,+65308
   \              1CFF        
   \   00001B68   1CFF1CFF1CFF       DC16     +65308,+65308,+65308,+65308
   \              1CFF        
   \   00001B70   1CFF1CFF1CFF       DC16     +65308,+65308,+65308,+65308
   \              1CFF        
   \   00001B78   1CFF1CFF1CFF       DC16     +65308,+65308,+65308,+65308
   \              1CFF        
   \   00001B80   1CFF1CFF1CFF       DC16     +65308,+65308,+65308,+65308
   \              1CFF        
   \   00001B88   1CFF1CFF1CFF       DC16     +65308,+65308,+65308,+65308
   \              1CFF        
   \   00001B90   1CFF1CFF1CFF       DC16     +65308,+65308,+65308,+65308
   \              1CFF        
   \   00001B98   1CFF1CFF1CFF       DC16     +65308,+65308,+65308,+65308
   \              1CFF        
   \   00001BA0   1CFF1CFF1CFF       DC16     +65308,+65308,+65308,+65308
   \              1CFF        
   \   00001BA8   1CFF1CFF1CFF       DC16     +65308,+65308,+65308,+65308
   \              1CFF        
   \   00001BB0   1CFF1CFF1CFF       DC16     +65308,+65308,+65308,+65308
   \              1CFF        
   \   00001BB8   1CFF1CFF1CFF       DC16     +65308,+65308,+65308,+65308
   \              1CFF        
   \   00001BC0   1CFF1CFF1CFF       DC16     +65308,+65308,+65308,+65308
   \              1CFF        
   \   00001BC8   1CFF1CFF1CFF       DC16     +65308,+65308,+65308,+65308
   \              1CFF        
   \   00001BD0   1CFF1CFF1CFF       DC16     +65308,+65308,+65308,+65308
   \              1CFF        
   \   00001BD8   1CFF1CFF1CFF       DC16     +65308,+65308,+65308,+65308
   \              1CFF        
   \   00001BE0   1CFF1CFF1CFF       DC16     +65308,+65308,+65308,+65308
   \              1CFF        
   \   00001BE8   1CFF1CFF1CFF       DC16     +65308,+65308,+65308,+65308
   \              1CFF        
   \   00001BF0   1CFF1CFF1CFF       DC16     +65308,+65308,+65308,+65308
   \              1CFF        
   \   00001BF8   1CFF1CFF1CFF       DC16     +65308,+65308,+65308,+65308
   \              1CFF        
   \   00001C00   1CFF1CFF1CFF       DC16     +65308,+65308,+65308,+65308
   \              1CFF        
   \   00001C08   1CFF1CFF1CFF       DC16     +65308,+65308,+65308,+65308
   \              1CFF        
   \   00001C10   1CFF1CFF1CFF       DC16     +65308,+65308,+65308,+65308
   \              1CFF        
   \   00001C18   1CFF1CFF1CFF       DC16     +65308,+65308,+65308,+65308
   \              1CFF        
   \   00001C20   1CFF1CFF1CFF       DC16     +65308,+65308,+65308,+65308
   \              1CFF        
   \   00001C28   1CFF1CFF1CFF       DC16     +65308,+65308,+65308,+65308
   \              1CFF        
   \   00001C30   1CFF1CFF1CFF       DC16     +65308,+65308,+65308,+65308
   \              1CFF        
   \   00001C38   1CFF1CFF1CFF       DC16     +65308,+65308,+65308,+65308
   \              1CFF        
   \   00001C40   1CFF1CFF1CFF       DC16     +65308,+65308,+65308,+65308
   \              1CFF        
   \   00001C48   1CFF1CFF1CFF       DC16     +65308,+65308,+65308,+65308
   \              1CFF        
   \   00001C50   1CFF1CFF1CFF       DC16     +65308,+65308,+65308,+65308
   \              1CFF        
   \   00001C58   1CFF1CFF1CFF       DC16     +65308,+65308,+65308,+65308
   \              1CFF        
   \   00001C60   1CFF1CFF1CFF       DC16     +65308,+65308,+65308,+65308
   \              1CFF        
   \   00001C68   1CFF1CFF1CFF       DC16     +65308,+65308,+65308,+65308
   \              1CFF        
   \   00001C70   1CFF1CFF1CFF       DC16     +65308,+65308,+65308,+65308
   \              1CFF        
   \   00001C78   1CFF1CFF1CFF       DC16     +65308,+65308,+65308,+65308
   \              1CFF        
   \   00001C80   1CFF1CFF1CFF       DC16     +65308,+65308,+65308,+65308
   \              1CFF        
   \   00001C88   1CFF1CFF1CFF       DC16     +65308,+65308,+65308,+65308
   \              1CFF        
   \   00001C90   1CFF1CFF1CFF       DC16     +65308,+65308,+65308,+65308
   \              1CFF        
   \   00001C98   1CFF1CFF1CFF       DC16     +65308,+65308,+65308,+65308
   \              1CFF        
   \   00001CA0   1CFF1CFF1CFF       DC16     +65308,+65308,+65308,+65308
   \              1CFF        
   \   00001CA8   1CFF1CFF1CFF       DC16     +65308,+65308,+65308,+65308
   \              1CFF        
   \   00001CB0   1CFF1CFF1CFF       DC16     +65308,+65308,+65308,+65308
   \              1CFF        
   \   00001CB8   1CFF1CFF1CFF       DC16     +65308,+65308,+65308,+65308
   \              1CFF        
   \   00001CC0   1CFF1CFF1CFF       DC16     +65308,+65308,+65308,+65308
   \              1CFF        
   \   00001CC8   1CFF1CFF1CFF       DC16     +65308,+65308,+65308,+65308
   \              1CFF        
   \   00001CD0   1CFF1CFF1CFF       DC16     +65308,+65308,+65308,+65308
   \              1CFF        
   \   00001CD8   1CFF1CFF1CFF       DC16     +65308,+65308,+65308,+65308
   \              1CFF        
   \   00001CE0   1CFF1CFF1CFF       DC16     +65308,+65308,+65308,+65308
   \              1CFF        
   \   00001CE8   1CFF1CFF1CFF       DC16     +65308,+65308,+65308,+65308
   \              1CFF        
   \   00001CF0   1CFF1CFF1CFF       DC16     +65308,+65308,+65308,+65308
   \              1CFF        
   \   00001CF8   1CFF1CFF1CFF       DC16     +65308,+65308,+65308,+65308
   \              1CFF        
   \   00001D00   1CFF1CFF1CFF       DC16     +65308,+65308,+65308,+65308
   \              1CFF        
   \   00001D08   1CFF1CFF1CFF       DC16     +65308,+65308,+65308,+65308
   \              1CFF        
   \   00001D10   1CFF1CFF1CFF       DC16     +65308,+65308,+65308,+65308
   \              1CFF        
   \   00001D18   1CFF1CFF1CFF       DC16     +65308,+65308,+65308,+65308
   \              1CFF        
   \   00001D20   1CFF1CFF1CFF       DC16     +65308,+65308,+65308,+65308
   \              1CFF        
   \   00001D28   1CFF1CFF1CFF       DC16     +65308,+65308,+65308,+65308
   \              1CFF        
   \   00001D30   1CFF1CFF1CFF       DC16     +65308,+65308,+65308,+65308
   \              1CFF        
   \   00001D38   1CFF1CFF1CFF       DC16     +65308,+65308,+65308,+65308
   \              1CFF        
   \   00001D40   1CFF1CFF1CFF       DC16     +65308,+65308,+65308,+65308
   \              1CFF        
   \   00001D48   1CFF1CFF1CFF       DC16     +65308,+65308,+65308,+65308
   \              1CFF        
   \   00001D50   1CFF1CFF1CFF       DC16     +65308,+65308,+65308,+65308
   \              1CFF        
   \   00001D58   1CFF1CFF1CFF       DC16     +65308,+65308,+65308,+65308
   \              1CFF        
   \   00001D60   1CFF1CFF1CFF       DC16     +65308,+65308,+65308,+65308
   \              1CFF        
   \   00001D68   1CFF1CFF1CFF       DC16     +65308,+65308,+65308,+65308
   \              1CFF        
   \   00001D70   1CFF1CFF1CFF       DC16     +65308,+65308,+65308,+65308
   \              1CFF        
   \   00001D78   1CFF1CFF1CFF       DC16     +65308,+65308,+65308,+65308
   \              1CFF        
   \   00001D80   1CFF1CFF1CFF       DC16     +65308,+65308,+65308,+65308
   \              1CFF        
   \   00001D88   1CFF1CFF1CFF       DC16     +65308,+65308,+65308,+65308
   \              1CFF        
   \   00001D90   1CFF1CFF1CFF       DC16     +65308,+65308,+65308,+65308
   \              1CFF        
   \   00001D98   1CFF1CFF1CFF       DC16     +65308,+65308,+65308,+65308
   \              1CFF        
   \   00001DA0   1CFF1CFF1CFF       DC16     +65308,+65308,+65308,+65308
   \              1CFF        
   \   00001DA8   1CFF1CFF1CFF       DC16     +65308,+65308,+65308,+65308
   \              1CFF        
   \   00001DB0   1CFF1CFF1CFF       DC16     +65308,+65308,+65308,+65308
   \              1CFF        
   \   00001DB8   1CFF1CFF1CFF       DC16     +65308,+65308,+65308,+65308
   \              1CFF        
   \   00001DC0   1CFF1CFF1CFF       DC16     +65308,+65308,+65308,+65308
   \              1CFF        
   \   00001DC8   1CFF1CFF1CFF       DC16     +65308,+65308,+65308,+65308
   \              1CFF        
   \   00001DD0   1CFF1CFF1CFF       DC16     +65308,+65308,+65308,+65308
   \              1CFF        
   \   00001DD8   1CFF1CFF1CFF       DC16     +65308,+65308,+65308,+65308
   \              1CFF        
   \   00001DE0   1CFF1CFF1CFF       DC16     +65308,+65308,+65308,+65308
   \              1CFF        
   \   00001DE8   1CFF1CFF1CFF       DC16     +65308,+65308,+65308,+65308
   \              1CFF        
   \   00001DF0   1CFF1CFF1CFF       DC16     +65308,+65308,+65308,+65308
   \              1CFF        
   \   00001DF8   1CFF1CFF1CFF       DC16     +65308,+65308,+65308,+65308
   \              1CFF        
   \   00001E00   1CFF1CFF1CFF       DC16     +65308,+65308,+65308,+65308
   \              1CFF        
   \   00001E08   1CFF1CFF1CFF       DC16     +65308,+65308,+65308,+65308
   \              1CFF        
   \   00001E10   1CFF1CFF1CFF       DC16     +65308,+65308,+65308,+65308
   \              1CFF        
   \   00001E18   1CFF1CFF1CFF       DC16     +65308,+65308,+65308,+65308
   \              1CFF        
   \   00001E20   1CFF1CFF1CFF       DC16     +65308,+65308,+65308,+65308
   \              1CFF        
   \   00001E28   1CFF1CFF1CFF       DC16     +65308,+65308,+65308,+65308
   \              1CFF        
   \   00001E30   1CFF1CFF1CFF       DC16     +65308,+65308,+65308,+65308
   \              1CFF        
   \   00001E38   1CFF1CFF1CFF       DC16     +65308,+65308,+65308,+65308
   \              1CFF        
   \   00001E40   1CFF1CFF1CFF       DC16     +65308,+65308,+65308,+65308
   \              1CFF        
   \   00001E48   1CFF1CFF1CFF       DC16     +65308,+65308,+65308,+65308
   \              1CFF        
   \   00001E50   1CFF1CFF1CFF       DC16     +65308,+65308,+65308,+65308
   \              1CFF        
   \   00001E58   1CFF1CFF1CFF       DC16     +65308,+65308,+65308,+65308
   \              1CFF        
   \   00001E60   1CFF1CFF1CFF       DC16     +65308,+65308,+65308,+65308
   \              1CFF        
   \   00001E68   1CFF1CFF1CFF       DC16     +65308,+65308,+65308,+65308
   \              1CFF        
   \   00001E70   1CFF1CFF1CFF       DC16     +65308,+65308,+65308,+65308
   \              1CFF        
   \   00001E78   1CFF1CFF1CFF       DC16     +65308,+65308,+65308,+65308
   \              1CFF        
   \   00001E80   1CFF1CFF1CFF       DC16     +65308,+65308,+65308,+65308
   \              1CFF        
   \   00001E88   1CFF1CFF1CFF       DC16     +65308,+65308,+65308,+65308
   \              1CFF        
   \   00001E90   1CFF1CFF1CFF       DC16     +65308,+65308,+65308,+1183
   \              9F04        
    270          			case GUI_ID_DROPDOWN1:
    271          			case GUI_ID_DROPDOWN2:
    272          			case GUI_ID_DROPDOWN3:
    273          				AppSetupCargo->UpdateDialog(hWin,Id);
    274          				break;
    275          			case GUI_ID_DROPDOWN4: /* OpMode  */
    276          				AppSetupCargo->GetSelected(GUI_ID_DROPDOWN4,SVT_TANK_STATE_STR_CGO,PROSystemData::TXUSystemData);
   \                     ??cbTankSetup_28:
   \   00001E98   ........           LDR      R0,??DataTable8  ;; ??TXUSystemData
   \   00001E9C   C820A0E3           MOV      R2,#+200
   \   00001EA0   003090E5           LDR      R3,[R0, #+0]
   \   00001EA4   000098E5           LDR      R0,[R8, #+0]
   \   00001EA8   502E82E3           ORR      R2,R2,#0x500
   \   00001EAC   AC1EA0E3           MOV      R1,#+2752
   \   00001EB0   ........           _BLF     ??GetSelected,??GetSelected??rA
   \   00001EB4   74FAFFEA           B        ??cbTankSetup_7
    277          				break;
    278          			}
    279          			break;
    280          		case WM_NOTIFICATION_GOT_FOCUS:
    281          			switch ( Id ) {
    282          			case GUI_ID_DROPDOWN4: /* OpMode  */
    283          				break;
    284          			}
    285          			break;
    286          		}
    287          		break;
    288          	case WM_TIMER:
    289          		AppSetupCargo->Update();
   \                     ??cbTankSetup_29:
   \   00001EB8   ........           BL       ??Update
   \   00001EBC   72FAFFEA           B        ??cbTankSetup_7
    290          		break;
    291          	default:
    292          		WM_DefaultProc(pMsg);
   \                     ??cbTankSetup_5:
   \   00001EC0   0600A0E1           MOV      R0,R6
   \   00001EC4   ........           _BLF     WM_DefaultProc,??WM_DefaultProc??rA
    293          	}
    294          }
   \                     ??cbTankSetup_30:
   \   00001EC8   6FFAFFEA           B        ??cbTankSetup_7

   \                                 In segment DIFUNCT, align 4, keep-with-next, root
   \   00000000                      REQUIRE ?call_ctors
   \   00000000   ........           DC32    ??__sti__routine

   \                                 In segment DATA_C, align 4, align-sorted
   \                     `?<Constant "Application setup">`:
   \   00000000   4170706C6963       DC8 "Application setup"
   \              6174696F6E20
   \              736574757000
   \   00000012   0000               DC8 0, 0

   \                                 In segment DATA_C, align 4, align-sorted
   \                     `?<Constant "Operation mode">`:
   \   00000000   4F7065726174       DC8 "Operation mode"
   \              696F6E206D6F
   \              646500      
   \   0000000F   00                 DC8 0

   \                                 In segment DATA_C, align 4, align-sorted
   \                     `?<Constant "Close">`:
   \   00000000   436C6F736500       DC8 "Close"
   \   00000006   0000               DC8 0, 0

   \                                 In segment DATA_C, align 4, align-sorted
   \                     `?<Constant "Col. 1">`:
   \   00000000   436F6C2E2031       DC8 "Col. 1"
   \              00          
   \   00000007   00                 DC8 0

   \                                 In segment DATA_C, align 4, align-sorted
   \                     `?<Constant "Col. 2">`:
   \   00000000   436F6C2E2032       DC8 "Col. 2"
   \              00          
   \   00000007   00                 DC8 0

   \                                 In segment DATA_C, align 4, align-sorted
   \                     `?<Constant "Col. 3">`:
   \   00000000   436F6C2E2033       DC8 "Col. 3"
   \              00          
   \   00000007   00                 DC8 0

   \                                 In segment DATA_C, align 4, align-sorted
   \                     `?<Constant "Col. 4">`:
   \   00000000   436F6C2E2034       DC8 "Col. 4"
   \              00          
   \   00000007   00                 DC8 0

   \                                 In segment DATA_C, align 4, align-sorted
   \                     `?<Constant "Name ">`:
   \   00000000   4E616D652000       DC8 "Name "
   \   00000006   0000               DC8 0, 0

   \                                 In segment DATA_C, align 4, align-sorted
   \                     `?<Constant "unit">`:
   \   00000000   756E697400         DC8 "unit"
   \   00000005   000000             DC8 0, 0, 0

   \                                 In segment DATA_C, align 4, align-sorted
   \                     `?<Constant "Zero adjust tank\\n pre...">`:
   \   00000000   5A65726F2061       DC8 5AH, 65H, 72H, 6FH, 20H, 61H, 64H, 6AH
   \              646A        
   \   00000008   757374207461       DC8 75H, 73H, 74H, 20H, 74H, 61H, 6EH, 6BH
   \              6E6B        
   \   00000010   0A2070726573       DC8 0AH, 20H, 70H, 72H, 65H, 73H, 73H, 75H
   \              7375        
   \   00000018   72652073656E       DC8 72H, 65H, 20H, 73H, 65H, 6EH, 73H, 6FH
   \              736F        
   \   00000020   7220666F720A       DC8 72H, 20H, 66H, 6FH, 72H, 0AH, 20H, 61H
   \              2061        
   \   00000028   6C6C20636172       DC8 6CH, 6CH, 20H, 63H, 61H, 72H, 67H, 6FH
   \              676F        
   \   00000030   2074616E6B73       DC8 20H, 74H, 61H, 6EH, 6BH, 73H, 2EH, 0
   \              2E00        

   \                                 In segment DATA_C, align 4, align-sorted
   \                     `?<Constant "Zero adjust level\\n se...">`:
   \   00000000   5A65726F2061       DC8 5AH, 65H, 72H, 6FH, 20H, 61H, 64H, 6AH
   \              646A        
   \   00000008   757374206C65       DC8 75H, 73H, 74H, 20H, 6CH, 65H, 76H, 65H
   \              7665        
   \   00000010   6C0A2073656E       DC8 6CH, 0AH, 20H, 73H, 65H, 6EH, 73H, 6FH
   \              736F        
   \   00000018   722873292066       DC8 72H, 28H, 73H, 29H, 20H, 66H, 6FH, 72H
   \              6F72        
   \   00000020   0A20616C6C20       DC8 0AH, 20H, 61H, 6CH, 6CH, 20H, 63H, 61H
   \              6361        
   \   00000028   72676F207461       DC8 72H, 67H, 6FH, 20H, 74H, 61H, 6EH, 6BH
   \              6E6B        
   \   00000030   732E00             DC8 73H, 2EH, 0
   \   00000033   00                 DC8 0

   \                                 In segment DATA_C, align 4, align-sorted
   \                     `?<Constant {{2198, 0, 69}, {2558, 0, 70}, {255`:
   \   00000000   960800000000       DC32 2198, 0, 69, 2558, 0, 70, 2559, 0, 71, 2560, 0, 72, 2561, 0, 73
   \              000045000000
   \              FE0900000000
   \              000046000000
   \              FF0900000000
   \              000047000000
   \              000A00000000
   \              000048000000
   \              010A00000000
   \              000049000000
   \   0000003C   020A00000000       DC32 2562, 0, 74, 2563, 0, 857, 368, 0, 78, 369, 0, 79, 5, 0, 18
   \              00004A000000
   \              030A00000000
   \              000059030000
   \              700100000000
   \              00004E000000
   \              710100000000
   \              00004F000000
   \              050000000000
   \              000012000000

   \                                 In segment DATA_C, align 4, align-sorted
   \   00000000   00                 DC8 ""
   \   00000001   000000000000       DC8 0, 0, 0, 0, 0, 0, 0, 0, 0, 0, 0, 0, 0, 0, 0, 0
   \              000000000000
   \              00000000    
   \   00000011   000000000000       DC8 0, 0, 0, 0, 0, 0, 0, 0, 0, 0, 0, 0, 0, 0, 0, 0
   \              000000000000
   \              00000000    
   \   00000021   000000000000       DC8 0, 0, 0, 0, 0, 0, 0, 0, 0, 0, 0, 0, 0, 0, 0, 0
   \              000000000000
   \              00000000    
   \   00000031   000000000000       DC8 0, 0, 0, 0, 0, 0, 0, 0, 0, 0, 0, 0, 0, 0, 0, 0
   \              000000000000
   \              00000000    
   \   00000041   000000000000       DC8 0, 0, 0, 0, 0, 0, 0, 0, 0, 0, 0, 0, 0, 0, 0
   \              000000000000
   \              000000      

   \                                 In segment DATA_C, align 4, align-sorted
   \   00000000   00                 DC8 ""
   \   00000001   000000000000       DC8 0, 0, 0, 0, 0, 0, 0, 0, 0, 0, 0, 0, 0, 0, 0, 0
   \              000000000000
   \              00000000    
   \   00000011   000000000000       DC8 0, 0, 0, 0, 0, 0, 0, 0, 0, 0, 0, 0, 0, 0, 0, 0
   \              000000000000
   \              00000000    
   \   00000021   000000000000       DC8 0, 0, 0, 0, 0, 0, 0, 0, 0, 0, 0, 0, 0, 0, 0, 0
   \              000000000000
   \              00000000    
   \   00000031   000000000000       DC8 0, 0, 0, 0, 0, 0, 0, 0, 0, 0, 0, 0, 0, 0, 0, 0
   \              000000000000
   \              00000000    
   \   00000041   000000000000       DC8 0, 0, 0, 0, 0, 0, 0, 0, 0, 0, 0, 0, 0, 0, 0
   \              000000000000
   \              000000      

   \                                 In segment CODE, align 4, keep-with-next
   \   __??Code32?? __code __interwork __atpcs TDUAppSetupCargo &TDUAppSetupCargo::new TDUAppSetupCargo()
   \                     `??new TDUAppSetupCargo`:
   \   00000000   00402DE9           PUSH     {LR}
   \   00000004   5C00A0E3           MOV      R0,#+92
   \   00000008   ........           _BLF     `??operator new`,`??operator new??rA`
   \   0000000C   000050E3           CMP      R0,#+0
   \   00000010   0000000A           BEQ      `??new TDUAppSetupCargo_1`
   \   00000014   ........           BL       ??TDUAppSetupCargo
   \                     `??new TDUAppSetupCargo_1`:
   \   00000018   0040BDE8           POP      {LR}
   \   0000001C   1EFF2FE1           BX       LR               ;; return

   \                                 In segment CODE, align 4, keep-with-next
   \   __??Code32?? __code __interwork __atpcs void TDUAppSetupCargo::delete ~TDUAppSetupCargo(TDUAppSetupCargo *)
   \                     `??delete ~TDUAppSetupCargo`:
   \   00000000   10402DE9           PUSH     {R4,LR}
   \   00000004   0040B0E1           MOVS     R4,R0
   \   00000008   0200000A           BEQ      `??delete ~TDUAppSetupCargo_1`
   \   0000000C   ........           _BLF     `?~TDUBasicWin`,`?~TDUBasicWin??rA`
   \   00000010   0400A0E1           MOV      R0,R4
   \   00000014   ........           _BLF     `??operator delete`,`??operator delete??rA`
   \                     `??delete ~TDUAppSetupCargo_1`:
   \   00000018   1040BDE8           POP      {R4,LR}
   \   0000001C   1EFF2FE1           BX       LR               ;; return

   \                                 In segment CODE, align 4, keep-with-next
   \   static __??Code32?? __intrinsic __code __interwork __atpcs void __sti__routine()
   \                     ??__sti__routine:
   \   00000000   1EFF2FE1           BX       LR               ;; return

   \                                 In segment CODE, align 4, keep-with-next
   \                     ??DataTable1:
   \   00000000   ........           DC32     AppSetupCargoIsClosed

   \                                 In segment CODE, align 4, keep-with-next
   \                     ??DataTable2:
   \   00000000   ........           DC32     CargoWindow

   \                                 In segment CODE, align 4, keep-with-next
   \                     ??DataTable3:
   \   00000000   ........           DC32     ??TXUSystemData

   \                                 In segment CODE, align 4, keep-with-next
   \                     ??DataTable4:
   \   00000000   ........           DC32     CargoWindow

   \                                 In segment CODE, align 4, keep-with-next
   \                     ??DataTable5:
   \   00000000   ........           DC32     ??npos

   \                                 In segment CODE, align 4, keep-with-next
   \                     ??DataTable7:
   \   00000000   ........           DC32     ??TXUSystemData

   \                                 In segment CODE, align 4, keep-with-next
   \                     ??DataTable8:
   \   00000000   ........           DC32     ??TXUSystemData

   Maximum stack usage in bytes:

     Function                       CSTACK
     --------                       ------
     TDUAppSetupCargo::ExecDialogBox(GUI_HWIN)
                                       16
     TDUAppSetupCargo::GetDialogHandles()
                                        8
     TDUAppSetupCargo::InitDialog()   232
     TDUAppSetupCargo::TDUAppSetupCargo()
                                        8
     TDUAppSetupCargo::Update()         8
     TDUAppSetupCargo::UpdateDialog(GUI_HWIN, int)
                                      112
     TDUAppSetupCargo::cbTankSetup(WM_MESSAGE *)
                                      268
     TDUAppSetupCargo::delete ~TDUAppSetupCargo(TDUAppSetupCargo *)
                                        8
     TDUAppSetupCargo::new TDUAppSetupCargo()
                                        4
     TDUAppSetupCargo::~TDUAppSetupCargo()
                                        4
     _Tree<_Tset_traits<PRogramObjectBase *, less<PRogramObjectBase *>, allocator<PRogramObjectBase *>, false>>::_Copy(_Tree<_Tset_traits<PRogramObjectBase *, less<PRogramObjectBase *>, allocator<PRogramObjectBase *>, false>>::_Nodeptr, _Tree<_Tset_traits<PRogramObjectBase *, less<PRogramObjectBase *>, allocator<PRogramObjectBase *>, false>>::_Nodeptr)
                                       32
     _Tree<_Tset_traits<PRogramObjectBase *, less<PRogramObjectBase *>, allocator<PRogramObjectBase *>, false>>::_Erase(_Tree<_Tset_traits<PRogramObjectBase *, less<PRogramObjectBase *>, allocator<PRogramObjectBase *>, false>>::_Nodeptr)
                                       16
     _Tree<_Tset_traits<PRogramObjectBase *, less<PRogramObjectBase *>, allocator<PRogramObjectBase *>, false>>::_Tree(_Tree<_Tset_traits<PRogramObjectBase *, less<PRogramObjectBase *>, allocator<PRogramObjectBase *>, false>> const &)
                                       12
     __sti__routine()                   0


   Segment part sizes:

     Function/Label                 Bytes
     --------------                 -----
     _Tree<_Tset_traits<PRogramObjectBase *, less<PRogramObjectBase *>, allocator<PRogramObjectBase *>, false>>::_Tree(_Tree<_Tset_traits<PRogramObjectBase *, less<PRogramObjectBase *>, allocator<PRogramObjectBase *>, false>> const &)
                                     208
     _Tree<_Tset_traits<PRogramObjectBase *, less<PRogramObjectBase *>, allocator<PRogramObjectBase *>, false>>::_Copy(_Tree<_Tset_traits<PRogramObjectBase *, less<PRogramObjectBase *>, allocator<PRogramObjectBase *>, false>>::_Nodeptr, _Tree<_Tset_traits<PRogramObjectBase *, less<PRogramObjectBase *>, allocator<PRogramObjectBase *>, false>>::_Nodeptr)
                                     148
     _Tree<_Tset_traits<PRogramObjectBase *, less<PRogramObjectBase *>, allocator<PRogramObjectBase *>, false>>::_Erase(_Tree<_Tset_traits<PRogramObjectBase *, less<PRogramObjectBase *>, allocator<PRogramObjectBase *>, false>>::_Nodeptr)
                                      76
     TDUAppSetupCargo::~TDUAppSetupCargo()
                                      16
     TDUAppSetupCargo::TDUAppSetupCargo()
                                      52
     TDUAppSetupCargo::aDialogCreate
                                     408
     TDUAppSetupCargo::ExecDialogBox(GUI_HWIN)
                                     184
     TDUAppSetupCargo::GetDialogHandles()
                                     252
     TDUAppSetupCargo::InitDialog()  652
     TDUAppSetupCargo::UpdateDialog(GUI_HWIN, int)
                                    5156
     TDUAppSetupCargo::Update()       72
     TDUAppSetupCargo::cbTankSetup(WM_MESSAGE *)
                                    7884
     ?<Constant "Application setup">
                                      20
     ?<Constant "Operation mode">     16
     ?<Constant "Close">               8
     ?<Constant "Col. 1">              8
     ?<Constant "Col. 2">              8
     ?<Constant "Col. 3">              8
     ?<Constant "Col. 4">              8
     ?<Constant "Name ">               8
     ?<Constant "unit">                8
     ?<Constant "Zero adjust tank\n pre...">
                                      56
     ?<Constant "Zero adjust level\n se...">
                                      52
     ?<Constant {{2198, 0, 69}, {2558, 0, 70}, {255
                                     120
     ?<Constant "">                   80
     ?<Constant "">_1                 80
     TDUAppSetupCargo::new TDUAppSetupCargo()
                                      32
     TDUAppSetupCargo::delete ~TDUAppSetupCargo(TDUAppSetupCargo *)
                                      32
     __sti__routine()                  4
     ??DataTable1                      4
     ??DataTable2                      4
     ??DataTable3                      4
     ??DataTable4                      4
     ??DataTable5                      4
     ??DataTable7                      4
     ??DataTable8                      4
      Others                         636

 
 15 428 bytes in segment CODE
    888 bytes in segment DATA_C
      4 bytes in segment DIFUNCT
 
 14 368 bytes of CODE  memory (+ 1 064 bytes shared)
    888 bytes of CONST memory

Errors: none
Warnings: none
