##############################################################################
#                                                                            #
# IAR ARM ANSI C/C++ Compiler V4.42A/W32               14/Sep/2022  15:17:37 #
# Copyright 1999-2005 IAR Systems. All rights reserved.                      #
#                                                                            #
#    Cpu mode        =  interwork                                            #
#    Endian          =  little                                               #
#    Stack alignment =  4                                                    #
#    Source file     =  D:\S2Prog\TXU\src\TDUAppSetupBallast.cpp             #
#    Command line    =  D:\S2Prog\TXU\src\TDUAppSetupBallast.cpp --fpu None  #
#                       -D OS_LIBMODE_SP -D CPU_S3C2410 -D OS_RAMVECT=0 -D   #
#                       OS_UART=-1 -D S2TXU -D USE_LZO=1 -D __ARM_LIBRARY__  #
#                       -D WATCHDOG=1 -D NETWORK=1 -lCN                      #
#                       D:\S2Prog\TXU\Debug\List\ -o                         #
#                       D:\S2Prog\TXU\Debug\Obj\ -s9 --debug --cpu_mode arm  #
#                       --endian little --cpu ARM920T --stack_align 4        #
#                       --interwork -e --enable_multibytes --eec++           #
#                       --dlib_config "C:\Program Files (x86)\IAR            #
#                       Systems\Embedded Workbench                           #
#                       4.0\arm\LIB\dl4tpainl8n.h" -I                        #
#                       D:\S2Prog\TXU\GUI\CORE\ -I D:\S2Prog\TXU\GUI\WM\ -I  #
#                       D:\S2Prog\TXU\GUI\WIDGET\ -I D:\S2Prog\TXU\CONFIG\   #
#                       -I D:\S2Prog\TXU\INC\ -I D:\S2Prog\TXU\..\SHARED\INC #
#                       \ -I D:\S2Prog\TXU\..\SHARED\SRC\ -I                 #
#                       D:\S2Prog\TXU\..\SHARED\LZO\minilzo.210\ -I          #
#                       D:\S2Prog\TXU\lwip-1.4.1\src\include\ -I             #
#                       D:\S2Prog\TXU\lwip-1.4.1\src\include\ipv4\ -I        #
#                       D:\S2Prog\TXU\lwip-1.4.1\src\ -I                     #
#                       D:\S2Prog\TXU\..\SHARED\Database\ -I                 #
#                       D:\S2Prog\TXU\src\ -I "C:\Program Files (x86)\IAR    #
#                       Systems\Embedded Workbench 4.0\arm\INC\"             #
#                       --inline_threshold=2                                 #
#    List file       =  D:\S2Prog\TXU\Debug\List\TDUAppSetupBallast.lst      #
#    Object file     =  D:\S2Prog\TXU\Debug\Obj\TDUAppSetupBallast.r79       #
#                                                                            #
#                                                                            #
##############################################################################

D:\S2Prog\TXU\src\TDUAppSetupBallast.cpp
      1          #include "TDUIncludes.h"

   \                                 In segment CODE, align 4, keep-with-next
   \   __??Code32?? __code __interwork __atpcs _Tree<_Tset_traits<PRogramObjectBase *, less<PRogramObjectBase *>, allocator<PRogramObjectBase *>, false>>::_Tree(_Tree<_Tset_traits<PRogramObjectBase *, less<PRogramObjectBase *>, allocator<PRogramObjectBase *>, false>> const &)
   \                     ??_Tree:
   \   00000000   30402DE9           PUSH     {R4,R5,LR}
   \   00000004   0040A0E1           MOV      R4,R0
   \   00000008   0150A0E1           MOV      R5,R1
   \   0000000C   1400D5E5           LDRB     R0,[R5, #+20]
   \   00000010   044084E5           STR      R4,[R4, #+4]
   \   00000014   004084E5           STR      R4,[R4, #+0]
   \   00000018   084084E5           STR      R4,[R4, #+8]
   \   0000001C   0110A0E3           MOV      R1,#+1
   \   00000020   0D10C4E5           STRB     R1,[R4, #+13]
   \   00000024   0C10C4E5           STRB     R1,[R4, #+12]
   \   00000028   0010A0E3           MOV      R1,#+0
   \   0000002C   101084E5           STR      R1,[R4, #+16]
   \   00000030   1400C4E5           STRB     R0,[R4, #+20]
   \   00000034   041095E5           LDR      R1,[R5, #+4]
   \   00000038   0420A0E1           MOV      R2,R4
   \   0000003C   0400A0E1           MOV      R0,R4
   \   00000040   ........           _BLF     ??_Copy,??_Copy??rA
   \   00000044   040084E5           STR      R0,[R4, #+4]
   \   00000048   100095E5           LDR      R0,[R5, #+16]
   \   0000004C   100084E5           STR      R0,[R4, #+16]
   \   00000050   040094E5           LDR      R0,[R4, #+4]
   \   00000054   0D10D0E5           LDRB     R1,[R0, #+13]
   \   00000058   000051E3           CMP      R1,#+0
   \   0000005C   1600001A           BNE      ??_Tree_1
   \   00000060   0010A0E1           MOV      R1,R0
   \   00000064   002091E5           LDR      R2,[R1, #+0]
   \   00000068   0D20D2E5           LDRB     R2,[R2, #+13]
   \   0000006C   000052E3           CMP      R2,#+0
   \   00000070   0400001A           BNE      ??_Tree_2
   \                     ??_Tree_3:
   \   00000074   001091E5           LDR      R1,[R1, #+0]
   \   00000078   002091E5           LDR      R2,[R1, #+0]
   \   0000007C   0D20D2E5           LDRB     R2,[R2, #+13]
   \   00000080   000052E3           CMP      R2,#+0
   \   00000084   FAFFFF0A           BEQ      ??_Tree_3
   \                     ??_Tree_2:
   \   00000088   001084E5           STR      R1,[R4, #+0]
   \   0000008C   082090E5           LDR      R2,[R0, #+8]
   \   00000090   081084E2           ADD      R1,R4,#+8
   \   00000094   0D20D2E5           LDRB     R2,[R2, #+13]
   \   00000098   000052E3           CMP      R2,#+0
   \   0000009C   0400001A           BNE      ??_Tree_4
   \                     ??_Tree_5:
   \   000000A0   080090E5           LDR      R0,[R0, #+8]
   \   000000A4   082090E5           LDR      R2,[R0, #+8]
   \   000000A8   0D20D2E5           LDRB     R2,[R2, #+13]
   \   000000AC   000052E3           CMP      R2,#+0
   \   000000B0   FAFFFF0A           BEQ      ??_Tree_5
   \                     ??_Tree_4:
   \   000000B4   000081E5           STR      R0,[R1, #+0]
   \   000000B8   010000EA           B        ??_Tree_6
   \                     ??_Tree_1:
   \   000000BC   004084E5           STR      R4,[R4, #+0]
   \   000000C0   084084E5           STR      R4,[R4, #+8]
   \                     ??_Tree_6:
   \   000000C4   0400A0E1           MOV      R0,R4
   \   000000C8   3040BDE8           POP      {R4,R5,LR}
   \   000000CC   1EFF2FE1           BX       LR               ;; return

   \                                 In segment CODE, align 4, keep-with-next
   \   __??Code32?? __code __interwork __atpcs _Tree<_Tset_traits<PRogramObjectBase *, less<PRogramObjectBase *>, allocator<PRogramObjectBase *>, false>>::_Nodeptr _Tree<_Tset_traits<PRogramObjectBase *, less<PRogramObjectBase *>, allocator<PRogramObjectBase *>, false>>::_Copy(_Tree<_Tset_traits<PRogramObjectBase *, less<PRogramObjectBase *>, allocator<PRogramObjectBase *>, false>>::_Nodeptr, _Tree<_Tset_traits<PRogramObjectBase *, less<PRogramObjectBase *>, allocator<PRogramObjectBase *>, false>>::_Nodeptr)
   \                     ??_Copy:
   \   00000000   F0472DE9           PUSH     {R4-R10,LR}
   \   00000004   0040A0E1           MOV      R4,R0
   \   00000008   0150A0E1           MOV      R5,R1
   \   0000000C   0D00D5E5           LDRB     R0,[R5, #+13]
   \   00000010   0280A0E1           MOV      R8,R2
   \   00000014   0460A0E1           MOV      R6,R4
   \   00000018   000050E3           CMP      R0,#+0
   \   0000001C   1900001A           BNE      ??_Copy_1
   \   00000020   0C90D5E5           LDRB     R9,[R5, #+12]
   \   00000024   10A095E5           LDR      R10,[R5, #+16]
   \   00000028   1400A0E3           MOV      R0,#+20
   \   0000002C   ........           _BLF     `??operator new`,`??operator new??rA`
   \   00000030   0070B0E1           MOVS     R7,R0
   \   00000034   0600000A           BEQ      ??_Copy_2
   \   00000038   004087E5           STR      R4,[R7, #+0]
   \   0000003C   048087E5           STR      R8,[R7, #+4]
   \   00000040   084087E5           STR      R4,[R7, #+8]
   \   00000044   0C90C7E5           STRB     R9,[R7, #+12]
   \   00000048   0000A0E3           MOV      R0,#+0
   \   0000004C   0D00C7E5           STRB     R0,[R7, #+13]
   \   00000050   10A087E5           STR      R10,[R7, #+16]
   \                     ??_Copy_2:
   \   00000054   0D00D6E5           LDRB     R0,[R6, #+13]
   \   00000058   001095E5           LDR      R1,[R5, #+0]
   \   0000005C   0720A0E1           MOV      R2,R7
   \   00000060   000050E3           CMP      R0,#+0
   \   00000064   0760A011           MOVNE    R6,R7
   \   00000068   0400A0E1           MOV      R0,R4
   \   0000006C   E3FFFFEB           BL       ??_Copy
   \   00000070   000087E5           STR      R0,[R7, #+0]
   \   00000074   081095E5           LDR      R1,[R5, #+8]
   \   00000078   0720A0E1           MOV      R2,R7
   \   0000007C   0400A0E1           MOV      R0,R4
   \   00000080   DEFFFFEB           BL       ??_Copy
   \   00000084   080087E5           STR      R0,[R7, #+8]
   \                     ??_Copy_1:
   \   00000088   0600A0E1           MOV      R0,R6
   \   0000008C   F047BDE8           POP      {R4-R10,LR}
   \   00000090   1EFF2FE1           BX       LR               ;; return

   \                                 In segment CODE, align 4, keep-with-next
   \   __??Code32?? __code __interwork __atpcs void _Tree<_Tset_traits<PRogramObjectBase *, less<PRogramObjectBase *>, allocator<PRogramObjectBase *>, false>>::_Erase(_Tree<_Tset_traits<PRogramObjectBase *, less<PRogramObjectBase *>, allocator<PRogramObjectBase *>, false>>::_Nodeptr)
   \                     ??_Erase:
   \   00000000   70402DE9           PUSH     {R4-R6,LR}
   \   00000004   0040A0E1           MOV      R4,R0
   \   00000008   0150A0E1           MOV      R5,R1
   \   0000000C   0560A0E1           MOV      R6,R5
   \   00000010   0D00D6E5           LDRB     R0,[R6, #+13]
   \   00000014   000050E3           CMP      R0,#+0
   \   00000018   0900001A           BNE      ??_Erase_1
   \                     ??_Erase_2:
   \   0000001C   081096E5           LDR      R1,[R6, #+8]
   \   00000020   0400A0E1           MOV      R0,R4
   \   00000024   F5FFFFEB           BL       ??_Erase
   \   00000028   006096E5           LDR      R6,[R6, #+0]
   \   0000002C   0500A0E1           MOV      R0,R5
   \   00000030   ........           _BLF     `??operator delete`,`??operator delete??rA`
   \   00000034   0D00D6E5           LDRB     R0,[R6, #+13]
   \   00000038   0650A0E1           MOV      R5,R6
   \   0000003C   000050E3           CMP      R0,#+0
   \   00000040   F5FFFF0A           BEQ      ??_Erase_2
   \                     ??_Erase_1:
   \   00000044   7040BDE8           POP      {R4-R6,LR}
   \   00000048   1EFF2FE1           BX       LR               ;; return
      2          
      3          

   \                                 In segment CODE, align 4, keep-with-next
      4          TDUAppSetupBallast::~TDUAppSetupBallast(void)
      5          {
   \                     `?~TDUAppSetupBallast`:
   \   00000000   00402DE9           PUSH     {LR}
      6          }
   \   00000004   ........           _BLF     `?~TDUBasicWin`,`?~TDUBasicWin??rA`
   \   00000008   0040BDE8           POP      {LR}
   \   0000000C   1EFF2FE1           BX       LR               ;; return
      7          

   \                                 In segment CODE, align 4, keep-with-next
      8          TDUAppSetupBallast::TDUAppSetupBallast(void)
   \                     ??TDUAppSetupBallast:
   \   00000000   10402DE9           PUSH     {R4,LR}
   \   00000004   0040A0E1           MOV      R4,R0
      9          {
   \   00000008   ........           _BLF     ??TDUBasicWin,??TDUBasicWin??rA
     10          	ValTabPtr = PROBallastTank::GetValueInfoTableStatic(ValTabEntries,TAB_TANK_VALUES);
   \   0000000C   0010A0E3           MOV      R1,#+0
   \   00000010   5C0084E2           ADD      R0,R4,#+92
   \   00000014   ........           _BLF     ??GetValueInfoTableStatic,??GetValueInfoTableStatic??rA
   \   00000018   600084E5           STR      R0,[R4, #+96]
     11          	AppSetupBallastIsClosed = true;
   \   0000001C   ........           LDR      R0,??DataTable1  ;; AppSetupBallastIsClosed
   \   00000020   0110A0E3           MOV      R1,#+1
   \   00000024   0010C0E5           STRB     R1,[R0, #+0]
     12          }
   \   00000028   0400A0E1           MOV      R0,R4
   \   0000002C   1040BDE8           POP      {R4,LR}
   \   00000030   1EFF2FE1           BX       LR               ;; return
     13          

   \                                 In segment DATA_C, align 4, align-sorted
     14          const GUI_WIDGET_CREATE_INFO TDUAppSetupBallast::aDialogCreate[] =
   \                     ??aDialogCreate:
   \   00000000   ............       DC32 FRAMEWIN_CreateIndirect, `?<Constant "Application setup">`
   \              ....        
   \   00000008   950800000000       DC16 2197, 0, 0, 0, 0, 128
   \              000000008000
   \   00000014   00000000....       DC32 0, TEXT_CreateIndirect, `?<Constant "Operation mode">`
   \              ............
   \   00000020   040A05009D00       DC16 2564, 5, 157, 80, 15, 0
   \              50000F000000
   \   0000002C   00000000           DC8 0, 0, 0, 0
   \   00000030   ........0000       DC32 DROPDOWN_CreateIndirect, 0H
   \              0000        
   \   00000038   C00A5A009D00       DC16 2752, 90, 157, 85, 50, 2
   \              550032000200
   \   00000044   03000000....       DC32 3, TEXT_CreateIndirect, `?<Constant "Col. 1">`
   \              ............
   \   00000050   FE0904000400       DC16 2558, 4, 4, 40, 15, 0
   \              28000F000000
   \   0000005C   00000000           DC8 0, 0, 0, 0
   \   00000060   ............       DC32 TEXT_CreateIndirect, `?<Constant "Col. 2">`
   \              ....        
   \   00000068   FF092C000400       DC16 2559, 44, 4, 74, 15, 0
   \              4A000F000000
   \   00000074   00000000           DC8 0, 0, 0, 0
   \   00000078   ............       DC32 TEXT_CreateIndirect, `?<Constant "Col. 3">`
   \              ....        
   \   00000080   000A7C000400       DC16 2560, 124, 4, 74, 15, 0
   \              4A000F000000
   \   0000008C   00000000           DC8 0, 0, 0, 0
   \   00000090   ............       DC32 TEXT_CreateIndirect, `?<Constant "Col. 4">`
   \              ....        
   \   00000098   010ACC000400       DC16 2561, 204, 4, 74, 15, 0
   \              4A000F000000
   \   000000A4   00000000           DC8 0, 0, 0, 0
   \   000000A8   ............       DC32 TEXT_CreateIndirect, `?<Constant "Name ">`
   \              ....        
   \   000000B0   020A04001400       DC16 2562, 4, 20, 74, 15, 0
   \              4A000F000000
   \   000000BC   00000000           DC8 0, 0, 0, 0
   \   000000C0   ........0000       DC32 DROPDOWN_CreateIndirect, 0H
   \              0000        
   \   000000C8   81012C001400       DC16 385, 44, 20, 74, 110, 0
   \              4A006E000000
   \   000000D4   03000000....       DC32 3, DROPDOWN_CreateIndirect, 0H
   \              ....00000000
   \   000000E0   82017C001400       DC16 386, 124, 20, 74, 110, 0
   \              4A006E000000
   \   000000EC   03000000....       DC32 3, DROPDOWN_CreateIndirect, 0H
   \              ....00000000
   \   000000F8   8301CC001400       DC16 387, 204, 20, 74, 110, 0
   \              4A006E000000
   \   00000104   03000000....       DC32 3, TEXT_CreateIndirect, `?<Constant "unit">`
   \              ............
   \   00000110   620130002800       DC16 354, 48, 40, 74, 15, 0
   \              4A000F000000
   \   0000011C   00000000           DC8 0, 0, 0, 0
   \   00000120   ............       DC32 TEXT_CreateIndirect, `?<Constant "unit">`
   \              ....        
   \   00000128   630180002800       DC16 355, 128, 40, 74, 15, 0
   \              4A000F000000
   \   00000134   00000000           DC8 0, 0, 0, 0
   \   00000138   ............       DC32 TEXT_CreateIndirect, `?<Constant "unit">`
   \              ....        
   \   00000140   6401D0002800       DC16 356, 208, 40, 74, 15, 0
   \              4A000F000000
   \   0000014C   00000000           DC8 0, 0, 0, 0
   \   00000150   ............       DC32 BUTTON_CreateIndirect, `?<Constant "Zero adjust tank\\n pre...">`
   \              ....        
   \   00000158   700105006900       DC16 368, 5, 105, 130, 45
   \              82002D00    
   \   00000162   000000000000       DC8 0, 0, 0, 0, 0, 0
   \   00000168   ............       DC32 BUTTON_CreateIndirect, `?<Constant "Zero adjust level\\n se...">`
   \              ....        
   \   00000170   710190006900       DC16 369, 144, 105, 130, 45
   \              82002D00    
   \   0000017A   000000000000       DC8 0, 0, 0, 0, 0, 0
   \   00000180   ............       DC32 BUTTON_CreateIndirect, `?<Constant "Close">`
   \              ....        
   \   00000188   0500BE009A00       DC16 5, 190, 154, 85, 25
   \              55001900    
   \   00000192   000000000000       DC8 0, 0, 0, 0, 0, 0
   \   00000198   ............       DC32 TEXT_CreateIndirect, `?<Constant "Ballast water density">`
   \              ....        
   \   000001A0   030A05005000       DC16 2563, 5, 80, 125, 15, 0
   \              7D000F000000
   \   000001AC   00000000           DC8 0, 0, 0, 0
   \   000001B0   ........0000       DC32 EDIT_CreateIndirect, 0H
   \              0000        
   \   000001B8   010182005000       DC16 257, 130, 80, 65, 15, 1
   \              41000F000100
   \   000001C4   00000000           DC8 0, 0, 0, 0
   \   000001C8   ............       DC32 TEXT_CreateIndirect, `?<Constant "">`
   \              ....        
   \   000001D0   6901C8005000       DC16 361, 200, 80, 75, 15, 0
   \              4B000F000000
   \   000001DC   00000000           DC8 0, 0, 0, 0
     15          {
     16          	{ FRAMEWIN_CreateIndirect, "Application setup", TDU_APPBALLAST_WIN, 0, 0, 0, 0, FRAMEWIN_CF_MAXIMIZED, 0},
     17          	{ TEXT_CreateIndirect, "Operation mode"       , GUI_ID_TEXT16   ,   5, 157,  80, 15, TEXT_CF_LEFT},
     18          	{ DROPDOWN_CreateIndirect,   NULL             , GUI_ID_DROPDOWN4,  90, 157,  85, 50, DROPDOWN_CF_UP, 3},
     19          	{ TEXT_CreateIndirect, "Col. 1"           , GUI_ID_TEXT10,   4,   4,  40,  15, TEXT_CF_LEFT},
     20          	{ TEXT_CreateIndirect, "Col. 2"           , GUI_ID_TEXT11,  44,   4,  74,  15, TEXT_CF_LEFT},
     21          	{ TEXT_CreateIndirect, "Col. 3"           , GUI_ID_TEXT12, 124,   4,  74,  15, TEXT_CF_LEFT},
     22          	{ TEXT_CreateIndirect, "Col. 4"           , GUI_ID_TEXT13, 204,   4,  74,  15, TEXT_CF_LEFT},
     23          	{ TEXT_CreateIndirect, "Name "            , GUI_ID_TEXT14,   4,  20,  74,  15, TEXT_CF_LEFT},
     24          	{ DROPDOWN_CreateIndirect, NULL        , GUI_ID_DROPDOWN1,  44,  20,  74, 110, 0, 3},
     25          	{ DROPDOWN_CreateIndirect, NULL        , GUI_ID_DROPDOWN2, 124,  20,  74, 110, 0, 3},
     26          	{ DROPDOWN_CreateIndirect, NULL        , GUI_ID_DROPDOWN3, 204,  20,  74, 110, 0, 3},
     27          	{ TEXT_CreateIndirect, "unit"             ,  GUI_ID_TEXT2,  48,  40,  74,  15, TEXT_CF_LEFT},
     28          	{ TEXT_CreateIndirect, "unit"             ,  GUI_ID_TEXT3, 128,  40,  74,  15, TEXT_CF_LEFT},
     29          	{ TEXT_CreateIndirect, "unit"             ,  GUI_ID_TEXT4, 208,  40,  74,  15, TEXT_CF_LEFT},
     30          	{ BUTTON_CreateIndirect,"Zero adjust tank\n pressure sensor for\n all ballast tanks." ,GUI_ID_BUTTON0,  5,  105, 130, 45},
     31          	{ BUTTON_CreateIndirect,"Zero adjust level\n sensor(s) for\n all ballast tanks."      ,GUI_ID_BUTTON1,  144, 105, 130, 45},
     32          	{ BUTTON_CreateIndirect,"Close"                                                       ,GUI_ID_CLOSE   ,  190, 154,  85, 25},
     33          
     34          	{ TEXT_CreateIndirect, "Ballast water density"    ,  GUI_ID_TEXT15 ,   5,  80, 125, 15, TEXT_CF_LEFT},
     35          	{ EDIT_CreateIndirect, NULL                       ,  GUI_ID_EDIT1, 130,  80, 65, 15, GUI_TA_RIGHT},
     36          	{ TEXT_CreateIndirect, ""                         ,  GUI_ID_TEXT9, 200,  80, 75, 15, TEXT_CF_LEFT},
     37          
     38          };
     39          
     40          

   \                                 In segment CODE, align 4, keep-with-next
     41          void TDUAppSetupBallast::ExecDialogBox(WM_HWIN hCurrentWin)
     42          {
   \                     ??ExecDialogBox:
   \   00000000   10402DE9           PUSH     {R4,LR}
   \   00000004   0040A0E1           MOV      R4,R0
     43          	if ( AppSetupBallastIsClosed ) {
   \   00000008   ........           LDR      R0,??DataTable1  ;; AppSetupBallastIsClosed
   \   0000000C   0020D0E5           LDRB     R2,[R0, #+0]
   \   00000010   000052E3           CMP      R2,#+0
   \   00000014   2100000A           BEQ      ??ExecDialogBox_1
     44          		AppSetupBallastIsClosed = false;
   \   00000018   0020A0E3           MOV      R2,#+0
   \   0000001C   0020C0E5           STRB     R2,[R0, #+0]
     45          		//	WinHandl = GUI_ExecDialogBox(aDialogCreate, GUI_COUNTOF(aDialogCreate),&cbTankSetup,
     46          		//												hCurrentWin, 0, 0);
     47          		WinHandl = GUI_CreateDialogBox(aDialogCreate, GUI_COUNTOF(aDialogCreate),&cbTankSetup,hCurrentWin, 0, 0);
   \   00000020   88209FE5           LDR      R2,??ExecDialogBox_2  ;; ??cbTankSetup
   \   00000024   0000A0E3           MOV      R0,#+0
   \   00000028   01002DE9           PUSH     {R0}
   \   0000002C   01002DE9           PUSH     {R0}
   \   00000030   7C009FE5           LDR      R0,??ExecDialogBox_2+0x4  ;; ??aDialogCreate
   \   00000034   0130A0E1           MOV      R3,R1
   \   00000038   1410A0E3           MOV      R1,#+20
   \   0000003C   ........           _BLF     GUI_CreateDialogBox,??GUI_CreateDialogBox??rA
   \   00000040   BA02C4E1           STRH     R0,[R4, #+42]
     48          		DROPDOWN_SetAutoScroll( WM_GetDialogItem(WinHandl, GUI_ID_DROPDOWN1), 1 );
   \   00000044   8110A0E3           MOV      R1,#+129
   \   00000048   401F81E3           ORR      R1,R1,#0x100
   \   0000004C   ........           _BLF     WM_GetDialogItem,??WM_GetDialogItem??rA
   \   00000050   0110A0E3           MOV      R1,#+1
   \   00000054   ........           _BLF     DROPDOWN_SetAutoScroll,??DROPDOWN_SetAutoScroll??rA
     49          		DROPDOWN_SetAutoScroll( WM_GetDialogItem(WinHandl, GUI_ID_DROPDOWN2), 1 );
   \   00000058   FA02D4E1           LDRSH    R0,[R4, #+42]
   \   0000005C   8210A0E3           MOV      R1,#+130
   \   00000060   401F81E3           ORR      R1,R1,#0x100
   \   00000064   ........           _BLF     WM_GetDialogItem,??WM_GetDialogItem??rA
   \   00000068   0110A0E3           MOV      R1,#+1
   \   0000006C   ........           _BLF     DROPDOWN_SetAutoScroll,??DROPDOWN_SetAutoScroll??rA
     50          		DROPDOWN_SetAutoScroll( WM_GetDialogItem(WinHandl, GUI_ID_DROPDOWN3), 1 );
   \   00000070   FA02D4E1           LDRSH    R0,[R4, #+42]
   \   00000074   8310A0E3           MOV      R1,#+131
   \   00000078   401F81E3           ORR      R1,R1,#0x100
   \   0000007C   ........           _BLF     WM_GetDialogItem,??WM_GetDialogItem??rA
   \   00000080   0110A0E3           MOV      R1,#+1
   \   00000084   ........           _BLF     DROPDOWN_SetAutoScroll,??DROPDOWN_SetAutoScroll??rA
     51          		WM_EnableMemdev(WinHandl);
   \   00000088   FA02D4E1           LDRSH    R0,[R4, #+42]
   \   0000008C   ........           _BLF     WM_EnableMemdev,??WM_EnableMemdev??rA
     52          		GetDialogHandles();
   \   00000090   0400A0E1           MOV      R0,R4
   \   00000094   ........           BL       ??GetDialogHandles
   \   00000098   08D08DE2           ADD      SP,SP,#+8
   \   0000009C   010000EA           B        ??ExecDialogBox_3
     53          		//if ( hTimer ) WM_RestartTimer(hTimer, 1000); else hTimer  = WM_CreateTimer(WinHandl, 0, 1000, 0);
     54          	} else {
     55          		WM_BringToTop(WinHandl);
   \                     ??ExecDialogBox_1:
   \   000000A0   FA02D4E1           LDRSH    R0,[R4, #+42]
   \   000000A4   ........           _BLF     WM_BringToTop,??WM_BringToTop??rA
     56          	}
     57          }
   \                     ??ExecDialogBox_3:
   \   000000A8   1040BDE8           POP      {R4,LR}
   \   000000AC   1EFF2FE1           BX       LR               ;; return
   \                     ??ExecDialogBox_2:
   \   000000B0   ........           DC32     ??cbTankSetup
   \   000000B4   ........           DC32     ??aDialogCreate
     58          
     59          /*********************************************************************
     60          *
     61          * Dialog procedure
     62          */

   \                                 In segment CODE, align 4, keep-with-next
     63          void TDUAppSetupBallast::GetDialogHandles(void)
     64          {
   \                     ??GetDialogHandles:
   \   00000000   10402DE9           PUSH     {R4,LR}
   \   00000004   0040A0E1           MOV      R4,R0
     65          	/* Get window handles for all widgets */
     66          	hDropdCol2        = WM_GetDialogItem(WinHandl, GUI_ID_DROPDOWN1);
   \   00000008   FA02D4E1           LDRSH    R0,[R4, #+42]
   \   0000000C   8110A0E3           MOV      R1,#+129
   \   00000010   401F81E3           ORR      R1,R1,#0x100
   \   00000014   ........           _BLF     WM_GetDialogItem,??WM_GetDialogItem??rA
   \   00000018   B403C4E1           STRH     R0,[R4, #+52]
     67          	hDropdCol3        = WM_GetDialogItem(WinHandl, GUI_ID_DROPDOWN2);
   \   0000001C   FA02D4E1           LDRSH    R0,[R4, #+42]
   \   00000020   8210A0E3           MOV      R1,#+130
   \   00000024   401F81E3           ORR      R1,R1,#0x100
   \   00000028   ........           _BLF     WM_GetDialogItem,??WM_GetDialogItem??rA
   \   0000002C   B603C4E1           STRH     R0,[R4, #+54]
     68          	hDropdCol4        = WM_GetDialogItem(WinHandl, GUI_ID_DROPDOWN3);
   \   00000030   FA02D4E1           LDRSH    R0,[R4, #+42]
   \   00000034   8310A0E3           MOV      R1,#+131
   \   00000038   401F81E3           ORR      R1,R1,#0x100
   \   0000003C   ........           _BLF     WM_GetDialogItem,??WM_GetDialogItem??rA
   \   00000040   B803C4E1           STRH     R0,[R4, #+56]
     69          	hDropdOpMode      = WM_GetDialogItem(WinHandl, GUI_ID_DROPDOWN4);
   \   00000044   FA02D4E1           LDRSH    R0,[R4, #+42]
   \   00000048   AC1EA0E3           MOV      R1,#+2752
   \   0000004C   ........           _BLF     WM_GetDialogItem,??WM_GetDialogItem??rA
   \   00000050   BA03C4E1           STRH     R0,[R4, #+58]
     70          	hTextUnitCol2     = WM_GetDialogItem(WinHandl, GUI_ID_TEXT2);
   \   00000054   FA02D4E1           LDRSH    R0,[R4, #+42]
   \   00000058   6210A0E3           MOV      R1,#+98
   \   0000005C   401F81E3           ORR      R1,R1,#0x100
   \   00000060   ........           _BLF     WM_GetDialogItem,??WM_GetDialogItem??rA
   \   00000064   BC03C4E1           STRH     R0,[R4, #+60]
     71          	hTextUnitCol3     = WM_GetDialogItem(WinHandl, GUI_ID_TEXT3);
   \   00000068   FA02D4E1           LDRSH    R0,[R4, #+42]
   \   0000006C   6310A0E3           MOV      R1,#+99
   \   00000070   401F81E3           ORR      R1,R1,#0x100
   \   00000074   ........           _BLF     WM_GetDialogItem,??WM_GetDialogItem??rA
   \   00000078   BE03C4E1           STRH     R0,[R4, #+62]
     72          	hTextUnitCol4     = WM_GetDialogItem(WinHandl, GUI_ID_TEXT4);
   \   0000007C   FA02D4E1           LDRSH    R0,[R4, #+42]
   \   00000080   591FA0E3           MOV      R1,#+356
   \   00000084   ........           _BLF     WM_GetDialogItem,??WM_GetDialogItem??rA
   \   00000088   B004C4E1           STRH     R0,[R4, #+64]
     73          	hTextTotalVol       = WM_GetDialogItem(WinHandl, GUI_ID_TEXT5);
   \   0000008C   FA02D4E1           LDRSH    R0,[R4, #+42]
   \   00000090   6510A0E3           MOV      R1,#+101
   \   00000094   401F81E3           ORR      R1,R1,#0x100
   \   00000098   ........           _BLF     WM_GetDialogItem,??WM_GetDialogItem??rA
   \   0000009C   B204C4E1           STRH     R0,[R4, #+66]
     74          	hTextTotalVolUnit = WM_GetDialogItem(WinHandl, GUI_ID_TEXT6);
   \   000000A0   FA02D4E1           LDRSH    R0,[R4, #+42]
   \   000000A4   6610A0E3           MOV      R1,#+102
   \   000000A8   401F81E3           ORR      R1,R1,#0x100
   \   000000AC   ........           _BLF     WM_GetDialogItem,??WM_GetDialogItem??rA
   \   000000B0   B404C4E1           STRH     R0,[R4, #+68]
     75          	hTextTotalWgt       = WM_GetDialogItem(WinHandl, GUI_ID_TEXT7);
   \   000000B4   FA02D4E1           LDRSH    R0,[R4, #+42]
   \   000000B8   6710A0E3           MOV      R1,#+103
   \   000000BC   401F81E3           ORR      R1,R1,#0x100
   \   000000C0   ........           _BLF     WM_GetDialogItem,??WM_GetDialogItem??rA
   \   000000C4   B604C4E1           STRH     R0,[R4, #+70]
     76          	hTextTotalWgtUnit = WM_GetDialogItem(WinHandl, GUI_ID_TEXT8);
   \   000000C8   FA02D4E1           LDRSH    R0,[R4, #+42]
   \   000000CC   5A1FA0E3           MOV      R1,#+360
   \   000000D0   ........           _BLF     WM_GetDialogItem,??WM_GetDialogItem??rA
   \   000000D4   B804C4E1           STRH     R0,[R4, #+72]
     77          	hTextDensUnit5    = WM_GetDialogItem(WinHandl, GUI_ID_TEXT9);
   \   000000D8   FA02D4E1           LDRSH    R0,[R4, #+42]
   \   000000DC   6910A0E3           MOV      R1,#+105
   \   000000E0   401F81E3           ORR      R1,R1,#0x100
   \   000000E4   ........           _BLF     WM_GetDialogItem,??WM_GetDialogItem??rA
   \   000000E8   BA04C4E1           STRH     R0,[R4, #+74]
     78          	hEditBallastDens1 = WM_GetDialogItem(WinHandl, GUI_ID_EDIT1);
   \   000000EC   FA02D4E1           LDRSH    R0,[R4, #+42]
   \   000000F0   0110A0E3           MOV      R1,#+1
   \   000000F4   401F81E3           ORR      R1,R1,#0x100
   \   000000F8   ........           _BLF     WM_GetDialogItem,??WM_GetDialogItem??rA
   \   000000FC   BC04C4E1           STRH     R0,[R4, #+76]
     79          	hButZeroTP        = WM_GetDialogItem(WinHandl, GUI_ID_BUTTON0);
   \   00000100   FA02D4E1           LDRSH    R0,[R4, #+42]
   \   00000104   5C1FA0E3           MOV      R1,#+368
   \   00000108   ........           _BLF     WM_GetDialogItem,??WM_GetDialogItem??rA
   \   0000010C   B605C4E1           STRH     R0,[R4, #+86]
     80          	hButZeroLevel     = WM_GetDialogItem(WinHandl, GUI_ID_BUTTON1);
   \   00000110   FA02D4E1           LDRSH    R0,[R4, #+42]
   \   00000114   7110A0E3           MOV      R1,#+113
   \   00000118   401F81E3           ORR      R1,R1,#0x100
   \   0000011C   ........           _BLF     WM_GetDialogItem,??WM_GetDialogItem??rA
   \   00000120   B805C4E1           STRH     R0,[R4, #+88]
     81          	InitDialog();
   \   00000124   0400A0E1           MOV      R0,R4
   \   00000128   ........           BL       ??InitDialog
     82          }
   \   0000012C   1040BDE8           POP      {R4,LR}
   \   00000130   1EFF2FE1           BX       LR               ;; return
     83          

   \                                 In segment CODE, align 4, keep-with-next
     84          void TDUAppSetupBallast::InitDialog(void)
     85          {
   \                     ??InitDialog:
   \   00000000   F0432DE9           PUSH     {R4-R9,LR}
   \   00000004   D8D04DE2           SUB      SP,SP,#+216
   \   00000008   0040A0E1           MOV      R4,R0
   \   0000000C   020000EA           B        ??InitDialog_1
     86          	/* Initialize all widgets */
     87          	while ( DROPDOWN_GetNumItems(hDropdCol2)>0 ) {
     88          		DROPDOWN_DeleteItem(hDropdCol2, 0);
   \                     ??InitDialog_2:
   \   00000010   F403D4E1           LDRSH    R0,[R4, #+52]
   \   00000014   0010A0E3           MOV      R1,#+0
   \   00000018   ........           _BLF     DROPDOWN_DeleteItem,??DROPDOWN_DeleteItem??rA
     89          	}
   \                     ??InitDialog_1:
   \   0000001C   F403D4E1           LDRSH    R0,[R4, #+52]
   \   00000020   ........           _BLF     DROPDOWN_GetNumItems,??DROPDOWN_GetNumItems??rA
   \   00000024   010050E3           CMP      R0,#+1
   \   00000028   F8FFFFAA           BGE      ??InitDialog_2
     90          	while ( DROPDOWN_GetNumItems(hDropdCol3)>0 ) {
   \                     ??InitDialog_3:
   \   0000002C   F603D4E1           LDRSH    R0,[R4, #+54]
   \   00000030   ........           _BLF     DROPDOWN_GetNumItems,??DROPDOWN_GetNumItems??rA
   \   00000034   010050E3           CMP      R0,#+1
   \   00000038   060000BA           BLT      ??InitDialog_4
     91          		DROPDOWN_DeleteItem(hDropdCol3, 0);
   \   0000003C   F603D4E1           LDRSH    R0,[R4, #+54]
   \   00000040   0010A0E3           MOV      R1,#+0
   \   00000044   ........           _BLF     DROPDOWN_DeleteItem,??DROPDOWN_DeleteItem??rA
   \   00000048   F7FFFFEA           B        ??InitDialog_3
     92          	}
     93          	while ( DROPDOWN_GetNumItems(hDropdCol4)>0 ) {
     94          		DROPDOWN_DeleteItem(hDropdCol4, 0);
   \                     ??InitDialog_5:
   \   0000004C   F803D4E1           LDRSH    R0,[R4, #+56]
   \   00000050   0010A0E3           MOV      R1,#+0
   \   00000054   ........           _BLF     DROPDOWN_DeleteItem,??DROPDOWN_DeleteItem??rA
     95          	}
   \                     ??InitDialog_4:
   \   00000058   F803D4E1           LDRSH    R0,[R4, #+56]
   \   0000005C   ........           _BLF     DROPDOWN_GetNumItems,??DROPDOWN_GetNumItems??rA
   \   00000060   010050E3           CMP      R0,#+1
   \   00000064   F8FFFFAA           BGE      ??InitDialog_5
     96          	int ind1 = 0;
     97          	int ind2 = 0;
     98          	int ind3 = 0;
     99          	for ( int i = 0; i < ValTabEntries; i++ ) {
   \   00000068   5C0094E5           LDR      R0,[R4, #+92]
   \   0000006C   0050A0E3           MOV      R5,#+0
   \   00000070   0060A0E3           MOV      R6,#+0
   \   00000074   0570A0E1           MOV      R7,R5
   \   00000078   0580A0E1           MOV      R8,R5
   \   0000007C   010050E3           CMP      R0,#+1
   \   00000080   220000AA           BGE      ??InitDialog_6
    100          		DROPDOWN_AddString(hDropdCol2, FindDictionaryWord(ValTabPtr[i].Name).c_str());
    101          		DROPDOWN_AddString(hDropdCol3,  FindDictionaryWord(ValTabPtr[i].Name).c_str());
    102          		DROPDOWN_AddString(hDropdCol4,  FindDictionaryWord(ValTabPtr[i].Name).c_str());
    103          		if ( ValTabPtr[i].Value==BallastWindow->ValueTable[2].ValueId )ind1=i;
    104          		if ( ValTabPtr[i].Value==BallastWindow->ValueTable[3].ValueId )ind2=i;
    105          		if ( ValTabPtr[i].Value==BallastWindow->ValueTable[4].ValueId )ind3=i;
    106          	}
    107          	DROPDOWN_SetSel(hDropdCol2,ind1);
   \                     ??InitDialog_7:
   \   00000084   F403D4E1           LDRSH    R0,[R4, #+52]
   \   00000088   0510A0E1           MOV      R1,R5
   \   0000008C   ........           _BLF     DROPDOWN_SetSel,??DROPDOWN_SetSel??rA
    108          	DROPDOWN_SetSel(hDropdCol3,ind2);
   \   00000090   F603D4E1           LDRSH    R0,[R4, #+54]
   \   00000094   0610A0E1           MOV      R1,R6
   \   00000098   ........           _BLF     DROPDOWN_SetSel,??DROPDOWN_SetSel??rA
    109          	DROPDOWN_SetSel(hDropdCol4,ind3);
   \   0000009C   F803D4E1           LDRSH    R0,[R4, #+56]
   \   000000A0   0710A0E1           MOV      R1,R7
   \   000000A4   ........           _BLF     DROPDOWN_SetSel,??DROPDOWN_SetSel??rA
    110          // Operation Mode Drop Down
    111          	DROPDOWN_SetAutoScroll(hDropdOpMode,1);
   \   000000A8   FA03D4E1           LDRSH    R0,[R4, #+58]
   \   000000AC   0110A0E3           MOV      R1,#+1
   \   000000B0   ........           _BLF     DROPDOWN_SetAutoScroll,??DROPDOWN_SetAutoScroll??rA
   \   000000B4   420000EA           B        ??InitDialog_8
   \                     ??InitDialog_9:
   \   000000B8   F803D4E1           LDRSH    R0,[R4, #+56]
   \   000000BC   ........           _BLF     DROPDOWN_AddString,??DROPDOWN_AddString??rA
   \   000000C0   0020A0E3           MOV      R2,#+0
   \   000000C4   0110A0E3           MOV      R1,#+1
   \   000000C8   1C008DE2           ADD      R0,SP,#+28
   \   000000CC   ........           _BLF     ??_Tidy,??_Tidy??rA
   \   000000D0   ........           LDR      R0,??DataTable2  ;; BallastWindow
   \   000000D4   601094E5           LDR      R1,[R4, #+96]
   \   000000D8   000090E5           LDR      R0,[R0, #+0]
   \   000000DC   011089E0           ADD      R1,R9,R1
   \   000000E0   7C0090E5           LDR      R0,[R0, #+124]
   \   000000E4   082091E5           LDR      R2,[R1, #+8]
   \   000000E8   183090E5           LDR      R3,[R0, #+24]
   \   000000EC   030052E1           CMP      R2,R3
   \   000000F0   243090E5           LDR      R3,[R0, #+36]
   \   000000F4   300090E5           LDR      R0,[R0, #+48]
   \   000000F8   0850A001           MOVEQ    R5,R8
   \   000000FC   030052E1           CMP      R2,R3
   \   00000100   0860A001           MOVEQ    R6,R8
   \   00000104   000052E1           CMP      R2,R0
   \   00000108   0870A001           MOVEQ    R7,R8
   \   0000010C   018088E2           ADD      R8,R8,#+1
   \                     ??InitDialog_6:
   \   00000110   5C0094E5           LDR      R0,[R4, #+92]
   \   00000114   000058E1           CMP      R8,R0
   \   00000118   D9FFFFAA           BGE      ??InitDialog_7
   \   0000011C   0C00A0E3           MOV      R0,#+12
   \   00000120   900809E0           MUL      R9,R0,R8
   \   00000124   600094E5           LDR      R0,[R4, #+96]
   \   00000128   001099E7           LDR      R1,[R9, +R0]
   \   0000012C   38008DE2           ADD      R0,SP,#+56
   \   00000130   ........           _BLF     ??FindDictionaryWord,??FindDictionaryWord??rA
   \   00000134   50009DE5           LDR      R0,[SP, #+80]
   \   00000138   100050E3           CMP      R0,#+16
   \   0000013C   F403D4E1           LDRSH    R0,[R4, #+52]
   \   00000140   3C109D25           LDRCS    R1,[SP, #+60]
   \   00000144   3C108D32           ADDCC    R1,SP,#+60
   \   00000148   ........           _BLF     DROPDOWN_AddString,??DROPDOWN_AddString??rA
   \   0000014C   0020A0E3           MOV      R2,#+0
   \   00000150   0110A0E3           MOV      R1,#+1
   \   00000154   38008DE2           ADD      R0,SP,#+56
   \   00000158   ........           _BLF     ??_Tidy,??_Tidy??rA
   \   0000015C   600094E5           LDR      R0,[R4, #+96]
   \   00000160   001099E7           LDR      R1,[R9, +R0]
   \   00000164   0D00A0E1           MOV      R0,SP
   \   00000168   ........           _BLF     ??FindDictionaryWord,??FindDictionaryWord??rA
   \   0000016C   18009DE5           LDR      R0,[SP, #+24]
   \   00000170   100050E3           CMP      R0,#+16
   \   00000174   F603D4E1           LDRSH    R0,[R4, #+54]
   \   00000178   04109D25           LDRCS    R1,[SP, #+4]
   \   0000017C   04108D32           ADDCC    R1,SP,#+4
   \   00000180   ........           _BLF     DROPDOWN_AddString,??DROPDOWN_AddString??rA
   \   00000184   0020A0E3           MOV      R2,#+0
   \   00000188   0110A0E3           MOV      R1,#+1
   \   0000018C   0D00A0E1           MOV      R0,SP
   \   00000190   ........           _BLF     ??_Tidy,??_Tidy??rA
   \   00000194   600094E5           LDR      R0,[R4, #+96]
   \   00000198   001099E7           LDR      R1,[R9, +R0]
   \   0000019C   1C008DE2           ADD      R0,SP,#+28
   \   000001A0   ........           _BLF     ??FindDictionaryWord,??FindDictionaryWord??rA
   \   000001A4   34009DE5           LDR      R0,[SP, #+52]
   \   000001A8   100050E3           CMP      R0,#+16
   \   000001AC   20109D25           LDRCS    R1,[SP, #+32]
   \   000001B0   20108D32           ADDCC    R1,SP,#+32
   \   000001B4   BFFFFFEA           B        ??InitDialog_9
    112          	while ( DROPDOWN_GetNumItems(hDropdOpMode)>0 ) {
    113          		DROPDOWN_DeleteItem(hDropdOpMode, 0);
   \                     ??InitDialog_10:
   \   000001B8   FA03D4E1           LDRSH    R0,[R4, #+58]
   \   000001BC   0010A0E3           MOV      R1,#+0
   \   000001C0   ........           _BLF     DROPDOWN_DeleteItem,??DROPDOWN_DeleteItem??rA
    114          	}
   \                     ??InitDialog_8:
   \   000001C4   FA03D4E1           LDRSH    R0,[R4, #+58]
   \   000001C8   ........           _BLF     DROPDOWN_GetNumItems,??DROPDOWN_GetNumItems??rA
   \   000001CC   010050E3           CMP      R0,#+1
   \   000001D0   F8FFFFAA           BGE      ??InitDialog_10
    115          	{
    116          		for ( int OpModeKey = (int)tSeaGoing; OpModeKey <= (int)tUndefined; OpModeKey++ ) {
   \   000001D4   0050A0E3           MOV      R5,#+0
    117          			AnsiString CName = PROXRefObject::GetStateString((TankState)OpModeKey);
   \                     ??InitDialog_11:
   \   000001D8   FF1005E2           AND      R1,R5,#0xFF
   \   000001DC   0D00A0E1           MOV      R0,SP
   \   000001E0   ........           _BLF     ??GetStateString,??GetStateString??rA
    118          			if ( !CName.IsEmpty() ) {
   \   000001E4   0D00A0E1           MOV      R0,SP
   \   000001E8   ........           _BLF     ??IsEmpty,??IsEmpty??rA
   \   000001EC   000050E3           CMP      R0,#+0
   \   000001F0   0500001A           BNE      ??InitDialog_12
    119          				DROPDOWN_AddString(hDropdOpMode, CName.c_str());
   \   000001F4   18009DE5           LDR      R0,[SP, #+24]
   \   000001F8   100050E3           CMP      R0,#+16
   \   000001FC   FA03D4E1           LDRSH    R0,[R4, #+58]
   \   00000200   04109D25           LDRCS    R1,[SP, #+4]
   \   00000204   04108D32           ADDCC    R1,SP,#+4
   \   00000208   ........           _BLF     DROPDOWN_AddString,??DROPDOWN_AddString??rA
    120          			}
    121          		}
   \                     ??InitDialog_12:
   \   0000020C   0020A0E3           MOV      R2,#+0
   \   00000210   0110A0E3           MOV      R1,#+1
   \   00000214   0D00A0E1           MOV      R0,SP
   \   00000218   ........           _BLF     ??_Tidy,??_Tidy??rA
   \   0000021C   015085E2           ADD      R5,R5,#+1
   \   00000220   050055E3           CMP      R5,#+5
   \   00000224   EBFFFFBA           BLT      ??InitDialog_11
    122          		int Selected = PROSystemData::TXUSystemData->GetOpModeState(SVT_TANK_STATE_STR_BAL);
   \   00000228   ........           LDR      R0,??DataTable3  ;; ??TXUSystemData
   \   0000022C   C910A0E3           MOV      R1,#+201
   \   00000230   000090E5           LDR      R0,[R0, #+0]
   \   00000234   501E81E3           ORR      R1,R1,#0x500
   \   00000238   ........           _BLF     ??GetOpModeState,??GetOpModeState??rA
    123          		SetSelected(GUI_ID_DROPDOWN4,Selected);
   \   0000023C   0020A0E1           MOV      R2,R0
   \   00000240   AC1EA0E3           MOV      R1,#+2752
   \   00000244   0400A0E1           MOV      R0,R4
   \   00000248   ........           _BLF     ??SetSelected,??SetSelected??rA
    124          
    125          	}
    126          	{
    127          		const GUIKey Words[] ={
    128          			{TDU_APPBALLAST_WIN ,0,L_WORD69},
    129          			{GUI_ID_TEXT10      ,0,L_WORD70},
    130          			{GUI_ID_TEXT11      ,0,L_WORD71},
    131          			{GUI_ID_TEXT12      ,0,L_WORD72},
    132          			{GUI_ID_TEXT13      ,0,L_WORD73},
    133          			{GUI_ID_TEXT14      ,0,L_WORD74},
    134          			{GUI_ID_BUTTON0    ,0,L_WORD75},
    135          			{GUI_ID_BUTTON1    ,0,L_WORD76},
    136          			{GUI_ID_CLOSE       ,0,L_WORD18},
    137          			{GUI_ID_TEXT15      ,0,L_WORD77},
    138          			{GUI_ID_TEXT16      ,0,L_WORD857},
    139          		};
   \   0000024C   34109FE5           LDR      R1,??InitDialog_13  ;; `?<Constant {{2197, 0, 69}, {2558, 0, 70}, {255`
   \   00000250   54008DE2           ADD      R0,SP,#+84
   \   00000254   8430A0E3           MOV      R3,#+132
   \                     ??InitDialog_14:
   \   00000258   043053E2           SUBS     R3,R3,#+4
   \   0000025C   032091E7           LDR      R2,[R1, R3]
   \   00000260   032080E7           STR      R2,[R0, R3]
   \   00000264   FBFFFF1A           BNE      ??InitDialog_14
    140          		AddToSKeyList((GUIKey*)Words,NELEMENTS(Words));
   \   00000268   0130A0E3           MOV      R3,#+1
   \   0000026C   0B20A0E3           MOV      R2,#+11
   \   00000270   54108DE2           ADD      R1,SP,#+84
   \   00000274   0400A0E1           MOV      R0,R4
   \   00000278   ........           _BLF     ??AddToSKeyList,??AddToSKeyList??rA
    141          
    142          	}
    143          
    144          }
   \   0000027C   D8D08DE2           ADD      SP,SP,#+216
   \   00000280   F043BDE8           POP      {R4-R9,LR}
   \   00000284   1EFF2FE1           BX       LR               ;; return
   \                     ??InitDialog_13:
   \   00000288   ........           DC32     `?<Constant {{2197, 0, 69}, {2558, 0, 70}, {255`
    145          

   \                                 In segment CODE, align 4, keep-with-next
    146          void TDUAppSetupBallast::UpdateDialog(WM_HWIN hWin,int Key)
    147          {
   \                     ??UpdateDialog:
   \   00000000   F0412DE9           PUSH     {R4-R8,LR}
   \   00000004   54D04DE2           SUB      SP,SP,#+84
   \   00000008   0040A0E1           MOV      R4,R0
   \   0000000C   0160A0E1           MOV      R6,R1
   \   00000010   0270A0E1           MOV      R7,R2
    148          	switch ( Key ) {
   \   00000014   810047E2           SUB      R0,R7,#+129
   \   00000018   400F40E2           SUB      R0,R0,#+256
   \   0000001C   3F10A0E3           MOV      R1,#+63
   \   00000020   901E81E3           ORR      R1,R1,#0x900
   \   00000024   010050E1           CMP      R0,R1
   \   00000028   F604008A           BHI      ??UpdateDialog_3
   \   0000002C   021F8FE2           ADR      R1,??UpdateDialog_1
   \   00000030   8000A0E1           MOV      R0,R0, LSL #+1
   \   00000034   B01091E1           LDRH     R1,[R1, R0]
   \   00000038   01F18FE0           ADD      PC,PC,R1, LSL #+2
   \                     ??UpdateDialog_1:
   \   0000003C   9F049F049F04       DC16     +1183,+1183,+1183,+1266
   \              F204        
   \   00000044   F204F204F204       DC16     +1266,+1266,+1266,+1266
   \              F204        
   \   0000004C   F204F204F204       DC16     +1266,+1266,+1266,+1266
   \              F204        
   \   00000054   F204F204F204       DC16     +1266,+1266,+1266,+1266
   \              F204        
   \   0000005C   F204F204F204       DC16     +1266,+1266,+1266,+1266
   \              F204        
   \   00000064   F204F204F204       DC16     +1266,+1266,+1266,+1266
   \              F204        
   \   0000006C   F204F204F204       DC16     +1266,+1266,+1266,+1266
   \              F204        
   \   00000074   F204F204F204       DC16     +1266,+1266,+1266,+1266
   \              F204        
   \   0000007C   F204F204F204       DC16     +1266,+1266,+1266,+1266
   \              F204        
   \   00000084   F204F204F204       DC16     +1266,+1266,+1266,+1266
   \              F204        
   \   0000008C   F204F204F204       DC16     +1266,+1266,+1266,+1266
   \              F204        
   \   00000094   F204F204F204       DC16     +1266,+1266,+1266,+1266
   \              F204        
   \   0000009C   F204F204F204       DC16     +1266,+1266,+1266,+1266
   \              F204        
   \   000000A4   F204F204F204       DC16     +1266,+1266,+1266,+1266
   \              F204        
   \   000000AC   F204F204F204       DC16     +1266,+1266,+1266,+1266
   \              F204        
   \   000000B4   F204F204F204       DC16     +1266,+1266,+1266,+1266
   \              F204        
   \   000000BC   F204F204F204       DC16     +1266,+1266,+1266,+1266
   \              F204        
   \   000000C4   F204F204F204       DC16     +1266,+1266,+1266,+1266
   \              F204        
   \   000000CC   F204F204F204       DC16     +1266,+1266,+1266,+1266
   \              F204        
   \   000000D4   F204F204F204       DC16     +1266,+1266,+1266,+1266
   \              F204        
   \   000000DC   F204F204F204       DC16     +1266,+1266,+1266,+1266
   \              F204        
   \   000000E4   F204F204F204       DC16     +1266,+1266,+1266,+1266
   \              F204        
   \   000000EC   F204F204F204       DC16     +1266,+1266,+1266,+1266
   \              F204        
   \   000000F4   F204F204F204       DC16     +1266,+1266,+1266,+1266
   \              F204        
   \   000000FC   F204F204F204       DC16     +1266,+1266,+1266,+1266
   \              F204        
   \   00000104   F204F204F204       DC16     +1266,+1266,+1266,+1266
   \              F204        
   \   0000010C   F204F204F204       DC16     +1266,+1266,+1266,+1266
   \              F204        
   \   00000114   F204F204F204       DC16     +1266,+1266,+1266,+1266
   \              F204        
   \   0000011C   F204F204F204       DC16     +1266,+1266,+1266,+1266
   \              F204        
   \   00000124   F204F204F204       DC16     +1266,+1266,+1266,+1266
   \              F204        
   \   0000012C   F204F204F204       DC16     +1266,+1266,+1266,+1266
   \              F204        
   \   00000134   F204F204F204       DC16     +1266,+1266,+1266,+1266
   \              F204        
   \   0000013C   F204F204F204       DC16     +1266,+1266,+1266,+1266
   \              F204        
   \   00000144   F204F204F204       DC16     +1266,+1266,+1266,+1266
   \              F204        
   \   0000014C   F204F204F204       DC16     +1266,+1266,+1266,+1266
   \              F204        
   \   00000154   F204F204F204       DC16     +1266,+1266,+1266,+1266
   \              F204        
   \   0000015C   F204F204F204       DC16     +1266,+1266,+1266,+1266
   \              F204        
   \   00000164   F204F204F204       DC16     +1266,+1266,+1266,+1266
   \              F204        
   \   0000016C   F204F204F204       DC16     +1266,+1266,+1266,+1266
   \              F204        
   \   00000174   F204F204F204       DC16     +1266,+1266,+1266,+1266
   \              F204        
   \   0000017C   F204F204F204       DC16     +1266,+1266,+1266,+1266
   \              F204        
   \   00000184   F204F204F204       DC16     +1266,+1266,+1266,+1266
   \              F204        
   \   0000018C   F204F204F204       DC16     +1266,+1266,+1266,+1266
   \              F204        
   \   00000194   F204F204F204       DC16     +1266,+1266,+1266,+1266
   \              F204        
   \   0000019C   F204F204F204       DC16     +1266,+1266,+1266,+1266
   \              F204        
   \   000001A4   F204F204F204       DC16     +1266,+1266,+1266,+1266
   \              F204        
   \   000001AC   F204F204F204       DC16     +1266,+1266,+1266,+1266
   \              F204        
   \   000001B4   F204F204F204       DC16     +1266,+1266,+1266,+1266
   \              F204        
   \   000001BC   F204F204F204       DC16     +1266,+1266,+1266,+1266
   \              F204        
   \   000001C4   F204F204F204       DC16     +1266,+1266,+1266,+1266
   \              F204        
   \   000001CC   F204F204F204       DC16     +1266,+1266,+1266,+1266
   \              F204        
   \   000001D4   F204F204F204       DC16     +1266,+1266,+1266,+1266
   \              F204        
   \   000001DC   F204F204F204       DC16     +1266,+1266,+1266,+1266
   \              F204        
   \   000001E4   F204F204F204       DC16     +1266,+1266,+1266,+1266
   \              F204        
   \   000001EC   F204F204F204       DC16     +1266,+1266,+1266,+1266
   \              F204        
   \   000001F4   F204F204F204       DC16     +1266,+1266,+1266,+1266
   \              F204        
   \   000001FC   F204F204F204       DC16     +1266,+1266,+1266,+1266
   \              F204        
   \   00000204   F204F204F204       DC16     +1266,+1266,+1266,+1266
   \              F204        
   \   0000020C   F204F204F204       DC16     +1266,+1266,+1266,+1266
   \              F204        
   \   00000214   F204F204F204       DC16     +1266,+1266,+1266,+1266
   \              F204        
   \   0000021C   F204F204F204       DC16     +1266,+1266,+1266,+1266
   \              F204        
   \   00000224   F204F204F204       DC16     +1266,+1266,+1266,+1266
   \              F204        
   \   0000022C   F204F204F204       DC16     +1266,+1266,+1266,+1266
   \              F204        
   \   00000234   F204F204F204       DC16     +1266,+1266,+1266,+1266
   \              F204        
   \   0000023C   F204F204F204       DC16     +1266,+1266,+1266,+1266
   \              F204        
   \   00000244   F204F204F204       DC16     +1266,+1266,+1266,+1266
   \              F204        
   \   0000024C   F204F204F204       DC16     +1266,+1266,+1266,+1266
   \              F204        
   \   00000254   F204F204F204       DC16     +1266,+1266,+1266,+1266
   \              F204        
   \   0000025C   F204F204F204       DC16     +1266,+1266,+1266,+1266
   \              F204        
   \   00000264   F204F204F204       DC16     +1266,+1266,+1266,+1266
   \              F204        
   \   0000026C   F204F204F204       DC16     +1266,+1266,+1266,+1266
   \              F204        
   \   00000274   F204F204F204       DC16     +1266,+1266,+1266,+1266
   \              F204        
   \   0000027C   F204F204F204       DC16     +1266,+1266,+1266,+1266
   \              F204        
   \   00000284   F204F204F204       DC16     +1266,+1266,+1266,+1266
   \              F204        
   \   0000028C   F204F204F204       DC16     +1266,+1266,+1266,+1266
   \              F204        
   \   00000294   F204F204F204       DC16     +1266,+1266,+1266,+1266
   \              F204        
   \   0000029C   F204F204F204       DC16     +1266,+1266,+1266,+1266
   \              F204        
   \   000002A4   F204F204F204       DC16     +1266,+1266,+1266,+1266
   \              F204        
   \   000002AC   F204F204F204       DC16     +1266,+1266,+1266,+1266
   \              F204        
   \   000002B4   F204F204F204       DC16     +1266,+1266,+1266,+1266
   \              F204        
   \   000002BC   F204F204F204       DC16     +1266,+1266,+1266,+1266
   \              F204        
   \   000002C4   F204F204F204       DC16     +1266,+1266,+1266,+1266
   \              F204        
   \   000002CC   F204F204F204       DC16     +1266,+1266,+1266,+1266
   \              F204        
   \   000002D4   F204F204F204       DC16     +1266,+1266,+1266,+1266
   \              F204        
   \   000002DC   F204F204F204       DC16     +1266,+1266,+1266,+1266
   \              F204        
   \   000002E4   F204F204F204       DC16     +1266,+1266,+1266,+1266
   \              F204        
   \   000002EC   F204F204F204       DC16     +1266,+1266,+1266,+1266
   \              F204        
   \   000002F4   F204F204F204       DC16     +1266,+1266,+1266,+1266
   \              F204        
   \   000002FC   F204F204F204       DC16     +1266,+1266,+1266,+1266
   \              F204        
   \   00000304   F204F204F204       DC16     +1266,+1266,+1266,+1266
   \              F204        
   \   0000030C   F204F204F204       DC16     +1266,+1266,+1266,+1266
   \              F204        
   \   00000314   F204F204F204       DC16     +1266,+1266,+1266,+1266
   \              F204        
   \   0000031C   F204F204F204       DC16     +1266,+1266,+1266,+1266
   \              F204        
   \   00000324   F204F204F204       DC16     +1266,+1266,+1266,+1266
   \              F204        
   \   0000032C   F204F204F204       DC16     +1266,+1266,+1266,+1266
   \              F204        
   \   00000334   F204F204F204       DC16     +1266,+1266,+1266,+1266
   \              F204        
   \   0000033C   F204F204F204       DC16     +1266,+1266,+1266,+1266
   \              F204        
   \   00000344   F204F204F204       DC16     +1266,+1266,+1266,+1266
   \              F204        
   \   0000034C   F204F204F204       DC16     +1266,+1266,+1266,+1266
   \              F204        
   \   00000354   F204F204F204       DC16     +1266,+1266,+1266,+1266
   \              F204        
   \   0000035C   F204F204F204       DC16     +1266,+1266,+1266,+1266
   \              F204        
   \   00000364   F204F204F204       DC16     +1266,+1266,+1266,+1266
   \              F204        
   \   0000036C   F204F204F204       DC16     +1266,+1266,+1266,+1266
   \              F204        
   \   00000374   F204F204F204       DC16     +1266,+1266,+1266,+1266
   \              F204        
   \   0000037C   F204F204F204       DC16     +1266,+1266,+1266,+1266
   \              F204        
   \   00000384   F204F204F204       DC16     +1266,+1266,+1266,+1266
   \              F204        
   \   0000038C   F204F204F204       DC16     +1266,+1266,+1266,+1266
   \              F204        
   \   00000394   F204F204F204       DC16     +1266,+1266,+1266,+1266
   \              F204        
   \   0000039C   F204F204F204       DC16     +1266,+1266,+1266,+1266
   \              F204        
   \   000003A4   F204F204F204       DC16     +1266,+1266,+1266,+1266
   \              F204        
   \   000003AC   F204F204F204       DC16     +1266,+1266,+1266,+1266
   \              F204        
   \   000003B4   F204F204F204       DC16     +1266,+1266,+1266,+1266
   \              F204        
   \   000003BC   F204F204F204       DC16     +1266,+1266,+1266,+1266
   \              F204        
   \   000003C4   F204F204F204       DC16     +1266,+1266,+1266,+1266
   \              F204        
   \   000003CC   F204F204F204       DC16     +1266,+1266,+1266,+1266
   \              F204        
   \   000003D4   F204F204F204       DC16     +1266,+1266,+1266,+1266
   \              F204        
   \   000003DC   F204F204F204       DC16     +1266,+1266,+1266,+1266
   \              F204        
   \   000003E4   F204F204F204       DC16     +1266,+1266,+1266,+1266
   \              F204        
   \   000003EC   F204F204F204       DC16     +1266,+1266,+1266,+1266
   \              F204        
   \   000003F4   F204F204F204       DC16     +1266,+1266,+1266,+1266
   \              F204        
   \   000003FC   F204F204F204       DC16     +1266,+1266,+1266,+1266
   \              F204        
   \   00000404   F204F204F204       DC16     +1266,+1266,+1266,+1266
   \              F204        
   \   0000040C   F204F204F204       DC16     +1266,+1266,+1266,+1266
   \              F204        
   \   00000414   F204F204F204       DC16     +1266,+1266,+1266,+1266
   \              F204        
   \   0000041C   F204F204F204       DC16     +1266,+1266,+1266,+1266
   \              F204        
   \   00000424   F204F204F204       DC16     +1266,+1266,+1266,+1266
   \              F204        
   \   0000042C   F204F204F204       DC16     +1266,+1266,+1266,+1266
   \              F204        
   \   00000434   F204F204F204       DC16     +1266,+1266,+1266,+1266
   \              F204        
   \   0000043C   F204F204F204       DC16     +1266,+1266,+1266,+1266
   \              F204        
   \   00000444   F204F204F204       DC16     +1266,+1266,+1266,+1266
   \              F204        
   \   0000044C   F204F204F204       DC16     +1266,+1266,+1266,+1266
   \              F204        
   \   00000454   F204F204F204       DC16     +1266,+1266,+1266,+1266
   \              F204        
   \   0000045C   F204F204F204       DC16     +1266,+1266,+1266,+1266
   \              F204        
   \   00000464   F204F204F204       DC16     +1266,+1266,+1266,+1266
   \              F204        
   \   0000046C   F204F204F204       DC16     +1266,+1266,+1266,+1266
   \              F204        
   \   00000474   F204F204F204       DC16     +1266,+1266,+1266,+1266
   \              F204        
   \   0000047C   F204F204F204       DC16     +1266,+1266,+1266,+1266
   \              F204        
   \   00000484   F204F204F204       DC16     +1266,+1266,+1266,+1266
   \              F204        
   \   0000048C   F204F204F204       DC16     +1266,+1266,+1266,+1266
   \              F204        
   \   00000494   F204F204F204       DC16     +1266,+1266,+1266,+1266
   \              F204        
   \   0000049C   F204F204F204       DC16     +1266,+1266,+1266,+1266
   \              F204        
   \   000004A4   F204F204F204       DC16     +1266,+1266,+1266,+1266
   \              F204        
   \   000004AC   F204F204F204       DC16     +1266,+1266,+1266,+1266
   \              F204        
   \   000004B4   F204F204F204       DC16     +1266,+1266,+1266,+1266
   \              F204        
   \   000004BC   F204F204F204       DC16     +1266,+1266,+1266,+1266
   \              F204        
   \   000004C4   F204F204F204       DC16     +1266,+1266,+1266,+1266
   \              F204        
   \   000004CC   F204F204F204       DC16     +1266,+1266,+1266,+1266
   \              F204        
   \   000004D4   F204F204F204       DC16     +1266,+1266,+1266,+1266
   \              F204        
   \   000004DC   F204F204F204       DC16     +1266,+1266,+1266,+1266
   \              F204        
   \   000004E4   F204F204F204       DC16     +1266,+1266,+1266,+1266
   \              F204        
   \   000004EC   F204F204F204       DC16     +1266,+1266,+1266,+1266
   \              F204        
   \   000004F4   F204F204F204       DC16     +1266,+1266,+1266,+1266
   \              F204        
   \   000004FC   F204F204F204       DC16     +1266,+1266,+1266,+1266
   \              F204        
   \   00000504   F204F204F204       DC16     +1266,+1266,+1266,+1266
   \              F204        
   \   0000050C   F204F204F204       DC16     +1266,+1266,+1266,+1266
   \              F204        
   \   00000514   F204F204F204       DC16     +1266,+1266,+1266,+1266
   \              F204        
   \   0000051C   F204F204F204       DC16     +1266,+1266,+1266,+1266
   \              F204        
   \   00000524   F204F204F204       DC16     +1266,+1266,+1266,+1266
   \              F204        
   \   0000052C   F204F204F204       DC16     +1266,+1266,+1266,+1266
   \              F204        
   \   00000534   F204F204F204       DC16     +1266,+1266,+1266,+1266
   \              F204        
   \   0000053C   F204F204F204       DC16     +1266,+1266,+1266,+1266
   \              F204        
   \   00000544   F204F204F204       DC16     +1266,+1266,+1266,+1266
   \              F204        
   \   0000054C   F204F204F204       DC16     +1266,+1266,+1266,+1266
   \              F204        
   \   00000554   F204F204F204       DC16     +1266,+1266,+1266,+1266
   \              F204        
   \   0000055C   F204F204F204       DC16     +1266,+1266,+1266,+1266
   \              F204        
   \   00000564   F204F204F204       DC16     +1266,+1266,+1266,+1266
   \              F204        
   \   0000056C   F204F204F204       DC16     +1266,+1266,+1266,+1266
   \              F204        
   \   00000574   F204F204F204       DC16     +1266,+1266,+1266,+1266
   \              F204        
   \   0000057C   F204F204F204       DC16     +1266,+1266,+1266,+1266
   \              F204        
   \   00000584   F204F204F204       DC16     +1266,+1266,+1266,+1266
   \              F204        
   \   0000058C   F204F204F204       DC16     +1266,+1266,+1266,+1266
   \              F204        
   \   00000594   F204F204F204       DC16     +1266,+1266,+1266,+1266
   \              F204        
   \   0000059C   F204F204F204       DC16     +1266,+1266,+1266,+1266
   \              F204        
   \   000005A4   F204F204F204       DC16     +1266,+1266,+1266,+1266
   \              F204        
   \   000005AC   F204F204F204       DC16     +1266,+1266,+1266,+1266
   \              F204        
   \   000005B4   F204F204F204       DC16     +1266,+1266,+1266,+1266
   \              F204        
   \   000005BC   F204F204F204       DC16     +1266,+1266,+1266,+1266
   \              F204        
   \   000005C4   F204F204F204       DC16     +1266,+1266,+1266,+1266
   \              F204        
   \   000005CC   F204F204F204       DC16     +1266,+1266,+1266,+1266
   \              F204        
   \   000005D4   F204F204F204       DC16     +1266,+1266,+1266,+1266
   \              F204        
   \   000005DC   F204F204F204       DC16     +1266,+1266,+1266,+1266
   \              F204        
   \   000005E4   F204F204F204       DC16     +1266,+1266,+1266,+1266
   \              F204        
   \   000005EC   F204F204F204       DC16     +1266,+1266,+1266,+1266
   \              F204        
   \   000005F4   F204F204F204       DC16     +1266,+1266,+1266,+1266
   \              F204        
   \   000005FC   F204F204F204       DC16     +1266,+1266,+1266,+1266
   \              F204        
   \   00000604   F204F204F204       DC16     +1266,+1266,+1266,+1266
   \              F204        
   \   0000060C   F204F204F204       DC16     +1266,+1266,+1266,+1266
   \              F204        
   \   00000614   F204F204F204       DC16     +1266,+1266,+1266,+1266
   \              F204        
   \   0000061C   F204F204F204       DC16     +1266,+1266,+1266,+1266
   \              F204        
   \   00000624   F204F204F204       DC16     +1266,+1266,+1266,+1266
   \              F204        
   \   0000062C   F204F204F204       DC16     +1266,+1266,+1266,+1266
   \              F204        
   \   00000634   F204F204F204       DC16     +1266,+1266,+1266,+1266
   \              F204        
   \   0000063C   F204F204F204       DC16     +1266,+1266,+1266,+1266
   \              F204        
   \   00000644   F204F204F204       DC16     +1266,+1266,+1266,+1266
   \              F204        
   \   0000064C   F204F204F204       DC16     +1266,+1266,+1266,+1266
   \              F204        
   \   00000654   F204F204F204       DC16     +1266,+1266,+1266,+1266
   \              F204        
   \   0000065C   F204F204F204       DC16     +1266,+1266,+1266,+1266
   \              F204        
   \   00000664   F204F204F204       DC16     +1266,+1266,+1266,+1266
   \              F204        
   \   0000066C   F204F204F204       DC16     +1266,+1266,+1266,+1266
   \              F204        
   \   00000674   F204F204F204       DC16     +1266,+1266,+1266,+1266
   \              F204        
   \   0000067C   F204F204F204       DC16     +1266,+1266,+1266,+1266
   \              F204        
   \   00000684   F204F204F204       DC16     +1266,+1266,+1266,+1266
   \              F204        
   \   0000068C   F204F204F204       DC16     +1266,+1266,+1266,+1266
   \              F204        
   \   00000694   F204F204F204       DC16     +1266,+1266,+1266,+1266
   \              F204        
   \   0000069C   F204F204F204       DC16     +1266,+1266,+1266,+1266
   \              F204        
   \   000006A4   F204F204F204       DC16     +1266,+1266,+1266,+1266
   \              F204        
   \   000006AC   F204F204F204       DC16     +1266,+1266,+1266,+1266
   \              F204        
   \   000006B4   F204F204F204       DC16     +1266,+1266,+1266,+1266
   \              F204        
   \   000006BC   F204F204F204       DC16     +1266,+1266,+1266,+1266
   \              F204        
   \   000006C4   F204F204F204       DC16     +1266,+1266,+1266,+1266
   \              F204        
   \   000006CC   F204F204F204       DC16     +1266,+1266,+1266,+1266
   \              F204        
   \   000006D4   F204F204F204       DC16     +1266,+1266,+1266,+1266
   \              F204        
   \   000006DC   F204F204F204       DC16     +1266,+1266,+1266,+1266
   \              F204        
   \   000006E4   F204F204F204       DC16     +1266,+1266,+1266,+1266
   \              F204        
   \   000006EC   F204F204F204       DC16     +1266,+1266,+1266,+1266
   \              F204        
   \   000006F4   F204F204F204       DC16     +1266,+1266,+1266,+1266
   \              F204        
   \   000006FC   F204F204F204       DC16     +1266,+1266,+1266,+1266
   \              F204        
   \   00000704   F204F204F204       DC16     +1266,+1266,+1266,+1266
   \              F204        
   \   0000070C   F204F204F204       DC16     +1266,+1266,+1266,+1266
   \              F204        
   \   00000714   F204F204F204       DC16     +1266,+1266,+1266,+1266
   \              F204        
   \   0000071C   F204F204F204       DC16     +1266,+1266,+1266,+1266
   \              F204        
   \   00000724   F204F204F204       DC16     +1266,+1266,+1266,+1266
   \              F204        
   \   0000072C   F204F204F204       DC16     +1266,+1266,+1266,+1266
   \              F204        
   \   00000734   F204F204F204       DC16     +1266,+1266,+1266,+1266
   \              F204        
   \   0000073C   F204F204F204       DC16     +1266,+1266,+1266,+1266
   \              F204        
   \   00000744   F204F204F204       DC16     +1266,+1266,+1266,+1266
   \              F204        
   \   0000074C   F204F204F204       DC16     +1266,+1266,+1266,+1266
   \              F204        
   \   00000754   F204F204F204       DC16     +1266,+1266,+1266,+1266
   \              F204        
   \   0000075C   F204F204F204       DC16     +1266,+1266,+1266,+1266
   \              F204        
   \   00000764   F204F204F204       DC16     +1266,+1266,+1266,+1266
   \              F204        
   \   0000076C   F204F204F204       DC16     +1266,+1266,+1266,+1266
   \              F204        
   \   00000774   F204F204F204       DC16     +1266,+1266,+1266,+1266
   \              F204        
   \   0000077C   F204F204F204       DC16     +1266,+1266,+1266,+1266
   \              F204        
   \   00000784   F204F204F204       DC16     +1266,+1266,+1266,+1266
   \              F204        
   \   0000078C   F204F204F204       DC16     +1266,+1266,+1266,+1266
   \              F204        
   \   00000794   F204F204F204       DC16     +1266,+1266,+1266,+1266
   \              F204        
   \   0000079C   F204F204F204       DC16     +1266,+1266,+1266,+1266
   \              F204        
   \   000007A4   F204F204F204       DC16     +1266,+1266,+1266,+1266
   \              F204        
   \   000007AC   F204F204F204       DC16     +1266,+1266,+1266,+1266
   \              F204        
   \   000007B4   F204F204F204       DC16     +1266,+1266,+1266,+1266
   \              F204        
   \   000007BC   F204F204F204       DC16     +1266,+1266,+1266,+1266
   \              F204        
   \   000007C4   F204F204F204       DC16     +1266,+1266,+1266,+1266
   \              F204        
   \   000007CC   F204F204F204       DC16     +1266,+1266,+1266,+1266
   \              F204        
   \   000007D4   F204F204F204       DC16     +1266,+1266,+1266,+1266
   \              F204        
   \   000007DC   F204F204F204       DC16     +1266,+1266,+1266,+1266
   \              F204        
   \   000007E4   F204F204F204       DC16     +1266,+1266,+1266,+1266
   \              F204        
   \   000007EC   F204F204F204       DC16     +1266,+1266,+1266,+1266
   \              F204        
   \   000007F4   F204F204F204       DC16     +1266,+1266,+1266,+1266
   \              F204        
   \   000007FC   F204F204F204       DC16     +1266,+1266,+1266,+1266
   \              F204        
   \   00000804   F204F204F204       DC16     +1266,+1266,+1266,+1266
   \              F204        
   \   0000080C   F204F204F204       DC16     +1266,+1266,+1266,+1266
   \              F204        
   \   00000814   F204F204F204       DC16     +1266,+1266,+1266,+1266
   \              F204        
   \   0000081C   F204F204F204       DC16     +1266,+1266,+1266,+1266
   \              F204        
   \   00000824   F204F204F204       DC16     +1266,+1266,+1266,+1266
   \              F204        
   \   0000082C   F204F204F204       DC16     +1266,+1266,+1266,+1266
   \              F204        
   \   00000834   F204F204F204       DC16     +1266,+1266,+1266,+1266
   \              F204        
   \   0000083C   F204F204F204       DC16     +1266,+1266,+1266,+1266
   \              F204        
   \   00000844   F204F204F204       DC16     +1266,+1266,+1266,+1266
   \              F204        
   \   0000084C   F204F204F204       DC16     +1266,+1266,+1266,+1266
   \              F204        
   \   00000854   F204F204F204       DC16     +1266,+1266,+1266,+1266
   \              F204        
   \   0000085C   F204F204F204       DC16     +1266,+1266,+1266,+1266
   \              F204        
   \   00000864   F204F204F204       DC16     +1266,+1266,+1266,+1266
   \              F204        
   \   0000086C   F204F204F204       DC16     +1266,+1266,+1266,+1266
   \              F204        
   \   00000874   F204F204F204       DC16     +1266,+1266,+1266,+1266
   \              F204        
   \   0000087C   F204F204F204       DC16     +1266,+1266,+1266,+1266
   \              F204        
   \   00000884   F204F204F204       DC16     +1266,+1266,+1266,+1266
   \              F204        
   \   0000088C   F204F204F204       DC16     +1266,+1266,+1266,+1266
   \              F204        
   \   00000894   F204F204F204       DC16     +1266,+1266,+1266,+1266
   \              F204        
   \   0000089C   F204F204F204       DC16     +1266,+1266,+1266,+1266
   \              F204        
   \   000008A4   F204F204F204       DC16     +1266,+1266,+1266,+1266
   \              F204        
   \   000008AC   F204F204F204       DC16     +1266,+1266,+1266,+1266
   \              F204        
   \   000008B4   F204F204F204       DC16     +1266,+1266,+1266,+1266
   \              F204        
   \   000008BC   F204F204F204       DC16     +1266,+1266,+1266,+1266
   \              F204        
   \   000008C4   F204F204F204       DC16     +1266,+1266,+1266,+1266
   \              F204        
   \   000008CC   F204F204F204       DC16     +1266,+1266,+1266,+1266
   \              F204        
   \   000008D4   F204F204F204       DC16     +1266,+1266,+1266,+1266
   \              F204        
   \   000008DC   F204F204F204       DC16     +1266,+1266,+1266,+1266
   \              F204        
   \   000008E4   F204F204F204       DC16     +1266,+1266,+1266,+1266
   \              F204        
   \   000008EC   F204F204F204       DC16     +1266,+1266,+1266,+1266
   \              F204        
   \   000008F4   F204F204F204       DC16     +1266,+1266,+1266,+1266
   \              F204        
   \   000008FC   F204F204F204       DC16     +1266,+1266,+1266,+1266
   \              F204        
   \   00000904   F204F204F204       DC16     +1266,+1266,+1266,+1266
   \              F204        
   \   0000090C   F204F204F204       DC16     +1266,+1266,+1266,+1266
   \              F204        
   \   00000914   F204F204F204       DC16     +1266,+1266,+1266,+1266
   \              F204        
   \   0000091C   F204F204F204       DC16     +1266,+1266,+1266,+1266
   \              F204        
   \   00000924   F204F204F204       DC16     +1266,+1266,+1266,+1266
   \              F204        
   \   0000092C   F204F204F204       DC16     +1266,+1266,+1266,+1266
   \              F204        
   \   00000934   F204F204F204       DC16     +1266,+1266,+1266,+1266
   \              F204        
   \   0000093C   F204F204F204       DC16     +1266,+1266,+1266,+1266
   \              F204        
   \   00000944   F204F204F204       DC16     +1266,+1266,+1266,+1266
   \              F204        
   \   0000094C   F204F204F204       DC16     +1266,+1266,+1266,+1266
   \              F204        
   \   00000954   F204F204F204       DC16     +1266,+1266,+1266,+1266
   \              F204        
   \   0000095C   F204F204F204       DC16     +1266,+1266,+1266,+1266
   \              F204        
   \   00000964   F204F204F204       DC16     +1266,+1266,+1266,+1266
   \              F204        
   \   0000096C   F204F204F204       DC16     +1266,+1266,+1266,+1266
   \              F204        
   \   00000974   F204F204F204       DC16     +1266,+1266,+1266,+1266
   \              F204        
   \   0000097C   F204F204F204       DC16     +1266,+1266,+1266,+1266
   \              F204        
   \   00000984   F204F204F204       DC16     +1266,+1266,+1266,+1266
   \              F204        
   \   0000098C   F204F204F204       DC16     +1266,+1266,+1266,+1266
   \              F204        
   \   00000994   F204F204F204       DC16     +1266,+1266,+1266,+1266
   \              F204        
   \   0000099C   F204F204F204       DC16     +1266,+1266,+1266,+1266
   \              F204        
   \   000009A4   F204F204F204       DC16     +1266,+1266,+1266,+1266
   \              F204        
   \   000009AC   F204F204F204       DC16     +1266,+1266,+1266,+1266
   \              F204        
   \   000009B4   F204F204F204       DC16     +1266,+1266,+1266,+1266
   \              F204        
   \   000009BC   F204F204F204       DC16     +1266,+1266,+1266,+1266
   \              F204        
   \   000009C4   F204F204F204       DC16     +1266,+1266,+1266,+1266
   \              F204        
   \   000009CC   F204F204F204       DC16     +1266,+1266,+1266,+1266
   \              F204        
   \   000009D4   F204F204F204       DC16     +1266,+1266,+1266,+1266
   \              F204        
   \   000009DC   F204F204F204       DC16     +1266,+1266,+1266,+1266
   \              F204        
   \   000009E4   F204F204F204       DC16     +1266,+1266,+1266,+1266
   \              F204        
   \   000009EC   F204F204F204       DC16     +1266,+1266,+1266,+1266
   \              F204        
   \   000009F4   F204F204F204       DC16     +1266,+1266,+1266,+1266
   \              F204        
   \   000009FC   F204F204F204       DC16     +1266,+1266,+1266,+1266
   \              F204        
   \   00000A04   F204F204F204       DC16     +1266,+1266,+1266,+1266
   \              F204        
   \   00000A0C   F204F204F204       DC16     +1266,+1266,+1266,+1266
   \              F204        
   \   00000A14   F204F204F204       DC16     +1266,+1266,+1266,+1266
   \              F204        
   \   00000A1C   F204F204F204       DC16     +1266,+1266,+1266,+1266
   \              F204        
   \   00000A24   F204F204F204       DC16     +1266,+1266,+1266,+1266
   \              F204        
   \   00000A2C   F204F204F204       DC16     +1266,+1266,+1266,+1266
   \              F204        
   \   00000A34   F204F204F204       DC16     +1266,+1266,+1266,+1266
   \              F204        
   \   00000A3C   F204F204F204       DC16     +1266,+1266,+1266,+1266
   \              F204        
   \   00000A44   F204F204F204       DC16     +1266,+1266,+1266,+1266
   \              F204        
   \   00000A4C   F204F204F204       DC16     +1266,+1266,+1266,+1266
   \              F204        
   \   00000A54   F204F204F204       DC16     +1266,+1266,+1266,+1266
   \              F204        
   \   00000A5C   F204F204F204       DC16     +1266,+1266,+1266,+1266
   \              F204        
   \   00000A64   F204F204F204       DC16     +1266,+1266,+1266,+1266
   \              F204        
   \   00000A6C   F204F204F204       DC16     +1266,+1266,+1266,+1266
   \              F204        
   \   00000A74   F204F204F204       DC16     +1266,+1266,+1266,+1266
   \              F204        
   \   00000A7C   F204F204F204       DC16     +1266,+1266,+1266,+1266
   \              F204        
   \   00000A84   F204F204F204       DC16     +1266,+1266,+1266,+1266
   \              F204        
   \   00000A8C   F204F204F204       DC16     +1266,+1266,+1266,+1266
   \              F204        
   \   00000A94   F204F204F204       DC16     +1266,+1266,+1266,+1266
   \              F204        
   \   00000A9C   F204F204F204       DC16     +1266,+1266,+1266,+1266
   \              F204        
   \   00000AA4   F204F204F204       DC16     +1266,+1266,+1266,+1266
   \              F204        
   \   00000AAC   F204F204F204       DC16     +1266,+1266,+1266,+1266
   \              F204        
   \   00000AB4   F204F204F204       DC16     +1266,+1266,+1266,+1266
   \              F204        
   \   00000ABC   F204F204F204       DC16     +1266,+1266,+1266,+1266
   \              F204        
   \   00000AC4   F204F204F204       DC16     +1266,+1266,+1266,+1266
   \              F204        
   \   00000ACC   F204F204F204       DC16     +1266,+1266,+1266,+1266
   \              F204        
   \   00000AD4   F204F204F204       DC16     +1266,+1266,+1266,+1266
   \              F204        
   \   00000ADC   F204F204F204       DC16     +1266,+1266,+1266,+1266
   \              F204        
   \   00000AE4   F204F204F204       DC16     +1266,+1266,+1266,+1266
   \              F204        
   \   00000AEC   F204F204F204       DC16     +1266,+1266,+1266,+1266
   \              F204        
   \   00000AF4   F204F204F204       DC16     +1266,+1266,+1266,+1266
   \              F204        
   \   00000AFC   F204F204F204       DC16     +1266,+1266,+1266,+1266
   \              F204        
   \   00000B04   F204F204F204       DC16     +1266,+1266,+1266,+1266
   \              F204        
   \   00000B0C   F204F204F204       DC16     +1266,+1266,+1266,+1266
   \              F204        
   \   00000B14   F204F204F204       DC16     +1266,+1266,+1266,+1266
   \              F204        
   \   00000B1C   F204F204F204       DC16     +1266,+1266,+1266,+1266
   \              F204        
   \   00000B24   F204F204F204       DC16     +1266,+1266,+1266,+1266
   \              F204        
   \   00000B2C   F204F204F204       DC16     +1266,+1266,+1266,+1266
   \              F204        
   \   00000B34   F204F204F204       DC16     +1266,+1266,+1266,+1266
   \              F204        
   \   00000B3C   F204F204F204       DC16     +1266,+1266,+1266,+1266
   \              F204        
   \   00000B44   F204F204F204       DC16     +1266,+1266,+1266,+1266
   \              F204        
   \   00000B4C   F204F204F204       DC16     +1266,+1266,+1266,+1266
   \              F204        
   \   00000B54   F204F204F204       DC16     +1266,+1266,+1266,+1266
   \              F204        
   \   00000B5C   F204F204F204       DC16     +1266,+1266,+1266,+1266
   \              F204        
   \   00000B64   F204F204F204       DC16     +1266,+1266,+1266,+1266
   \              F204        
   \   00000B6C   F204F204F204       DC16     +1266,+1266,+1266,+1266
   \              F204        
   \   00000B74   F204F204F204       DC16     +1266,+1266,+1266,+1266
   \              F204        
   \   00000B7C   F204F204F204       DC16     +1266,+1266,+1266,+1266
   \              F204        
   \   00000B84   F204F204F204       DC16     +1266,+1266,+1266,+1266
   \              F204        
   \   00000B8C   F204F204F204       DC16     +1266,+1266,+1266,+1266
   \              F204        
   \   00000B94   F204F204F204       DC16     +1266,+1266,+1266,+1266
   \              F204        
   \   00000B9C   F204F204F204       DC16     +1266,+1266,+1266,+1266
   \              F204        
   \   00000BA4   F204F204F204       DC16     +1266,+1266,+1266,+1266
   \              F204        
   \   00000BAC   F204F204F204       DC16     +1266,+1266,+1266,+1266
   \              F204        
   \   00000BB4   F204F204F204       DC16     +1266,+1266,+1266,+1266
   \              F204        
   \   00000BBC   F204F204F204       DC16     +1266,+1266,+1266,+1266
   \              F204        
   \   00000BC4   F204F204F204       DC16     +1266,+1266,+1266,+1266
   \              F204        
   \   00000BCC   F204F204F204       DC16     +1266,+1266,+1266,+1266
   \              F204        
   \   00000BD4   F204F204F204       DC16     +1266,+1266,+1266,+1266
   \              F204        
   \   00000BDC   F204F204F204       DC16     +1266,+1266,+1266,+1266
   \              F204        
   \   00000BE4   F204F204F204       DC16     +1266,+1266,+1266,+1266
   \              F204        
   \   00000BEC   F204F204F204       DC16     +1266,+1266,+1266,+1266
   \              F204        
   \   00000BF4   F204F204F204       DC16     +1266,+1266,+1266,+1266
   \              F204        
   \   00000BFC   F204F204F204       DC16     +1266,+1266,+1266,+1266
   \              F204        
   \   00000C04   F204F204F204       DC16     +1266,+1266,+1266,+1266
   \              F204        
   \   00000C0C   F204F204F204       DC16     +1266,+1266,+1266,+1266
   \              F204        
   \   00000C14   F204F204F204       DC16     +1266,+1266,+1266,+1266
   \              F204        
   \   00000C1C   F204F204F204       DC16     +1266,+1266,+1266,+1266
   \              F204        
   \   00000C24   F204F204F204       DC16     +1266,+1266,+1266,+1266
   \              F204        
   \   00000C2C   F204F204F204       DC16     +1266,+1266,+1266,+1266
   \              F204        
   \   00000C34   F204F204F204       DC16     +1266,+1266,+1266,+1266
   \              F204        
   \   00000C3C   F204F204F204       DC16     +1266,+1266,+1266,+1266
   \              F204        
   \   00000C44   F204F204F204       DC16     +1266,+1266,+1266,+1266
   \              F204        
   \   00000C4C   F204F204F204       DC16     +1266,+1266,+1266,+1266
   \              F204        
   \   00000C54   F204F204F204       DC16     +1266,+1266,+1266,+1266
   \              F204        
   \   00000C5C   F204F204F204       DC16     +1266,+1266,+1266,+1266
   \              F204        
   \   00000C64   F204F204F204       DC16     +1266,+1266,+1266,+1266
   \              F204        
   \   00000C6C   F204F204F204       DC16     +1266,+1266,+1266,+1266
   \              F204        
   \   00000C74   F204F204F204       DC16     +1266,+1266,+1266,+1266
   \              F204        
   \   00000C7C   F204F204F204       DC16     +1266,+1266,+1266,+1266
   \              F204        
   \   00000C84   F204F204F204       DC16     +1266,+1266,+1266,+1266
   \              F204        
   \   00000C8C   F204F204F204       DC16     +1266,+1266,+1266,+1266
   \              F204        
   \   00000C94   F204F204F204       DC16     +1266,+1266,+1266,+1266
   \              F204        
   \   00000C9C   F204F204F204       DC16     +1266,+1266,+1266,+1266
   \              F204        
   \   00000CA4   F204F204F204       DC16     +1266,+1266,+1266,+1266
   \              F204        
   \   00000CAC   F204F204F204       DC16     +1266,+1266,+1266,+1266
   \              F204        
   \   00000CB4   F204F204F204       DC16     +1266,+1266,+1266,+1266
   \              F204        
   \   00000CBC   F204F204F204       DC16     +1266,+1266,+1266,+1266
   \              F204        
   \   00000CC4   F204F204F204       DC16     +1266,+1266,+1266,+1266
   \              F204        
   \   00000CCC   F204F204F204       DC16     +1266,+1266,+1266,+1266
   \              F204        
   \   00000CD4   F204F204F204       DC16     +1266,+1266,+1266,+1266
   \              F204        
   \   00000CDC   F204F204F204       DC16     +1266,+1266,+1266,+1266
   \              F204        
   \   00000CE4   F204F204F204       DC16     +1266,+1266,+1266,+1266
   \              F204        
   \   00000CEC   F204F204F204       DC16     +1266,+1266,+1266,+1266
   \              F204        
   \   00000CF4   F204F204F204       DC16     +1266,+1266,+1266,+1266
   \              F204        
   \   00000CFC   F204F204F204       DC16     +1266,+1266,+1266,+1266
   \              F204        
   \   00000D04   F204F204F204       DC16     +1266,+1266,+1266,+1266
   \              F204        
   \   00000D0C   F204F204F204       DC16     +1266,+1266,+1266,+1266
   \              F204        
   \   00000D14   F204F204F204       DC16     +1266,+1266,+1266,+1266
   \              F204        
   \   00000D1C   F204F204F204       DC16     +1266,+1266,+1266,+1266
   \              F204        
   \   00000D24   F204F204F204       DC16     +1266,+1266,+1266,+1266
   \              F204        
   \   00000D2C   F204F204F204       DC16     +1266,+1266,+1266,+1266
   \              F204        
   \   00000D34   F204F204F204       DC16     +1266,+1266,+1266,+1266
   \              F204        
   \   00000D3C   F204F204F204       DC16     +1266,+1266,+1266,+1266
   \              F204        
   \   00000D44   F204F204F204       DC16     +1266,+1266,+1266,+1266
   \              F204        
   \   00000D4C   F204F204F204       DC16     +1266,+1266,+1266,+1266
   \              F204        
   \   00000D54   F204F204F204       DC16     +1266,+1266,+1266,+1266
   \              F204        
   \   00000D5C   F204F204F204       DC16     +1266,+1266,+1266,+1266
   \              F204        
   \   00000D64   F204F204F204       DC16     +1266,+1266,+1266,+1266
   \              F204        
   \   00000D6C   F204F204F204       DC16     +1266,+1266,+1266,+1266
   \              F204        
   \   00000D74   F204F204F204       DC16     +1266,+1266,+1266,+1266
   \              F204        
   \   00000D7C   F204F204F204       DC16     +1266,+1266,+1266,+1266
   \              F204        
   \   00000D84   F204F204F204       DC16     +1266,+1266,+1266,+1266
   \              F204        
   \   00000D8C   F204F204F204       DC16     +1266,+1266,+1266,+1266
   \              F204        
   \   00000D94   F204F204F204       DC16     +1266,+1266,+1266,+1266
   \              F204        
   \   00000D9C   F204F204F204       DC16     +1266,+1266,+1266,+1266
   \              F204        
   \   00000DA4   F204F204F204       DC16     +1266,+1266,+1266,+1266
   \              F204        
   \   00000DAC   F204F204F204       DC16     +1266,+1266,+1266,+1266
   \              F204        
   \   00000DB4   F204F204F204       DC16     +1266,+1266,+1266,+1266
   \              F204        
   \   00000DBC   F204F204F204       DC16     +1266,+1266,+1266,+1266
   \              F204        
   \   00000DC4   F204F204F204       DC16     +1266,+1266,+1266,+1266
   \              F204        
   \   00000DCC   F204F204F204       DC16     +1266,+1266,+1266,+1266
   \              F204        
   \   00000DD4   F204F204F204       DC16     +1266,+1266,+1266,+1266
   \              F204        
   \   00000DDC   F204F204F204       DC16     +1266,+1266,+1266,+1266
   \              F204        
   \   00000DE4   F204F204F204       DC16     +1266,+1266,+1266,+1266
   \              F204        
   \   00000DEC   F204F204F204       DC16     +1266,+1266,+1266,+1266
   \              F204        
   \   00000DF4   F204F204F204       DC16     +1266,+1266,+1266,+1266
   \              F204        
   \   00000DFC   F204F204F204       DC16     +1266,+1266,+1266,+1266
   \              F204        
   \   00000E04   F204F204F204       DC16     +1266,+1266,+1266,+1266
   \              F204        
   \   00000E0C   F204F204F204       DC16     +1266,+1266,+1266,+1266
   \              F204        
   \   00000E14   F204F204F204       DC16     +1266,+1266,+1266,+1266
   \              F204        
   \   00000E1C   F204F204F204       DC16     +1266,+1266,+1266,+1266
   \              F204        
   \   00000E24   F204F204F204       DC16     +1266,+1266,+1266,+1266
   \              F204        
   \   00000E2C   F204F204F204       DC16     +1266,+1266,+1266,+1266
   \              F204        
   \   00000E34   F204F204F204       DC16     +1266,+1266,+1266,+1266
   \              F204        
   \   00000E3C   F204F204F204       DC16     +1266,+1266,+1266,+1266
   \              F204        
   \   00000E44   F204F204F204       DC16     +1266,+1266,+1266,+1266
   \              F204        
   \   00000E4C   F204F204F204       DC16     +1266,+1266,+1266,+1266
   \              F204        
   \   00000E54   F204F204F204       DC16     +1266,+1266,+1266,+1266
   \              F204        
   \   00000E5C   F204F204F204       DC16     +1266,+1266,+1266,+1266
   \              F204        
   \   00000E64   F204F204F204       DC16     +1266,+1266,+1266,+1266
   \              F204        
   \   00000E6C   F204F204F204       DC16     +1266,+1266,+1266,+1266
   \              F204        
   \   00000E74   F204F204F204       DC16     +1266,+1266,+1266,+1266
   \              F204        
   \   00000E7C   F204F204F204       DC16     +1266,+1266,+1266,+1266
   \              F204        
   \   00000E84   F204F204F204       DC16     +1266,+1266,+1266,+1266
   \              F204        
   \   00000E8C   F204F204F204       DC16     +1266,+1266,+1266,+1266
   \              F204        
   \   00000E94   F204F204F204       DC16     +1266,+1266,+1266,+1266
   \              F204        
   \   00000E9C   F204F204F204       DC16     +1266,+1266,+1266,+1266
   \              F204        
   \   00000EA4   F204F204F204       DC16     +1266,+1266,+1266,+1266
   \              F204        
   \   00000EAC   F204F204F204       DC16     +1266,+1266,+1266,+1266
   \              F204        
   \   00000EB4   F204F204F204       DC16     +1266,+1266,+1266,+1266
   \              F204        
   \   00000EBC   F204F204F204       DC16     +1266,+1266,+1266,+1266
   \              F204        
   \   00000EC4   F204F204F204       DC16     +1266,+1266,+1266,+1266
   \              F204        
   \   00000ECC   F204F204F204       DC16     +1266,+1266,+1266,+1266
   \              F204        
   \   00000ED4   F204F204F204       DC16     +1266,+1266,+1266,+1266
   \              F204        
   \   00000EDC   F204F204F204       DC16     +1266,+1266,+1266,+1266
   \              F204        
   \   00000EE4   F204F204F204       DC16     +1266,+1266,+1266,+1266
   \              F204        
   \   00000EEC   F204F204F204       DC16     +1266,+1266,+1266,+1266
   \              F204        
   \   00000EF4   F204F204F204       DC16     +1266,+1266,+1266,+1266
   \              F204        
   \   00000EFC   F204F204F204       DC16     +1266,+1266,+1266,+1266
   \              F204        
   \   00000F04   F204F204F204       DC16     +1266,+1266,+1266,+1266
   \              F204        
   \   00000F0C   F204F204F204       DC16     +1266,+1266,+1266,+1266
   \              F204        
   \   00000F14   F204F204F204       DC16     +1266,+1266,+1266,+1266
   \              F204        
   \   00000F1C   F204F204F204       DC16     +1266,+1266,+1266,+1266
   \              F204        
   \   00000F24   F204F204F204       DC16     +1266,+1266,+1266,+1266
   \              F204        
   \   00000F2C   F204F204F204       DC16     +1266,+1266,+1266,+1266
   \              F204        
   \   00000F34   F204F204F204       DC16     +1266,+1266,+1266,+1266
   \              F204        
   \   00000F3C   F204F204F204       DC16     +1266,+1266,+1266,+1266
   \              F204        
   \   00000F44   F204F204F204       DC16     +1266,+1266,+1266,+1266
   \              F204        
   \   00000F4C   F204F204F204       DC16     +1266,+1266,+1266,+1266
   \              F204        
   \   00000F54   F204F204F204       DC16     +1266,+1266,+1266,+1266
   \              F204        
   \   00000F5C   F204F204F204       DC16     +1266,+1266,+1266,+1266
   \              F204        
   \   00000F64   F204F204F204       DC16     +1266,+1266,+1266,+1266
   \              F204        
   \   00000F6C   F204F204F204       DC16     +1266,+1266,+1266,+1266
   \              F204        
   \   00000F74   F204F204F204       DC16     +1266,+1266,+1266,+1266
   \              F204        
   \   00000F7C   F204F204F204       DC16     +1266,+1266,+1266,+1266
   \              F204        
   \   00000F84   F204F204F204       DC16     +1266,+1266,+1266,+1266
   \              F204        
   \   00000F8C   F204F204F204       DC16     +1266,+1266,+1266,+1266
   \              F204        
   \   00000F94   F204F204F204       DC16     +1266,+1266,+1266,+1266
   \              F204        
   \   00000F9C   F204F204F204       DC16     +1266,+1266,+1266,+1266
   \              F204        
   \   00000FA4   F204F204F204       DC16     +1266,+1266,+1266,+1266
   \              F204        
   \   00000FAC   F204F204F204       DC16     +1266,+1266,+1266,+1266
   \              F204        
   \   00000FB4   F204F204F204       DC16     +1266,+1266,+1266,+1266
   \              F204        
   \   00000FBC   F204F204F204       DC16     +1266,+1266,+1266,+1266
   \              F204        
   \   00000FC4   F204F204F204       DC16     +1266,+1266,+1266,+1266
   \              F204        
   \   00000FCC   F204F204F204       DC16     +1266,+1266,+1266,+1266
   \              F204        
   \   00000FD4   F204F204F204       DC16     +1266,+1266,+1266,+1266
   \              F204        
   \   00000FDC   F204F204F204       DC16     +1266,+1266,+1266,+1266
   \              F204        
   \   00000FE4   F204F204F204       DC16     +1266,+1266,+1266,+1266
   \              F204        
   \   00000FEC   F204F204F204       DC16     +1266,+1266,+1266,+1266
   \              F204        
   \   00000FF4   F204F204F204       DC16     +1266,+1266,+1266,+1266
   \              F204        
   \   00000FFC   F204F204F204       DC16     +1266,+1266,+1266,+1266
   \              F204        
   \   00001004   F204F204F204       DC16     +1266,+1266,+1266,+1266
   \              F204        
   \   0000100C   F204F204F204       DC16     +1266,+1266,+1266,+1266
   \              F204        
   \   00001014   F204F204F204       DC16     +1266,+1266,+1266,+1266
   \              F204        
   \   0000101C   F204F204F204       DC16     +1266,+1266,+1266,+1266
   \              F204        
   \   00001024   F204F204F204       DC16     +1266,+1266,+1266,+1266
   \              F204        
   \   0000102C   F204F204F204       DC16     +1266,+1266,+1266,+1266
   \              F204        
   \   00001034   F204F204F204       DC16     +1266,+1266,+1266,+1266
   \              F204        
   \   0000103C   F204F204F204       DC16     +1266,+1266,+1266,+1266
   \              F204        
   \   00001044   F204F204F204       DC16     +1266,+1266,+1266,+1266
   \              F204        
   \   0000104C   F204F204F204       DC16     +1266,+1266,+1266,+1266
   \              F204        
   \   00001054   F204F204F204       DC16     +1266,+1266,+1266,+1266
   \              F204        
   \   0000105C   F204F204F204       DC16     +1266,+1266,+1266,+1266
   \              F204        
   \   00001064   F204F204F204       DC16     +1266,+1266,+1266,+1266
   \              F204        
   \   0000106C   F204F204F204       DC16     +1266,+1266,+1266,+1266
   \              F204        
   \   00001074   F204F204F204       DC16     +1266,+1266,+1266,+1266
   \              F204        
   \   0000107C   F204F204F204       DC16     +1266,+1266,+1266,+1266
   \              F204        
   \   00001084   F204F204F204       DC16     +1266,+1266,+1266,+1266
   \              F204        
   \   0000108C   F204F204F204       DC16     +1266,+1266,+1266,+1266
   \              F204        
   \   00001094   F204F204F204       DC16     +1266,+1266,+1266,+1266
   \              F204        
   \   0000109C   F204F204F204       DC16     +1266,+1266,+1266,+1266
   \              F204        
   \   000010A4   F204F204F204       DC16     +1266,+1266,+1266,+1266
   \              F204        
   \   000010AC   F204F204F204       DC16     +1266,+1266,+1266,+1266
   \              F204        
   \   000010B4   F204F204F204       DC16     +1266,+1266,+1266,+1266
   \              F204        
   \   000010BC   F204F204F204       DC16     +1266,+1266,+1266,+1266
   \              F204        
   \   000010C4   F204F204F204       DC16     +1266,+1266,+1266,+1266
   \              F204        
   \   000010CC   F204F204F204       DC16     +1266,+1266,+1266,+1266
   \              F204        
   \   000010D4   F204F204F204       DC16     +1266,+1266,+1266,+1266
   \              F204        
   \   000010DC   F204F204F204       DC16     +1266,+1266,+1266,+1266
   \              F204        
   \   000010E4   F204F204F204       DC16     +1266,+1266,+1266,+1266
   \              F204        
   \   000010EC   F204F204F204       DC16     +1266,+1266,+1266,+1266
   \              F204        
   \   000010F4   F204F204F204       DC16     +1266,+1266,+1266,+1266
   \              F204        
   \   000010FC   F204F204F204       DC16     +1266,+1266,+1266,+1266
   \              F204        
   \   00001104   F204F204F204       DC16     +1266,+1266,+1266,+1266
   \              F204        
   \   0000110C   F204F204F204       DC16     +1266,+1266,+1266,+1266
   \              F204        
   \   00001114   F204F204F204       DC16     +1266,+1266,+1266,+1266
   \              F204        
   \   0000111C   F204F204F204       DC16     +1266,+1266,+1266,+1266
   \              F204        
   \   00001124   F204F204F204       DC16     +1266,+1266,+1266,+1266
   \              F204        
   \   0000112C   F204F204F204       DC16     +1266,+1266,+1266,+1266
   \              F204        
   \   00001134   F204F204F204       DC16     +1266,+1266,+1266,+1266
   \              F204        
   \   0000113C   F204F204F204       DC16     +1266,+1266,+1266,+1266
   \              F204        
   \   00001144   F204F204F204       DC16     +1266,+1266,+1266,+1266
   \              F204        
   \   0000114C   F204F204F204       DC16     +1266,+1266,+1266,+1266
   \              F204        
   \   00001154   F204F204F204       DC16     +1266,+1266,+1266,+1266
   \              F204        
   \   0000115C   F204F204F204       DC16     +1266,+1266,+1266,+1266
   \              F204        
   \   00001164   F204F204F204       DC16     +1266,+1266,+1266,+1266
   \              F204        
   \   0000116C   F204F204F204       DC16     +1266,+1266,+1266,+1266
   \              F204        
   \   00001174   F204F204F204       DC16     +1266,+1266,+1266,+1266
   \              F204        
   \   0000117C   F204F204F204       DC16     +1266,+1266,+1266,+1266
   \              F204        
   \   00001184   F204F204F204       DC16     +1266,+1266,+1266,+1266
   \              F204        
   \   0000118C   F204F204F204       DC16     +1266,+1266,+1266,+1266
   \              F204        
   \   00001194   F204F204F204       DC16     +1266,+1266,+1266,+1266
   \              F204        
   \   0000119C   F204F204F204       DC16     +1266,+1266,+1266,+1266
   \              F204        
   \   000011A4   F204F204F204       DC16     +1266,+1266,+1266,+1266
   \              F204        
   \   000011AC   F204F204F204       DC16     +1266,+1266,+1266,+1266
   \              F204        
   \   000011B4   F204F204F204       DC16     +1266,+1266,+1266,+1266
   \              F204        
   \   000011BC   F204F204F204       DC16     +1266,+1266,+1266,+1266
   \              F204        
   \   000011C4   F204F204F204       DC16     +1266,+1266,+1266,+1266
   \              F204        
   \   000011CC   F204F204F204       DC16     +1266,+1266,+1266,+1266
   \              F204        
   \   000011D4   F204F204F204       DC16     +1266,+1266,+1266,+1266
   \              F204        
   \   000011DC   F204F204F204       DC16     +1266,+1266,+1266,+1266
   \              F204        
   \   000011E4   F204F204F204       DC16     +1266,+1266,+1266,+1266
   \              F204        
   \   000011EC   F204F204F204       DC16     +1266,+1266,+1266,+1266
   \              F204        
   \   000011F4   F204F204F204       DC16     +1266,+1266,+1266,+1266
   \              F204        
   \   000011FC   F204F204F204       DC16     +1266,+1266,+1266,+1266
   \              F204        
   \   00001204   F204F204F204       DC16     +1266,+1266,+1266,+1266
   \              F204        
   \   0000120C   F204F204F204       DC16     +1266,+1266,+1266,+1266
   \              F204        
   \   00001214   F204F204F204       DC16     +1266,+1266,+1266,+1266
   \              F204        
   \   0000121C   F204F204F204       DC16     +1266,+1266,+1266,+1266
   \              F204        
   \   00001224   F204F204F204       DC16     +1266,+1266,+1266,+1266
   \              F204        
   \   0000122C   F204F204F204       DC16     +1266,+1266,+1266,+1266
   \              F204        
   \   00001234   F204F204F204       DC16     +1266,+1266,+1266,+1266
   \              F204        
   \   0000123C   F204F204F204       DC16     +1266,+1266,+1266,+1266
   \              F204        
   \   00001244   F204F204F204       DC16     +1266,+1266,+1266,+1266
   \              F204        
   \   0000124C   F204F204F204       DC16     +1266,+1266,+1266,+1266
   \              F204        
   \   00001254   F204F204F204       DC16     +1266,+1266,+1266,+1266
   \              F204        
   \   0000125C   F204F204F204       DC16     +1266,+1266,+1266,+1266
   \              F204        
   \   00001264   F204F204F204       DC16     +1266,+1266,+1266,+1266
   \              F204        
   \   0000126C   F204F204F204       DC16     +1266,+1266,+1266,+1266
   \              F204        
   \   00001274   F204F204F204       DC16     +1266,+1266,+1266,+1266
   \              F204        
   \   0000127C   F204F204F204       DC16     +1266,+1266,+1266,+1266
   \              F204        
   \   00001284   F204F204F204       DC16     +1266,+1266,+1266,+1266
   \              F204        
   \   0000128C   F204F204F204       DC16     +1266,+1266,+1266,+1266
   \              F204        
   \   00001294   F204F204F204       DC16     +1266,+1266,+1266,+1266
   \              F204        
   \   0000129C   F204F204F204       DC16     +1266,+1266,+1266,+1266
   \              F204        
   \   000012A4   F204F204F204       DC16     +1266,+1266,+1266,+1266
   \              F204        
   \   000012AC   F204F204F204       DC16     +1266,+1266,+1266,+1266
   \              F204        
   \   000012B4   F204F204F204       DC16     +1266,+1266,+1266,+1257
   \              E904        
    149          	case GUI_ID_DROPDOWN1:
    150          	case GUI_ID_DROPDOWN2:
    151          	case GUI_ID_DROPDOWN3:
    152          		{
    153          			int col;
    154          			WM_HWIN hTextUnitCol;
    155          			switch ( Key ) {
   \                     ??UpdateDialog_4:
   \   000012BC   810047E2           SUB      R0,R7,#+129
   \   000012C0   400F40E2           SUB      R0,R0,#+256
   \   000012C4   020050E3           CMP      R0,#+2
   \   000012C8   0B00008A           BHI      ??UpdateDialog_5
   \   000012CC   011F8FE2           ADR      R1,??UpdateDialog_2
   \   000012D0   0010D1E7           LDRB     R1,[R1, R0]
   \   000012D4   01F18FE0           ADD      PC,PC,R1, LSL #+2
   \                     ??UpdateDialog_2:
   \   000012D8   00030600           DC8      +0,+3,+6,+0
    156          			case GUI_ID_DROPDOWN1:
    157          				col          = 2;
    158          				hTextUnitCol = hTextUnitCol2;
   \                     ??UpdateDialog_6:
   \   000012DC   FC53D4E1           LDRSH    R5,[R4, #+60]
   \   000012E0   0280A0E3           MOV      R8,#+2
   \   000012E4   040000EA           B        ??UpdateDialog_5
    159          				break;
    160          			case GUI_ID_DROPDOWN2:
    161          				col          = 3;
    162          				hTextUnitCol = hTextUnitCol3;
   \                     ??UpdateDialog_7:
   \   000012E8   FE53D4E1           LDRSH    R5,[R4, #+62]
   \   000012EC   0380A0E3           MOV      R8,#+3
   \   000012F0   010000EA           B        ??UpdateDialog_5
    163          				break;
    164          			case GUI_ID_DROPDOWN3:
    165          				col          = 4;
    166          				hTextUnitCol = hTextUnitCol4;
   \                     ??UpdateDialog_8:
   \   000012F4   F054D4E1           LDRSH    R5,[R4, #+64]
   \   000012F8   0480A0E3           MOV      R8,#+4
    167          				break;
    168          			}
    169          			AnsiString str, unitstr;
   \                     ??UpdateDialog_5:
   \   000012FC   38008DE2           ADD      R0,SP,#+56
   \   00001300   ........           _BLF     ??AnsiString,??AnsiString??rA
   \   00001304   0D00A0E1           MOV      R0,SP
   \   00001308   ........           _BLF     ??AnsiString,??AnsiString??rA
    170          			WM_HWIN hDropd0 = WM_GetDialogItem(hWin, Key);
   \   0000130C   0600A0E1           MOV      R0,R6
    171          			BallastWindow->ValueTable[col].ValueId = ValTabPtr[DROPDOWN_GetSel(hDropd0)].Value;
   \   00001310   ........           LDR      R6,??DataTable4  ;; BallastWindow
   \   00001314   0710A0E1           MOV      R1,R7
   \   00001318   ........           _BLF     WM_GetDialogItem,??WM_GetDialogItem??rA
   \   0000131C   ........           _BLF     DROPDOWN_GetSel,??DROPDOWN_GetSel??rA
   \   00001320   604094E5           LDR      R4,[R4, #+96]
   \   00001324   0C20A0E3           MOV      R2,#+12
   \   00001328   920801E0           MUL      R1,R2,R8
   \   0000132C   002096E5           LDR      R2,[R6, #+0]
   \   00001330   0C30A0E3           MOV      R3,#+12
   \   00001334   7C2092E5           LDR      R2,[R2, #+124]
   \   00001338   934020E0           MLA      R0,R3,R0,R4
   \   0000133C   080090E5           LDR      R0,[R0, #+8]
   \   00001340   020081E7           STR      R0,[R1, +R2]
    172          			str = LibGetValue(CargoWindow->ValueTable[col].ValueId,PROBallastTank::AllObjVector[0],&unitstr);
   \   00001344   0000A0E3           MOV      R0,#+0
   \   00001348   01002DE9           PUSH     {R0}
   \   0000134C   D8009FE5           LDR      R0,??UpdateDialog_9  ;; ??AllObjVector
   \   00001350   04308DE2           ADD      R3,SP,#+4
   \   00001354   000090E5           LDR      R0,[R0, #+0]
   \   00001358   002090E5           LDR      R2,[R0, #+0]
   \   0000135C   CC009FE5           LDR      R0,??UpdateDialog_9+0x4  ;; CargoWindow
   \   00001360   000090E5           LDR      R0,[R0, #+0]
   \   00001364   7C0090E5           LDR      R0,[R0, #+124]
   \   00001368   001091E7           LDR      R1,[R1, +R0]
   \   0000136C   20008DE2           ADD      R0,SP,#+32
   \   00001370   ........           _BLF     ??LibGetValue,??LibGetValue??rA
   \   00001374   ........           LDR      R0,??DataTable5  ;; ??npos
   \   00001378   0020A0E3           MOV      R2,#+0
   \   0000137C   003090E5           LDR      R3,[R0, #+0]
   \   00001380   20108DE2           ADD      R1,SP,#+32
   \   00001384   3C008DE2           ADD      R0,SP,#+60
   \   00001388   ........           _BLF     ??assign,??assign??rA
   \   0000138C   0020A0E3           MOV      R2,#+0
   \   00001390   0110A0E3           MOV      R1,#+1
   \   00001394   20008DE2           ADD      R0,SP,#+32
   \   00001398   ........           _BLF     ??_Tidy,??_Tidy??rA
    173          			BallastWindow->PaintnewHeading();
   \   0000139C   000096E5           LDR      R0,[R6, #+0]
   \   000013A0   ........           _BLF     ??PaintnewHeading,??PaintnewHeading??rA
    174          			TEXT_SetText(hTextUnitCol, unitstr.c_str());
   \   000013A4   1C009DE5           LDR      R0,[SP, #+28]
   \   000013A8   04D08DE2           ADD      SP,SP,#+4
   \   000013AC   100050E3           CMP      R0,#+16
   \   000013B0   04109D25           LDRCS    R1,[SP, #+4]
   \   000013B4   0500A0E1           MOV      R0,R5
   \   000013B8   04108D32           ADDCC    R1,SP,#+4
   \   000013BC   ........           _BLF     TEXT_SetText,??TEXT_SetText??rA
    175          		}
   \   000013C0   0020A0E3           MOV      R2,#+0
   \   000013C4   0110A0E3           MOV      R1,#+1
   \   000013C8   0D00A0E1           MOV      R0,SP
   \   000013CC   ........           _BLF     ??_Tidy,??_Tidy??rA
   \   000013D0   0020A0E3           MOV      R2,#+0
   \   000013D4   0110A0E3           MOV      R1,#+1
   \   000013D8   38008DE2           ADD      R0,SP,#+56
   \   000013DC   ........           _BLF     ??_Tidy,??_Tidy??rA
   \   000013E0   080000EA           B        ??UpdateDialog_3
    176          		break;
    177          	case GUI_ID_DROPDOWN4:
    178          		SetSelected(GUI_ID_DROPDOWN4,PROSystemData::TXUSystemData->GetOpModeState(SVT_TANK_STATE_STR_BAL));
   \                     ??UpdateDialog_10:
   \   000013E4   ........           LDR      R0,??DataTable7  ;; ??TXUSystemData
   \   000013E8   C910A0E3           MOV      R1,#+201
   \   000013EC   000090E5           LDR      R0,[R0, #+0]
   \   000013F0   501E81E3           ORR      R1,R1,#0x500
   \   000013F4   ........           _BLF     ??GetOpModeState,??GetOpModeState??rA
   \   000013F8   0020A0E1           MOV      R2,R0
   \   000013FC   AC1EA0E3           MOV      R1,#+2752
   \   00001400   0400A0E1           MOV      R0,R4
   \   00001404   ........           _BLF     ??SetSelected,??SetSelected??rA
    179          		break;
    180          	}
    181          	SystemWindow->IsModified = true;
   \                     ??UpdateDialog_3:
   \   00001408   24009FE5           LDR      R0,??UpdateDialog_9+0x8  ;; SystemWindow
   \   0000140C   0110A0E3           MOV      R1,#+1
   \   00001410   000090E5           LDR      R0,[R0, #+0]
   \   00001414   7510C0E5           STRB     R1,[R0, #+117]
    182          	SignalSaveSettings(FLASH_SAVE_SETTINGS);
   \   00001418   0100A0E3           MOV      R0,#+1
   \   0000141C   ........           _BLF     ??SignalSaveSettings,??SignalSaveSettings??rA
    183          }
   \   00001420   54D08DE2           ADD      SP,SP,#+84
   \   00001424   F041BDE8           POP      {R4-R8,LR}
   \   00001428   1EFF2FE1           BX       LR               ;; return
   \                     ??UpdateDialog_9:
   \   0000142C   ........           DC32     ??AllObjVector
   \   00001430   ........           DC32     CargoWindow
   \   00001434   ........           DC32     SystemWindow
    184          

   \                                 In segment CODE, align 4, keep-with-next
    185          void TDUAppSetupBallast::Update(void)
    186          {
   \                     ??Update:
   \   00000000   30402DE9           PUSH     {R4,R5,LR}
    187          	AnsiString UnitStr;
    188          	AnsiString DensityStr = LibGetValue(SVT_BALLAST_DNS,PROSystemData::TXUSystemData, &UnitStr);
   \   00000004   ........           LDR      R5,??DataTable7  ;; ??TXUSystemData
   \   00000008   38D04DE2           SUB      SP,SP,#+56
   \   0000000C   0040A0E1           MOV      R4,R0
   \   00000010   0D00A0E1           MOV      R0,SP
   \   00000014   ........           _BLF     ??AnsiString,??AnsiString??rA
   \   00000018   0000A0E3           MOV      R0,#+0
   \   0000001C   01002DE9           PUSH     {R0}
   \   00000020   002095E5           LDR      R2,[R5, #+0]
   \   00000024   04308DE2           ADD      R3,SP,#+4
   \   00000028   A210A0E3           MOV      R1,#+162
   \   0000002C   501E81E3           ORR      R1,R1,#0x500
   \   00000030   20008DE2           ADD      R0,SP,#+32
   \   00000034   ........           _BLF     ??LibGetValue,??LibGetValue??rA
    189          	TEXT_SetText(hTextDensUnit5, UnitStr.c_str());
   \   00000038   1C009DE5           LDR      R0,[SP, #+28]
   \   0000003C   04D08DE2           ADD      SP,SP,#+4
   \   00000040   100050E3           CMP      R0,#+16
   \   00000044   FA04D4E1           LDRSH    R0,[R4, #+74]
   \   00000048   04109D25           LDRCS    R1,[SP, #+4]
   \   0000004C   04108D32           ADDCC    R1,SP,#+4
   \   00000050   ........           _BLF     TEXT_SetText,??TEXT_SetText??rA
    190          	EDIT_SetText(hEditBallastDens1,DensityStr.c_str());
   \   00000054   34009DE5           LDR      R0,[SP, #+52]
   \   00000058   100050E3           CMP      R0,#+16
   \   0000005C   FC04D4E1           LDRSH    R0,[R4, #+76]
   \   00000060   20109D25           LDRCS    R1,[SP, #+32]
   \   00000064   20108D32           ADDCC    R1,SP,#+32
   \   00000068   ........           _BLF     EDIT_SetText,??EDIT_SetText??rA
    191          	SetSelected(GUI_ID_DROPDOWN4,PROSystemData::TXUSystemData->GetOpModeState(SVT_TANK_STATE_STR_BAL));
   \   0000006C   000095E5           LDR      R0,[R5, #+0]
   \   00000070   C910A0E3           MOV      R1,#+201
   \   00000074   501E81E3           ORR      R1,R1,#0x500
   \   00000078   ........           _BLF     ??GetOpModeState,??GetOpModeState??rA
   \   0000007C   0020A0E1           MOV      R2,R0
   \   00000080   AC1EA0E3           MOV      R1,#+2752
   \   00000084   0400A0E1           MOV      R0,R4
   \   00000088   ........           _BLF     ??SetSelected,??SetSelected??rA
    192          	if ( hTimer ) WM_RestartTimer(hTimer, 1000);
   \   0000008C   FC02D4E1           LDRSH    R0,[R4, #+44]
   \   00000090   000050E3           CMP      R0,#+0
   \   00000094   0100000A           BEQ      ??Update_1
   \   00000098   FA1FA0E3           MOV      R1,#+1000
   \   0000009C   ........           _BLF     WM_RestartTimer,??WM_RestartTimer??rA
    193          }
   \                     ??Update_1:
   \   000000A0   0020A0E3           MOV      R2,#+0
   \   000000A4   0110A0E3           MOV      R1,#+1
   \   000000A8   1C008DE2           ADD      R0,SP,#+28
   \   000000AC   ........           _BLF     ??_Tidy,??_Tidy??rA
   \   000000B0   0020A0E3           MOV      R2,#+0
   \   000000B4   0110A0E3           MOV      R1,#+1
   \   000000B8   0D00A0E1           MOV      R0,SP
   \   000000BC   ........           _BLF     ??_Tidy,??_Tidy??rA
   \   000000C0   38D08DE2           ADD      SP,SP,#+56
   \   000000C4   3040BDE8           POP      {R4,R5,LR}
   \   000000C8   1EFF2FE1           BX       LR               ;; return
    194          
    195          
    196          

   \                                 In segment CODE, align 4, keep-with-next
    197          void TDUAppSetupBallast::cbTankSetup(WM_MESSAGE *pMsg)
    198          {
   \                     ??cbTankSetup:
   \   00000000   F0472DE9           PUSH     {R4-R10,LR}
    199          	int NCode, Id;
    200          	WM_HWIN hWin = pMsg->hWin;
    201          	switch ( pMsg->MsgId ) {
   \   00000004   F49B9FE5           LDR      R9,??cbTankSetup_4  ;; AppSetupBallast
   \   00000008   D8D04DE2           SUB      SP,SP,#+216
   \   0000000C   F05B9FE5           LDR      R5,??cbTankSetup_4+0x4  ;; KeyBoard
   \   00000010   F0AB9FE5           LDR      R10,??cbTankSetup_4+0x8  ;; ??TXUSystemData
   \   00000014   0060A0E1           MOV      R6,R0
   \   00000018   001096E5           LDR      R1,[R6, #+0]
   \   0000001C   F470D6E1           LDRSH    R7,[R6, #+4]
   \   00000020   F640D6E1           LDRSH    R4,[R6, #+6]
   \   00000024   000099E5           LDR      R0,[R9, #+0]
   \   00000028   0180A0E3           MOV      R8,#+1
   \   0000002C   0D1041E2           SUB      R1,R1,#+13
   \   00000030   0720A0E3           MOV      R2,#+7
   \   00000034   402E82E3           ORR      R2,R2,#0x400
   \   00000038   020051E1           CMP      R1,R2
   \   0000003C   AA07008A           BHI      ??cbTankSetup_5
   \   00000040   022F8FE2           ADR      R2,??cbTankSetup_1
   \   00000044   8110A0E1           MOV      R1,R1, LSL #+1
   \   00000048   B12092E1           LDRH     R2,[R2, R1]
   \   0000004C   02F18FE0           ADD      PC,PC,R2, LSL #+2
   \                     ??cbTankSetup_1:
   \   00000050   5E02A6070502       DC16     +606,+1958,+517,+1958
   \              A607        
   \   00000058   A607A607A607       DC16     +1958,+1958,+1958,+1958
   \              A607        
   \   00000060   A607A607A607       DC16     +1958,+1958,+1958,+1958
   \              A607        
   \   00000068   A607A607A607       DC16     +1958,+1958,+1958,+1958
   \              A607        
   \   00000070   0302A607A607       DC16     +515,+1958,+1958,+1958
   \              A607        
   \   00000078   A607A607A607       DC16     +1958,+1958,+1958,+1958
   \              A607        
   \   00000080   A607BA02A607       DC16     +1958,+698,+1958,+1958
   \              A607        
   \   00000088   A607A607A607       DC16     +1958,+1958,+1958,+1958
   \              A607        
   \   00000090   A607A607A607       DC16     +1958,+1958,+1958,+1958
   \              A607        
   \   00000098   A607A607A607       DC16     +1958,+1958,+1958,+1958
   \              A607        
   \   000000A0   A607A607A607       DC16     +1958,+1958,+1958,+1958
   \              A607        
   \   000000A8   A607A607A607       DC16     +1958,+1958,+1958,+1958
   \              A607        
   \   000000B0   A607A607A607       DC16     +1958,+1958,+1958,+1958
   \              A607        
   \   000000B8   A607A607A607       DC16     +1958,+1958,+1958,+1958
   \              A607        
   \   000000C0   A607A607A607       DC16     +1958,+1958,+1958,+1958
   \              A607        
   \   000000C8   A607A607A607       DC16     +1958,+1958,+1958,+1958
   \              A607        
   \   000000D0   A607A607A607       DC16     +1958,+1958,+1958,+1958
   \              A607        
   \   000000D8   A607A607A607       DC16     +1958,+1958,+1958,+1958
   \              A607        
   \   000000E0   A607A607A607       DC16     +1958,+1958,+1958,+1958
   \              A607        
   \   000000E8   A607A607A607       DC16     +1958,+1958,+1958,+1958
   \              A607        
   \   000000F0   A607A607A607       DC16     +1958,+1958,+1958,+1958
   \              A607        
   \   000000F8   A607A607A607       DC16     +1958,+1958,+1958,+1958
   \              A607        
   \   00000100   A607A607A607       DC16     +1958,+1958,+1958,+1958
   \              A607        
   \   00000108   A607A607A607       DC16     +1958,+1958,+1958,+1958
   \              A607        
   \   00000110   A607A607A607       DC16     +1958,+1958,+1958,+1958
   \              A607        
   \   00000118   A607A607A607       DC16     +1958,+1958,+1958,+1958
   \              A607        
   \   00000120   A607A607A607       DC16     +1958,+1958,+1958,+1958
   \              A607        
   \   00000128   A607A607A607       DC16     +1958,+1958,+1958,+1958
   \              A607        
   \   00000130   A607A607A607       DC16     +1958,+1958,+1958,+1958
   \              A607        
   \   00000138   A607A607A607       DC16     +1958,+1958,+1958,+1958
   \              A607        
   \   00000140   A607A607A607       DC16     +1958,+1958,+1958,+1958
   \              A607        
   \   00000148   A607A607A607       DC16     +1958,+1958,+1958,+1958
   \              A607        
   \   00000150   A607A607A607       DC16     +1958,+1958,+1958,+1958
   \              A607        
   \   00000158   A607A607A607       DC16     +1958,+1958,+1958,+1958
   \              A607        
   \   00000160   A607A607A607       DC16     +1958,+1958,+1958,+1958
   \              A607        
   \   00000168   A607A607A607       DC16     +1958,+1958,+1958,+1958
   \              A607        
   \   00000170   A607A607A607       DC16     +1958,+1958,+1958,+1958
   \              A607        
   \   00000178   A607A607A607       DC16     +1958,+1958,+1958,+1958
   \              A607        
   \   00000180   A607A607A607       DC16     +1958,+1958,+1958,+1958
   \              A607        
   \   00000188   A607A607A607       DC16     +1958,+1958,+1958,+1958
   \              A607        
   \   00000190   A607A607A607       DC16     +1958,+1958,+1958,+1958
   \              A607        
   \   00000198   A607A607A607       DC16     +1958,+1958,+1958,+1958
   \              A607        
   \   000001A0   A607A607A607       DC16     +1958,+1958,+1958,+1958
   \              A607        
   \   000001A8   A607A607A607       DC16     +1958,+1958,+1958,+1958
   \              A607        
   \   000001B0   A607A607A607       DC16     +1958,+1958,+1958,+1958
   \              A607        
   \   000001B8   A607A607A607       DC16     +1958,+1958,+1958,+1958
   \              A607        
   \   000001C0   A607A607A607       DC16     +1958,+1958,+1958,+1958
   \              A607        
   \   000001C8   A607A607A607       DC16     +1958,+1958,+1958,+1958
   \              A607        
   \   000001D0   A607A607A607       DC16     +1958,+1958,+1958,+1958
   \              A607        
   \   000001D8   A607A607A607       DC16     +1958,+1958,+1958,+1958
   \              A607        
   \   000001E0   A607A607A607       DC16     +1958,+1958,+1958,+1958
   \              A607        
   \   000001E8   A607A607A607       DC16     +1958,+1958,+1958,+1958
   \              A607        
   \   000001F0   A607A607A607       DC16     +1958,+1958,+1958,+1958
   \              A607        
   \   000001F8   A607A607A607       DC16     +1958,+1958,+1958,+1958
   \              A607        
   \   00000200   A607A607A607       DC16     +1958,+1958,+1958,+1958
   \              A607        
   \   00000208   A607A607A607       DC16     +1958,+1958,+1958,+1958
   \              A607        
   \   00000210   A607A607A607       DC16     +1958,+1958,+1958,+1958
   \              A607        
   \   00000218   A607A607A607       DC16     +1958,+1958,+1958,+1958
   \              A607        
   \   00000220   A607A607A607       DC16     +1958,+1958,+1958,+1958
   \              A607        
   \   00000228   A607A607A607       DC16     +1958,+1958,+1958,+1958
   \              A607        
   \   00000230   A607A607A607       DC16     +1958,+1958,+1958,+1958
   \              A607        
   \   00000238   A607A607A607       DC16     +1958,+1958,+1958,+1958
   \              A607        
   \   00000240   A607A607A607       DC16     +1958,+1958,+1958,+1958
   \              A607        
   \   00000248   A607A607A607       DC16     +1958,+1958,+1958,+1958
   \              A607        
   \   00000250   A607A607A607       DC16     +1958,+1958,+1958,+1958
   \              A607        
   \   00000258   A607A607A407       DC16     +1958,+1958,+1956,+1958
   \              A607        
   \   00000260   A607A607A607       DC16     +1958,+1958,+1958,+1958
   \              A607        
   \   00000268   A607A607A607       DC16     +1958,+1958,+1958,+1958
   \              A607        
   \   00000270   A607A607A607       DC16     +1958,+1958,+1958,+1958
   \              A607        
   \   00000278   A607A607A607       DC16     +1958,+1958,+1958,+1958
   \              A607        
   \   00000280   A607A607A607       DC16     +1958,+1958,+1958,+1958
   \              A607        
   \   00000288   A607A607A607       DC16     +1958,+1958,+1958,+1958
   \              A607        
   \   00000290   A607A607A607       DC16     +1958,+1958,+1958,+1958
   \              A607        
   \   00000298   A607A607A607       DC16     +1958,+1958,+1958,+1958
   \              A607        
   \   000002A0   A607A607A607       DC16     +1958,+1958,+1958,+1958
   \              A607        
   \   000002A8   A607A607A607       DC16     +1958,+1958,+1958,+1958
   \              A607        
   \   000002B0   A607A607A607       DC16     +1958,+1958,+1958,+1958
   \              A607        
   \   000002B8   A607A607A607       DC16     +1958,+1958,+1958,+1958
   \              A607        
   \   000002C0   A607A607A607       DC16     +1958,+1958,+1958,+1958
   \              A607        
   \   000002C8   A607A607A607       DC16     +1958,+1958,+1958,+1958
   \              A607        
   \   000002D0   A607A607A607       DC16     +1958,+1958,+1958,+1958
   \              A607        
   \   000002D8   A607A607A607       DC16     +1958,+1958,+1958,+1958
   \              A607        
   \   000002E0   A607A607A607       DC16     +1958,+1958,+1958,+1958
   \              A607        
   \   000002E8   A607A607A607       DC16     +1958,+1958,+1958,+1958
   \              A607        
   \   000002F0   A607A607A607       DC16     +1958,+1958,+1958,+1958
   \              A607        
   \   000002F8   A607A607A607       DC16     +1958,+1958,+1958,+1958
   \              A607        
   \   00000300   A607A607A607       DC16     +1958,+1958,+1958,+1958
   \              A607        
   \   00000308   A607A607A607       DC16     +1958,+1958,+1958,+1958
   \              A607        
   \   00000310   A607A607A607       DC16     +1958,+1958,+1958,+1958
   \              A607        
   \   00000318   A607A607A607       DC16     +1958,+1958,+1958,+1958
   \              A607        
   \   00000320   A607A607A607       DC16     +1958,+1958,+1958,+1958
   \              A607        
   \   00000328   A607A607A607       DC16     +1958,+1958,+1958,+1958
   \              A607        
   \   00000330   A607A607A607       DC16     +1958,+1958,+1958,+1958
   \              A607        
   \   00000338   A607A607A607       DC16     +1958,+1958,+1958,+1958
   \              A607        
   \   00000340   A607A607A607       DC16     +1958,+1958,+1958,+1958
   \              A607        
   \   00000348   A607A607A607       DC16     +1958,+1958,+1958,+1958
   \              A607        
   \   00000350   A607A607A607       DC16     +1958,+1958,+1958,+1958
   \              A607        
   \   00000358   A607A607A607       DC16     +1958,+1958,+1958,+1958
   \              A607        
   \   00000360   A607A607A607       DC16     +1958,+1958,+1958,+1958
   \              A607        
   \   00000368   A607A607A607       DC16     +1958,+1958,+1958,+1958
   \              A607        
   \   00000370   A607A607A607       DC16     +1958,+1958,+1958,+1958
   \              A607        
   \   00000378   A607A607A607       DC16     +1958,+1958,+1958,+1958
   \              A607        
   \   00000380   A607A607A607       DC16     +1958,+1958,+1958,+1958
   \              A607        
   \   00000388   A607A607A607       DC16     +1958,+1958,+1958,+1958
   \              A607        
   \   00000390   A607A607A607       DC16     +1958,+1958,+1958,+1958
   \              A607        
   \   00000398   A607A607A607       DC16     +1958,+1958,+1958,+1958
   \              A607        
   \   000003A0   A607A607A607       DC16     +1958,+1958,+1958,+1958
   \              A607        
   \   000003A8   A607A607A607       DC16     +1958,+1958,+1958,+1958
   \              A607        
   \   000003B0   A607A607A607       DC16     +1958,+1958,+1958,+1958
   \              A607        
   \   000003B8   A607A607A607       DC16     +1958,+1958,+1958,+1958
   \              A607        
   \   000003C0   A607A607A607       DC16     +1958,+1958,+1958,+1958
   \              A607        
   \   000003C8   A607A607A607       DC16     +1958,+1958,+1958,+1958
   \              A607        
   \   000003D0   A607A607A607       DC16     +1958,+1958,+1958,+1958
   \              A607        
   \   000003D8   A607A607A607       DC16     +1958,+1958,+1958,+1958
   \              A607        
   \   000003E0   A607A607A607       DC16     +1958,+1958,+1958,+1958
   \              A607        
   \   000003E8   A607A607A607       DC16     +1958,+1958,+1958,+1958
   \              A607        
   \   000003F0   A607A607A607       DC16     +1958,+1958,+1958,+1958
   \              A607        
   \   000003F8   A607A607A607       DC16     +1958,+1958,+1958,+1958
   \              A607        
   \   00000400   A607A607A607       DC16     +1958,+1958,+1958,+1958
   \              A607        
   \   00000408   A607A607A607       DC16     +1958,+1958,+1958,+1958
   \              A607        
   \   00000410   A607A607A607       DC16     +1958,+1958,+1958,+1958
   \              A607        
   \   00000418   A607A607A607       DC16     +1958,+1958,+1958,+1958
   \              A607        
   \   00000420   A607A607A607       DC16     +1958,+1958,+1958,+1958
   \              A607        
   \   00000428   A607A607A607       DC16     +1958,+1958,+1958,+1958
   \              A607        
   \   00000430   A607A607A607       DC16     +1958,+1958,+1958,+1958
   \              A607        
   \   00000438   A607A607A607       DC16     +1958,+1958,+1958,+1958
   \              A607        
   \   00000440   A607A607A607       DC16     +1958,+1958,+1958,+1958
   \              A607        
   \   00000448   A607A607A607       DC16     +1958,+1958,+1958,+1958
   \              A607        
   \   00000450   A607A607A607       DC16     +1958,+1958,+1958,+1958
   \              A607        
   \   00000458   A607A607A607       DC16     +1958,+1958,+1958,+1958
   \              A607        
   \   00000460   A607A607A607       DC16     +1958,+1958,+1958,+1958
   \              A607        
   \   00000468   A607A607A607       DC16     +1958,+1958,+1958,+1958
   \              A607        
   \   00000470   A607A607A607       DC16     +1958,+1958,+1958,+1958
   \              A607        
   \   00000478   A607A607A607       DC16     +1958,+1958,+1958,+1958
   \              A607        
   \   00000480   A607A607A607       DC16     +1958,+1958,+1958,+1958
   \              A607        
   \   00000488   A607A607A607       DC16     +1958,+1958,+1958,+1958
   \              A607        
   \   00000490   A607A607A607       DC16     +1958,+1958,+1958,+1958
   \              A607        
   \   00000498   A607A607A607       DC16     +1958,+1958,+1958,+1958
   \              A607        
   \   000004A0   A607A607A607       DC16     +1958,+1958,+1958,+1958
   \              A607        
   \   000004A8   A607A607A607       DC16     +1958,+1958,+1958,+1958
   \              A607        
   \   000004B0   A607A607A607       DC16     +1958,+1958,+1958,+1958
   \              A607        
   \   000004B8   A607A607A607       DC16     +1958,+1958,+1958,+1958
   \              A607        
   \   000004C0   A607A607A607       DC16     +1958,+1958,+1958,+1958
   \              A607        
   \   000004C8   A607A607A607       DC16     +1958,+1958,+1958,+1958
   \              A607        
   \   000004D0   A607A607A607       DC16     +1958,+1958,+1958,+1958
   \              A607        
   \   000004D8   A607A607A607       DC16     +1958,+1958,+1958,+1958
   \              A607        
   \   000004E0   A607A607A607       DC16     +1958,+1958,+1958,+1958
   \              A607        
   \   000004E8   A607A607A607       DC16     +1958,+1958,+1958,+1958
   \              A607        
   \   000004F0   A607A607A607       DC16     +1958,+1958,+1958,+1958
   \              A607        
   \   000004F8   A607A607A607       DC16     +1958,+1958,+1958,+1958
   \              A607        
   \   00000500   A607A607A607       DC16     +1958,+1958,+1958,+1958
   \              A607        
   \   00000508   A607A607A607       DC16     +1958,+1958,+1958,+1958
   \              A607        
   \   00000510   A607A607A607       DC16     +1958,+1958,+1958,+1958
   \              A607        
   \   00000518   A607A607A607       DC16     +1958,+1958,+1958,+1958
   \              A607        
   \   00000520   A607A607A607       DC16     +1958,+1958,+1958,+1958
   \              A607        
   \   00000528   A607A607A607       DC16     +1958,+1958,+1958,+1958
   \              A607        
   \   00000530   A607A607A607       DC16     +1958,+1958,+1958,+1958
   \              A607        
   \   00000538   A607A607A607       DC16     +1958,+1958,+1958,+1958
   \              A607        
   \   00000540   A607A607A607       DC16     +1958,+1958,+1958,+1958
   \              A607        
   \   00000548   A607A607A607       DC16     +1958,+1958,+1958,+1958
   \              A607        
   \   00000550   A607A607A607       DC16     +1958,+1958,+1958,+1958
   \              A607        
   \   00000558   A607A607A607       DC16     +1958,+1958,+1958,+1958
   \              A607        
   \   00000560   A607A607A607       DC16     +1958,+1958,+1958,+1958
   \              A607        
   \   00000568   A607A607A607       DC16     +1958,+1958,+1958,+1958
   \              A607        
   \   00000570   A607A607A607       DC16     +1958,+1958,+1958,+1958
   \              A607        
   \   00000578   A607A607A607       DC16     +1958,+1958,+1958,+1958
   \              A607        
   \   00000580   A607A607A607       DC16     +1958,+1958,+1958,+1958
   \              A607        
   \   00000588   A607A607A607       DC16     +1958,+1958,+1958,+1958
   \              A607        
   \   00000590   A607A607A607       DC16     +1958,+1958,+1958,+1958
   \              A607        
   \   00000598   A607A607A607       DC16     +1958,+1958,+1958,+1958
   \              A607        
   \   000005A0   A607A607A607       DC16     +1958,+1958,+1958,+1958
   \              A607        
   \   000005A8   A607A607A607       DC16     +1958,+1958,+1958,+1958
   \              A607        
   \   000005B0   A607A607A607       DC16     +1958,+1958,+1958,+1958
   \              A607        
   \   000005B8   A607A607A607       DC16     +1958,+1958,+1958,+1958
   \              A607        
   \   000005C0   A607A607A607       DC16     +1958,+1958,+1958,+1958
   \              A607        
   \   000005C8   A607A607A607       DC16     +1958,+1958,+1958,+1958
   \              A607        
   \   000005D0   A607A607A607       DC16     +1958,+1958,+1958,+1958
   \              A607        
   \   000005D8   A607A607A607       DC16     +1958,+1958,+1958,+1958
   \              A607        
   \   000005E0   A607A607A607       DC16     +1958,+1958,+1958,+1958
   \              A607        
   \   000005E8   A607A607A607       DC16     +1958,+1958,+1958,+1958
   \              A607        
   \   000005F0   A607A607A607       DC16     +1958,+1958,+1958,+1958
   \              A607        
   \   000005F8   A607A607A607       DC16     +1958,+1958,+1958,+1958
   \              A607        
   \   00000600   A607A607A607       DC16     +1958,+1958,+1958,+1958
   \              A607        
   \   00000608   A607A607A607       DC16     +1958,+1958,+1958,+1958
   \              A607        
   \   00000610   A607A607A607       DC16     +1958,+1958,+1958,+1958
   \              A607        
   \   00000618   A607A607A607       DC16     +1958,+1958,+1958,+1958
   \              A607        
   \   00000620   A607A607A607       DC16     +1958,+1958,+1958,+1958
   \              A607        
   \   00000628   A607A607A607       DC16     +1958,+1958,+1958,+1958
   \              A607        
   \   00000630   A607A607A607       DC16     +1958,+1958,+1958,+1958
   \              A607        
   \   00000638   A607A607A607       DC16     +1958,+1958,+1958,+1958
   \              A607        
   \   00000640   A607A607A607       DC16     +1958,+1958,+1958,+1958
   \              A607        
   \   00000648   A607A607A607       DC16     +1958,+1958,+1958,+1958
   \              A607        
   \   00000650   A607A607A607       DC16     +1958,+1958,+1958,+1958
   \              A607        
   \   00000658   A607A607A607       DC16     +1958,+1958,+1958,+1958
   \              A607        
   \   00000660   A607A607A607       DC16     +1958,+1958,+1958,+1958
   \              A607        
   \   00000668   A607A607A607       DC16     +1958,+1958,+1958,+1958
   \              A607        
   \   00000670   A607A607A607       DC16     +1958,+1958,+1958,+1958
   \              A607        
   \   00000678   A607A607A607       DC16     +1958,+1958,+1958,+1958
   \              A607        
   \   00000680   A607A607A607       DC16     +1958,+1958,+1958,+1958
   \              A607        
   \   00000688   A607A607A607       DC16     +1958,+1958,+1958,+1958
   \              A607        
   \   00000690   A607A607A607       DC16     +1958,+1958,+1958,+1958
   \              A607        
   \   00000698   A607A607A607       DC16     +1958,+1958,+1958,+1958
   \              A607        
   \   000006A0   A607A607A607       DC16     +1958,+1958,+1958,+1958
   \              A607        
   \   000006A8   A607A607A607       DC16     +1958,+1958,+1958,+1958
   \              A607        
   \   000006B0   A607A607A607       DC16     +1958,+1958,+1958,+1958
   \              A607        
   \   000006B8   A607A607A607       DC16     +1958,+1958,+1958,+1958
   \              A607        
   \   000006C0   A607A607A607       DC16     +1958,+1958,+1958,+1958
   \              A607        
   \   000006C8   A607A607A607       DC16     +1958,+1958,+1958,+1958
   \              A607        
   \   000006D0   A607A607A607       DC16     +1958,+1958,+1958,+1958
   \              A607        
   \   000006D8   A607A607A607       DC16     +1958,+1958,+1958,+1958
   \              A607        
   \   000006E0   A607A607A607       DC16     +1958,+1958,+1958,+1958
   \              A607        
   \   000006E8   A607A607A607       DC16     +1958,+1958,+1958,+1958
   \              A607        
   \   000006F0   A607A607A607       DC16     +1958,+1958,+1958,+1958
   \              A607        
   \   000006F8   A607A607A607       DC16     +1958,+1958,+1958,+1958
   \              A607        
   \   00000700   A607A607A607       DC16     +1958,+1958,+1958,+1958
   \              A607        
   \   00000708   A607A607A607       DC16     +1958,+1958,+1958,+1958
   \              A607        
   \   00000710   A607A607A607       DC16     +1958,+1958,+1958,+1958
   \              A607        
   \   00000718   A607A607A607       DC16     +1958,+1958,+1958,+1958
   \              A607        
   \   00000720   A607A607A607       DC16     +1958,+1958,+1958,+1958
   \              A607        
   \   00000728   A607A607A607       DC16     +1958,+1958,+1958,+1958
   \              A607        
   \   00000730   A607A607A607       DC16     +1958,+1958,+1958,+1958
   \              A607        
   \   00000738   A607A607A607       DC16     +1958,+1958,+1958,+1958
   \              A607        
   \   00000740   A607A607A607       DC16     +1958,+1958,+1958,+1958
   \              A607        
   \   00000748   A607A607A607       DC16     +1958,+1958,+1958,+1958
   \              A607        
   \   00000750   A607A607A607       DC16     +1958,+1958,+1958,+1958
   \              A607        
   \   00000758   A607A607A607       DC16     +1958,+1958,+1958,+1958
   \              A607        
   \   00000760   A607A607A607       DC16     +1958,+1958,+1958,+1958
   \              A607        
   \   00000768   A607A607A607       DC16     +1958,+1958,+1958,+1958
   \              A607        
   \   00000770   A607A607A607       DC16     +1958,+1958,+1958,+1958
   \              A607        
   \   00000778   A607A607A607       DC16     +1958,+1958,+1958,+1958
   \              A607        
   \   00000780   A607A607A607       DC16     +1958,+1958,+1958,+1958
   \              A607        
   \   00000788   A607A607A607       DC16     +1958,+1958,+1958,+1958
   \              A607        
   \   00000790   A607A607A607       DC16     +1958,+1958,+1958,+1958
   \              A607        
   \   00000798   A607A607A607       DC16     +1958,+1958,+1958,+1958
   \              A607        
   \   000007A0   A607A607A607       DC16     +1958,+1958,+1958,+1958
   \              A607        
   \   000007A8   A607A607A607       DC16     +1958,+1958,+1958,+1958
   \              A607        
   \   000007B0   A607A607A607       DC16     +1958,+1958,+1958,+1958
   \              A607        
   \   000007B8   A607A607A607       DC16     +1958,+1958,+1958,+1958
   \              A607        
   \   000007C0   A607A607A607       DC16     +1958,+1958,+1958,+1958
   \              A607        
   \   000007C8   A607A607A607       DC16     +1958,+1958,+1958,+1958
   \              A607        
   \   000007D0   A607A607A607       DC16     +1958,+1958,+1958,+1958
   \              A607        
   \   000007D8   A607A607A607       DC16     +1958,+1958,+1958,+1958
   \              A607        
   \   000007E0   A607A607A607       DC16     +1958,+1958,+1958,+1958
   \              A607        
   \   000007E8   A607A607A607       DC16     +1958,+1958,+1958,+1958
   \              A607        
   \   000007F0   A607A607A607       DC16     +1958,+1958,+1958,+1958
   \              A607        
   \   000007F8   A607A607A607       DC16     +1958,+1958,+1958,+1958
   \              A607        
   \   00000800   A607A607A607       DC16     +1958,+1958,+1958,+1958
   \              A607        
   \   00000808   A607A607A607       DC16     +1958,+1958,+1958,+1958
   \              A607        
   \   00000810   A607A607A607       DC16     +1958,+1958,+1958,+1958
   \              A607        
   \   00000818   A607A607A607       DC16     +1958,+1958,+1958,+1958
   \              A607        
   \   00000820   A607A607A607       DC16     +1958,+1958,+1958,+1958
   \              A607        
   \   00000828   A607A607A607       DC16     +1958,+1958,+1958,+1958
   \              A607        
   \   00000830   A607A607A607       DC16     +1958,+1958,+1958,+1958
   \              A607        
   \   00000838   0B02A607A607       DC16     +523,+1958,+1958,+1958
   \              A607        
   \   00000840   A607A607A607       DC16     +1958,+1958,+1958,+1958
   \              A607        
   \   00000848   A607A6073F02       DC16     +1958,+1958,+575,+527
   \              0F02        
   \   00000850   A607A607A607       DC16     +1958,+1958,+1958,+1958
   \              A607        
   \   00000858   A607A607A607       DC16     +1958,+1958,+1958,+620
   \              6C02        
    202          	case WM_INIT_DIALOG:
    203          		AppSetupBallast->FirstTime = true;
   \                     ??cbTankSetup_6:
   \   00000860   2880C0E5           STRB     R8,[R0, #+40]
   \   00000864   060000EA           B        ??cbTankSetup_7
    204          		break;
    205          	case WM_PAINT:
    206          		GUI_DrawRect(   2,  55, 275, 98 );
   \                     ??cbTankSetup_8:
   \   00000868   6230A0E3           MOV      R3,#+98
   \   0000086C   B12083E2           ADD      R2,R3,#+177
   \   00000870   3710A0E3           MOV      R1,#+55
   \   00000874   0200A0E3           MOV      R0,#+2
   \   00000878   ........           _BLF     GUI_DrawRect,??GUI_DrawRect??rA
    207          		AppSetupBallast->UpdateLanguage();
   \   0000087C   000099E5           LDR      R0,[R9, #+0]
   \                     ??cbTankSetup_9:
   \   00000880   ........           _BLF     ??UpdateLanguage,??UpdateLanguage??rA
   \                     ??cbTankSetup_7:
   \   00000884   D8D08DE2           ADD      SP,SP,#+216
   \   00000888   F047BDE8           POP      {R4-R10,LR}
   \   0000088C   1EFF2FE1           BX       LR
    208          		break;
    209          	case MESSAGE_LANGUAGE_CHANGE:
    210          		AppSetupBallast->UpdateLanguage();
    211          		break;
    212          	case MESSAGE_PINCODE_RETURN:
    213          		{
    214          			int ValueId = pMsg->hWinSrc;
    215          			char StringBuf[BUF_SIZE]={""};
   \                     ??cbTankSetup_10:
   \   00000890   6C008DE2           ADD      R0,SP,#+108
   \   00000894   0010A0E3           MOV      R1,#+0
   \   00000898   5020A0E3           MOV      R2,#+80
   \                     ??cbTankSetup_11:
   \   0000089C   042052E2           SUBS     R2,R2,#+4
   \   000008A0   021080E7           STR      R1,[R0, R2]
   \   000008A4   FCFFFF1A           BNE      ??cbTankSetup_11
    216          			strcpy( StringBuf,(char *)pMsg->Data.p);
   \   000008A8   081096E5           LDR      R1,[R6, #+8]
   \   000008AC   ........           _BLF     strcpy,??strcpy??rA
    217          			if ( PinUnlock || CheckPinCode(StringBuf) ) {
   \   000008B0   54039FE5           LDR      R0,??cbTankSetup_4+0xC  ;; PinUnlock
   \   000008B4   0000D0E5           LDRB     R0,[R0, #+0]
   \   000008B8   000050E3           CMP      R0,#+0
   \   000008BC   0B00001A           BNE      ??cbTankSetup_12
   \   000008C0   6C108DE2           ADD      R1,SP,#+108
   \   000008C4   18008DE2           ADD      R0,SP,#+24
   \   000008C8   ........           _BLF     ??AnsiString_1,??AnsiString??rA_1
   \   000008CC   18008DE2           ADD      R0,SP,#+24
   \   000008D0   ........           _BLF     ??CheckPinCode,??CheckPinCode??rA
   \   000008D4   0050A0E1           MOV      R5,R0
   \   000008D8   0020A0E3           MOV      R2,#+0
   \   000008DC   0110A0E3           MOV      R1,#+1
   \   000008E0   18008DE2           ADD      R0,SP,#+24
   \   000008E4   ........           _BLF     ??_Tidy,??_Tidy??rA
   \   000008E8   000055E3           CMP      R5,#+0
   \   000008EC   E4FFFF0A           BEQ      ??cbTankSetup_7
    218          				switch ( ValueId ) {
   \                     ??cbTankSetup_12:
   \   000008F0   18539FE5           LDR      R5,??cbTankSetup_4+0x10  ;; ConfirmMessageBox
   \   000008F4   5C0F54E2           SUBS     R0,R4,#+368
   \   000008F8   0200000A           BEQ      ??cbTankSetup_13
   \   000008FC   010050E2           SUBS     R0,R0,#+1
   \   00000900   0B00000A           BEQ      ??cbTankSetup_14
   \   00000904   DEFFFFEA           B        ??cbTankSetup_7
    219          				case GUI_ID_BUTTON0:	/* Pressure Button */
    220          					{
    221          						ConfirmMessageBox->Exec(WM_GetClientWindow(hWin),L_WORD602, L_WORD603, ValueId);
   \                     ??cbTankSetup_13:
   \   00000908   0700A0E1           MOV      R0,R7
   \   0000090C   ........           _BLF     WM_GetClientWindow,??WM_GetClientWindow??rA
   \   00000910   10002DE9           PUSH     {R4}
   \   00000914   0010A0E1           MOV      R1,R0
   \   00000918   5B30A0E3           MOV      R3,#+91
   \   0000091C   803F83E3           ORR      R3,R3,#0x200
   \   00000920   0120C3E3           BIC      R2,R3,#0x1
   \                     ??cbTankSetup_15:
   \   00000924   000095E5           LDR      R0,[R5, #+0]
   \   00000928   ........           _BLF     ??Exec,??Exec??rA
   \   0000092C   04D08DE2           ADD      SP,SP,#+4
   \   00000930   D3FFFFEA           B        ??cbTankSetup_7
    222          						// Zero adjust tank pressure!  The tanks must be vented to the atmosphere. This operation affects all cargo tanks.
    223          
    224          
    225          					}
    226          					break;
    227          				case GUI_ID_BUTTON1:	/* Level Button */
    228          					{
    229          						ConfirmMessageBox->Exec(WM_GetClientWindow(hWin), L_WORD604, L_WORD605, ValueId);
   \                     ??cbTankSetup_14:
   \   00000934   0700A0E1           MOV      R0,R7
   \   00000938   ........           _BLF     WM_GetClientWindow,??WM_GetClientWindow??rA
   \   0000093C   10002DE9           PUSH     {R4}
   \   00000940   973F88E3           ORR      R3,R8,#0x25C
   \   00000944   972FA0E3           MOV      R2,#+604
   \   00000948   0010A0E1           MOV      R1,R0
   \   0000094C   F4FFFFEA           B        ??cbTankSetup_15
    230          						// Zero adjust sensor(s)! The tanks must be empty and no tank cleaning the last 30 minutes. This operation affects all tanks.
    231          
    232          					}
    233          					break;
    234          				}
    235          			}
    236          		}
    237          		break;
    238          	case MESSAGE_KEYPAD_RETURN:
    239          		{
    240          			int ValueId = pMsg->hWinSrc;
    241          			AnsiString StringBuf =(char*)pMsg->Data.p;
   \                     ??cbTankSetup_16:
   \   00000950   081096E5           LDR      R1,[R6, #+8]
   \   00000954   34008DE2           ADD      R0,SP,#+52
   \   00000958   ........           _BLF     ??AnsiString_1,??AnsiString??rA_1
    242          			if ( ValueId == GUI_ID_EDIT1 ) {
   \   0000095C   400F88E3           ORR      R0,R8,#0x100
   \   00000960   000054E1           CMP      R4,R0
   \   00000964   1300001A           BNE      ??cbTankSetup_17
    243          				LibPutValue( SVT_BALLAST_DNS, PROSystemData::TXUSystemData, StringBuf);
   \   00000968   0020A0E3           MOV      R2,#+0
   \   0000096C   0010A0E3           MOV      R1,#+0
   \   00000970   18008DE2           ADD      R0,SP,#+24
   \   00000974   ........           _BLF     ??_Tidy,??_Tidy??rA
   \   00000978   94029FE5           LDR      R0,??cbTankSetup_4+0x14  ;; ??npos
   \   0000097C   0020A0E3           MOV      R2,#+0
   \   00000980   003090E5           LDR      R3,[R0, #+0]
   \   00000984   34108DE2           ADD      R1,SP,#+52
   \   00000988   18008DE2           ADD      R0,SP,#+24
   \   0000098C   ........           _BLF     ??assign,??assign??rA
   \   00000990   00109AE5           LDR      R1,[R10, #+0]
   \   00000994   0030A0E3           MOV      R3,#+0
   \   00000998   18208DE2           ADD      R2,SP,#+24
   \   0000099C   A200A0E3           MOV      R0,#+162
   \   000009A0   500E80E3           ORR      R0,R0,#0x500
   \   000009A4   ........           _BLF     ??LibPutValue,??LibPutValue??rA
   \   000009A8   0020A0E3           MOV      R2,#+0
   \   000009AC   0810A0E1           MOV      R1,R8
   \   000009B0   18008DE2           ADD      R0,SP,#+24
   \   000009B4   ........           _BLF     ??_Tidy,??_Tidy??rA
    244          			}
    245          		}
   \                     ??cbTankSetup_17:
   \   000009B8   0020A0E3           MOV      R2,#+0
   \   000009BC   0110A0E3           MOV      R1,#+1
   \   000009C0   34008DE2           ADD      R0,SP,#+52
   \                     ??cbTankSetup_18:
   \   000009C4   ........           _BLF     ??_Tidy,??_Tidy??rA
   \   000009C8   ADFFFFEA           B        ??cbTankSetup_7
    246          		break;
    247          	case WM_TOUCH_CHILD:
    248          		{
    249          			Id    = WM_GetId(pMsg->hWinSrc);	/* Id of widget */
   \                     ??cbTankSetup_19:
   \   000009CC   0400A0E1           MOV      R0,R4
   \   000009D0   ........           _BLF     WM_GetId,??WM_GetId??rA
   \   000009D4   0040A0E1           MOV      R4,R0
    250          			switch ( Id ) {
   \   000009D8   401F88E3           ORR      R1,R8,#0x100
   \   000009DC   010050E1           CMP      R0,R1
   \   000009E0   A7FFFF1A           BNE      ??cbTankSetup_7
    251          			case GUI_ID_EDIT1:
    252          				KeyBoard->ExecKeyBoardNum(WM_GetClientWindow(hWin),L_WORD77,Id); // Ballast water density
   \   000009E4   0700A0E1           MOV      R0,R7
   \   000009E8   ........           _BLF     WM_GetClientWindow,??WM_GetClientWindow??rA
   \   000009EC   0010A0E1           MOV      R1,R0
   \   000009F0   000095E5           LDR      R0,[R5, #+0]
   \   000009F4   0430A0E1           MOV      R3,R4
   \   000009F8   4D20A0E3           MOV      R2,#+77
   \   000009FC   ........           _BLF     ??ExecKeyBoardNum,??ExecKeyBoardNum??rA
   \   00000A00   9FFFFFEA           B        ??cbTankSetup_7
    253          				break;
    254          			}
    255          		}
    256          		break;
    257          	case MESSAGE_YES_RETURN:
    258          		{
    259          			AnsiString TmpString;
   \                     ??cbTankSetup_20:
   \   00000A04   50008DE2           ADD      R0,SP,#+80
   \   00000A08   ........           _BLF     ??AnsiString,??AnsiString??rA
    260          			int ValueId = pMsg->hWinSrc;
   \   00000A0C   F640D6E1           LDRSH    R4,[R6, #+6]
    261          			char StringBuf[BUF_SIZE]={""};
   \   00000A10   6C008DE2           ADD      R0,SP,#+108
   \   00000A14   0010A0E3           MOV      R1,#+0
   \   00000A18   5020A0E3           MOV      R2,#+80
   \                     ??cbTankSetup_21:
   \   00000A1C   042052E2           SUBS     R2,R2,#+4
   \   00000A20   021080E7           STR      R1,[R0, R2]
   \   00000A24   FCFFFF1A           BNE      ??cbTankSetup_21
    262          			strcpy( StringBuf,(char *)pMsg->Data.p);
   \   00000A28   081096E5           LDR      R1,[R6, #+8]
   \   00000A2C   ........           _BLF     strcpy,??strcpy??rA
    263          			switch ( ValueId ) {
   \   00000A30   5C0F88E3           ORR      R0,R8,#0x170
   \   00000A34   000054E1           CMP      R4,R0
   \   00000A38   1E00001A           BNE      ??cbTankSetup_22
    264          			case GUI_ID_BUTTON0:	/* Pressure Button */
    265          				//TmpString = ZeroSetAllTankPressureSensor(PROBallastList,true);
    266          				//ANPRO10_SendZerosetAll(CMD_ZSET_ALL_BALLAST_TANK_PRESS);
    267          				break;
    268          			case GUI_ID_BUTTON1:	/* Level Button */
    269          				TmpString = PROTank::ZeroSetAllLevelSensors(PROBallastTank::ObjectSet,true);
   \   00000A3C   D4119FE5           LDR      R1,??cbTankSetup_4+0x18  ;; ??ObjectSet
   \   00000A40   0D00A0E1           MOV      R0,SP
   \   00000A44   ........           _BLF     ??_Tree,??_Tree??rA
   \   00000A48   0120A0E3           MOV      R2,#+1
   \   00000A4C   0D10A0E1           MOV      R1,SP
   \   00000A50   BC008DE2           ADD      R0,SP,#+188
   \   00000A54   ........           _BLF     ??ZeroSetAllLevelSensors,??ZeroSetAllLevelSensors??rA
   \   00000A58   B4019FE5           LDR      R0,??cbTankSetup_4+0x14  ;; ??npos
   \   00000A5C   0020A0E3           MOV      R2,#+0
   \   00000A60   003090E5           LDR      R3,[R0, #+0]
   \   00000A64   BC108DE2           ADD      R1,SP,#+188
   \   00000A68   50008DE2           ADD      R0,SP,#+80
   \   00000A6C   ........           _BLF     ??assign,??assign??rA
   \   00000A70   0020A0E3           MOV      R2,#+0
   \   00000A74   0810A0E1           MOV      R1,R8
   \   00000A78   BC008DE2           ADD      R0,SP,#+188
   \   00000A7C   ........           _BLF     ??_Tidy,??_Tidy??rA
   \   00000A80   04109DE5           LDR      R1,[SP, #+4]
   \   00000A84   0D00A0E1           MOV      R0,SP
   \   00000A88   ........           _BLF     ??_Erase,??_Erase??rA
   \   00000A8C   0D10A0E1           MOV      R1,SP
   \   00000A90   04108DE5           STR      R1,[SP, #+4]
   \   00000A94   00108DE5           STR      R1,[SP, #+0]
   \   00000A98   08108DE5           STR      R1,[SP, #+8]
   \   00000A9C   0D80CDE5           STRB     R8,[SP, #+13]
   \   00000AA0   0C80CDE5           STRB     R8,[SP, #+12]
   \   00000AA4   0010A0E3           MOV      R1,#+0
   \   00000AA8   10108DE5           STR      R1,[SP, #+16]
    270          				ANPRO10_SendZerosetAll(CMD_ZSET_ALL_BALLAST_LEVEL);
   \   00000AAC   8A00A0E3           MOV      R0,#+138
   \   00000AB0   C00E80E3           ORR      R0,R0,#0xC00
   \   00000AB4   ........           _BLF     ??ANPRO10_SendZerosetAll,??ANPRO10_SendZerosetAll??rA
    271          				break;
    272          			}
    273          			if ( TmpString.Length() ) {
   \                     ??cbTankSetup_22:
   \   00000AB8   50008DE2           ADD      R0,SP,#+80
   \   00000ABC   ........           _BLF     ??Length,??Length??rA
   \   00000AC0   000050E3           CMP      R0,#+0
   \   00000AC4   1800000A           BEQ      ??cbTankSetup_23
    274          				DisplayMessage(FindDictionaryWord(L_WORD606), TmpString); // Zeroset warnings:
   \   00000AC8   0020A0E3           MOV      R2,#+0
   \   00000ACC   0010A0E3           MOV      R1,#+0
   \   00000AD0   34008DE2           ADD      R0,SP,#+52
   \   00000AD4   ........           _BLF     ??_Tidy,??_Tidy??rA
   \   00000AD8   34019FE5           LDR      R0,??cbTankSetup_4+0x14  ;; ??npos
   \   00000ADC   0020A0E3           MOV      R2,#+0
   \   00000AE0   003090E5           LDR      R3,[R0, #+0]
   \   00000AE4   50108DE2           ADD      R1,SP,#+80
   \   00000AE8   34008DE2           ADD      R0,SP,#+52
   \   00000AEC   ........           _BLF     ??assign,??assign??rA
   \   00000AF0   5E10A0E3           MOV      R1,#+94
   \   00000AF4   801F81E3           ORR      R1,R1,#0x200
   \   00000AF8   18008DE2           ADD      R0,SP,#+24
   \   00000AFC   ........           _BLF     ??FindDictionaryWord,??FindDictionaryWord??rA
   \   00000B00   34108DE2           ADD      R1,SP,#+52
   \   00000B04   18008DE2           ADD      R0,SP,#+24
   \   00000B08   ........           _BLF     ??DisplayMessage,??DisplayMessage??rA
   \   00000B0C   0020A0E3           MOV      R2,#+0
   \   00000B10   0810A0E1           MOV      R1,R8
   \   00000B14   34008DE2           ADD      R0,SP,#+52
   \   00000B18   ........           _BLF     ??_Tidy,??_Tidy??rA
   \   00000B1C   0020A0E3           MOV      R2,#+0
   \   00000B20   0810A0E1           MOV      R1,R8
   \   00000B24   18008DE2           ADD      R0,SP,#+24
   \   00000B28   ........           _BLF     ??_Tidy,??_Tidy??rA
    275          
    276          			}
    277          		}
   \                     ??cbTankSetup_23:
   \   00000B2C   0020A0E3           MOV      R2,#+0
   \   00000B30   0110A0E3           MOV      R1,#+1
   \   00000B34   50008DE2           ADD      R0,SP,#+80
   \   00000B38   A1FFFFEA           B        ??cbTankSetup_18
    278          		break;
    279          	case WM_NOTIFY_PARENT:
    280          		Id    = WM_GetId(pMsg->hWinSrc);		/* Id of widget */
   \                     ??cbTankSetup_24:
   \   00000B3C   0400A0E1           MOV      R0,R4
   \   00000B40   ........           _BLF     WM_GetId,??WM_GetId??rA
   \   00000B44   0040A0E1           MOV      R4,R0
    281          		NCode = pMsg->Data.v;								/* Notification code */
    282          		switch ( NCode ) {
   \   00000B48   080096E5           LDR      R0,[R6, #+8]
   \   00000B4C   020050E2           SUBS     R0,R0,#+2
   \   00000B50   0400000A           BEQ      ??cbTankSetup_25
   \   00000B54   020050E2           SUBS     R0,R0,#+2
   \   00000B58   3000000A           BEQ      ??cbTankSetup_26
   \   00000B5C   010050E2           SUBS     R0,R0,#+1
   \   00000B60   1700000A           BEQ      ??cbTankSetup_27
   \   00000B64   46FFFFEA           B        ??cbTankSetup_7
    283          		case WM_NOTIFICATION_RELEASED:		/* React only if released */
    284          			switch ( Id ) {
   \                     ??cbTankSetup_25:
   \   00000B68   050054E3           CMP      R4,#+5
   \   00000B6C   0B00000A           BEQ      ??cbTankSetup_28
   \   00000B70   5C0F54E3           CMP      R4,#+368
   \   00000B74   5C1F8813           ORRNE    R1,R8,#0x170
   \   00000B78   01005411           CMPNE    R4,R1
   \   00000B7C   40FFFF1A           BNE      ??cbTankSetup_7
    285          			case GUI_ID_BUTTON0:	/* Pressure Button */
    286          			case GUI_ID_BUTTON1:	/* Level Button */
    287          				KeyBoard->ExecKeyBoardPinCode(WM_GetClientWindow(hWin),L_WORD150,Id);// Enter Pin code:
   \   00000B80   0700A0E1           MOV      R0,R7
   \   00000B84   ........           _BLF     WM_GetClientWindow,??WM_GetClientWindow??rA
   \   00000B88   0010A0E1           MOV      R1,R0
   \   00000B8C   000095E5           LDR      R0,[R5, #+0]
   \   00000B90   0430A0E1           MOV      R3,R4
   \   00000B94   9620A0E3           MOV      R2,#+150
   \   00000B98   ........           _BLF     ??ExecKeyBoardPinCode,??ExecKeyBoardPinCode??rA
   \   00000B9C   38FFFFEA           B        ??cbTankSetup_7
    288          				break;
    289          			case GUI_ID_CLOSE: /* Close Button */
    290          				if ( !AppSetupBallastIsClosed ) {
   \                     ??cbTankSetup_28:
   \   00000BA0   74009FE5           LDR      R0,??cbTankSetup_4+0x1C  ;; AppSetupBallastIsClosed
   \   00000BA4   0010D0E5           LDRB     R1,[R0, #+0]
   \   00000BA8   000051E3           CMP      R1,#+0
   \   00000BAC   34FFFF1A           BNE      ??cbTankSetup_7
    291          					AppSetupBallastIsClosed = true;
   \   00000BB0   0080C0E5           STRB     R8,[R0, #+0]
    292          					GUI_EndDialog(AppSetupBallast->WinHandl, 0);
   \   00000BB4   000099E5           LDR      R0,[R9, #+0]
   \   00000BB8   FA02D0E1           LDRSH    R0,[R0, #+42]
   \   00000BBC   ........           _BLF     GUI_EndDialog,??GUI_EndDialog??rA
   \   00000BC0   2FFFFFEA           B        ??cbTankSetup_7
    293          					//delete(AppSetupBallast);
    294          				}
    295          				break;
    296          			}
    297          			break;
    298          		case WM_NOTIFICATION_VALUE_CHANGED:
    299          			{
    300          				switch ( Id ) {
   \                     ??cbTankSetup_27:
   \   00000BC4   810044E2           SUB      R0,R4,#+129
   \   00000BC8   400F40E2           SUB      R0,R0,#+256
   \   00000BCC   020050E3           CMP      R0,#+2
   \   00000BD0   2BFFFF8A           BHI      ??cbTankSetup_7
   \   00000BD4   021F8FE2           ADR      R1,??cbTankSetup_2
   \   00000BD8   8000A0E1           MOV      R0,R0, LSL #+1
   \   00000BDC   F01091E1           LDRSH    R1,[R1, R0]
   \   00000BE0   01F18FE0           ADD      PC,PC,R1, LSL #+2
   \                     ??cbTankSetup_2:
   \   00000BE4   010001000100       DC16     +1,+1,+1,+0
   \              0000        
    301          				case GUI_ID_DROPDOWN1:
    302          				case GUI_ID_DROPDOWN2:
    303          				case GUI_ID_DROPDOWN3:
    304          					AppSetupBallast->UpdateDialog(hWin,Id);
   \                     ??cbTankSetup_29:
   \   00000BEC   000099E5           LDR      R0,[R9, #+0]
   \   00000BF0   0420A0E1           MOV      R2,R4
   \   00000BF4   0710A0E1           MOV      R1,R7
   \   00000BF8   ........           BL       ??UpdateDialog
   \   00000BFC   20FFFFEA           B        ??cbTankSetup_7
   \                     ??cbTankSetup_4:
   \   00000C00   ........           DC32     AppSetupBallast
   \   00000C04   ........           DC32     KeyBoard
   \   00000C08   ........           DC32     ??TXUSystemData
   \   00000C0C   ........           DC32     PinUnlock
   \   00000C10   ........           DC32     ConfirmMessageBox
   \   00000C14   ........           DC32     ??npos
   \   00000C18   ........           DC32     ??ObjectSet
   \   00000C1C   ........           DC32     AppSetupBallastIsClosed
    305          					break;
    306          				}
    307          			}
    308          			break;
    309          		case WM_NOTIFICATION_SEL_CHANGED:
    310          			{
    311          				switch ( Id ) {
   \                     ??cbTankSetup_26:
   \   00000C20   810044E2           SUB      R0,R4,#+129
   \   00000C24   400F40E2           SUB      R0,R0,#+256
   \   00000C28   3F10A0E3           MOV      R1,#+63
   \   00000C2C   901E81E3           ORR      R1,R1,#0x900
   \   00000C30   010050E1           CMP      R0,R1
   \   00000C34   12FFFF8A           BHI      ??cbTankSetup_7
   \   00000C38   021F8FE2           ADR      R1,??cbTankSetup_3
   \   00000C3C   8000A0E1           MOV      R0,R0, LSL #+1
   \   00000C40   F01091E1           LDRSH    R1,[R1, R0]
   \   00000C44   01F18FE0           ADD      PC,PC,R1, LSL #+2
   \                     ??cbTankSetup_3:
   \   00000C48   E8FFE8FFE8FF       DC16     +65512,+65512,+65512,+65294
   \              0EFF        
   \   00000C50   0EFF0EFF0EFF       DC16     +65294,+65294,+65294,+65294
   \              0EFF        
   \   00000C58   0EFF0EFF0EFF       DC16     +65294,+65294,+65294,+65294
   \              0EFF        
   \   00000C60   0EFF0EFF0EFF       DC16     +65294,+65294,+65294,+65294
   \              0EFF        
   \   00000C68   0EFF0EFF0EFF       DC16     +65294,+65294,+65294,+65294
   \              0EFF        
   \   00000C70   0EFF0EFF0EFF       DC16     +65294,+65294,+65294,+65294
   \              0EFF        
   \   00000C78   0EFF0EFF0EFF       DC16     +65294,+65294,+65294,+65294
   \              0EFF        
   \   00000C80   0EFF0EFF0EFF       DC16     +65294,+65294,+65294,+65294
   \              0EFF        
   \   00000C88   0EFF0EFF0EFF       DC16     +65294,+65294,+65294,+65294
   \              0EFF        
   \   00000C90   0EFF0EFF0EFF       DC16     +65294,+65294,+65294,+65294
   \              0EFF        
   \   00000C98   0EFF0EFF0EFF       DC16     +65294,+65294,+65294,+65294
   \              0EFF        
   \   00000CA0   0EFF0EFF0EFF       DC16     +65294,+65294,+65294,+65294
   \              0EFF        
   \   00000CA8   0EFF0EFF0EFF       DC16     +65294,+65294,+65294,+65294
   \              0EFF        
   \   00000CB0   0EFF0EFF0EFF       DC16     +65294,+65294,+65294,+65294
   \              0EFF        
   \   00000CB8   0EFF0EFF0EFF       DC16     +65294,+65294,+65294,+65294
   \              0EFF        
   \   00000CC0   0EFF0EFF0EFF       DC16     +65294,+65294,+65294,+65294
   \              0EFF        
   \   00000CC8   0EFF0EFF0EFF       DC16     +65294,+65294,+65294,+65294
   \              0EFF        
   \   00000CD0   0EFF0EFF0EFF       DC16     +65294,+65294,+65294,+65294
   \              0EFF        
   \   00000CD8   0EFF0EFF0EFF       DC16     +65294,+65294,+65294,+65294
   \              0EFF        
   \   00000CE0   0EFF0EFF0EFF       DC16     +65294,+65294,+65294,+65294
   \              0EFF        
   \   00000CE8   0EFF0EFF0EFF       DC16     +65294,+65294,+65294,+65294
   \              0EFF        
   \   00000CF0   0EFF0EFF0EFF       DC16     +65294,+65294,+65294,+65294
   \              0EFF        
   \   00000CF8   0EFF0EFF0EFF       DC16     +65294,+65294,+65294,+65294
   \              0EFF        
   \   00000D00   0EFF0EFF0EFF       DC16     +65294,+65294,+65294,+65294
   \              0EFF        
   \   00000D08   0EFF0EFF0EFF       DC16     +65294,+65294,+65294,+65294
   \              0EFF        
   \   00000D10   0EFF0EFF0EFF       DC16     +65294,+65294,+65294,+65294
   \              0EFF        
   \   00000D18   0EFF0EFF0EFF       DC16     +65294,+65294,+65294,+65294
   \              0EFF        
   \   00000D20   0EFF0EFF0EFF       DC16     +65294,+65294,+65294,+65294
   \              0EFF        
   \   00000D28   0EFF0EFF0EFF       DC16     +65294,+65294,+65294,+65294
   \              0EFF        
   \   00000D30   0EFF0EFF0EFF       DC16     +65294,+65294,+65294,+65294
   \              0EFF        
   \   00000D38   0EFF0EFF0EFF       DC16     +65294,+65294,+65294,+65294
   \              0EFF        
   \   00000D40   0EFF0EFF0EFF       DC16     +65294,+65294,+65294,+65294
   \              0EFF        
   \   00000D48   0EFF0EFF0EFF       DC16     +65294,+65294,+65294,+65294
   \              0EFF        
   \   00000D50   0EFF0EFF0EFF       DC16     +65294,+65294,+65294,+65294
   \              0EFF        
   \   00000D58   0EFF0EFF0EFF       DC16     +65294,+65294,+65294,+65294
   \              0EFF        
   \   00000D60   0EFF0EFF0EFF       DC16     +65294,+65294,+65294,+65294
   \              0EFF        
   \   00000D68   0EFF0EFF0EFF       DC16     +65294,+65294,+65294,+65294
   \              0EFF        
   \   00000D70   0EFF0EFF0EFF       DC16     +65294,+65294,+65294,+65294
   \              0EFF        
   \   00000D78   0EFF0EFF0EFF       DC16     +65294,+65294,+65294,+65294
   \              0EFF        
   \   00000D80   0EFF0EFF0EFF       DC16     +65294,+65294,+65294,+65294
   \              0EFF        
   \   00000D88   0EFF0EFF0EFF       DC16     +65294,+65294,+65294,+65294
   \              0EFF        
   \   00000D90   0EFF0EFF0EFF       DC16     +65294,+65294,+65294,+65294
   \              0EFF        
   \   00000D98   0EFF0EFF0EFF       DC16     +65294,+65294,+65294,+65294
   \              0EFF        
   \   00000DA0   0EFF0EFF0EFF       DC16     +65294,+65294,+65294,+65294
   \              0EFF        
   \   00000DA8   0EFF0EFF0EFF       DC16     +65294,+65294,+65294,+65294
   \              0EFF        
   \   00000DB0   0EFF0EFF0EFF       DC16     +65294,+65294,+65294,+65294
   \              0EFF        
   \   00000DB8   0EFF0EFF0EFF       DC16     +65294,+65294,+65294,+65294
   \              0EFF        
   \   00000DC0   0EFF0EFF0EFF       DC16     +65294,+65294,+65294,+65294
   \              0EFF        
   \   00000DC8   0EFF0EFF0EFF       DC16     +65294,+65294,+65294,+65294
   \              0EFF        
   \   00000DD0   0EFF0EFF0EFF       DC16     +65294,+65294,+65294,+65294
   \              0EFF        
   \   00000DD8   0EFF0EFF0EFF       DC16     +65294,+65294,+65294,+65294
   \              0EFF        
   \   00000DE0   0EFF0EFF0EFF       DC16     +65294,+65294,+65294,+65294
   \              0EFF        
   \   00000DE8   0EFF0EFF0EFF       DC16     +65294,+65294,+65294,+65294
   \              0EFF        
   \   00000DF0   0EFF0EFF0EFF       DC16     +65294,+65294,+65294,+65294
   \              0EFF        
   \   00000DF8   0EFF0EFF0EFF       DC16     +65294,+65294,+65294,+65294
   \              0EFF        
   \   00000E00   0EFF0EFF0EFF       DC16     +65294,+65294,+65294,+65294
   \              0EFF        
   \   00000E08   0EFF0EFF0EFF       DC16     +65294,+65294,+65294,+65294
   \              0EFF        
   \   00000E10   0EFF0EFF0EFF       DC16     +65294,+65294,+65294,+65294
   \              0EFF        
   \   00000E18   0EFF0EFF0EFF       DC16     +65294,+65294,+65294,+65294
   \              0EFF        
   \   00000E20   0EFF0EFF0EFF       DC16     +65294,+65294,+65294,+65294
   \              0EFF        
   \   00000E28   0EFF0EFF0EFF       DC16     +65294,+65294,+65294,+65294
   \              0EFF        
   \   00000E30   0EFF0EFF0EFF       DC16     +65294,+65294,+65294,+65294
   \              0EFF        
   \   00000E38   0EFF0EFF0EFF       DC16     +65294,+65294,+65294,+65294
   \              0EFF        
   \   00000E40   0EFF0EFF0EFF       DC16     +65294,+65294,+65294,+65294
   \              0EFF        
   \   00000E48   0EFF0EFF0EFF       DC16     +65294,+65294,+65294,+65294
   \              0EFF        
   \   00000E50   0EFF0EFF0EFF       DC16     +65294,+65294,+65294,+65294
   \              0EFF        
   \   00000E58   0EFF0EFF0EFF       DC16     +65294,+65294,+65294,+65294
   \              0EFF        
   \   00000E60   0EFF0EFF0EFF       DC16     +65294,+65294,+65294,+65294
   \              0EFF        
   \   00000E68   0EFF0EFF0EFF       DC16     +65294,+65294,+65294,+65294
   \              0EFF        
   \   00000E70   0EFF0EFF0EFF       DC16     +65294,+65294,+65294,+65294
   \              0EFF        
   \   00000E78   0EFF0EFF0EFF       DC16     +65294,+65294,+65294,+65294
   \              0EFF        
   \   00000E80   0EFF0EFF0EFF       DC16     +65294,+65294,+65294,+65294
   \              0EFF        
   \   00000E88   0EFF0EFF0EFF       DC16     +65294,+65294,+65294,+65294
   \              0EFF        
   \   00000E90   0EFF0EFF0EFF       DC16     +65294,+65294,+65294,+65294
   \              0EFF        
   \   00000E98   0EFF0EFF0EFF       DC16     +65294,+65294,+65294,+65294
   \              0EFF        
   \   00000EA0   0EFF0EFF0EFF       DC16     +65294,+65294,+65294,+65294
   \              0EFF        
   \   00000EA8   0EFF0EFF0EFF       DC16     +65294,+65294,+65294,+65294
   \              0EFF        
   \   00000EB0   0EFF0EFF0EFF       DC16     +65294,+65294,+65294,+65294
   \              0EFF        
   \   00000EB8   0EFF0EFF0EFF       DC16     +65294,+65294,+65294,+65294
   \              0EFF        
   \   00000EC0   0EFF0EFF0EFF       DC16     +65294,+65294,+65294,+65294
   \              0EFF        
   \   00000EC8   0EFF0EFF0EFF       DC16     +65294,+65294,+65294,+65294
   \              0EFF        
   \   00000ED0   0EFF0EFF0EFF       DC16     +65294,+65294,+65294,+65294
   \              0EFF        
   \   00000ED8   0EFF0EFF0EFF       DC16     +65294,+65294,+65294,+65294
   \              0EFF        
   \   00000EE0   0EFF0EFF0EFF       DC16     +65294,+65294,+65294,+65294
   \              0EFF        
   \   00000EE8   0EFF0EFF0EFF       DC16     +65294,+65294,+65294,+65294
   \              0EFF        
   \   00000EF0   0EFF0EFF0EFF       DC16     +65294,+65294,+65294,+65294
   \              0EFF        
   \   00000EF8   0EFF0EFF0EFF       DC16     +65294,+65294,+65294,+65294
   \              0EFF        
   \   00000F00   0EFF0EFF0EFF       DC16     +65294,+65294,+65294,+65294
   \              0EFF        
   \   00000F08   0EFF0EFF0EFF       DC16     +65294,+65294,+65294,+65294
   \              0EFF        
   \   00000F10   0EFF0EFF0EFF       DC16     +65294,+65294,+65294,+65294
   \              0EFF        
   \   00000F18   0EFF0EFF0EFF       DC16     +65294,+65294,+65294,+65294
   \              0EFF        
   \   00000F20   0EFF0EFF0EFF       DC16     +65294,+65294,+65294,+65294
   \              0EFF        
   \   00000F28   0EFF0EFF0EFF       DC16     +65294,+65294,+65294,+65294
   \              0EFF        
   \   00000F30   0EFF0EFF0EFF       DC16     +65294,+65294,+65294,+65294
   \              0EFF        
   \   00000F38   0EFF0EFF0EFF       DC16     +65294,+65294,+65294,+65294
   \              0EFF        
   \   00000F40   0EFF0EFF0EFF       DC16     +65294,+65294,+65294,+65294
   \              0EFF        
   \   00000F48   0EFF0EFF0EFF       DC16     +65294,+65294,+65294,+65294
   \              0EFF        
   \   00000F50   0EFF0EFF0EFF       DC16     +65294,+65294,+65294,+65294
   \              0EFF        
   \   00000F58   0EFF0EFF0EFF       DC16     +65294,+65294,+65294,+65294
   \              0EFF        
   \   00000F60   0EFF0EFF0EFF       DC16     +65294,+65294,+65294,+65294
   \              0EFF        
   \   00000F68   0EFF0EFF0EFF       DC16     +65294,+65294,+65294,+65294
   \              0EFF        
   \   00000F70   0EFF0EFF0EFF       DC16     +65294,+65294,+65294,+65294
   \              0EFF        
   \   00000F78   0EFF0EFF0EFF       DC16     +65294,+65294,+65294,+65294
   \              0EFF        
   \   00000F80   0EFF0EFF0EFF       DC16     +65294,+65294,+65294,+65294
   \              0EFF        
   \   00000F88   0EFF0EFF0EFF       DC16     +65294,+65294,+65294,+65294
   \              0EFF        
   \   00000F90   0EFF0EFF0EFF       DC16     +65294,+65294,+65294,+65294
   \              0EFF        
   \   00000F98   0EFF0EFF0EFF       DC16     +65294,+65294,+65294,+65294
   \              0EFF        
   \   00000FA0   0EFF0EFF0EFF       DC16     +65294,+65294,+65294,+65294
   \              0EFF        
   \   00000FA8   0EFF0EFF0EFF       DC16     +65294,+65294,+65294,+65294
   \              0EFF        
   \   00000FB0   0EFF0EFF0EFF       DC16     +65294,+65294,+65294,+65294
   \              0EFF        
   \   00000FB8   0EFF0EFF0EFF       DC16     +65294,+65294,+65294,+65294
   \              0EFF        
   \   00000FC0   0EFF0EFF0EFF       DC16     +65294,+65294,+65294,+65294
   \              0EFF        
   \   00000FC8   0EFF0EFF0EFF       DC16     +65294,+65294,+65294,+65294
   \              0EFF        
   \   00000FD0   0EFF0EFF0EFF       DC16     +65294,+65294,+65294,+65294
   \              0EFF        
   \   00000FD8   0EFF0EFF0EFF       DC16     +65294,+65294,+65294,+65294
   \              0EFF        
   \   00000FE0   0EFF0EFF0EFF       DC16     +65294,+65294,+65294,+65294
   \              0EFF        
   \   00000FE8   0EFF0EFF0EFF       DC16     +65294,+65294,+65294,+65294
   \              0EFF        
   \   00000FF0   0EFF0EFF0EFF       DC16     +65294,+65294,+65294,+65294
   \              0EFF        
   \   00000FF8   0EFF0EFF0EFF       DC16     +65294,+65294,+65294,+65294
   \              0EFF        
   \   00001000   0EFF0EFF0EFF       DC16     +65294,+65294,+65294,+65294
   \              0EFF        
   \   00001008   0EFF0EFF0EFF       DC16     +65294,+65294,+65294,+65294
   \              0EFF        
   \   00001010   0EFF0EFF0EFF       DC16     +65294,+65294,+65294,+65294
   \              0EFF        
   \   00001018   0EFF0EFF0EFF       DC16     +65294,+65294,+65294,+65294
   \              0EFF        
   \   00001020   0EFF0EFF0EFF       DC16     +65294,+65294,+65294,+65294
   \              0EFF        
   \   00001028   0EFF0EFF0EFF       DC16     +65294,+65294,+65294,+65294
   \              0EFF        
   \   00001030   0EFF0EFF0EFF       DC16     +65294,+65294,+65294,+65294
   \              0EFF        
   \   00001038   0EFF0EFF0EFF       DC16     +65294,+65294,+65294,+65294
   \              0EFF        
   \   00001040   0EFF0EFF0EFF       DC16     +65294,+65294,+65294,+65294
   \              0EFF        
   \   00001048   0EFF0EFF0EFF       DC16     +65294,+65294,+65294,+65294
   \              0EFF        
   \   00001050   0EFF0EFF0EFF       DC16     +65294,+65294,+65294,+65294
   \              0EFF        
   \   00001058   0EFF0EFF0EFF       DC16     +65294,+65294,+65294,+65294
   \              0EFF        
   \   00001060   0EFF0EFF0EFF       DC16     +65294,+65294,+65294,+65294
   \              0EFF        
   \   00001068   0EFF0EFF0EFF       DC16     +65294,+65294,+65294,+65294
   \              0EFF        
   \   00001070   0EFF0EFF0EFF       DC16     +65294,+65294,+65294,+65294
   \              0EFF        
   \   00001078   0EFF0EFF0EFF       DC16     +65294,+65294,+65294,+65294
   \              0EFF        
   \   00001080   0EFF0EFF0EFF       DC16     +65294,+65294,+65294,+65294
   \              0EFF        
   \   00001088   0EFF0EFF0EFF       DC16     +65294,+65294,+65294,+65294
   \              0EFF        
   \   00001090   0EFF0EFF0EFF       DC16     +65294,+65294,+65294,+65294
   \              0EFF        
   \   00001098   0EFF0EFF0EFF       DC16     +65294,+65294,+65294,+65294
   \              0EFF        
   \   000010A0   0EFF0EFF0EFF       DC16     +65294,+65294,+65294,+65294
   \              0EFF        
   \   000010A8   0EFF0EFF0EFF       DC16     +65294,+65294,+65294,+65294
   \              0EFF        
   \   000010B0   0EFF0EFF0EFF       DC16     +65294,+65294,+65294,+65294
   \              0EFF        
   \   000010B8   0EFF0EFF0EFF       DC16     +65294,+65294,+65294,+65294
   \              0EFF        
   \   000010C0   0EFF0EFF0EFF       DC16     +65294,+65294,+65294,+65294
   \              0EFF        
   \   000010C8   0EFF0EFF0EFF       DC16     +65294,+65294,+65294,+65294
   \              0EFF        
   \   000010D0   0EFF0EFF0EFF       DC16     +65294,+65294,+65294,+65294
   \              0EFF        
   \   000010D8   0EFF0EFF0EFF       DC16     +65294,+65294,+65294,+65294
   \              0EFF        
   \   000010E0   0EFF0EFF0EFF       DC16     +65294,+65294,+65294,+65294
   \              0EFF        
   \   000010E8   0EFF0EFF0EFF       DC16     +65294,+65294,+65294,+65294
   \              0EFF        
   \   000010F0   0EFF0EFF0EFF       DC16     +65294,+65294,+65294,+65294
   \              0EFF        
   \   000010F8   0EFF0EFF0EFF       DC16     +65294,+65294,+65294,+65294
   \              0EFF        
   \   00001100   0EFF0EFF0EFF       DC16     +65294,+65294,+65294,+65294
   \              0EFF        
   \   00001108   0EFF0EFF0EFF       DC16     +65294,+65294,+65294,+65294
   \              0EFF        
   \   00001110   0EFF0EFF0EFF       DC16     +65294,+65294,+65294,+65294
   \              0EFF        
   \   00001118   0EFF0EFF0EFF       DC16     +65294,+65294,+65294,+65294
   \              0EFF        
   \   00001120   0EFF0EFF0EFF       DC16     +65294,+65294,+65294,+65294
   \              0EFF        
   \   00001128   0EFF0EFF0EFF       DC16     +65294,+65294,+65294,+65294
   \              0EFF        
   \   00001130   0EFF0EFF0EFF       DC16     +65294,+65294,+65294,+65294
   \              0EFF        
   \   00001138   0EFF0EFF0EFF       DC16     +65294,+65294,+65294,+65294
   \              0EFF        
   \   00001140   0EFF0EFF0EFF       DC16     +65294,+65294,+65294,+65294
   \              0EFF        
   \   00001148   0EFF0EFF0EFF       DC16     +65294,+65294,+65294,+65294
   \              0EFF        
   \   00001150   0EFF0EFF0EFF       DC16     +65294,+65294,+65294,+65294
   \              0EFF        
   \   00001158   0EFF0EFF0EFF       DC16     +65294,+65294,+65294,+65294
   \              0EFF        
   \   00001160   0EFF0EFF0EFF       DC16     +65294,+65294,+65294,+65294
   \              0EFF        
   \   00001168   0EFF0EFF0EFF       DC16     +65294,+65294,+65294,+65294
   \              0EFF        
   \   00001170   0EFF0EFF0EFF       DC16     +65294,+65294,+65294,+65294
   \              0EFF        
   \   00001178   0EFF0EFF0EFF       DC16     +65294,+65294,+65294,+65294
   \              0EFF        
   \   00001180   0EFF0EFF0EFF       DC16     +65294,+65294,+65294,+65294
   \              0EFF        
   \   00001188   0EFF0EFF0EFF       DC16     +65294,+65294,+65294,+65294
   \              0EFF        
   \   00001190   0EFF0EFF0EFF       DC16     +65294,+65294,+65294,+65294
   \              0EFF        
   \   00001198   0EFF0EFF0EFF       DC16     +65294,+65294,+65294,+65294
   \              0EFF        
   \   000011A0   0EFF0EFF0EFF       DC16     +65294,+65294,+65294,+65294
   \              0EFF        
   \   000011A8   0EFF0EFF0EFF       DC16     +65294,+65294,+65294,+65294
   \              0EFF        
   \   000011B0   0EFF0EFF0EFF       DC16     +65294,+65294,+65294,+65294
   \              0EFF        
   \   000011B8   0EFF0EFF0EFF       DC16     +65294,+65294,+65294,+65294
   \              0EFF        
   \   000011C0   0EFF0EFF0EFF       DC16     +65294,+65294,+65294,+65294
   \              0EFF        
   \   000011C8   0EFF0EFF0EFF       DC16     +65294,+65294,+65294,+65294
   \              0EFF        
   \   000011D0   0EFF0EFF0EFF       DC16     +65294,+65294,+65294,+65294
   \              0EFF        
   \   000011D8   0EFF0EFF0EFF       DC16     +65294,+65294,+65294,+65294
   \              0EFF        
   \   000011E0   0EFF0EFF0EFF       DC16     +65294,+65294,+65294,+65294
   \              0EFF        
   \   000011E8   0EFF0EFF0EFF       DC16     +65294,+65294,+65294,+65294
   \              0EFF        
   \   000011F0   0EFF0EFF0EFF       DC16     +65294,+65294,+65294,+65294
   \              0EFF        
   \   000011F8   0EFF0EFF0EFF       DC16     +65294,+65294,+65294,+65294
   \              0EFF        
   \   00001200   0EFF0EFF0EFF       DC16     +65294,+65294,+65294,+65294
   \              0EFF        
   \   00001208   0EFF0EFF0EFF       DC16     +65294,+65294,+65294,+65294
   \              0EFF        
   \   00001210   0EFF0EFF0EFF       DC16     +65294,+65294,+65294,+65294
   \              0EFF        
   \   00001218   0EFF0EFF0EFF       DC16     +65294,+65294,+65294,+65294
   \              0EFF        
   \   00001220   0EFF0EFF0EFF       DC16     +65294,+65294,+65294,+65294
   \              0EFF        
   \   00001228   0EFF0EFF0EFF       DC16     +65294,+65294,+65294,+65294
   \              0EFF        
   \   00001230   0EFF0EFF0EFF       DC16     +65294,+65294,+65294,+65294
   \              0EFF        
   \   00001238   0EFF0EFF0EFF       DC16     +65294,+65294,+65294,+65294
   \              0EFF        
   \   00001240   0EFF0EFF0EFF       DC16     +65294,+65294,+65294,+65294
   \              0EFF        
   \   00001248   0EFF0EFF0EFF       DC16     +65294,+65294,+65294,+65294
   \              0EFF        
   \   00001250   0EFF0EFF0EFF       DC16     +65294,+65294,+65294,+65294
   \              0EFF        
   \   00001258   0EFF0EFF0EFF       DC16     +65294,+65294,+65294,+65294
   \              0EFF        
   \   00001260   0EFF0EFF0EFF       DC16     +65294,+65294,+65294,+65294
   \              0EFF        
   \   00001268   0EFF0EFF0EFF       DC16     +65294,+65294,+65294,+65294
   \              0EFF        
   \   00001270   0EFF0EFF0EFF       DC16     +65294,+65294,+65294,+65294
   \              0EFF        
   \   00001278   0EFF0EFF0EFF       DC16     +65294,+65294,+65294,+65294
   \              0EFF        
   \   00001280   0EFF0EFF0EFF       DC16     +65294,+65294,+65294,+65294
   \              0EFF        
   \   00001288   0EFF0EFF0EFF       DC16     +65294,+65294,+65294,+65294
   \              0EFF        
   \   00001290   0EFF0EFF0EFF       DC16     +65294,+65294,+65294,+65294
   \              0EFF        
   \   00001298   0EFF0EFF0EFF       DC16     +65294,+65294,+65294,+65294
   \              0EFF        
   \   000012A0   0EFF0EFF0EFF       DC16     +65294,+65294,+65294,+65294
   \              0EFF        
   \   000012A8   0EFF0EFF0EFF       DC16     +65294,+65294,+65294,+65294
   \              0EFF        
   \   000012B0   0EFF0EFF0EFF       DC16     +65294,+65294,+65294,+65294
   \              0EFF        
   \   000012B8   0EFF0EFF0EFF       DC16     +65294,+65294,+65294,+65294
   \              0EFF        
   \   000012C0   0EFF0EFF0EFF       DC16     +65294,+65294,+65294,+65294
   \              0EFF        
   \   000012C8   0EFF0EFF0EFF       DC16     +65294,+65294,+65294,+65294
   \              0EFF        
   \   000012D0   0EFF0EFF0EFF       DC16     +65294,+65294,+65294,+65294
   \              0EFF        
   \   000012D8   0EFF0EFF0EFF       DC16     +65294,+65294,+65294,+65294
   \              0EFF        
   \   000012E0   0EFF0EFF0EFF       DC16     +65294,+65294,+65294,+65294
   \              0EFF        
   \   000012E8   0EFF0EFF0EFF       DC16     +65294,+65294,+65294,+65294
   \              0EFF        
   \   000012F0   0EFF0EFF0EFF       DC16     +65294,+65294,+65294,+65294
   \              0EFF        
   \   000012F8   0EFF0EFF0EFF       DC16     +65294,+65294,+65294,+65294
   \              0EFF        
   \   00001300   0EFF0EFF0EFF       DC16     +65294,+65294,+65294,+65294
   \              0EFF        
   \   00001308   0EFF0EFF0EFF       DC16     +65294,+65294,+65294,+65294
   \              0EFF        
   \   00001310   0EFF0EFF0EFF       DC16     +65294,+65294,+65294,+65294
   \              0EFF        
   \   00001318   0EFF0EFF0EFF       DC16     +65294,+65294,+65294,+65294
   \              0EFF        
   \   00001320   0EFF0EFF0EFF       DC16     +65294,+65294,+65294,+65294
   \              0EFF        
   \   00001328   0EFF0EFF0EFF       DC16     +65294,+65294,+65294,+65294
   \              0EFF        
   \   00001330   0EFF0EFF0EFF       DC16     +65294,+65294,+65294,+65294
   \              0EFF        
   \   00001338   0EFF0EFF0EFF       DC16     +65294,+65294,+65294,+65294
   \              0EFF        
   \   00001340   0EFF0EFF0EFF       DC16     +65294,+65294,+65294,+65294
   \              0EFF        
   \   00001348   0EFF0EFF0EFF       DC16     +65294,+65294,+65294,+65294
   \              0EFF        
   \   00001350   0EFF0EFF0EFF       DC16     +65294,+65294,+65294,+65294
   \              0EFF        
   \   00001358   0EFF0EFF0EFF       DC16     +65294,+65294,+65294,+65294
   \              0EFF        
   \   00001360   0EFF0EFF0EFF       DC16     +65294,+65294,+65294,+65294
   \              0EFF        
   \   00001368   0EFF0EFF0EFF       DC16     +65294,+65294,+65294,+65294
   \              0EFF        
   \   00001370   0EFF0EFF0EFF       DC16     +65294,+65294,+65294,+65294
   \              0EFF        
   \   00001378   0EFF0EFF0EFF       DC16     +65294,+65294,+65294,+65294
   \              0EFF        
   \   00001380   0EFF0EFF0EFF       DC16     +65294,+65294,+65294,+65294
   \              0EFF        
   \   00001388   0EFF0EFF0EFF       DC16     +65294,+65294,+65294,+65294
   \              0EFF        
   \   00001390   0EFF0EFF0EFF       DC16     +65294,+65294,+65294,+65294
   \              0EFF        
   \   00001398   0EFF0EFF0EFF       DC16     +65294,+65294,+65294,+65294
   \              0EFF        
   \   000013A0   0EFF0EFF0EFF       DC16     +65294,+65294,+65294,+65294
   \              0EFF        
   \   000013A8   0EFF0EFF0EFF       DC16     +65294,+65294,+65294,+65294
   \              0EFF        
   \   000013B0   0EFF0EFF0EFF       DC16     +65294,+65294,+65294,+65294
   \              0EFF        
   \   000013B8   0EFF0EFF0EFF       DC16     +65294,+65294,+65294,+65294
   \              0EFF        
   \   000013C0   0EFF0EFF0EFF       DC16     +65294,+65294,+65294,+65294
   \              0EFF        
   \   000013C8   0EFF0EFF0EFF       DC16     +65294,+65294,+65294,+65294
   \              0EFF        
   \   000013D0   0EFF0EFF0EFF       DC16     +65294,+65294,+65294,+65294
   \              0EFF        
   \   000013D8   0EFF0EFF0EFF       DC16     +65294,+65294,+65294,+65294
   \              0EFF        
   \   000013E0   0EFF0EFF0EFF       DC16     +65294,+65294,+65294,+65294
   \              0EFF        
   \   000013E8   0EFF0EFF0EFF       DC16     +65294,+65294,+65294,+65294
   \              0EFF        
   \   000013F0   0EFF0EFF0EFF       DC16     +65294,+65294,+65294,+65294
   \              0EFF        
   \   000013F8   0EFF0EFF0EFF       DC16     +65294,+65294,+65294,+65294
   \              0EFF        
   \   00001400   0EFF0EFF0EFF       DC16     +65294,+65294,+65294,+65294
   \              0EFF        
   \   00001408   0EFF0EFF0EFF       DC16     +65294,+65294,+65294,+65294
   \              0EFF        
   \   00001410   0EFF0EFF0EFF       DC16     +65294,+65294,+65294,+65294
   \              0EFF        
   \   00001418   0EFF0EFF0EFF       DC16     +65294,+65294,+65294,+65294
   \              0EFF        
   \   00001420   0EFF0EFF0EFF       DC16     +65294,+65294,+65294,+65294
   \              0EFF        
   \   00001428   0EFF0EFF0EFF       DC16     +65294,+65294,+65294,+65294
   \              0EFF        
   \   00001430   0EFF0EFF0EFF       DC16     +65294,+65294,+65294,+65294
   \              0EFF        
   \   00001438   0EFF0EFF0EFF       DC16     +65294,+65294,+65294,+65294
   \              0EFF        
   \   00001440   0EFF0EFF0EFF       DC16     +65294,+65294,+65294,+65294
   \              0EFF        
   \   00001448   0EFF0EFF0EFF       DC16     +65294,+65294,+65294,+65294
   \              0EFF        
   \   00001450   0EFF0EFF0EFF       DC16     +65294,+65294,+65294,+65294
   \              0EFF        
   \   00001458   0EFF0EFF0EFF       DC16     +65294,+65294,+65294,+65294
   \              0EFF        
   \   00001460   0EFF0EFF0EFF       DC16     +65294,+65294,+65294,+65294
   \              0EFF        
   \   00001468   0EFF0EFF0EFF       DC16     +65294,+65294,+65294,+65294
   \              0EFF        
   \   00001470   0EFF0EFF0EFF       DC16     +65294,+65294,+65294,+65294
   \              0EFF        
   \   00001478   0EFF0EFF0EFF       DC16     +65294,+65294,+65294,+65294
   \              0EFF        
   \   00001480   0EFF0EFF0EFF       DC16     +65294,+65294,+65294,+65294
   \              0EFF        
   \   00001488   0EFF0EFF0EFF       DC16     +65294,+65294,+65294,+65294
   \              0EFF        
   \   00001490   0EFF0EFF0EFF       DC16     +65294,+65294,+65294,+65294
   \              0EFF        
   \   00001498   0EFF0EFF0EFF       DC16     +65294,+65294,+65294,+65294
   \              0EFF        
   \   000014A0   0EFF0EFF0EFF       DC16     +65294,+65294,+65294,+65294
   \              0EFF        
   \   000014A8   0EFF0EFF0EFF       DC16     +65294,+65294,+65294,+65294
   \              0EFF        
   \   000014B0   0EFF0EFF0EFF       DC16     +65294,+65294,+65294,+65294
   \              0EFF        
   \   000014B8   0EFF0EFF0EFF       DC16     +65294,+65294,+65294,+65294
   \              0EFF        
   \   000014C0   0EFF0EFF0EFF       DC16     +65294,+65294,+65294,+65294
   \              0EFF        
   \   000014C8   0EFF0EFF0EFF       DC16     +65294,+65294,+65294,+65294
   \              0EFF        
   \   000014D0   0EFF0EFF0EFF       DC16     +65294,+65294,+65294,+65294
   \              0EFF        
   \   000014D8   0EFF0EFF0EFF       DC16     +65294,+65294,+65294,+65294
   \              0EFF        
   \   000014E0   0EFF0EFF0EFF       DC16     +65294,+65294,+65294,+65294
   \              0EFF        
   \   000014E8   0EFF0EFF0EFF       DC16     +65294,+65294,+65294,+65294
   \              0EFF        
   \   000014F0   0EFF0EFF0EFF       DC16     +65294,+65294,+65294,+65294
   \              0EFF        
   \   000014F8   0EFF0EFF0EFF       DC16     +65294,+65294,+65294,+65294
   \              0EFF        
   \   00001500   0EFF0EFF0EFF       DC16     +65294,+65294,+65294,+65294
   \              0EFF        
   \   00001508   0EFF0EFF0EFF       DC16     +65294,+65294,+65294,+65294
   \              0EFF        
   \   00001510   0EFF0EFF0EFF       DC16     +65294,+65294,+65294,+65294
   \              0EFF        
   \   00001518   0EFF0EFF0EFF       DC16     +65294,+65294,+65294,+65294
   \              0EFF        
   \   00001520   0EFF0EFF0EFF       DC16     +65294,+65294,+65294,+65294
   \              0EFF        
   \   00001528   0EFF0EFF0EFF       DC16     +65294,+65294,+65294,+65294
   \              0EFF        
   \   00001530   0EFF0EFF0EFF       DC16     +65294,+65294,+65294,+65294
   \              0EFF        
   \   00001538   0EFF0EFF0EFF       DC16     +65294,+65294,+65294,+65294
   \              0EFF        
   \   00001540   0EFF0EFF0EFF       DC16     +65294,+65294,+65294,+65294
   \              0EFF        
   \   00001548   0EFF0EFF0EFF       DC16     +65294,+65294,+65294,+65294
   \              0EFF        
   \   00001550   0EFF0EFF0EFF       DC16     +65294,+65294,+65294,+65294
   \              0EFF        
   \   00001558   0EFF0EFF0EFF       DC16     +65294,+65294,+65294,+65294
   \              0EFF        
   \   00001560   0EFF0EFF0EFF       DC16     +65294,+65294,+65294,+65294
   \              0EFF        
   \   00001568   0EFF0EFF0EFF       DC16     +65294,+65294,+65294,+65294
   \              0EFF        
   \   00001570   0EFF0EFF0EFF       DC16     +65294,+65294,+65294,+65294
   \              0EFF        
   \   00001578   0EFF0EFF0EFF       DC16     +65294,+65294,+65294,+65294
   \              0EFF        
   \   00001580   0EFF0EFF0EFF       DC16     +65294,+65294,+65294,+65294
   \              0EFF        
   \   00001588   0EFF0EFF0EFF       DC16     +65294,+65294,+65294,+65294
   \              0EFF        
   \   00001590   0EFF0EFF0EFF       DC16     +65294,+65294,+65294,+65294
   \              0EFF        
   \   00001598   0EFF0EFF0EFF       DC16     +65294,+65294,+65294,+65294
   \              0EFF        
   \   000015A0   0EFF0EFF0EFF       DC16     +65294,+65294,+65294,+65294
   \              0EFF        
   \   000015A8   0EFF0EFF0EFF       DC16     +65294,+65294,+65294,+65294
   \              0EFF        
   \   000015B0   0EFF0EFF0EFF       DC16     +65294,+65294,+65294,+65294
   \              0EFF        
   \   000015B8   0EFF0EFF0EFF       DC16     +65294,+65294,+65294,+65294
   \              0EFF        
   \   000015C0   0EFF0EFF0EFF       DC16     +65294,+65294,+65294,+65294
   \              0EFF        
   \   000015C8   0EFF0EFF0EFF       DC16     +65294,+65294,+65294,+65294
   \              0EFF        
   \   000015D0   0EFF0EFF0EFF       DC16     +65294,+65294,+65294,+65294
   \              0EFF        
   \   000015D8   0EFF0EFF0EFF       DC16     +65294,+65294,+65294,+65294
   \              0EFF        
   \   000015E0   0EFF0EFF0EFF       DC16     +65294,+65294,+65294,+65294
   \              0EFF        
   \   000015E8   0EFF0EFF0EFF       DC16     +65294,+65294,+65294,+65294
   \              0EFF        
   \   000015F0   0EFF0EFF0EFF       DC16     +65294,+65294,+65294,+65294
   \              0EFF        
   \   000015F8   0EFF0EFF0EFF       DC16     +65294,+65294,+65294,+65294
   \              0EFF        
   \   00001600   0EFF0EFF0EFF       DC16     +65294,+65294,+65294,+65294
   \              0EFF        
   \   00001608   0EFF0EFF0EFF       DC16     +65294,+65294,+65294,+65294
   \              0EFF        
   \   00001610   0EFF0EFF0EFF       DC16     +65294,+65294,+65294,+65294
   \              0EFF        
   \   00001618   0EFF0EFF0EFF       DC16     +65294,+65294,+65294,+65294
   \              0EFF        
   \   00001620   0EFF0EFF0EFF       DC16     +65294,+65294,+65294,+65294
   \              0EFF        
   \   00001628   0EFF0EFF0EFF       DC16     +65294,+65294,+65294,+65294
   \              0EFF        
   \   00001630   0EFF0EFF0EFF       DC16     +65294,+65294,+65294,+65294
   \              0EFF        
   \   00001638   0EFF0EFF0EFF       DC16     +65294,+65294,+65294,+65294
   \              0EFF        
   \   00001640   0EFF0EFF0EFF       DC16     +65294,+65294,+65294,+65294
   \              0EFF        
   \   00001648   0EFF0EFF0EFF       DC16     +65294,+65294,+65294,+65294
   \              0EFF        
   \   00001650   0EFF0EFF0EFF       DC16     +65294,+65294,+65294,+65294
   \              0EFF        
   \   00001658   0EFF0EFF0EFF       DC16     +65294,+65294,+65294,+65294
   \              0EFF        
   \   00001660   0EFF0EFF0EFF       DC16     +65294,+65294,+65294,+65294
   \              0EFF        
   \   00001668   0EFF0EFF0EFF       DC16     +65294,+65294,+65294,+65294
   \              0EFF        
   \   00001670   0EFF0EFF0EFF       DC16     +65294,+65294,+65294,+65294
   \              0EFF        
   \   00001678   0EFF0EFF0EFF       DC16     +65294,+65294,+65294,+65294
   \              0EFF        
   \   00001680   0EFF0EFF0EFF       DC16     +65294,+65294,+65294,+65294
   \              0EFF        
   \   00001688   0EFF0EFF0EFF       DC16     +65294,+65294,+65294,+65294
   \              0EFF        
   \   00001690   0EFF0EFF0EFF       DC16     +65294,+65294,+65294,+65294
   \              0EFF        
   \   00001698   0EFF0EFF0EFF       DC16     +65294,+65294,+65294,+65294
   \              0EFF        
   \   000016A0   0EFF0EFF0EFF       DC16     +65294,+65294,+65294,+65294
   \              0EFF        
   \   000016A8   0EFF0EFF0EFF       DC16     +65294,+65294,+65294,+65294
   \              0EFF        
   \   000016B0   0EFF0EFF0EFF       DC16     +65294,+65294,+65294,+65294
   \              0EFF        
   \   000016B8   0EFF0EFF0EFF       DC16     +65294,+65294,+65294,+65294
   \              0EFF        
   \   000016C0   0EFF0EFF0EFF       DC16     +65294,+65294,+65294,+65294
   \              0EFF        
   \   000016C8   0EFF0EFF0EFF       DC16     +65294,+65294,+65294,+65294
   \              0EFF        
   \   000016D0   0EFF0EFF0EFF       DC16     +65294,+65294,+65294,+65294
   \              0EFF        
   \   000016D8   0EFF0EFF0EFF       DC16     +65294,+65294,+65294,+65294
   \              0EFF        
   \   000016E0   0EFF0EFF0EFF       DC16     +65294,+65294,+65294,+65294
   \              0EFF        
   \   000016E8   0EFF0EFF0EFF       DC16     +65294,+65294,+65294,+65294
   \              0EFF        
   \   000016F0   0EFF0EFF0EFF       DC16     +65294,+65294,+65294,+65294
   \              0EFF        
   \   000016F8   0EFF0EFF0EFF       DC16     +65294,+65294,+65294,+65294
   \              0EFF        
   \   00001700   0EFF0EFF0EFF       DC16     +65294,+65294,+65294,+65294
   \              0EFF        
   \   00001708   0EFF0EFF0EFF       DC16     +65294,+65294,+65294,+65294
   \              0EFF        
   \   00001710   0EFF0EFF0EFF       DC16     +65294,+65294,+65294,+65294
   \              0EFF        
   \   00001718   0EFF0EFF0EFF       DC16     +65294,+65294,+65294,+65294
   \              0EFF        
   \   00001720   0EFF0EFF0EFF       DC16     +65294,+65294,+65294,+65294
   \              0EFF        
   \   00001728   0EFF0EFF0EFF       DC16     +65294,+65294,+65294,+65294
   \              0EFF        
   \   00001730   0EFF0EFF0EFF       DC16     +65294,+65294,+65294,+65294
   \              0EFF        
   \   00001738   0EFF0EFF0EFF       DC16     +65294,+65294,+65294,+65294
   \              0EFF        
   \   00001740   0EFF0EFF0EFF       DC16     +65294,+65294,+65294,+65294
   \              0EFF        
   \   00001748   0EFF0EFF0EFF       DC16     +65294,+65294,+65294,+65294
   \              0EFF        
   \   00001750   0EFF0EFF0EFF       DC16     +65294,+65294,+65294,+65294
   \              0EFF        
   \   00001758   0EFF0EFF0EFF       DC16     +65294,+65294,+65294,+65294
   \              0EFF        
   \   00001760   0EFF0EFF0EFF       DC16     +65294,+65294,+65294,+65294
   \              0EFF        
   \   00001768   0EFF0EFF0EFF       DC16     +65294,+65294,+65294,+65294
   \              0EFF        
   \   00001770   0EFF0EFF0EFF       DC16     +65294,+65294,+65294,+65294
   \              0EFF        
   \   00001778   0EFF0EFF0EFF       DC16     +65294,+65294,+65294,+65294
   \              0EFF        
   \   00001780   0EFF0EFF0EFF       DC16     +65294,+65294,+65294,+65294
   \              0EFF        
   \   00001788   0EFF0EFF0EFF       DC16     +65294,+65294,+65294,+65294
   \              0EFF        
   \   00001790   0EFF0EFF0EFF       DC16     +65294,+65294,+65294,+65294
   \              0EFF        
   \   00001798   0EFF0EFF0EFF       DC16     +65294,+65294,+65294,+65294
   \              0EFF        
   \   000017A0   0EFF0EFF0EFF       DC16     +65294,+65294,+65294,+65294
   \              0EFF        
   \   000017A8   0EFF0EFF0EFF       DC16     +65294,+65294,+65294,+65294
   \              0EFF        
   \   000017B0   0EFF0EFF0EFF       DC16     +65294,+65294,+65294,+65294
   \              0EFF        
   \   000017B8   0EFF0EFF0EFF       DC16     +65294,+65294,+65294,+65294
   \              0EFF        
   \   000017C0   0EFF0EFF0EFF       DC16     +65294,+65294,+65294,+65294
   \              0EFF        
   \   000017C8   0EFF0EFF0EFF       DC16     +65294,+65294,+65294,+65294
   \              0EFF        
   \   000017D0   0EFF0EFF0EFF       DC16     +65294,+65294,+65294,+65294
   \              0EFF        
   \   000017D8   0EFF0EFF0EFF       DC16     +65294,+65294,+65294,+65294
   \              0EFF        
   \   000017E0   0EFF0EFF0EFF       DC16     +65294,+65294,+65294,+65294
   \              0EFF        
   \   000017E8   0EFF0EFF0EFF       DC16     +65294,+65294,+65294,+65294
   \              0EFF        
   \   000017F0   0EFF0EFF0EFF       DC16     +65294,+65294,+65294,+65294
   \              0EFF        
   \   000017F8   0EFF0EFF0EFF       DC16     +65294,+65294,+65294,+65294
   \              0EFF        
   \   00001800   0EFF0EFF0EFF       DC16     +65294,+65294,+65294,+65294
   \              0EFF        
   \   00001808   0EFF0EFF0EFF       DC16     +65294,+65294,+65294,+65294
   \              0EFF        
   \   00001810   0EFF0EFF0EFF       DC16     +65294,+65294,+65294,+65294
   \              0EFF        
   \   00001818   0EFF0EFF0EFF       DC16     +65294,+65294,+65294,+65294
   \              0EFF        
   \   00001820   0EFF0EFF0EFF       DC16     +65294,+65294,+65294,+65294
   \              0EFF        
   \   00001828   0EFF0EFF0EFF       DC16     +65294,+65294,+65294,+65294
   \              0EFF        
   \   00001830   0EFF0EFF0EFF       DC16     +65294,+65294,+65294,+65294
   \              0EFF        
   \   00001838   0EFF0EFF0EFF       DC16     +65294,+65294,+65294,+65294
   \              0EFF        
   \   00001840   0EFF0EFF0EFF       DC16     +65294,+65294,+65294,+65294
   \              0EFF        
   \   00001848   0EFF0EFF0EFF       DC16     +65294,+65294,+65294,+65294
   \              0EFF        
   \   00001850   0EFF0EFF0EFF       DC16     +65294,+65294,+65294,+65294
   \              0EFF        
   \   00001858   0EFF0EFF0EFF       DC16     +65294,+65294,+65294,+65294
   \              0EFF        
   \   00001860   0EFF0EFF0EFF       DC16     +65294,+65294,+65294,+65294
   \              0EFF        
   \   00001868   0EFF0EFF0EFF       DC16     +65294,+65294,+65294,+65294
   \              0EFF        
   \   00001870   0EFF0EFF0EFF       DC16     +65294,+65294,+65294,+65294
   \              0EFF        
   \   00001878   0EFF0EFF0EFF       DC16     +65294,+65294,+65294,+65294
   \              0EFF        
   \   00001880   0EFF0EFF0EFF       DC16     +65294,+65294,+65294,+65294
   \              0EFF        
   \   00001888   0EFF0EFF0EFF       DC16     +65294,+65294,+65294,+65294
   \              0EFF        
   \   00001890   0EFF0EFF0EFF       DC16     +65294,+65294,+65294,+65294
   \              0EFF        
   \   00001898   0EFF0EFF0EFF       DC16     +65294,+65294,+65294,+65294
   \              0EFF        
   \   000018A0   0EFF0EFF0EFF       DC16     +65294,+65294,+65294,+65294
   \              0EFF        
   \   000018A8   0EFF0EFF0EFF       DC16     +65294,+65294,+65294,+65294
   \              0EFF        
   \   000018B0   0EFF0EFF0EFF       DC16     +65294,+65294,+65294,+65294
   \              0EFF        
   \   000018B8   0EFF0EFF0EFF       DC16     +65294,+65294,+65294,+65294
   \              0EFF        
   \   000018C0   0EFF0EFF0EFF       DC16     +65294,+65294,+65294,+65294
   \              0EFF        
   \   000018C8   0EFF0EFF0EFF       DC16     +65294,+65294,+65294,+65294
   \              0EFF        
   \   000018D0   0EFF0EFF0EFF       DC16     +65294,+65294,+65294,+65294
   \              0EFF        
   \   000018D8   0EFF0EFF0EFF       DC16     +65294,+65294,+65294,+65294
   \              0EFF        
   \   000018E0   0EFF0EFF0EFF       DC16     +65294,+65294,+65294,+65294
   \              0EFF        
   \   000018E8   0EFF0EFF0EFF       DC16     +65294,+65294,+65294,+65294
   \              0EFF        
   \   000018F0   0EFF0EFF0EFF       DC16     +65294,+65294,+65294,+65294
   \              0EFF        
   \   000018F8   0EFF0EFF0EFF       DC16     +65294,+65294,+65294,+65294
   \              0EFF        
   \   00001900   0EFF0EFF0EFF       DC16     +65294,+65294,+65294,+65294
   \              0EFF        
   \   00001908   0EFF0EFF0EFF       DC16     +65294,+65294,+65294,+65294
   \              0EFF        
   \   00001910   0EFF0EFF0EFF       DC16     +65294,+65294,+65294,+65294
   \              0EFF        
   \   00001918   0EFF0EFF0EFF       DC16     +65294,+65294,+65294,+65294
   \              0EFF        
   \   00001920   0EFF0EFF0EFF       DC16     +65294,+65294,+65294,+65294
   \              0EFF        
   \   00001928   0EFF0EFF0EFF       DC16     +65294,+65294,+65294,+65294
   \              0EFF        
   \   00001930   0EFF0EFF0EFF       DC16     +65294,+65294,+65294,+65294
   \              0EFF        
   \   00001938   0EFF0EFF0EFF       DC16     +65294,+65294,+65294,+65294
   \              0EFF        
   \   00001940   0EFF0EFF0EFF       DC16     +65294,+65294,+65294,+65294
   \              0EFF        
   \   00001948   0EFF0EFF0EFF       DC16     +65294,+65294,+65294,+65294
   \              0EFF        
   \   00001950   0EFF0EFF0EFF       DC16     +65294,+65294,+65294,+65294
   \              0EFF        
   \   00001958   0EFF0EFF0EFF       DC16     +65294,+65294,+65294,+65294
   \              0EFF        
   \   00001960   0EFF0EFF0EFF       DC16     +65294,+65294,+65294,+65294
   \              0EFF        
   \   00001968   0EFF0EFF0EFF       DC16     +65294,+65294,+65294,+65294
   \              0EFF        
   \   00001970   0EFF0EFF0EFF       DC16     +65294,+65294,+65294,+65294
   \              0EFF        
   \   00001978   0EFF0EFF0EFF       DC16     +65294,+65294,+65294,+65294
   \              0EFF        
   \   00001980   0EFF0EFF0EFF       DC16     +65294,+65294,+65294,+65294
   \              0EFF        
   \   00001988   0EFF0EFF0EFF       DC16     +65294,+65294,+65294,+65294
   \              0EFF        
   \   00001990   0EFF0EFF0EFF       DC16     +65294,+65294,+65294,+65294
   \              0EFF        
   \   00001998   0EFF0EFF0EFF       DC16     +65294,+65294,+65294,+65294
   \              0EFF        
   \   000019A0   0EFF0EFF0EFF       DC16     +65294,+65294,+65294,+65294
   \              0EFF        
   \   000019A8   0EFF0EFF0EFF       DC16     +65294,+65294,+65294,+65294
   \              0EFF        
   \   000019B0   0EFF0EFF0EFF       DC16     +65294,+65294,+65294,+65294
   \              0EFF        
   \   000019B8   0EFF0EFF0EFF       DC16     +65294,+65294,+65294,+65294
   \              0EFF        
   \   000019C0   0EFF0EFF0EFF       DC16     +65294,+65294,+65294,+65294
   \              0EFF        
   \   000019C8   0EFF0EFF0EFF       DC16     +65294,+65294,+65294,+65294
   \              0EFF        
   \   000019D0   0EFF0EFF0EFF       DC16     +65294,+65294,+65294,+65294
   \              0EFF        
   \   000019D8   0EFF0EFF0EFF       DC16     +65294,+65294,+65294,+65294
   \              0EFF        
   \   000019E0   0EFF0EFF0EFF       DC16     +65294,+65294,+65294,+65294
   \              0EFF        
   \   000019E8   0EFF0EFF0EFF       DC16     +65294,+65294,+65294,+65294
   \              0EFF        
   \   000019F0   0EFF0EFF0EFF       DC16     +65294,+65294,+65294,+65294
   \              0EFF        
   \   000019F8   0EFF0EFF0EFF       DC16     +65294,+65294,+65294,+65294
   \              0EFF        
   \   00001A00   0EFF0EFF0EFF       DC16     +65294,+65294,+65294,+65294
   \              0EFF        
   \   00001A08   0EFF0EFF0EFF       DC16     +65294,+65294,+65294,+65294
   \              0EFF        
   \   00001A10   0EFF0EFF0EFF       DC16     +65294,+65294,+65294,+65294
   \              0EFF        
   \   00001A18   0EFF0EFF0EFF       DC16     +65294,+65294,+65294,+65294
   \              0EFF        
   \   00001A20   0EFF0EFF0EFF       DC16     +65294,+65294,+65294,+65294
   \              0EFF        
   \   00001A28   0EFF0EFF0EFF       DC16     +65294,+65294,+65294,+65294
   \              0EFF        
   \   00001A30   0EFF0EFF0EFF       DC16     +65294,+65294,+65294,+65294
   \              0EFF        
   \   00001A38   0EFF0EFF0EFF       DC16     +65294,+65294,+65294,+65294
   \              0EFF        
   \   00001A40   0EFF0EFF0EFF       DC16     +65294,+65294,+65294,+65294
   \              0EFF        
   \   00001A48   0EFF0EFF0EFF       DC16     +65294,+65294,+65294,+65294
   \              0EFF        
   \   00001A50   0EFF0EFF0EFF       DC16     +65294,+65294,+65294,+65294
   \              0EFF        
   \   00001A58   0EFF0EFF0EFF       DC16     +65294,+65294,+65294,+65294
   \              0EFF        
   \   00001A60   0EFF0EFF0EFF       DC16     +65294,+65294,+65294,+65294
   \              0EFF        
   \   00001A68   0EFF0EFF0EFF       DC16     +65294,+65294,+65294,+65294
   \              0EFF        
   \   00001A70   0EFF0EFF0EFF       DC16     +65294,+65294,+65294,+65294
   \              0EFF        
   \   00001A78   0EFF0EFF0EFF       DC16     +65294,+65294,+65294,+65294
   \              0EFF        
   \   00001A80   0EFF0EFF0EFF       DC16     +65294,+65294,+65294,+65294
   \              0EFF        
   \   00001A88   0EFF0EFF0EFF       DC16     +65294,+65294,+65294,+65294
   \              0EFF        
   \   00001A90   0EFF0EFF0EFF       DC16     +65294,+65294,+65294,+65294
   \              0EFF        
   \   00001A98   0EFF0EFF0EFF       DC16     +65294,+65294,+65294,+65294
   \              0EFF        
   \   00001AA0   0EFF0EFF0EFF       DC16     +65294,+65294,+65294,+65294
   \              0EFF        
   \   00001AA8   0EFF0EFF0EFF       DC16     +65294,+65294,+65294,+65294
   \              0EFF        
   \   00001AB0   0EFF0EFF0EFF       DC16     +65294,+65294,+65294,+65294
   \              0EFF        
   \   00001AB8   0EFF0EFF0EFF       DC16     +65294,+65294,+65294,+65294
   \              0EFF        
   \   00001AC0   0EFF0EFF0EFF       DC16     +65294,+65294,+65294,+65294
   \              0EFF        
   \   00001AC8   0EFF0EFF0EFF       DC16     +65294,+65294,+65294,+65294
   \              0EFF        
   \   00001AD0   0EFF0EFF0EFF       DC16     +65294,+65294,+65294,+65294
   \              0EFF        
   \   00001AD8   0EFF0EFF0EFF       DC16     +65294,+65294,+65294,+65294
   \              0EFF        
   \   00001AE0   0EFF0EFF0EFF       DC16     +65294,+65294,+65294,+65294
   \              0EFF        
   \   00001AE8   0EFF0EFF0EFF       DC16     +65294,+65294,+65294,+65294
   \              0EFF        
   \   00001AF0   0EFF0EFF0EFF       DC16     +65294,+65294,+65294,+65294
   \              0EFF        
   \   00001AF8   0EFF0EFF0EFF       DC16     +65294,+65294,+65294,+65294
   \              0EFF        
   \   00001B00   0EFF0EFF0EFF       DC16     +65294,+65294,+65294,+65294
   \              0EFF        
   \   00001B08   0EFF0EFF0EFF       DC16     +65294,+65294,+65294,+65294
   \              0EFF        
   \   00001B10   0EFF0EFF0EFF       DC16     +65294,+65294,+65294,+65294
   \              0EFF        
   \   00001B18   0EFF0EFF0EFF       DC16     +65294,+65294,+65294,+65294
   \              0EFF        
   \   00001B20   0EFF0EFF0EFF       DC16     +65294,+65294,+65294,+65294
   \              0EFF        
   \   00001B28   0EFF0EFF0EFF       DC16     +65294,+65294,+65294,+65294
   \              0EFF        
   \   00001B30   0EFF0EFF0EFF       DC16     +65294,+65294,+65294,+65294
   \              0EFF        
   \   00001B38   0EFF0EFF0EFF       DC16     +65294,+65294,+65294,+65294
   \              0EFF        
   \   00001B40   0EFF0EFF0EFF       DC16     +65294,+65294,+65294,+65294
   \              0EFF        
   \   00001B48   0EFF0EFF0EFF       DC16     +65294,+65294,+65294,+65294
   \              0EFF        
   \   00001B50   0EFF0EFF0EFF       DC16     +65294,+65294,+65294,+65294
   \              0EFF        
   \   00001B58   0EFF0EFF0EFF       DC16     +65294,+65294,+65294,+65294
   \              0EFF        
   \   00001B60   0EFF0EFF0EFF       DC16     +65294,+65294,+65294,+65294
   \              0EFF        
   \   00001B68   0EFF0EFF0EFF       DC16     +65294,+65294,+65294,+65294
   \              0EFF        
   \   00001B70   0EFF0EFF0EFF       DC16     +65294,+65294,+65294,+65294
   \              0EFF        
   \   00001B78   0EFF0EFF0EFF       DC16     +65294,+65294,+65294,+65294
   \              0EFF        
   \   00001B80   0EFF0EFF0EFF       DC16     +65294,+65294,+65294,+65294
   \              0EFF        
   \   00001B88   0EFF0EFF0EFF       DC16     +65294,+65294,+65294,+65294
   \              0EFF        
   \   00001B90   0EFF0EFF0EFF       DC16     +65294,+65294,+65294,+65294
   \              0EFF        
   \   00001B98   0EFF0EFF0EFF       DC16     +65294,+65294,+65294,+65294
   \              0EFF        
   \   00001BA0   0EFF0EFF0EFF       DC16     +65294,+65294,+65294,+65294
   \              0EFF        
   \   00001BA8   0EFF0EFF0EFF       DC16     +65294,+65294,+65294,+65294
   \              0EFF        
   \   00001BB0   0EFF0EFF0EFF       DC16     +65294,+65294,+65294,+65294
   \              0EFF        
   \   00001BB8   0EFF0EFF0EFF       DC16     +65294,+65294,+65294,+65294
   \              0EFF        
   \   00001BC0   0EFF0EFF0EFF       DC16     +65294,+65294,+65294,+65294
   \              0EFF        
   \   00001BC8   0EFF0EFF0EFF       DC16     +65294,+65294,+65294,+65294
   \              0EFF        
   \   00001BD0   0EFF0EFF0EFF       DC16     +65294,+65294,+65294,+65294
   \              0EFF        
   \   00001BD8   0EFF0EFF0EFF       DC16     +65294,+65294,+65294,+65294
   \              0EFF        
   \   00001BE0   0EFF0EFF0EFF       DC16     +65294,+65294,+65294,+65294
   \              0EFF        
   \   00001BE8   0EFF0EFF0EFF       DC16     +65294,+65294,+65294,+65294
   \              0EFF        
   \   00001BF0   0EFF0EFF0EFF       DC16     +65294,+65294,+65294,+65294
   \              0EFF        
   \   00001BF8   0EFF0EFF0EFF       DC16     +65294,+65294,+65294,+65294
   \              0EFF        
   \   00001C00   0EFF0EFF0EFF       DC16     +65294,+65294,+65294,+65294
   \              0EFF        
   \   00001C08   0EFF0EFF0EFF       DC16     +65294,+65294,+65294,+65294
   \              0EFF        
   \   00001C10   0EFF0EFF0EFF       DC16     +65294,+65294,+65294,+65294
   \              0EFF        
   \   00001C18   0EFF0EFF0EFF       DC16     +65294,+65294,+65294,+65294
   \              0EFF        
   \   00001C20   0EFF0EFF0EFF       DC16     +65294,+65294,+65294,+65294
   \              0EFF        
   \   00001C28   0EFF0EFF0EFF       DC16     +65294,+65294,+65294,+65294
   \              0EFF        
   \   00001C30   0EFF0EFF0EFF       DC16     +65294,+65294,+65294,+65294
   \              0EFF        
   \   00001C38   0EFF0EFF0EFF       DC16     +65294,+65294,+65294,+65294
   \              0EFF        
   \   00001C40   0EFF0EFF0EFF       DC16     +65294,+65294,+65294,+65294
   \              0EFF        
   \   00001C48   0EFF0EFF0EFF       DC16     +65294,+65294,+65294,+65294
   \              0EFF        
   \   00001C50   0EFF0EFF0EFF       DC16     +65294,+65294,+65294,+65294
   \              0EFF        
   \   00001C58   0EFF0EFF0EFF       DC16     +65294,+65294,+65294,+65294
   \              0EFF        
   \   00001C60   0EFF0EFF0EFF       DC16     +65294,+65294,+65294,+65294
   \              0EFF        
   \   00001C68   0EFF0EFF0EFF       DC16     +65294,+65294,+65294,+65294
   \              0EFF        
   \   00001C70   0EFF0EFF0EFF       DC16     +65294,+65294,+65294,+65294
   \              0EFF        
   \   00001C78   0EFF0EFF0EFF       DC16     +65294,+65294,+65294,+65294
   \              0EFF        
   \   00001C80   0EFF0EFF0EFF       DC16     +65294,+65294,+65294,+65294
   \              0EFF        
   \   00001C88   0EFF0EFF0EFF       DC16     +65294,+65294,+65294,+65294
   \              0EFF        
   \   00001C90   0EFF0EFF0EFF       DC16     +65294,+65294,+65294,+65294
   \              0EFF        
   \   00001C98   0EFF0EFF0EFF       DC16     +65294,+65294,+65294,+65294
   \              0EFF        
   \   00001CA0   0EFF0EFF0EFF       DC16     +65294,+65294,+65294,+65294
   \              0EFF        
   \   00001CA8   0EFF0EFF0EFF       DC16     +65294,+65294,+65294,+65294
   \              0EFF        
   \   00001CB0   0EFF0EFF0EFF       DC16     +65294,+65294,+65294,+65294
   \              0EFF        
   \   00001CB8   0EFF0EFF0EFF       DC16     +65294,+65294,+65294,+65294
   \              0EFF        
   \   00001CC0   0EFF0EFF0EFF       DC16     +65294,+65294,+65294,+65294
   \              0EFF        
   \   00001CC8   0EFF0EFF0EFF       DC16     +65294,+65294,+65294,+65294
   \              0EFF        
   \   00001CD0   0EFF0EFF0EFF       DC16     +65294,+65294,+65294,+65294
   \              0EFF        
   \   00001CD8   0EFF0EFF0EFF       DC16     +65294,+65294,+65294,+65294
   \              0EFF        
   \   00001CE0   0EFF0EFF0EFF       DC16     +65294,+65294,+65294,+65294
   \              0EFF        
   \   00001CE8   0EFF0EFF0EFF       DC16     +65294,+65294,+65294,+65294
   \              0EFF        
   \   00001CF0   0EFF0EFF0EFF       DC16     +65294,+65294,+65294,+65294
   \              0EFF        
   \   00001CF8   0EFF0EFF0EFF       DC16     +65294,+65294,+65294,+65294
   \              0EFF        
   \   00001D00   0EFF0EFF0EFF       DC16     +65294,+65294,+65294,+65294
   \              0EFF        
   \   00001D08   0EFF0EFF0EFF       DC16     +65294,+65294,+65294,+65294
   \              0EFF        
   \   00001D10   0EFF0EFF0EFF       DC16     +65294,+65294,+65294,+65294
   \              0EFF        
   \   00001D18   0EFF0EFF0EFF       DC16     +65294,+65294,+65294,+65294
   \              0EFF        
   \   00001D20   0EFF0EFF0EFF       DC16     +65294,+65294,+65294,+65294
   \              0EFF        
   \   00001D28   0EFF0EFF0EFF       DC16     +65294,+65294,+65294,+65294
   \              0EFF        
   \   00001D30   0EFF0EFF0EFF       DC16     +65294,+65294,+65294,+65294
   \              0EFF        
   \   00001D38   0EFF0EFF0EFF       DC16     +65294,+65294,+65294,+65294
   \              0EFF        
   \   00001D40   0EFF0EFF0EFF       DC16     +65294,+65294,+65294,+65294
   \              0EFF        
   \   00001D48   0EFF0EFF0EFF       DC16     +65294,+65294,+65294,+65294
   \              0EFF        
   \   00001D50   0EFF0EFF0EFF       DC16     +65294,+65294,+65294,+65294
   \              0EFF        
   \   00001D58   0EFF0EFF0EFF       DC16     +65294,+65294,+65294,+65294
   \              0EFF        
   \   00001D60   0EFF0EFF0EFF       DC16     +65294,+65294,+65294,+65294
   \              0EFF        
   \   00001D68   0EFF0EFF0EFF       DC16     +65294,+65294,+65294,+65294
   \              0EFF        
   \   00001D70   0EFF0EFF0EFF       DC16     +65294,+65294,+65294,+65294
   \              0EFF        
   \   00001D78   0EFF0EFF0EFF       DC16     +65294,+65294,+65294,+65294
   \              0EFF        
   \   00001D80   0EFF0EFF0EFF       DC16     +65294,+65294,+65294,+65294
   \              0EFF        
   \   00001D88   0EFF0EFF0EFF       DC16     +65294,+65294,+65294,+65294
   \              0EFF        
   \   00001D90   0EFF0EFF0EFF       DC16     +65294,+65294,+65294,+65294
   \              0EFF        
   \   00001D98   0EFF0EFF0EFF       DC16     +65294,+65294,+65294,+65294
   \              0EFF        
   \   00001DA0   0EFF0EFF0EFF       DC16     +65294,+65294,+65294,+65294
   \              0EFF        
   \   00001DA8   0EFF0EFF0EFF       DC16     +65294,+65294,+65294,+65294
   \              0EFF        
   \   00001DB0   0EFF0EFF0EFF       DC16     +65294,+65294,+65294,+65294
   \              0EFF        
   \   00001DB8   0EFF0EFF0EFF       DC16     +65294,+65294,+65294,+65294
   \              0EFF        
   \   00001DC0   0EFF0EFF0EFF       DC16     +65294,+65294,+65294,+65294
   \              0EFF        
   \   00001DC8   0EFF0EFF0EFF       DC16     +65294,+65294,+65294,+65294
   \              0EFF        
   \   00001DD0   0EFF0EFF0EFF       DC16     +65294,+65294,+65294,+65294
   \              0EFF        
   \   00001DD8   0EFF0EFF0EFF       DC16     +65294,+65294,+65294,+65294
   \              0EFF        
   \   00001DE0   0EFF0EFF0EFF       DC16     +65294,+65294,+65294,+65294
   \              0EFF        
   \   00001DE8   0EFF0EFF0EFF       DC16     +65294,+65294,+65294,+65294
   \              0EFF        
   \   00001DF0   0EFF0EFF0EFF       DC16     +65294,+65294,+65294,+65294
   \              0EFF        
   \   00001DF8   0EFF0EFF0EFF       DC16     +65294,+65294,+65294,+65294
   \              0EFF        
   \   00001E00   0EFF0EFF0EFF       DC16     +65294,+65294,+65294,+65294
   \              0EFF        
   \   00001E08   0EFF0EFF0EFF       DC16     +65294,+65294,+65294,+65294
   \              0EFF        
   \   00001E10   0EFF0EFF0EFF       DC16     +65294,+65294,+65294,+65294
   \              0EFF        
   \   00001E18   0EFF0EFF0EFF       DC16     +65294,+65294,+65294,+65294
   \              0EFF        
   \   00001E20   0EFF0EFF0EFF       DC16     +65294,+65294,+65294,+65294
   \              0EFF        
   \   00001E28   0EFF0EFF0EFF       DC16     +65294,+65294,+65294,+65294
   \              0EFF        
   \   00001E30   0EFF0EFF0EFF       DC16     +65294,+65294,+65294,+65294
   \              0EFF        
   \   00001E38   0EFF0EFF0EFF       DC16     +65294,+65294,+65294,+65294
   \              0EFF        
   \   00001E40   0EFF0EFF0EFF       DC16     +65294,+65294,+65294,+65294
   \              0EFF        
   \   00001E48   0EFF0EFF0EFF       DC16     +65294,+65294,+65294,+65294
   \              0EFF        
   \   00001E50   0EFF0EFF0EFF       DC16     +65294,+65294,+65294,+65294
   \              0EFF        
   \   00001E58   0EFF0EFF0EFF       DC16     +65294,+65294,+65294,+65294
   \              0EFF        
   \   00001E60   0EFF0EFF0EFF       DC16     +65294,+65294,+65294,+65294
   \              0EFF        
   \   00001E68   0EFF0EFF0EFF       DC16     +65294,+65294,+65294,+65294
   \              0EFF        
   \   00001E70   0EFF0EFF0EFF       DC16     +65294,+65294,+65294,+65294
   \              0EFF        
   \   00001E78   0EFF0EFF0EFF       DC16     +65294,+65294,+65294,+65294
   \              0EFF        
   \   00001E80   0EFF0EFF0EFF       DC16     +65294,+65294,+65294,+65294
   \              0EFF        
   \   00001E88   0EFF0EFF0EFF       DC16     +65294,+65294,+65294,+65294
   \              0EFF        
   \   00001E90   0EFF0EFF0EFF       DC16     +65294,+65294,+65294,+65294
   \              0EFF        
   \   00001E98   0EFF0EFF0EFF       DC16     +65294,+65294,+65294,+65294
   \              0EFF        
   \   00001EA0   0EFF0EFF0EFF       DC16     +65294,+65294,+65294,+65294
   \              0EFF        
   \   00001EA8   0EFF0EFF0EFF       DC16     +65294,+65294,+65294,+65294
   \              0EFF        
   \   00001EB0   0EFF0EFF0EFF       DC16     +65294,+65294,+65294,+65294
   \              0EFF        
   \   00001EB8   0EFF0EFF0EFF       DC16     +65294,+65294,+65294,+65294
   \              0EFF        
   \   00001EC0   0EFF0EFF0EFF       DC16     +65294,+65294,+65294,+1183
   \              9F04        
    312          				case GUI_ID_DROPDOWN1:
    313          				case GUI_ID_DROPDOWN2:
    314          				case GUI_ID_DROPDOWN3:
    315          					AppSetupBallast->UpdateDialog(hWin,Id);
    316          					break;
    317          				case GUI_ID_DROPDOWN4: /* OpMode  */
    318          					AppSetupBallast->GetSelected(GUI_ID_DROPDOWN4,SVT_TANK_STATE_STR_BAL,PROSystemData::TXUSystemData);
   \                     ??cbTankSetup_30:
   \   00001EC8   00309AE5           LDR      R3,[R10, #+0]
   \   00001ECC   000099E5           LDR      R0,[R9, #+0]
   \   00001ED0   C920A0E3           MOV      R2,#+201
   \   00001ED4   502E82E3           ORR      R2,R2,#0x500
   \   00001ED8   AC1EA0E3           MOV      R1,#+2752
   \   00001EDC   ........           _BLF     ??GetSelected,??GetSelected??rA
   \   00001EE0   67FAFFEA           B        ??cbTankSetup_7
    319          					break;
    320          				}
    321          			}
    322          			break;
    323          		}
    324          		break;
    325          	case WM_TIMER:
    326          		AppSetupBallast->Update();
   \                     ??cbTankSetup_31:
   \   00001EE4   ........           BL       ??Update
   \   00001EE8   65FAFFEA           B        ??cbTankSetup_7
    327          		break;
    328          	default:
    329          		WM_DefaultProc(pMsg);
   \                     ??cbTankSetup_5:
   \   00001EEC   0600A0E1           MOV      R0,R6
   \   00001EF0   ........           _BLF     WM_DefaultProc,??WM_DefaultProc??rA
    330          	}
    331          }
   \                     ??cbTankSetup_32:
   \   00001EF4   62FAFFEA           B        ??cbTankSetup_7

   \                                 In segment DIFUNCT, align 4, keep-with-next, root
   \   00000000                      REQUIRE ?call_ctors
   \   00000000   ........           DC32    ??__sti__routine

   \                                 In segment DATA_C, align 4, align-sorted
   \                     `?<Constant "Application setup">`:
   \   00000000   4170706C6963       DC8 "Application setup"
   \              6174696F6E20
   \              736574757000
   \   00000012   0000               DC8 0, 0

   \                                 In segment DATA_C, align 4, align-sorted
   \                     `?<Constant "Operation mode">`:
   \   00000000   4F7065726174       DC8 "Operation mode"
   \              696F6E206D6F
   \              646500      
   \   0000000F   00                 DC8 0

   \                                 In segment DATA_C, align 4, align-sorted
   \                     `?<Constant "Col. 1">`:
   \   00000000   436F6C2E2031       DC8 "Col. 1"
   \              00          
   \   00000007   00                 DC8 0

   \                                 In segment DATA_C, align 4, align-sorted
   \                     `?<Constant "Col. 2">`:
   \   00000000   436F6C2E2032       DC8 "Col. 2"
   \              00          
   \   00000007   00                 DC8 0

   \                                 In segment DATA_C, align 4, align-sorted
   \                     `?<Constant "Col. 3">`:
   \   00000000   436F6C2E2033       DC8 "Col. 3"
   \              00          
   \   00000007   00                 DC8 0

   \                                 In segment DATA_C, align 4, align-sorted
   \                     `?<Constant "Col. 4">`:
   \   00000000   436F6C2E2034       DC8 "Col. 4"
   \              00          
   \   00000007   00                 DC8 0

   \                                 In segment DATA_C, align 4, align-sorted
   \                     `?<Constant "Name ">`:
   \   00000000   4E616D652000       DC8 "Name "
   \   00000006   0000               DC8 0, 0

   \                                 In segment DATA_C, align 4, align-sorted
   \                     `?<Constant "unit">`:
   \   00000000   756E697400         DC8 "unit"
   \   00000005   000000             DC8 0, 0, 0

   \                                 In segment DATA_C, align 4, align-sorted
   \                     `?<Constant "Zero adjust tank\\n pre...">`:
   \   00000000   5A65726F2061       DC8 5AH, 65H, 72H, 6FH, 20H, 61H, 64H, 6AH
   \              646A        
   \   00000008   757374207461       DC8 75H, 73H, 74H, 20H, 74H, 61H, 6EH, 6BH
   \              6E6B        
   \   00000010   0A2070726573       DC8 0AH, 20H, 70H, 72H, 65H, 73H, 73H, 75H
   \              7375        
   \   00000018   72652073656E       DC8 72H, 65H, 20H, 73H, 65H, 6EH, 73H, 6FH
   \              736F        
   \   00000020   7220666F720A       DC8 72H, 20H, 66H, 6FH, 72H, 0AH, 20H, 61H
   \              2061        
   \   00000028   6C6C2062616C       DC8 6CH, 6CH, 20H, 62H, 61H, 6CH, 6CH, 61H
   \              6C61        
   \   00000030   73742074616E       DC8 73H, 74H, 20H, 74H, 61H, 6EH, 6BH, 73H
   \              6B73        
   \   00000038   2E00               DC8 2EH, 0
   \   0000003A   0000               DC8 0, 0

   \                                 In segment DATA_C, align 4, align-sorted
   \                     `?<Constant "Zero adjust level\\n se...">`:
   \   00000000   5A65726F2061       DC8 5AH, 65H, 72H, 6FH, 20H, 61H, 64H, 6AH
   \              646A        
   \   00000008   757374206C65       DC8 75H, 73H, 74H, 20H, 6CH, 65H, 76H, 65H
   \              7665        
   \   00000010   6C0A2073656E       DC8 6CH, 0AH, 20H, 73H, 65H, 6EH, 73H, 6FH
   \              736F        
   \   00000018   722873292066       DC8 72H, 28H, 73H, 29H, 20H, 66H, 6FH, 72H
   \              6F72        
   \   00000020   0A20616C6C20       DC8 0AH, 20H, 61H, 6CH, 6CH, 20H, 62H, 61H
   \              6261        
   \   00000028   6C6C61737420       DC8 6CH, 6CH, 61H, 73H, 74H, 20H, 74H, 61H
   \              7461        
   \   00000030   6E6B732E00         DC8 6EH, 6BH, 73H, 2EH, 0
   \   00000035   000000             DC8 0, 0, 0

   \                                 In segment DATA_C, align 4, align-sorted
   \                     `?<Constant "Close">`:
   \   00000000   436C6F736500       DC8 "Close"
   \   00000006   0000               DC8 0, 0

   \                                 In segment DATA_C, align 4, align-sorted
   \                     `?<Constant "Ballast water density">`:
   \   00000000   42616C6C6173       DC8 "Ballast water density"
   \              742077617465
   \              722064656E73
   \              69747900    
   \   00000016   0000               DC8 0, 0

   \                                 In segment DATA_C, align 1, align-sorted
   \                     `?<Constant "">`:
   \   00000000   00                 DC8 ""

   \                                 In segment DATA_C, align 4, align-sorted
   \                     `?<Constant {{2197, 0, 69}, {2558, 0, 70}, {255`:
   \   00000000   950800000000       DC32 2197, 0, 69, 2558, 0, 70, 2559, 0, 71, 2560, 0, 72, 2561, 0, 73
   \              000045000000
   \              FE0900000000
   \              000046000000
   \              FF0900000000
   \              000047000000
   \              000A00000000
   \              000048000000
   \              010A00000000
   \              000049000000
   \   0000003C   020A00000000       DC32 2562, 0, 74, 368, 0, 75, 369, 0, 76, 5, 0, 18, 2563, 0, 77, 2564
   \              00004A000000
   \              700100000000
   \              00004B000000
   \              710100000000
   \              00004C000000
   \              050000000000
   \              000012000000
   \              030A00000000
   \              00004D000000
   \              040A0000    
   \   0000007C   000000005903       DC32 0, 857
   \              0000        

   \                                 In segment DATA_C, align 4, align-sorted
   \   00000000   00                 DC8 ""
   \   00000001   000000000000       DC8 0, 0, 0, 0, 0, 0, 0, 0, 0, 0, 0, 0, 0, 0, 0, 0
   \              000000000000
   \              00000000    
   \   00000011   000000000000       DC8 0, 0, 0, 0, 0, 0, 0, 0, 0, 0, 0, 0, 0, 0, 0, 0
   \              000000000000
   \              00000000    
   \   00000021   000000000000       DC8 0, 0, 0, 0, 0, 0, 0, 0, 0, 0, 0, 0, 0, 0, 0, 0
   \              000000000000
   \              00000000    
   \   00000031   000000000000       DC8 0, 0, 0, 0, 0, 0, 0, 0, 0, 0, 0, 0, 0, 0, 0, 0
   \              000000000000
   \              00000000    
   \   00000041   000000000000       DC8 0, 0, 0, 0, 0, 0, 0, 0, 0, 0, 0, 0, 0, 0, 0
   \              000000000000
   \              000000      

   \                                 In segment DATA_C, align 4, align-sorted
   \   00000000   00                 DC8 ""
   \   00000001   000000000000       DC8 0, 0, 0, 0, 0, 0, 0, 0, 0, 0, 0, 0, 0, 0, 0, 0
   \              000000000000
   \              00000000    
   \   00000011   000000000000       DC8 0, 0, 0, 0, 0, 0, 0, 0, 0, 0, 0, 0, 0, 0, 0, 0
   \              000000000000
   \              00000000    
   \   00000021   000000000000       DC8 0, 0, 0, 0, 0, 0, 0, 0, 0, 0, 0, 0, 0, 0, 0, 0
   \              000000000000
   \              00000000    
   \   00000031   000000000000       DC8 0, 0, 0, 0, 0, 0, 0, 0, 0, 0, 0, 0, 0, 0, 0, 0
   \              000000000000
   \              00000000    
   \   00000041   000000000000       DC8 0, 0, 0, 0, 0, 0, 0, 0, 0, 0, 0, 0, 0, 0, 0
   \              000000000000
   \              000000      

   \                                 In segment CODE, align 4, keep-with-next
   \   __??Code32?? __code __interwork __atpcs TDUAppSetupBallast &TDUAppSetupBallast::new TDUAppSetupBallast()
   \                     `??new TDUAppSetupBallast`:
   \   00000000   00402DE9           PUSH     {LR}
   \   00000004   6400A0E3           MOV      R0,#+100
   \   00000008   ........           _BLF     `??operator new`,`??operator new??rA`
   \   0000000C   000050E3           CMP      R0,#+0
   \   00000010   0000000A           BEQ      `??new TDUAppSetupBallast_1`
   \   00000014   ........           BL       ??TDUAppSetupBallast
   \                     `??new TDUAppSetupBallast_1`:
   \   00000018   0040BDE8           POP      {LR}
   \   0000001C   1EFF2FE1           BX       LR               ;; return

   \                                 In segment CODE, align 4, keep-with-next
   \   __??Code32?? __code __interwork __atpcs void TDUAppSetupBallast::delete ~TDUAppSetupBallast(TDUAppSetupBallast *)
   \                     `??delete ~TDUAppSetupBallast`:
   \   00000000   10402DE9           PUSH     {R4,LR}
   \   00000004   0040B0E1           MOVS     R4,R0
   \   00000008   0200000A           BEQ      `??delete ~TDUAppSetupBallast_1`
   \   0000000C   ........           _BLF     `?~TDUBasicWin`,`?~TDUBasicWin??rA`
   \   00000010   0400A0E1           MOV      R0,R4
   \   00000014   ........           _BLF     `??operator delete`,`??operator delete??rA`
   \                     `??delete ~TDUAppSetupBallast_1`:
   \   00000018   1040BDE8           POP      {R4,LR}
   \   0000001C   1EFF2FE1           BX       LR               ;; return

   \                                 In segment CODE, align 4, keep-with-next
   \   static __??Code32?? __intrinsic __code __interwork __atpcs void __sti__routine()
   \                     ??__sti__routine:
   \   00000000   1EFF2FE1           BX       LR               ;; return

   \                                 In segment CODE, align 4, keep-with-next
   \                     ??DataTable1:
   \   00000000   ........           DC32     AppSetupBallastIsClosed

   \                                 In segment CODE, align 4, keep-with-next
   \                     ??DataTable2:
   \   00000000   ........           DC32     BallastWindow

   \                                 In segment CODE, align 4, keep-with-next
   \                     ??DataTable3:
   \   00000000   ........           DC32     ??TXUSystemData

   \                                 In segment CODE, align 4, keep-with-next
   \                     ??DataTable4:
   \   00000000   ........           DC32     BallastWindow

   \                                 In segment CODE, align 4, keep-with-next
   \                     ??DataTable5:
   \   00000000   ........           DC32     ??npos

   \                                 In segment CODE, align 4, keep-with-next
   \                     ??DataTable7:
   \   00000000   ........           DC32     ??TXUSystemData

   Maximum stack usage in bytes:

     Function                       CSTACK
     --------                       ------
     TDUAppSetupBallast::ExecDialogBox(GUI_HWIN)
                                       16
     TDUAppSetupBallast::GetDialogHandles()
                                        8
     TDUAppSetupBallast::InitDialog()
                                      244
     TDUAppSetupBallast::TDUAppSetupBallast()
                                        8
     TDUAppSetupBallast::Update()      72
     TDUAppSetupBallast::UpdateDialog(GUI_HWIN, int)
                                      112
     TDUAppSetupBallast::cbTankSetup(WM_MESSAGE *)
                                      252
     TDUAppSetupBallast::delete ~TDUAppSetupBallast(TDUAppSetupBallast *)
                                        8
     TDUAppSetupBallast::new TDUAppSetupBallast()
                                        4
     TDUAppSetupBallast::~TDUAppSetupBallast()
                                        4
     _Tree<_Tset_traits<PRogramObjectBase *, less<PRogramObjectBase *>, allocator<PRogramObjectBase *>, false>>::_Copy(_Tree<_Tset_traits<PRogramObjectBase *, less<PRogramObjectBase *>, allocator<PRogramObjectBase *>, false>>::_Nodeptr, _Tree<_Tset_traits<PRogramObjectBase *, less<PRogramObjectBase *>, allocator<PRogramObjectBase *>, false>>::_Nodeptr)
                                       32
     _Tree<_Tset_traits<PRogramObjectBase *, less<PRogramObjectBase *>, allocator<PRogramObjectBase *>, false>>::_Erase(_Tree<_Tset_traits<PRogramObjectBase *, less<PRogramObjectBase *>, allocator<PRogramObjectBase *>, false>>::_Nodeptr)
                                       16
     _Tree<_Tset_traits<PRogramObjectBase *, less<PRogramObjectBase *>, allocator<PRogramObjectBase *>, false>>::_Tree(_Tree<_Tset_traits<PRogramObjectBase *, less<PRogramObjectBase *>, allocator<PRogramObjectBase *>, false>> const &)
                                       12
     __sti__routine()                   0


   Segment part sizes:

     Function/Label                 Bytes
     --------------                 -----
     _Tree<_Tset_traits<PRogramObjectBase *, less<PRogramObjectBase *>, allocator<PRogramObjectBase *>, false>>::_Tree(_Tree<_Tset_traits<PRogramObjectBase *, less<PRogramObjectBase *>, allocator<PRogramObjectBase *>, false>> const &)
                                     208
     _Tree<_Tset_traits<PRogramObjectBase *, less<PRogramObjectBase *>, allocator<PRogramObjectBase *>, false>>::_Copy(_Tree<_Tset_traits<PRogramObjectBase *, less<PRogramObjectBase *>, allocator<PRogramObjectBase *>, false>>::_Nodeptr, _Tree<_Tset_traits<PRogramObjectBase *, less<PRogramObjectBase *>, allocator<PRogramObjectBase *>, false>>::_Nodeptr)
                                     148
     _Tree<_Tset_traits<PRogramObjectBase *, less<PRogramObjectBase *>, allocator<PRogramObjectBase *>, false>>::_Erase(_Tree<_Tset_traits<PRogramObjectBase *, less<PRogramObjectBase *>, allocator<PRogramObjectBase *>, false>>::_Nodeptr)
                                      76
     TDUAppSetupBallast::~TDUAppSetupBallast()
                                      16
     TDUAppSetupBallast::TDUAppSetupBallast()
                                      52
     TDUAppSetupBallast::aDialogCreate
                                     480
     TDUAppSetupBallast::ExecDialogBox(GUI_HWIN)
                                     184
     TDUAppSetupBallast::GetDialogHandles()
                                     308
     TDUAppSetupBallast::InitDialog()
                                     652
     TDUAppSetupBallast::UpdateDialog(GUI_HWIN, int)
                                    5176
     TDUAppSetupBallast::Update()    204
     TDUAppSetupBallast::cbTankSetup(WM_MESSAGE *)
                                    7928
     ?<Constant "Application setup">
                                      20
     ?<Constant "Operation mode">     16
     ?<Constant "Col. 1">              8
     ?<Constant "Col. 2">              8
     ?<Constant "Col. 3">              8
     ?<Constant "Col. 4">              8
     ?<Constant "Name ">               8
     ?<Constant "unit">                8
     ?<Constant "Zero adjust tank\n pre...">
                                      60
     ?<Constant "Zero adjust level\n se...">
                                      56
     ?<Constant "Close">               8
     ?<Constant "Ballast water density">
                                      24
     ?<Constant "">                    1
     ?<Constant {{2197, 0, 69}, {2558, 0, 70}, {255
                                     132
     ?<Constant "">_1                 80
     ?<Constant "">_2                 80
     TDUAppSetupBallast::new TDUAppSetupBallast()
                                      32
     TDUAppSetupBallast::delete ~TDUAppSetupBallast(TDUAppSetupBallast *)
                                      32
     __sti__routine()                  4
     ??DataTable1                      4
     ??DataTable2                      4
     ??DataTable3                      4
     ??DataTable4                      4
     ??DataTable5                      4
     ??DataTable7                      4
      Others                         660

 
 15 700 bytes in segment CODE
  1 005 bytes in segment DATA_C
      4 bytes in segment DIFUNCT
 
 14 616 bytes of CODE  memory (+ 1 088 bytes shared)
  1 005 bytes of CONST memory

Errors: none
Warnings: none
