##############################################################################
#                                                                            #
# IAR ARM ANSI C/C++ Compiler V4.42A/W32               14/Sep/2022  15:18:10 #
# Copyright 1999-2005 IAR Systems. All rights reserved.                      #
#                                                                            #
#    Cpu mode        =  interwork                                            #
#    Endian          =  little                                               #
#    Stack alignment =  4                                                    #
#    Source file     =  D:\S2Prog\TXU\src\TDUBasicWin.cpp                    #
#    Command line    =  D:\S2Prog\TXU\src\TDUBasicWin.cpp --fpu None -D      #
#                       OS_LIBMODE_SP -D CPU_S3C2410 -D OS_RAMVECT=0 -D      #
#                       OS_UART=-1 -D S2TXU -D USE_LZO=1 -D __ARM_LIBRARY__  #
#                       -D WATCHDOG=1 -D NETWORK=1 -lCN                      #
#                       D:\S2Prog\TXU\Debug\List\ -o                         #
#                       D:\S2Prog\TXU\Debug\Obj\ -s9 --debug --cpu_mode arm  #
#                       --endian little --cpu ARM920T --stack_align 4        #
#                       --interwork -e --enable_multibytes --eec++           #
#                       --dlib_config "C:\Program Files (x86)\IAR            #
#                       Systems\Embedded Workbench                           #
#                       4.0\arm\LIB\dl4tpainl8n.h" -I                        #
#                       D:\S2Prog\TXU\GUI\CORE\ -I D:\S2Prog\TXU\GUI\WM\ -I  #
#                       D:\S2Prog\TXU\GUI\WIDGET\ -I D:\S2Prog\TXU\CONFIG\   #
#                       -I D:\S2Prog\TXU\INC\ -I D:\S2Prog\TXU\..\SHARED\INC #
#                       \ -I D:\S2Prog\TXU\..\SHARED\SRC\ -I                 #
#                       D:\S2Prog\TXU\..\SHARED\LZO\minilzo.210\ -I          #
#                       D:\S2Prog\TXU\lwip-1.4.1\src\include\ -I             #
#                       D:\S2Prog\TXU\lwip-1.4.1\src\include\ipv4\ -I        #
#                       D:\S2Prog\TXU\lwip-1.4.1\src\ -I                     #
#                       D:\S2Prog\TXU\..\SHARED\Database\ -I                 #
#                       D:\S2Prog\TXU\src\ -I "C:\Program Files (x86)\IAR    #
#                       Systems\Embedded Workbench 4.0\arm\INC\"             #
#                       --inline_threshold=2                                 #
#    List file       =  D:\S2Prog\TXU\Debug\List\TDUBasicWin.lst             #
#    Object file     =  D:\S2Prog\TXU\Debug\Obj\TDUBasicWin.r79              #
#                                                                            #
#                                                                            #
##############################################################################

D:\S2Prog\TXU\src\TDUBasicWin.cpp
      1          #include "TDUIncludes.h"

   \                                 In segment CODE, align 4, keep-with-next
   \   __??Code32?? __code __interwork __atpcs WidgetStruct * _Vector_impl<WidgetKey, allocator<WidgetKey>>::_Make_room(WidgetStruct *, unsigned int)
   \                     ??_Make_room:
   \   00000000   F0472DE9           PUSH     {R4-R10,LR}
   \   00000004   0040A0E1           MOV      R4,R0
   \   00000008   000094E5           LDR      R0,[R4, #+0]
   \   0000000C   0150A0E1           MOV      R5,R1
   \   00000010   081094E5           LDR      R1,[R4, #+8]
   \   00000014   0260A0E1           MOV      R6,R2
   \   00000018   001041E0           SUB      R1,R1,R0
   \   0000001C   A171A0E1           LSR      R7,R1,#+3
   \   00000020   041094E5           LDR      R1,[R4, #+4]
   \   00000024   000056E3           CMP      R6,#+0
   \   00000028   000041E0           SUB      R0,R1,R0
   \   0000002C   A001A0E1           LSR      R0,R0,#+3
   \   00000030   2C00000A           BEQ      ??_Make_room_1
   \   00000034   E024E0E3           MVN      R2,#-536870912
   \   00000038   002042E0           SUB      R2,R2,R0
   \   0000003C   060052E1           CMP      R2,R6
   \   00000040   2800003A           BCC      ??_Make_room_1
   \   00000044   008086E0           ADD      R8,R6,R0
   \   00000048   080057E1           CMP      R7,R8
   \   0000004C   1F00002A           BCS      ??_Make_room_2
   \   00000050   A700A0E1           LSR      R0,R7,#+1
   \   00000054   E014E0E3           MVN      R1,#-536870912
   \   00000058   001041E0           SUB      R1,R1,R0
   \   0000005C   070051E1           CMP      R1,R7
   \   00000060   0070A033           MOVCC    R7,#+0
   \   00000064   07708020           ADDCS    R7,R0,R7
   \   00000068   080057E1           CMP      R7,R8
   \   0000006C   0870A031           MOVCC    R7,R8
   \   00000070   8701A0E1           LSL      R0,R7,#+3
   \   00000074   ........           _BLF     `??operator new`,`??operator new??rA`
   \   00000078   0090A0E1           MOV      R9,R0
   \   0000007C   000094E5           LDR      R0,[R4, #+0]
   \   00000080   0920A0E1           MOV      R2,R9
   \   00000084   0510A0E1           MOV      R1,R5
   \   00000088   ........           _BLF     _Copy_a4,??_Copy_a4??rA
   \   0000008C   041094E5           LDR      R1,[R4, #+4]
   \   00000090   00A0A0E1           MOV      R10,R0
   \   00000094   86218AE0           ADD      R2,R10,R6, LSL #+3
   \   00000098   0500A0E1           MOV      R0,R5
   \   0000009C   ........           _BLF     _Copy_a4,??_Copy_a4??rA
   \   000000A0   000094E5           LDR      R0,[R4, #+0]
   \   000000A4   000050E3           CMP      R0,#+0
   \   000000A8   0100000A           BEQ      ??_Make_room_3
   \   000000AC   040084E5           STR      R0,[R4, #+4]
   \   000000B0   ........           _BLF     `??operator delete`,`??operator delete??rA`
   \                     ??_Make_room_3:
   \   000000B4   870189E0           ADD      R0,R9,R7, LSL #+3
   \   000000B8   080084E5           STR      R0,[R4, #+8]
   \   000000BC   880189E0           ADD      R0,R9,R8, LSL #+3
   \   000000C0   040084E5           STR      R0,[R4, #+4]
   \   000000C4   009084E5           STR      R9,[R4, #+0]
   \   000000C8   0A50A0E1           MOV      R5,R10
   \   000000CC   050000EA           B        ??_Make_room_1
   \                     ??_Make_room_2:
   \   000000D0   862181E0           ADD      R2,R1,R6, LSL #+3
   \   000000D4   0500A0E1           MOV      R0,R5
   \   000000D8   ........           _BLF     _Copy_backward_a4,??_Copy_backward_a4??rA
   \   000000DC   040094E5           LDR      R0,[R4, #+4]
   \   000000E0   860180E0           ADD      R0,R0,R6, LSL #+3
   \   000000E4   040084E5           STR      R0,[R4, #+4]
   \                     ??_Make_room_1:
   \   000000E8   0500A0E1           MOV      R0,R5
   \   000000EC   F047BDE8           POP      {R4-R10,LR}
   \   000000F0   1EFF2FE1           BX       LR               ;; return

   \                                 In segment DATA_Z, align 4, align-sorted
      2          bool TDUBasicWin::GlobalIsInitiated = false;
   \                     ??GlobalIsInitiated:
   \   00000000                      DS8 1
   \   00000001                      DS8 3
      3          #ifdef S2TXU
      4          OS_RSEMA TDUBasicWin::WindowS;
   \                     ??WindowS:
   \   00000004                      DS8 16
      5          #endif

   \                                 In segment CODE, align 4, keep-with-next
      6          TDUBasicWin::TDUBasicWin(void) {
   \                     ??TDUBasicWin:
   \   00000000   30402DE9           PUSH     {R4,R5,LR}
   \   00000004   0040A0E1           MOV      R4,R0
   \   00000008   0050A0E3           MOV      R5,#+0
   \   0000000C   005084E5           STR      R5,[R4, #+0]
   \   00000010   045084E5           STR      R5,[R4, #+4]
   \   00000014   085084E5           STR      R5,[R4, #+8]
      7              InitGlobals();
   \   00000018   ........           BL       ??InitGlobals
      8              WinHandl          = 0;
   \   0000001C   BA52C4E1           STRH     R5,[R4, #+42]
      9              hTimer            = 0;
   \   00000020   BC52C4E1           STRH     R5,[R4, #+44]
     10              CurrentIndex      = 0;
   \   00000024   305084E5           STR      R5,[R4, #+48]
     11              DWidgetInfo       = NULL;       // Dynamic widgets, values can change
   \   00000028   0C5084E5           STR      R5,[R4, #+12]
     12              SWidgetInfo       = NULL;
   \   0000002C   105084E5           STR      R5,[R4, #+16]
     13              DropDowns         = NULL;
   \   00000030   145084E5           STR      R5,[R4, #+20]
     14              NumberOfSWidgets  = 0;
   \   00000034   1C5084E5           STR      R5,[R4, #+28]
     15              NumberOfDWidgets  = 0;
   \   00000038   185084E5           STR      R5,[R4, #+24]
     16              NumberOfDropDowns = 0;
   \   0000003C   205084E5           STR      R5,[R4, #+32]
     17              FirstTime         = true;
   \   00000040   0100A0E3           MOV      R0,#+1
   \   00000044   2800C4E5           STRB     R0,[R4, #+40]
     18              CurrentLanguage   = PROSystemData::CurrentLanguage;
   \   00000048   ........           LDR      R0,??DataTable0  ;; ??CurrentLanguage
   \   0000004C   000090E5           LDR      R0,[R0, #+0]
   \   00000050   240084E5           STR      R0,[R4, #+36]
     19          }
   \   00000054   0400A0E1           MOV      R0,R4
   \   00000058   3040BDE8           POP      {R4,R5,LR}
   \   0000005C   1EFF2FE1           BX       LR               ;; return
     20          

   \                                 In segment CODE, align 4, keep-with-next
     21          TDUBasicWin::~TDUBasicWin(void) {
   \                     `?~TDUBasicWin`:
   \   00000000   10402DE9           PUSH     {R4,LR}
   \   00000004   0040A0E1           MOV      R4,R0
     22              if ( hTimer ) {
   \   00000008   FC02D4E1           LDRSH    R0,[R4, #+44]
   \   0000000C   000050E3           CMP      R0,#+0
   \   00000010   0000000A           BEQ      `?~TDUBasicWin_1`
     23                  WM_DeleteTimer(hTimer);
   \   00000014   ........           _BLF     WM_DeleteTimer,??WM_DeleteTimer??rA
     24              }
     25              WM_DeleteWindow(WinHandl);
   \                     `?~TDUBasicWin_1`:
   \   00000018   FA02D4E1           LDRSH    R0,[R4, #+42]
   \   0000001C   ........           _BLF     WM_DeleteWindow,??WM_DeleteWindow??rA
     26              CloseWin();
   \   00000020   0010A0E3           MOV      R1,#+0
   \   00000024   0400A0E1           MOV      R0,R4
   \   00000028   ........           BL       ??CloseWin
     27          }
   \   0000002C   000094E5           LDR      R0,[R4, #+0]
   \   00000030   000050E3           CMP      R0,#+0
   \   00000034   0200000A           BEQ      `?~TDUBasicWin_2`
   \   00000038   040084E5           STR      R0,[R4, #+4]
   \   0000003C   ........           _BLF     `??operator delete`,`??operator delete??rA`
   \   00000040   0000A0E3           MOV      R0,#+0
   \                     `?~TDUBasicWin_2`:
   \   00000044   000084E5           STR      R0,[R4, #+0]
   \   00000048   040084E5           STR      R0,[R4, #+4]
   \   0000004C   080084E5           STR      R0,[R4, #+8]
   \   00000050   1040BDE8           POP      {R4,LR}
   \   00000054   1EFF2FE1           BX       LR               ;; return

   \                                 In segment CODE, align 4, keep-with-next
     28          void TDUBasicWin::InitGlobals(void) {
   \                     ??InitGlobals:
   \   00000000   10402DE9           PUSH     {R4,LR}
     29              if ( !GlobalIsInitiated ) {
   \   00000004   20409FE5           LDR      R4,??InitGlobals_1  ;; ??GlobalIsInitiated
   \   00000008   0000D4E5           LDRB     R0,[R4, #+0]
   \   0000000C   000050E3           CMP      R0,#+0
   \   00000010   0300001A           BNE      ??InitGlobals_2
     30          #if defined(S2TXU) || defined(ANBOOLOADER)
     31                  OS_CREATERSEMA(&WindowS);
   \   00000014   040084E2           ADD      R0,R4,#+4
   \   00000018   ........           _BLF     OS_CreateRSema,??OS_CreateRSema??rA
     32                  //WithProtection = false;
     33          #endif
     34                  GlobalIsInitiated = true;
   \   0000001C   0100A0E3           MOV      R0,#+1
   \   00000020   0000C4E5           STRB     R0,[R4, #+0]
     35              }
     36          
     37          }
   \                     ??InitGlobals_2:
   \   00000024   1040BDE8           POP      {R4,LR}
   \   00000028   1EFF2FE1           BX       LR               ;; return
   \                     ??InitGlobals_1:
   \   0000002C   ........           DC32     ??GlobalIsInitiated
     38          
     39          

   \                                 In segment CODE, align 4, keep-with-next
     40          void TDUBasicWin::ButtonSetText(int Id, AnsiString Str) {
   \                     ??ButtonSetText:
   \   00000000   10402DE9           PUSH     {R4,LR}
     41              WM_HWIN Item = WM_GetDialogItem(WinHandl, Id);
   \   00000004   FA02D0E1           LDRSH    R0,[R0, #+42]
   \   00000008   0240A0E1           MOV      R4,R2
   \   0000000C   ........           _BLF     WM_GetDialogItem,??WM_GetDialogItem??rA
     42              BUTTON_SetText(Item, Str.c_str());
   \   00000010   181094E5           LDR      R1,[R4, #+24]
   \   00000014   100051E3           CMP      R1,#+16
   \   00000018   04109425           LDRCS    R1,[R4, #+4]
   \   0000001C   04108432           ADDCC    R1,R4,#+4
   \   00000020   ........           _BLF     BUTTON_SetText,??BUTTON_SetText??rA
     43          }
   \   00000024   1040BDE8           POP      {R4,LR}
   \   00000028   1EFF2FE1           BX       LR               ;; return

   \                                 In segment CODE, align 4, keep-with-next
     44          void TDUBasicWin::EditSetText(int Id, AnsiString Str) {
   \                     ??EditSetText:
   \   00000000   10402DE9           PUSH     {R4,LR}
     45              WM_HWIN Item = WM_GetDialogItem(WinHandl, Id);
   \   00000004   FA02D0E1           LDRSH    R0,[R0, #+42]
   \   00000008   0240A0E1           MOV      R4,R2
   \   0000000C   ........           _BLF     WM_GetDialogItem,??WM_GetDialogItem??rA
     46              EDIT_SetText(Item, Str.c_str());
   \   00000010   181094E5           LDR      R1,[R4, #+24]
   \   00000014   100051E3           CMP      R1,#+16
   \   00000018   04109425           LDRCS    R1,[R4, #+4]
   \   0000001C   04108432           ADDCC    R1,R4,#+4
   \   00000020   ........           _BLF     EDIT_SetText,??EDIT_SetText??rA
     47          }
   \   00000024   1040BDE8           POP      {R4,LR}
   \   00000028   1EFF2FE1           BX       LR               ;; return
     48          

   \                                 In segment CODE, align 4, keep-with-next
     49          void TDUBasicWin::TextSetText(int Id, AnsiString Str) {
   \                     ??TextSetText:
   \   00000000   10402DE9           PUSH     {R4,LR}
     50              WM_HWIN Item = WM_GetDialogItem(WinHandl, Id);
   \   00000004   FA02D0E1           LDRSH    R0,[R0, #+42]
   \   00000008   0240A0E1           MOV      R4,R2
   \   0000000C   ........           _BLF     WM_GetDialogItem,??WM_GetDialogItem??rA
     51              TEXT_SetText(Item, Str.c_str());
   \   00000010   181094E5           LDR      R1,[R4, #+24]
   \   00000014   100051E3           CMP      R1,#+16
   \   00000018   04109425           LDRCS    R1,[R4, #+4]
   \   0000001C   04108432           ADDCC    R1,R4,#+4
   \   00000020   ........           _BLF     TEXT_SetText,??TEXT_SetText??rA
     52          }
   \   00000024   1040BDE8           POP      {R4,LR}
   \   00000028   1EFF2FE1           BX       LR               ;; return
     53          

   \                                 In segment CODE, align 4, keep-with-next
     54          void TDUBasicWin::CheckBoxSetText(int Id, AnsiString Str) {
   \                     ??CheckBoxSetText:
   \   00000000   10402DE9           PUSH     {R4,LR}
     55              WM_HWIN Item = WM_GetDialogItem(WinHandl, Id);
   \   00000004   FA02D0E1           LDRSH    R0,[R0, #+42]
   \   00000008   0240A0E1           MOV      R4,R2
   \   0000000C   ........           _BLF     WM_GetDialogItem,??WM_GetDialogItem??rA
     56              CHECKBOX_SetText(Item, Str.c_str());
   \   00000010   181094E5           LDR      R1,[R4, #+24]
   \   00000014   100051E3           CMP      R1,#+16
   \   00000018   04109425           LDRCS    R1,[R4, #+4]
   \   0000001C   04108432           ADDCC    R1,R4,#+4
   \   00000020   ........           _BLF     CHECKBOX_SetText,??CHECKBOX_SetText??rA
     57          }
   \   00000024   1040BDE8           POP      {R4,LR}
   \   00000028   1EFF2FE1           BX       LR               ;; return
     58          

   \                                 In segment CODE, align 4, keep-with-next
     59          void TDUBasicWin::SetText(WM_HWIN hWidget, int Index, AnsiString MsgStr) {
   \                     ??SetText:
   \   00000000   70402DE9           PUSH     {R4-R6,LR}
   \   00000004   0140A0E1           MOV      R4,R1
   \   00000008   0260A0E1           MOV      R6,R2
   \   0000000C   0350A0E1           MOV      R5,R3
     60              if ( hWidget ) {
   \   00000010   000054E3           CMP      R4,#+0
   \   00000014   4700000A           BEQ      ??SetText_3
     61                  WM_CALLBACK *pCb = WM_GetCallback(hWidget);
   \   00000018   0400A0E1           MOV      R0,R4
   \   0000001C   ........           _BLF     WM_GetCallback,??WM_GetCallback??rA
     62          
     63                  if ( pCb == BUTTON_Callback ) {
   \   00000020   ........           LDR      R1,??DataTable9  ;; BUTTON_Callback
   \   00000024   010050E1           CMP      R0,R1
   \   00000028   0600001A           BNE      ??SetText_4
     64                      BUTTON_SetText(hWidget, MsgStr.c_str());
   \   0000002C   180095E5           LDR      R0,[R5, #+24]
   \   00000030   100050E3           CMP      R0,#+16
   \   00000034   04109525           LDRCS    R1,[R5, #+4]
   \   00000038   0400A0E1           MOV      R0,R4
   \   0000003C   04108532           ADDCC    R1,R5,#+4
   \   00000040   ........           _BLF     BUTTON_SetText,??BUTTON_SetText??rA
   \   00000044   3B0000EA           B        ??SetText_3
     65                  } else if ( pCb == CHECKBOX_Callback ) {
   \                     ??SetText_4:
   \   00000048   ........           LDR      R3,??DataTable22  ;; CHECKBOX_Callback
   \   0000004C   041095E5           LDR      R1,[R5, #+4]
   \   00000050   182095E5           LDR      R2,[R5, #+24]
   \   00000054   030050E1           CMP      R0,R3
   \   00000058   0400001A           BNE      ??SetText_5
     66                      CHECKBOX_SetText(hWidget, MsgStr.c_str());
   \   0000005C   100052E3           CMP      R2,#+16
   \   00000060   04108532           ADDCC    R1,R5,#+4
   \   00000064   0400A0E1           MOV      R0,R4
   \   00000068   ........           _BLF     CHECKBOX_SetText,??CHECKBOX_SetText??rA
   \   0000006C   310000EA           B        ??SetText_3
     67                  } else if ( pCb == EDIT_Callback ) {
   \                     ??SetText_5:
   \   00000070   ........           LDR      R3,??DataTable26  ;; EDIT_Callback
   \   00000074   030050E1           CMP      R0,R3
   \   00000078   0400001A           BNE      ??SetText_6
     68                      EDIT_SetText(hWidget, MsgStr.c_str());
   \   0000007C   100052E3           CMP      R2,#+16
   \   00000080   04108532           ADDCC    R1,R5,#+4
   \   00000084   0400A0E1           MOV      R0,R4
   \   00000088   ........           _BLF     EDIT_SetText,??EDIT_SetText??rA
   \   0000008C   290000EA           B        ??SetText_3
     69                  } else if ( pCb == FRAMEWIN_Callback ) {
   \                     ??SetText_6:
   \   00000090   ........           LDR      R3,??DataTable11  ;; FRAMEWIN_Callback
   \   00000094   030050E1           CMP      R0,R3
   \   00000098   0400001A           BNE      ??SetText_7
     70                      FRAMEWIN_SetText(hWidget, MsgStr.c_str());
   \   0000009C   100052E3           CMP      R2,#+16
   \   000000A0   04108532           ADDCC    R1,R5,#+4
   \   000000A4   0400A0E1           MOV      R0,R4
   \   000000A8   ........           _BLF     FRAMEWIN_SetText,??FRAMEWIN_SetText??rA
   \   000000AC   210000EA           B        ??SetText_3
     71                  } else if ( pCb == MULTIEDIT_Callback ) {
   \                     ??SetText_7:
   \   000000B0   ........           LDR      R3,??DataTable17  ;; MULTIEDIT_Callback
   \   000000B4   030050E1           CMP      R0,R3
   \   000000B8   0400001A           BNE      ??SetText_8
     72                      MULTIEDIT_SetText(hWidget, MsgStr.c_str());
   \   000000BC   100052E3           CMP      R2,#+16
   \   000000C0   04108532           ADDCC    R1,R5,#+4
   \   000000C4   0400A0E1           MOV      R0,R4
   \   000000C8   ........           _BLF     MULTIEDIT_SetText,??MULTIEDIT_SetText??rA
   \   000000CC   190000EA           B        ??SetText_3
     73                  } else if ( pCb == TEXT_Callback ) {
   \                     ??SetText_8:
   \   000000D0   ........           LDR      R3,??DataTable12  ;; TEXT_Callback
   \   000000D4   030050E1           CMP      R0,R3
   \   000000D8   0400001A           BNE      ??SetText_9
     74                      TEXT_SetText(hWidget, MsgStr.c_str());
   \   000000DC   100052E3           CMP      R2,#+16
   \   000000E0   04108532           ADDCC    R1,R5,#+4
   \   000000E4   0400A0E1           MOV      R0,R4
   \   000000E8   ........           _BLF     TEXT_SetText,??TEXT_SetText??rA
   \   000000EC   110000EA           B        ??SetText_3
     75                  } else if ( pCb == RADIO_Callback ) {
   \                     ??SetText_9:
   \   000000F0   ........           LDR      R3,??DataTable18  ;; RADIO_Callback
   \   000000F4   030050E1           CMP      R0,R3
   \   000000F8   0500001A           BNE      ??SetText_10
     76                      RADIO_SetText(hWidget, MsgStr.c_str(), Index);
   \   000000FC   100052E3           CMP      R2,#+16
   \   00000100   04108532           ADDCC    R1,R5,#+4
   \   00000104   0620A0E1           MOV      R2,R6
   \   00000108   0400A0E1           MOV      R0,R4
   \   0000010C   ........           _BLF     RADIO_SetText,??RADIO_SetText??rA
   \   00000110   080000EA           B        ??SetText_3
     77                  } else if ( pCb == HEADER_Callback ) {
   \                     ??SetText_10:
   \   00000114   2C309FE5           LDR      R3,??SetText_11  ;; HEADER_Callback
   \   00000118   030050E1           CMP      R0,R3
   \   0000011C   0500001A           BNE      ??SetText_3
     78                      HEADER_SetItemText(hWidget, Index, MsgStr.c_str());
   \   00000120   100052E3           CMP      R2,#+16
   \   00000124   04108532           ADDCC    R1,R5,#+4
   \   00000128   0120A0E1           MOV      R2,R1
   \   0000012C   0610A0E1           MOV      R1,R6
   \   00000130   0400A0E1           MOV      R0,R4
   \   00000134   ........           _BLF     HEADER_SetItemText,??HEADER_SetItemText??rA
     79                  }
     80          
     81                  /*
     82                      // Do nothing
     83                  } else if ( pCb == DROPDOWN_Callback ) {
     84                  } else if ( pCb == GRAPH_Callback ) {
     85                  } else if ( pCb == HEADER_Callback ) {
     86                  } else if ( pCb == LISTBOX_Callback ) {
     87                  } else if ( pCb == LISTVIEW_Callback ) {
     88                  } else if ( pCb == MENU_Callback ) {
     89                  } else if ( pCb == MESSAGEBOX_Callback ) {
     90                  } else if ( pCb == PROGBAR_Callback ) {
     91                  } else if ( pCb == RADIO_Callback ) {
     92                  } else if ( pCb == SCROLLBAR_Callback ) {
     93                  } else if ( pCb == SLIDER_Callback ) {
     94                  }
     95                  */
     96              }
     97              WM_InvalidateWindow(hWidget);
   \                     ??SetText_3:
   \   00000138   0400A0E1           MOV      R0,R4
   \   0000013C   ........           _BLF     WM_InvalidateWindow,??WM_InvalidateWindow??rA
     98          
     99          }
   \   00000140   7040BDE8           POP      {R4-R6,LR}
   \   00000144   1EFF2FE1           BX       LR               ;; return
   \                     ??SetText_11:
   \   00000148   ........           DC32     HEADER_Callback
    100          
    101          

   \                                 In segment CODE, align 4, keep-with-next
    102          void TDUBasicWin::SetText(int Id, int Index, AnsiString MyStr) {
   \                     ??SetText_1:
   \   00000000   F0412DE9           PUSH     {R4-R8,LR}
   \   00000004   1CD04DE2           SUB      SP,SP,#+28
   \   00000008   0040A0E1           MOV      R4,R0
    103              WM_HWIN hWidget = WM_GetDialogItem(WinHandl, Id);
   \   0000000C   FA02D4E1           LDRSH    R0,[R4, #+42]
   \   00000010   0150A0E1           MOV      R5,R1
   \   00000014   0260A0E1           MOV      R6,R2
   \   00000018   0370A0E1           MOV      R7,R3
   \   0000001C   ........           _BLF     WM_GetDialogItem,??WM_GetDialogItem??rA
   \   00000020   0080B0E1           MOVS     R8,R0
    104              if ( !hWidget ) {
   \   00000024   0300001A           BNE      ??SetText_12
    105                  if ( Id == WM_GetId(WinHandl) ) {
   \   00000028   FA02D4E1           LDRSH    R0,[R4, #+42]
   \   0000002C   ........           _BLF     WM_GetId,??WM_GetId??rA
   \   00000030   000055E1           CMP      R5,R0
    106                      hWidget = WinHandl;
   \   00000034   FA82D401           LDRSHEQ  R8,[R4, #+42]
    107                  }
    108              }
    109          
    110              SetText(hWidget, Index, MyStr);
   \                     ??SetText_12:
   \   00000038   0020A0E3           MOV      R2,#+0
   \   0000003C   0010A0E3           MOV      R1,#+0
   \   00000040   0D00A0E1           MOV      R0,SP
   \   00000044   ........           _BLF     ??_Tidy,??_Tidy??rA
   \   00000048   ........           LDR      R0,??DataTable28  ;; ??npos
   \   0000004C   0020A0E3           MOV      R2,#+0
   \   00000050   003090E5           LDR      R3,[R0, #+0]
   \   00000054   0710A0E1           MOV      R1,R7
   \   00000058   0D00A0E1           MOV      R0,SP
   \   0000005C   ........           _BLF     ??assign,??assign??rA
   \   00000060   0D30A0E1           MOV      R3,SP
   \   00000064   0620A0E1           MOV      R2,R6
   \   00000068   0810A0E1           MOV      R1,R8
   \   0000006C   0400A0E1           MOV      R0,R4
   \   00000070   ........           BL       ??SetText
   \   00000074   0020A0E3           MOV      R2,#+0
   \   00000078   0110A0E3           MOV      R1,#+1
   \   0000007C   0D00A0E1           MOV      R0,SP
   \   00000080   ........           _BLF     ??_Tidy,??_Tidy??rA
    111          }
   \   00000084   1CD08DE2           ADD      SP,SP,#+28
   \   00000088   F041BDE8           POP      {R4-R8,LR}
   \   0000008C   1EFF2FE1           BX       LR               ;; return
    112          
    113          

   \                                 In segment CODE, align 4, keep-with-next
    114          void TDUBasicWin::SetText(GUIKey Word) {
   \                     ??SetText_2:
   \   00000000   0E002DE9           PUSH     {R1-R3}
   \   00000004   70402DE9           PUSH     {R4-R6,LR}
   \   00000008   1CD04DE2           SUB      SP,SP,#+28
   \   0000000C   0040A0E1           MOV      R4,R0
    115              if ( Word.GUIId ) {
   \   00000010   000051E3           CMP      R1,#+0
   \   00000014   1400000A           BEQ      ??SetText_13
    116                  WM_HWIN hWidget = WM_GetDialogItem(WinHandl, Word.GUIId);
   \   00000018   FA02D4E1           LDRSH    R0,[R4, #+42]
   \   0000001C   ........           _BLF     WM_GetDialogItem,??WM_GetDialogItem??rA
   \   00000020   0050B0E1           MOVS     R5,R0
    117                  if ( !hWidget ) {
   \   00000024   0400001A           BNE      ??SetText_14
    118                      if ( Word.GUIId == WM_GetId(WinHandl) ) {
   \   00000028   FA02D4E1           LDRSH    R0,[R4, #+42]
   \   0000002C   2C609DE5           LDR      R6,[SP, #+44]
   \   00000030   ........           _BLF     WM_GetId,??WM_GetId??rA
   \   00000034   000056E1           CMP      R6,R0
    119                          hWidget = WinHandl;
   \   00000038   FA52D401           LDRSHEQ  R5,[R4, #+42]
    120                      }
    121                  }
    122                  SetText(hWidget, Word.GUIIndex, FindDictionaryWord(Word.WordKey));
   \                     ??SetText_14:
   \   0000003C   34109DE5           LDR      R1,[SP, #+52]
   \   00000040   0D00A0E1           MOV      R0,SP
   \   00000044   ........           _BLF     ??FindDictionaryWord,??FindDictionaryWord??rA
   \   00000048   30209DE5           LDR      R2,[SP, #+48]
   \   0000004C   0D30A0E1           MOV      R3,SP
   \   00000050   0510A0E1           MOV      R1,R5
   \   00000054   0400A0E1           MOV      R0,R4
   \   00000058   ........           BL       ??SetText
   \   0000005C   0020A0E3           MOV      R2,#+0
   \   00000060   0110A0E3           MOV      R1,#+1
   \   00000064   0D00A0E1           MOV      R0,SP
   \   00000068   ........           _BLF     ??_Tidy,??_Tidy??rA
    123              }
    124          }
   \                     ??SetText_13:
   \   0000006C   1CD08DE2           ADD      SP,SP,#+28
   \   00000070   7040BDE8           POP      {R4-R6,LR}
   \   00000074   0CD08DE2           ADD      SP,SP,#+12
   \   00000078   1EFF2FE1           BX       LR               ;; return
    125          

   \                                 In segment CODE, align 4, keep-with-next
    126          void TDUBasicWin::UpdateValue(GUIUpdateKey UpdateValues) {
   \                     ??UpdateValue:
   \   00000000   0E002DE9           PUSH     {R1-R3}
   \   00000004   F0412DE9           PUSH     {R4-R8,LR}
   \   00000008   74D04DE2           SUB      SP,SP,#+116
   \   0000000C   0050A0E1           MOV      R5,R0
    127              if ( UpdateValues.GUIId ) {
   \   00000010   000051E3           CMP      R1,#+0
   \   00000014   E600000A           BEQ      ??UpdateValue_1
    128                  WM_HWIN hWidget = WM_GetDialogItem(WinHandl, UpdateValues.GUIId);
   \   00000018   FA02D5E1           LDRSH    R0,[R5, #+42]
   \   0000001C   ........           _BLF     WM_GetDialogItem,??WM_GetDialogItem??rA
   \   00000020   0040B0E1           MOVS     R4,R0
    129                  if ( hWidget ) {
   \   00000024   E200000A           BEQ      ??UpdateValue_1
    130                      WM_CALLBACK *pCb = WM_GetCallback(hWidget);
   \   00000028   ........           _BLF     WM_GetCallback,??WM_GetCallback??rA
    131                      if ( (pCb == BUTTON_Callback)
    132                           || (pCb == EDIT_Callback)
    133                           || (pCb == FRAMEWIN_Callback)
    134                           || (pCb == TEXT_Callback) ) {
   \   0000002C   ........           LDR      R1,??DataTable9  ;; BUTTON_Callback
   \   00000030   98609DE5           LDR      R6,[SP, #+152]
   \   00000034   9C709DE5           LDR      R7,[SP, #+156]
   \   00000038   94809DE5           LDR      R8,[SP, #+148]
   \   0000003C   010050E1           CMP      R0,R1
   \   00000040   ........           LDRNE    R1,??DataTable26  ;; EDIT_Callback
   \   00000044   01005011           CMPNE    R0,R1
   \   00000048   ........           LDRNE    R1,??DataTable11  ;; FRAMEWIN_Callback
   \   0000004C   01005011           CMPNE    R0,R1
   \   00000050   ........           LDRNE    R1,??DataTable12  ;; TEXT_Callback
   \   00000054   01005011           CMPNE    R0,R1
   \   00000058   5D00001A           BNE      ??UpdateValue_2
    135                          if ( UpdateValues.UnitGUIId ) {
   \   0000005C   A0409DE5           LDR      R4,[SP, #+160]
   \   00000060   000054E3           CMP      R4,#+0
   \   00000064   3A00000A           BEQ      ??UpdateValue_3
    136                              AnsiString UnitStr;
   \   00000068   20008DE2           ADD      R0,SP,#+32
   \   0000006C   ........           _BLF     ??AnsiString,??AnsiString??rA
    137                              AnsiString ValueStr = LibGetValue(UpdateValues.ValueKey, UpdateValues.ValueIndex1, UpdateValues.Obj, &UnitStr);
   \   00000070   0000A0E3           MOV      R0,#+0
   \   00000074   01002DE9           PUSH     {R0}
   \   00000078   24008DE2           ADD      R0,SP,#+36
   \   0000007C   01002DE9           PUSH     {R0}
   \   00000080   0830A0E1           MOV      R3,R8
   \   00000084   0720A0E1           MOV      R2,R7
   \   00000088   0610A0E1           MOV      R1,R6
   \   0000008C   0C008DE2           ADD      R0,SP,#+12
   \   00000090   ........           _BLF     ??LibGetValue,??LibGetValue??rA
    138                              //SetText(UpdateValues.WTypeId,UpdateValues.hWidget,UpdateValues.GUIIndex,ValueStr);
    139                              SetText(UpdateValues.UnitGUIId, 0, UnitStr);
   \   00000094   0020A0E3           MOV      R2,#+0
   \   00000098   0010A0E3           MOV      R1,#+0
   \   0000009C   44008DE2           ADD      R0,SP,#+68
   \   000000A0   ........           _BLF     ??_Tidy,??_Tidy??rA
   \   000000A4   ........           LDR      R0,??DataTable28  ;; ??npos
   \   000000A8   0020A0E3           MOV      R2,#+0
   \   000000AC   006090E5           LDR      R6,[R0, #+0]
   \   000000B0   28108DE2           ADD      R1,SP,#+40
   \   000000B4   0630A0E1           MOV      R3,R6
   \   000000B8   44008DE2           ADD      R0,SP,#+68
   \   000000BC   ........           _BLF     ??assign,??assign??rA
   \   000000C0   44308DE2           ADD      R3,SP,#+68
   \   000000C4   0020A0E3           MOV      R2,#+0
   \   000000C8   0410A0E1           MOV      R1,R4
   \   000000CC   0500A0E1           MOV      R0,R5
   \   000000D0   ........           BL       ??SetText_1
   \   000000D4   0020A0E3           MOV      R2,#+0
   \   000000D8   0110A0E3           MOV      R1,#+1
   \   000000DC   44008DE2           ADD      R0,SP,#+68
   \   000000E0   ........           _BLF     ??_Tidy,??_Tidy??rA
    140                              SetText(UpdateValues.GUIId, 0, ValueStr);
   \   000000E4   0020A0E3           MOV      R2,#+0
   \   000000E8   0210A0E1           MOV      R1,R2
   \   000000EC   60008DE2           ADD      R0,SP,#+96
   \   000000F0   ........           _BLF     ??_Tidy,??_Tidy??rA
   \   000000F4   0630A0E1           MOV      R3,R6
   \   000000F8   0020A0E3           MOV      R2,#+0
   \   000000FC   0C108DE2           ADD      R1,SP,#+12
   \   00000100   60008DE2           ADD      R0,SP,#+96
   \   00000104   ........           _BLF     ??assign,??assign??rA
   \   00000108   94109DE5           LDR      R1,[SP, #+148]
   \   0000010C   60308DE2           ADD      R3,SP,#+96
   \   00000110   0020A0E3           MOV      R2,#+0
   \   00000114   0500A0E1           MOV      R0,R5
   \   00000118   ........           BL       ??SetText_1
   \   0000011C   0020A0E3           MOV      R2,#+0
   \   00000120   0110A0E3           MOV      R1,#+1
   \   00000124   60008DE2           ADD      R0,SP,#+96
   \   00000128   ........           _BLF     ??_Tidy,??_Tidy??rA
    141                          } else {
   \   0000012C   0020A0E3           MOV      R2,#+0
   \   00000130   0110A0E3           MOV      R1,#+1
   \   00000134   0C008DE2           ADD      R0,SP,#+12
   \   00000138   ........           _BLF     ??_Tidy,??_Tidy??rA
   \   0000013C   0020A0E3           MOV      R2,#+0
   \   00000140   0110A0E3           MOV      R1,#+1
   \   00000144   28008DE2           ADD      R0,SP,#+40
   \   00000148   ........           _BLF     ??_Tidy,??_Tidy??rA
   \   0000014C   08D08DE2           ADD      SP,SP,#+8
   \   00000150   970000EA           B        ??UpdateValue_1
    142                              AnsiString ValueStr = LibGetValue(UpdateValues.ValueKey, UpdateValues.ValueIndex1, UpdateValues.Obj);
   \                     ??UpdateValue_3:
   \   00000154   0000A0E3           MOV      R0,#+0
   \   00000158   01002DE9           PUSH     {R0}
   \   0000015C   0830A0E1           MOV      R3,R8
   \   00000160   0720A0E1           MOV      R2,R7
   \   00000164   0610A0E1           MOV      R1,R6
   \   00000168   24008DE2           ADD      R0,SP,#+36
   \   0000016C   ........           _BLF     ??LibGetValue_1,??LibGetValue??rA_1
    143                              SetText(UpdateValues.GUIId, 0, ValueStr);
   \   00000170   0020A0E3           MOV      R2,#+0
   \   00000174   0010A0E3           MOV      R1,#+0
   \   00000178   08008DE2           ADD      R0,SP,#+8
   \   0000017C   ........           _BLF     ??_Tidy,??_Tidy??rA
   \   00000180   ........           LDR      R0,??DataTable28  ;; ??npos
   \   00000184   0020A0E3           MOV      R2,#+0
   \   00000188   003090E5           LDR      R3,[R0, #+0]
   \   0000018C   24108DE2           ADD      R1,SP,#+36
   \   00000190   08008DE2           ADD      R0,SP,#+8
   \   00000194   ........           _BLF     ??assign,??assign??rA
   \   00000198   90109DE5           LDR      R1,[SP, #+144]
   \   0000019C   08308DE2           ADD      R3,SP,#+8
   \   000001A0   0020A0E3           MOV      R2,#+0
   \   000001A4   0500A0E1           MOV      R0,R5
   \   000001A8   ........           BL       ??SetText_1
   \   000001AC   0020A0E3           MOV      R2,#+0
   \   000001B0   0110A0E3           MOV      R1,#+1
   \   000001B4   08008DE2           ADD      R0,SP,#+8
   \   000001B8   ........           _BLF     ??_Tidy,??_Tidy??rA
    144                          }
   \   000001BC   0020A0E3           MOV      R2,#+0
   \   000001C0   0110A0E3           MOV      R1,#+1
   \   000001C4   24008DE2           ADD      R0,SP,#+36
   \   000001C8   ........           _BLF     ??_Tidy,??_Tidy??rA
   \   000001CC   04D08DE2           ADD      SP,SP,#+4
   \   000001D0   770000EA           B        ??UpdateValue_1
    145                      } else if ( pCb == CHECKBOX_Callback ) {
   \                     ??UpdateValue_2:
   \   000001D4   ........           LDR      R1,??DataTable22  ;; CHECKBOX_Callback
   \   000001D8   010050E1           CMP      R0,R1
   \   000001DC   4A00001A           BNE      ??UpdateValue_4
    146                          AnsiString ValueStr = LibGetValue(UpdateValues.ValueKey, UpdateValues.ValueIndex1, UpdateValues.Obj);
   \   000001E0   0000A0E3           MOV      R0,#+0
   \   000001E4   01002DE9           PUSH     {R0}
   \   000001E8   0830A0E1           MOV      R3,R8
   \   000001EC   0720A0E1           MOV      R2,R7
   \   000001F0   0610A0E1           MOV      R1,R6
   \   000001F4   40008DE2           ADD      R0,SP,#+64
   \   000001F8   ........           _BLF     ??LibGetValue_1,??LibGetValue??rA_1
    147                          int NewStatus = FindDictionaryKey(ValueStr);
   \   000001FC   0020A0E3           MOV      R2,#+0
   \   00000200   0010A0E3           MOV      R1,#+0
   \   00000204   08008DE2           ADD      R0,SP,#+8
   \   00000208   ........           _BLF     ??_Tidy,??_Tidy??rA
   \   0000020C   ........           LDR      R0,??DataTable28  ;; ??npos
   \   00000210   0020A0E3           MOV      R2,#+0
   \   00000214   006090E5           LDR      R6,[R0, #+0]
   \   00000218   40108DE2           ADD      R1,SP,#+64
   \   0000021C   0630A0E1           MOV      R3,R6
   \   00000220   08008DE2           ADD      R0,SP,#+8
   \   00000224   ........           _BLF     ??assign,??assign??rA
   \   00000228   08008DE2           ADD      R0,SP,#+8
   \   0000022C   ........           _BLF     ??FindDictionaryKey,??FindDictionaryKey??rA
   \   00000230   0020A0E3           MOV      R2,#+0
   \   00000234   0110A0E3           MOV      R1,#+1
   \   00000238   08008DE2           ADD      R0,SP,#+8
   \   0000023C   ........           _BLF     ??_Tidy,??_Tidy??rA
    148                          int Status;
    149                          unsigned State = (unsigned)GetFloat(ValueStr, Status);
   \   00000240   0020A0E3           MOV      R2,#+0
   \   00000244   0210A0E1           MOV      R1,R2
   \   00000248   5C008DE2           ADD      R0,SP,#+92
   \   0000024C   ........           _BLF     ??_Tidy,??_Tidy??rA
   \   00000250   0630A0E1           MOV      R3,R6
   \   00000254   0020A0E3           MOV      R2,#+0
   \   00000258   40108DE2           ADD      R1,SP,#+64
   \   0000025C   5C008DE2           ADD      R0,SP,#+92
   \   00000260   ........           _BLF     ??assign,??assign??rA
   \   00000264   04108DE2           ADD      R1,SP,#+4
   \   00000268   5C008DE2           ADD      R0,SP,#+92
   \   0000026C   ........           _BLF     ??GetFloat,??GetFloat??rA
   \   00000270   ........           _BLF     __doubleToUlong,??__doubleToUlong??rA
   \   00000274   0050A0E1           MOV      R5,R0
   \   00000278   0020A0E3           MOV      R2,#+0
   \   0000027C   0110A0E3           MOV      R1,#+1
   \   00000280   5C008DE2           ADD      R0,SP,#+92
   \   00000284   ........           _BLF     ??_Tidy,??_Tidy??rA
    150                          if ( Status != E_NO_ERR ) {
   \   00000288   04009DE5           LDR      R0,[SP, #+4]
   \   0000028C   04D08DE2           ADD      SP,SP,#+4
   \   00000290   000050E3           CMP      R0,#+0
   \   00000294   1500000A           BEQ      ??UpdateValue_5
    151                              int NewStatus = FindDictionaryKey(ValueStr);
   \   00000298   0020A0E3           MOV      R2,#+0
   \   0000029C   0010A0E3           MOV      R1,#+0
   \   000002A0   20008DE2           ADD      R0,SP,#+32
   \   000002A4   ........           _BLF     ??_Tidy,??_Tidy??rA
   \   000002A8   0630A0E1           MOV      R3,R6
   \   000002AC   0020A0E3           MOV      R2,#+0
   \   000002B0   3C108DE2           ADD      R1,SP,#+60
   \   000002B4   20008DE2           ADD      R0,SP,#+32
   \   000002B8   ........           _BLF     ??assign,??assign??rA
   \   000002BC   20008DE2           ADD      R0,SP,#+32
   \   000002C0   ........           _BLF     ??FindDictionaryKey,??FindDictionaryKey??rA
   \   000002C4   0060A0E1           MOV      R6,R0
   \   000002C8   0020A0E3           MOV      R2,#+0
   \   000002CC   0110A0E3           MOV      R1,#+1
   \   000002D0   20008DE2           ADD      R0,SP,#+32
   \   000002D4   ........           _BLF     ??_Tidy,??_Tidy??rA
    152                              switch ( NewStatus ) {
   \   000002D8   646056E2           SUBS     R6,R6,#+100
   \   000002DC   0200000A           BEQ      ??UpdateValue_6
   \   000002E0   016056E2           SUBS     R6,R6,#+1
   \   000002E4   0050A003           MOVEQ    R5,#+0
   \   000002E8   000000EA           B        ??UpdateValue_5
    153                              case C_ENABLE:
    154                                  State = 1;
   \                     ??UpdateValue_6:
   \   000002EC   0150A0E3           MOV      R5,#+1
    155                                  break;
    156                              case C_DISABLE:
    157                                  State = 0;
    158                                  break;
    159                              }
    160                          }
    161                          CHECKBOX_SetState(hWidget, State);
   \                     ??UpdateValue_5:
   \   000002F0   0510A0E1           MOV      R1,R5
   \   000002F4   0400A0E1           MOV      R0,R4
   \   000002F8   ........           _BLF     CHECKBOX_SetState,??CHECKBOX_SetState??rA
    162                      } else if ( pCb == MULTIEDIT_Callback ) {} else if ( pCb == RADIO_Callback ) {
   \   000002FC   0020A0E3           MOV      R2,#+0
   \   00000300   0110A0E3           MOV      R1,#+1
   \   00000304   3C008DE2           ADD      R0,SP,#+60
   \   00000308   280000EA           B        ??UpdateValue_7
   \                     ??UpdateValue_4:
   \   0000030C   ........           LDR      R1,??DataTable17  ;; MULTIEDIT_Callback
   \   00000310   010050E1           CMP      R0,R1
   \   00000314   2600000A           BEQ      ??UpdateValue_1
   \   00000318   ........           LDR      R1,??DataTable18  ;; RADIO_Callback
   \   0000031C   010050E1           CMP      R0,R1
   \   00000320   2300001A           BNE      ??UpdateValue_1
    163                          AnsiString ValueStr = LibGetValue(UpdateValues.ValueKey, UpdateValues.ValueIndex1, UpdateValues.Obj);
   \   00000324   0000A0E3           MOV      R0,#+0
   \   00000328   01002DE9           PUSH     {R0}
   \   0000032C   0830A0E1           MOV      R3,R8
   \   00000330   0720A0E1           MOV      R2,R7
   \   00000334   0610A0E1           MOV      R1,R6
   \   00000338   24008DE2           ADD      R0,SP,#+36
   \   0000033C   ........           _BLF     ??LibGetValue_1,??LibGetValue??rA_1
    164                          int Status;
    165                          int State = (unsigned)GetInt(ValueStr, Status);
   \   00000340   0020A0E3           MOV      R2,#+0
   \   00000344   0010A0E3           MOV      R1,#+0
   \   00000348   08008DE2           ADD      R0,SP,#+8
   \   0000034C   ........           _BLF     ??_Tidy,??_Tidy??rA
   \   00000350   ........           LDR      R0,??DataTable28  ;; ??npos
   \   00000354   0020A0E3           MOV      R2,#+0
   \   00000358   003090E5           LDR      R3,[R0, #+0]
   \   0000035C   24108DE2           ADD      R1,SP,#+36
   \   00000360   08008DE2           ADD      R0,SP,#+8
   \   00000364   ........           _BLF     ??assign,??assign??rA
   \   00000368   04108DE2           ADD      R1,SP,#+4
   \   0000036C   08008DE2           ADD      R0,SP,#+8
   \   00000370   ........           _BLF     ??GetInt,??GetInt??rA
   \   00000374   0050A0E1           MOV      R5,R0
   \   00000378   0020A0E3           MOV      R2,#+0
   \   0000037C   0110A0E3           MOV      R1,#+1
   \   00000380   08008DE2           ADD      R0,SP,#+8
   \   00000384   ........           _BLF     ??_Tidy,??_Tidy??rA
    166                          if ( Status == E_NO_ERR ) {
   \   00000388   04009DE5           LDR      R0,[SP, #+4]
   \   0000038C   04D08DE2           ADD      SP,SP,#+4
   \   00000390   000050E3           CMP      R0,#+0
   \   00000394   0200001A           BNE      ??UpdateValue_8
    167                              RADIO_SetValue(hWidget, State);
   \   00000398   0510A0E1           MOV      R1,R5
   \   0000039C   0400A0E1           MOV      R0,R4
   \   000003A0   ........           _BLF     RADIO_SetValue,??RADIO_SetValue??rA
    168                          }
    169                      }
   \                     ??UpdateValue_8:
   \   000003A4   0020A0E3           MOV      R2,#+0
   \   000003A8   0110A0E3           MOV      R1,#+1
   \   000003AC   20008DE2           ADD      R0,SP,#+32
   \                     ??UpdateValue_7:
   \   000003B0   ........           _BLF     ??_Tidy,??_Tidy??rA
    170                  }
    171              }
    172          }
   \                     ??UpdateValue_1:
   \   000003B4   74D08DE2           ADD      SP,SP,#+116
   \   000003B8   F041BDE8           POP      {R4-R8,LR}
   \   000003BC   0CD08DE2           ADD      SP,SP,#+12
   \   000003C0   1EFF2FE1           BX       LR               ;; return
    173          
    174          //---------------------------------------------------------------------------
    175          

   \                                 In segment CODE, align 4, keep-with-next
    176          int CompareDWidgetInfo(const void *KWEntry1, const void *KWEntry2) {
    177              int Key1 = ((GUIUpdateKey *)KWEntry1)->GUIId;
    178              int Key2 = ((GUIUpdateKey *)KWEntry2)->GUIId;
    179              return (Key1 - Key2);
   \                     ??CompareDWidgetInfo:
   \   00000000   000090E5           LDR      R0,[R0, #+0]
   \   00000004   001091E5           LDR      R1,[R1, #+0]
   \   00000008   010040E0           SUB      R0,R0,R1
   \   0000000C   1EFF2FE1           BX       LR               ;; return
    180          }
    181          //---------------------------------------------------------------------------
    182          
    183          

   \                                 In segment CODE, align 4, keep-with-next
    184          void TDUBasicWin::SetUpWidgetInfoTable(GUIUpdateKey *UpdateValues, int NumberOfEntries) {
   \                     ??SetUpWidgetInfoTable:
   \   00000000   F0402DE9           PUSH     {R4-R7,LR}
   \   00000004   0040A0E1           MOV      R4,R0
   \   00000008   0150A0E1           MOV      R5,R1
   \   0000000C   0260A0E1           MOV      R6,R2
    185              DWidgetInfo    = new GUIUpdateKey[NumberOfEntries];
   \   00000010   8672A0E1           LSL      R7,R6,#+5
   \   00000014   0700A0E1           MOV      R0,R7
   \   00000018   ........           _BLF     `??operator new[]`,`??operator new[]??rA`
   \   0000001C   0C0084E5           STR      R0,[R4, #+12]
    186              NumberOfDWidgets = NumberOfEntries;
   \   00000020   186084E5           STR      R6,[R4, #+24]
    187              memcpy(DWidgetInfo, UpdateValues, NumberOfDWidgets * sizeof(GUIUpdateKey));
   \   00000024   0720A0E1           MOV      R2,R7
   \   00000028   0510A0E1           MOV      R1,R5
   \   0000002C   ........           _BLF     memcpy,??memcpy??rA
    188              qsort((void *)DWidgetInfo, NumberOfDWidgets, sizeof(GUIUpdateKey), CompareDWidgetInfo);
   \   00000030   ........           LDR      R3,??DataTable21  ;; ??CompareDWidgetInfo
   \   00000034   181094E5           LDR      R1,[R4, #+24]
   \   00000038   0C0094E5           LDR      R0,[R4, #+12]
   \   0000003C   2020A0E3           MOV      R2,#+32
   \   00000040   ........           _BLF     qsort,??qsort??rA
    189          }
   \   00000044   F040BDE8           POP      {R4-R7,LR}
   \   00000048   1EFF2FE1           BX       LR               ;; return
    190          //---------------------------------------------------------------------------
    191          
    192          

   \                                 In segment CODE, align 4, keep-with-next
    193          GUIUpdateKey* TDUBasicWin::FindDWidget(int GUIId) {
   \                     ??FindDWidget:
   \   00000000   00402DE9           PUSH     {LR}
   \   00000004   20D04DE2           SUB      SP,SP,#+32
    194              GUIUpdateKey tmpWidgetInfo;
    195              tmpWidgetInfo.GUIId   = GUIId;
   \   00000008   00108DE5           STR      R1,[SP, #+0]
    196          #ifdef ANTDUSIM
    197              GUIUpdateKey *KeyWidgetInfo = (GUIUpdateKey *)lfind((void *)&tmpWidgetInfo, (void *)DWidgetInfo, &NumberOfDWidgets, sizeof(GUIUpdateKey), CompareDWidgetInfo);
    198          #else
    199              GUIUpdateKey *KeyWidgetInfo = (GUIUpdateKey *)bsearch((void *)&tmpWidgetInfo, (void *)DWidgetInfo, NumberOfDWidgets, sizeof(GUIUpdateKey), CompareDWidgetInfo);
   \   0000000C   ........           LDR      R1,??DataTable21  ;; ??CompareDWidgetInfo
   \   00000010   2030A0E3           MOV      R3,#+32
   \   00000014   02002DE9           PUSH     {R1}
   \   00000018   182090E5           LDR      R2,[R0, #+24]
   \   0000001C   0C1090E5           LDR      R1,[R0, #+12]
   \   00000020   04008DE2           ADD      R0,SP,#+4
   \   00000024   ........           _BLF     bsearch,??bsearch??rA
    200          #endif
    201              return (KeyWidgetInfo);
   \   00000028   24D08DE2           ADD      SP,SP,#+36
   \   0000002C   0040BDE8           POP      {LR}
   \   00000030   1EFF2FE1           BX       LR               ;; return
    202          }
    203          

   \                                 In segment CODE, align 4, keep-with-next
    204          void TDUBasicWin::ChangeDWord(int GUIId, int WordKey, int ValueKey, PRogramObjectBase *Obj) {
   \                     ??ChangeDWord:
   \   00000000   70402DE9           PUSH     {R4-R6,LR}
   \   00000004   10609DE5           LDR      R6,[SP, #+16]
   \   00000008   0240A0E1           MOV      R4,R2
   \   0000000C   0350A0E1           MOV      R5,R3
    205              GUIUpdateKey *KeyWidgetInfo = FindDWidget(GUIId);
   \   00000010   ........           BL       ??FindDWidget
    206              if ( KeyWidgetInfo ) {
   \   00000014   000050E3           CMP      R0,#+0
   \   00000018   0600000A           BEQ      ??ChangeDWord_1
    207                  if ( KeyWidgetInfo->ValueKey > SVT_NOT_DEFINED ) {
   \   0000001C   0C1090E5           LDR      R1,[R0, #+12]
   \   00000020   010051E3           CMP      R1,#+1
   \   00000024   020000BA           BLT      ??ChangeDWord_2
    208                      KeyWidgetInfo->ValueKey   = ValueKey;
   \   00000028   0C5080E5           STR      R5,[R0, #+12]
    209                      if ( Obj ) {
   \   0000002C   000056E3           CMP      R6,#+0
    210                          KeyWidgetInfo->Obj = Obj;
   \   00000030   08608015           STRNE    R6,[R0, #+8]
    211                      }
    212                  }
    213                  KeyWidgetInfo->InputMsgWord = WordKey;
   \                     ??ChangeDWord_2:
   \   00000034   184080E5           STR      R4,[R0, #+24]
    214              }
    215          }
   \                     ??ChangeDWord_1:
   \   00000038   7040BDE8           POP      {R4-R6,LR}
   \   0000003C   1EFF2FE1           BX       LR               ;; return
    216          

   \                                 In segment CODE, align 4, keep-with-next
    217          void TDUBasicWin::DisableWidget(int GUIId) {
   \                     ??DisableWidget:
   \   00000000   00402DE9           PUSH     {LR}
    218              WM_HWIN hWidget = WM_GetDialogItem(WinHandl, GUIId);
   \   00000004   FA02D0E1           LDRSH    R0,[R0, #+42]
   \   00000008   ........           _BLF     WM_GetDialogItem,??WM_GetDialogItem??rA
    219              if ( hWidget ) {
   \   0000000C   000050E3           CMP      R0,#+0
   \   00000010   0000000A           BEQ      ??DisableWidget_1
    220                  WM_DisableWindow(hWidget);
   \   00000014   ........           _BLF     WM_DisableWindow,??WM_DisableWindow??rA
    221              }
    222          }
   \                     ??DisableWidget_1:
   \   00000018   0040BDE8           POP      {LR}
   \   0000001C   1EFF2FE1           BX       LR               ;; return
    223          
    224          

   \                                 In segment CODE, align 4, keep-with-next
    225          void TDUBasicWin::CHECKBOX_UpdateValue(int GUIId) {
   \                     ??CHECKBOX_UpdateValue:
   \   00000000   70402DE9           PUSH     {R4-R6,LR}
   \   00000004   54D04DE2           SUB      SP,SP,#+84
   \   00000008   0040A0E1           MOV      R4,R0
   \   0000000C   0150A0E1           MOV      R5,R1
    226              GUIUpdateKey *FieldPtr = FindDWidget(GUIId);
   \   00000010   ........           BL       ??FindDWidget
   \   00000014   0060B0E1           MOVS     R6,R0
    227              if ( FieldPtr ) {
   \   00000018   3A00000A           BEQ      ??CHECKBOX_UpdateValue_1
    228                  WM_HWIN hWidget = WM_GetDialogItem(WinHandl, GUIId);
   \   0000001C   FA02D4E1           LDRSH    R0,[R4, #+42]
   \   00000020   0510A0E1           MOV      R1,R5
   \   00000024   ........           _BLF     WM_GetDialogItem,??WM_GetDialogItem??rA
   \   00000028   0040B0E1           MOVS     R4,R0
    229                  if ( hWidget ) {
   \   0000002C   3500000A           BEQ      ??CHECKBOX_UpdateValue_1
    230                      WM_CALLBACK *pCb = WM_GetCallback(hWidget);
    231                      if ( pCb == CHECKBOX_Callback ) {
   \   00000030   ........           _BLF     WM_GetCallback,??WM_GetCallback??rA
   \   00000034   ........           LDR      R1,??DataTable22  ;; CHECKBOX_Callback
   \   00000038   010050E1           CMP      R0,R1
   \   0000003C   3100001A           BNE      ??CHECKBOX_UpdateValue_1
    232                          AnsiString InputStr;
   \   00000040   38008DE2           ADD      R0,SP,#+56
   \   00000044   ........           _BLF     ??AnsiString,??AnsiString??rA
    233                          if ( CHECKBOX_IsChecked(hWidget) ) {
   \   00000048   0400A0E1           MOV      R0,R4
   \   0000004C   ........           _BLF     CHECKBOX_IsChecked,??CHECKBOX_IsChecked??rA
   \   00000050   000050E3           CMP      R0,#+0
   \   00000054   0700000A           BEQ      ??CHECKBOX_UpdateValue_2
    234                              InputStr = "1";
   \   00000058   2D1F8FE2           ADR      R1,??CHECKBOX_UpdateValue_3  ;; "1"
   \   0000005C   0D00A0E1           MOV      R0,SP
   \   00000060   ........           _BLF     ??AnsiString_1,??AnsiString??rA_1
   \   00000064   ........           LDR      R1,??DataTable28  ;; ??npos
   \   00000068   0020A0E3           MOV      R2,#+0
   \   0000006C   003091E5           LDR      R3,[R1, #+0]
   \   00000070   0010A0E1           MOV      R1,R0
   \   00000074   060000EA           B        ??CHECKBOX_UpdateValue_4
    235                          } else {
    236                              InputStr = "0";
   \                     ??CHECKBOX_UpdateValue_2:
   \   00000078   261F8FE2           ADR      R1,??CHECKBOX_UpdateValue_3+0x4  ;; "0"
   \   0000007C   0D00A0E1           MOV      R0,SP
   \   00000080   ........           _BLF     ??AnsiString_1,??AnsiString??rA_1
   \   00000084   0010A0E1           MOV      R1,R0
   \   00000088   ........           LDR      R0,??DataTable28  ;; ??npos
   \   0000008C   0020A0E3           MOV      R2,#+0
   \   00000090   003090E5           LDR      R3,[R0, #+0]
   \                     ??CHECKBOX_UpdateValue_4:
   \   00000094   38008DE2           ADD      R0,SP,#+56
   \   00000098   ........           _BLF     ??assign,??assign??rA
   \   0000009C   0020A0E3           MOV      R2,#+0
   \   000000A0   0110A0E3           MOV      R1,#+1
   \   000000A4   0D00A0E1           MOV      R0,SP
   \   000000A8   ........           _BLF     ??_Tidy,??_Tidy??rA
    237                          }
    238                          LibPutValue(FieldPtr->ValueKey, FieldPtr->Obj, InputStr);
   \   000000AC   0020A0E3           MOV      R2,#+0
   \   000000B0   0010A0E3           MOV      R1,#+0
   \   000000B4   1C008DE2           ADD      R0,SP,#+28
   \   000000B8   ........           _BLF     ??_Tidy,??_Tidy??rA
   \   000000BC   ........           LDR      R0,??DataTable28  ;; ??npos
   \   000000C0   0020A0E3           MOV      R2,#+0
   \   000000C4   003090E5           LDR      R3,[R0, #+0]
   \   000000C8   38108DE2           ADD      R1,SP,#+56
   \   000000CC   1C008DE2           ADD      R0,SP,#+28
   \   000000D0   ........           _BLF     ??assign,??assign??rA
   \   000000D4   081096E5           LDR      R1,[R6, #+8]
   \   000000D8   0C0096E5           LDR      R0,[R6, #+12]
   \   000000DC   0030A0E3           MOV      R3,#+0
   \   000000E0   1C208DE2           ADD      R2,SP,#+28
   \   000000E4   ........           _BLF     ??LibPutValue,??LibPutValue??rA
   \   000000E8   0020A0E3           MOV      R2,#+0
   \   000000EC   0110A0E3           MOV      R1,#+1
   \   000000F0   1C008DE2           ADD      R0,SP,#+28
   \   000000F4   ........           _BLF     ??_Tidy,??_Tidy??rA
    239                      }
   \   000000F8   0020A0E3           MOV      R2,#+0
   \   000000FC   0110A0E3           MOV      R1,#+1
   \   00000100   38008DE2           ADD      R0,SP,#+56
   \   00000104   ........           _BLF     ??_Tidy,??_Tidy??rA
    240                  }
    241              }
    242          }
   \                     ??CHECKBOX_UpdateValue_1:
   \   00000108   54D08DE2           ADD      SP,SP,#+84
   \   0000010C   7040BDE8           POP      {R4-R6,LR}
   \   00000110   1EFF2FE1           BX       LR               ;; return
   \                     ??CHECKBOX_UpdateValue_3:
   \   00000114   31000000           DC8      "1",+0,+0
   \   00000118   30000000           DC8      "0",+0,+0
    243          

   \                                 In segment CODE, align 4, keep-with-next
    244          void TDUBasicWin::EDIT_InputValue(int GUIId, AnsiString InputStr) {
   \                     ??EDIT_InputValue:
   \   00000000   F0402DE9           PUSH     {R4-R7,LR}
   \   00000004   1CD04DE2           SUB      SP,SP,#+28
   \   00000008   0040A0E1           MOV      R4,R0
   \   0000000C   0150A0E1           MOV      R5,R1
   \   00000010   0260A0E1           MOV      R6,R2
    245              GUIUpdateKey *FieldPtr = FindDWidget(GUIId);
   \   00000014   ........           BL       ??FindDWidget
   \   00000018   0070B0E1           MOVS     R7,R0
    246              if ( FieldPtr ) {
   \   0000001C   2D00000A           BEQ      ??EDIT_InputValue_1
    247                  WM_HWIN hWidget = WM_GetDialogItem(WinHandl, GUIId);
   \   00000020   FA02D4E1           LDRSH    R0,[R4, #+42]
   \   00000024   0510A0E1           MOV      R1,R5
   \   00000028   ........           _BLF     WM_GetDialogItem,??WM_GetDialogItem??rA
    248                  if ( hWidget ) {
   \   0000002C   000050E3           CMP      R0,#+0
   \   00000030   2800000A           BEQ      ??EDIT_InputValue_1
    249                      WM_CALLBACK *pCb = WM_GetCallback(hWidget);
    250                      if ( pCb == EDIT_Callback ) {
   \   00000034   ........           _BLF     WM_GetCallback,??WM_GetCallback??rA
   \   00000038   ........           LDR      R1,??DataTable26  ;; EDIT_Callback
   \   0000003C   010050E1           CMP      R0,R1
   \   00000040   2400001A           BNE      ??EDIT_InputValue_1
    251                          if ( FieldPtr->Callback ) {
   \   00000044   1C0097E5           LDR      R0,[R7, #+28]
   \   00000048   0020A0E3           MOV      R2,#+0
   \   0000004C   000050E3           CMP      R0,#+0
   \   00000050   0010A0E3           MOV      R1,#+0
   \   00000054   0D00A0E1           MOV      R0,SP
   \   00000058   0B00000A           BEQ      ??EDIT_InputValue_2
    252                              FieldPtr->Callback(InputStr);
   \   0000005C   ........           _BLF     ??_Tidy,??_Tidy??rA
   \   00000060   ........           LDR      R0,??DataTable28  ;; ??npos
   \   00000064   0020A0E3           MOV      R2,#+0
   \   00000068   003090E5           LDR      R3,[R0, #+0]
   \   0000006C   0610A0E1           MOV      R1,R6
   \   00000070   0D00A0E1           MOV      R0,SP
   \   00000074   ........           _BLF     ??assign,??assign??rA
   \   00000078   1C1097E5           LDR      R1,[R7, #+28]
   \   0000007C   0D00A0E1           MOV      R0,SP
   \   00000080   0FE0A0E1           MOV      LR,PC
   \   00000084   11FF2FE1           BX       R1
   \   00000088   0B0000EA           B        ??EDIT_InputValue_3
    253                          } else {
    254                              LibPutValue(FieldPtr->ValueKey, FieldPtr->Obj, InputStr);
   \                     ??EDIT_InputValue_2:
   \   0000008C   ........           _BLF     ??_Tidy,??_Tidy??rA
   \   00000090   ........           LDR      R0,??DataTable28  ;; ??npos
   \   00000094   0020A0E3           MOV      R2,#+0
   \   00000098   003090E5           LDR      R3,[R0, #+0]
   \   0000009C   0610A0E1           MOV      R1,R6
   \   000000A0   0D00A0E1           MOV      R0,SP
   \   000000A4   ........           _BLF     ??assign,??assign??rA
   \   000000A8   081097E5           LDR      R1,[R7, #+8]
   \   000000AC   0C0097E5           LDR      R0,[R7, #+12]
   \   000000B0   0030A0E3           MOV      R3,#+0
   \   000000B4   0D20A0E1           MOV      R2,SP
   \   000000B8   ........           _BLF     ??LibPutValue,??LibPutValue??rA
   \                     ??EDIT_InputValue_3:
   \   000000BC   0020A0E3           MOV      R2,#+0
   \   000000C0   0110A0E3           MOV      R1,#+1
   \   000000C4   0D00A0E1           MOV      R0,SP
   \   000000C8   ........           _BLF     ??_Tidy,??_Tidy??rA
    255                          }
    256                          UpdateFields(true);
   \   000000CC   0110A0E3           MOV      R1,#+1
   \   000000D0   0400A0E1           MOV      R0,R4
   \   000000D4   ........           BL       ??UpdateFields
    257                      }
    258                  }
    259              }
    260          }
   \                     ??EDIT_InputValue_1:
   \   000000D8   1CD08DE2           ADD      SP,SP,#+28
   \   000000DC   F040BDE8           POP      {R4-R7,LR}
   \   000000E0   1EFF2FE1           BX       LR               ;; return
    261          
    262          

   \                                 In segment CODE, align 4, keep-with-next
    263          void TDUBasicWin::EDIT_ExecKeyboard(int GUIId) {
   \                     ??EDIT_ExecKeyboard:
   \   00000000   70402DE9           PUSH     {R4-R6,LR}
   \   00000004   0040A0E1           MOV      R4,R0
   \   00000008   0150A0E1           MOV      R5,R1
    264              GUIUpdateKey *FieldPtr = FindDWidget(GUIId);
   \   0000000C   ........           BL       ??FindDWidget
   \   00000010   0060B0E1           MOVS     R6,R0
    265              if ( FieldPtr ) {
   \   00000014   0700000A           BEQ      ??EDIT_ExecKeyboard_1
    266                  KeyBoard->ExecKeyBoardNum(WM_GetClientWindow(WinHandl), FieldPtr->InputMsgWord, GUIId);
   \   00000018   FA02D4E1           LDRSH    R0,[R4, #+42]
   \   0000001C   ........           _BLF     WM_GetClientWindow,??WM_GetClientWindow??rA
   \   00000020   182096E5           LDR      R2,[R6, #+24]
   \   00000024   0010A0E1           MOV      R1,R0
   \   00000028   10009FE5           LDR      R0,??EDIT_ExecKeyboard_2  ;; KeyBoard
   \   0000002C   0530A0E1           MOV      R3,R5
   \   00000030   000090E5           LDR      R0,[R0, #+0]
   \   00000034   ........           _BLF     ??ExecKeyBoardNum,??ExecKeyBoardNum??rA
    267              }
    268          }
   \                     ??EDIT_ExecKeyboard_1:
   \   00000038   7040BDE8           POP      {R4-R6,LR}
   \   0000003C   1EFF2FE1           BX       LR               ;; return
   \                     ??EDIT_ExecKeyboard_2:
   \   00000040   ........           DC32     KeyBoard
    269          

   \                                 In segment CODE, align 4, keep-with-next
    270          void TDUBasicWin::UpdateSFields(void) {
   \                     ??UpdateSFields:
   \   00000000   30402DE9           PUSH     {R4,R5,LR}
   \   00000004   0040A0E1           MOV      R4,R0
    271              for ( unsigned i = 0; i < NumberOfSWidgets; i++ ) {
   \   00000008   1C0094E5           LDR      R0,[R4, #+28]
   \   0000000C   0050A0E3           MOV      R5,#+0
   \   00000010   000050E3           CMP      R0,#+0
   \   00000014   0F00001A           BNE      ??UpdateSFields_1
   \   00000018   110000EA           B        ??UpdateSFields_2
    272                  SetText(SWidgetInfo[i]);
   \                     ??UpdateSFields_3:
   \   0000001C   101094E5           LDR      R1,[R4, #+16]
   \   00000020   0C00A0E3           MOV      R0,#+12
   \   00000024   901521E0           MLA      R1,R0,R5,R1
   \   00000028   0CD04DE2           SUB      SP,SP,#+12
   \   0000002C   000091E5           LDR      R0,[R1, #0]
   \   00000030   0D20A0E1           MOV      R2,SP
   \   00000034   000082E5           STR      R0,[R2, #+0]
   \   00000038   040091E5           LDR      R0,[R1, #+4]
    273              }
   \   0000003C   015085E2           ADD      R5,R5,#+1
   \   00000040   040082E5           STR      R0,[R2, #+4]
   \   00000044   080091E5           LDR      R0,[R1, #+8]
   \   00000048   080082E5           STR      R0,[R2, #+8]
   \   0000004C   0E00BDE8           POP      {R1-R3}
   \   00000050   0400A0E1           MOV      R0,R4
   \   00000054   ........           BL       ??SetText_2
   \                     ??UpdateSFields_1:
   \   00000058   1C0094E5           LDR      R0,[R4, #+28]
   \   0000005C   000055E1           CMP      R5,R0
   \   00000060   EDFFFF3A           BCC      ??UpdateSFields_3
    274          }
   \                     ??UpdateSFields_2:
   \   00000064   3040BDE8           POP      {R4,R5,LR}
   \   00000068   1EFF2FE1           BX       LR               ;; return
    275          

   \                                 In segment CODE, align 4, keep-with-next
    276          void TDUBasicWin::UpdateFields(bool Refresh) {
   \                     ??UpdateFields:
   \   00000000   70402DE9           PUSH     {R4-R6,LR}
   \   00000004   0040A0E1           MOV      R4,R0
    277              for ( unsigned i = 0; i < NumberOfDWidgets; i++ ) {
   \   00000008   180094E5           LDR      R0,[R4, #+24]
   \   0000000C   0150A0E1           MOV      R5,R1
   \   00000010   0060A0E3           MOV      R6,#+0
   \   00000014   000050E3           CMP      R0,#+0
   \   00000018   0E00001A           BNE      ??UpdateFields_1
   \   0000001C   100000EA           B        ??UpdateFields_2
    278                  UpdateValue(DWidgetInfo[i]);
   \                     ??UpdateFields_3:
   \   00000020   0C0094E5           LDR      R0,[R4, #+12]
   \   00000024   20D04DE2           SUB      SP,SP,#+32
   \   00000028   860280E0           ADD      R0,R0,R6, LSL #+5
   \   0000002C   0D20A0E1           MOV      R2,SP
   \   00000030   2030A0E3           MOV      R3,#+32
   \                     ??UpdateFields_4:
   \   00000034   043053E2           SUBS     R3,R3,#+4
   \   00000038   031090E7           LDR      R1,[R0, R3]
   \   0000003C   031082E7           STR      R1,[R2, R3]
   \   00000040   FBFFFF1A           BNE      ??UpdateFields_4
   \   00000044   0E00BDE8           POP      {R1-R3}
   \   00000048   0400A0E1           MOV      R0,R4
    279              }
   \   0000004C   016086E2           ADD      R6,R6,#+1
   \   00000050   ........           BL       ??UpdateValue
   \   00000054   14D08DE2           ADD      SP,SP,#+20
   \                     ??UpdateFields_1:
   \   00000058   180094E5           LDR      R0,[R4, #+24]
   \   0000005C   000056E1           CMP      R6,R0
   \   00000060   EEFFFF3A           BCC      ??UpdateFields_3
    280              if ( Refresh ) {
   \                     ??UpdateFields_2:
   \   00000064   000055E3           CMP      R5,#+0
   \   00000068   0100000A           BEQ      ??UpdateFields_5
    281                  UpdateSFields();
   \   0000006C   0400A0E1           MOV      R0,R4
   \   00000070   ........           BL       ??UpdateSFields
    282              }
    283          }
   \                     ??UpdateFields_5:
   \   00000074   7040BDE8           POP      {R4-R6,LR}
   \   00000078   1EFF2FE1           BX       LR               ;; return
    284          
    285          
    286          //---------------------------------------------------------------------------
    287          

   \                                 In segment CODE, align 4, keep-with-next
    288          int CompareSWidgetInfo(const void *KWEntry1, const void *KWEntry2) {
    289              int Key1 = ((GUIKey *)KWEntry1) ->GUIId;
   \                     ??CompareSWidgetInfo:
   \   00000000   002090E5           LDR      R2,[R0, #+0]
    290              int Key2 = ((GUIKey *)KWEntry2) ->GUIId;
   \   00000004   003091E5           LDR      R3,[R1, #+0]
    291              if ( Key1 == Key2 ) {
   \   00000008   030052E1           CMP      R2,R3
   \   0000000C   0300001A           BNE      ??CompareSWidgetInfo_1
    292                  int Index1 = ((GUIKey *)KWEntry1) ->GUIIndex;
    293                  int Index2 = ((GUIKey *)KWEntry2) ->GUIIndex;
    294                  return Index1 - Index2;
   \   00000010   040090E5           LDR      R0,[R0, #+4]
   \   00000014   041091E5           LDR      R1,[R1, #+4]
   \   00000018   010040E0           SUB      R0,R0,R1
   \   0000001C   1EFF2FE1           BX       LR
    295              } else {
    296                  return (Key1 - Key2);
   \                     ??CompareSWidgetInfo_1:
   \   00000020   030042E0           SUB      R0,R2,R3
   \   00000024   1EFF2FE1           BX       LR               ;; return
    297              }
    298          }
    299          //---------------------------------------------------------------------------
    300          
    301          

   \                                 In segment CODE, align 4, keep-with-next
    302          void TDUBasicWin::AddToSKeyList(int GUIId, int GUIIndex, int WordKey) {
   \                     ??AddToSKeyList:
   \   00000000   F0402DE9           PUSH     {R4-R7,LR}
   \   00000004   0CD04DE2           SUB      SP,SP,#+12
   \   00000008   0040A0E1           MOV      R4,R0
   \   0000000C   0150A0E1           MOV      R5,R1
   \   00000010   0260A0E1           MOV      R6,R2
   \   00000014   0370A0E1           MOV      R7,R3
    303              if ( !FindSWidget(GUIId, GUIIndex) ) {
   \   00000018   ........           BL       ??FindSWidget
   \   0000001C   000050E3           CMP      R0,#+0
   \   00000020   0D00001A           BNE      ??AddToSKeyList_3
    304                  GUIKey NewEntry = { GUIId, GUIIndex, WordKey };
   \   00000024   00508DE5           STR      R5,[SP, #+0]
   \   00000028   04608DE5           STR      R6,[SP, #+4]
   \   0000002C   08708DE5           STR      R7,[SP, #+8]
    305                  AddToSKeyList(NewEntry);
   \   00000030   0CD04DE2           SUB      SP,SP,#+12
   \   00000034   0D20A0E1           MOV      R2,SP
   \   00000038   0510A0E1           MOV      R1,R5
   \   0000003C   001082E5           STR      R1,[R2, #+0]
   \   00000040   0610A0E1           MOV      R1,R6
   \   00000044   041082E5           STR      R1,[R2, #+4]
   \   00000048   0710A0E1           MOV      R1,R7
   \   0000004C   081082E5           STR      R1,[R2, #+8]
   \   00000050   0E00BDE8           POP      {R1-R3}
   \   00000054   0400A0E1           MOV      R0,R4
   \   00000058   ........           BL       ??AddToSKeyList_1
    306              }
    307          }
   \                     ??AddToSKeyList_3:
   \   0000005C   F740BDE8           POP      {R0-R2,R4-R7,LR}
   \   00000060   1EFF2FE1           BX       LR               ;; return
    308          

   \                                 In segment CODE, align 4, keep-with-next
    309          void TDUBasicWin::AddToSKeyList(GUIKey NewEntry) {
   \                     ??AddToSKeyList_1:
   \   00000000   0E002DE9           PUSH     {R1-R3}
   \   00000004   10402DE9           PUSH     {R4,LR}
   \   00000008   0040A0E1           MOV      R4,R0
    310              if ( !FindSWidget(NewEntry.GUIId, NewEntry.GUIIndex) ) {
   \   0000000C   ........           BL       ??FindSWidget
   \   00000010   000050E3           CMP      R0,#+0
   \   00000014   1800001A           BNE      ??AddToSKeyList_4
    311                  if ( !SWidgetInfo ) {
   \   00000018   100094E5           LDR      R0,[R4, #+16]
   \   0000001C   000050E3           CMP      R0,#+0
   \   00000020   0200001A           BNE      ??AddToSKeyList_5
    312                      SWidgetInfo = (GUIKey *)malloc(sizeof(GUIKey));
   \   00000024   0C00A0E3           MOV      R0,#+12
   \   00000028   ........           _BLF     __data_malloc,??__data_malloc??rA
   \   0000002C   040000EA           B        ??AddToSKeyList_6
    313                  } else {
    314                      SWidgetInfo = (GUIKey *)realloc(SWidgetInfo, (NumberOfSWidgets + 1) * sizeof(GUIKey));
   \                     ??AddToSKeyList_5:
   \   00000030   1C1094E5           LDR      R1,[R4, #+28]
   \   00000034   0C20A0E3           MOV      R2,#+12
   \   00000038   011081E2           ADD      R1,R1,#+1
   \   0000003C   920101E0           MUL      R1,R2,R1
   \   00000040   ........           _BLF     __data_realloc,??__data_realloc??rA
   \                     ??AddToSKeyList_6:
   \   00000044   100084E5           STR      R0,[R4, #+16]
    315                  }
    316                  SWidgetInfo[NumberOfSWidgets++] = NewEntry;
   \   00000048   1C1094E5           LDR      R1,[R4, #+28]
   \   0000004C   012081E2           ADD      R2,R1,#+1
   \   00000050   1C2084E5           STR      R2,[R4, #+28]
   \   00000054   0C20A0E3           MOV      R2,#+12
   \   00000058   920120E0           MLA      R0,R2,R1,R0
   \   0000005C   08108DE2           ADD      R1,SP,#+8
   \   00000060   0C1091E8           LDM      R1,{R2,R3,R12}
   \   00000064   0C1080E8           STM      R0,{R2,R3,R12}
    317                  qsort((void *)SWidgetInfo, NumberOfSWidgets, sizeof(GUIKey), CompareSWidgetInfo);
   \   00000068   ........           LDR      R3,??DataTable31  ;; ??CompareSWidgetInfo
   \   0000006C   1C1094E5           LDR      R1,[R4, #+28]
   \   00000070   100094E5           LDR      R0,[R4, #+16]
   \   00000074   0C20A0E3           MOV      R2,#+12
   \   00000078   ........           _BLF     qsort,??qsort??rA
    318              }
    319          }
   \                     ??AddToSKeyList_4:
   \   0000007C   1040BDE8           POP      {R4,LR}
   \   00000080   0CD08DE2           ADD      SP,SP,#+12
   \   00000084   1EFF2FE1           BX       LR               ;; return
    320          

   \                                 In segment CODE, align 4, keep-with-next
    321          void TDUBasicWin::AddToSKeyList(GUIKey *NewEntry, int Entries, bool CheckIfUnique) {
   \                     ??AddToSKeyList_2:
   \   00000000   F0402DE9           PUSH     {R4-R7,LR}
   \   00000004   0040A0E1           MOV      R4,R0
   \   00000008   0150A0E1           MOV      R5,R1
   \   0000000C   0260A0E1           MOV      R6,R2
    322              if ( CheckIfUnique ) {
   \   00000010   000053E3           CMP      R3,#+0
   \   00000014   1300000A           BEQ      ??AddToSKeyList_7
    323                  for ( int i = 0; i < Entries; i++ ) {
   \   00000018   0070A0E3           MOV      R7,#+0
   \   0000001C   010056E3           CMP      R6,#+1
   \   00000020   2B0000BA           BLT      ??AddToSKeyList_8
   \                     ??AddToSKeyList_9:
   \   00000024   060057E1           CMP      R7,R6
   \   00000028   290000AA           BGE      ??AddToSKeyList_8
    324                      AddToSKeyList(NewEntry[i]);
   \   0000002C   0C00A0E3           MOV      R0,#+12
   \   00000030   905721E0           MLA      R1,R0,R7,R5
   \   00000034   0CD04DE2           SUB      SP,SP,#+12
   \   00000038   000091E5           LDR      R0,[R1, #0]
   \   0000003C   0D20A0E1           MOV      R2,SP
   \   00000040   000082E5           STR      R0,[R2, #+0]
   \   00000044   040091E5           LDR      R0,[R1, #+4]
    325                  }
   \   00000048   017087E2           ADD      R7,R7,#+1
   \   0000004C   040082E5           STR      R0,[R2, #+4]
   \   00000050   080091E5           LDR      R0,[R1, #+8]
   \   00000054   080082E5           STR      R0,[R2, #+8]
   \   00000058   0E00BDE8           POP      {R1-R3}
   \   0000005C   0400A0E1           MOV      R0,R4
   \   00000060   ........           BL       ??AddToSKeyList_1
   \   00000064   EEFFFFEA           B        ??AddToSKeyList_9
    326              } else {
    327                  size_t NewMemSize = (NumberOfSWidgets + Entries) * sizeof(GUIKey);
    328                  if ( !SWidgetInfo ) {
   \                     ??AddToSKeyList_7:
   \   00000068   100094E5           LDR      R0,[R4, #+16]
   \   0000006C   000050E3           CMP      R0,#+0
   \   00000070   0300001A           BNE      ??AddToSKeyList_10
    329                      SWidgetInfo = (GUIKey *)calloc(Entries, sizeof(GUIKey));
   \   00000074   0C10A0E3           MOV      R1,#+12
   \   00000078   0600A0E1           MOV      R0,R6
   \   0000007C   ........           _BLF     __data_calloc,??__data_calloc??rA
   \   00000080   040000EA           B        ??AddToSKeyList_11
    330                  } else {
    331                      SWidgetInfo = (GUIKey *)realloc(SWidgetInfo, NewMemSize);
   \                     ??AddToSKeyList_10:
   \   00000084   1C1094E5           LDR      R1,[R4, #+28]
   \   00000088   0C20A0E3           MOV      R2,#+12
   \   0000008C   011086E0           ADD      R1,R6,R1
   \   00000090   920101E0           MUL      R1,R2,R1
   \   00000094   ........           _BLF     __data_realloc,??__data_realloc??rA
   \                     ??AddToSKeyList_11:
   \   00000098   100084E5           STR      R0,[R4, #+16]
    332                  }
    333                  memcpy(&SWidgetInfo[NumberOfSWidgets], NewEntry, Entries * sizeof(GUIKey));
   \   0000009C   1C3094E5           LDR      R3,[R4, #+28]
   \   000000A0   0C10A0E3           MOV      R1,#+12
   \   000000A4   910602E0           MUL      R2,R1,R6
   \   000000A8   0510A0E1           MOV      R1,R5
   \   000000AC   0C50A0E3           MOV      R5,#+12
   \   000000B0   950320E0           MLA      R0,R5,R3,R0
   \   000000B4   ........           _BLF     memcpy,??memcpy??rA
    334                  NumberOfSWidgets += Entries;
   \   000000B8   1C0094E5           LDR      R0,[R4, #+28]
    335                  qsort((void *)SWidgetInfo, NumberOfSWidgets, sizeof(GUIKey), CompareSWidgetInfo);
   \   000000BC   ........           LDR      R3,??DataTable31  ;; ??CompareSWidgetInfo
   \   000000C0   001086E0           ADD      R1,R6,R0
   \   000000C4   1C1084E5           STR      R1,[R4, #+28]
   \   000000C8   100094E5           LDR      R0,[R4, #+16]
   \   000000CC   0C20A0E3           MOV      R2,#+12
   \   000000D0   ........           _BLF     qsort,??qsort??rA
    336              }
    337          }
   \                     ??AddToSKeyList_8:
   \   000000D4   F040BDE8           POP      {R4-R7,LR}
   \   000000D8   1EFF2FE1           BX       LR               ;; return
    338          

   \                                 In segment CODE, align 4, keep-with-next
    339          void TDUBasicWin::AddToDropDownsList(int GUIId, int *WordKeyTab, int Entries) {
   \                     ??AddToDropDownsList:
   \   00000000   F0432DE9           PUSH     {R4-R9,LR}
   \   00000004   0040A0E1           MOV      R4,R0
    340              size_t NewMemSize = (NumberOfDropDowns + Entries) * sizeof(DropDownInfo);
    341              if ( !DropDowns ) {
   \   00000008   140094E5           LDR      R0,[R4, #+20]
   \   0000000C   0160A0E1           MOV      R6,R1
   \   00000010   0270A0E1           MOV      R7,R2
   \   00000014   0350A0E1           MOV      R5,R3
   \   00000018   000050E3           CMP      R0,#+0
   \   0000001C   0300001A           BNE      ??AddToDropDownsList_1
    342                  DropDowns = (DropDownInfo *)calloc(Entries, sizeof(DropDownInfo));
   \   00000020   0C10A0E3           MOV      R1,#+12
   \   00000024   0500A0E1           MOV      R0,R5
   \   00000028   ........           _BLF     __data_calloc,??__data_calloc??rA
   \   0000002C   040000EA           B        ??AddToDropDownsList_2
    343              } else {
    344                  DropDowns = (DropDownInfo *)realloc(DropDowns, NewMemSize);
   \                     ??AddToDropDownsList_1:
   \   00000030   201094E5           LDR      R1,[R4, #+32]
   \   00000034   0C20A0E3           MOV      R2,#+12
   \   00000038   011085E0           ADD      R1,R5,R1
   \   0000003C   920101E0           MUL      R1,R2,R1
   \   00000040   ........           _BLF     __data_realloc,??__data_realloc??rA
   \                     ??AddToDropDownsList_2:
   \   00000044   140084E5           STR      R0,[R4, #+20]
    345              }
    346          
    347              int *WKey = new int[Entries];
   \   00000048   0591A0E1           LSL      R9,R5,#+2
   \   0000004C   0900A0E1           MOV      R0,R9
   \   00000050   ........           _BLF     `??operator new[]`,`??operator new[]??rA`
   \   00000054   0080A0E1           MOV      R8,R0
    348              memcpy(WKey, WordKeyTab, Entries * sizeof(int));
   \   00000058   0920A0E1           MOV      R2,R9
   \   0000005C   0710A0E1           MOV      R1,R7
   \   00000060   ........           _BLF     memcpy,??memcpy??rA
    349              DropDowns[NumberOfDropDowns].DropdownId     = GUIId;
   \   00000064   140094E5           LDR      R0,[R4, #+20]
   \   00000068   201094E5           LDR      R1,[R4, #+32]
   \   0000006C   0C20A0E3           MOV      R2,#+12
   \   00000070   920121E0           MLA      R1,R2,R1,R0
   \   00000074   006081E5           STR      R6,[R1, #+0]
   \   00000078   201094E5           LDR      R1,[R4, #+32]
   \   0000007C   920120E0           MLA      R0,R2,R1,R0
   \   00000080   048080E5           STR      R8,[R0, #+4]
    350              DropDowns[NumberOfDropDowns].WordKeys       = WKey;
    351              DropDowns[NumberOfDropDowns].NumberOfWords  = Entries;
   \   00000084   085080E5           STR      R5,[R0, #+8]
    352              NumberOfDropDowns++;
   \   00000088   200094E5           LDR      R0,[R4, #+32]
   \   0000008C   010080E2           ADD      R0,R0,#+1
   \   00000090   200084E5           STR      R0,[R4, #+32]
    353          }
   \   00000094   F043BDE8           POP      {R4-R9,LR}
   \   00000098   1EFF2FE1           BX       LR               ;; return
    354          

   \                                 In segment CODE, align 4, keep-with-next
    355          GUIKey* TDUBasicWin::FindSWidget(int GUIId, int GUIIndex) {
   \                     ??FindSWidget:
   \   00000000   00402DE9           PUSH     {LR}
   \   00000004   0CD04DE2           SUB      SP,SP,#+12
    356              GUIKey tmpWidgetInfo;
    357              tmpWidgetInfo.GUIId   = GUIId;
   \   00000008   00108DE5           STR      R1,[SP, #+0]
    358              tmpWidgetInfo.GUIIndex = GUIIndex;
    359          #ifdef ANTDUSIM
    360              GUIKey *KeyWidgetInfo = (GUIKey *)lfind((void *)&tmpWidgetInfo, (void *)SWidgetInfo, &NumberOfSWidgets, sizeof(GUIKey), CompareSWidgetInfo);
    361          #else
    362              GUIKey *KeyWidgetInfo = (GUIKey *)bsearch((void *)&tmpWidgetInfo, (void *)SWidgetInfo, NumberOfSWidgets, sizeof(GUIKey), CompareSWidgetInfo);
   \   0000000C   ........           LDR      R1,??DataTable31  ;; ??CompareSWidgetInfo
   \   00000010   04208DE5           STR      R2,[SP, #+4]
   \   00000014   02002DE9           PUSH     {R1}
   \   00000018   1C2090E5           LDR      R2,[R0, #+28]
   \   0000001C   101090E5           LDR      R1,[R0, #+16]
   \   00000020   0C30A0E3           MOV      R3,#+12
   \   00000024   04008DE2           ADD      R0,SP,#+4
   \   00000028   ........           _BLF     bsearch,??bsearch??rA
    363          #endif
    364              return KeyWidgetInfo;
   \   0000002C   10D08DE2           ADD      SP,SP,#+16
   \   00000030   0040BDE8           POP      {LR}
   \   00000034   1EFF2FE1           BX       LR               ;; return
    365          }
    366          

   \                                 In segment CODE, align 4, keep-with-next
    367          void TDUBasicWin::ChangeSWord(int GUIId, int GUIIndex, int WordKey, bool UpdateNow) {
   \                     ??ChangeSWord:
   \   00000000   70402DE9           PUSH     {R4-R6,LR}
   \   00000004   1060DDE5           LDRB     R6,[SP, #+16]
   \   00000008   0040A0E1           MOV      R4,R0
   \   0000000C   0350A0E1           MOV      R5,R3
    368              GUIKey *KeyWidgetInfo = FindSWidget(GUIId, GUIIndex);
   \   00000010   ........           BL       ??FindSWidget
    369              if ( KeyWidgetInfo ) {
   \   00000014   000050E3           CMP      R0,#+0
   \   00000018   1000000A           BEQ      ??ChangeSWord_1
    370                  KeyWidgetInfo->WordKey = WordKey;
   \   0000001C   085080E5           STR      R5,[R0, #+8]
    371                  if ( UpdateNow ) {
   \   00000020   000056E3           CMP      R6,#+0
   \   00000024   0200000A           BEQ      ??ChangeSWord_2
    372                      UpdateSFields();
   \   00000028   0400A0E1           MOV      R0,R4
   \   0000002C   ........           BL       ??UpdateSFields
   \   00000030   0A0000EA           B        ??ChangeSWord_1
    373                  } else {
    374                      SetText(*KeyWidgetInfo);
   \                     ??ChangeSWord_2:
   \   00000034   0CD04DE2           SUB      SP,SP,#+12
   \   00000038   001090E5           LDR      R1,[R0, #0]
   \   0000003C   0D20A0E1           MOV      R2,SP
   \   00000040   001082E5           STR      R1,[R2, #+0]
   \   00000044   041090E5           LDR      R1,[R0, #+4]
   \   00000048   041082E5           STR      R1,[R2, #+4]
   \   0000004C   081090E5           LDR      R1,[R0, #+8]
   \   00000050   0400A0E1           MOV      R0,R4
   \   00000054   081082E5           STR      R1,[R2, #+8]
   \   00000058   0E00BDE8           POP      {R1-R3}
   \   0000005C   ........           BL       ??SetText_2
    375                  }
    376              }
    377          
    378          }
   \                     ??ChangeSWord_1:
   \   00000060   7040BDE8           POP      {R4-R6,LR}
   \   00000064   1EFF2FE1           BX       LR               ;; return
    379          

   \                                 In segment CODE, align 4, keep-with-next
    380          void TDUBasicWin::InitDropDowns(WM_HWIN DropDown, int WordKeys[], int NumberOfWords) {
   \                     ??InitDropDowns:
   \   00000000   F0402DE9           PUSH     {R4-R7,LR}
   \   00000004   1CD04DE2           SUB      SP,SP,#+28
   \   00000008   0140A0E1           MOV      R4,R1
   \   0000000C   0250A0E1           MOV      R5,R2
   \   00000010   0360A0E1           MOV      R6,R3
   \   00000014   020000EA           B        ??InitDropDowns_1
    381              while ( DROPDOWN_GetNumItems(DropDown) ) {
    382                  DROPDOWN_DeleteItem(DropDown, 0);
   \                     ??InitDropDowns_2:
   \   00000018   0010A0E3           MOV      R1,#+0
   \   0000001C   0400A0E1           MOV      R0,R4
   \   00000020   ........           _BLF     DROPDOWN_DeleteItem,??DROPDOWN_DeleteItem??rA
    383              }
   \                     ??InitDropDowns_1:
   \   00000024   0400A0E1           MOV      R0,R4
   \   00000028   ........           _BLF     DROPDOWN_GetNumItems,??DROPDOWN_GetNumItems??rA
   \   0000002C   000050E3           CMP      R0,#+0
   \   00000030   F8FFFF1A           BNE      ??InitDropDowns_2
    384              for ( int i = 0; i < NumberOfWords; i++ ) {
   \   00000034   0070A0E3           MOV      R7,#+0
   \   00000038   010056E3           CMP      R6,#+1
   \   0000003C   090000AA           BGE      ??InitDropDowns_3
    385                  DROPDOWN_AddString(DropDown, FindDictionaryWord(WordKeys[i]).c_str());
    386              }
    387          }
   \                     ??InitDropDowns_4:
   \   00000040   1CD08DE2           ADD      SP,SP,#+28
   \   00000044   F040BDE8           POP      {R4-R7,LR}
   \   00000048   1EFF2FE1           BX       LR               ;; return
   \                     ??InitDropDowns_5:
   \   0000004C   0400A0E1           MOV      R0,R4
   \   00000050   ........           _BLF     DROPDOWN_AddString,??DROPDOWN_AddString??rA
   \   00000054   0020A0E3           MOV      R2,#+0
   \   00000058   0110A0E3           MOV      R1,#+1
   \   0000005C   0D00A0E1           MOV      R0,SP
   \   00000060   ........           _BLF     ??_Tidy,??_Tidy??rA
   \   00000064   017087E2           ADD      R7,R7,#+1
   \                     ??InitDropDowns_3:
   \   00000068   060057E1           CMP      R7,R6
   \   0000006C   F3FFFFAA           BGE      ??InitDropDowns_4
   \   00000070   071195E7           LDR      R1,[R5, +R7, LSL #+2]
   \   00000074   0D00A0E1           MOV      R0,SP
   \   00000078   ........           _BLF     ??FindDictionaryWord,??FindDictionaryWord??rA
   \   0000007C   18009DE5           LDR      R0,[SP, #+24]
   \   00000080   100050E3           CMP      R0,#+16
   \   00000084   04109D25           LDRCS    R1,[SP, #+4]
   \   00000088   04108D32           ADDCC    R1,SP,#+4
   \   0000008C   EEFFFFEA           B        ??InitDropDowns_5
    388          

   \                                 In segment CODE, align 4, keep-with-next
    389          void TDUBasicWin::UpdateDropDowns(void) {
   \                     ??UpdateDropDowns:
   \   00000000   F0432DE9           PUSH     {R4-R9,LR}
   \   00000004   1CD04DE2           SUB      SP,SP,#+28
   \   00000008   0040A0E1           MOV      R4,R0
    390              if ( DropDowns ) {
   \   0000000C   140094E5           LDR      R0,[R4, #+20]
   \   00000010   000050E3           CMP      R0,#+0
   \   00000014   0300000A           BEQ      ??UpdateDropDowns_1
    391                  for ( unsigned i = 0; i < NumberOfDropDowns; i++ ) {
   \   00000018   200094E5           LDR      R0,[R4, #+32]
   \   0000001C   0050A0E3           MOV      R5,#+0
   \   00000020   000050E3           CMP      R0,#+0
   \   00000024   0D00001A           BNE      ??UpdateDropDowns_2
    392                      const DropDownInfo DDPtr = DropDowns[i];
    393                      WM_HWIN hWidget = WM_GetDialogItem(WinHandl, DDPtr.DropdownId);
    394                      while ( DROPDOWN_GetNumItems(hWidget) ) {
    395                          DROPDOWN_DeleteItem(hWidget, 0);
    396                      }
    397                      for ( int j = 0; j < DDPtr.NumberOfWords; j++ ) {
    398                          DROPDOWN_AddString(hWidget, FindDictionaryWord(DDPtr.WordKeys[j]).c_str());
    399                      }
    400                  }
    401              }
    402          }
   \                     ??UpdateDropDowns_1:
   \   00000028   1CD08DE2           ADD      SP,SP,#+28
   \   0000002C   F043BDE8           POP      {R4-R9,LR}
   \   00000030   1EFF2FE1           BX       LR               ;; return
   \                     ??UpdateDropDowns_3:
   \   00000034   0010A0E3           MOV      R1,#+0
   \   00000038   0800A0E1           MOV      R0,R8
   \   0000003C   ........           _BLF     DROPDOWN_DeleteItem,??DROPDOWN_DeleteItem??rA
   \                     ??UpdateDropDowns_4:
   \   00000040   0800A0E1           MOV      R0,R8
   \   00000044   ........           _BLF     DROPDOWN_GetNumItems,??DROPDOWN_GetNumItems??rA
   \   00000048   000050E3           CMP      R0,#+0
   \   0000004C   F8FFFF1A           BNE      ??UpdateDropDowns_3
   \   00000050   0090A0E3           MOV      R9,#+0
   \   00000054   010057E3           CMP      R7,#+1
   \   00000058   140000AA           BGE      ??UpdateDropDowns_5
   \                     ??UpdateDropDowns_6:
   \   0000005C   015085E2           ADD      R5,R5,#+1
   \                     ??UpdateDropDowns_2:
   \   00000060   200094E5           LDR      R0,[R4, #+32]
   \   00000064   000055E1           CMP      R5,R0
   \   00000068   EEFFFF2A           BCS      ??UpdateDropDowns_1
   \   0000006C   140094E5           LDR      R0,[R4, #+20]
   \   00000070   0C10A0E3           MOV      R1,#+12
   \   00000074   910520E0           MLA      R0,R1,R5,R0
   \   00000078   046090E5           LDR      R6,[R0, #+4]
   \   0000007C   087090E5           LDR      R7,[R0, #+8]
   \   00000080   001090E5           LDR      R1,[R0, #+0]
   \   00000084   FA02D4E1           LDRSH    R0,[R4, #+42]
   \   00000088   ........           _BLF     WM_GetDialogItem,??WM_GetDialogItem??rA
   \   0000008C   0080A0E1           MOV      R8,R0
   \   00000090   EAFFFFEA           B        ??UpdateDropDowns_4
   \                     ??UpdateDropDowns_7:
   \   00000094   0800A0E1           MOV      R0,R8
   \   00000098   ........           _BLF     DROPDOWN_AddString,??DROPDOWN_AddString??rA
   \   0000009C   0020A0E3           MOV      R2,#+0
   \   000000A0   0110A0E3           MOV      R1,#+1
   \   000000A4   0D00A0E1           MOV      R0,SP
   \   000000A8   ........           _BLF     ??_Tidy,??_Tidy??rA
   \   000000AC   019089E2           ADD      R9,R9,#+1
   \                     ??UpdateDropDowns_5:
   \   000000B0   070059E1           CMP      R9,R7
   \   000000B4   E8FFFFAA           BGE      ??UpdateDropDowns_6
   \   000000B8   091196E7           LDR      R1,[R6, +R9, LSL #+2]
   \   000000BC   0D00A0E1           MOV      R0,SP
   \   000000C0   ........           _BLF     ??FindDictionaryWord,??FindDictionaryWord??rA
   \   000000C4   18009DE5           LDR      R0,[SP, #+24]
   \   000000C8   100050E3           CMP      R0,#+16
   \   000000CC   04109D25           LDRCS    R1,[SP, #+4]
   \   000000D0   04108D32           ADDCC    R1,SP,#+4
   \   000000D4   EEFFFFEA           B        ??UpdateDropDowns_7
    403          

   \                                 In segment CODE, align 4, keep-with-next
    404          void TDUBasicWin::SetSelected(int GUIId, int Index) {
   \                     ??SetSelected:
   \   00000000   10402DE9           PUSH     {R4,LR}
    405              WM_HWIN hWidget = WM_GetDialogItem(WinHandl, GUIId);
   \   00000004   FA02D0E1           LDRSH    R0,[R0, #+42]
   \   00000008   0240A0E1           MOV      R4,R2
   \   0000000C   ........           _BLF     WM_GetDialogItem,??WM_GetDialogItem??rA
    406              if ( hWidget ) {
   \   00000010   000050E3           CMP      R0,#+0
   \   00000014   0100000A           BEQ      ??SetSelected_1
    407                  DROPDOWN_SetSel(hWidget, Index);
   \   00000018   0410A0E1           MOV      R1,R4
   \   0000001C   ........           _BLF     DROPDOWN_SetSel,??DROPDOWN_SetSel??rA
    408              }
    409          }
   \                     ??SetSelected_1:
   \   00000020   1040BDE8           POP      {R4,LR}
   \   00000024   1EFF2FE1           BX       LR               ;; return

   \                                 In segment CODE, align 4, keep-with-next
    410          void TDUBasicWin::GetSelected(int GUIId, int ValKey, PRogramObjectBase *ObjPtr) {
   \                     ??GetSelected:
   \   00000000   70402DE9           PUSH     {R4-R6,LR}
   \   00000004   1CD04DE2           SUB      SP,SP,#+28
    411              WM_HWIN hWidget = WM_GetDialogItem(WinHandl, GUIId);
   \   00000008   FA02D0E1           LDRSH    R0,[R0, #+42]
   \   0000000C   0240A0E1           MOV      R4,R2
   \   00000010   0350A0E1           MOV      R5,R3
   \   00000014   ........           _BLF     WM_GetDialogItem,??WM_GetDialogItem??rA
   \   00000018   0060B0E1           MOVS     R6,R0
    412              if ( hWidget ) {
   \   0000001C   1100000A           BEQ      ??GetSelected_1
    413                  WM_CALLBACK *pCb = WM_GetCallback(hWidget);
    414                  if ( pCb == DROPDOWN_Callback ) {
   \   00000020   ........           _BLF     WM_GetCallback,??WM_GetCallback??rA
   \   00000024   48109FE5           LDR      R1,??GetSelected_2  ;; DROPDOWN_Callback
   \   00000028   010050E1           CMP      R0,R1
   \   0000002C   0D00001A           BNE      ??GetSelected_1
    415                      int Selected = DROPDOWN_GetSel(hWidget);
   \   00000030   0600A0E1           MOV      R0,R6
   \   00000034   ........           _BLF     DROPDOWN_GetSel,??DROPDOWN_GetSel??rA
    416                      LibPutValue(ValKey, ObjPtr, (AnsiString)Selected);
   \   00000038   0010A0E1           MOV      R1,R0
   \   0000003C   0D00A0E1           MOV      R0,SP
   \   00000040   ........           _BLF     ??AnsiString_2,??AnsiString??rA_2
   \   00000044   0020A0E1           MOV      R2,R0
   \   00000048   0030A0E3           MOV      R3,#+0
   \   0000004C   0510A0E1           MOV      R1,R5
   \   00000050   0400A0E1           MOV      R0,R4
   \   00000054   ........           _BLF     ??LibPutValue,??LibPutValue??rA
   \   00000058   0020A0E3           MOV      R2,#+0
   \   0000005C   0110A0E3           MOV      R1,#+1
   \   00000060   0D00A0E1           MOV      R0,SP
   \   00000064   ........           _BLF     ??_Tidy,??_Tidy??rA
    417                      // UpdateFields(true);
    418                  }
    419              }
    420          }
   \                     ??GetSelected_1:
   \   00000068   1CD08DE2           ADD      SP,SP,#+28
   \   0000006C   7040BDE8           POP      {R4-R6,LR}
   \   00000070   1EFF2FE1           BX       LR               ;; return
   \                     ??GetSelected_2:
   \   00000074   ........           DC32     DROPDOWN_Callback
    421          
    422          

   \                                 In segment CODE, align 4, keep-with-next
    423          void TDUBasicWin::UpdateLanguage(void) {
   \                     ??UpdateLanguage:
   \   00000000   10402DE9           PUSH     {R4,LR}
   \   00000004   0040A0E1           MOV      R4,R0
    424              if ( FirstTime || CurrentLanguage != PROSystemData::CurrentLanguage ) {
   \   00000008   ........           LDR      R0,??DataTable32  ;; ??CurrentLanguage
   \   0000000C   000090E5           LDR      R0,[R0, #+0]
   \   00000010   2810D4E5           LDRB     R1,[R4, #+40]
   \   00000014   000051E3           CMP      R1,#+0
   \   00000018   24109405           LDREQ    R1,[R4, #+36]
   \   0000001C   00005101           CMPEQ    R1,R0
   \   00000020   0600000A           BEQ      ??UpdateLanguage_1
    425                  FirstTime = false;
   \   00000024   0010A0E3           MOV      R1,#+0
   \   00000028   2810C4E5           STRB     R1,[R4, #+40]
    426                  CurrentLanguage = PROSystemData::CurrentLanguage;
   \   0000002C   240084E5           STR      R0,[R4, #+36]
    427                  UpdateDropDowns();
   \   00000030   0400A0E1           MOV      R0,R4
   \   00000034   ........           BL       ??UpdateDropDowns
    428                  UpdateSFields();
   \   00000038   0400A0E1           MOV      R0,R4
   \   0000003C   ........           BL       ??UpdateSFields
    429              }
    430          }
   \                     ??UpdateLanguage_1:
   \   00000040   1040BDE8           POP      {R4,LR}
   \   00000044   1EFF2FE1           BX       LR               ;; return
    431          

   \                                 In segment CODE, align 4, keep-with-next
    432          void TDUBasicWin::Repaint(void) {
    433              switch ( CurrentDeviceId ) {
   \                     ??Repaint:
   \   00000000   ........           LDR      R1,??DataTable35  ;; CurrentDeviceId
   \   00000004   10402DE9           PUSH     {R4,LR}
   \   00000008   0CD04DE2           SUB      SP,SP,#+12
   \   0000000C   F010D1E1           LDRSH    R1,[R1, #+0]
   \   00000010   300051E3           CMP      R1,#+48
   \   00000014   0500001A           BNE      ??Repaint_1
    434              case DEVICE_TDU:
    435                  {
    436                      WM_MESSAGE pMsg = { WM_PAINT, 0, 0 };
   \   00000018   18209FE5           LDR      R2,??Repaint_2   ;; `?<Constant {15, 0, 0}>`
   \   0000001C   0D10A0E1           MOV      R1,SP
   \   00000020   181092E8           LDM      R2,{R3,R4,R12}
   \   00000024   181081E8           STM      R1,{R3,R4,R12}
    437                      WM_SendMessage(WinHandl, &pMsg);
   \   00000028   FA02D0E1           LDRSH    R0,[R0, #+42]
   \   0000002C   ........           _BLF     WM_SendMessage,??WM_SendMessage??rA
    438                  }
    439                  break;
    440              case DEVICE_TCU:
    441                  break;
    442              }
    443          }
   \                     ??Repaint_1:
   \   00000030   1740BDE8           POP      {R0-R2,R4,LR}
   \   00000034   1EFF2FE1           BX       LR               ;; return
   \                     ??Repaint_2:
   \   00000038   ........           DC32     `?<Constant {15, 0, 0}>`
    444          
    445          

   \                                 In segment CODE, align 4, keep-with-next
    446          void TDUBasicWin::RepaintAll(void) {
    447              switch ( CurrentDeviceId ) {
   \                     ??RepaintAll:
   \   00000000   ........           LDR      R0,??DataTable35  ;; CurrentDeviceId
   \   00000004   00402DE9           PUSH     {LR}
   \   00000008   0CD04DE2           SUB      SP,SP,#+12
   \   0000000C   F000D0E1           LDRSH    R0,[R0, #+0]
   \   00000010   300050E3           CMP      R0,#+48
   \   00000014   0400001A           BNE      ??RepaintAll_1
    448              case DEVICE_TDU:
    449                  {
    450                      WM_MESSAGE pMsg = { WM_PAINT, 0, 0 };
   \   00000018   14109FE5           LDR      R1,??RepaintAll_2  ;; `?<Constant {15, 0, 0}>_1`
   \   0000001C   0D00A0E1           MOV      R0,SP
   \   00000020   0C1091E8           LDM      R1,{R2,R3,R12}
   \   00000024   0C1080E8           STM      R0,{R2,R3,R12}
    451                      WM_BroadcastMessage(&pMsg);
   \   00000028   ........           _BLF     WM_BroadcastMessage,??WM_BroadcastMessage??rA
    452                  }
    453                  break;
    454              case DEVICE_TCU:
    455                  break;
    456              }
    457          }
   \                     ??RepaintAll_1:
   \   0000002C   0740BDE8           POP      {R0-R2,LR}
   \   00000030   1EFF2FE1           BX       LR               ;; return
   \                     ??RepaintAll_2:
   \   00000034   ........           DC32     `?<Constant {15, 0, 0}>_1`
    458          

   \                                 In segment CODE, align 4, keep-with-next
    459          void TDUBasicWin::NewLanguage(void) {
    460              switch ( CurrentDeviceId ) {
   \                     ??NewLanguage:
   \   00000000   ........           LDR      R0,??DataTable35  ;; CurrentDeviceId
   \   00000004   00402DE9           PUSH     {LR}
   \   00000008   0CD04DE2           SUB      SP,SP,#+12
   \   0000000C   F000D0E1           LDRSH    R0,[R0, #+0]
   \   00000010   300050E3           CMP      R0,#+48
   \   00000014   0400001A           BNE      ??NewLanguage_1
    461              case DEVICE_TDU:
    462                  {
    463                      WM_MESSAGE pMsg = { MESSAGE_LANGUAGE_CHANGE, 0, 0 };
   \   00000018   14109FE5           LDR      R1,??NewLanguage_2  ;; `?<Constant {1025, 0, 0}>`
   \   0000001C   0D00A0E1           MOV      R0,SP
   \   00000020   0C1091E8           LDM      R1,{R2,R3,R12}
   \   00000024   0C1080E8           STM      R0,{R2,R3,R12}
    464                      WM_BroadcastMessage(&pMsg);
   \   00000028   ........           _BLF     WM_BroadcastMessage,??WM_BroadcastMessage??rA
    465                  }
    466                  break;
    467              case DEVICE_TCU:
    468                  break;
    469              }
    470          }
   \                     ??NewLanguage_1:
   \   0000002C   0740BDE8           POP      {R0-R2,LR}
   \   00000030   1EFF2FE1           BX       LR               ;; return
   \                     ??NewLanguage_2:
   \   00000034   ........           DC32     `?<Constant {1025, 0, 0}>`
    471          
    472          

   \                                 In segment CODE, align 4, keep-with-next
    473          void TDUBasicWin::AddToRWList(unsigned GUIId, PRogramObjectBase *Obj) {
   \                     ??AddToRWList:
   \   00000000   70402DE9           PUSH     {R4-R6,LR}
   \   00000004   0040A0E1           MOV      R4,R0
    474              WidgetKey tmpWidgetInfo = { WM_GetDialogItem(WinHandl, GUIId), Obj };
   \   00000008   FA02D4E1           LDRSH    R0,[R4, #+42]
   \   0000000C   0250A0E1           MOV      R5,R2
   \   00000010   ........           _BLF     WM_GetDialogItem,??WM_GetDialogItem??rA
   \   00000014   0060B0E1           MOVS     R6,R0
    475              if ( tmpWidgetInfo.Widget && tmpWidgetInfo.Obj ) {
   \   00000018   00005513           CMPNE    R5,#+0
   \   0000001C   1800000A           BEQ      ??AddToRWList_2
    476                  WidgetVector.push_back(tmpWidgetInfo);
   \   00000020   041094E5           LDR      R1,[R4, #+4]
   \   00000024   080094E5           LDR      R0,[R4, #+8]
   \   00000028   000051E1           CMP      R1,R0
   \   0000002C   0A00002A           BCS      ??AddToRWList_3
   \   00000030   0100A0E3           MOV      R0,#+1
   \   00000034   0120A0E1           MOV      R2,R1
   \                     ??AddToRWList_4:
   \   00000038   B060C2E1           STRH     R6,[R2, #+0]
   \   0000003C   045082E5           STR      R5,[R2, #+4]
   \   00000040   010040E2           SUB      R0,R0,#+1
   \   00000044   082082E2           ADD      R2,R2,#+8
   \   00000048   000050E3           CMP      R0,#+0
   \   0000004C   F9FFFF1A           BNE      ??AddToRWList_4
   \   00000050   080081E2           ADD      R0,R1,#+8
   \   00000054   040084E5           STR      R0,[R4, #+4]
   \   00000058   090000EA           B        ??AddToRWList_2
   \                     ??AddToRWList_3:
   \   0000005C   0120A0E3           MOV      R2,#+1
   \   00000060   0400A0E1           MOV      R0,R4
   \   00000064   ........           _BLF     ??_Make_room,??_Make_room??rA
   \   00000068   0110A0E3           MOV      R1,#+1
   \                     ??AddToRWList_5:
   \   0000006C   B060C0E1           STRH     R6,[R0, #+0]
   \   00000070   045080E5           STR      R5,[R0, #+4]
   \   00000074   011041E2           SUB      R1,R1,#+1
   \   00000078   080080E2           ADD      R0,R0,#+8
   \   0000007C   000051E3           CMP      R1,#+0
   \   00000080   F9FFFF1A           BNE      ??AddToRWList_5
    477              }
    478          }
   \                     ??AddToRWList_2:
   \   00000084   7040BDE8           POP      {R4-R6,LR}
   \   00000088   1EFF2FE1           BX       LR               ;; return

   \                                 In segment CODE, align 4, keep-with-next
    479          void TDUBasicWin::AddToRWList(unsigned *GUIIdList, int NumberOfIds, PRogramObjectBase *Obj) {
   \                     ??AddToRWList_1:
   \   00000000   F0412DE9           PUSH     {R4-R8,LR}
   \   00000004   0040A0E1           MOV      R4,R0
   \   00000008   0150A0E1           MOV      R5,R1
   \   0000000C   0260A0E1           MOV      R6,R2
   \   00000010   0370A0E1           MOV      R7,R3
    480              for ( int i = 0; i < NumberOfIds; i++ ) {
   \   00000014   0080A0E3           MOV      R8,#+0
   \   00000018   010056E3           CMP      R6,#+1
   \   0000001C   050000AA           BGE      ??AddToRWList_6
   \   00000020   060000EA           B        ??AddToRWList_7
    481                  AddToRWList(GUIIdList[i], Obj);
   \                     ??AddToRWList_8:
   \   00000024   081195E7           LDR      R1,[R5, +R8, LSL #+2]
   \   00000028   0720A0E1           MOV      R2,R7
   \   0000002C   0400A0E1           MOV      R0,R4
   \   00000030   ........           BL       ??AddToRWList
    482              }
   \   00000034   018088E2           ADD      R8,R8,#+1
   \                     ??AddToRWList_6:
   \   00000038   060058E1           CMP      R8,R6
   \   0000003C   F8FFFFBA           BLT      ??AddToRWList_8
    483              // WidgetSet.insert(GUIId,NumberOfGUIId);
    484          }
   \                     ??AddToRWList_7:
   \   00000040   F041BDE8           POP      {R4-R8,LR}
   \   00000044   1EFF2FE1           BX       LR               ;; return
    485          

   \                                 In segment CODE, align 4, keep-with-next
    486          void TDUBasicWin::ClearRWList(void) {
   \                     ??ClearRWList:
   \   00000000   10402DE9           PUSH     {R4,LR}
   \   00000004   0040A0E1           MOV      R4,R0
    487              WidgetVector.clear();
   \   00000008   000094E5           LDR      R0,[R4, #+0]
   \   0000000C   000050E3           CMP      R0,#+0
   \   00000010   0200000A           BEQ      ??ClearRWList_1
   \   00000014   040084E5           STR      R0,[R4, #+4]
   \   00000018   ........           _BLF     `??operator delete`,`??operator delete??rA`
   \   0000001C   0000A0E3           MOV      R0,#+0
   \                     ??ClearRWList_1:
   \   00000020   000084E5           STR      R0,[R4, #+0]
   \   00000024   040084E5           STR      R0,[R4, #+4]
   \   00000028   080084E5           STR      R0,[R4, #+8]
    488          }
   \   0000002C   1040BDE8           POP      {R4,LR}
   \   00000030   1EFF2FE1           BX       LR               ;; return
    489          

   \                                 In segment CODE, align 4, keep-with-next
    490          void TDUBasicWin::UpdateReadOnly(void) {
   \                     ??UpdateReadOnly:
   \   00000000   30402DE9           PUSH     {R4,R5,LR}
   \   00000004   0040A0E1           MOV      R4,R0
    491              for ( unsigned i = 0; i < WidgetVector.size(); i++ ) {
   \   00000008   0050A0E3           MOV      R5,#+0
   \   0000000C   010000EA           B        ??UpdateReadOnly_1
    492                  if ( WidgetVector[i].Obj->WritePermission() ) {
    493                      WM_EnableWindow(WidgetVector[i].Widget);
    494                  } else {
    495                      WM_DisableWindow(WidgetVector[i].Widget);
   \                     ??UpdateReadOnly_2:
   \   00000010   ........           _BLF     WM_DisableWindow,??WM_DisableWindow??rA
    496                  }
   \                     ??UpdateReadOnly_3:
   \   00000014   015085E2           ADD      R5,R5,#+1
   \                     ??UpdateReadOnly_1:
   \   00000018   000094E5           LDR      R0,[R4, #+0]
   \   0000001C   041094E5           LDR      R1,[R4, #+4]
   \   00000020   001041E0           SUB      R1,R1,R0
   \   00000024   A10155E1           CMP      R5,R1, LSR #+3
   \   00000028   0D00002A           BCS      ??UpdateReadOnly_4
   \   0000002C   850180E0           ADD      R0,R0,R5, LSL #+3
   \   00000030   040090E5           LDR      R0,[R0, #+4]
   \   00000034   0010A0E3           MOV      R1,#+0
   \   00000038   ........           _BLF     ??WritePermission,??WritePermission??rA
   \   0000003C   000050E3           CMP      R0,#+0
   \   00000040   000094E5           LDR      R0,[R4, #+0]
   \   00000044   0110A013           MOVNE    R1,#+1
   \   00000048   0010A003           MOVEQ    R1,#+0
   \   0000004C   850180E0           ADD      R0,R0,R5, LSL #+3
   \   00000050   F000D0E1           LDRSH    R0,[R0, #+0]
   \   00000054   000051E3           CMP      R1,#+0
   \   00000058   ECFFFF0A           BEQ      ??UpdateReadOnly_2
   \   0000005C   ........           _BLF     WM_EnableWindow,??WM_EnableWindow??rA
   \   00000060   EBFFFFEA           B        ??UpdateReadOnly_3
    497              }
    498          }
   \                     ??UpdateReadOnly_4:
   \   00000064   3040BDE8           POP      {R4,R5,LR}
   \   00000068   1EFF2FE1           BX       LR               ;; return
    499          

   \                                 In segment CODE, align 4, keep-with-next
    500          void TDUBasicWin::Protect(void) {
    501          #ifdef S2TXU
    502              //GUI_X_Lock();
    503              OS_Use(&WindowS);
   \                     ??Protect:
   \   00000000   ........           LDR      R0,??DataTable37  ;; ??GlobalIsInitiated + 4
   \   00000004   00402DE9           PUSH     {LR}
   \   00000008   ........           _BLF     OS_Use,??OS_Use??rA
    504          #endif
    505          }
   \   0000000C   0040BDE8           POP      {LR}
   \   00000010   1EFF2FE1           BX       LR               ;; return

   \                                 In segment CODE, align 4, keep-with-next
    506          void TDUBasicWin::UnProtect(void) {
    507          #ifdef S2TXU
    508              //GUI_X_Unlock();
    509              OS_Unuse(&WindowS);
   \                     ??UnProtect:
   \   00000000   ........           LDR      R0,??DataTable37  ;; ??GlobalIsInitiated + 4
   \   00000004   00402DE9           PUSH     {LR}
   \   00000008   ........           _BLF     OS_Unuse,??OS_Unuse??rA
    510          #endif
    511          }
   \   0000000C   0040BDE8           POP      {LR}
   \   00000010   1EFF2FE1           BX       LR               ;; return
    512          

   \                                 In segment CODE, align 4, keep-with-next
    513          void TDUBasicWin::Hide(unsigned GUIId) {
   \                     ??Hide:
   \   00000000   00402DE9           PUSH     {LR}
    514              WM_HWIN tmpWidget = WM_GetDialogItem(WinHandl, GUIId);
   \   00000004   FA02D0E1           LDRSH    R0,[R0, #+42]
   \   00000008   ........           _BLF     WM_GetDialogItem,??WM_GetDialogItem??rA
    515              if ( tmpWidget ) {
   \   0000000C   000050E3           CMP      R0,#+0
   \   00000010   0000000A           BEQ      ??Hide_1
    516                  WM_HideWin(tmpWidget);
   \   00000014   ........           _BLF     WM_HideWindow,??WM_HideWindow??rA
    517              }
    518          }
   \                     ??Hide_1:
   \   00000018   0040BDE8           POP      {LR}
   \   0000001C   1EFF2FE1           BX       LR               ;; return
    519          

   \                                 In segment CODE, align 4, keep-with-next
    520          void TDUBasicWin::CloseWin(volatile bool *IsClosed) {
   \                     ??CloseWin:
   \   00000000   F0412DE9           PUSH     {R4-R8,LR}
    521              Protect();
   \   00000004   BC609FE5           LDR      R6,??CloseWin_1  ;; ??GlobalIsInitiated
   \   00000008   0040A0E1           MOV      R4,R0
   \   0000000C   0150A0E1           MOV      R5,R1
   \   00000010   040086E2           ADD      R0,R6,#+4
   \   00000014   ........           _BLF     OS_Use,??OS_Use??rA
    522              if ( !*IsClosed ) {
   \   00000018   0000D5E5           LDRB     R0,[R5, #+0]
   \   0000001C   000050E3           CMP      R0,#+0
   \   00000020   2400001A           BNE      ??CloseWin_2
    523                  if ( DWidgetInfo && NumberOfDWidgets ) {
   \   00000024   0C0094E5           LDR      R0,[R4, #+12]
   \   00000028   0070A0E3           MOV      R7,#+0
   \   0000002C   000050E3           CMP      R0,#+0
   \   00000030   18109415           LDRNE    R1,[R4, #+24]
   \   00000034   00005113           CMPNE    R1,#+0
   \   00000038   0200000A           BEQ      ??CloseWin_3
    524                      NumberOfDWidgets = 0;
   \   0000003C   187084E5           STR      R7,[R4, #+24]
    525                      free(DWidgetInfo);
   \   00000040   ........           _BLF     __data_free,??__data_free??rA
    526                      DWidgetInfo = NULL;
   \   00000044   0C7084E5           STR      R7,[R4, #+12]
    527                  }
    528                  if ( SWidgetInfo && NumberOfSWidgets ) {
   \                     ??CloseWin_3:
   \   00000048   100094E5           LDR      R0,[R4, #+16]
   \   0000004C   000050E3           CMP      R0,#+0
   \   00000050   1C109415           LDRNE    R1,[R4, #+28]
   \   00000054   00005113           CMPNE    R1,#+0
   \   00000058   0200000A           BEQ      ??CloseWin_4
    529                      NumberOfSWidgets = 0;
   \   0000005C   1C7084E5           STR      R7,[R4, #+28]
    530                      free(SWidgetInfo);
   \   00000060   ........           _BLF     __data_free,??__data_free??rA
    531                      SWidgetInfo = NULL;
   \   00000064   107084E5           STR      R7,[R4, #+16]
    532                  }
    533                  if ( DropDowns && NumberOfDropDowns ) {
   \                     ??CloseWin_4:
   \   00000068   140094E5           LDR      R0,[R4, #+20]
   \   0000006C   000050E3           CMP      R0,#+0
   \   00000070   20009415           LDRNE    R0,[R4, #+32]
   \   00000074   00005013           CMPNE    R0,#+0
   \   00000078   0B00000A           BEQ      ??CloseWin_5
    534                      for ( unsigned i = 0; i < NumberOfDropDowns; i++ ) {
   \   0000007C   0080A0E3           MOV      R8,#+0
   \   00000080   020000EA           B        ??CloseWin_6
    535                          delete[] DropDowns->WordKeys;
   \                     ??CloseWin_7:
   \   00000084   040090E5           LDR      R0,[R0, #+4]
    536                      }
   \   00000088   018088E2           ADD      R8,R8,#+1
   \   0000008C   ........           _BLF     `??operator delete[]`,`??operator delete[]??rA`
   \                     ??CloseWin_6:
   \   00000090   201094E5           LDR      R1,[R4, #+32]
   \   00000094   140094E5           LDR      R0,[R4, #+20]
   \   00000098   010058E1           CMP      R8,R1
   \   0000009C   F8FFFF3A           BCC      ??CloseWin_7
    537                      NumberOfDropDowns = 0;
   \   000000A0   207084E5           STR      R7,[R4, #+32]
    538                      free(DropDowns);
   \   000000A4   ........           _BLF     __data_free,??__data_free??rA
    539                      DropDowns = NULL;
   \   000000A8   147084E5           STR      R7,[R4, #+20]
    540                  }
    541                  if ( IsClosed ) {
   \                     ??CloseWin_5:
   \   000000AC   000055E3           CMP      R5,#+0
    542                      *IsClosed = true;
   \   000000B0   0100A013           MOVNE    R0,#+1
   \   000000B4   0000C515           STRBNE   R0,[R5, #+0]
    543                  }
    544              }
    545              UnProtect();
   \                     ??CloseWin_2:
   \   000000B8   040086E2           ADD      R0,R6,#+4
   \   000000BC   ........           _BLF     OS_Unuse,??OS_Unuse??rA
    546          }
   \   000000C0   F041BDE8           POP      {R4-R8,LR}
   \   000000C4   1EFF2FE1           BX       LR               ;; return
   \                     ??CloseWin_1:
   \   000000C8   ........           DC32     ??GlobalIsInitiated

   \                                 In segment DIFUNCT, align 4, keep-with-next, root
   \   00000000                      REQUIRE ?call_ctors
   \   00000000   ........           DC32    ??__sti__routine

   \                                 In segment DATA_C, align 1, align-sorted
   \   00000000   3100               DC8 "1"

   \                                 In segment DATA_C, align 1, align-sorted
   \   00000000   3000               DC8 "0"

   \                                 In segment DATA_C, align 4, align-sorted
   \                     `?<Constant {15, 0, 0}>`:
   \   00000000   0F000000           DC32 15
   \   00000004   00000000           DC16 0, 0
   \   00000008   00000000           DC8 0, 0, 0, 0

   \                                 In segment DATA_C, align 4, align-sorted
   \                     `?<Constant {15, 0, 0}>_1`:
   \   00000000   0F000000           DC32 15
   \   00000004   00000000           DC16 0, 0
   \   00000008   00000000           DC8 0, 0, 0, 0

   \                                 In segment DATA_C, align 4, align-sorted
   \                     `?<Constant {1025, 0, 0}>`:
   \   00000000   01040000           DC32 1025
   \   00000004   00000000           DC16 0, 0
   \   00000008   00000000           DC8 0, 0, 0, 0

   \                                 In segment CODE, align 4, keep-with-next
   \   static __??Code32?? __intrinsic __code __interwork __atpcs void __sti__routine()
   \                     ??__sti__routine:
   \   00000000   1EFF2FE1           BX       LR               ;; return

   \                                 In segment CODE, align 4, keep-with-next
   \   __??Code32?? __code __interwork __atpcs void TDUBasicWin::delete ~TDUBasicWin(TDUBasicWin *)
   \                     `??delete ~TDUBasicWin`:
   \   00000000   10402DE9           PUSH     {R4,LR}
   \   00000004   0040B0E1           MOVS     R4,R0
   \   00000008   0200000A           BEQ      `??delete ~TDUBasicWin_1`
   \   0000000C   ........           BL       `?~TDUBasicWin`
   \   00000010   0400A0E1           MOV      R0,R4
   \   00000014   ........           _BLF     `??operator delete`,`??operator delete??rA`
   \                     `??delete ~TDUBasicWin_1`:
   \   00000018   1040BDE8           POP      {R4,LR}
   \   0000001C   1EFF2FE1           BX       LR               ;; return

   \                                 In segment CODE, align 4, keep-with-next
   \   __??Code32?? __code __interwork __atpcs TDUBasicWin &TDUBasicWin::new TDUBasicWin()
   \                     `??new TDUBasicWin`:
   \   00000000   00402DE9           PUSH     {LR}
   \   00000004   3400A0E3           MOV      R0,#+52
   \   00000008   ........           _BLF     `??operator new`,`??operator new??rA`
   \   0000000C   000050E3           CMP      R0,#+0
   \   00000010   0000000A           BEQ      `??new TDUBasicWin_1`
   \   00000014   ........           BL       ??TDUBasicWin
   \                     `??new TDUBasicWin_1`:
   \   00000018   0040BDE8           POP      {LR}
   \   0000001C   1EFF2FE1           BX       LR               ;; return

   \                                 In segment CODE, align 4, keep-with-next
   \                     ??DataTable0:
   \   00000000   ........           DC32     ??CurrentLanguage

   \                                 In segment CODE, align 4, keep-with-next
   \                     ??DataTable9:
   \   00000000   ........           DC32     BUTTON_Callback

   \                                 In segment CODE, align 4, keep-with-next
   \                     ??DataTable11:
   \   00000000   ........           DC32     FRAMEWIN_Callback

   \                                 In segment CODE, align 4, keep-with-next
   \                     ??DataTable12:
   \   00000000   ........           DC32     TEXT_Callback

   \                                 In segment CODE, align 4, keep-with-next
   \                     ??DataTable17:
   \   00000000   ........           DC32     MULTIEDIT_Callback

   \                                 In segment CODE, align 4, keep-with-next
   \                     ??DataTable18:
   \   00000000   ........           DC32     RADIO_Callback

   \                                 In segment CODE, align 4, keep-with-next
   \                     ??DataTable21:
   \   00000000   ........           DC32     ??CompareDWidgetInfo

   \                                 In segment CODE, align 4, keep-with-next
   \                     ??DataTable22:
   \   00000000   ........           DC32     CHECKBOX_Callback

   \                                 In segment CODE, align 4, keep-with-next
   \                     ??DataTable26:
   \   00000000   ........           DC32     EDIT_Callback

   \                                 In segment CODE, align 4, keep-with-next
   \                     ??DataTable28:
   \   00000000   ........           DC32     ??npos

   \                                 In segment CODE, align 4, keep-with-next
   \                     ??DataTable31:
   \   00000000   ........           DC32     ??CompareSWidgetInfo

   \                                 In segment CODE, align 4, keep-with-next
   \                     ??DataTable32:
   \   00000000   ........           DC32     ??CurrentLanguage

   \                                 In segment CODE, align 4, keep-with-next
   \                     ??DataTable35:
   \   00000000   ........           DC32     CurrentDeviceId

   \                                 In segment CODE, align 4, keep-with-next
   \                     ??DataTable37:
   \   00000000   ........           DC32     ??GlobalIsInitiated + 4
    547          

   Maximum stack usage in bytes:

     Function                       CSTACK
     --------                       ------
     CompareDWidgetInfo(void const *, void const *)
                                        0
     CompareSWidgetInfo(void const *, void const *)
                                        0
     TDUBasicWin::AddToDropDownsList(int, int *, int)
                                       28
     TDUBasicWin::AddToRWList(unsigned int *, int, PRogramObjectBase *)
                                       24
     TDUBasicWin::AddToRWList(unsigned int, PRogramObjectBase *)
                                       16
     TDUBasicWin::AddToSKeyList(GUIKey *, int, bool)
                                       32
     TDUBasicWin::AddToSKeyList(GUIKey)
                                        8
     TDUBasicWin::AddToSKeyList(int, int, int)
                                       44
     TDUBasicWin::ButtonSetText(int, AnsiString)
                                        8
     TDUBasicWin::CHECKBOX_UpdateValue(int)
                                      100
     TDUBasicWin::ChangeDWord(int, int, int, PRogramObjectBase *)
                                       16
     TDUBasicWin::ChangeSWord(int, int, int, bool)
                                       28
     TDUBasicWin::CheckBoxSetText(int, AnsiString)
                                        8
     TDUBasicWin::ClearRWList()         8
     TDUBasicWin::CloseWin(bool volatile *)
                                       24
     TDUBasicWin::DisableWidget(int)
                                        4
     TDUBasicWin::EDIT_ExecKeyboard(int)
                                       16
     TDUBasicWin::EDIT_InputValue(int, AnsiString)
                                       48
     TDUBasicWin::EditSetText(int, AnsiString)
                                        8
     TDUBasicWin::FindDWidget(int)     40
     TDUBasicWin::FindSWidget(int, int)
                                       20
     TDUBasicWin::GetSelected(int, int, PRogramObjectBase *)
                                       44
     TDUBasicWin::Hide(unsigned int)
                                        4
     TDUBasicWin::InitDropDowns(GUI_HWIN, int *, int)
                                       48
     TDUBasicWin::InitGlobals()         8
     TDUBasicWin::NewLanguage()        16
     TDUBasicWin::Protect()             4
     TDUBasicWin::Repaint()            20
     TDUBasicWin::RepaintAll()         16
     TDUBasicWin::SetSelected(int, int)
                                        8
     TDUBasicWin::SetText(GUIKey)      44
     TDUBasicWin::SetText(GUI_HWIN, int, AnsiString)
                                       16
     TDUBasicWin::SetText(int, int, AnsiString)
                                       52
     TDUBasicWin::SetUpWidgetInfoTable(GUIUpdateKey *, int)
                                       20
     TDUBasicWin::TDUBasicWin()        12
     TDUBasicWin::TextSetText(int, AnsiString)
                                        8
     TDUBasicWin::UnProtect()           4
     TDUBasicWin::UpdateDropDowns()    56
     TDUBasicWin::UpdateFields(bool)
                                       48
     TDUBasicWin::UpdateLanguage()      8
     TDUBasicWin::UpdateReadOnly()     12
     TDUBasicWin::UpdateSFields()      24
     TDUBasicWin::UpdateValue(GUIUpdateKey)
                                      148
     TDUBasicWin::delete ~TDUBasicWin(TDUBasicWin *)
                                        8
     TDUBasicWin::new TDUBasicWin()     4
     TDUBasicWin::~TDUBasicWin()        8
     _Vector_impl<WidgetKey, allocator<WidgetKey>>::_Make_room(WidgetStruct *, unsigned int)
                                       32
     __sti__routine()                   0


   Segment part sizes:

     Function/Label                 Bytes
     --------------                 -----
     _Vector_impl<WidgetKey, allocator<WidgetKey>>::_Make_room(WidgetStruct *, unsigned int)
                                     244
     TDUBasicWin::GlobalIsInitiated   20
     TDUBasicWin::TDUBasicWin()       96
     TDUBasicWin::~TDUBasicWin()      88
     TDUBasicWin::InitGlobals()       48
     TDUBasicWin::ButtonSetText(int, AnsiString)
                                      44
     TDUBasicWin::EditSetText(int, AnsiString)
                                      44
     TDUBasicWin::TextSetText(int, AnsiString)
                                      44
     TDUBasicWin::CheckBoxSetText(int, AnsiString)
                                      44
     TDUBasicWin::SetText(GUI_HWIN, int, AnsiString)
                                     332
     TDUBasicWin::SetText(int, int, AnsiString)
                                     144
     TDUBasicWin::SetText(GUIKey)    124
     TDUBasicWin::UpdateValue(GUIUpdateKey)
                                     964
     CompareDWidgetInfo(void const *, void const *)
                                      16
     TDUBasicWin::SetUpWidgetInfoTable(GUIUpdateKey *, int)
                                      76
     TDUBasicWin::FindDWidget(int)    52
     TDUBasicWin::ChangeDWord(int, int, int, PRogramObjectBase *)
                                      64
     TDUBasicWin::DisableWidget(int)
                                      32
     TDUBasicWin::CHECKBOX_UpdateValue(int)
                                     284
     TDUBasicWin::EDIT_InputValue(int, AnsiString)
                                     228
     TDUBasicWin::EDIT_ExecKeyboard(int)
                                      68
     TDUBasicWin::UpdateSFields()    108
     TDUBasicWin::UpdateFields(bool)
                                     124
     CompareSWidgetInfo(void const *, void const *)
                                      40
     TDUBasicWin::AddToSKeyList(int, int, int)
                                     100
     TDUBasicWin::AddToSKeyList(GUIKey)
                                     136
     TDUBasicWin::AddToSKeyList(GUIKey *, int, bool)
                                     220
     TDUBasicWin::AddToDropDownsList(int, int *, int)
                                     156
     TDUBasicWin::FindSWidget(int, int)
                                      56
     TDUBasicWin::ChangeSWord(int, int, int, bool)
                                     104
     TDUBasicWin::InitDropDowns(GUI_HWIN, int *, int)
                                     144
     TDUBasicWin::UpdateDropDowns()  216
     TDUBasicWin::SetSelected(int, int)
                                      40
     TDUBasicWin::GetSelected(int, int, PRogramObjectBase *)
                                     120
     TDUBasicWin::UpdateLanguage()    72
     TDUBasicWin::Repaint()           60
     TDUBasicWin::RepaintAll()        56
     TDUBasicWin::NewLanguage()       56
     TDUBasicWin::AddToRWList(unsigned int, PRogramObjectBase *)
                                     140
     TDUBasicWin::AddToRWList(unsigned int *, int, PRogramObjectBase *)
                                      72
     TDUBasicWin::ClearRWList()       52
     TDUBasicWin::UpdateReadOnly()   108
     TDUBasicWin::Protect()           20
     TDUBasicWin::UnProtect()         20
     TDUBasicWin::Hide(unsigned int)
                                      32
     TDUBasicWin::CloseWin(bool volatile *)
                                     204
     ?<Constant "1">                   2
     ?<Constant "0">                   2
     ?<Constant {15, 0, 0}>           12
     ?<Constant {15, 0, 0}>_1         12
     ?<Constant {1025, 0, 0}>         12
     __sti__routine()                  4
     TDUBasicWin::delete ~TDUBasicWin(TDUBasicWin *)
                                      32
     TDUBasicWin::new TDUBasicWin()   32
     ??DataTable0                      4
     ??DataTable9                      4
     ??DataTable11                     4
     ??DataTable12                     4
     ??DataTable17                     4
     ??DataTable18                     4
     ??DataTable21                     4
     ??DataTable22                     4
     ??DataTable26                     4
     ??DataTable28                     4
     ??DataTable31                     4
     ??DataTable32                     4
     ??DataTable35                     4
     ??DataTable37                     4
      Others                         924

 
 6 524 bytes in segment CODE
    40 bytes in segment DATA_C
    20 bytes in segment DATA_Z
     4 bytes in segment DIFUNCT
    12 bytes in segment INITTAB
 
 5 376 bytes of CODE  memory (+ 1 164 bytes shared)
    40 bytes of CONST memory
    20 bytes of DATA  memory

Errors: none
Warnings: none
