##############################################################################
#                                                                            #
# IAR ARM ANSI C/C++ Compiler V4.42A/W32               14/Sep/2022  15:18:18 #
# Copyright 1999-2005 IAR Systems. All rights reserved.                      #
#                                                                            #
#    Cpu mode        =  interwork                                            #
#    Endian          =  little                                               #
#    Stack alignment =  4                                                    #
#    Source file     =  D:\S2Prog\TXU\src\TDUConfigWin.cpp                   #
#    Command line    =  D:\S2Prog\TXU\src\TDUConfigWin.cpp --fpu None -D     #
#                       OS_LIBMODE_SP -D CPU_S3C2410 -D OS_RAMVECT=0 -D      #
#                       OS_UART=-1 -D S2TXU -D USE_LZO=1 -D __ARM_LIBRARY__  #
#                       -D WATCHDOG=1 -D NETWORK=1 -lCN                      #
#                       D:\S2Prog\TXU\Debug\List\ -o                         #
#                       D:\S2Prog\TXU\Debug\Obj\ -s9 --debug --cpu_mode arm  #
#                       --endian little --cpu ARM920T --stack_align 4        #
#                       --interwork -e --enable_multibytes --eec++           #
#                       --dlib_config "C:\Program Files (x86)\IAR            #
#                       Systems\Embedded Workbench                           #
#                       4.0\arm\LIB\dl4tpainl8n.h" -I                        #
#                       D:\S2Prog\TXU\GUI\CORE\ -I D:\S2Prog\TXU\GUI\WM\ -I  #
#                       D:\S2Prog\TXU\GUI\WIDGET\ -I D:\S2Prog\TXU\CONFIG\   #
#                       -I D:\S2Prog\TXU\INC\ -I D:\S2Prog\TXU\..\SHARED\INC #
#                       \ -I D:\S2Prog\TXU\..\SHARED\SRC\ -I                 #
#                       D:\S2Prog\TXU\..\SHARED\LZO\minilzo.210\ -I          #
#                       D:\S2Prog\TXU\lwip-1.4.1\src\include\ -I             #
#                       D:\S2Prog\TXU\lwip-1.4.1\src\include\ipv4\ -I        #
#                       D:\S2Prog\TXU\lwip-1.4.1\src\ -I                     #
#                       D:\S2Prog\TXU\..\SHARED\Database\ -I                 #
#                       D:\S2Prog\TXU\src\ -I "C:\Program Files (x86)\IAR    #
#                       Systems\Embedded Workbench 4.0\arm\INC\"             #
#                       --inline_threshold=2                                 #
#    List file       =  D:\S2Prog\TXU\Debug\List\TDUConfigWin.lst            #
#    Object file     =  D:\S2Prog\TXU\Debug\Obj\TDUConfigWin.r79             #
#                                                                            #
#                                                                            #
##############################################################################

D:\S2Prog\TXU\src\TDUConfigWin.cpp
      1          #include "TDUIncludes.h"

   \                                 In segment DATA_Z, align 4, align-sorted
   \   static GUI_FONT const __data TDU_FONT_BIG
   \                     TDU_FONT_BIG:
   \   00000000                      DS8 36
      2          

   \                                 In segment CODE, align 4, keep-with-next
      3          TDUConfigWin::~TDUConfigWin(void)
      4          {
      5          }
   \                     `?~TDUConfigWin`:
   \   00000000   1EFF2FE1           BX       LR               ;; return
      6          

   \                                 In segment CODE, align 4, keep-with-next
      7          TDUConfigWin::TDUConfigWin(void)
      8          {
   \                     ??TDUConfigWin:
   \   00000000   10402DE9           PUSH     {R4,LR}
   \   00000004   0040A0E1           MOV      R4,R0
      9          //	WinHandl = WM_CreateWindowAsChild(0,0,0,0,MainWindow->WinHandl,WM_CF_SHOW,NULL,0);
     10          	WinHandl  = WM_CreateWindow(0,0,LCDXSize,LCDYSize,WM_CF_SHOW,NULL,0);
   \   00000008   0000A0E3           MOV      R0,#+0
   \   0000000C   01002DE9           PUSH     {R0}
   \   00000010   01002DE9           PUSH     {R0}
   \   00000014   0200A0E3           MOV      R0,#+2
   \   00000018   01002DE9           PUSH     {R0}
   \   0000001C   70009FE5           LDR      R0,??TDUConfigWin_1  ;; LCDYSize
   \   00000020   0010A0E3           MOV      R1,#+0
   \   00000024   003090E5           LDR      R3,[R0, #+0]
   \   00000028   ........           LDR      R0,??DataTable3  ;; LCDXSize
   \   0000002C   002090E5           LDR      R2,[R0, #+0]
   \   00000030   0000A0E3           MOV      R0,#+0
   \   00000034   ........           _BLF     WM_CreateWindow,??WM_CreateWindow??rA
   \   00000038   B000C4E1           STRH     R0,[R4, #+0]
     11          	CloseButton = BUTTON_CreateAsChild(250,210,60,22,WinHandl,CLOSE_BUT_ID_CONFIG,WM_CF_SHOW);
   \   0000003C   0200A0E3           MOV      R0,#+2
   \   00000040   01002DE9           PUSH     {R0}
   \   00000044   D100A0E3           MOV      R0,#+209
   \   00000048   800E80E3           ORR      R0,R0,#0x800
   \   0000004C   01002DE9           PUSH     {R0}
   \   00000050   F000D4E1           LDRSH    R0,[R4, #+0]
   \   00000054   1630A0E3           MOV      R3,#+22
   \   00000058   3C20A0E3           MOV      R2,#+60
   \   0000005C   01002DE9           PUSH     {R0}
   \   00000060   D210A0E3           MOV      R1,#+210
   \   00000064   FA00A0E3           MOV      R0,#+250
   \   00000068   ........           _BLF     BUTTON_CreateAsChild,??BUTTON_CreateAsChild??rA
     12          	BUTTON_SetText(CloseButton, "Close");
   \   0000006C   24109FE5           LDR      R1,??TDUConfigWin_1+0x4  ;; `?<Constant "Close">`
   \   00000070   B200C4E1           STRH     R0,[R4, #+2]
   \   00000074   ........           _BLF     BUTTON_SetText,??BUTTON_SetText??rA
     13          	WM_SetCallback(WinHandl, cbEventHandler);
   \   00000078   F000D4E1           LDRSH    R0,[R4, #+0]
   \   0000007C   18109FE5           LDR      R1,??TDUConfigWin_1+0x8  ;; ??cbEventHandler
   \   00000080   ........           _BLF     WM_SetCallback,??WM_SetCallback??rA
     14          }
   \   00000084   0400A0E1           MOV      R0,R4
   \   00000088   18D08DE2           ADD      SP,SP,#+24
   \   0000008C   1040BDE8           POP      {R4,LR}
   \   00000090   1EFF2FE1           BX       LR               ;; return
   \                     ??TDUConfigWin_1:
   \   00000094   ........           DC32     LCDYSize
   \   00000098   ........           DC32     `?<Constant "Close">`
   \   0000009C   ........           DC32     ??cbEventHandler
     15          

   \                                 In segment CODE, align 4, keep-with-next
     16          void TDUConfigWin::cbEventHandler(WM_MESSAGE * pMsg)
     17          {
   \                     ??cbEventHandler:
   \   00000000   10402DE9           PUSH     {R4,LR}
   \   00000004   0040A0E1           MOV      R4,R0
     18          	switch (pMsg->MsgId)
   \   00000008   001094E5           LDR      R1,[R4, #+0]
   \   0000000C   7F00E0E3           MVN      R0,#+127
   \   00000010   FF04C0E3           BIC      R0,R0,#0xFF000000
   \   00000014   011051E2           SUBS     R1,R1,#+1
   \   00000018   1800000A           BEQ      ??cbEventHandler_1
   \   0000001C   0E1051E2           SUBS     R1,R1,#+14
   \   00000020   0200000A           BEQ      ??cbEventHandler_2
   \   00000024   171051E2           SUBS     R1,R1,#+23
   \   00000028   1800000A           BEQ      ??cbEventHandler_3
   \   0000002C   240000EA           B        ??cbEventHandler_4
     19          	{
     20          		case WM_PAINT:
     21          			GUI_SetBkColor(TDU_C_CONF_BACK);GUI_Clear();
   \                     ??cbEventHandler_2:
   \   00000030   ........           _BLF     GUI_SetBkColor,??GUI_SetBkColor??rA
   \   00000034   ........           _BLF     GUI_Clear,??GUI_Clear??rA
     22          			GUI_SetColor(TDU_C_CONF_TEXT);
   \   00000038   0000A0E3           MOV      R0,#+0
   \   0000003C   ........           _BLF     GUI_SetColor,??GUI_SetColor??rA
     23          			GUI_DrawBitmap(&bmScanjetlogo,2,60);
   \   00000040   88009FE5           LDR      R0,??cbEventHandler_5  ;; bmScanjetlogo
   \   00000044   3C20A0E3           MOV      R2,#+60
   \   00000048   0210A0E3           MOV      R1,#+2
   \   0000004C   ........           _BLF     GUI_DrawBitmap,??GUI_DrawBitmap??rA
     24          			GUI_SetTextMode(GUI_TM_TRANS);
   \   00000050   0200A0E3           MOV      R0,#+2
   \   00000054   ........           _BLF     GUI_SetTextMode,??GUI_SetTextMode??rA
     25          			GUI_SetFont(&TDU_FONT_BIG);
   \   00000058   ........           LDR      R0,??DataTable2  ;; TDU_FONT_BIG
   \   0000005C   ........           _BLF     GUI_SetFont,??GUI_SetFont??rA
     26          			GUI_DispStringHCenterAt("Configuration",LCDXSize/2,160);
   \   00000060   ........           LDR      R0,??DataTable3  ;; LCDXSize
   \   00000064   A020A0E3           MOV      R2,#+160
   \   00000068   000090E5           LDR      R0,[R0, #+0]
   \   0000006C   A00F80E0           ADD      R0,R0,R0, LSR #+31
   \   00000070   C010A0E1           ASR      R1,R0,#+1
   \   00000074   58009FE5           LDR      R0,??cbEventHandler_5+0x4  ;; `?<Constant "Configuration">`
   \   00000078   ........           _BLF     GUI_DispStringHCenterAt,??GUI_DispStringHCenterAt??rA
   \   0000007C   010000EA           B        ??cbEventHandler_6
     27          		break;
     28          		case WM_CREATE:
     29          		{
     30          			GUI_SetBkColor(TDU_C_CONF_BACK);GUI_Clear();
   \                     ??cbEventHandler_1:
   \   00000080   ........           _BLF     GUI_SetBkColor,??GUI_SetBkColor??rA
   \   00000084   ........           _BLF     GUI_Clear,??GUI_Clear??rA
   \                     ??cbEventHandler_6:
   \   00000088   1040BDE8           POP      {R4,LR}
   \   0000008C   1EFF2FE1           BX       LR
     31          		}
     32          		break;
     33          		case WM_NOTIFY_PARENT:
     34          		{
     35          			int NCode, Id;
     36          			Id    = WM_GetId(pMsg->hWinSrc);    /* Id of widget */
   \                     ??cbEventHandler_3:
   \   00000090   F600D4E1           LDRSH    R0,[R4, #+6]
   \   00000094   ........           _BLF     WM_GetId,??WM_GetId??rA
     37          			NCode = pMsg->Data.v;               /* Notification code */
     38          			switch (NCode)
   \   00000098   081094E5           LDR      R1,[R4, #+8]
   \   0000009C   020051E3           CMP      R1,#+2
   \   000000A0   F8FFFF1A           BNE      ??cbEventHandler_6
     39          			{
     40          				case WM_NOTIFICATION_RELEASED:  /* React only if released */
     41          //				case WM_NOTIFICATION_CLICKED:   /* React only if pressed */
     42          				{
     43          					switch (Id){
   \   000000A4   D110A0E3           MOV      R1,#+209
   \   000000A8   801E81E3           ORR      R1,R1,#0x800
   \   000000AC   010050E1           CMP      R0,R1
   \   000000B0   F4FFFF1A           BNE      ??cbEventHandler_6
     44          					case CLOSE_BUT_ID_CONFIG:
     45          						MainWindow->SetPreviousWindow();
   \   000000B4   1C009FE5           LDR      R0,??cbEventHandler_5+0x8  ;; MainWindow
   \   000000B8   000090E5           LDR      R0,[R0, #+0]
   \   000000BC   ........           _BLF     ??SetPreviousWindow,??SetPreviousWindow??rA
   \   000000C0   F0FFFFEA           B        ??cbEventHandler_6
     46          					break;
     47          					}
     48          				}
     49          				break;
     50          			}
     51          
     52          		}
     53          		break;
     54          		default:
     55          		WM_DefaultProc(pMsg);
   \                     ??cbEventHandler_4:
   \   000000C4   0400A0E1           MOV      R0,R4
   \   000000C8   ........           _BLF     WM_DefaultProc,??WM_DefaultProc??rA
     56          	}
     57          }
   \                     ??cbEventHandler_7:
   \   000000CC   EDFFFFEA           B        ??cbEventHandler_6
   \                     ??cbEventHandler_5:
   \   000000D0   ........           DC32     bmScanjetlogo
   \   000000D4   ........           DC32     `?<Constant "Configuration">`
   \   000000D8   ........           DC32     MainWindow

   \                                 In segment DIFUNCT, align 4, keep-with-next, root
   \   00000000                      REQUIRE ?call_ctors
   \   00000000   ........           DC32    ??__sti__routine

   \                                 In segment DATA_C, align 4, align-sorted
   \                     `?<Constant "Close">`:
   \   00000000   436C6F736500       DC8 "Close"
   \   00000006   0000               DC8 0, 0

   \                                 In segment DATA_C, align 4, align-sorted
   \                     `?<Constant "Configuration">`:
   \   00000000   436F6E666967       DC8 "Configuration"
   \              75726174696F
   \              6E00        
   \   0000000E   0000               DC8 0, 0

   \                                 In segment CODE, align 4, keep-with-next
   \   __??Code32?? __code __interwork __atpcs TDUConfigWin &TDUConfigWin::new TDUConfigWin()
   \                     `??new TDUConfigWin`:
   \   00000000   00402DE9           PUSH     {LR}
   \   00000004   0400A0E3           MOV      R0,#+4
   \   00000008   ........           _BLF     `??operator new`,`??operator new??rA`
   \   0000000C   000050E3           CMP      R0,#+0
   \   00000010   0000000A           BEQ      `??new TDUConfigWin_1`
   \   00000014   ........           BL       ??TDUConfigWin
   \                     `??new TDUConfigWin_1`:
   \   00000018   0040BDE8           POP      {LR}
   \   0000001C   1EFF2FE1           BX       LR               ;; return

   \                                 In segment CODE, align 4, keep-with-next
   \   __??Code32?? __code __interwork __atpcs void TDUConfigWin::delete ~TDUConfigWin(TDUConfigWin *)
   \                     `??delete ~TDUConfigWin`:
   \   00000000   00402DE9           PUSH     {LR}
   \   00000004   000050E3           CMP      R0,#+0
   \   00000008   0000000A           BEQ      `??delete ~TDUConfigWin_1`
   \   0000000C   ........           _BLF     `??operator delete`,`??operator delete??rA`
   \                     `??delete ~TDUConfigWin_1`:
   \   00000010   0040BDE8           POP      {LR}
   \   00000014   1EFF2FE1           BX       LR               ;; return

   \                                 In segment CODE, align 4, keep-with-next
   \   static __??Code32?? __intrinsic __code __interwork __atpcs void __sti__routine()
   \                     ??__sti__routine:
   \   00000000   1C109FE5           LDR      R1,??__sti__routine_1  ;; GUI_Font24_1
   \   00000004   ........           LDR      R0,??DataTable2  ;; TDU_FONT_BIG
   \   00000008   30002DE9           PUSH     {R4,R5}
   \   0000000C   3C10B1E8           LDM      R1!,{R2-R5,R12}
   \   00000010   3C10A0E8           STM      R0!,{R2-R5,R12}
   \   00000014   1C1091E8           LDM      R1,{R2-R4,R12}
   \   00000018   1C1080E8           STM      R0,{R2-R4,R12}
   \   0000001C   3000BDE8           POP      {R4,R5}
   \   00000020   1EFF2FE1           BX       LR               ;; return
   \                     ??__sti__routine_1:
   \   00000024   ........           DC32     GUI_Font24_1

   \                                 In segment CODE, align 4, keep-with-next
   \                     ??DataTable2:
   \   00000000   ........           DC32     TDU_FONT_BIG

   \                                 In segment CODE, align 4, keep-with-next
   \                     ??DataTable3:
   \   00000000   ........           DC32     LCDXSize

   Maximum stack usage in bytes:

     Function                       CSTACK
     --------                       ------
     TDUConfigWin::TDUConfigWin()      32
     TDUConfigWin::cbEventHandler(WM_MESSAGE *)
                                        8
     TDUConfigWin::delete ~TDUConfigWin(TDUConfigWin *)
                                        4
     TDUConfigWin::new TDUConfigWin()
                                        4
     TDUConfigWin::~TDUConfigWin()      0
     __sti__routine()                   8


   Segment part sizes:

     Function/Label                 Bytes
     --------------                 -----
     TDU_FONT_BIG                     36
     TDUConfigWin::~TDUConfigWin()     4
     TDUConfigWin::TDUConfigWin()    160
     TDUConfigWin::cbEventHandler(WM_MESSAGE *)
                                     220
     ?<Constant "Close">               8
     ?<Constant "Configuration">      16
     TDUConfigWin::new TDUConfigWin()
                                      32
     TDUConfigWin::delete ~TDUConfigWin(TDUConfigWin *)
                                      24
     __sti__routine()                 40
     ??DataTable2                      4
     ??DataTable3                      4
      Others                         232

 
 704 bytes in segment CODE
  24 bytes in segment DATA_C
  36 bytes in segment DATA_Z
   4 bytes in segment DIFUNCT
  12 bytes in segment INITTAB
 
 492 bytes of CODE  memory (+ 228 bytes shared)
  24 bytes of CONST memory
  36 bytes of DATA  memory

Errors: none
Warnings: none
