##############################################################################
#                                                                            #
# IAR ARM ANSI C/C++ Compiler V4.42A/W32               14/Sep/2022  15:18:17 #
# Copyright 1999-2005 IAR Systems. All rights reserved.                      #
#                                                                            #
#    Cpu mode        =  interwork                                            #
#    Endian          =  little                                               #
#    Stack alignment =  4                                                    #
#    Source file     =  D:\S2Prog\TXU\src\TDUConfigWarningsWin.cpp           #
#    Command line    =  D:\S2Prog\TXU\src\TDUConfigWarningsWin.cpp --fpu     #
#                       None -D OS_LIBMODE_SP -D CPU_S3C2410 -D              #
#                       OS_RAMVECT=0 -D OS_UART=-1 -D S2TXU -D USE_LZO=1 -D  #
#                       __ARM_LIBRARY__ -D WATCHDOG=1 -D NETWORK=1 -lCN      #
#                       D:\S2Prog\TXU\Debug\List\ -o                         #
#                       D:\S2Prog\TXU\Debug\Obj\ -s9 --debug --cpu_mode arm  #
#                       --endian little --cpu ARM920T --stack_align 4        #
#                       --interwork -e --enable_multibytes --eec++           #
#                       --dlib_config "C:\Program Files (x86)\IAR            #
#                       Systems\Embedded Workbench                           #
#                       4.0\arm\LIB\dl4tpainl8n.h" -I                        #
#                       D:\S2Prog\TXU\GUI\CORE\ -I D:\S2Prog\TXU\GUI\WM\ -I  #
#                       D:\S2Prog\TXU\GUI\WIDGET\ -I D:\S2Prog\TXU\CONFIG\   #
#                       -I D:\S2Prog\TXU\INC\ -I D:\S2Prog\TXU\..\SHARED\INC #
#                       \ -I D:\S2Prog\TXU\..\SHARED\SRC\ -I                 #
#                       D:\S2Prog\TXU\..\SHARED\LZO\minilzo.210\ -I          #
#                       D:\S2Prog\TXU\lwip-1.4.1\src\include\ -I             #
#                       D:\S2Prog\TXU\lwip-1.4.1\src\include\ipv4\ -I        #
#                       D:\S2Prog\TXU\lwip-1.4.1\src\ -I                     #
#                       D:\S2Prog\TXU\..\SHARED\Database\ -I                 #
#                       D:\S2Prog\TXU\src\ -I "C:\Program Files (x86)\IAR    #
#                       Systems\Embedded Workbench 4.0\arm\INC\"             #
#                       --inline_threshold=2                                 #
#    List file       =  D:\S2Prog\TXU\Debug\List\TDUConfigWarningsWin.lst    #
#    Object file     =  D:\S2Prog\TXU\Debug\Obj\TDUConfigWarningsWin.r79     #
#                                                                            #
#                                                                            #
##############################################################################

D:\S2Prog\TXU\src\TDUConfigWarningsWin.cpp
      1          #include "TDUIncludes.h"

   \                                 In segment DATA_Z, align 4, align-sorted
   \   static GUI_FONT const __data TDU_FONT_PW
   \                     TDU_FONT_PW:
   \   00000000                      DS8 36
      2          

   \                                 In segment DATA_Z, align 4, align-sorted
      3          TDUConfigWarning *TDUConfigWarning::WinPtr = NULL;
   \                     ??WinPtr:
   \   00000000                      DS8 4

   \                                 In segment CODE, align 4, keep-with-next
      4          TDUConfigWarning::~TDUConfigWarning(void)
      5          {
   \                     `?~TDUConfigWarning`:
   \   00000000   10402DE9           PUSH     {R4,LR}
   \   00000004   0040A0E1           MOV      R4,R0
      6              WinPtr = NULL;
   \   00000008   ........           LDR      R0,??DataTable4  ;; ??WinPtr
   \   0000000C   0010A0E3           MOV      R1,#+0
   \   00000010   001080E5           STR      R1,[R0, #+0]
      7          }
   \   00000014   3C0084E2           ADD      R0,R4,#+60
   \   00000018   ........           _BLF     `?~CloseWindowTimer`,`?~CloseWindowTimer??rA`
   \   0000001C   0400A0E1           MOV      R0,R4
   \   00000020   ........           _BLF     `?~TDUBasicWin`,`?~TDUBasicWin??rA`
   \   00000024   1040BDE8           POP      {R4,LR}
   \   00000028   1EFF2FE1           BX       LR               ;; return
      8          

   \                                 In segment CODE, align 4, keep-with-next
      9          TDUConfigWarning::TDUConfigWarning(void)
   \                     ??TDUConfigWarning:
   \   00000000   30402DE9           PUSH     {R4,R5,LR}
   \   00000004   24D04DE2           SUB      SP,SP,#+36
   \   00000008   0040A0E1           MOV      R4,R0
     10          {
   \   0000000C   ........           _BLF     ??TDUBasicWin,??TDUBasicWin??rA
   \   00000010   3C0084E2           ADD      R0,R4,#+60
   \   00000014   ........           _BLF     ??CloseWindowTimer,??CloseWindowTimer??rA
     11              WinPtr = this;
   \   00000018   ........           LDR      R0,??DataTable4  ;; ??WinPtr
     12              {
     13                  const GUIKey Words[] ={
     14                      {TDU_CONFWARNING_WIN    ,0,L_WORD84},
     15                      {GUI_ID_CLOSE           ,0,L_WORD86},
     16                      {GUI_ID_TEXT0           ,0,L_WORD85},
     17                  };
   \   0000001C   44109FE5           LDR      R1,??TDUConfigWarning_1  ;; `?<Constant {{2203, 0, 84}, {5, 0, 86}, {352, 0`
   \   00000020   004080E5           STR      R4,[R0, #+0]
   \   00000024   2C50B1E8           LDM      R1!,{R2,R3,R5,R12,LR}
   \   00000028   0D00A0E1           MOV      R0,SP
   \   0000002C   2C50A0E8           STM      R0!,{R2,R3,R5,R12,LR}
   \   00000030   0C5091E8           LDM      R1,{R2,R3,R12,LR}
     18                  AddToSKeyList((GUIKey*)Words,NELEMENTS(Words));
   \   00000034   0D10A0E1           MOV      R1,SP
   \   00000038   0C5080E8           STM      R0,{R2,R3,R12,LR}
   \   0000003C   0130A0E3           MOV      R3,#+1
   \   00000040   0320A0E3           MOV      R2,#+3
   \   00000044   0400A0E1           MOV      R0,R4
   \   00000048   ........           _BLF     ??AddToSKeyList,??AddToSKeyList??rA
     19              }
     20              ExecDialogBox(NULL);
   \   0000004C   0010A0E3           MOV      R1,#+0
   \   00000050   0400A0E1           MOV      R0,R4
   \   00000054   ........           BL       ??ExecDialogBox
     21          
     22          }
   \   00000058   0400A0E1           MOV      R0,R4
   \   0000005C   24D08DE2           ADD      SP,SP,#+36
   \   00000060   3040BDE8           POP      {R4,R5,LR}
   \   00000064   1EFF2FE1           BX       LR               ;; return
   \                     ??TDUConfigWarning_1:
   \   00000068   ........           DC32     `?<Constant {{2203, 0, 84}, {5, 0, 86}, {352, 0`
     23          

   \                                 In segment DATA_C, align 4, align-sorted
   \                     `?<Constant "There are fault in th...">`:
   \   00000000   546865726520       DC8 54H, 68H, 65H, 72H, 65H, 20H, 61H, 72H
   \              6172        
   \   00000008   65206661756C       DC8 65H, 20H, 66H, 61H, 75H, 6CH, 74H, 20H
   \              7420        
   \   00000010   696E20746865       DC8 69H, 6EH, 20H, 74H, 68H, 65H, 20H, 63H
   \              2063        
   \   00000018   6F6E66696775       DC8 6FH, 6EH, 66H, 69H, 67H, 75H, 72H, 61H
   \              7261        
   \   00000020   74696F6E3B20       DC8 74H, 69H, 6FH, 6EH, 3BH, 20H, 0AH, 74H
   \              0A74        
   \   00000028   68652070726F       DC8 68H, 65H, 20H, 70H, 72H, 6FH, 67H, 72H
   \              6772        
   \   00000030   616D206D6179       DC8 61H, 6DH, 20H, 6DH, 61H, 79H, 20H, 6EH
   \              206E        
   \   00000038   6F7420776F72       DC8 6FH, 74H, 20H, 77H, 6FH, 72H, 6BH, 20H
   \              6B20        
   \   00000040   70726F706572       DC8 70H, 72H, 6FH, 70H, 65H, 72H, 6CH, 79H
   \              6C79        
   \   00000048   2E00               DC8 2EH, 0
   \   0000004A   0000               DC8 0, 0
   \   0000004C   7465737400         DC8 "test"
   \   00000051   000000             DC8 0, 0, 0
     24          const GUI_WIDGET_CREATE_INFO TDUConfigWarning::aDialogCreate[] =
   \                     ??aDialogCreate:
   \   00000054   ............       DC32 FRAMEWIN_CreateIndirect, `?<Constant "Config or Settings fi...">`
   \              ....        
   \   0000005C   9B0800000000       DC16 2203, 0, 0, 320, 240, 16
   \              4001F0001000
   \   00000068   00000000....       DC32 0, TEXT_CreateIndirect, `?<Constant "Text">`
   \              ............
   \   00000074   600102000200       DC16 352, 2, 2, 230, 42, 0
   \              E6002A000000
   \   00000080   00000000           DC8 0, 0, 0, 0
   \   00000084   ............       DC32 BUTTON_CreateIndirect, `?<Constant "Continue">`
   \              ....        
   \   0000008C   0500FA000400       DC16 5, 250, 4, 60, 22
   \              3C001600    
   \   00000096   000000000000       DC8 0, 0, 0, 0, 0, 0
     25          {
     26              { FRAMEWIN_CreateIndirect,"Config or Settings file Error", TDU_CONFWARNING_WIN, 0, 0, 320, 240, FRAMEWIN_CF_MOVEABLE, 0},
     27              { TEXT_CreateIndirect,      "Text",     GUI_ID_TEXT0,   2, 2, 230, 42, TEXT_CF_LEFT},
     28              { BUTTON_CreateIndirect,    "Continue", GUI_ID_CLOSE, 250, 4,  60, 22},
     29          };
     30          
     31          

   \                                 In segment CODE, align 4, keep-with-next
     32          void TDUConfigWarning::ExecDialogBox(WM_HWIN hCurrentWin)
     33          {
   \                     ??ExecDialogBox:
   \   00000000   70402DE9           PUSH     {R4-R6,LR}
   \   00000004   1CD04DE2           SUB      SP,SP,#+28
   \   00000008   0040A0E1           MOV      R4,R0
     34              if ( !Closed ) {
   \   0000000C   3800D4E5           LDRB     R0,[R4, #+56]
   \   00000010   0150A0E1           MOV      R5,R1
   \   00000014   000050E3           CMP      R0,#+0
   \   00000018   0700001A           BNE      ??ExecDialogBox_1
     35                  if ( WinHandl ) {
   \   0000001C   FA02D4E1           LDRSH    R0,[R4, #+42]
   \   00000020   000050E3           CMP      R0,#+0
   \   00000024   0500000A           BEQ      ??ExecDialogBox_2
     36                      CloseTimer.Stop();
   \   00000028   581094E5           LDR      R1,[R4, #+88]
   \   0000002C   3C0084E2           ADD      R0,R4,#+60
   \   00000030   001091E5           LDR      R1,[R1, #+0]
   \   00000034   0FE0A0E1           MOV      LR,PC
   \   00000038   11FF2FE1           BX       R1
     37                  }
     38              }
     39              Closed = false;
   \                     ??ExecDialogBox_1:
   \   0000003C   0000A0E3           MOV      R0,#+0
     40              WinHandl = GUI_CreateDialogBox(aDialogCreate, GUI_COUNTOF(aDialogCreate),&cbConfigWarning,
     41                                             hCurrentWin, 0, 0);
   \                     ??ExecDialogBox_2:
   \   00000040   14619FE5           LDR      R6,??ExecDialogBox_3  ;; `?<Constant "There are fault in th...">`
   \   00000044   14219FE5           LDR      R2,??ExecDialogBox_3+0x4  ;; ??cbConfigWarning
   \   00000048   3800C4E5           STRB     R0,[R4, #+56]
   \   0000004C   0000A0E3           MOV      R0,#+0
   \   00000050   01002DE9           PUSH     {R0}
   \   00000054   01002DE9           PUSH     {R0}
   \   00000058   0530A0E1           MOV      R3,R5
   \   0000005C   0310A0E3           MOV      R1,#+3
   \   00000060   540086E2           ADD      R0,R6,#+84
   \   00000064   ........           _BLF     GUI_CreateDialogBox,??GUI_CreateDialogBox??rA
   \   00000068   BA02C4E1           STRH     R0,[R4, #+42]
     42              hText = WM_GetDialogItem(WinHandl, GUI_ID_TEXT0);
   \   0000006C   581FA0E3           MOV      R1,#+352
   \   00000070   ........           _BLF     WM_GetDialogItem,??WM_GetDialogItem??rA
     43              TEXT_SetFont(hText,&TDU_FONT_PW);
   \   00000074   ........           LDR      R1,??DataTable3  ;; TDU_FONT_PW
   \   00000078   B403C4E1           STRH     R0,[R4, #+52]
   \   0000007C   ........           _BLF     TEXT_SetFont,??TEXT_SetFont??rA
     44              AnsiString str = "There are fault in the configuration; \nthe program may not work properly.";
   \   00000080   0610A0E1           MOV      R1,R6
   \   00000084   08008DE2           ADD      R0,SP,#+8
   \   00000088   ........           _BLF     ??AnsiString,??AnsiString??rA
     45              TEXT_SetText(hText, str.c_str());
   \   0000008C   20009DE5           LDR      R0,[SP, #+32]
   \   00000090   08D08DE2           ADD      SP,SP,#+8
   \   00000094   100050E3           CMP      R0,#+16
   \   00000098   F403D4E1           LDRSH    R0,[R4, #+52]
   \   0000009C   04109D25           LDRCS    R1,[SP, #+4]
   \   000000A0   04108D32           ADDCC    R1,SP,#+4
   \   000000A4   ........           _BLF     TEXT_SetText,??TEXT_SetText??rA
     46              TEXT_SetTextColor(hText, TDU_C_AL_BACK_ACTIVE);
   \   000000A8   F403D4E1           LDRSH    R0,[R4, #+52]
   \   000000AC   FF10A0E3           MOV      R1,#+255
   \   000000B0   ........           _BLF     TEXT_SetTextColor,??TEXT_SetTextColor??rA
     47              hConfigWarning = MULTIEDIT_Create(2, 50, 316, 186, WinHandl, 0, WM_CF_SHOW, MULTIEDIT_CF_AUTOSCROLLBAR_V, "test", 100);
   \   000000B4   6400A0E3           MOV      R0,#+100
   \   000000B8   01002DE9           PUSH     {R0}
   \   000000BC   4C0086E2           ADD      R0,R6,#+76
   \   000000C0   01002DE9           PUSH     {R0}
   \   000000C4   0800A0E3           MOV      R0,#+8
   \   000000C8   01002DE9           PUSH     {R0}
   \   000000CC   0200A0E3           MOV      R0,#+2
   \   000000D0   01002DE9           PUSH     {R0}
   \   000000D4   0000A0E3           MOV      R0,#+0
   \   000000D8   01002DE9           PUSH     {R0}
   \   000000DC   FA02D4E1           LDRSH    R0,[R4, #+42]
   \   000000E0   BA30A0E3           MOV      R3,#+186
   \   000000E4   4F2FA0E3           MOV      R2,#+316
   \   000000E8   01002DE9           PUSH     {R0}
   \   000000EC   3210A0E3           MOV      R1,#+50
   \   000000F0   0200A0E3           MOV      R0,#+2
   \   000000F4   ........           _BLF     MULTIEDIT_Create,??MULTIEDIT_Create??rA
   \   000000F8   B603C4E1           STRH     R0,[R4, #+54]
     48              MULTIEDIT_SetReadOnly(hConfigWarning, 1);
   \   000000FC   0110A0E3           MOV      R1,#+1
   \   00000100   ........           _BLF     MULTIEDIT_SetReadOnly,??MULTIEDIT_SetReadOnly??rA
     49              MULTIEDIT_SetWrapWord(hConfigWarning);
   \   00000104   F603D4E1           LDRSH    R0,[R4, #+54]
   \   00000108   ........           _BLF     MULTIEDIT_SetWrapWord,??MULTIEDIT_SetWrapWord??rA
     50              MULTIEDIT_SetBkColor(hConfigWarning, MULTIEDIT_CI_READONLY, TDU_C_AL_BACK_WARNING);
   \   0000010C   F603D4E1           LDRSH    R0,[R4, #+54]
   \   00000110   FF20A0E3           MOV      R2,#+255
   \   00000114   FF2C82E3           ORR      R2,R2,#0xFF00
   \   00000118   0110A0E3           MOV      R1,#+1
   \   0000011C   ........           _BLF     MULTIEDIT_SetBkColor,??MULTIEDIT_SetBkColor??rA
     51              CloseTimer.Init(WinHandl,true,&Closed,1*60*60*1000);
   \   00000120   DB09A0E3           MOV      R0,#+3588096
   \   00000124   BA0D80E3           ORR      R0,R0,#0x2E80
   \   00000128   01002DE9           PUSH     {R0}
   \   0000012C   FA12D4E1           LDRSH    R1,[R4, #+42]
   \   00000130   383084E2           ADD      R3,R4,#+56
   \   00000134   0120A0E3           MOV      R2,#+1
   \   00000138   3C0084E2           ADD      R0,R4,#+60
   \   0000013C   ........           _BLF     ??Init,??Init??rA
     52              //WM_EnableMemdev(WinHandl);
     53          }
   \   00000140   0020A0E3           MOV      R2,#+0
   \   00000144   0110A0E3           MOV      R1,#+1
   \   00000148   1C008DE2           ADD      R0,SP,#+28
   \   0000014C   ........           _BLF     ??_Tidy,??_Tidy??rA
   \   00000150   38D08DE2           ADD      SP,SP,#+56
   \   00000154   7040BDE8           POP      {R4-R6,LR}
   \   00000158   1EFF2FE1           BX       LR               ;; return
   \                     ??ExecDialogBox_3:
   \   0000015C   ........           DC32     `?<Constant "There are fault in th...">`
   \   00000160   ........           DC32     ??cbConfigWarning
     54          

   \                                 In segment CODE, align 4, keep-with-next
     55          void TDUConfigWarning::cbConfigWarning(WM_MESSAGE *pMsg)
     56          {
   \                     ??cbConfigWarning:
   \   00000000   70402DE9           PUSH     {R4-R6,LR}
   \   00000004   8CD04DE2           SUB      SP,SP,#+140
     57              int NCode, Id;
     58              //WM_HWIN hWin = pMsg->hWin;
     59              switch ( pMsg->MsgId ) {
   \   00000008   2C429FE5           LDR      R4,??cbConfigWarning_1  ;; ConfigWarnings
   \   0000000C   0050A0E1           MOV      R5,R0
   \   00000010   000095E5           LDR      R0,[R5, #+0]
   \   00000014   0D0040E2           SUB      R0,R0,#+13
   \   00000018   010050E3           CMP      R0,#+1
   \   0000001C   6F00009A           BLS      ??cbConfigWarning_2
   \   00000020   020050E2           SUBS     R0,R0,#+2
   \   00000024   0A00000A           BEQ      ??cbConfigWarning_3
   \   00000028   0E0050E2           SUBS     R0,R0,#+14
   \   0000002C   0200000A           BEQ      ??cbConfigWarning_4
   \   00000030   090050E2           SUBS     R0,R0,#+9
   \   00000034   6C00000A           BEQ      ??cbConfigWarning_5
   \   00000038   7C0000EA           B        ??cbConfigWarning_6
     60              case WM_INIT_DIALOG:
     61          		if ( ConfigWarnings){
   \                     ??cbConfigWarning_4:
   \   0000003C   000094E5           LDR      R0,[R4, #+0]
   \   00000040   000050E3           CMP      R0,#+0
   \   00000044   6500000A           BEQ      ??cbConfigWarning_2
     62          			ConfigWarnings->FirstTime = true;
   \   00000048   0110A0E3           MOV      R1,#+1
   \   0000004C   2810C0E5           STRB     R1,[R0, #+40]
   \   00000050   620000EA           B        ??cbConfigWarning_2
     63          		}
     64                  break;
     65              case WM_PAINT:
     66                  {
     67                      AnsiString WarningString = ConfigWarningsString + HWOverviewWarningsString+RestoreSettingsWarningsString;
   \                     ??cbConfigWarning_3:
   \   00000054   0020A0E3           MOV      R2,#+0
   \   00000058   0010A0E3           MOV      R1,#+0
   \   0000005C   1C008DE2           ADD      R0,SP,#+28
   \   00000060   ........           _BLF     ??_Tidy,??_Tidy??rA
   \   00000064   D4019FE5           LDR      R0,??cbConfigWarning_1+0x4  ;; ??npos
   \   00000068   D4119FE5           LDR      R1,??cbConfigWarning_1+0x8  ;; ConfigWarningsString
   \   0000006C   005090E5           LDR      R5,[R0, #+0]
   \   00000070   0020A0E3           MOV      R2,#+0
   \   00000074   0530A0E1           MOV      R3,R5
   \   00000078   1C008DE2           ADD      R0,SP,#+28
   \   0000007C   ........           _BLF     ??assign,??assign??rA
   \   00000080   C0119FE5           LDR      R1,??cbConfigWarning_1+0xC  ;; HWOverviewWarningsString
   \   00000084   0530A0E1           MOV      R3,R5
   \   00000088   0020A0E3           MOV      R2,#+0
   \   0000008C   1C008DE2           ADD      R0,SP,#+28
   \   00000090   ........           _BLF     ??append,??append??rA
   \   00000094   0060A0E1           MOV      R6,R0
   \   00000098   0020A0E3           MOV      R2,#+0
   \   0000009C   0210A0E1           MOV      R1,R2
   \   000000A0   70008DE2           ADD      R0,SP,#+112
   \   000000A4   ........           _BLF     ??_Tidy,??_Tidy??rA
   \   000000A8   0530A0E1           MOV      R3,R5
   \   000000AC   0020A0E3           MOV      R2,#+0
   \   000000B0   0610A0E1           MOV      R1,R6
   \   000000B4   70008DE2           ADD      R0,SP,#+112
   \   000000B8   ........           _BLF     ??assign,??assign??rA
   \   000000BC   0020A0E3           MOV      R2,#+0
   \   000000C0   0110A0E3           MOV      R1,#+1
   \   000000C4   1C008DE2           ADD      R0,SP,#+28
   \   000000C8   ........           _BLF     ??_Tidy,??_Tidy??rA
   \   000000CC   0020A0E3           MOV      R2,#+0
   \   000000D0   0210A0E1           MOV      R1,R2
   \   000000D4   38008DE2           ADD      R0,SP,#+56
   \   000000D8   ........           _BLF     ??_Tidy,??_Tidy??rA
   \   000000DC   0530A0E1           MOV      R3,R5
   \   000000E0   0020A0E3           MOV      R2,#+0
   \   000000E4   70108DE2           ADD      R1,SP,#+112
   \   000000E8   38008DE2           ADD      R0,SP,#+56
   \   000000EC   ........           _BLF     ??assign,??assign??rA
   \   000000F0   54119FE5           LDR      R1,??cbConfigWarning_1+0x10  ;; RestoreSettingsWarningsString
   \   000000F4   0530A0E1           MOV      R3,R5
   \   000000F8   0020A0E3           MOV      R2,#+0
   \   000000FC   38008DE2           ADD      R0,SP,#+56
   \   00000100   ........           _BLF     ??append,??append??rA
   \   00000104   0060A0E1           MOV      R6,R0
   \   00000108   0020A0E3           MOV      R2,#+0
   \   0000010C   0210A0E1           MOV      R1,R2
   \   00000110   54008DE2           ADD      R0,SP,#+84
   \   00000114   ........           _BLF     ??_Tidy,??_Tidy??rA
   \   00000118   0530A0E1           MOV      R3,R5
   \   0000011C   0020A0E3           MOV      R2,#+0
   \   00000120   0610A0E1           MOV      R1,R6
   \   00000124   54008DE2           ADD      R0,SP,#+84
   \   00000128   ........           _BLF     ??assign,??assign??rA
   \   0000012C   0020A0E3           MOV      R2,#+0
   \   00000130   0110A0E3           MOV      R1,#+1
   \   00000134   38008DE2           ADD      R0,SP,#+56
   \   00000138   ........           _BLF     ??_Tidy,??_Tidy??rA
   \   0000013C   54108DE2           ADD      R1,SP,#+84
   \   00000140   0D00A0E1           MOV      R0,SP
   \   00000144   ........           _BLF     ??AnsiString_1,??AnsiString??rA_1
   \   00000148   0020A0E3           MOV      R2,#+0
   \   0000014C   0110A0E3           MOV      R1,#+1
   \   00000150   54008DE2           ADD      R0,SP,#+84
   \   00000154   ........           _BLF     ??_Tidy,??_Tidy??rA
   \   00000158   0020A0E3           MOV      R2,#+0
   \   0000015C   0110A0E3           MOV      R1,#+1
   \   00000160   70008DE2           ADD      R0,SP,#+112
   \   00000164   ........           _BLF     ??_Tidy,??_Tidy??rA
     68                      int length1 = WarningString.length();
     69                      if (length1 > 4000) WarningString.resize(4000);
   \   00000168   14009DE5           LDR      R0,[SP, #+20]
   \   0000016C   A110A0E3           MOV      R1,#+161
   \   00000170   F01E81E3           ORR      R1,R1,#0xF00
   \   00000174   010050E1           CMP      R0,R1
   \   00000178   0A0000BA           BLT      ??cbConfigWarning_7
   \   0000017C   FA0E50E3           CMP      R0,#+4000
   \   00000180   0400003A           BCC      ??cbConfigWarning_8
   \   00000184   0520A0E1           MOV      R2,R5
   \   00000188   FA1EA0E3           MOV      R1,#+4000
   \   0000018C   0D00A0E1           MOV      R0,SP
   \   00000190   ........           _BLF     ??erase,??erase??rA
   \   00000194   030000EA           B        ??cbConfigWarning_7
   \                     ??cbConfigWarning_8:
   \   00000198   0020A0E3           MOV      R2,#+0
   \   0000019C   FA1E60E2           RSB      R1,R0,#+4000
   \   000001A0   0D00A0E1           MOV      R0,SP
   \   000001A4   ........           _BLF     ??append_1,??append??rA_1
     70                      MULTIEDIT_SetText(WinPtr->hConfigWarning, WarningString.c_str());
   \                     ??cbConfigWarning_7:
   \   000001A8   18009DE5           LDR      R0,[SP, #+24]
   \   000001AC   100050E3           CMP      R0,#+16
   \   000001B0   ........           LDR      R0,??DataTable4  ;; ??WinPtr
   \   000001B4   04109D25           LDRCS    R1,[SP, #+4]
   \   000001B8   000090E5           LDR      R0,[R0, #+0]
   \   000001BC   04108D32           ADDCC    R1,SP,#+4
   \   000001C0   F603D0E1           LDRSH    R0,[R0, #+54]
   \   000001C4   ........           _BLF     MULTIEDIT_SetText,??MULTIEDIT_SetText??rA
     71                  }
   \   000001C8   0020A0E3           MOV      R2,#+0
   \   000001CC   0110A0E3           MOV      R1,#+1
   \   000001D0   0D00A0E1           MOV      R0,SP
   \   000001D4   ........           _BLF     ??_Tidy,??_Tidy??rA
     72                  ConfigWarnings->UpdateLanguage();
   \   000001D8   000094E5           LDR      R0,[R4, #+0]
   \   000001DC   ........           _BLF     ??UpdateLanguage,??UpdateLanguage??rA
   \                     ??cbConfigWarning_2:
   \   000001E0   8CD08DE2           ADD      SP,SP,#+140
   \   000001E4   7040BDE8           POP      {R4-R6,LR}
   \   000001E8   1EFF2FE1           BX       LR
     73                  break;
     74              case WM_TOUCH_CHILD:
     75                  break;
     76              case WM_KEY:
     77                  //switch (((WM_KEY_INFO*)(pMsg->Data.p))->Key)
     78                  //{
     79                  //	case GUI_KEY_ESCAPE:
     80                  //			GUI_EndDialog(hWin, 1);
     81                  //		break;
     82                  //	case GUI_KEY_ENTER:
     83                  //			GUI_EndDialog(hWin, 0);
     84                  //		break;
     85                  //}
     86                  break;
     87              case WM_NOTIFY_PARENT:
     88                  Id    = WM_GetId(pMsg->hWinSrc);    /* Id of widget */
   \                     ??cbConfigWarning_5:
   \   000001EC   F600D5E1           LDRSH    R0,[R5, #+6]
   \   000001F0   ........           _BLF     WM_GetId,??WM_GetId??rA
     89                  NCode = pMsg->Data.v;               /* Notification code */
     90                  switch ( NCode ) {
   \   000001F4   081095E5           LDR      R1,[R5, #+8]
   \   000001F8   020051E3           CMP      R1,#+2
     91                  case WM_NOTIFICATION_RELEASED:    /* React only if released */
     92                      switch ( Id ) {
   \   000001FC   05005003           CMPEQ    R0,#+5
   \   00000200   F6FFFF1A           BNE      ??cbConfigWarning_2
     93                      case GUI_ID_CLOSE:   /* Close Button */
     94                          CurrentWinID = TDU_SYSTEM_WIN;
   \   00000204   44009FE5           LDR      R0,??cbConfigWarning_1+0x14  ;; CurrentWinID
   \   00000208   6910A0E3           MOV      R1,#+105
   \   0000020C   801E81E3           ORR      R1,R1,#0x800
   \   00000210   001080E5           STR      R1,[R0, #+0]
     95                          ConfigWarnings->CloseTimer.Stop();
   \   00000214   001094E5           LDR      R1,[R4, #+0]
   \   00000218   3C0081E2           ADD      R0,R1,#+60
   \   0000021C   581091E5           LDR      R1,[R1, #+88]
   \   00000220   001091E5           LDR      R1,[R1, #+0]
   \   00000224   0FE0A0E1           MOV      LR,PC
   \   00000228   11FF2FE1           BX       R1
   \   0000022C   EBFFFFEA           B        ??cbConfigWarning_2
     96                         // WM_BringToBottom(ConfigWarnings->WinHandl);
     97                          break;
     98                      }
     99                      break;
    100                  }
    101                  break;
    102              default:
    103                  WM_DefaultProc(pMsg);
   \                     ??cbConfigWarning_6:
   \   00000230   0500A0E1           MOV      R0,R5
   \   00000234   ........           _BLF     WM_DefaultProc,??WM_DefaultProc??rA
    104              }
    105          }
   \                     ??cbConfigWarning_9:
   \   00000238   E8FFFFEA           B        ??cbConfigWarning_2
   \                     ??cbConfigWarning_1:
   \   0000023C   ........           DC32     ConfigWarnings
   \   00000240   ........           DC32     ??npos
   \   00000244   ........           DC32     ConfigWarningsString
   \   00000248   ........           DC32     HWOverviewWarningsString
   \   0000024C   ........           DC32     RestoreSettingsWarningsString
   \   00000250   ........           DC32     CurrentWinID

   \                                 In segment DIFUNCT, align 4, keep-with-next, root
   \   00000000                      REQUIRE ?call_ctors
   \   00000000   ........           DC32    ??__sti__routine

   \                                 In segment DATA_C, align 4, align-sorted
   \                     `?<Constant "Config or Settings fi...">`:
   \   00000000   436F6E666967       DC8 "Config or Settings file Error"
   \              206F72205365
   \              7474696E6773
   \              2066696C6520
   \              4572726F7200
   \   0000001E   0000               DC8 0, 0

   \                                 In segment DATA_C, align 4, align-sorted
   \                     `?<Constant "Text">`:
   \   00000000   5465787400         DC8 "Text"
   \   00000005   000000             DC8 0, 0, 0

   \                                 In segment DATA_C, align 4, align-sorted
   \                     `?<Constant "Continue">`:
   \   00000000   436F6E74696E       DC8 "Continue"
   \              756500      
   \   00000009   000000             DC8 0, 0, 0

   \                                 In segment DATA_C, align 4, align-sorted
   \                     `?<Constant {{2203, 0, 84}, {5, 0, 86}, {352, 0`:
   \   00000000   9B0800000000       DC32 2203, 0, 84, 5, 0, 86, 352, 0, 85
   \              000054000000
   \              050000000000
   \              000056000000
   \              600100000000
   \              000055000000

   \                                 In segment CODE, align 4, keep-with-next
   \   __??Code32?? __code __interwork __atpcs TDUConfigWarning &TDUConfigWarning::new TDUConfigWarning()
   \                     `??new TDUConfigWarning`:
   \   00000000   00402DE9           PUSH     {LR}
   \   00000004   6400A0E3           MOV      R0,#+100
   \   00000008   ........           _BLF     `??operator new`,`??operator new??rA`
   \   0000000C   000050E3           CMP      R0,#+0
   \   00000010   0000000A           BEQ      `??new TDUConfigWarning_1`
   \   00000014   ........           BL       ??TDUConfigWarning
   \                     `??new TDUConfigWarning_1`:
   \   00000018   0040BDE8           POP      {LR}
   \   0000001C   1EFF2FE1           BX       LR               ;; return

   \                                 In segment CODE, align 4, keep-with-next
   \   __??Code32?? __code __interwork __atpcs void TDUConfigWarning::delete ~TDUConfigWarning(TDUConfigWarning *)
   \                     `??delete ~TDUConfigWarning`:
   \   00000000   10402DE9           PUSH     {R4,LR}
   \   00000004   0040B0E1           MOVS     R4,R0
   \   00000008   0200000A           BEQ      `??delete ~TDUConfigWarning_1`
   \   0000000C   ........           BL       `?~TDUConfigWarning`
   \   00000010   0400A0E1           MOV      R0,R4
   \   00000014   ........           _BLF     `??operator delete`,`??operator delete??rA`
   \                     `??delete ~TDUConfigWarning_1`:
   \   00000018   1040BDE8           POP      {R4,LR}
   \   0000001C   1EFF2FE1           BX       LR               ;; return

   \                                 In segment CODE, align 4, keep-with-next
   \   static __??Code32?? __intrinsic __code __interwork __atpcs void __sti__routine()
   \                     ??__sti__routine:
   \   00000000   1C109FE5           LDR      R1,??__sti__routine_1  ;; GUI_Font16_1
   \   00000004   ........           LDR      R0,??DataTable3  ;; TDU_FONT_PW
   \   00000008   30002DE9           PUSH     {R4,R5}
   \   0000000C   3C10B1E8           LDM      R1!,{R2-R5,R12}
   \   00000010   3C10A0E8           STM      R0!,{R2-R5,R12}
   \   00000014   1C1091E8           LDM      R1,{R2-R4,R12}
   \   00000018   1C1080E8           STM      R0,{R2-R4,R12}
   \   0000001C   3000BDE8           POP      {R4,R5}
   \   00000020   1EFF2FE1           BX       LR               ;; return
   \                     ??__sti__routine_1:
   \   00000024   ........           DC32     GUI_Font16_1

   \                                 In segment CODE, align 4, keep-with-next
   \                     ??DataTable3:
   \   00000000   ........           DC32     TDU_FONT_PW

   \                                 In segment CODE, align 4, keep-with-next
   \                     ??DataTable4:
   \   00000000   ........           DC32     ??WinPtr

   Maximum stack usage in bytes:

     Function                       CSTACK
     --------                       ------
     TDUConfigWarning::ExecDialogBox(GUI_HWIN)
                                       72
     TDUConfigWarning::TDUConfigWarning()
                                       48
     TDUConfigWarning::cbConfigWarning(WM_MESSAGE *)
                                      156
     TDUConfigWarning::delete ~TDUConfigWarning(TDUConfigWarning *)
                                        8
     TDUConfigWarning::new TDUConfigWarning()
                                        4
     TDUConfigWarning::~TDUConfigWarning()
                                        8
     __sti__routine()                   8


   Segment part sizes:

     Function/Label                 Bytes
     --------------                 -----
     TDU_FONT_PW                      36
     TDUConfigWarning::WinPtr          4
     TDUConfigWarning::~TDUConfigWarning()
                                      44
     TDUConfigWarning::TDUConfigWarning()
                                     108
     ?<Constant "There are fault in th...">
                                     156
     TDUConfigWarning::ExecDialogBox(GUI_HWIN)
                                     356
     TDUConfigWarning::cbConfigWarning(WM_MESSAGE *)
                                     596
     ?<Constant "Config or Settings fi...">
                                      32
     ?<Constant "Text">                8
     ?<Constant "Continue">           12
     ?<Constant {{2203, 0, 84}, {5, 0, 86}, {352, 0
                                      36
     TDUConfigWarning::new TDUConfigWarning()
                                      32
     TDUConfigWarning::delete ~TDUConfigWarning(TDUConfigWarning *)
                                      32
     __sti__routine()                 40
     ??DataTable3                      4
     ??DataTable4                      4
      Others                         380

 
 1 580 bytes in segment CODE
   244 bytes in segment DATA_C
    40 bytes in segment DATA_Z
     4 bytes in segment DIFUNCT
    12 bytes in segment INITTAB
 
 1 220 bytes of CODE  memory (+ 376 bytes shared)
   244 bytes of CONST memory
    40 bytes of DATA  memory

Errors: none
Warnings: none
