##############################################################################
#                                                                            #
# IAR ARM ANSI C/C++ Compiler V4.42A/W32               14/Sep/2022  15:18:16 #
# Copyright 1999-2005 IAR Systems. All rights reserved.                      #
#                                                                            #
#    Cpu mode        =  interwork                                            #
#    Endian          =  little                                               #
#    Stack alignment =  4                                                    #
#    Source file     =  D:\S2Prog\TXU\src\TDUConfigLoginWin.cpp              #
#    Command line    =  D:\S2Prog\TXU\src\TDUConfigLoginWin.cpp --fpu None   #
#                       -D OS_LIBMODE_SP -D CPU_S3C2410 -D OS_RAMVECT=0 -D   #
#                       OS_UART=-1 -D S2TXU -D USE_LZO=1 -D __ARM_LIBRARY__  #
#                       -D WATCHDOG=1 -D NETWORK=1 -lCN                      #
#                       D:\S2Prog\TXU\Debug\List\ -o                         #
#                       D:\S2Prog\TXU\Debug\Obj\ -s9 --debug --cpu_mode arm  #
#                       --endian little --cpu ARM920T --stack_align 4        #
#                       --interwork -e --enable_multibytes --eec++           #
#                       --dlib_config "C:\Program Files (x86)\IAR            #
#                       Systems\Embedded Workbench                           #
#                       4.0\arm\LIB\dl4tpainl8n.h" -I                        #
#                       D:\S2Prog\TXU\GUI\CORE\ -I D:\S2Prog\TXU\GUI\WM\ -I  #
#                       D:\S2Prog\TXU\GUI\WIDGET\ -I D:\S2Prog\TXU\CONFIG\   #
#                       -I D:\S2Prog\TXU\INC\ -I D:\S2Prog\TXU\..\SHARED\INC #
#                       \ -I D:\S2Prog\TXU\..\SHARED\SRC\ -I                 #
#                       D:\S2Prog\TXU\..\SHARED\LZO\minilzo.210\ -I          #
#                       D:\S2Prog\TXU\lwip-1.4.1\src\include\ -I             #
#                       D:\S2Prog\TXU\lwip-1.4.1\src\include\ipv4\ -I        #
#                       D:\S2Prog\TXU\lwip-1.4.1\src\ -I                     #
#                       D:\S2Prog\TXU\..\SHARED\Database\ -I                 #
#                       D:\S2Prog\TXU\src\ -I "C:\Program Files (x86)\IAR    #
#                       Systems\Embedded Workbench 4.0\arm\INC\"             #
#                       --inline_threshold=2                                 #
#    List file       =  D:\S2Prog\TXU\Debug\List\TDUConfigLoginWin.lst       #
#    Object file     =  D:\S2Prog\TXU\Debug\Obj\TDUConfigLoginWin.r79        #
#                                                                            #
#                                                                            #
##############################################################################

D:\S2Prog\TXU\src\TDUConfigLoginWin.cpp
      1          #include "TDUIncludes.h"
      2          

   \                                 In segment CODE, align 4, keep-with-next
      3          TDUConfigLoginWin::~TDUConfigLoginWin(void)
      4          {
   \                     `?~TDUConfigLoginWin`:
   \   00000000   00402DE9           PUSH     {LR}
      5          }
   \   00000004   040080E2           ADD      R0,R0,#+4
   \   00000008   ........           _BLF     `?~CloseWindowTimer`,`?~CloseWindowTimer??rA`
   \   0000000C   0040BDE8           POP      {LR}
   \   00000010   1EFF2FE1           BX       LR               ;; return
      6          

   \                                 In segment CODE, align 4, keep-with-next
      7          TDUConfigLoginWin::TDUConfigLoginWin(void)
   \                     ??TDUConfigLoginWin:
   \   00000000   10402DE9           PUSH     {R4,LR}
   \   00000004   0040A0E1           MOV      R4,R0
      8          {
   \   00000008   040084E2           ADD      R0,R4,#+4
   \   0000000C   ........           _BLF     ??CloseWindowTimer,??CloseWindowTimer??rA
      9          	Closed = true;
   \   00000010   0100A0E3           MOV      R0,#+1
   \   00000014   0200C4E5           STRB     R0,[R4, #+2]
     10          }
   \   00000018   0400A0E1           MOV      R0,R4
   \   0000001C   1040BDE8           POP      {R4,LR}
   \   00000020   1EFF2FE1           BX       LR               ;; return
     11          

   \                                 In segment DATA_C, align 4, align-sorted
     12          const GUI_WIDGET_CREATE_INFO TDUConfigLoginWin::aDialogCreate[] =
   \                     ??aDialogCreate:
   \   00000000   ............       DC32 FRAMEWIN_CreateIndirect, `?<Constant "Configuration">`
   \              ....        
   \   00000008   000064002800       DC16 0, 100, 40, 110, 120, 16
   \              6E0078001000
   \   00000014   00000000....       DC32 0, BUTTON_CreateIndirect, `?<Constant "Close">`
   \              ............
   \   00000020   050014004600       DC16 5, 20, 70, 60, 20
   \              3C001400    
   \   0000002A   000000000000       DC8 0, 0, 0, 0, 0, 0
   \   00000030   ............       DC32 TEXT_CreateIndirect, `?<Constant "Enter pin code:">`
   \              ....        
   \   00000038   60010A000A00       DC16 352, 10, 10, 148, 26, 0
   \              94001A000000
   \   00000044   00000000           DC8 0, 0, 0, 0
   \   00000048   ........0000       DC32 EDIT_CreateIndirect, 0H
   \              0000        
   \   00000050   00010A002800       DC16 256, 10, 40, 76, 15, 1
   \              4C000F000100
   \   0000005C   14000000           DC32 20
     13          {
     14          	{ FRAMEWIN_CreateIndirect, "Configuration",         0, 100, 40, 110, 120, FRAMEWIN_CF_MOVEABLE, 0 },
     15          	{ BUTTON_CreateIndirect, "Close",     GUI_ID_CLOSE   , 20,  70,  60, 20 },
     16          	{ TEXT_CreateIndirect, "Enter pin code:",GUI_ID_TEXT0, 10,  10,  148, 26, TEXT_CF_LEFT },
     17          	{ EDIT_CreateIndirect,  NULL,            GUI_ID_EDIT0, 10,  40, 76, 15, GUI_TA_RIGHT, 20},
     18          };
     19          

   \                                 In segment CODE, align 4, keep-with-next
     20          void TDUConfigLoginWin::ExecDialogBox(WM_HWIN hCurrentWin)
     21          {
   \                     ??ExecDialogBox:
   \   00000000   30402DE9           PUSH     {R4,R5,LR}
   \   00000004   0040A0E1           MOV      R4,R0
     22          	if ( !Closed ) {
   \   00000008   0200D4E5           LDRB     R0,[R4, #+2]
   \   0000000C   0150A0E1           MOV      R5,R1
   \   00000010   000050E3           CMP      R0,#+0
   \   00000014   0700001A           BNE      ??ExecDialogBox_1
     23          		if ( WinHandl ) {
   \   00000018   F000D4E1           LDRSH    R0,[R4, #+0]
   \   0000001C   000050E3           CMP      R0,#+0
   \   00000020   0500000A           BEQ      ??ExecDialogBox_2
     24          			CloseTimer.Stop();
   \   00000024   201094E5           LDR      R1,[R4, #+32]
   \   00000028   040084E2           ADD      R0,R4,#+4
   \   0000002C   001091E5           LDR      R1,[R1, #+0]
   \   00000030   0FE0A0E1           MOV      LR,PC
   \   00000034   11FF2FE1           BX       R1
     25          		}
     26          	}
     27          	Closed = false;
   \                     ??ExecDialogBox_1:
   \   00000038   0000A0E3           MOV      R0,#+0
     28          	WinHandl = GUI_CreateDialogBox(aDialogCreate, GUI_COUNTOF(aDialogCreate),&cbConfigKey,
     29          												hCurrentWin, 0, 0);
   \                     ??ExecDialogBox_2:
   \   0000003C   50209FE5           LDR      R2,??ExecDialogBox_3  ;; ??cbConfigKey
   \   00000040   0200C4E5           STRB     R0,[R4, #+2]
   \   00000044   0000A0E3           MOV      R0,#+0
   \   00000048   01002DE9           PUSH     {R0}
   \   0000004C   01002DE9           PUSH     {R0}
   \   00000050   40009FE5           LDR      R0,??ExecDialogBox_3+0x4  ;; ??aDialogCreate
   \   00000054   0530A0E1           MOV      R3,R5
   \   00000058   0410A0E3           MOV      R1,#+4
   \   0000005C   ........           _BLF     GUI_CreateDialogBox,??GUI_CreateDialogBox??rA
   \   00000060   B000C4E1           STRH     R0,[R4, #+0]
     30          	CloseTimer.Init(WinHandl,true,&Closed,TimeOut);
   \   00000064   6000A0E3           MOV      R0,#+96
   \   00000068   EA0C80E3           ORR      R0,R0,#0xEA00
   \   0000006C   01002DE9           PUSH     {R0}
   \   00000070   F010D4E1           LDRSH    R1,[R4, #+0]
   \   00000074   023084E2           ADD      R3,R4,#+2
   \   00000078   0120A0E3           MOV      R2,#+1
   \   0000007C   040084E2           ADD      R0,R4,#+4
   \   00000080   ........           _BLF     ??Init,??Init??rA
     31            WM_EnableMemdev(WinHandl);
   \   00000084   F000D4E1           LDRSH    R0,[R4, #+0]
   \   00000088   ........           _BLF     WM_EnableMemdev,??WM_EnableMemdev??rA
     32          }
   \   0000008C   3740BDE8           POP      {R0-R2,R4,R5,LR}
   \   00000090   1EFF2FE1           BX       LR               ;; return
   \                     ??ExecDialogBox_3:
   \   00000094   ........           DC32     ??cbConfigKey
   \   00000098   ........           DC32     ??aDialogCreate
     33          

   \                                 In segment CODE, align 4, keep-with-next
     34          void TDUConfigLoginWin::cbConfigKey(WM_MESSAGE *pMsg)
     35          {
   \                     ??cbConfigKey:
   \   00000000   F0402DE9           PUSH     {R4-R7,LR}
     36          	int NCode, Id;
     37          	WM_HWIN hWin = pMsg->hWin;
     38          	switch (pMsg->MsgId)
   \   00000004   B0709FE5           LDR      R7,??cbConfigKey_1  ;; SystemWindow
   \   00000008   0050A0E1           MOV      R5,R0
   \   0000000C   001095E5           LDR      R1,[R5, #+0]
   \   00000010   F460D5E1           LDRSH    R6,[R5, #+4]
   \   00000014   F600D5E1           LDRSH    R0,[R5, #+6]
   \   00000018   0D1051E2           SUBS     R1,R1,#+13
   \   0000001C   0B00000A           BEQ      ??cbConfigKey_2
   \   00000020   011051E2           SUBS     R1,R1,#+1
   \   00000024   1500000A           BEQ      ??cbConfigKey_3
   \   00000028   0F1051E2           SUBS     R1,R1,#+15
   \   0000002C   0200000A           BEQ      ??cbConfigKey_4
   \   00000030   091051E2           SUBS     R1,R1,#+9
   \   00000034   1300000A           BEQ      ??cbConfigKey_5
   \   00000038   1C0000EA           B        ??cbConfigKey_6
     39          	{
     40          		case WM_INIT_DIALOG:
     41          			SystemWindow->SysWin1->InitConfigLoginWin(hWin);
   \                     ??cbConfigKey_4:
   \   0000003C   000097E5           LDR      R0,[R7, #+0]
   \   00000040   0610A0E1           MOV      R1,R6
   \   00000044   580090E5           LDR      R0,[R0, #+88]
   \   00000048   ........           _BLF     ??InitConfigLoginWin,??InitConfigLoginWin??rA
   \   0000004C   0B0000EA           B        ??cbConfigKey_3
     42          		break;
     43          		case WM_TOUCH_CHILD:
     44          			Id    = WM_GetId(pMsg->hWinSrc);    /* Id of widget */
   \                     ??cbConfigKey_2:
   \   00000050   ........           _BLF     WM_GetId,??WM_GetId??rA
   \   00000054   0040A0E1           MOV      R4,R0
     45          			NCode = pMsg->Data.v;               /* Notification code */
     46          			switch(Id){
   \   00000058   400F50E3           CMP      R0,#+256
   \   0000005C   0700001A           BNE      ??cbConfigKey_3
     47          				case GUI_ID_EDIT0:
     48          					{
     49                        KeyBoard->ExecKeyBoardPinCode(WM_GetClientWindow(hWin),L_WORD664,Id);	//"Enter Pin code: "
   \   00000060   0600A0E1           MOV      R0,R6
   \   00000064   ........           _BLF     WM_GetClientWindow,??WM_GetClientWindow??rA
   \   00000068   0010A0E1           MOV      R1,R0
   \   0000006C   4C009FE5           LDR      R0,??cbConfigKey_1+0x4  ;; KeyBoard
   \   00000070   0430A0E1           MOV      R3,R4
   \   00000074   000090E5           LDR      R0,[R0, #+0]
   \   00000078   A62FA0E3           MOV      R2,#+664
   \   0000007C   ........           _BLF     ??ExecKeyBoardPinCode,??ExecKeyBoardPinCode??rA
   \                     ??cbConfigKey_3:
   \   00000080   F040BDE8           POP      {R4-R7,LR}
   \   00000084   1EFF2FE1           BX       LR
     50          					}
     51          					break;
     52          			}
     53          		break;
     54          		case WM_KEY:
     55          			//switch (((WM_KEY_INFO*)(pMsg->Data.p))->Key)
     56          			//{
     57          			//	case GUI_KEY_ESCAPE:
     58          			//			GUI_EndDialog(hWin, 1);
     59          			//		break;
     60          			//	case GUI_KEY_ENTER:
     61          			//			GUI_EndDialog(hWin, 0);
     62          			//		break;
     63          			//}
     64          		break;
     65          		case WM_NOTIFY_PARENT:
     66          			Id    = WM_GetId(pMsg->hWinSrc);    /* Id of widget */
   \                     ??cbConfigKey_5:
   \   00000088   ........           _BLF     WM_GetId,??WM_GetId??rA
   \   0000008C   0040A0E1           MOV      R4,R0
     67          			NCode = pMsg->Data.v;               /* Notification code */
     68          			switch (NCode)
   \   00000090   080095E5           LDR      R0,[R5, #+8]
   \   00000094   020050E3           CMP      R0,#+2
     69          			{
     70          				case WM_NOTIFICATION_RELEASED:  /* React only if released */
     71          					switch(Id)
   \   00000098   05005403           CMPEQ    R4,#+5
   \   0000009C   F7FFFF1A           BNE      ??cbConfigKey_3
     72          					{
     73          						case GUI_ID_CLOSE:   /* Close Button */
     74          							SystemWindow->SysWin1->CloseSysWin();
   \   000000A0   000097E5           LDR      R0,[R7, #+0]
   \   000000A4   580090E5           LDR      R0,[R0, #+88]
   \   000000A8   ........           _BLF     ??CloseSysWin,??CloseSysWin??rA
   \   000000AC   F3FFFFEA           B        ??cbConfigKey_3
     75          						break;
     76          					}
     77          				break;
     78          			}
     79          		break;
     80          		default:
     81          		WM_DefaultProc(pMsg);
   \                     ??cbConfigKey_6:
   \   000000B0   0500A0E1           MOV      R0,R5
   \   000000B4   ........           _BLF     WM_DefaultProc,??WM_DefaultProc??rA
     82          	}
     83          }
   \                     ??cbConfigKey_7:
   \   000000B8   F0FFFFEA           B        ??cbConfigKey_3
   \                     ??cbConfigKey_1:
   \   000000BC   ........           DC32     SystemWindow
   \   000000C0   ........           DC32     KeyBoard

   \                                 In segment DIFUNCT, align 4, keep-with-next, root
   \   00000000                      REQUIRE ?call_ctors
   \   00000000   ........           DC32    ??__sti__routine

   \                                 In segment DATA_C, align 4, align-sorted
   \                     `?<Constant "Configuration">`:
   \   00000000   436F6E666967       DC8 "Configuration"
   \              75726174696F
   \              6E00        
   \   0000000E   0000               DC8 0, 0

   \                                 In segment DATA_C, align 4, align-sorted
   \                     `?<Constant "Close">`:
   \   00000000   436C6F736500       DC8 "Close"
   \   00000006   0000               DC8 0, 0

   \                                 In segment DATA_C, align 4, align-sorted
   \                     `?<Constant "Enter pin code:">`:
   \   00000000   456E74657220       DC8 "Enter pin code:"
   \              70696E20636F
   \              64653A00    

   \                                 In segment CODE, align 4, keep-with-next
   \   __??Code32?? __code __interwork __atpcs TDUConfigLoginWin &TDUConfigLoginWin::new TDUConfigLoginWin()
   \                     `??new TDUConfigLoginWin`:
   \   00000000   00402DE9           PUSH     {LR}
   \   00000004   2C00A0E3           MOV      R0,#+44
   \   00000008   ........           _BLF     `??operator new`,`??operator new??rA`
   \   0000000C   000050E3           CMP      R0,#+0
   \   00000010   0000000A           BEQ      `??new TDUConfigLoginWin_1`
   \   00000014   ........           BL       ??TDUConfigLoginWin
   \                     `??new TDUConfigLoginWin_1`:
   \   00000018   0040BDE8           POP      {LR}
   \   0000001C   1EFF2FE1           BX       LR               ;; return

   \                                 In segment CODE, align 4, keep-with-next
   \   __??Code32?? __code __interwork __atpcs void TDUConfigLoginWin::delete ~TDUConfigLoginWin(TDUConfigLoginWin *)
   \                     `??delete ~TDUConfigLoginWin`:
   \   00000000   10402DE9           PUSH     {R4,LR}
   \   00000004   0040B0E1           MOVS     R4,R0
   \   00000008   0300000A           BEQ      `??delete ~TDUConfigLoginWin_1`
   \   0000000C   040084E2           ADD      R0,R4,#+4
   \   00000010   ........           _BLF     `?~CloseWindowTimer`,`?~CloseWindowTimer??rA`
   \   00000014   0400A0E1           MOV      R0,R4
   \   00000018   ........           _BLF     `??operator delete`,`??operator delete??rA`
   \                     `??delete ~TDUConfigLoginWin_1`:
   \   0000001C   1040BDE8           POP      {R4,LR}
   \   00000020   1EFF2FE1           BX       LR               ;; return

   \                                 In segment CODE, align 4, keep-with-next
   \   static __??Code32?? __intrinsic __code __interwork __atpcs void __sti__routine()
   \                     ??__sti__routine:
   \   00000000   1EFF2FE1           BX       LR               ;; return
     84          

   Maximum stack usage in bytes:

     Function                       CSTACK
     --------                       ------
     TDUConfigLoginWin::ExecDialogBox(GUI_HWIN)
                                       24
     TDUConfigLoginWin::TDUConfigLoginWin()
                                        8
     TDUConfigLoginWin::cbConfigKey(WM_MESSAGE *)
                                       20
     TDUConfigLoginWin::delete ~TDUConfigLoginWin(TDUConfigLoginWin *)
                                        8
     TDUConfigLoginWin::new TDUConfigLoginWin()
                                        4
     TDUConfigLoginWin::~TDUConfigLoginWin()
                                        4
     __sti__routine()                   0


   Segment part sizes:

     Function/Label                 Bytes
     --------------                 -----
     TDUConfigLoginWin::~TDUConfigLoginWin()
                                      20
     TDUConfigLoginWin::TDUConfigLoginWin()
                                      36
     TDUConfigLoginWin::aDialogCreate
                                      96
     TDUConfigLoginWin::ExecDialogBox(GUI_HWIN)
                                     156
     TDUConfigLoginWin::cbConfigKey(WM_MESSAGE *)
                                     196
     ?<Constant "Configuration">      16
     ?<Constant "Close">               8
     ?<Constant "Enter pin code:">    16
     TDUConfigLoginWin::new TDUConfigLoginWin()
                                      32
     TDUConfigLoginWin::delete ~TDUConfigLoginWin(TDUConfigLoginWin *)
                                      36
     __sti__routine()                  4
      Others                         188

 
 664 bytes in segment CODE
 136 bytes in segment DATA_C
   4 bytes in segment DIFUNCT
 
 484 bytes of CODE  memory (+ 184 bytes shared)
 136 bytes of CONST memory

Errors: none
Warnings: none
