##############################################################################
#                                                                            #
# IAR ARM ANSI C/C++ Compiler V4.42A/W32               14/Sep/2022  15:18:21 #
# Copyright 1999-2005 IAR Systems. All rights reserved.                      #
#                                                                            #
#    Cpu mode        =  interwork                                            #
#    Endian          =  little                                               #
#    Stack alignment =  4                                                    #
#    Source file     =  D:\S2Prog\TXU\src\TDUGroupWin.cpp                    #
#    Command line    =  D:\S2Prog\TXU\src\TDUGroupWin.cpp --fpu None -D      #
#                       OS_LIBMODE_SP -D CPU_S3C2410 -D OS_RAMVECT=0 -D      #
#                       OS_UART=-1 -D S2TXU -D USE_LZO=1 -D __ARM_LIBRARY__  #
#                       -D WATCHDOG=1 -D NETWORK=1 -lCN                      #
#                       D:\S2Prog\TXU\Debug\List\ -o                         #
#                       D:\S2Prog\TXU\Debug\Obj\ -s9 --debug --cpu_mode arm  #
#                       --endian little --cpu ARM920T --stack_align 4        #
#                       --interwork -e --enable_multibytes --eec++           #
#                       --dlib_config "C:\Program Files (x86)\IAR            #
#                       Systems\Embedded Workbench                           #
#                       4.0\arm\LIB\dl4tpainl8n.h" -I                        #
#                       D:\S2Prog\TXU\GUI\CORE\ -I D:\S2Prog\TXU\GUI\WM\ -I  #
#                       D:\S2Prog\TXU\GUI\WIDGET\ -I D:\S2Prog\TXU\CONFIG\   #
#                       -I D:\S2Prog\TXU\INC\ -I D:\S2Prog\TXU\..\SHARED\INC #
#                       \ -I D:\S2Prog\TXU\..\SHARED\SRC\ -I                 #
#                       D:\S2Prog\TXU\..\SHARED\LZO\minilzo.210\ -I          #
#                       D:\S2Prog\TXU\lwip-1.4.1\src\include\ -I             #
#                       D:\S2Prog\TXU\lwip-1.4.1\src\include\ipv4\ -I        #
#                       D:\S2Prog\TXU\lwip-1.4.1\src\ -I                     #
#                       D:\S2Prog\TXU\..\SHARED\Database\ -I                 #
#                       D:\S2Prog\TXU\src\ -I "C:\Program Files (x86)\IAR    #
#                       Systems\Embedded Workbench 4.0\arm\INC\"             #
#                       --inline_threshold=2                                 #
#    List file       =  D:\S2Prog\TXU\Debug\List\TDUGroupWin.lst             #
#    Object file     =  D:\S2Prog\TXU\Debug\Obj\TDUGroupWin.r79              #
#                                                                            #
#                                                                            #
##############################################################################

D:\S2Prog\TXU\src\TDUGroupWin.cpp
      1          #include "TDUIncludes.h"

   \                                 In segment CODE, align 4, keep-with-next
   \   __??Code32?? __code __interwork __atpcs void _Vector_impl<PRogramObjectBase *, allocator<PRogramObjectBase *>>::_Assign(_Vector_impl<PRogramObjectBase *, allocator<PRogramObjectBase *>> const &)
   \                     ??_Assign:
   \   00000000   F0402DE9           PUSH     {R4-R7,LR}
   \   00000004   04D04DE2           SUB      SP,SP,#+4
   \   00000008   0040A0E1           MOV      R4,R0
   \   0000000C   0150A0E1           MOV      R5,R1
   \   00000010   050054E1           CMP      R4,R5
   \   00000014   3500000A           BEQ      ??_Assign_1
   \   00000018   041095E5           LDR      R1,[R5, #+4]
   \   0000001C   000095E5           LDR      R0,[R5, #+0]
   \   00000020   0060A0E3           MOV      R6,#+0
   \   00000024   002041E0           SUB      R2,R1,R0
   \   00000028   2231B0E1           LSRS     R3,R2,#+2
   \   0000002C   002094E5           LDR      R2,[R4, #+0]
   \   00000030   0800001A           BNE      ??_Assign_2
   \   00000034   000052E3           CMP      R2,#+0
   \   00000038   0200000A           BEQ      ??_Assign_3
   \   0000003C   042084E5           STR      R2,[R4, #+4]
   \   00000040   0200A0E1           MOV      R0,R2
   \   00000044   ........           _BLF     `??operator delete`,`??operator delete??rA`
   \                     ??_Assign_3:
   \   00000048   006084E5           STR      R6,[R4, #+0]
   \   0000004C   046084E5           STR      R6,[R4, #+4]
   \   00000050   086084E5           STR      R6,[R4, #+8]
   \   00000054   250000EA           B        ??_Assign_1
   \                     ??_Assign_2:
   \   00000058   047094E5           LDR      R7,[R4, #+4]
   \   0000005C   027047E0           SUB      R7,R7,R2
   \   00000060   270153E1           CMP      R3,R7, LSR #+2
   \   00000064   0700008A           BHI      ??_Assign_4
   \   00000068   ........           _BLF     _Copy_a4,??_Copy_a4??rA
   \   0000006C   040095E5           LDR      R0,[R5, #+4]
   \   00000070   001095E5           LDR      R1,[R5, #+0]
   \   00000074   010040E0           SUB      R0,R0,R1
   \   00000078   001094E5           LDR      R1,[R4, #+0]
   \   0000007C   2001A0E1           LSR      R0,R0,#+2
   \   00000080   000181E0           ADD      R0,R1,R0, LSL #+2
   \   00000084   180000EA           B        ??_Assign_5
   \                     ??_Assign_4:
   \   00000088   087094E5           LDR      R7,[R4, #+8]
   \   0000008C   027047E0           SUB      R7,R7,R2
   \   00000090   270153E1           CMP      R3,R7, LSR #+2
   \   00000094   1300009A           BLS      ??_Assign_6
   \                     ??_Assign_7:
   \   00000098   000052E3           CMP      R2,#+0
   \   0000009C   0100000A           BEQ      ??_Assign_8
   \   000000A0   0200A0E1           MOV      R0,R2
   \   000000A4   ........           _BLF     `??operator delete`,`??operator delete??rA`
   \                     ??_Assign_8:
   \   000000A8   040095E5           LDR      R0,[R5, #+4]
   \   000000AC   001095E5           LDR      R1,[R5, #+0]
   \   000000B0   006084E5           STR      R6,[R4, #+0]
   \   000000B4   017050E0           SUBS     R7,R0,R1
   \   000000B8   046084E5           STR      R6,[R4, #+4]
   \   000000BC   086084E5           STR      R6,[R4, #+8]
   \   000000C0   0A00000A           BEQ      ??_Assign_1
   \   000000C4   0700A0E1           MOV      R0,R7
   \   000000C8   ........           _BLF     `??operator new`,`??operator new??rA`
   \   000000CC   000084E5           STR      R0,[R4, #+0]
   \   000000D0   0020A0E1           MOV      R2,R0
   \   000000D4   042084E5           STR      R2,[R4, #+4]
   \   000000D8   020087E0           ADD      R0,R7,R2
   \   000000DC   080084E5           STR      R0,[R4, #+8]
   \   000000E0   041095E5           LDR      R1,[R5, #+4]
   \   000000E4   000095E5           LDR      R0,[R5, #+0]
   \                     ??_Assign_6:
   \   000000E8   ........           _BLF     _Copy_a4,??_Copy_a4??rA
   \                     ??_Assign_5:
   \   000000EC   040084E5           STR      R0,[R4, #+4]
   \                     ??_Assign_1:
   \   000000F0   F140BDE8           POP      {R0,R4-R7,LR}
   \   000000F4   1EFF2FE1           BX       LR               ;; return

   \                                 In segment CODE, align 4, keep-with-next
   \   __??Code32?? __code __interwork __atpcs AnsiString::~AnsiString()
   \                     `?~AnsiString`:
   \   00000000   00402DE9           PUSH     {LR}
   \   00000004   0020A0E3           MOV      R2,#+0
   \   00000008   0110A0E3           MOV      R1,#+1
   \   0000000C   ........           _BLF     ??_Tidy,??_Tidy??rA
   \   00000010   0040BDE8           POP      {LR}
   \   00000014   1EFF2FE1           BX       LR               ;; return
      2          

   \                                 In segment DATA_C, align 4, align-sorted
      3          const int TDUGroupWin::NumUnitsOnPage=11;
   \                     ??NumUnitsOnPage:
   \   00000000   0B000000           DC32 11
      4          

   \                                 In segment CODE, align 4, keep-with-next
      5          TDUGroupWin::~TDUGroupWin(void)
      6          {
   \                     `?~TDUGroupWin`:
   \   00000000   30402DE9           PUSH     {R4,R5,LR}
   \   00000004   0040A0E1           MOV      R4,R0
   \   00000008   ........           LDR      R0,??DataTable1  ;; ??__vtbl
      7          	delete ValueTable;
      8          }
   \   0000000C   585084E2           ADD      R5,R4,#+88
   \   00000010   440084E5           STR      R0,[R4, #+68]
   \   00000014   7C0094E5           LDR      R0,[R4, #+124]
   \   00000018   ........           _BLF     `??operator delete`,`??operator delete??rA`
   \   0000001C   000095E5           LDR      R0,[R5, #+0]
   \   00000020   000050E3           CMP      R0,#+0
   \   00000024   0200000A           BEQ      `?~TDUGroupWin_1`
   \   00000028   040085E5           STR      R0,[R5, #+4]
   \   0000002C   ........           _BLF     `??operator delete`,`??operator delete??rA`
   \   00000030   0000A0E3           MOV      R0,#+0
   \                     `?~TDUGroupWin_1`:
   \   00000034   000085E5           STR      R0,[R5, #+0]
   \   00000038   040085E5           STR      R0,[R5, #+4]
   \   0000003C   080085E5           STR      R0,[R5, #+8]
   \   00000040   0400A0E1           MOV      R0,R4
   \   00000044   ........           _BLF     `?~TDUPresentWin`,`?~TDUPresentWin??rA`
   \   00000048   3040BDE8           POP      {R4,R5,LR}
   \   0000004C   1EFF2FE1           BX       LR               ;; return
      9          
     10          

   \                                 In segment CODE, align 4, keep-with-next
     11          TDUGroupWin::TDUGroupWin(vector<PRogramObjectBase*> ObjVector, int WinId, TDUValueTable *DefValTable)
   \                     ??TDUGroupWin:
   \   00000000   F0432DE9           PUSH     {R4-R9,LR}
   \   00000004   1CD04DE2           SUB      SP,SP,#+28
   \   00000008   0040A0E1           MOV      R4,R0
   \   0000000C   0180A0E1           MOV      R8,R1
   \   00000010   0270A0E1           MOV      R7,R2
   \   00000014   0350A0E1           MOV      R5,R3
     12          {
   \   00000018   ........           _BLF     ??TDUPresentWin,??TDUPresentWin??rA
   \   0000001C   ........           LDR      R0,??DataTable1  ;; ??__vtbl
   \   00000020   586084E2           ADD      R6,R4,#+88
   \   00000024   440084E5           STR      R0,[R4, #+68]
   \   00000028   0090A0E3           MOV      R9,#+0
   \   0000002C   009086E5           STR      R9,[R6, #+0]
   \   00000030   049086E5           STR      R9,[R6, #+4]
   \   00000034   089086E5           STR      R9,[R6, #+8]
     13          //Initiation:
     14          	DefValueTable  = DefValTable;
   \   00000038   805084E5           STR      R5,[R4, #+128]
     15          	ValueTable     = new TDUValueTable[TDU_WIN_COL];
   \   0000003C   3C00A0E3           MOV      R0,#+60
   \   00000040   ........           _BLF     `??operator new[]`,`??operator new[]??rA`
   \   00000044   7C0084E5           STR      R0,[R4, #+124]
     16          	memcpy(ValueTable,DefValTable,sizeof(TDUValueTable)*TDU_WIN_COL);
   \   00000048   3C20A0E3           MOV      R2,#+60
   \   0000004C   0510A0E1           MOV      R1,R5
   \   00000050   ........           _BLF     memcpy,??memcpy??rA
     17          	*ValueTable    = *DefValueTable;
   \   00000054   801094E5           LDR      R1,[R4, #+128]
   \   00000058   7C0094E5           LDR      R0,[R4, #+124]
   \   0000005C   0C1091E8           LDM      R1,{R2,R3,R12}
     18          	UserTouch      = false;
     19          	TimerCount     = 0;
     20          	CurrentPage    = 0;
     21          	// PageSize     = NumUnitsOnPage*LineHeight;
     22          	//ObjectSet
     23          	ObjectVector = ObjVector;
   \   00000060   0810A0E1           MOV      R1,R8
   \   00000064   0C1080E8           STM      R0,{R2,R3,R12}
   \   00000068   0000A0E3           MOV      R0,#+0
   \   0000006C   6800C4E5           STRB     R0,[R4, #+104]
   \   00000070   6C9084E5           STR      R9,[R4, #+108]
   \   00000074   489084E5           STR      R9,[R4, #+72]
   \   00000078   0600A0E1           MOV      R0,R6
   \   0000007C   ........           _BLF     ??_Assign,??_Assign??rA
     24          	if ( !ObjectVector.empty() ) {
   \   00000080   040096E5           LDR      R0,[R6, #+4]
   \   00000084   001096E5           LDR      R1,[R6, #+0]
   \   00000088   010040E0           SUB      R0,R0,R1
   \   0000008C   2001B0E1           LSRS     R0,R0,#+2
   \   00000090   3900000A           BEQ      ??TDUGroupWin_1
     25          		NumberOfUnits = ObjectVector.size();
   \   00000094   040096E5           LDR      R0,[R6, #+4]
   \   00000098   010040E0           SUB      R0,R0,R1
     26          		NumberOfPages = NumberOfUnits/NumUnitsOnPage;
   \   0000009C   E8109FE5           LDR      R1,??TDUGroupWin_2  ;; 0x2e8ba2e9
   \   000000A0   2001A0E1           LSR      R0,R0,#+2
   \   000000A4   4C0084E5           STR      R0,[R4, #+76]
   \   000000A8   9120C3E0           SMULL    R2,R3,R1,R0
   \   000000AC   C330A0E1           ASR      R3,R3,#+1
   \   000000B0   A01F83E0           ADD      R1,R3,R0, LSR #+31
     27          		NumberOfUnitsLastPage = NumberOfUnits - NumberOfPages*NumUnitsOnPage;
   \   000000B4   0B20A0E3           MOV      R2,#+11
   \   000000B8   920103E0           MUL      R3,R2,R1
   \   000000BC   030050E0           SUBS     R0,R0,R3
   \   000000C0   500084E5           STR      R0,[R4, #+80]
     28          		if ( NumberOfUnitsLastPage ) NumberOfPages++;
   \   000000C4   01108112           ADDNE    R1,R1,#+1
   \   000000C8   641084E5           STR      R1,[R4, #+100]
     29          		ListViewHandl = LISTVIEW_CreateAttached(WinHandl,WinId,0);
   \   000000CC   FA02D4E1           LDRSH    R0,[R4, #+42]
   \   000000D0   0020A0E3           MOV      R2,#+0
   \   000000D4   0710A0E1           MOV      R1,R7
   \   000000D8   ........           _BLF     LISTVIEW_CreateAttached,??LISTVIEW_CreateAttached??rA
   \   000000DC   B407C4E1           STRH     R0,[R4, #+116]
     30          		ListHeadHandl = LISTVIEW_GetHeader(ListViewHandl);
   \   000000E0   ........           _BLF     LISTVIEW_GetHeader,??LISTVIEW_GetHeader??rA
   \   000000E4   B207C4E1           STRH     R0,[R4, #+114]
     31          		for ( int j=0; j < TDU_WIN_COL; j++ ) {
   \   000000E8   0970A0E1           MOV      R7,R9
     32          			AnsiString vname = LibGetValue(SVT_VALUE_NAME, DefValTable[j].ValueId, ObjectVector[0],0);
   \                     ??TDUGroupWin_3:
   \   000000EC   0C00A0E3           MOV      R0,#+12
   \   000000F0   905728E0           MLA      R8,R0,R7,R5
   \   000000F4   0000A0E3           MOV      R0,#+0
   \   000000F8   01002DE9           PUSH     {R0}
   \   000000FC   01002DE9           PUSH     {R0}
   \   00000100   000096E5           LDR      R0,[R6, #+0]
   \   00000104   002098E5           LDR      R2,[R8, #+0]
   \   00000108   003090E5           LDR      R3,[R0, #+0]
   \   0000010C   B910A0E3           MOV      R1,#+185
   \   00000110   B01E81E3           ORR      R1,R1,#0xB00
   \   00000114   08008DE2           ADD      R0,SP,#+8
   \   00000118   ........           _BLF     ??LibGetValue,??LibGetValue??rA
     33          			LISTVIEW_AddColumn(ListViewHandl, DefValTable[j].PixelWidth, vname.c_str(), DefValTable[j].Align);
   \   0000011C   20009DE5           LDR      R0,[SP, #+32]
   \   00000120   08D08DE2           ADD      SP,SP,#+8
   \   00000124   083098E5           LDR      R3,[R8, #+8]
   \   00000128   041098E5           LDR      R1,[R8, #+4]
   \   0000012C   100050E3           CMP      R0,#+16
   \   00000130   F407D4E1           LDRSH    R0,[R4, #+116]
   \   00000134   04209D25           LDRCS    R2,[SP, #+4]
   \   00000138   04208D32           ADDCC    R2,SP,#+4
   \   0000013C   ........           _BLF     LISTVIEW_AddColumn,??LISTVIEW_AddColumn??rA
     34          			HEADER_SetTextAlign(ListHeadHandl,j,GUI_TA_LEFT);
   \   00000140   F207D4E1           LDRSH    R0,[R4, #+114]
   \   00000144   0020A0E3           MOV      R2,#+0
   \   00000148   0710A0E1           MOV      R1,R7
   \   0000014C   ........           _BLF     HEADER_SetTextAlign,??HEADER_SetTextAlign??rA
     35          		}
   \   00000150   0920A0E1           MOV      R2,R9
   \   00000154   0110A0E3           MOV      R1,#+1
   \   00000158   0D00A0E1           MOV      R0,SP
   \   0000015C   ........           _BLF     ??_Tidy,??_Tidy??rA
   \   00000160   017087E2           ADD      R7,R7,#+1
   \   00000164   050057E3           CMP      R7,#+5
   \   00000168   DFFFFFBA           BLT      ??TDUGroupWin_3
     36          		SetListViewColor();
   \   0000016C   0400A0E1           MOV      R0,R4
   \   00000170   ........           BL       ??SetListViewColor
     37          		TableSetup();
   \   00000174   0400A0E1           MOV      R0,R4
   \   00000178   ........           BL       ??TableSetup
     38          	}
     39          }
   \                     ??TDUGroupWin_1:
   \   0000017C   0400A0E1           MOV      R0,R4
   \   00000180   1CD08DE2           ADD      SP,SP,#+28
   \   00000184   F043BDE8           POP      {R4-R9,LR}
   \   00000188   1EFF2FE1           BX       LR               ;; return
   \                     ??TDUGroupWin_2:
   \   0000018C   E9A28B2E           DC32     0x2e8ba2e9
     40          

   \                                 In segment CODE, align 4, keep-with-next
     41          void TDUGroupWin::SetListViewColor(void)
     42          {
   \                     ??SetListViewColor:
   \   00000000   70402DE9           PUSH     {R4-R6,LR}
     43          	LISTVIEW_SetBkColor(ListViewHandl, 0, BackColor);
   \   00000004   ........           LDR      R5,??DataTable8  ;; BackColor
     44          	LISTVIEW_SetBkColor(ListViewHandl, 1, TextColor);
   \   00000008   ........           LDR      R6,??DataTable10  ;; TextColor
   \   0000000C   002095E5           LDR      R2,[R5, #+0]
   \   00000010   0040A0E1           MOV      R4,R0
   \   00000014   F407D4E1           LDRSH    R0,[R4, #+116]
   \   00000018   0010A0E3           MOV      R1,#+0
   \   0000001C   ........           _BLF     LISTVIEW_SetBkColor,??LISTVIEW_SetBkColor??rA
   \   00000020   F407D4E1           LDRSH    R0,[R4, #+116]
   \   00000024   002096E5           LDR      R2,[R6, #+0]
   \   00000028   0110A0E3           MOV      R1,#+1
   \   0000002C   ........           _BLF     LISTVIEW_SetBkColor,??LISTVIEW_SetBkColor??rA
     45          	LISTVIEW_SetBkColor(ListViewHandl, 2, TextColor);
   \   00000030   F407D4E1           LDRSH    R0,[R4, #+116]
   \   00000034   002096E5           LDR      R2,[R6, #+0]
   \   00000038   0210A0E3           MOV      R1,#+2
   \   0000003C   ........           _BLF     LISTVIEW_SetBkColor,??LISTVIEW_SetBkColor??rA
     46          	LISTVIEW_SetTextColor(ListViewHandl,0, TextColor);
   \   00000040   F407D4E1           LDRSH    R0,[R4, #+116]
   \   00000044   002096E5           LDR      R2,[R6, #+0]
   \   00000048   0010A0E3           MOV      R1,#+0
   \   0000004C   ........           _BLF     LISTVIEW_SetTextColor,??LISTVIEW_SetTextColor??rA
     47          	LISTVIEW_SetTextColor(ListViewHandl,1, BackColor);
   \   00000050   F407D4E1           LDRSH    R0,[R4, #+116]
   \   00000054   002095E5           LDR      R2,[R5, #+0]
   \   00000058   0110A0E3           MOV      R1,#+1
   \   0000005C   ........           _BLF     LISTVIEW_SetTextColor,??LISTVIEW_SetTextColor??rA
     48          	LISTVIEW_SetTextColor(ListViewHandl,2, BackColor);
   \   00000060   F407D4E1           LDRSH    R0,[R4, #+116]
   \   00000064   002095E5           LDR      R2,[R5, #+0]
   \   00000068   0210A0E3           MOV      R1,#+2
   \   0000006C   ........           _BLF     LISTVIEW_SetTextColor,??LISTVIEW_SetTextColor??rA
     49          }
   \   00000070   7040BDE8           POP      {R4-R6,LR}
   \   00000074   1EFF2FE1           BX       LR               ;; return
     50          

   \                                 In segment CODE, align 4, keep-with-next
     51          void TDUGroupWin::TableSetup(void)
     52          {
     53          	AnsiString Str[TDU_WIN_COL];
   \                     ??TableSetup:
   \   00000000   ........           LDR      R3,??DataTable19  ;; ??AnsiString
   \   00000004   F0402DE9           PUSH     {R4-R7,LR}
   \   00000008   BCD04DE2           SUB      SP,SP,#+188
   \   0000000C   0040A0E1           MOV      R4,R0
   \   00000010   1C20A0E3           MOV      R2,#+28
   \   00000014   0510A0E3           MOV      R1,#+5
   \   00000018   30008DE2           ADD      R0,SP,#+48
   \   0000001C   ........           _BLF     __data_vec_construct,??__data_vec_construct??rA
     54          	for ( unsigned Count = 0; Count<NumUnitsOnPage; Count++ ) {
   \   00000020   0050A0E3           MOV      R5,#+0
     55          		if ( Count<ObjectVector.size() ) {
   \                     ??TableSetup_1:
   \   00000024   580084E2           ADD      R0,R4,#+88
   \   00000028   041090E5           LDR      R1,[R0, #+4]
   \   0000002C   000090E5           LDR      R0,[R0, #+0]
   \   00000030   000041E0           SUB      R0,R1,R0
   \   00000034   200155E1           CMP      R5,R0, LSR #+2
   \   00000038   2000002A           BCS      ??TableSetup_2
     56          			const char *tmpLstStr[TDU_WIN_COL];
     57          			for ( int j=0; j <TDU_WIN_COL; j++ ) {
   \   0000003C   0060A0E3           MOV      R6,#+0
     58          				Str[j] = LibGetValue(ValueTable[j].ValueId, ObjectVector[Count]);
   \                     ??TableSetup_3:
   \   00000040   580094E5           LDR      R0,[R4, #+88]
   \   00000044   7C1094E5           LDR      R1,[R4, #+124]
   \   00000048   052190E7           LDR      R2,[R0, +R5, LSL #+2]
   \   0000004C   0C00A0E3           MOV      R0,#+12
   \   00000050   901621E0           MLA      R1,R0,R6,R1
   \   00000054   001091E5           LDR      R1,[R1, #+0]
   \   00000058   0030A0E3           MOV      R3,#+0
   \   0000005C   14008DE2           ADD      R0,SP,#+20
   \   00000060   ........           _BLF     ??LibGetValue_1,??LibGetValue??rA_1
   \   00000064   1C00A0E3           MOV      R0,#+28
   \   00000068   30108DE2           ADD      R1,SP,#+48
   \   0000006C   901627E0           MLA      R7,R0,R6,R1
   \   00000070   ........           LDR      R0,??DataTable12  ;; ??npos
   \   00000074   0020A0E3           MOV      R2,#+0
   \   00000078   003090E5           LDR      R3,[R0, #+0]
   \   0000007C   14108DE2           ADD      R1,SP,#+20
   \   00000080   0700A0E1           MOV      R0,R7
   \   00000084   ........           _BLF     ??assign,??assign??rA
   \   00000088   0020A0E3           MOV      R2,#+0
   \   0000008C   0110A0E3           MOV      R1,#+1
   \   00000090   14008DE2           ADD      R0,SP,#+20
   \   00000094   ........           _BLF     ??_Tidy,??_Tidy??rA
     59          				tmpLstStr[j] = Str[j].c_str();
   \   00000098   180097E5           LDR      R0,[R7, #+24]
   \   0000009C   0D10A0E1           MOV      R1,SP
   \   000000A0   100050E3           CMP      R0,#+16
   \   000000A4   04009725           LDRCS    R0,[R7, #+4]
   \   000000A8   04008732           ADDCC    R0,R7,#+4
   \   000000AC   060181E7           STR      R0,[R1, +R6, LSL #+2]
     60          			}
   \   000000B0   016086E2           ADD      R6,R6,#+1
   \   000000B4   050056E3           CMP      R6,#+5
   \   000000B8   E0FFFFBA           BLT      ??TableSetup_3
     61          			LISTVIEW_AddRow(ListViewHandl,tmpLstStr);
   \   000000BC   040000EA           B        ??TableSetup_4
     62          		} else {
     63          			const char *tmpLstStr[] = {"", "", "", "", ""};
   \                     ??TableSetup_2:
   \   000000C0   40109FE5           LDR      R1,??TableSetup_5  ;; `?<Constant {&"", &"", &"", &"", &""}>`
   \   000000C4   0D00A0E1           MOV      R0,SP
   \   000000C8   CC1091E8           LDM      R1,{R2,R3,R6,R7,R12}
     64          			LISTVIEW_AddRow(ListViewHandl,tmpLstStr);
   \   000000CC   0D10A0E1           MOV      R1,SP
   \   000000D0   CC1080E8           STM      R0,{R2,R3,R6,R7,R12}
   \                     ??TableSetup_4:
   \   000000D4   F407D4E1           LDRSH    R0,[R4, #+116]
     65          		}
     66          	}
   \   000000D8   015085E2           ADD      R5,R5,#+1
   \   000000DC   ........           _BLF     LISTVIEW_AddRow,??LISTVIEW_AddRow??rA
   \   000000E0   0B0055E3           CMP      R5,#+11
   \   000000E4   CEFFFF3A           BCC      ??TableSetup_1
     67          }
   \   000000E8   1C309FE5           LDR      R3,??TableSetup_5+0x4  ;; `?~AnsiString`
   \   000000EC   1C20A0E3           MOV      R2,#+28
   \   000000F0   0510A0E3           MOV      R1,#+5
   \   000000F4   30008DE2           ADD      R0,SP,#+48
   \   000000F8   ........           _BLF     __data_vec_destroy,??__data_vec_destroy??rA
   \   000000FC   BCD08DE2           ADD      SP,SP,#+188
   \   00000100   F040BDE8           POP      {R4-R7,LR}
   \   00000104   1EFF2FE1           BX       LR               ;; return
   \                     ??TableSetup_5:
   \   00000108   ........           DC32     `?<Constant {&"", &"", &"", &"", &""}>`
   \   0000010C   ........           DC32     `?~AnsiString`
     68          

   \                                 In segment CODE, align 4, keep-with-next
     69          void TDUGroupWin::SetButton(void)
     70          {
     71          	bool Enable[NUMBER_OF_BUTTONS]={
     72          		(bool)(NumberOfPages>1),
     73          		(bool)(NumberOfPages>1),
     74          		true,
     75          		(bool)!PROPrinter::ObjectSet.empty(),
     76          		true
     77          	};
   \                     ??SetButton:
   \   00000000   F4109FE5           LDR      R1,??SetButton_1  ;; `?<Constant {false, false, true, false, true}>`
   \   00000004   D0402DE9           PUSH     {R4,R6,R7,LR}
   \   00000008   F0609FE5           LDR      R6,??SetButton_1+0x4  ;; ??ObjectSet
     78          	ButWindow->EnableButtons(Enable);
   \   0000000C   ........           LDR      R7,??DataTable16  ;; ButWindow
   \   00000010   08D04DE2           SUB      SP,SP,#+8
   \   00000014   0C0091E8           LDM      R1,{R2,R3}
   \   00000018   0040A0E1           MOV      R4,R0
   \   0000001C   0D00A0E1           MOV      R0,SP
   \   00000020   0110A0E3           MOV      R1,#+1
   \   00000024   0C0080E8           STM      R0,{R2,R3}
   \   00000028   640094E5           LDR      R0,[R4, #+100]
   \   0000002C   020050E3           CMP      R0,#+2
   \   00000030   0120A0A3           MOVGE    R2,#+1
   \   00000034   0020A0B3           MOVLT    R2,#+0
   \   00000038   020050E3           CMP      R0,#+2
   \   0000003C   0100A0A3           MOVGE    R0,#+1
   \   00000040   0000A0B3           MOVLT    R0,#+0
   \   00000044   0100CDE5           STRB     R0,[SP, #+1]
   \   00000048   100096E5           LDR      R0,[R6, #+16]
   \   0000004C   0020CDE5           STRB     R2,[SP, #+0]
   \   00000050   000050E3           CMP      R0,#+0
   \   00000054   000097E5           LDR      R0,[R7, #+0]
   \   00000058   0010A013           MOVNE    R1,#+0
   \   0000005C   011021E2           EOR      R1,R1,#0x1
   \   00000060   0310CDE5           STRB     R1,[SP, #+3]
   \   00000064   0D10A0E1           MOV      R1,SP
   \   00000068   ........           _BLF     ??EnableButtons,??EnableButtons??rA
     79          	if ( !ObjectVector.empty() ) {
   \   0000006C   580084E2           ADD      R0,R4,#+88
   \   00000070   041090E5           LDR      R1,[R0, #+4]
   \   00000074   000090E5           LDR      R0,[R0, #+0]
   \   00000078   000041E0           SUB      R0,R1,R0
   \   0000007C   2001B0E1           LSRS     R0,R0,#+2
   \   00000080   1900000A           BEQ      ??SetButton_2
     80          		if ( !PROPrinter::ObjectSet.empty() ) {
   \   00000084   000097E5           LDR      R0,[R7, #+0]
   \   00000088   101096E5           LDR      R1,[R6, #+16]
     81          			ButWindow->ChangeButtonText(L_WORD87,L_WORD88,L_WORD89,L_WORD467,L_WORD90);
     82          		} else {
     83          			ButWindow->ChangeButtonText(L_WORD87,L_WORD88,L_WORD89,L_WORD237,L_WORD90);
   \   0000008C   5930A0E3           MOV      R3,#+89
   \   00000090   000051E3           CMP      R1,#+0
   \   00000094   5A10A0E3           MOV      R1,#+90
   \   00000098   02002DE9           PUSH     {R1}
   \   0000009C   ED10A003           MOVEQ    R1,#+237
   \   000000A0   D310A013           MOVNE    R1,#+211
   \   000000A4   401F8113           ORRNE    R1,R1,#0x100
   \   000000A8   02002DE9           PUSH     {R1}
   \   000000AC   5820A0E3           MOV      R2,#+88
   \   000000B0   5710A0E3           MOV      R1,#+87
   \   000000B4   ........           _BLF     ??ChangeButtonText,??ChangeButtonText??rA
   \   000000B8   08D08DE2           ADD      SP,SP,#+8
     84          		}
     85          		But5LangKey = L_WORD90 ;
   \   000000BC   5A00A0E3           MOV      R0,#+90
   \   000000C0   540084E5           STR      R0,[R4, #+84]
     86          		UserTouch = false;
   \   000000C4   0000A0E3           MOV      R0,#+0
   \   000000C8   6800C4E5           STRB     R0,[R4, #+104]
     87          		TimedOut = false;
   \   000000CC   7000C4E5           STRB     R0,[R4, #+112]
     88          		TimerCount=50;
   \   000000D0   3200A0E3           MOV      R0,#+50
   \   000000D4   6C0084E5           STR      R0,[R4, #+108]
     89          		SetListViewColor();
   \   000000D8   0400A0E1           MOV      R0,R4
   \   000000DC   ........           BL       ??SetListViewColor
     90          		SetGuiEvent(PWEventHandl,1,&aTCB[1]);
   \   000000E0   ........           LDR      R1,??DataTable18  ;; aTCB + 64
   \   000000E4   0100A0E3           MOV      R0,#+1
   \   000000E8   ........           _BLF     OS_SignalEvent,??OS_SignalEvent??rA
     91          	} else {
     92          	}
     93          	PaintnewHeading();
   \                     ??SetButton_2:
   \   000000EC   0400A0E1           MOV      R0,R4
   \   000000F0   ........           BL       ??PaintnewHeading
     94          }
   \   000000F4   D340BDE8           POP      {R0,R1,R4,R6,R7,LR}
   \   000000F8   1EFF2FE1           BX       LR               ;; return
   \                     ??SetButton_1:
   \   000000FC   ........           DC32     `?<Constant {false, false, true, false, true}>`
   \   00000100   ........           DC32     ??ObjectSet
     95          

   \                                 In segment CODE, align 4, keep-with-next
     96          void TDUGroupWin::PWTimer(void)
     97          {
   \                     ??PWTimer:
   \   00000000   00402DE9           PUSH     {LR}
   \   00000004   0010A0E1           MOV      R1,R0
     98          	if ( !ObjectVector.empty() ) {
   \   00000008   580081E2           ADD      R0,R1,#+88
   \   0000000C   042090E5           LDR      R2,[R0, #+4]
   \   00000010   000090E5           LDR      R0,[R0, #+0]
   \   00000014   000042E0           SUB      R0,R2,R0
   \   00000018   2001B0E1           LSRS     R0,R0,#+2
   \   0000001C   0700000A           BEQ      ??PWTimer_1
     99          		TimerCount++;
   \   00000020   6C0091E5           LDR      R0,[R1, #+108]
   \   00000024   010080E2           ADD      R0,R0,#+1
   \   00000028   6C0081E5           STR      R0,[R1, #+108]
    100          		Paintnew();
   \   0000002C   0100A0E1           MOV      R0,R1
   \   00000030   441091E5           LDR      R1,[R1, #+68]
   \   00000034   041091E5           LDR      R1,[R1, #+4]
   \   00000038   0FE0A0E1           MOV      LR,PC
   \   0000003C   11FF2FE1           BX       R1
    101          	}
    102          }
   \                     ??PWTimer_1:
   \   00000040   0040BDE8           POP      {LR}
   \   00000044   1EFF2FE1           BX       LR               ;; return
    103          

   \                                 In segment CODE, align 4, keep-with-next
    104          void TDUGroupWin::Paintnew(void)
    105          {
   \                     ??Paintnew:
   \   00000000   F04F2DE9           PUSH     {R4-R11,LR}
   \   00000004   1CD04DE2           SUB      SP,SP,#+28
   \   00000008   0040A0E1           MOV      R4,R0
    106          	if ( !ObjectVector.empty() ) {
   \   0000000C   580084E2           ADD      R0,R4,#+88
   \   00000010   041090E5           LDR      R1,[R0, #+4]
   \   00000014   000090E5           LDR      R0,[R0, #+0]
   \   00000018   000041E0           SUB      R0,R1,R0
   \   0000001C   2001B0E1           LSRS     R0,R0,#+2
   \   00000020   AF00000A           BEQ      ??Paintnew_2
    107          		if ( UserTouch ) {
   \   00000024   6800D4E5           LDRB     R0,[R4, #+104]
   \   00000028   0050A0E3           MOV      R5,#+0
   \   0000002C   000050E3           CMP      R0,#+0
   \   00000030   0400000A           BEQ      ??Paintnew_3
    108          			TimedOut = false;
   \   00000034   0000A0E3           MOV      R0,#+0
   \   00000038   7000C4E5           STRB     R0,[R4, #+112]
    109          			TimerCount = 0;
   \   0000003C   6C5084E5           STR      R5,[R4, #+108]
    110          			UserTouch = false;
   \   00000040   6800C4E5           STRB     R0,[R4, #+104]
   \   00000044   0B0000EA           B        ??Paintnew_4
    111          		} else if ( TimerCount>=4 && !TimedOut ) {
   \                     ??Paintnew_3:
   \   00000048   6C0094E5           LDR      R0,[R4, #+108]
   \   0000004C   040050E3           CMP      R0,#+4
   \   00000050   080000BA           BLT      ??Paintnew_4
   \   00000054   7000D4E5           LDRB     R0,[R4, #+112]
   \   00000058   000050E3           CMP      R0,#+0
   \   0000005C   0500001A           BNE      ??Paintnew_4
    112          			TimedOut = true;
   \   00000060   0100A0E3           MOV      R0,#+1
   \   00000064   7000C4E5           STRB     R0,[R4, #+112]
    113          			TimerCount = 0;
   \   00000068   6C5084E5           STR      R5,[R4, #+108]
    114          			LISTVIEW_SetSel(ListViewHandl,-1);
   \   0000006C   001060E2           RSB      R1,R0,#+0
   \   00000070   F407D4E1           LDRSH    R0,[R4, #+116]
   \   00000074   ........           _BLF     LISTVIEW_SetSel,??LISTVIEW_SetSel??rA
    115          		}
    116          		unsigned Index;
    117          		if ( (CurrentPage+1)==NumberOfPages && NumberOfPages>1) {
   \                     ??Paintnew_4:
   \   00000078   640094E5           LDR      R0,[R4, #+100]
   \   0000007C   481094E5           LDR      R1,[R4, #+72]
   \   00000080   012081E2           ADD      R2,R1,#+1
   \   00000084   000052E1           CMP      R2,R0
   \   00000088   0800001A           BNE      ??Paintnew_5
   \   0000008C   020050E3           CMP      R0,#+2
   \   00000090   060000BA           BLT      ??Paintnew_5
    118          			Index = ObjectVector.size()- NumUnitsOnPage;
   \   00000094   580084E2           ADD      R0,R4,#+88
   \   00000098   041090E5           LDR      R1,[R0, #+4]
   \   0000009C   000090E5           LDR      R0,[R0, #+0]
   \   000000A0   000041E0           SUB      R0,R1,R0
   \   000000A4   2001A0E1           LSR      R0,R0,#+2
   \   000000A8   0B6040E2           SUB      R6,R0,#+11
   \   000000AC   0C0000EA           B        ??Paintnew_6
    119          		} else {
    120          			Index = CurrentPage*NumUnitsOnPage;
   \                     ??Paintnew_5:
   \   000000B0   0B00A0E3           MOV      R0,#+11
   \   000000B4   900106E0           MUL      R6,R0,R1
    121          		}
    122          
    123          		for ( unsigned Count=0;!( PhysKeyPressed & TOUCH_PRESWIN_FLAG) && Count < 11 ;Count++,Index++ ) {
   \   000000B8   090000EA           B        ??Paintnew_6
    124          			if ( Index < ObjectVector.size() ) {
    125          				for ( int j=0; j<TDU_WIN_COL; j++ ) {
    126          					int ValueId = ValueTable[j].ValueId;
    127          					AnsiString str = LibGetValue(ValueId, ObjectVector[Index]);
    128          					switch (ValueId) {
    129          					case SVT_PRO_STATUS:
    130          						{
    131          							int color = TDU_C_AL_BACK_ACTIVE;
    132          							if ( (!str.compare("A")) || (!str.compare("E")) )	color = TDU_C_AL_BACK_ACTIVE;
    133          							if ( !str.compare("W") ) color = TDU_C_AL_BACK_WARNING;
    134          							LISTVIEW_SetItemTextWithColor(ListViewHandl, j, Count, str.c_str(),color, BackColor);
    135          						}
    136          						break;
    137          					case SVT_INTERFACE:
    138          						{
    139          							PROTank *TnkPtr = (PROTank*)ObjectVector[Index];
    140          							int color;
    141          							switch (TnkPtr->HasWater) {
    142          							default: color = TextColor;
    143          								break;
    144          							case WSENSOR_NO_SENSOR:color = GUI_YELLOW;break;
    145          							case WSENSOR_CARGO    :color = GUI_BROWN; break;
    146          							case WSENSOR_WATER    :color = GUI_BLUE;  break;
    147          							case WSENSOR_EMPTY    :color = GUI_GREEN; break;
    148          							case WSENSOR_LOW_LEVEL:color = GUI_YELLOW;break;
    149          							case WSENSOR_DISABLE  :color = GUI_YELLOW;break;
    150          							case WSENSOR_FAILURE  :color = GUI_RED;   break;
    151          							}
    152          							LISTVIEW_SetItemTextWithColor(ListViewHandl, j, Count, str.c_str(),color, BackColor);
    153          						}
    154          						break;
    155          					default:
    156          						LISTVIEW_SetItemTextWithColor(ListViewHandl, j, Count, str.c_str(),TextColor, BackColor);
    157          						//LISTVIEW_SetItemText(ListViewHandl, j, Count, str.c_str());
    158          						break;
    159          					}
    160          				}
    161          			} else {
    162          				for ( int j=0; j<TDU_WIN_COL; j++ ) {
    163          					LISTVIEW_SetItemText(ListViewHandl, j, Count, "");
   \                     ??Paintnew_7:
   \   000000BC   F407D4E1           LDRSH    R0,[R4, #+116]
   \   000000C0   8A3F8FE2           ADR      R3,??Paintnew_8  ;; ""
   \   000000C4   0520A0E1           MOV      R2,R5
   \   000000C8   0710A0E1           MOV      R1,R7
   \   000000CC   ........           _BLF     LISTVIEW_SetItemText,??LISTVIEW_SetItemText??rA
    164          				}
   \   000000D0   017087E2           ADD      R7,R7,#+1
   \   000000D4   050057E3           CMP      R7,#+5
   \   000000D8   F7FFFFBA           BLT      ??Paintnew_7
    165          			}
   \                     ??Paintnew_9:
   \   000000DC   015085E2           ADD      R5,R5,#+1
   \   000000E0   016086E2           ADD      R6,R6,#+1
   \                     ??Paintnew_6:
   \   000000E4   14029FE5           LDR      R0,??Paintnew_8+0x10  ;; PhysKeyPressed
   \   000000E8   0000D0E5           LDRB     R0,[R0, #+0]
   \   000000EC   010010E3           TST      R0,#0x1
   \   000000F0   7B00001A           BNE      ??Paintnew_2
   \   000000F4   0B0055E3           CMP      R5,#+11
   \   000000F8   7900002A           BCS      ??Paintnew_2
   \   000000FC   580084E2           ADD      R0,R4,#+88
   \   00000100   041090E5           LDR      R1,[R0, #+4]
   \   00000104   000090E5           LDR      R0,[R0, #+0]
   \   00000108   0070A0E3           MOV      R7,#+0
   \   0000010C   000041E0           SUB      R0,R1,R0
   \   00000110   200156E1           CMP      R6,R0, LSR #+2
   \   00000114   E8FFFF2A           BCS      ??Paintnew_7
   \   00000118   ........           LDR      R8,??DataTable8  ;; BackColor
   \   0000011C   100000EA           B        ??Paintnew_10
   \                     ??Paintnew_11:
   \   00000120   000098E5           LDR      R0,[R8, #+0]
   \   00000124   01002DE9           PUSH     {R0}
   \   00000128   ........           LDR      R0,??DataTable10  ;; TextColor
   \   0000012C   000090E5           LDR      R0,[R0, #+0]
   \   00000130   01002DE9           PUSH     {R0}
   \                     ??Paintnew_12:
   \   00000134   F407D4E1           LDRSH    R0,[R4, #+116]
   \   00000138   0520A0E1           MOV      R2,R5
   \   0000013C   0710A0E1           MOV      R1,R7
   \   00000140   ........           _BLF     LISTVIEW_SetItemTextWithColor,??LISTVIEW_SetItemTextWithColor??rA
   \   00000144   08D08DE2           ADD      SP,SP,#+8
   \   00000148   0020A0E3           MOV      R2,#+0
   \   0000014C   0110A0E3           MOV      R1,#+1
   \   00000150   0D00A0E1           MOV      R0,SP
   \   00000154   ........           _BLF     ??_Tidy,??_Tidy??rA
   \   00000158   017087E2           ADD      R7,R7,#+1
   \   0000015C   050057E3           CMP      R7,#+5
   \   00000160   DDFFFFAA           BGE      ??Paintnew_9
   \                     ??Paintnew_10:
   \   00000164   7C1094E5           LDR      R1,[R4, #+124]
   \   00000168   0C00A0E3           MOV      R0,#+12
   \   0000016C   901721E0           MLA      R1,R0,R7,R1
   \   00000170   580094E5           LDR      R0,[R4, #+88]
   \   00000174   00A091E5           LDR      R10,[R1, #+0]
   \   00000178   062190E7           LDR      R2,[R0, +R6, LSL #+2]
   \   0000017C   0030A0E3           MOV      R3,#+0
   \   00000180   0A10A0E1           MOV      R1,R10
   \   00000184   0D00A0E1           MOV      R0,SP
   \   00000188   ........           _BLF     ??LibGetValue_1,??LibGetValue??rA_1
   \   0000018C   FF90A0E3           MOV      R9,#+255
   \   00000190   FF9C89E3           ORR      R9,R9,#0xFF00
   \   00000194   0800A0E3           MOV      R0,#+8
   \   00000198   400E80E3           ORR      R0,R0,#0x400
   \   0000019C   00005AE1           CMP      R10,R0
   \   000001A0   2E00000A           BEQ      ??Paintnew_13
   \   000001A4   1900A0E3           MOV      R0,#+25
   \   000001A8   500E80E3           ORR      R0,R0,#0x500
   \   000001AC   00005AE1           CMP      R10,R0
   \   000001B0   4600001A           BNE      ??Paintnew_14
   \   000001B4   4EBF8FE2           ADR      R11,??Paintnew_8+0x4  ;; "A"
   \   000001B8   0B00A0E1           MOV      R0,R11
   \   000001BC   ........           _BLF     strlen,??strlen??rA
   \   000001C0   01002DE9           PUSH     {R0}
   \   000001C4   18209DE5           LDR      R2,[SP, #+24]
   \   000001C8   FFA0A0E3           MOV      R10,#+255
   \   000001CC   0B30A0E1           MOV      R3,R11
   \   000001D0   0010A0E3           MOV      R1,#+0
   \   000001D4   04008DE2           ADD      R0,SP,#+4
   \   000001D8   ........           _BLF     ??compare,??compare??rA
   \   000001DC   000050E3           CMP      R0,#+0
   \   000001E0   04D08DE2           ADD      SP,SP,#+4
   \   000001E4   0900000A           BEQ      ??Paintnew_15
   \   000001E8   42BF8FE2           ADR      R11,??Paintnew_8+0x8  ;; "E"
   \   000001EC   0B00A0E1           MOV      R0,R11
   \   000001F0   ........           _BLF     strlen,??strlen??rA
   \   000001F4   01002DE9           PUSH     {R0}
   \   000001F8   18209DE5           LDR      R2,[SP, #+24]
   \   000001FC   0B30A0E1           MOV      R3,R11
   \   00000200   0010A0E3           MOV      R1,#+0
   \   00000204   04008DE2           ADD      R0,SP,#+4
   \   00000208   ........           _BLF     ??compare,??compare??rA
   \   0000020C   04D08DE2           ADD      SP,SP,#+4
   \                     ??Paintnew_15:
   \   00000210   39BF8FE2           ADR      R11,??Paintnew_8+0xC  ;; "W"
   \   00000214   0B00A0E1           MOV      R0,R11
   \   00000218   ........           _BLF     strlen,??strlen??rA
   \   0000021C   01002DE9           PUSH     {R0}
   \   00000220   18209DE5           LDR      R2,[SP, #+24]
   \   00000224   0B30A0E1           MOV      R3,R11
   \   00000228   0010A0E3           MOV      R1,#+0
   \   0000022C   04008DE2           ADD      R0,SP,#+4
   \   00000230   ........           _BLF     ??compare,??compare??rA
   \   00000234   000050E3           CMP      R0,#+0
   \   00000238   04D08DE2           ADD      SP,SP,#+4
   \   0000023C   18009DE5           LDR      R0,[SP, #+24]
   \   00000240   09A0A001           MOVEQ    R10,R9
   \   00000244   100050E3           CMP      R0,#+16
   \   00000248   000098E5           LDR      R0,[R8, #+0]
   \   0000024C   04309D25           LDRCS    R3,[SP, #+4]
   \   00000250   04308D32           ADDCC    R3,SP,#+4
   \   00000254   01002DE9           PUSH     {R0}
   \   00000258   00042DE9           PUSH     {R10}
   \   0000025C   B4FFFFEA           B        ??Paintnew_12
   \                     ??Paintnew_13:
   \   00000260   580094E5           LDR      R0,[R4, #+88]
   \   00000264   060190E7           LDR      R0,[R0, +R6, LSL #+2]
   \   00000268   0003D0E5           LDRB     R0,[R0, #+768]
   \   0000026C   060050E3           CMP      R0,#+6
   \   00000270   0400008A           BHI      ??Paintnew_16
   \   00000274   011F8FE2           ADR      R1,??Paintnew_1
   \   00000278   0010D1E7           LDRB     R1,[R1, R0]
   \   0000027C   01F18FE0           ADD      PC,PC,R1, LSL #+2
   \                     ??Paintnew_1:
   \   00000280   0B040608           DC8      +11,+4,+6,+8
   \   00000284   0B0B0A00           DC8      +11,+11,+10,+0
   \                     ??Paintnew_16:
   \   00000288   ........           LDR      R0,??DataTable10  ;; TextColor
   \   0000028C   009090E5           LDR      R9,[R0, #+0]
   \   00000290   060000EA           B        ??Paintnew_17
   \                     ??Paintnew_18:
   \   00000294   68909FE5           LDR      R9,??Paintnew_8+0x14  ;; 0x2a2aa5
   \   00000298   040000EA           B        ??Paintnew_17
   \                     ??Paintnew_19:
   \   0000029C   FF98A0E3           MOV      R9,#+16711680
   \   000002A0   020000EA           B        ??Paintnew_17
   \                     ??Paintnew_20:
   \   000002A4   FF9CA0E3           MOV      R9,#+65280
   \   000002A8   000000EA           B        ??Paintnew_17
   \                     ??Paintnew_21:
   \   000002AC   FF90A0E3           MOV      R9,#+255
   \                     ??Paintnew_17:
   \   000002B0   18009DE5           LDR      R0,[SP, #+24]
   \   000002B4   100050E3           CMP      R0,#+16
   \   000002B8   000098E5           LDR      R0,[R8, #+0]
   \   000002BC   04309D25           LDRCS    R3,[SP, #+4]
   \   000002C0   04308D32           ADDCC    R3,SP,#+4
   \   000002C4   01002DE9           PUSH     {R0}
   \   000002C8   00022DE9           PUSH     {R9}
   \   000002CC   98FFFFEA           B        ??Paintnew_12
   \                     ??Paintnew_14:
   \   000002D0   18009DE5           LDR      R0,[SP, #+24]
   \   000002D4   100050E3           CMP      R0,#+16
   \   000002D8   04309D25           LDRCS    R3,[SP, #+4]
   \   000002DC   04308D32           ADDCC    R3,SP,#+4
   \   000002E0   8EFFFFEA           B        ??Paintnew_11
    166          		}
    167          	}
    168          }
   \                     ??Paintnew_2:
   \   000002E4   1CD08DE2           ADD      SP,SP,#+28
   \   000002E8   F04FBDE8           POP      {R4-R11,LR}
   \   000002EC   1EFF2FE1           BX       LR               ;; return
   \                     ??Paintnew_8:
   \   000002F0   00000000           DC8      "",+0,+0,+0
   \   000002F4   41000000           DC8      "A",+0,+0
   \   000002F8   45000000           DC8      "E",+0,+0
   \   000002FC   57000000           DC8      "W",+0,+0
   \   00000300   ........           DC32     PhysKeyPressed
   \   00000304   A52A2A00           DC32     0x2a2aa5
    169          

   \                                 In segment CODE, align 4, keep-with-next
    170          void TDUGroupWin::PaintnewHeading(void)
    171          {
   \                     ??PaintnewHeading:
   \   00000000   F0412DE9           PUSH     {R4-R8,LR}
   \   00000004   58D04DE2           SUB      SP,SP,#+88
   \   00000008   0040A0E1           MOV      R4,R0
    172          	if ( !ObjectVector.empty() ) {
   \   0000000C   580084E2           ADD      R0,R4,#+88
   \   00000010   041090E5           LDR      R1,[R0, #+4]
   \   00000014   000090E5           LDR      R0,[R0, #+0]
   \   00000018   000041E0           SUB      R0,R1,R0
   \   0000001C   2001B0E1           LSRS     R0,R0,#+2
   \   00000020   4900000A           BEQ      ??PaintnewHeading_1
    173          		for ( int i=0; i<TDU_WIN_COL; i++ ) {
   \   00000024   0050A0E3           MOV      R5,#+0
   \   00000028   B970A0E3           MOV      R7,#+185
   \   0000002C   B07E87E3           ORR      R7,R7,#0xB00
    174          			AnsiString vname;
   \                     ??PaintnewHeading_2:
   \   00000030   04008DE2           ADD      R0,SP,#+4
   \   00000034   ........           _BLF     ??AnsiString,??AnsiString??rA
    175          			int ErrorStatus;
    176          			vname = LibGetValue(SVT_VALUE_NAME, ValueTable[i].ValueId, ObjectVector[0], 0,&ErrorStatus);
   \   00000038   0C00A0E3           MOV      R0,#+12
   \   0000003C   900506E0           MUL      R6,R0,R5
   \   00000040   0D00A0E1           MOV      R0,SP
   \   00000044   01002DE9           PUSH     {R0}
   \   00000048   0000A0E3           MOV      R0,#+0
   \   0000004C   01002DE9           PUSH     {R0}
   \   00000050   580094E5           LDR      R0,[R4, #+88]
   \   00000054   0710A0E1           MOV      R1,R7
   \   00000058   003090E5           LDR      R3,[R0, #+0]
   \   0000005C   7C0094E5           LDR      R0,[R4, #+124]
   \   00000060   002096E7           LDR      R2,[R6, +R0]
   \   00000064   44008DE2           ADD      R0,SP,#+68
   \   00000068   ........           _BLF     ??LibGetValue,??LibGetValue??rA
   \   0000006C   ........           LDR      R0,??DataTable12  ;; ??npos
   \   00000070   0020A0E3           MOV      R2,#+0
   \   00000074   008090E5           LDR      R8,[R0, #+0]
   \   00000078   44108DE2           ADD      R1,SP,#+68
   \   0000007C   0830A0E1           MOV      R3,R8
   \   00000080   0C008DE2           ADD      R0,SP,#+12
   \   00000084   ........           _BLF     ??assign,??assign??rA
   \   00000088   0020A0E3           MOV      R2,#+0
   \   0000008C   0110A0E3           MOV      R1,#+1
   \   00000090   44008DE2           ADD      R0,SP,#+68
   \   00000094   ........           _BLF     ??_Tidy,??_Tidy??rA
    177          			if ( ErrorStatus == GETVAL_ERROR ) {
   \   00000098   08009DE5           LDR      R0,[SP, #+8]
   \   0000009C   08D08DE2           ADD      SP,SP,#+8
   \   000000A0   040050E3           CMP      R0,#+4
   \   000000A4   1800001A           BNE      ??PaintnewHeading_3
    178          				ValueTable[i].ValueId = DefValueTable[i].ValueId;
   \   000000A8   801094E5           LDR      R1,[R4, #+128]
   \   000000AC   7C0094E5           LDR      R0,[R4, #+124]
   \   000000B0   011096E7           LDR      R1,[R6, +R1]
   \   000000B4   000086E0           ADD      R0,R6,R0
   \   000000B8   001080E5           STR      R1,[R0, #+0]
    179          				vname = LibGetValue(SVT_VALUE_NAME, ValueTable[i].ValueId, ObjectVector[0], 0,&ErrorStatus);
   \   000000BC   0D10A0E1           MOV      R1,SP
   \   000000C0   02002DE9           PUSH     {R1}
   \   000000C4   0010A0E3           MOV      R1,#+0
   \   000000C8   02002DE9           PUSH     {R1}
   \   000000CC   581094E5           LDR      R1,[R4, #+88]
   \   000000D0   002090E5           LDR      R2,[R0, #+0]
   \   000000D4   003091E5           LDR      R3,[R1, #+0]
   \   000000D8   0710A0E1           MOV      R1,R7
   \   000000DC   28008DE2           ADD      R0,SP,#+40
   \   000000E0   ........           _BLF     ??LibGetValue,??LibGetValue??rA
   \   000000E4   0830A0E1           MOV      R3,R8
   \   000000E8   0020A0E3           MOV      R2,#+0
   \   000000EC   28108DE2           ADD      R1,SP,#+40
   \   000000F0   0C008DE2           ADD      R0,SP,#+12
   \   000000F4   ........           _BLF     ??assign,??assign??rA
   \   000000F8   0020A0E3           MOV      R2,#+0
   \   000000FC   0110A0E3           MOV      R1,#+1
   \   00000100   28008DE2           ADD      R0,SP,#+40
   \   00000104   ........           _BLF     ??_Tidy,??_Tidy??rA
   \   00000108   08D08DE2           ADD      SP,SP,#+8
    180          			}
    181          			HEADER_SetItemText(ListHeadHandl,i,vname.c_str());
   \                     ??PaintnewHeading_3:
   \   0000010C   1C009DE5           LDR      R0,[SP, #+28]
   \   00000110   0510A0E1           MOV      R1,R5
   \   00000114   100050E3           CMP      R0,#+16
   \   00000118   F207D4E1           LDRSH    R0,[R4, #+114]
   \   0000011C   08209D25           LDRCS    R2,[SP, #+8]
    182          		}
   \   00000120   015085E2           ADD      R5,R5,#+1
   \   00000124   08208D32           ADDCC    R2,SP,#+8
   \   00000128   ........           _BLF     HEADER_SetItemText,??HEADER_SetItemText??rA
   \   0000012C   0020A0E3           MOV      R2,#+0
   \   00000130   0110A0E3           MOV      R1,#+1
   \   00000134   04008DE2           ADD      R0,SP,#+4
   \   00000138   ........           _BLF     ??_Tidy,??_Tidy??rA
   \   0000013C   050055E3           CMP      R5,#+5
   \   00000140   BAFFFFBA           BLT      ??PaintnewHeading_2
    183          		WM_InvalidateWindow(ListHeadHandl);
   \   00000144   F207D4E1           LDRSH    R0,[R4, #+114]
   \   00000148   ........           _BLF     WM_InvalidateWindow,??WM_InvalidateWindow??rA
    184          	}
    185          }
   \                     ??PaintnewHeading_1:
   \   0000014C   58D08DE2           ADD      SP,SP,#+88
   \   00000150   F041BDE8           POP      {R4-R8,LR}
   \   00000154   1EFF2FE1           BX       LR               ;; return
    186          

   \                                 In segment CODE, align 4, keep-with-next
    187          bool TDUGroupWin::SetupWin(void)
    188          {
   \                     ??SetupWin:
   \   00000000   70402DE9           PUSH     {R4-R6,LR}
   \   00000004   A8D04DE2           SUB      SP,SP,#+168
   \   00000008   0050A0E1           MOV      R5,R0
    189          	bool Found = false;
    190          	if ( TimedOut ) {
   \   0000000C   7000D5E5           LDRB     R0,[R5, #+112]
   \   00000010   0040A0E3           MOV      R4,#+0
   \   00000014   000050E3           CMP      R0,#+0
   \   00000018   4400000A           BEQ      ??SetupWin_1
    191          		AnsiString Text1(FindDictionaryWord(L_WORD165).c_str());	// Detail view warning:
   \   0000001C   A510A0E3           MOV      R1,#+165
   \   00000020   0D00A0E1           MOV      R0,SP
   \   00000024   ........           _BLF     ??FindDictionaryWord,??FindDictionaryWord??rA
   \   00000028   18009DE5           LDR      R0,[SP, #+24]
   \   0000002C   100050E3           CMP      R0,#+16
   \   00000030   04109D25           LDRCS    R1,[SP, #+4]
   \   00000034   70008DE2           ADD      R0,SP,#+112
   \   00000038   04108D32           ADDCC    R1,SP,#+4
   \   0000003C   ........           _BLF     ??AnsiString_1,??AnsiString??rA_1
   \   00000040   0020A0E3           MOV      R2,#+0
   \   00000044   0110A0E3           MOV      R1,#+1
   \   00000048   0D00A0E1           MOV      R0,SP
   \   0000004C   ........           _BLF     ??_Tidy,??_Tidy??rA
    192          		AnsiString Text2(FindDictionaryWord(L_WORD166).c_str());	// Select a tank by pressing on the row and push Detail button.
   \   00000050   A610A0E3           MOV      R1,#+166
   \   00000054   1C008DE2           ADD      R0,SP,#+28
   \   00000058   ........           _BLF     ??FindDictionaryWord,??FindDictionaryWord??rA
   \   0000005C   34009DE5           LDR      R0,[SP, #+52]
   \   00000060   100050E3           CMP      R0,#+16
   \   00000064   20109D25           LDRCS    R1,[SP, #+32]
   \   00000068   8C008DE2           ADD      R0,SP,#+140
   \   0000006C   20108D32           ADDCC    R1,SP,#+32
   \   00000070   ........           _BLF     ??AnsiString_1,??AnsiString??rA_1
   \   00000074   0020A0E3           MOV      R2,#+0
   \   00000078   0110A0E3           MOV      R1,#+1
   \   0000007C   1C008DE2           ADD      R0,SP,#+28
   \   00000080   ........           _BLF     ??_Tidy,??_Tidy??rA
    193          		OKMessageBox->Exec(WinHandl, Text1, Text2);
   \   00000084   0420A0E1           MOV      R2,R4
   \   00000088   0210A0E1           MOV      R1,R2
   \   0000008C   54008DE2           ADD      R0,SP,#+84
   \   00000090   ........           _BLF     ??_Tidy,??_Tidy??rA
   \   00000094   ........           LDR      R0,??DataTable12  ;; ??npos
   \   00000098   0420A0E1           MOV      R2,R4
   \   0000009C   006090E5           LDR      R6,[R0, #+0]
   \   000000A0   8C108DE2           ADD      R1,SP,#+140
   \   000000A4   0630A0E1           MOV      R3,R6
   \   000000A8   54008DE2           ADD      R0,SP,#+84
   \   000000AC   ........           _BLF     ??assign,??assign??rA
   \   000000B0   0420A0E1           MOV      R2,R4
   \   000000B4   0210A0E1           MOV      R1,R2
   \   000000B8   38008DE2           ADD      R0,SP,#+56
   \   000000BC   ........           _BLF     ??_Tidy,??_Tidy??rA
   \   000000C0   0630A0E1           MOV      R3,R6
   \   000000C4   0420A0E1           MOV      R2,R4
   \   000000C8   70108DE2           ADD      R1,SP,#+112
   \   000000CC   38008DE2           ADD      R0,SP,#+56
   \   000000D0   ........           _BLF     ??assign,??assign??rA
   \   000000D4   FA12D5E1           LDRSH    R1,[R5, #+42]
   \   000000D8   14019FE5           LDR      R0,??SetupWin_2  ;; OKMessageBox
   \   000000DC   54308DE2           ADD      R3,SP,#+84
   \   000000E0   000090E5           LDR      R0,[R0, #+0]
   \   000000E4   38208DE2           ADD      R2,SP,#+56
   \   000000E8   ........           _BLF     ??Exec,??Exec??rA
   \   000000EC   0420A0E1           MOV      R2,R4
   \   000000F0   0110A0E3           MOV      R1,#+1
   \   000000F4   54008DE2           ADD      R0,SP,#+84
   \   000000F8   ........           _BLF     ??_Tidy,??_Tidy??rA
   \   000000FC   0420A0E1           MOV      R2,R4
   \   00000100   0110A0E3           MOV      R1,#+1
   \   00000104   38008DE2           ADD      R0,SP,#+56
   \   00000108   ........           _BLF     ??_Tidy,??_Tidy??rA
    194          	} else {
   \   0000010C   0420A0E1           MOV      R2,R4
   \   00000110   0110A0E3           MOV      R1,#+1
   \   00000114   8C008DE2           ADD      R0,SP,#+140
   \   00000118   ........           _BLF     ??_Tidy,??_Tidy??rA
   \   0000011C   0420A0E1           MOV      R2,R4
   \   00000120   0110A0E3           MOV      R1,#+1
   \   00000124   70008DE2           ADD      R0,SP,#+112
   \   00000128   ........           _BLF     ??_Tidy,??_Tidy??rA
   \   0000012C   2C0000EA           B        ??SetupWin_3
    195          		int SelectIndex = LISTVIEW_GetSel(ListViewHandl);
   \                     ??SetupWin_1:
   \   00000130   F407D5E1           LDRSH    R0,[R5, #+116]
   \   00000134   ........           _BLF     LISTVIEW_GetSel,??LISTVIEW_GetSel??rA
    196          		if ( !ObjectVector.empty() ) {
   \   00000138   581085E2           ADD      R1,R5,#+88
   \   0000013C   042091E5           LDR      R2,[R1, #+4]
   \   00000140   001091E5           LDR      R1,[R1, #+0]
   \   00000144   011042E0           SUB      R1,R2,R1
   \   00000148   2111B0E1           LSRS     R1,R1,#+2
   \   0000014C   1D00000A           BEQ      ??SetupWin_4
    197          			int StartIndex;
    198          			if ( (CurrentPage+1)==NumberOfPages && NumberOfPages>1) {
   \   00000150   641095E5           LDR      R1,[R5, #+100]
   \   00000154   482095E5           LDR      R2,[R5, #+72]
   \   00000158   013082E2           ADD      R3,R2,#+1
   \   0000015C   010053E1           CMP      R3,R1
   \   00000160   0800001A           BNE      ??SetupWin_5
   \   00000164   020051E3           CMP      R1,#+2
   \   00000168   060000BA           BLT      ??SetupWin_5
    199          				StartIndex = ObjectVector.size()- NumUnitsOnPage;
   \   0000016C   581085E2           ADD      R1,R5,#+88
   \   00000170   042091E5           LDR      R2,[R1, #+4]
   \   00000174   001091E5           LDR      R1,[R1, #+0]
   \   00000178   011042E0           SUB      R1,R2,R1
   \   0000017C   2111A0E1           LSR      R1,R1,#+2
   \   00000180   0B1041E2           SUB      R1,R1,#+11
   \   00000184   010000EA           B        ??SetupWin_6
    200          			} else {
    201          				StartIndex = CurrentPage*NumUnitsOnPage;
   \                     ??SetupWin_5:
   \   00000188   0B30A0E3           MOV      R3,#+11
   \   0000018C   930201E0           MUL      R1,R3,R2
    202          			}
    203          			unsigned Index = StartIndex+SelectIndex;
   \                     ??SetupWin_6:
   \   00000190   010080E0           ADD      R0,R0,R1
    204          			if ( Index < ObjectVector.size()) {
   \   00000194   581085E2           ADD      R1,R5,#+88
   \   00000198   042091E5           LDR      R2,[R1, #+4]
   \   0000019C   001091E5           LDR      R1,[R1, #+0]
   \   000001A0   011042E0           SUB      R1,R2,R1
   \   000001A4   210150E1           CMP      R0,R1, LSR #+2
   \   000001A8   0600002A           BCS      ??SetupWin_4
    205          				TankDetails->CreateMultiPage(WinHandl,(PRogramObject*)ObjectVector[Index]);
   \   000001AC   581095E5           LDR      R1,[R5, #+88]
    206          				Found = true;
   \   000001B0   0140A0E3           MOV      R4,#+1
   \   000001B4   002191E7           LDR      R2,[R1, +R0, LSL #+2]
   \   000001B8   FA12D5E1           LDRSH    R1,[R5, #+42]
   \   000001BC   ........           LDR      R0,??DataTable17  ;; TankDetails
   \   000001C0   000090E5           LDR      R0,[R0, #+0]
   \   000001C4   ........           _BLF     ??CreateMultiPage,??CreateMultiPage??rA
    207          			}
    208          		}
    209          		TimedOut = false;
    210          		TimerCount=50;
    211          		SetGuiEvent(PWEventHandl,1,&aTCB[1]);
   \                     ??SetupWin_4:
   \   000001C8   ........           LDR      R1,??DataTable18  ;; aTCB + 64
   \   000001CC   0000A0E3           MOV      R0,#+0
   \   000001D0   7000C5E5           STRB     R0,[R5, #+112]
   \   000001D4   3200A0E3           MOV      R0,#+50
   \   000001D8   6C0085E5           STR      R0,[R5, #+108]
   \   000001DC   0100A0E3           MOV      R0,#+1
   \   000001E0   ........           _BLF     OS_SignalEvent,??OS_SignalEvent??rA
    212          	}
    213          	return(Found);
   \                     ??SetupWin_3:
   \   000001E4   0400A0E1           MOV      R0,R4
   \   000001E8   A8D08DE2           ADD      SP,SP,#+168
   \   000001EC   7040BDE8           POP      {R4-R6,LR}
   \   000001F0   1EFF2FE1           BX       LR               ;; return
   \                     ??SetupWin_2:
   \   000001F4   ........           DC32     OKMessageBox
    214          }
    215          

   \                                 In segment CODE, align 4, keep-with-next
    216          void TDUGroupWin::ButtonClicked(int ButtID)
    217          {
   \                     ??ButtonClicked:
   \   00000000   70402DE9           PUSH     {R4-R6,LR}
   \   00000004   0040A0E1           MOV      R4,R0
    218          	if ( !ObjectVector.empty() ) {
   \   00000008   580084E2           ADD      R0,R4,#+88
   \   0000000C   042090E5           LDR      R2,[R0, #+4]
   \   00000010   000090E5           LDR      R0,[R0, #+0]
   \   00000014   000042E0           SUB      R0,R2,R0
   \   00000018   2001B0E1           LSRS     R0,R0,#+2
   \   0000001C   2300000A           BEQ      ??ButtonClicked_2
    219          		switch ( ButtID ) {
   \   00000020   480094E5           LDR      R0,[R4, #+72]
   \   00000024   442094E5           LDR      R2,[R4, #+68]
   \   00000028   0030A0E3           MOV      R3,#+0
   \   0000002C   D11041E2           SUB      R1,R1,#+209
   \   00000030   801E41E2           SUB      R1,R1,#+2048
   \   00000034   040051E3           CMP      R1,#+4
   \   00000038   1C00008A           BHI      ??ButtonClicked_2
   \   0000003C   015F8FE2           ADR      R5,??ButtonClicked_1
   \   00000040   0150D5E7           LDRB     R5,[R5, R1]
   \   00000044   05F18FE0           ADD      PC,PC,R5, LSL #+2
   \                     ??ButtonClicked_1:
   \   00000048   010E151B           DC8      +1,+14,+21,+27
   \   0000004C   22000000           DC8      +34,+0,+0,+0
    220          		case TDU_BUTTON_ID_PW1:
    221          			if ( CurrentPage<=0 ) {
   \                     ??ButtonClicked_3:
   \   00000050   010050E3           CMP      R0,#+1
    222          				//	CurrentPage = NumberOfPages-1;
    223          				CurrentPage = 0;
   \   00000054   483084B5           STRLT    R3,[R4, #+72]
   \   00000058   010000BA           BLT      ??ButtonClicked_4
    224          			} else {
    225          				CurrentPage--;
   \   0000005C   010040E2           SUB      R0,R0,#+1
   \                     ??ButtonClicked_5:
   \   00000060   480084E5           STR      R0,[R4, #+72]
    226          			}
    227          			TimedOut = false;
    228          			TimerCount=50;
    229          			SetGuiEvent(PWEventHandl,1,&aTCB[1]);
   \                     ??ButtonClicked_4:
   \   00000064   ........           LDR      R1,??DataTable18  ;; aTCB + 64
   \   00000068   0000A0E3           MOV      R0,#+0
   \   0000006C   7000C4E5           STRB     R0,[R4, #+112]
   \   00000070   3200A0E3           MOV      R0,#+50
   \   00000074   6C0084E5           STR      R0,[R4, #+108]
   \   00000078   0100A0E3           MOV      R0,#+1
   \   0000007C   ........           _BLF     OS_SignalEvent,??OS_SignalEvent??rA
   \   00000080   0A0000EA           B        ??ButtonClicked_2
   \                     ??ButtonClicked_6:
   \   00000084   641094E5           LDR      R1,[R4, #+100]
   \   00000088   011041E2           SUB      R1,R1,#+1
   \   0000008C   010050E1           CMP      R0,R1
    230          			break;
    231          		case TDU_BUTTON_ID_PW2:
    232          			if ( CurrentPage >= (NumberOfPages-1) ) {
    233          //					CurrentPage = 0;
    234          				CurrentPage = (NumberOfPages-1);
   \   00000090   481084A5           STRGE    R1,[R4, #+72]
   \   00000094   F2FFFFAA           BGE      ??ButtonClicked_4
    235          			} else {
    236          				CurrentPage++;
   \   00000098   010080E2           ADD      R0,R0,#+1
   \   0000009C   EFFFFFEA           B        ??ButtonClicked_5
    237          			}
    238          			TimedOut = false;
    239          			TimerCount=50;
    240          			SetGuiEvent(PWEventHandl,1,&aTCB[1]);
    241          			break;
    242          		case TDU_BUTTON_ID_PW3:
    243          			AppSetup();
   \                     ??ButtonClicked_7:
   \   000000A0   101092E5           LDR      R1,[R2, #+16]
   \   000000A4   0400A0E1           MOV      R0,R4
   \   000000A8   0FE0A0E1           MOV      LR,PC
   \   000000AC   11FF2FE1           BX       R1
   \                     ??ButtonClicked_2:
   \   000000B0   7040BDE8           POP      {R4-R6,LR}
   \   000000B4   1EFF2FE1           BX       LR
    244          			break;
    245          		case TDU_BUTTON_ID_PW4:			// REPORT_BALLAST REPORT_CARGO
    246          			PrintReport(PROPrinter::CurPrinterId);
   \                     ??ButtonClicked_8:
   \   000000B8   E8009FE5           LDR      R0,??ButtonClicked_9  ;; ??CurPrinterId
   \   000000BC   142092E5           LDR      R2,[R2, #+20]
   \   000000C0   001090E5           LDR      R1,[R0, #+0]
   \   000000C4   0400A0E1           MOV      R0,R4
   \   000000C8   0FE0A0E1           MOV      LR,PC
   \   000000CC   12FF2FE1           BX       R2
   \   000000D0   F6FFFFEA           B        ??ButtonClicked_2
    247          			break;
    248          		case TDU_BUTTON_ID_PW5:
    249          			{
    250          				if ( But5LangKey == L_WORD90 ) {
   \                     ??ButtonClicked_10:
   \   000000D4   540094E5           LDR      R0,[R4, #+84]
   \   000000D8   ........           LDR      R5,??DataTable16  ;; ButWindow
   \   000000DC   D560A0E3           MOV      R6,#+213
   \   000000E0   806E86E3           ORR      R6,R6,#0x800
   \   000000E4   5A0050E3           CMP      R0,#+90
   \   000000E8   0E00001A           BNE      ??ButtonClicked_11
    251          
    252          					if ( SetupWin() ) {
   \   000000EC   0400A0E1           MOV      R0,R4
   \   000000F0   ........           BL       ??SetupWin
   \   000000F4   000050E3           CMP      R0,#+0
   \   000000F8   ECFFFF0A           BEQ      ??ButtonClicked_2
    253          						ButWindow->ChangeSWord(TDU_BUTTON_ID_PW5,0,L_WORD18);
   \   000000FC   0000A0E3           MOV      R0,#+0
   \   00000100   01002DE9           PUSH     {R0}
   \   00000104   000095E5           LDR      R0,[R5, #+0]
   \   00000108   1230A0E3           MOV      R3,#+18
   \   0000010C   0020A0E3           MOV      R2,#+0
   \   00000110   0610A0E1           MOV      R1,R6
   \   00000114   ........           _BLF     ??ChangeSWord,??ChangeSWord??rA
    254          						But5LangKey = L_WORD18;
   \   00000118   1200A0E3           MOV      R0,#+18
   \   0000011C   540084E5           STR      R0,[R4, #+84]
   \   00000120   04D08DE2           ADD      SP,SP,#+4
   \   00000124   E1FFFFEA           B        ??ButtonClicked_2
    255          					}
    256          				} else {
    257          					ButWindow->ChangeSWord(TDU_BUTTON_ID_PW5,0,L_WORD90);
   \                     ??ButtonClicked_11:
   \   00000128   0000A0E3           MOV      R0,#+0
   \   0000012C   01002DE9           PUSH     {R0}
   \   00000130   0020A0E1           MOV      R2,R0
   \   00000134   000095E5           LDR      R0,[R5, #+0]
   \   00000138   5A30A0E3           MOV      R3,#+90
   \   0000013C   0610A0E1           MOV      R1,R6
   \   00000140   ........           _BLF     ??ChangeSWord,??ChangeSWord??rA
    258          					But5LangKey = L_WORD90 ;
   \   00000144   5A00A0E3           MOV      R0,#+90
   \   00000148   540084E5           STR      R0,[R4, #+84]
    259          					if ( !TankDetails->Closed ) {
   \   0000014C   ........           LDR      R4,??DataTable17  ;; TankDetails
   \   00000150   000094E5           LDR      R0,[R4, #+0]
   \   00000154   2C11D0E5           LDRB     R1,[R0, #+300]
   \   00000158   04D08DE2           ADD      SP,SP,#+4
   \   0000015C   000051E3           CMP      R1,#+0
   \   00000160   D2FFFF1A           BNE      ??ButtonClicked_2
    260          						TankDetails->Closed = true;
   \   00000164   0110A0E3           MOV      R1,#+1
   \   00000168   2C11C0E5           STRB     R1,[R0, #+300]
    261          						if ( !KeyBoard->Closed ) {					 //1
   \   0000016C   38009FE5           LDR      R0,??ButtonClicked_9+0x4  ;; KeyBoard
   \   00000170   001090E5           LDR      R1,[R0, #+0]
   \   00000174   9800D1E5           LDRB     R0,[R1, #+152]
   \   00000178   000050E3           CMP      R0,#+0
   \   0000017C   0400001A           BNE      ??ButtonClicked_12
    262          							KeyBoard->CloseTimer.Stop();
   \   00000180   9C0081E2           ADD      R0,R1,#+156
   \   00000184   B81091E5           LDR      R1,[R1, #+184]
   \   00000188   001091E5           LDR      R1,[R1, #+0]
   \   0000018C   0FE0A0E1           MOV      LR,PC
   \   00000190   11FF2FE1           BX       R1
    263          						}
    264          						GUI_EndDialog(TankDetails->WinHandl, 0);
   \                     ??ButtonClicked_12:
   \   00000194   000094E5           LDR      R0,[R4, #+0]
   \   00000198   0010A0E3           MOV      R1,#+0
   \   0000019C   FA02D0E1           LDRSH    R0,[R0, #+42]
   \   000001A0   ........           _BLF     GUI_EndDialog,??GUI_EndDialog??rA
    265          					}
    266          				}
    267          			}
    268          			break;
    269          		}
    270          	}
    271          }
   \                     ??ButtonClicked_13:
   \   000001A4   C1FFFFEA           B        ??ButtonClicked_2
   \                     ??ButtonClicked_9:
   \   000001A8   ........           DC32     ??CurPrinterId
   \   000001AC   ........           DC32     KeyBoard
    272          

   \                                 In segment CODE, align 4, keep-with-next
    273          void TDUGroupWin::cbEventHandler(WM_MESSAGE * pMsg)
    274          {
   \                     ??cbEventHandler:
   \   00000000   00402DE9           PUSH     {LR}
    275          	//WM_HWIN hWin = pMsg->hWin;
    276          	switch ( pMsg->MsgId ) {
   \   00000004   002091E5           LDR      R2,[R1, #+0]
   \   00000008   012052E2           SUBS     R2,R2,#+1
   \   0000000C   0F00000A           BEQ      ??cbEventHandler_1
   \   00000010   0E2052E2           SUBS     R2,R2,#+14
   \   00000014   0200000A           BEQ      ??cbEventHandler_2
   \   00000018   172052E2           SUBS     R2,R2,#+23
   \   0000001C   0300000A           BEQ      ??cbEventHandler_3
   \   00000020   0C0000EA           B        ??cbEventHandler_4
    277          	case WM_PAINT:
    278          		UpdateFields(true);
   \                     ??cbEventHandler_2:
   \   00000024   0110A0E3           MOV      R1,#+1
   \   00000028   ........           _BLF     ??UpdateFields,??UpdateFields??rA
   \   0000002C   070000EA           B        ??cbEventHandler_1
    279          		break;
    280          	case WM_NOTIFY_PARENT:
    281          		{
    282          			int NCode;//, Id;
    283          			//Id    = WM_GetId(pMsg->hWinSrc);    /* Id of widget */
    284          			NCode = pMsg->Data.v;								/* Notification code */
    285          			switch ( NCode ) {
   \                     ??cbEventHandler_3:
   \   00000030   081091E5           LDR      R1,[R1, #+8]
   \   00000034   020051E3           CMP      R1,#+2
   \   00000038   0400001A           BNE      ??cbEventHandler_1
    286          			case WM_NOTIFICATION_RELEASED:		/* React only if released */
    287          				{
    288          					UserTouch = true;
   \   0000003C   0110A0E3           MOV      R1,#+1
   \   00000040   6810C0E5           STRB     R1,[R0, #+104]
    289          					SetGuiEvent(PWEventHandl,1,&aTCB[1]);
   \   00000044   ........           LDR      R1,??DataTable18  ;; aTCB + 64
   \   00000048   0100A0E3           MOV      R0,#+1
   \   0000004C   ........           _BLF     OS_SignalEvent,??OS_SignalEvent??rA
   \                     ??cbEventHandler_1:
   \   00000050   0040BDE8           POP      {LR}
   \   00000054   1EFF2FE1           BX       LR
    290          				}
    291          				break;
    292          			}
    293          		}
    294          		break;
    295          	case WM_CREATE:
    296          		break;
    297          	default:
    298          		WM_DefaultProc(pMsg);
   \                     ??cbEventHandler_4:
   \   00000058   0100A0E1           MOV      R0,R1
   \   0000005C   ........           _BLF     WM_DefaultProc,??WM_DefaultProc??rA
    299          	}
    300          }
   \                     ??cbEventHandler_5:
   \   00000060   FAFFFFEA           B        ??cbEventHandler_1
    301          

   \                                 In segment CODE, align 4, keep-with-next
    302          void TDUGroupWin::AppSetup(void)
    303          {
    304          }
   \                     ??AppSetup:
   \   00000000   1EFF2FE1           BX       LR               ;; return

   \                                 In segment CODE, align 4, keep-with-next
    305          void TDUGroupWin::PrintReport(int PrinterId)
    306          {
    307          }
   \                     ??PrintReport:
   \   00000000   1EFF2FE1           BX       LR               ;; return

   \                                 In segment DIFUNCT, align 4, keep-with-next, root
   \   00000000                      REQUIRE ?call_ctors
   \   00000000   ........           DC32    ??__sti__routine

   \                                 In segment DATA_C, align 1, align-sorted
   \                     `?<Constant "">`:
   \   00000000   00                 DC8 ""

   \                                 In segment DATA_C, align 4, align-sorted
   \                     `?<Constant {&"", &"", &"", &"", &""}>`:
   \   00000000   ............       DC32 `?<Constant "">`, `?<Constant "">`, `?<Constant "">`
   \              ............
   \   0000000C   ............       DC32 `?<Constant "">`, `?<Constant "">`
   \              ....        

   \                                 In segment DATA_C, align 4, align-sorted
   \                     `?<Constant {false, false, true, false, true}>`:
   \   00000000   000001000100       DC8 0, 0, 1, 0, 1, 0, 0, 0
   \              0000        

   \                                 In segment DATA_C, align 1, align-sorted
   \   00000000   4100               DC8 "A"

   \                                 In segment DATA_C, align 1, align-sorted
   \   00000000   4500               DC8 "E"

   \                                 In segment DATA_C, align 1, align-sorted
   \   00000000   5700               DC8 "W"

   \                                 In segment CODE, align 4, keep-with-next
   \   __??Code32?? __code __interwork __atpcs TDUGroupWin &TDUGroupWin::new TDUGroupWin(vector<PRogramObjectBase *>, int, TDUValueTable *)
   \                     `??new TDUGroupWin`:
   \   00000000   70402DE9           PUSH     {R4-R6,LR}
   \   00000004   0040A0E1           MOV      R4,R0
   \   00000008   0150A0E1           MOV      R5,R1
   \   0000000C   0260A0E1           MOV      R6,R2
   \   00000010   8400A0E3           MOV      R0,#+132
   \   00000014   ........           _BLF     `??operator new`,`??operator new??rA`
   \   00000018   000050E3           CMP      R0,#+0
   \   0000001C   0300000A           BEQ      `??new TDUGroupWin_1`
   \   00000020   0630A0E1           MOV      R3,R6
   \   00000024   0520A0E1           MOV      R2,R5
   \   00000028   0410A0E1           MOV      R1,R4
   \   0000002C   ........           BL       ??TDUGroupWin
   \                     `??new TDUGroupWin_1`:
   \   00000030   7040BDE8           POP      {R4-R6,LR}
   \   00000034   1EFF2FE1           BX       LR               ;; return

   \                                 In segment CODE, align 4, keep-with-next
   \   static __??Code32?? __intrinsic __code __interwork __atpcs void __sti__routine()
   \                     ??__sti__routine:
   \   00000000   1EFF2FE1           BX       LR               ;; return

   \                                 In segment CODE, align 4, keep-with-next
   \   __??Code32?? __code __interwork __atpcs void TDUGroupWin::delete ~TDUGroupWin(TDUGroupWin *)
   \                     `??delete ~TDUGroupWin`:
   \   00000000   10402DE9           PUSH     {R4,LR}
   \   00000004   0040B0E1           MOVS     R4,R0
   \   00000008   0200000A           BEQ      `??delete ~TDUGroupWin_1`
   \   0000000C   ........           BL       `?~TDUGroupWin`
   \   00000010   0400A0E1           MOV      R0,R4
   \   00000014   ........           _BLF     `??operator delete`,`??operator delete??rA`
   \                     `??delete ~TDUGroupWin_1`:
   \   00000018   1040BDE8           POP      {R4,LR}
   \   0000001C   1EFF2FE1           BX       LR               ;; return

   \                                 In segment CODE, align 4, keep-with-next
   \                     ??DataTable1:
   \   00000000   ........           DC32     ??__vtbl

   \                                 In segment CODE, align 4, keep-with-next
   \                     ??DataTable8:
   \   00000000   ........           DC32     BackColor

   \                                 In segment CODE, align 4, keep-with-next
   \                     ??DataTable10:
   \   00000000   ........           DC32     TextColor

   \                                 In segment CODE, align 4, keep-with-next
   \                     ??DataTable12:
   \   00000000   ........           DC32     ??npos

   \                                 In segment CODE, align 4, keep-with-next
   \                     ??DataTable16:
   \   00000000   ........           DC32     ButWindow

   \                                 In segment CODE, align 4, keep-with-next
   \                     ??DataTable17:
   \   00000000   ........           DC32     TankDetails

   \                                 In segment CODE, align 4, keep-with-next
   \                     ??DataTable18:
   \   00000000   ........           DC32     aTCB + 64

   \                                 In segment CODE, align 4, keep-with-next
   \                     ??DataTable19:
   \   00000000   ........           DC32     ??AnsiString
    308          

   Maximum stack usage in bytes:

     Function                       CSTACK
     --------                       ------
     AnsiString::~AnsiString()          4
     TDUGroupWin::AppSetup()            0
     TDUGroupWin::ButtonClicked(int)
                                       20
     TDUGroupWin::PWTimer()             4
     TDUGroupWin::Paintnew()           72
     TDUGroupWin::PaintnewHeading()   120
     TDUGroupWin::PrintReport(int)      0
     TDUGroupWin::SetButton()          36
     TDUGroupWin::SetListViewColor()
                                       16
     TDUGroupWin::SetupWin()          184
     TDUGroupWin::TDUGroupWin(vector<PRogramObjectBase *>, int, TDUValueTable *)
                                       64
     TDUGroupWin::TableSetup()        208
     TDUGroupWin::cbEventHandler(WM_MESSAGE *)
                                        4
     TDUGroupWin::delete ~TDUGroupWin(TDUGroupWin *)
                                        8
     TDUGroupWin::new TDUGroupWin(vector<PRogramObjectBase *>, int, TDUValueTable *)
                                       16
     TDUGroupWin::~TDUGroupWin()       12
     _Vector_impl<PRogramObjectBase *, allocator<PRogramObjectBase *>>::_Assign(_Vector_impl<PRogramObjectBase *, allocator<PRogramObjectBase *>> const &)
                                       24
     __sti__routine()                   0


   Segment part sizes:

     Function/Label                 Bytes
     --------------                 -----
     _Vector_impl<PRogramObjectBase *, allocator<PRogramObjectBase *>>::_Assign(_Vector_impl<PRogramObjectBase *, allocator<PRogramObjectBase *>> const &)
                                     248
     AnsiString::~AnsiString()        24
     TDUGroupWin::NumUnitsOnPage       4
     TDUGroupWin::~TDUGroupWin()      80
     TDUGroupWin::TDUGroupWin(vector<PRogramObjectBase *>, int, TDUValueTable *)
                                     400
     TDUGroupWin::SetListViewColor()
                                     120
     TDUGroupWin::TableSetup()       272
     TDUGroupWin::SetButton()        260
     TDUGroupWin::PWTimer()           72
     TDUGroupWin::Paintnew()         776
     TDUGroupWin::PaintnewHeading()  344
     TDUGroupWin::SetupWin()         504
     TDUGroupWin::ButtonClicked(int)
                                     432
     TDUGroupWin::cbEventHandler(WM_MESSAGE *)
                                     100
     TDUGroupWin::AppSetup()           4
     TDUGroupWin::PrintReport(int)     4
     ?<Constant "">                    1
     ?<Constant {&"", &"", &"", &"", &""}>
                                      20
     ?<Constant {false, false, true, false, true}>
                                       8
     ?<Constant "A">                   2
     ?<Constant "E">                   2
     ?<Constant "W">                   2
     TDUGroupWin::new TDUGroupWin(vector<PRogramObjectBase *>, int, TDUValueTable *)
                                      56
     __sti__routine()                  4
     TDUGroupWin::delete ~TDUGroupWin(TDUGroupWin *)
                                      32
     ??DataTable1                      4
     ??DataTable8                      4
     ??DataTable10                     4
     ??DataTable12                     4
     ??DataTable16                     4
     ??DataTable17                     4
     ??DataTable18                     4
     ??DataTable19                     4
      Others                         580

 
 4 316 bytes in segment CODE
    63 bytes in segment DATA_C
     4 bytes in segment DIFUNCT
 
 3 496 bytes of CODE  memory (+ 824 bytes shared)
    63 bytes of CONST memory

Errors: none
Warnings: none
