##############################################################################
#                                                                            #
# IAR ARM ANSI C/C++ Compiler V4.42A/W32               14/Sep/2022  15:18:31 #
# Copyright 1999-2005 IAR Systems. All rights reserved.                      #
#                                                                            #
#    Cpu mode        =  interwork                                            #
#    Endian          =  little                                               #
#    Stack alignment =  4                                                    #
#    Source file     =  D:\S2Prog\TXU\src\TDUMessageBoxCancel.cpp            #
#    Command line    =  D:\S2Prog\TXU\src\TDUMessageBoxCancel.cpp --fpu      #
#                       None -D OS_LIBMODE_SP -D CPU_S3C2410 -D              #
#                       OS_RAMVECT=0 -D OS_UART=-1 -D S2TXU -D USE_LZO=1 -D  #
#                       __ARM_LIBRARY__ -D WATCHDOG=1 -D NETWORK=1 -lCN      #
#                       D:\S2Prog\TXU\Debug\List\ -o                         #
#                       D:\S2Prog\TXU\Debug\Obj\ -s9 --debug --cpu_mode arm  #
#                       --endian little --cpu ARM920T --stack_align 4        #
#                       --interwork -e --enable_multibytes --eec++           #
#                       --dlib_config "C:\Program Files (x86)\IAR            #
#                       Systems\Embedded Workbench                           #
#                       4.0\arm\LIB\dl4tpainl8n.h" -I                        #
#                       D:\S2Prog\TXU\GUI\CORE\ -I D:\S2Prog\TXU\GUI\WM\ -I  #
#                       D:\S2Prog\TXU\GUI\WIDGET\ -I D:\S2Prog\TXU\CONFIG\   #
#                       -I D:\S2Prog\TXU\INC\ -I D:\S2Prog\TXU\..\SHARED\INC #
#                       \ -I D:\S2Prog\TXU\..\SHARED\SRC\ -I                 #
#                       D:\S2Prog\TXU\..\SHARED\LZO\minilzo.210\ -I          #
#                       D:\S2Prog\TXU\lwip-1.4.1\src\include\ -I             #
#                       D:\S2Prog\TXU\lwip-1.4.1\src\include\ipv4\ -I        #
#                       D:\S2Prog\TXU\lwip-1.4.1\src\ -I                     #
#                       D:\S2Prog\TXU\..\SHARED\Database\ -I                 #
#                       D:\S2Prog\TXU\src\ -I "C:\Program Files (x86)\IAR    #
#                       Systems\Embedded Workbench 4.0\arm\INC\"             #
#                       --inline_threshold=2                                 #
#    List file       =  D:\S2Prog\TXU\Debug\List\TDUMessageBoxCancel.lst     #
#    Object file     =  D:\S2Prog\TXU\Debug\Obj\TDUMessageBoxCancel.r79      #
#                                                                            #
#                                                                            #
##############################################################################

D:\S2Prog\TXU\src\TDUMessageBoxCancel.cpp
      1          #include "TDUIncludes.h"
      2          

   \                                 In segment CODE, align 4, keep-with-next
      3          TDUMessageBoxCancel::~TDUMessageBoxCancel(void)
      4          {
   \                     `?~TDUMessageBoxCancel`:
   \   00000000   10402DE9           PUSH     {R4,LR}
   \   00000004   0040A0E1           MOV      R4,R0
      5          }
   \   00000008   940084E2           ADD      R0,R4,#+148
   \   0000000C   ........           _BLF     `?~CloseWindowTimer`,`?~CloseWindowTimer??rA`
   \   00000010   0400A0E1           MOV      R0,R4
   \   00000014   ........           _BLF     `?~TDUBasicWin`,`?~TDUBasicWin??rA`
   \   00000018   1040BDE8           POP      {R4,LR}
   \   0000001C   1EFF2FE1           BX       LR               ;; return
      6          

   \                                 In segment DATA_C, align 4, align-sorted
      7          const GUI_WIDGET_CREATE_INFO TDUMessageBoxCancel::aDialogCreate[] =
   \                     ??aDialogCreate:
   \   00000000   ............       DC32 FRAMEWIN_CreateIndirect, `?<Constant "Warning">`
   \              ....        
   \   00000008   9E0832003200       DC16 2206, 50, 50, 160, 110, 16
   \              A0006E001000
   \   00000014   00000000....       DC32 0, BUTTON_CreateIndirect, `?<Constant "Yes">`
   \              ............
   \   00000020   03000A004600       DC16 3, 10, 70, 60, 20
   \              3C001400    
   \   0000002A   000000000000       DC8 0, 0, 0, 0, 0, 0
   \   00000030   ............       DC32 BUTTON_CreateIndirect, `?<Constant "No">`
   \              ....        
   \   00000038   040050004600       DC16 4, 80, 70, 60, 20
   \              3C001400    
   \   00000042   000000000000       DC8 0, 0, 0, 0, 0, 0
   \   00000048   ............       DC32 TEXT_CreateIndirect, `?<Constant "">`
   \              ....        
   \   00000050   610104000200       DC16 353, 4, 2, 150, 52, 0
   \              960034000000
   \   0000005C   00000000           DC8 0, 0, 0, 0
   \   00000060   ............       DC32 TEXT_CreateIndirect, `?<Constant "Continue?">`
   \              ....        
   \   00000068   60010A003700       DC16 352, 10, 55, 100, 20, 0
   \              640014000000
   \   00000074   00000000           DC8 0, 0, 0, 0
      8          {
      9          	{ FRAMEWIN_CreateIndirect ,"Warning" , TDU_MESSAGE_CAN_WIN ,    50, 50, 160, 110, FRAMEWIN_CF_MOVEABLE, 0},
     10          	{ BUTTON_CreateIndirect   ,"Yes"     , GUI_ID_YES   , 10, 70,  60,  20},
     11          	{ BUTTON_CreateIndirect   ,"No"      , GUI_ID_NO    , 80, 70,  60,  20},
     12          	{ TEXT_CreateIndirect     ,""        , GUI_ID_TEXT1 ,  4,  2, 150,  52, TEXT_CF_LEFT},
     13          	{ TEXT_CreateIndirect     ,"Continue?", GUI_ID_TEXT0, 10, 55, 100,  20, TEXT_CF_LEFT},
     14          };
     15          

   \                                 In segment CODE, align 4, keep-with-next
     16          TDUMessageBoxCancel::TDUMessageBoxCancel(void)
   \                     ??TDUMessageBoxCancel:
   \   00000000   70402DE9           PUSH     {R4-R6,LR}
   \   00000004   30D04DE2           SUB      SP,SP,#+48
   \   00000008   0040A0E1           MOV      R4,R0
     17          {
   \   0000000C   ........           _BLF     ??TDUBasicWin,??TDUBasicWin??rA
   \   00000010   940084E2           ADD      R0,R4,#+148
   \   00000014   ........           _BLF     ??CloseWindowTimer,??CloseWindowTimer??rA
     18          	Closed = true;
     19          	{
     20          		const GUIKey Words[] ={
     21          			{TDU_MESSAGE_CAN_WIN    ,0,L_WORD153},
     22          			{GUI_ID_YES                     ,0,L_WORD162},
     23          			{GUI_ID_NO                      ,0,L_WORD163},
     24          			{GUI_ID_TEXT0                   ,0,L_WORD164},
     25          			//{GUI_ID_TEXT1					,0,L_WORD0	},
     26          		};
   \   00000018   3C109FE5           LDR      R1,??TDUMessageBoxCancel_1  ;; `?<Constant {{2206, 0, 153}, {3, 0, 162}, {4, 0`
   \   0000001C   0100A0E3           MOV      R0,#+1
   \   00000020   9000C4E5           STRB     R0,[R4, #+144]
   \   00000024   6C50B1E8           LDM      R1!,{R2,R3,R5,R6,R12,LR}
   \   00000028   0D00A0E1           MOV      R0,SP
   \   0000002C   6C50A0E8           STM      R0!,{R2,R3,R5,R6,R12,LR}
   \   00000030   6C5091E8           LDM      R1,{R2,R3,R5,R6,R12,LR}
     27          		AddToSKeyList((GUIKey*)Words,NELEMENTS(Words));
   \   00000034   0D10A0E1           MOV      R1,SP
   \   00000038   6C5080E8           STM      R0,{R2,R3,R5,R6,R12,LR}
   \   0000003C   0130A0E3           MOV      R3,#+1
   \   00000040   0420A0E3           MOV      R2,#+4
   \   00000044   0400A0E1           MOV      R0,R4
   \   00000048   ........           _BLF     ??AddToSKeyList,??AddToSKeyList??rA
     28          	}
     29          }
   \   0000004C   0400A0E1           MOV      R0,R4
   \   00000050   30D08DE2           ADD      SP,SP,#+48
   \   00000054   7040BDE8           POP      {R4-R6,LR}
   \   00000058   1EFF2FE1           BX       LR               ;; return
   \                     ??TDUMessageBoxCancel_1:
   \   0000005C   ........           DC32     `?<Constant {{2206, 0, 153}, {3, 0, 162}, {4, 0`
     30          
     31          

   \                                 In segment CODE, align 4, keep-with-next
     32          void TDUMessageBoxCancel::Exec(WM_HWIN hCurrentWin,int HeadingText,int MessageText, int ID)
     33          {
   \                     ??Exec:
   \   00000000   F0412DE9           PUSH     {R4-R8,LR}
   \   00000004   38D04DE2           SUB      SP,SP,#+56
   \   00000008   50709DE5           LDR      R7,[SP, #+80]
   \   0000000C   0040A0E1           MOV      R4,R0
   \   00000010   0150A0E1           MOV      R5,R1
   \   00000014   0260A0E1           MOV      R6,R2
   \   00000018   0310A0E1           MOV      R1,R3
     34          	AnsiString MsgText = DivideString(FindDictionaryWord(MessageText),28);
   \   0000001C   0D00A0E1           MOV      R0,SP
   \   00000020   ........           _BLF     ??FindDictionaryWord,??FindDictionaryWord??rA
   \   00000024   1C20A0E3           MOV      R2,#+28
   \   00000028   0D10A0E1           MOV      R1,SP
   \   0000002C   1C008DE2           ADD      R0,SP,#+28
   \   00000030   ........           _BLF     ??DivideString,??DivideString??rA
   \   00000034   0020A0E3           MOV      R2,#+0
   \   00000038   0110A0E3           MOV      R1,#+1
   \   0000003C   0D00A0E1           MOV      R0,SP
   \   00000040   ........           _BLF     ??_Tidy,??_Tidy??rA
     35          	if ( !Closed ) {
   \   00000044   9000D4E5           LDRB     R0,[R4, #+144]
   \   00000048   000050E3           CMP      R0,#+0
   \   0000004C   0600001A           BNE      ??Exec_1
     36          		if ( WinHandl ) {
   \   00000050   FA02D4E1           LDRSH    R0,[R4, #+42]
   \   00000054   000050E3           CMP      R0,#+0
   \   00000058   0400000A           BEQ      ??Exec_2
     37          			Closed = true;
   \   0000005C   0110A0E3           MOV      R1,#+1
   \   00000060   9010C4E5           STRB     R1,[R4, #+144]
     38          			GUI_EndDialog(WinHandl, 0);
   \   00000064   0010A0E3           MOV      R1,#+0
   \   00000068   ........           _BLF     GUI_EndDialog,??GUI_EndDialog??rA
     39          		}
     40          	}
     41          	Closed = false;
   \                     ??Exec_1:
   \   0000006C   0000A0E3           MOV      R0,#+0
     42          	WinHandl = GUI_CreateDialogBox(aDialogCreate, GUI_COUNTOF(aDialogCreate),&cbMessageBox,
     43          								   0, 0, 0);
   \                     ??Exec_2:
   \   00000070   B8209FE5           LDR      R2,??Exec_3      ;; ??cbMessageBox
   \   00000074   9000C4E5           STRB     R0,[R4, #+144]
   \   00000078   0000A0E3           MOV      R0,#+0
   \   0000007C   01002DE9           PUSH     {R0}
   \   00000080   01002DE9           PUSH     {R0}
   \   00000084   A8009FE5           LDR      R0,??Exec_3+0x4  ;; ??aDialogCreate
   \   00000088   0030A0E3           MOV      R3,#+0
   \   0000008C   0510A0E3           MOV      R1,#+5
   \   00000090   ........           _BLF     GUI_CreateDialogBox,??GUI_CreateDialogBox??rA
   \   00000094   BA02C4E1           STRH     R0,[R4, #+42]
     44          	WM_HWIN hText = WM_GetDialogItem( WinHandl, GUI_ID_TEXT1 );
   \   00000098   6110A0E3           MOV      R1,#+97
   \   0000009C   401F81E3           ORR      R1,R1,#0x100
   \   000000A0   ........           _BLF     WM_GetDialogItem,??WM_GetDialogItem??rA
   \   000000A4   0080A0E1           MOV      R8,R0
     45          	ValueID     = ID;
   \   000000A8   887084E5           STR      R7,[R4, #+136]
     46          	DialogWinHandl = hCurrentWin;
   \   000000AC   B453C4E1           STRH     R5,[R4, #+52]
     47          	ChangeSWord(TDU_MESSAGE_CAN_WIN,0,HeadingText);
   \   000000B0   0000A0E3           MOV      R0,#+0
   \   000000B4   01002DE9           PUSH     {R0}
   \   000000B8   0630A0E1           MOV      R3,R6
   \   000000BC   0020A0E1           MOV      R2,R0
   \   000000C0   9E10A0E3           MOV      R1,#+158
   \   000000C4   801E81E3           ORR      R1,R1,#0x800
   \   000000C8   0400A0E1           MOV      R0,R4
   \   000000CC   ........           _BLF     ??ChangeSWord,??ChangeSWord??rA
     48          	//ChangeSWord(GUI_ID_TEXT1			 ,0,MessageText);
     49          	TEXT_SetText(hText,MsgText.c_str());
   \   000000D0   40009DE5           LDR      R0,[SP, #+64]
   \   000000D4   0CD08DE2           ADD      SP,SP,#+12
   \   000000D8   100050E3           CMP      R0,#+16
   \   000000DC   20109D25           LDRCS    R1,[SP, #+32]
   \   000000E0   0800A0E1           MOV      R0,R8
   \   000000E4   20108D32           ADDCC    R1,SP,#+32
   \   000000E8   ........           _BLF     TEXT_SetText,??TEXT_SetText??rA
     50          	CloseTimer.Init(WinHandl,true,&Closed,TimeOut);
   \   000000EC   2000A0E3           MOV      R0,#+32
   \   000000F0   4E0C80E3           ORR      R0,R0,#0x4E00
   \   000000F4   01002DE9           PUSH     {R0}
   \   000000F8   FA12D4E1           LDRSH    R1,[R4, #+42]
   \   000000FC   903084E2           ADD      R3,R4,#+144
   \   00000100   0120A0E3           MOV      R2,#+1
   \   00000104   940084E2           ADD      R0,R4,#+148
   \   00000108   ........           _BLF     ??Init,??Init??rA
     51          	WM_EnableMemdev(WinHandl);
   \   0000010C   FA02D4E1           LDRSH    R0,[R4, #+42]
   \   00000110   ........           _BLF     WM_EnableMemdev,??WM_EnableMemdev??rA
     52          }
   \   00000114   0020A0E3           MOV      R2,#+0
   \   00000118   0110A0E3           MOV      R1,#+1
   \   0000011C   20008DE2           ADD      R0,SP,#+32
   \   00000120   ........           _BLF     ??_Tidy,??_Tidy??rA
   \   00000124   3CD08DE2           ADD      SP,SP,#+60
   \   00000128   F041BDE8           POP      {R4-R8,LR}
   \   0000012C   1EFF2FE1           BX       LR               ;; return
   \                     ??Exec_3:
   \   00000130   ........           DC32     ??cbMessageBox
   \   00000134   ........           DC32     ??aDialogCreate
     53          
     54          /*********************************************************************
     55          *
     56          * Dialog procedure
     57          */

   \                                 In segment CODE, align 4, keep-with-next
     58          void TDUMessageBoxCancel::cbMessageBox(WM_MESSAGE *pMsg)
     59          {
   \                     ??cbMessageBox:
   \   00000000   30402DE9           PUSH     {R4,R5,LR}
     60          	int NCode, Id;
     61          	//WM_HWIN hWin = pMsg->hWin;
     62          	switch ( pMsg->MsgId ) {
   \   00000004   FC409FE5           LDR      R4,??cbMessageBox_1  ;; ConfirmMessageBox
   \   00000008   0CD04DE2           SUB      SP,SP,#+12
   \   0000000C   0050A0E1           MOV      R5,R0
   \   00000010   001095E5           LDR      R1,[R5, #+0]
   \   00000014   000094E5           LDR      R0,[R4, #+0]
   \   00000018   0E1051E2           SUBS     R1,R1,#+14
   \   0000001C   0A00000A           BEQ      ??cbMessageBox_2
   \   00000020   011051E2           SUBS     R1,R1,#+1
   \   00000024   0700000A           BEQ      ??cbMessageBox_3
   \   00000028   0E1051E2           SUBS     R1,R1,#+14
   \   0000002C   0200000A           BEQ      ??cbMessageBox_4
   \   00000030   091051E2           SUBS     R1,R1,#+9
   \   00000034   0600000A           BEQ      ??cbMessageBox_5
   \   00000038   2F0000EA           B        ??cbMessageBox_6
     63          	case WM_INIT_DIALOG:
     64          		ConfirmMessageBox->FirstTime = true;
   \                     ??cbMessageBox_4:
   \   0000003C   0110A0E3           MOV      R1,#+1
   \   00000040   2810C0E5           STRB     R1,[R0, #+40]
   \   00000044   000000EA           B        ??cbMessageBox_2
     65          		break;
     66          	case WM_PAINT:
     67          		ConfirmMessageBox->UpdateLanguage();
   \                     ??cbMessageBox_3:
   \   00000048   ........           _BLF     ??UpdateLanguage,??UpdateLanguage??rA
   \                     ??cbMessageBox_2:
   \   0000004C   3740BDE8           POP      {R0-R2,R4,R5,LR}
   \   00000050   1EFF2FE1           BX       LR
     68          		break;
     69          	case WM_KEY:
     70          		break;
     71          	case WM_NOTIFY_PARENT:
     72          		Id    = WM_GetId(pMsg->hWinSrc);	/* Id of widget */
   \                     ??cbMessageBox_5:
   \   00000054   F600D5E1           LDRSH    R0,[R5, #+6]
   \   00000058   ........           _BLF     WM_GetId,??WM_GetId??rA
     73          		NCode = pMsg->Data.v;				/* Notification code */
     74          		switch ( NCode ) {
   \   0000005C   081095E5           LDR      R1,[R5, #+8]
   \   00000060   020051E3           CMP      R1,#+2
   \   00000064   F8FFFF1A           BNE      ??cbMessageBox_2
     75          		case WM_NOTIFICATION_RELEASED:	  /* React only if released */
     76          			switch ( Id ) {
   \   00000068   001094E5           LDR      R1,[R4, #+0]
   \   0000006C   0020A0E3           MOV      R2,#+0
   \   00000070   030050E2           SUBS     R0,R0,#+3
   \   00000074   1800000A           BEQ      ??cbMessageBox_7
   \   00000078   010050E2           SUBS     R0,R0,#+1
   \   0000007C   F2FFFF1A           BNE      ??cbMessageBox_2
     77          			case GUI_ID_NO:
     78          				{
     79          					ConfirmMessageBox->ReturnBuf[0]=0;
   \   00000080   3620C1E5           STRB     R2,[R1, #+54]
     80          					WM_MESSAGE MyMsgPtr;
     81          					MyMsgPtr.hWin = ConfirmMessageBox->DialogWinHandl;
   \   00000084   001094E5           LDR      R1,[R4, #+0]
   \   00000088   F423D1E1           LDRSH    R2,[R1, #+52]
   \   0000008C   B420CDE1           STRH     R2,[SP, #+4]
     82          					MyMsgPtr.hWinSrc = ConfirmMessageBox->ValueID;
   \   00000090   882091E5           LDR      R2,[R1, #+136]
   \   00000094   B620CDE1           STRH     R2,[SP, #+6]
     83          					MyMsgPtr.MsgId = MESSAGE_CANCEL_RETURN;
   \   00000098   1620A0E3           MOV      R2,#+22
   \                     ??cbMessageBox_8:
   \   0000009C   402E82E3           ORR      R2,R2,#0x400
   \   000000A0   00208DE5           STR      R2,[SP, #+0]
     84          					//  	MyMsgPtr.Data.v = ValueID;
     85          					MyMsgPtr.Data.p = ConfirmMessageBox->ReturnBuf;
   \   000000A4   362081E2           ADD      R2,R1,#+54
   \   000000A8   08208DE5           STR      R2,[SP, #+8]
     86          					ConfirmMessageBox->CloseTimer.Stop();
   \   000000AC   940081E2           ADD      R0,R1,#+148
   \   000000B0   B01091E5           LDR      R1,[R1, #+176]
   \   000000B4   001091E5           LDR      R1,[R1, #+0]
   \   000000B8   0FE0A0E1           MOV      LR,PC
   \   000000BC   11FF2FE1           BX       R1
   \   000000C0   000094E5           LDR      R0,[R4, #+0]
   \   000000C4   F403D0E1           LDRSH    R0,[R0, #+52]
   \   000000C8   010050E3           CMP      R0,#+1
   \   000000CC   DEFFFFBA           BLT      ??cbMessageBox_2
     87          					if ( ConfirmMessageBox->DialogWinHandl > 0 )
     88          						WM_SendMessage(ConfirmMessageBox->DialogWinHandl,&MyMsgPtr);
   \   000000D0   0D10A0E1           MOV      R1,SP
   \   000000D4   ........           _BLF     WM_SendMessage,??WM_SendMessage??rA
   \   000000D8   DBFFFFEA           B        ??cbMessageBox_2
     89          				}
     90          				break;
     91          			case GUI_ID_YES:
     92          				{
     93          					ConfirmMessageBox->ReturnBuf[0]=0;
   \                     ??cbMessageBox_7:
   \   000000DC   3620C1E5           STRB     R2,[R1, #+54]
     94          					WM_MESSAGE MyMsgPtr;
     95          					MyMsgPtr.hWin = ConfirmMessageBox->DialogWinHandl;
   \   000000E0   001094E5           LDR      R1,[R4, #+0]
   \   000000E4   F423D1E1           LDRSH    R2,[R1, #+52]
   \   000000E8   B420CDE1           STRH     R2,[SP, #+4]
     96          					MyMsgPtr.hWinSrc = ConfirmMessageBox->ValueID;
   \   000000EC   882091E5           LDR      R2,[R1, #+136]
   \   000000F0   B620CDE1           STRH     R2,[SP, #+6]
     97          					MyMsgPtr.MsgId = MESSAGE_YES_RETURN;
   \   000000F4   1420A0E3           MOV      R2,#+20
   \   000000F8   E7FFFFEA           B        ??cbMessageBox_8
     98          					//  	MyMsgPtr.Data.v = ValueID;
     99          					MyMsgPtr.Data.p = ConfirmMessageBox->ReturnBuf;
    100          					ConfirmMessageBox->CloseTimer.Stop();
    101          					if ( ConfirmMessageBox->DialogWinHandl > 0 )
    102          						WM_SendMessage(ConfirmMessageBox->DialogWinHandl,&MyMsgPtr);
    103          				}
    104          				break;
    105          			}
    106          			break;
    107          		}
    108          		break;
    109          	default:
    110          		WM_DefaultProc(pMsg);
   \                     ??cbMessageBox_6:
   \   000000FC   0500A0E1           MOV      R0,R5
   \   00000100   ........           _BLF     WM_DefaultProc,??WM_DefaultProc??rA
    111          	}
    112          }
   \                     ??cbMessageBox_9:
   \   00000104   D0FFFFEA           B        ??cbMessageBox_2
   \                     ??cbMessageBox_1:
   \   00000108   ........           DC32     ConfirmMessageBox

   \                                 In segment DIFUNCT, align 4, keep-with-next, root
   \   00000000                      REQUIRE ?call_ctors
   \   00000000   ........           DC32    ??__sti__routine

   \                                 In segment DATA_C, align 4, align-sorted
   \                     `?<Constant "Warning">`:
   \   00000000   5761726E696E       DC8 "Warning"
   \              6700        

   \                                 In segment DATA_C, align 4, align-sorted
   \                     `?<Constant "Yes">`:
   \   00000000   59657300           DC8 "Yes"

   \                                 In segment DATA_C, align 1, align-sorted
   \                     `?<Constant "No">`:
   \   00000000   4E6F00             DC8 "No"

   \                                 In segment DATA_C, align 1, align-sorted
   \                     `?<Constant "">`:
   \   00000000   00                 DC8 ""

   \                                 In segment DATA_C, align 4, align-sorted
   \                     `?<Constant "Continue?">`:
   \   00000000   436F6E74696E       DC8 "Continue?"
   \              75653F00    
   \   0000000A   0000               DC8 0, 0

   \                                 In segment DATA_C, align 4, align-sorted
   \                     `?<Constant {{2206, 0, 153}, {3, 0, 162}, {4, 0`:
   \   00000000   9E0800000000       DC32 2206, 0, 153, 3, 0, 162, 4, 0, 163, 352, 0, 164
   \              000099000000
   \              030000000000
   \              0000A2000000
   \              040000000000
   \              0000A3000000
   \              600100000000
   \              0000A4000000

   \                                 In segment CODE, align 4, keep-with-next
   \   __??Code32?? __code __interwork __atpcs TDUMessageBoxCancel &TDUMessageBoxCancel::new TDUMessageBoxCancel()
   \                     `??new TDUMessageBoxCancel`:
   \   00000000   00402DE9           PUSH     {LR}
   \   00000004   BC00A0E3           MOV      R0,#+188
   \   00000008   ........           _BLF     `??operator new`,`??operator new??rA`
   \   0000000C   000050E3           CMP      R0,#+0
   \   00000010   0000000A           BEQ      `??new TDUMessageBoxCancel_1`
   \   00000014   ........           BL       ??TDUMessageBoxCancel
   \                     `??new TDUMessageBoxCancel_1`:
   \   00000018   0040BDE8           POP      {LR}
   \   0000001C   1EFF2FE1           BX       LR               ;; return

   \                                 In segment CODE, align 4, keep-with-next
   \   __??Code32?? __code __interwork __atpcs void TDUMessageBoxCancel::delete ~TDUMessageBoxCancel(TDUMessageBoxCancel *)
   \                     `??delete ~TDUMessageBoxCancel`:
   \   00000000   10402DE9           PUSH     {R4,LR}
   \   00000004   0040B0E1           MOVS     R4,R0
   \   00000008   0200000A           BEQ      `??delete ~TDUMessageBoxCancel_1`
   \   0000000C   ........           BL       `?~TDUMessageBoxCancel`
   \   00000010   0400A0E1           MOV      R0,R4
   \   00000014   ........           _BLF     `??operator delete`,`??operator delete??rA`
   \                     `??delete ~TDUMessageBoxCancel_1`:
   \   00000018   1040BDE8           POP      {R4,LR}
   \   0000001C   1EFF2FE1           BX       LR               ;; return

   \                                 In segment CODE, align 4, keep-with-next
   \   static __??Code32?? __intrinsic __code __interwork __atpcs void __sti__routine()
   \                     ??__sti__routine:
   \   00000000   1EFF2FE1           BX       LR               ;; return
    113          

   Maximum stack usage in bytes:

     Function                       CSTACK
     --------                       ------
     TDUMessageBoxCancel::Exec(GUI_HWIN, int, int, int)
                                       92
     TDUMessageBoxCancel::TDUMessageBoxCancel()
                                       64
     TDUMessageBoxCancel::cbMessageBox(WM_MESSAGE *)
                                       24
     TDUMessageBoxCancel::delete ~TDUMessageBoxCancel(TDUMessageBoxCancel *)
                                        8
     TDUMessageBoxCancel::new TDUMessageBoxCancel()
                                        4
     TDUMessageBoxCancel::~TDUMessageBoxCancel()
                                        8
     __sti__routine()                   0


   Segment part sizes:

     Function/Label                 Bytes
     --------------                 -----
     TDUMessageBoxCancel::~TDUMessageBoxCancel()
                                      32
     TDUMessageBoxCancel::aDialogCreate
                                     120
     TDUMessageBoxCancel::TDUMessageBoxCancel()
                                      96
     TDUMessageBoxCancel::Exec(GUI_HWIN, int, int, int)
                                     312
     TDUMessageBoxCancel::cbMessageBox(WM_MESSAGE *)
                                     268
     ?<Constant "Warning">             8
     ?<Constant "Yes">                 4
     ?<Constant "No">                  3
     ?<Constant "">                    1
     ?<Constant "Continue?">          12
     ?<Constant {{2206, 0, 153}, {3, 0, 162}, {4, 0
                                      48
     TDUMessageBoxCancel::new TDUMessageBoxCancel()
                                      32
     TDUMessageBoxCancel::delete ~TDUMessageBoxCancel(TDUMessageBoxCancel *)
                                      32
     __sti__routine()                  4
      Others                         284

 
 1 056 bytes in segment CODE
   196 bytes in segment DATA_C
     4 bytes in segment DIFUNCT
 
 780 bytes of CODE  memory (+ 280 bytes shared)
 196 bytes of CONST memory

Errors: none
Warnings: none
