##############################################################################
#                                                                            #
# IAR ARM ANSI C/C++ Compiler V4.42A/W32               14/Sep/2022  15:18:41 #
# Copyright 1999-2005 IAR Systems. All rights reserved.                      #
#                                                                            #
#    Cpu mode        =  interwork                                            #
#    Endian          =  little                                               #
#    Stack alignment =  4                                                    #
#    Source file     =  D:\S2Prog\TXU\src\TDUPrinterSetupWin.cpp             #
#    Command line    =  D:\S2Prog\TXU\src\TDUPrinterSetupWin.cpp --fpu None  #
#                       -D OS_LIBMODE_SP -D CPU_S3C2410 -D OS_RAMVECT=0 -D   #
#                       OS_UART=-1 -D S2TXU -D USE_LZO=1 -D __ARM_LIBRARY__  #
#                       -D WATCHDOG=1 -D NETWORK=1 -lCN                      #
#                       D:\S2Prog\TXU\Debug\List\ -o                         #
#                       D:\S2Prog\TXU\Debug\Obj\ -s9 --debug --cpu_mode arm  #
#                       --endian little --cpu ARM920T --stack_align 4        #
#                       --interwork -e --enable_multibytes --eec++           #
#                       --dlib_config "C:\Program Files (x86)\IAR            #
#                       Systems\Embedded Workbench                           #
#                       4.0\arm\LIB\dl4tpainl8n.h" -I                        #
#                       D:\S2Prog\TXU\GUI\CORE\ -I D:\S2Prog\TXU\GUI\WM\ -I  #
#                       D:\S2Prog\TXU\GUI\WIDGET\ -I D:\S2Prog\TXU\CONFIG\   #
#                       -I D:\S2Prog\TXU\INC\ -I D:\S2Prog\TXU\..\SHARED\INC #
#                       \ -I D:\S2Prog\TXU\..\SHARED\SRC\ -I                 #
#                       D:\S2Prog\TXU\..\SHARED\LZO\minilzo.210\ -I          #
#                       D:\S2Prog\TXU\lwip-1.4.1\src\include\ -I             #
#                       D:\S2Prog\TXU\lwip-1.4.1\src\include\ipv4\ -I        #
#                       D:\S2Prog\TXU\lwip-1.4.1\src\ -I                     #
#                       D:\S2Prog\TXU\..\SHARED\Database\ -I                 #
#                       D:\S2Prog\TXU\src\ -I "C:\Program Files (x86)\IAR    #
#                       Systems\Embedded Workbench 4.0\arm\INC\"             #
#                       --inline_threshold=2                                 #
#    List file       =  D:\S2Prog\TXU\Debug\List\TDUPrinterSetupWin.lst      #
#    Object file     =  D:\S2Prog\TXU\Debug\Obj\TDUPrinterSetupWin.r79       #
#                                                                            #
#                                                                            #
##############################################################################

D:\S2Prog\TXU\src\TDUPrinterSetupWin.cpp
      1          #include "TDUIncludes.h"
      2          
      3          
      4          
      5          

   \                                 In segment CODE, align 4, keep-with-next
      6          TDUPrinterSetupWin::~TDUPrinterSetupWin(void)
      7          {
   \                     `?~TDUPrinterSetupWin`:
   \   00000000   10402DE9           PUSH     {R4,LR}
   \   00000004   0040A0E1           MOV      R4,R0
      8          }
   \   00000008   4C0084E2           ADD      R0,R4,#+76
   \   0000000C   ........           _BLF     `?~CloseWindowTimer`,`?~CloseWindowTimer??rA`
   \   00000010   0400A0E1           MOV      R0,R4
   \   00000014   ........           _BLF     `?~TDUBasicWin`,`?~TDUBasicWin??rA`
   \   00000018   1040BDE8           POP      {R4,LR}
   \   0000001C   1EFF2FE1           BX       LR               ;; return
      9          

   \                                 In segment CODE, align 4, keep-with-next
     10          TDUPrinterSetupWin::TDUPrinterSetupWin(void)
   \                     ??TDUPrinterSetupWin:
   \   00000000   10402DE9           PUSH     {R4,LR}
   \   00000004   0040A0E1           MOV      R4,R0
     11          {
   \   00000008   ........           _BLF     ??TDUBasicWin,??TDUBasicWin??rA
   \   0000000C   4C0084E2           ADD      R0,R4,#+76
   \   00000010   ........           _BLF     ??CloseWindowTimer,??CloseWindowTimer??rA
     12          	Closed = true;
   \   00000014   0100A0E3           MOV      R0,#+1
   \   00000018   4A00C4E5           STRB     R0,[R4, #+74]
     13          }
   \   0000001C   0400A0E1           MOV      R0,R4
   \   00000020   1040BDE8           POP      {R4,LR}
   \   00000024   1EFF2FE1           BX       LR               ;; return
     14          

   \                                 In segment DATA_C, align 4, align-sorted
     15          const GUI_WIDGET_CREATE_INFO TDUPrinterSetupWin::aDialogCreate[] =
   \                     ??aDialogCreate:
   \   00000000   ............       DC32 FRAMEWIN_CreateIndirect, `?<Constant "Printer setup page">`
   \              ....        
   \   00000008   910800000000       DC16 2193, 0, 0, 0, 0, 128
   \              000000008000
   \   00000014   00000000....       DC32 0, BUTTON_CreateIndirect, `?<Constant "Close">`
   \              ............
   \   00000020   0500BE009A00       DC16 5, 190, 154, 80, 22
   \              50001600    
   \   0000002A   000000000000       DC8 0, 0, 0, 0, 0, 0
   \   00000030   ............       DC32 TEXT_CreateIndirect, `?<Constant "Select logging:">`
   \              ....        
   \   00000038   600105000A00       DC16 352, 5, 10, 80, 20, 0
   \              500014000000
   \   00000044   00000000           DC8 0, 0, 0, 0
   \   00000048   ............       DC32 TEXT_CreateIndirect, `?<Constant "Logging time">`
   \              ....        
   \   00000050   610105004600       DC16 353, 5, 70, 60, 20, 0
   \              3C0014000000
   \   0000005C   00000000           DC8 0, 0, 0, 0
   \   00000060   ........0000       DC32 EDIT_CreateIndirect, 0H
   \              0000        
   \   00000068   010146004600       DC16 257, 70, 70, 40, 15, 14
   \              28000F000E00
   \   00000074   05000000....       DC32 5, TEXT_CreateIndirect, `?<Constant "Hours">`
   \              ............
   \   00000080   620173004600       DC16 354, 115, 70, 80, 20, 0
   \              500014000000
   \   0000008C   00000000           DC8 0, 0, 0, 0
   \   00000090   ........0000       DC32 CHECKBOX_CreateIndirect, 0H
   \              0000        
   \   00000098   200105001E00       DC16 288, 5, 30, 120, 15
   \              78000F00    
   \   000000A2   000000000000       DC8 0, 0, 0, 0, 0, 0
   \   000000A8   ........0000       DC32 CHECKBOX_CreateIndirect, 0H
   \              0000        
   \   000000B0   210105003200       DC16 289, 5, 50, 120, 15
   \              78000F00    
   \   000000BA   000000000000       DC8 0, 0, 0, 0, 0, 0
   \   000000C0   ........0000       DC32 CHECKBOX_CreateIndirect, 0H
   \              0000        
   \   000000C8   220105005A00       DC16 290, 5, 90, 90, 15
   \              5A000F00    
   \   000000D2   000000000000       DC8 0, 0, 0, 0, 0, 0
   \   000000D8   ........0000       DC32 CHECKBOX_CreateIndirect, 0H
   \              0000        
   \   000000E0   230105006E00       DC16 291, 5, 110, 90, 15
   \              5A000F00    
   \   000000EA   000000000000       DC8 0, 0, 0, 0, 0, 0
   \   000000F0   ........0000       DC32 CHECKBOX_CreateIndirect, 0H
   \              0000        
   \   000000F8   240105008200       DC16 292, 5, 130, 90, 15
   \              5A000F00    
   \   00000102   000000000000       DC8 0, 0, 0, 0, 0, 0
   \   00000108   ........0000       DC32 CHECKBOX_CreateIndirect, 0H
   \              0000        
   \   00000110   250105009600       DC16 293, 5, 150, 90, 15
   \              5A000F00    
   \   0000011A   000000000000       DC8 0, 0, 0, 0, 0, 0
   \   00000120   ........0000       DC32 CHECKBOX_CreateIndirect, 0H
   \              0000        
   \   00000128   2601A0000A00       DC16 294, 160, 10, 110, 15
   \              6E000F00    
   \   00000132   000000000000       DC8 0, 0, 0, 0, 0, 0
     16          {
     17          	{ FRAMEWIN_CreateIndirect,"Printer setup page"  ,TDU_LOG_SETUP_WIN, 0, 0, 0, 0, FRAMEWIN_CF_MAXIMIZED, 0},
     18          	{ BUTTON_CreateIndirect  , "Close"              ,GUI_ID_CLOSE     ,190, 154,  80, 22},
     19          	{ TEXT_CreateIndirect,   "Select logging:"      ,GUI_ID_TEXT0     ,  5,  10, 80, 20, TEXT_CF_LEFT},
     20          	{ TEXT_CreateIndirect,   "Logging time"         ,GUI_ID_TEXT1     ,  5,  70, 60, 20, TEXT_CF_LEFT},
     21          	{ EDIT_CreateIndirect,    NULL                  ,GUI_ID_EDIT1     , 70,  70, 40, 15, GUI_TA_HCENTER | GUI_TA_VCENTER, 5},
     22          	{ TEXT_CreateIndirect,   "Hours"                ,GUI_ID_TEXT2     ,115,  70, 80, 20, TEXT_CF_LEFT},
     23          	{ CHECKBOX_CreateIndirect, NULL                 ,GUI_ID_CHECK0    ,  5,  30, 120, 15},
     24          	{ CHECKBOX_CreateIndirect, NULL                 ,GUI_ID_CHECK1    ,  5,  50, 120, 15},
     25          	{ CHECKBOX_CreateIndirect, NULL                 ,GUI_ID_CHECK2    ,  5,  90,  90, 15},
     26          	{ CHECKBOX_CreateIndirect, NULL                 ,GUI_ID_CHECK3    ,  5, 110,  90, 15},
     27          	{ CHECKBOX_CreateIndirect, NULL                 ,GUI_ID_CHECK4    ,  5, 130,  90, 15},
     28          	{ CHECKBOX_CreateIndirect, NULL                 ,GUI_ID_CHECK5    ,  5, 150,  90, 15},
     29          	{ CHECKBOX_CreateIndirect, NULL                 ,GUI_ID_CHECK6    ,160,  10, 110, 15},
     30          };
     31          
     32          

   \                                 In segment CODE, align 4, keep-with-next
     33          void TDUPrinterSetupWin::ExecDialogBox(WM_HWIN hCurrentWin)
     34          {
   \                     ??ExecDialogBox:
   \   00000000   10402DE9           PUSH     {R4,LR}
   \   00000004   0040A0E1           MOV      R4,R0
     35          	//if ( !Closed ) {
     36          	//	if ( WinHandl ) {
     37          	//		CloseTimer.Stop();
     38          	//	}
     39          	//}
     40          	//Closed = false;
     41          	//WinHandl = GUI_CreateDialogBox(aDialogCreate, GUI_COUNTOF(aDialogCreate),&cbSysWin,
     42          	//											hCurrentWin, 0, 0);
     43          	//CloseTimer.Init(WinHandl,true,&Closed,TimeOut);
     44          	// WM_EnableMemdev(WinHandl);
     45          
     46          	if ( Closed ) {
   \   00000008   4A00D4E5           LDRB     R0,[R4, #+74]
   \   0000000C   000050E3           CMP      R0,#+0
   \   00000010   0E00000A           BEQ      ??ExecDialogBox_1
     47          		Closed = false;
     48          		WinHandl = GUI_CreateDialogBox(aDialogCreate, GUI_COUNTOF(aDialogCreate),&cbEventHandler,
     49          									   hCurrentWin, 0, 0);
   \   00000014   44209FE5           LDR      R2,??ExecDialogBox_2  ;; ??cbEventHandler
   \   00000018   0000A0E3           MOV      R0,#+0
   \   0000001C   4A00C4E5           STRB     R0,[R4, #+74]
   \   00000020   01002DE9           PUSH     {R0}
   \   00000024   01002DE9           PUSH     {R0}
   \   00000028   34009FE5           LDR      R0,??ExecDialogBox_2+0x4  ;; ??aDialogCreate
   \   0000002C   0130A0E1           MOV      R3,R1
   \   00000030   0D10A0E3           MOV      R1,#+13
   \   00000034   ........           _BLF     GUI_CreateDialogBox,??GUI_CreateDialogBox??rA
   \   00000038   BA02C4E1           STRH     R0,[R4, #+42]
     50          		/*
     51          		DROPDOWN_SetAutoScroll( WM_GetDialogItem(WinHandl, GUI_ID_DROPDOWN0), 1 );
     52          		DROPDOWN_SetAutoScroll( WM_GetDialogItem(WinHandl, GUI_ID_DROPDOWN4), 1 );
     53          		*/
     54          		WM_EnableMemdev(WinHandl);
   \   0000003C   ........           _BLF     WM_EnableMemdev,??WM_EnableMemdev??rA
     55          		GetDialogHandles();
   \   00000040   0400A0E1           MOV      R0,R4
   \   00000044   ........           BL       ??GetDialogHandles
   \   00000048   08D08DE2           ADD      SP,SP,#+8
   \   0000004C   010000EA           B        ??ExecDialogBox_3
     56          	} else {
     57          		WM_BringToTop(WinHandl);
   \                     ??ExecDialogBox_1:
   \   00000050   FA02D4E1           LDRSH    R0,[R4, #+42]
   \   00000054   ........           _BLF     WM_BringToTop,??WM_BringToTop??rA
     58          	}
     59          }
   \                     ??ExecDialogBox_3:
   \   00000058   1040BDE8           POP      {R4,LR}
   \   0000005C   1EFF2FE1           BX       LR               ;; return
   \                     ??ExecDialogBox_2:
   \   00000060   ........           DC32     ??cbEventHandler
   \   00000064   ........           DC32     ??aDialogCreate
     60          
     61          /*********************************************************************
     62          *
     63          * Dialog procedure
     64          */

   \                                 In segment CODE, align 4, keep-with-next
     65          void TDUPrinterSetupWin::GetDialogHandles(void)
     66          {
   \                     ??GetDialogHandles:
   \   00000000   30402DE9           PUSH     {R4,R5,LR}
   \   00000004   9CD04DE2           SUB      SP,SP,#+156
   \   00000008   0040A0E1           MOV      R4,R0
     67          	for ( int i=0; i < P_SETUP_MAX_GUI_EDITS; i++ ) {
   \   0000000C   0050A0E3           MOV      R5,#+0
     68          		hEdit[i] = WM_GetDialogItem(WinHandl, GUI_ID_EDIT0+i);
   \                     ??GetDialogHandles_1:
   \   00000010   FA02D4E1           LDRSH    R0,[R4, #+42]
   \   00000014   401F85E2           ADD      R1,R5,#+256
   \   00000018   ........           _BLF     WM_GetDialogItem,??WM_GetDialogItem??rA
   \   0000001C   851084E0           ADD      R1,R4,R5, LSL #+1
   \   00000020   B004C1E1           STRH     R0,[R1, #+64]
     69          	}
   \   00000024   015085E2           ADD      R5,R5,#+1
   \   00000028   010055E3           CMP      R5,#+1
   \   0000002C   F7FFFFBA           BLT      ??GetDialogHandles_1
     70          	for ( int i=0; i < P_SETUP_MAX_GUI_TEXTS; i++ ) {
   \   00000030   0050A0E3           MOV      R5,#+0
     71          		hText[i] = WM_GetDialogItem(WinHandl, GUI_ID_TEXT0+i);
   \                     ??GetDialogHandles_2:
   \   00000034   FA02D4E1           LDRSH    R0,[R4, #+42]
   \   00000038   581F85E2           ADD      R1,R5,#+352
   \   0000003C   ........           _BLF     WM_GetDialogItem,??WM_GetDialogItem??rA
   \   00000040   851084E0           ADD      R1,R4,R5, LSL #+1
   \   00000044   B204C1E1           STRH     R0,[R1, #+66]
     72          	}
   \   00000048   015085E2           ADD      R5,R5,#+1
   \   0000004C   030055E3           CMP      R5,#+3
   \   00000050   F7FFFFBA           BLT      ??GetDialogHandles_2
     73          	hButtons[0] = WM_GetDialogItem(WinHandl, GUI_ID_CLOSE);
   \   00000054   FA02D4E1           LDRSH    R0,[R4, #+42]
   \   00000058   0510A0E3           MOV      R1,#+5
   \   0000005C   ........           _BLF     WM_GetDialogItem,??WM_GetDialogItem??rA
   \   00000060   B804C4E1           STRH     R0,[R4, #+72]
     74          	InitPrintWin();
   \   00000064   0400A0E1           MOV      R0,R4
   \   00000068   ........           BL       ??InitPrintWin
     75          	{
     76          		const GUIKey Words[] ={
     77          			{TDU_LOG_SETUP_WIN  ,0,L_WORD16},
     78          			{GUI_ID_CLOSE       ,0,L_WORD18},
     79          			{GUI_ID_TEXT0       ,0,L_WORD13},
     80          			{GUI_ID_TEXT1       ,0,L_WORD14},
     81          			{ 0/*GUI_ID_EDIT1*/ ,0,L_WORD14},
     82          			{GUI_ID_TEXT2       ,0,L_WORD15},
     83          			{GUI_ID_CHECK0      ,0,L_WORD7},
     84          			{GUI_ID_CHECK1      ,0,L_WORD8},
     85          			{GUI_ID_CHECK2      ,0,L_WORD9},
     86          			{GUI_ID_CHECK3      ,0,L_WORD10},
     87          			{GUI_ID_CHECK4      ,0,L_WORD11},
     88          			{GUI_ID_CHECK5      ,0,L_WORD12},
     89          			{GUI_ID_CHECK6      ,0,L_WORD620},
     90          		};
   \   0000006C   34109FE5           LDR      R1,??GetDialogHandles_3  ;; `?<Constant {{2193, 0, 16}, {5, 0, 18}, {352, 0`
   \   00000070   0D00A0E1           MOV      R0,SP
   \   00000074   9C30A0E3           MOV      R3,#+156
   \                     ??GetDialogHandles_4:
   \   00000078   043053E2           SUBS     R3,R3,#+4
   \   0000007C   032091E7           LDR      R2,[R1, R3]
   \   00000080   032080E7           STR      R2,[R0, R3]
   \   00000084   FBFFFF1A           BNE      ??GetDialogHandles_4
     91          		AddToSKeyList((GUIKey*)Words,NELEMENTS(Words));
   \   00000088   0130A0E3           MOV      R3,#+1
   \   0000008C   0D20A0E3           MOV      R2,#+13
   \   00000090   0D10A0E1           MOV      R1,SP
   \   00000094   0400A0E1           MOV      R0,R4
   \   00000098   ........           _BLF     ??AddToSKeyList,??AddToSKeyList??rA
     92          	}
     93          }
   \   0000009C   9CD08DE2           ADD      SP,SP,#+156
   \   000000A0   3040BDE8           POP      {R4,R5,LR}
   \   000000A4   1EFF2FE1           BX       LR               ;; return
   \                     ??GetDialogHandles_3:
   \   000000A8   ........           DC32     `?<Constant {{2193, 0, 16}, {5, 0, 18}, {352, 0`
     94          

   \                                 In segment CODE, align 4, keep-with-next
     95          void TDUPrinterSetupWin::InitPrintWin(void)
     96          {
     97          	const GUIUpdateKey UpdateValues[] ={
     98          		{ GUI_ID_EDIT1 , 0, PROSystemData::TXUSystemData,SVT_LOG_TIME         ,0,0,L_WORD19},
     99          		{ GUI_ID_CHECK0, 0, PROSystemData::TXUSystemData,SVT_LOG_ALARMS       ,0,0,             0},
    100          		{ GUI_ID_CHECK1, 0, PROSystemData::TXUSystemData,SVT_LOG_BALLAST_EXCH ,0,0,             0},
    101          		{ GUI_ID_CHECK2, 0, PROSystemData::TXUSystemData,SVT_LOG_CARGO        ,0,0,             0},
    102          		{ GUI_ID_CHECK3, 0, PROSystemData::TXUSystemData,SVT_LOG_SERVICE      ,0,0,             0},
    103          		{ GUI_ID_CHECK4, 0, PROSystemData::TXUSystemData,SVT_LOG_TEMPERATURE  ,0,0,             0},
    104          		{ GUI_ID_CHECK5, 0, PROSystemData::TXUSystemData,SVT_LOG_TANK_PRESSURE,0,0,             0},
    105          		{ GUI_ID_CHECK6, 0, PROSystemData::TXUSystemData,SVT_PRINTER_ON_TXU   ,0,0,             0},
    106          
    107          	};
   \                     ??InitPrintWin:
   \   00000000   84109FE5           LDR      R1,??InitPrintWin_1  ;; `?<Constant {{257, 0, (PRogramObjectBase *)0, 1`
   \   00000004   10402DE9           PUSH     {R4,LR}
   \   00000008   40DF4DE2           SUB      SP,SP,#+256
   \   0000000C   0040A0E1           MOV      R4,R0
   \   00000010   0D00A0E1           MOV      R0,SP
   \   00000014   403FA0E3           MOV      R3,#+256
   \                     ??InitPrintWin_2:
   \   00000018   043053E2           SUBS     R3,R3,#+4
   \   0000001C   032091E7           LDR      R2,[R1, R3]
   \   00000020   032080E7           STR      R2,[R0, R3]
   \   00000024   FBFFFF1A           BNE      ??InitPrintWin_2
   \   00000028   60009FE5           LDR      R0,??InitPrintWin_1+0x4  ;; ??TXUSystemData
    108          	SetUpWidgetInfoTable((GUIUpdateKey*)UpdateValues,GUI_COUNTOF(UpdateValues));
   \   0000002C   0820A0E3           MOV      R2,#+8
   \   00000030   000090E5           LDR      R0,[R0, #+0]
   \   00000034   0D10A0E1           MOV      R1,SP
   \   00000038   08008DE5           STR      R0,[SP, #+8]
   \   0000003C   28008DE5           STR      R0,[SP, #+40]
   \   00000040   48008DE5           STR      R0,[SP, #+72]
   \   00000044   68008DE5           STR      R0,[SP, #+104]
   \   00000048   88008DE5           STR      R0,[SP, #+136]
   \   0000004C   A8008DE5           STR      R0,[SP, #+168]
   \   00000050   C8008DE5           STR      R0,[SP, #+200]
   \   00000054   E8008DE5           STR      R0,[SP, #+232]
   \   00000058   0400A0E1           MOV      R0,R4
   \   0000005C   ........           _BLF     ??SetUpWidgetInfoTable,??SetUpWidgetInfoTable??rA
    109          	// Currently disable ballaste exchange log
    110          	DisableWidget(GUI_ID_CHECK1);	// Maybe WM_HideWindow
   \   00000060   2110A0E3           MOV      R1,#+33
   \   00000064   401F81E3           ORR      R1,R1,#0x100
   \   00000068   0400A0E1           MOV      R0,R4
   \   0000006C   ........           _BLF     ??DisableWidget,??DisableWidget??rA
    111          	WM_GetDialogItem(WinHandl, GUI_ID_EDIT1);
   \   00000070   FA02D4E1           LDRSH    R0,[R4, #+42]
   \   00000074   0110A0E3           MOV      R1,#+1
   \   00000078   401F81E3           ORR      R1,R1,#0x100
   \   0000007C   ........           _BLF     WM_GetDialogItem,??WM_GetDialogItem??rA
    112          	//UpdateFields(true);
    113          }
   \   00000080   40DF8DE2           ADD      SP,SP,#+256
   \   00000084   1040BDE8           POP      {R4,LR}
   \   00000088   1EFF2FE1           BX       LR               ;; return
   \                     ??InitPrintWin_1:
   \   0000008C   ........           DC32     `?<Constant {{257, 0, (PRogramObjectBase *)0, 1`
   \   00000090   ........           DC32     ??TXUSystemData
    114          

   \                                 In segment CODE, align 4, keep-with-next
    115          void TDUPrinterSetupWin::cbEventHandler(WM_MESSAGE *pMsg)
    116          {
   \                     ??cbEventHandler:
   \   00000000   30402DE9           PUSH     {R4,R5,LR}
   \   00000004   38D04DE2           SUB      SP,SP,#+56
    117          	int NCode, Id;
    118          	//WM_HWIN hWin = pMsg->hWin;
    119          	switch ( pMsg->MsgId ) {
   \   00000008   C44B9FE5           LDR      R4,??cbEventHandler_4  ;; SystemWindow
   \   0000000C   0050A0E1           MOV      R5,R0
   \   00000010   001095E5           LDR      R1,[R5, #+0]
   \   00000014   F600D5E1           LDRSH    R0,[R5, #+6]
   \   00000018   0D1041E2           SUB      R1,R1,#+13
   \   0000001C   FF20A0E3           MOV      R2,#+255
   \   00000020   C02F82E3           ORR      R2,R2,#0x300
   \   00000024   020051E1           CMP      R1,R2
   \   00000028   E602008A           BHI      ??cbEventHandler_5
   \   0000002C   022F8FE2           ADR      R2,??cbEventHandler_1
   \   00000030   8110A0E1           MOV      R1,R1, LSL #+1
   \   00000034   B12092E1           LDRH     R2,[R2, R1]
   \   00000038   02F18FE0           ADD      PC,PC,R2, LSL #+2
   \                     ??cbEventHandler_1:
   \   0000003C   3202E202FF01       DC16     +562,+738,+511,+738
   \              E202        
   \   00000044   E202E202E202       DC16     +738,+738,+738,+738
   \              E202        
   \   0000004C   E202E202E202       DC16     +738,+738,+738,+738
   \              E202        
   \   00000054   E202E202E202       DC16     +738,+738,+738,+738
   \              E202        
   \   0000005C   E202E202E202       DC16     +738,+738,+738,+738
   \              E202        
   \   00000064   E202E202E202       DC16     +738,+738,+738,+738
   \              E202        
   \   0000006C   E2023C02E202       DC16     +738,+572,+738,+738
   \              E202        
   \   00000074   E202E202E202       DC16     +738,+738,+738,+738
   \              E202        
   \   0000007C   E202E202E202       DC16     +738,+738,+738,+738
   \              E202        
   \   00000084   E202E202E202       DC16     +738,+738,+738,+738
   \              E202        
   \   0000008C   E202E202E202       DC16     +738,+738,+738,+738
   \              E202        
   \   00000094   E202E202E202       DC16     +738,+738,+738,+738
   \              E202        
   \   0000009C   E202E202E202       DC16     +738,+738,+738,+738
   \              E202        
   \   000000A4   E202E202E202       DC16     +738,+738,+738,+738
   \              E202        
   \   000000AC   E202E202E202       DC16     +738,+738,+738,+738
   \              E202        
   \   000000B4   E202E202E202       DC16     +738,+738,+738,+738
   \              E202        
   \   000000BC   E202E202E202       DC16     +738,+738,+738,+738
   \              E202        
   \   000000C4   E202E202E202       DC16     +738,+738,+738,+738
   \              E202        
   \   000000CC   E202E202E202       DC16     +738,+738,+738,+738
   \              E202        
   \   000000D4   E202E202E202       DC16     +738,+738,+738,+738
   \              E202        
   \   000000DC   E202E202E202       DC16     +738,+738,+738,+738
   \              E202        
   \   000000E4   E202E202E202       DC16     +738,+738,+738,+738
   \              E202        
   \   000000EC   E202E202E202       DC16     +738,+738,+738,+738
   \              E202        
   \   000000F4   E202E202E202       DC16     +738,+738,+738,+738
   \              E202        
   \   000000FC   E202E202E202       DC16     +738,+738,+738,+738
   \              E202        
   \   00000104   E202E202E202       DC16     +738,+738,+738,+738
   \              E202        
   \   0000010C   E202E202E202       DC16     +738,+738,+738,+738
   \              E202        
   \   00000114   E202E202E202       DC16     +738,+738,+738,+738
   \              E202        
   \   0000011C   E202E202E202       DC16     +738,+738,+738,+738
   \              E202        
   \   00000124   E202E202E202       DC16     +738,+738,+738,+738
   \              E202        
   \   0000012C   E202E202E202       DC16     +738,+738,+738,+738
   \              E202        
   \   00000134   E202E202E202       DC16     +738,+738,+738,+738
   \              E202        
   \   0000013C   E202E202E202       DC16     +738,+738,+738,+738
   \              E202        
   \   00000144   E202E202E202       DC16     +738,+738,+738,+738
   \              E202        
   \   0000014C   E202E202E202       DC16     +738,+738,+738,+738
   \              E202        
   \   00000154   E202E202E202       DC16     +738,+738,+738,+738
   \              E202        
   \   0000015C   E202E202E202       DC16     +738,+738,+738,+738
   \              E202        
   \   00000164   E202E202E202       DC16     +738,+738,+738,+738
   \              E202        
   \   0000016C   E202E202E202       DC16     +738,+738,+738,+738
   \              E202        
   \   00000174   E202E202E202       DC16     +738,+738,+738,+738
   \              E202        
   \   0000017C   E202E202E202       DC16     +738,+738,+738,+738
   \              E202        
   \   00000184   E202E202E202       DC16     +738,+738,+738,+738
   \              E202        
   \   0000018C   E202E202E202       DC16     +738,+738,+738,+738
   \              E202        
   \   00000194   E202E202E202       DC16     +738,+738,+738,+738
   \              E202        
   \   0000019C   E202E202E202       DC16     +738,+738,+738,+738
   \              E202        
   \   000001A4   E202E202E202       DC16     +738,+738,+738,+738
   \              E202        
   \   000001AC   E202E202E202       DC16     +738,+738,+738,+738
   \              E202        
   \   000001B4   E202E202E202       DC16     +738,+738,+738,+738
   \              E202        
   \   000001BC   E202E202E202       DC16     +738,+738,+738,+738
   \              E202        
   \   000001C4   E202E202E202       DC16     +738,+738,+738,+738
   \              E202        
   \   000001CC   E202E202E202       DC16     +738,+738,+738,+738
   \              E202        
   \   000001D4   E202E202E202       DC16     +738,+738,+738,+738
   \              E202        
   \   000001DC   E202E202E202       DC16     +738,+738,+738,+738
   \              E202        
   \   000001E4   E202E202E202       DC16     +738,+738,+738,+738
   \              E202        
   \   000001EC   E202E202E202       DC16     +738,+738,+738,+738
   \              E202        
   \   000001F4   E202E202E202       DC16     +738,+738,+738,+738
   \              E202        
   \   000001FC   E202E202E202       DC16     +738,+738,+738,+738
   \              E202        
   \   00000204   E202E202E202       DC16     +738,+738,+738,+738
   \              E202        
   \   0000020C   E202E202E202       DC16     +738,+738,+738,+738
   \              E202        
   \   00000214   E202E202E202       DC16     +738,+738,+738,+738
   \              E202        
   \   0000021C   E202E202E202       DC16     +738,+738,+738,+738
   \              E202        
   \   00000224   E202E202E202       DC16     +738,+738,+738,+738
   \              E202        
   \   0000022C   E202E202E202       DC16     +738,+738,+738,+738
   \              E202        
   \   00000234   E202E202E202       DC16     +738,+738,+738,+738
   \              E202        
   \   0000023C   E202E202E202       DC16     +738,+738,+738,+738
   \              E202        
   \   00000244   E202E202E202       DC16     +738,+738,+738,+738
   \              E202        
   \   0000024C   E202E202E202       DC16     +738,+738,+738,+738
   \              E202        
   \   00000254   E202E202E202       DC16     +738,+738,+738,+738
   \              E202        
   \   0000025C   E202E202E202       DC16     +738,+738,+738,+738
   \              E202        
   \   00000264   E202E202E202       DC16     +738,+738,+738,+738
   \              E202        
   \   0000026C   E202E202E202       DC16     +738,+738,+738,+738
   \              E202        
   \   00000274   E202E202E202       DC16     +738,+738,+738,+738
   \              E202        
   \   0000027C   E202E202E202       DC16     +738,+738,+738,+738
   \              E202        
   \   00000284   E202E202E202       DC16     +738,+738,+738,+738
   \              E202        
   \   0000028C   E202E202E202       DC16     +738,+738,+738,+738
   \              E202        
   \   00000294   E202E202E202       DC16     +738,+738,+738,+738
   \              E202        
   \   0000029C   E202E202E202       DC16     +738,+738,+738,+738
   \              E202        
   \   000002A4   E202E202E202       DC16     +738,+738,+738,+738
   \              E202        
   \   000002AC   E202E202E202       DC16     +738,+738,+738,+738
   \              E202        
   \   000002B4   E202E202E202       DC16     +738,+738,+738,+738
   \              E202        
   \   000002BC   E202E202E202       DC16     +738,+738,+738,+738
   \              E202        
   \   000002C4   E202E202E202       DC16     +738,+738,+738,+738
   \              E202        
   \   000002CC   E202E202E202       DC16     +738,+738,+738,+738
   \              E202        
   \   000002D4   E202E202E202       DC16     +738,+738,+738,+738
   \              E202        
   \   000002DC   E202E202E202       DC16     +738,+738,+738,+738
   \              E202        
   \   000002E4   E202E202E202       DC16     +738,+738,+738,+738
   \              E202        
   \   000002EC   E202E202E202       DC16     +738,+738,+738,+738
   \              E202        
   \   000002F4   E202E202E202       DC16     +738,+738,+738,+738
   \              E202        
   \   000002FC   E202E202E202       DC16     +738,+738,+738,+738
   \              E202        
   \   00000304   E202E202E202       DC16     +738,+738,+738,+738
   \              E202        
   \   0000030C   E202E202E202       DC16     +738,+738,+738,+738
   \              E202        
   \   00000314   E202E202E202       DC16     +738,+738,+738,+738
   \              E202        
   \   0000031C   E202E202E202       DC16     +738,+738,+738,+738
   \              E202        
   \   00000324   E202E202E202       DC16     +738,+738,+738,+738
   \              E202        
   \   0000032C   E202E202E202       DC16     +738,+738,+738,+738
   \              E202        
   \   00000334   E202E202E202       DC16     +738,+738,+738,+738
   \              E202        
   \   0000033C   E202E202E202       DC16     +738,+738,+738,+738
   \              E202        
   \   00000344   E202E202E202       DC16     +738,+738,+738,+738
   \              E202        
   \   0000034C   E202E202E202       DC16     +738,+738,+738,+738
   \              E202        
   \   00000354   E202E202E202       DC16     +738,+738,+738,+738
   \              E202        
   \   0000035C   E202E202E202       DC16     +738,+738,+738,+738
   \              E202        
   \   00000364   E202E202E202       DC16     +738,+738,+738,+738
   \              E202        
   \   0000036C   E202E202E202       DC16     +738,+738,+738,+738
   \              E202        
   \   00000374   E202E202E202       DC16     +738,+738,+738,+738
   \              E202        
   \   0000037C   E202E202E202       DC16     +738,+738,+738,+738
   \              E202        
   \   00000384   E202E202E202       DC16     +738,+738,+738,+738
   \              E202        
   \   0000038C   E202E202E202       DC16     +738,+738,+738,+738
   \              E202        
   \   00000394   E202E202E202       DC16     +738,+738,+738,+738
   \              E202        
   \   0000039C   E202E202E202       DC16     +738,+738,+738,+738
   \              E202        
   \   000003A4   E202E202E202       DC16     +738,+738,+738,+738
   \              E202        
   \   000003AC   E202E202E202       DC16     +738,+738,+738,+738
   \              E202        
   \   000003B4   E202E202E202       DC16     +738,+738,+738,+738
   \              E202        
   \   000003BC   E202E202E202       DC16     +738,+738,+738,+738
   \              E202        
   \   000003C4   E202E202E202       DC16     +738,+738,+738,+738
   \              E202        
   \   000003CC   E202E202E202       DC16     +738,+738,+738,+738
   \              E202        
   \   000003D4   E202E202E202       DC16     +738,+738,+738,+738
   \              E202        
   \   000003DC   E202E202E202       DC16     +738,+738,+738,+738
   \              E202        
   \   000003E4   E202E202E202       DC16     +738,+738,+738,+738
   \              E202        
   \   000003EC   E202E202E202       DC16     +738,+738,+738,+738
   \              E202        
   \   000003F4   E202E202E202       DC16     +738,+738,+738,+738
   \              E202        
   \   000003FC   E202E202E202       DC16     +738,+738,+738,+738
   \              E202        
   \   00000404   E202E202E202       DC16     +738,+738,+738,+738
   \              E202        
   \   0000040C   E202E202E202       DC16     +738,+738,+738,+738
   \              E202        
   \   00000414   E202E202E202       DC16     +738,+738,+738,+738
   \              E202        
   \   0000041C   E202E202E202       DC16     +738,+738,+738,+738
   \              E202        
   \   00000424   E202E202E202       DC16     +738,+738,+738,+738
   \              E202        
   \   0000042C   E202E202E202       DC16     +738,+738,+738,+738
   \              E202        
   \   00000434   E202E202E202       DC16     +738,+738,+738,+738
   \              E202        
   \   0000043C   E202E202E202       DC16     +738,+738,+738,+738
   \              E202        
   \   00000444   E202E202E202       DC16     +738,+738,+738,+738
   \              E202        
   \   0000044C   E202E202E202       DC16     +738,+738,+738,+738
   \              E202        
   \   00000454   E202E202E202       DC16     +738,+738,+738,+738
   \              E202        
   \   0000045C   E202E202E202       DC16     +738,+738,+738,+738
   \              E202        
   \   00000464   E202E202E202       DC16     +738,+738,+738,+738
   \              E202        
   \   0000046C   E202E202E202       DC16     +738,+738,+738,+738
   \              E202        
   \   00000474   E202E202E202       DC16     +738,+738,+738,+738
   \              E202        
   \   0000047C   E202E202E202       DC16     +738,+738,+738,+738
   \              E202        
   \   00000484   E202E202E202       DC16     +738,+738,+738,+738
   \              E202        
   \   0000048C   E202E202E202       DC16     +738,+738,+738,+738
   \              E202        
   \   00000494   E202E202E202       DC16     +738,+738,+738,+738
   \              E202        
   \   0000049C   E202E202E202       DC16     +738,+738,+738,+738
   \              E202        
   \   000004A4   E202E202E202       DC16     +738,+738,+738,+738
   \              E202        
   \   000004AC   E202E202E202       DC16     +738,+738,+738,+738
   \              E202        
   \   000004B4   E202E202E202       DC16     +738,+738,+738,+738
   \              E202        
   \   000004BC   E202E202E202       DC16     +738,+738,+738,+738
   \              E202        
   \   000004C4   E202E202E202       DC16     +738,+738,+738,+738
   \              E202        
   \   000004CC   E202E202E202       DC16     +738,+738,+738,+738
   \              E202        
   \   000004D4   E202E202E202       DC16     +738,+738,+738,+738
   \              E202        
   \   000004DC   E202E202E202       DC16     +738,+738,+738,+738
   \              E202        
   \   000004E4   E202E202E202       DC16     +738,+738,+738,+738
   \              E202        
   \   000004EC   E202E202E202       DC16     +738,+738,+738,+738
   \              E202        
   \   000004F4   E202E202E202       DC16     +738,+738,+738,+738
   \              E202        
   \   000004FC   E202E202E202       DC16     +738,+738,+738,+738
   \              E202        
   \   00000504   E202E202E202       DC16     +738,+738,+738,+738
   \              E202        
   \   0000050C   E202E202E202       DC16     +738,+738,+738,+738
   \              E202        
   \   00000514   E202E202E202       DC16     +738,+738,+738,+738
   \              E202        
   \   0000051C   E202E202E202       DC16     +738,+738,+738,+738
   \              E202        
   \   00000524   E202E202E202       DC16     +738,+738,+738,+738
   \              E202        
   \   0000052C   E202E202E202       DC16     +738,+738,+738,+738
   \              E202        
   \   00000534   E202E202E202       DC16     +738,+738,+738,+738
   \              E202        
   \   0000053C   E202E202E202       DC16     +738,+738,+738,+738
   \              E202        
   \   00000544   E202E202E202       DC16     +738,+738,+738,+738
   \              E202        
   \   0000054C   E202E202E202       DC16     +738,+738,+738,+738
   \              E202        
   \   00000554   E202E202E202       DC16     +738,+738,+738,+738
   \              E202        
   \   0000055C   E202E202E202       DC16     +738,+738,+738,+738
   \              E202        
   \   00000564   E202E202E202       DC16     +738,+738,+738,+738
   \              E202        
   \   0000056C   E202E202E202       DC16     +738,+738,+738,+738
   \              E202        
   \   00000574   E202E202E202       DC16     +738,+738,+738,+738
   \              E202        
   \   0000057C   E202E202E202       DC16     +738,+738,+738,+738
   \              E202        
   \   00000584   E202E202E202       DC16     +738,+738,+738,+738
   \              E202        
   \   0000058C   E202E202E202       DC16     +738,+738,+738,+738
   \              E202        
   \   00000594   E202E202E202       DC16     +738,+738,+738,+738
   \              E202        
   \   0000059C   E202E202E202       DC16     +738,+738,+738,+738
   \              E202        
   \   000005A4   E202E202E202       DC16     +738,+738,+738,+738
   \              E202        
   \   000005AC   E202E202E202       DC16     +738,+738,+738,+738
   \              E202        
   \   000005B4   E202E202E202       DC16     +738,+738,+738,+738
   \              E202        
   \   000005BC   E202E202E202       DC16     +738,+738,+738,+738
   \              E202        
   \   000005C4   E202E202E202       DC16     +738,+738,+738,+738
   \              E202        
   \   000005CC   E202E202E202       DC16     +738,+738,+738,+738
   \              E202        
   \   000005D4   E202E202E202       DC16     +738,+738,+738,+738
   \              E202        
   \   000005DC   E202E202E202       DC16     +738,+738,+738,+738
   \              E202        
   \   000005E4   E202E202E202       DC16     +738,+738,+738,+738
   \              E202        
   \   000005EC   E202E202E202       DC16     +738,+738,+738,+738
   \              E202        
   \   000005F4   E202E202E202       DC16     +738,+738,+738,+738
   \              E202        
   \   000005FC   E202E202E202       DC16     +738,+738,+738,+738
   \              E202        
   \   00000604   E202E202E202       DC16     +738,+738,+738,+738
   \              E202        
   \   0000060C   E202E202E202       DC16     +738,+738,+738,+738
   \              E202        
   \   00000614   E202E202E202       DC16     +738,+738,+738,+738
   \              E202        
   \   0000061C   E202E202E202       DC16     +738,+738,+738,+738
   \              E202        
   \   00000624   E202E202E202       DC16     +738,+738,+738,+738
   \              E202        
   \   0000062C   E202E202E202       DC16     +738,+738,+738,+738
   \              E202        
   \   00000634   E202E202E202       DC16     +738,+738,+738,+738
   \              E202        
   \   0000063C   E202E202E202       DC16     +738,+738,+738,+738
   \              E202        
   \   00000644   E202E202E202       DC16     +738,+738,+738,+738
   \              E202        
   \   0000064C   E202E202E202       DC16     +738,+738,+738,+738
   \              E202        
   \   00000654   E202E202E202       DC16     +738,+738,+738,+738
   \              E202        
   \   0000065C   E202E202E202       DC16     +738,+738,+738,+738
   \              E202        
   \   00000664   E202E202E202       DC16     +738,+738,+738,+738
   \              E202        
   \   0000066C   E202E202E202       DC16     +738,+738,+738,+738
   \              E202        
   \   00000674   E202E202E202       DC16     +738,+738,+738,+738
   \              E202        
   \   0000067C   E202E202E202       DC16     +738,+738,+738,+738
   \              E202        
   \   00000684   E202E202E202       DC16     +738,+738,+738,+738
   \              E202        
   \   0000068C   E202E202E202       DC16     +738,+738,+738,+738
   \              E202        
   \   00000694   E202E202E202       DC16     +738,+738,+738,+738
   \              E202        
   \   0000069C   E202E202E202       DC16     +738,+738,+738,+738
   \              E202        
   \   000006A4   E202E202E202       DC16     +738,+738,+738,+738
   \              E202        
   \   000006AC   E202E202E202       DC16     +738,+738,+738,+738
   \              E202        
   \   000006B4   E202E202E202       DC16     +738,+738,+738,+738
   \              E202        
   \   000006BC   E202E202E202       DC16     +738,+738,+738,+738
   \              E202        
   \   000006C4   E202E202E202       DC16     +738,+738,+738,+738
   \              E202        
   \   000006CC   E202E202E202       DC16     +738,+738,+738,+738
   \              E202        
   \   000006D4   E202E202E202       DC16     +738,+738,+738,+738
   \              E202        
   \   000006DC   E202E202E202       DC16     +738,+738,+738,+738
   \              E202        
   \   000006E4   E202E202E202       DC16     +738,+738,+738,+738
   \              E202        
   \   000006EC   E202E202E202       DC16     +738,+738,+738,+738
   \              E202        
   \   000006F4   E202E202E202       DC16     +738,+738,+738,+738
   \              E202        
   \   000006FC   E202E202E202       DC16     +738,+738,+738,+738
   \              E202        
   \   00000704   E202E202E202       DC16     +738,+738,+738,+738
   \              E202        
   \   0000070C   E202E202E202       DC16     +738,+738,+738,+738
   \              E202        
   \   00000714   E202E202E202       DC16     +738,+738,+738,+738
   \              E202        
   \   0000071C   E202E202E202       DC16     +738,+738,+738,+738
   \              E202        
   \   00000724   E202E202E202       DC16     +738,+738,+738,+738
   \              E202        
   \   0000072C   E202E202E202       DC16     +738,+738,+738,+738
   \              E202        
   \   00000734   E202E202E202       DC16     +738,+738,+738,+738
   \              E202        
   \   0000073C   E202E202E202       DC16     +738,+738,+738,+738
   \              E202        
   \   00000744   E202E202E202       DC16     +738,+738,+738,+738
   \              E202        
   \   0000074C   E202E202E202       DC16     +738,+738,+738,+738
   \              E202        
   \   00000754   E202E202E202       DC16     +738,+738,+738,+738
   \              E202        
   \   0000075C   E202E202E202       DC16     +738,+738,+738,+738
   \              E202        
   \   00000764   E202E202E202       DC16     +738,+738,+738,+738
   \              E202        
   \   0000076C   E202E202E202       DC16     +738,+738,+738,+738
   \              E202        
   \   00000774   E202E202E202       DC16     +738,+738,+738,+738
   \              E202        
   \   0000077C   E202E202E202       DC16     +738,+738,+738,+738
   \              E202        
   \   00000784   E202E202E202       DC16     +738,+738,+738,+738
   \              E202        
   \   0000078C   E202E202E202       DC16     +738,+738,+738,+738
   \              E202        
   \   00000794   E202E202E202       DC16     +738,+738,+738,+738
   \              E202        
   \   0000079C   E202E202E202       DC16     +738,+738,+738,+738
   \              E202        
   \   000007A4   E202E202E202       DC16     +738,+738,+738,+738
   \              E202        
   \   000007AC   E202E202E202       DC16     +738,+738,+738,+738
   \              E202        
   \   000007B4   E202E202E202       DC16     +738,+738,+738,+738
   \              E202        
   \   000007BC   E202E202E202       DC16     +738,+738,+738,+738
   \              E202        
   \   000007C4   E202E202E202       DC16     +738,+738,+738,+738
   \              E202        
   \   000007CC   E202E202E202       DC16     +738,+738,+738,+738
   \              E202        
   \   000007D4   E202E202E202       DC16     +738,+738,+738,+738
   \              E202        
   \   000007DC   E202E202E202       DC16     +738,+738,+738,+738
   \              E202        
   \   000007E4   E202E202E202       DC16     +738,+738,+738,+738
   \              E202        
   \   000007EC   E202E202E202       DC16     +738,+738,+738,+738
   \              E202        
   \   000007F4   E202E202E202       DC16     +738,+738,+738,+738
   \              E202        
   \   000007FC   E202E202E202       DC16     +738,+738,+738,+738
   \              E202        
   \   00000804   E202E202E202       DC16     +738,+738,+738,+738
   \              E202        
   \   0000080C   E202E202E202       DC16     +738,+738,+738,+738
   \              E202        
   \   00000814   E202E202E202       DC16     +738,+738,+738,+738
   \              E202        
   \   0000081C   E202E202E202       DC16     +738,+738,+738,+738
   \              E202        
   \   00000824   E202E202E202       DC16     +738,+738,+738,+738
   \              E202        
   \   0000082C   E202E202E202       DC16     +738,+738,+738,+738
   \              E202        
   \   00000834   E202E2020A02       DC16     +738,+738,+522,+559
   \              2F02        
    120          		case WM_PAINT:
    121          			GUI_DrawRect(   2,   5,  150, 170);
   \                     ??cbEventHandler_6:
   \   0000083C   AA30A0E3           MOV      R3,#+170
   \   00000840   9620A0E3           MOV      R2,#+150
   \   00000844   0510A0E3           MOV      R1,#+5
   \   00000848   0200A0E3           MOV      R0,#+2
   \   0000084C   ........           _BLF     GUI_DrawRect,??GUI_DrawRect??rA
    122          			//SystemWindow->SysWin1->PrintSetupWin->UpdateLanguage();
    123          			SystemWindow->SysWin1->PrintSetupWin->UpdateFields(true);
   \   00000850   000094E5           LDR      R0,[R4, #+0]
   \   00000854   0110A0E3           MOV      R1,#+1
   \   00000858   580090E5           LDR      R0,[R0, #+88]
   \   0000085C   800090E5           LDR      R0,[R0, #+128]
   \   00000860   ........           _BLF     ??UpdateFields,??UpdateFields??rA
   \   00000864   240000EA           B        ??cbEventHandler_7
    124          			break;
    125          		case MESSAGE_PINCODE_RETURN:
    126          			break;
    127          		case MESSAGE_KEYPAD_RETURN:
    128          			{
    129          				AnsiString StringBuf =(char*)pMsg->Data.p;
   \                     ??cbEventHandler_8:
   \   00000868   081095E5           LDR      R1,[R5, #+8]
   \   0000086C   1C008DE2           ADD      R0,SP,#+28
   \   00000870   ........           _BLF     ??AnsiString,??AnsiString??rA
    130          				int ValueId = pMsg->hWinSrc;
   \   00000874   F650D5E1           LDRSH    R5,[R5, #+6]
    131          				switch ( ValueId ) {
   \   00000878   010045E2           SUB      R0,R5,#+1
   \   0000087C   400F40E2           SUB      R0,R0,#+256
   \   00000880   040050E3           CMP      R0,#+4
   \   00000884   1800008A           BHI      ??cbEventHandler_9
   \   00000888   011F8FE2           ADR      R1,??cbEventHandler_2
   \   0000088C   0010D1E7           LDRB     R1,[R1, R0]
   \   00000890   01F18FE0           ADD      PC,PC,R1, LSL #+2
   \                     ??cbEventHandler_2:
   \   00000894   01010101           DC8      +1,+1,+1,+1
   \   00000898   01000000           DC8      +1,+0,+0,+0
    132          					case GUI_ID_EDIT1:
    133          					case GUI_ID_EDIT2:
    134          					case GUI_ID_EDIT3:
    135          					case GUI_ID_EDIT4:
    136          					case GUI_ID_EDIT5:
    137          						SystemWindow->SysWin1->PrintSetupWin->EDIT_InputValue(ValueId,StringBuf);
   \                     ??cbEventHandler_10:
   \   0000089C   0020A0E3           MOV      R2,#+0
   \   000008A0   0010A0E3           MOV      R1,#+0
   \   000008A4   0D00A0E1           MOV      R0,SP
   \   000008A8   ........           _BLF     ??_Tidy,??_Tidy??rA
   \   000008AC   24039FE5           LDR      R0,??cbEventHandler_4+0x4  ;; ??npos
   \   000008B0   0020A0E3           MOV      R2,#+0
   \   000008B4   003090E5           LDR      R3,[R0, #+0]
   \   000008B8   1C108DE2           ADD      R1,SP,#+28
   \   000008BC   0D00A0E1           MOV      R0,SP
   \   000008C0   ........           _BLF     ??assign,??assign??rA
   \   000008C4   000094E5           LDR      R0,[R4, #+0]
   \   000008C8   0D20A0E1           MOV      R2,SP
   \   000008CC   580090E5           LDR      R0,[R0, #+88]
   \   000008D0   0510A0E1           MOV      R1,R5
   \   000008D4   800090E5           LDR      R0,[R0, #+128]
   \   000008D8   ........           _BLF     ??EDIT_InputValue,??EDIT_InputValue??rA
   \   000008DC   0020A0E3           MOV      R2,#+0
   \   000008E0   0110A0E3           MOV      R1,#+1
   \   000008E4   0D00A0E1           MOV      R0,SP
   \   000008E8   ........           _BLF     ??_Tidy,??_Tidy??rA
    138          						break;
    139          				}
    140          			}
   \                     ??cbEventHandler_9:
   \   000008EC   0020A0E3           MOV      R2,#+0
   \   000008F0   0110A0E3           MOV      R1,#+1
   \   000008F4   1C008DE2           ADD      R0,SP,#+28
   \   000008F8   ........           _BLF     ??_Tidy,??_Tidy??rA
   \                     ??cbEventHandler_7:
   \   000008FC   38D08DE2           ADD      SP,SP,#+56
   \   00000900   3040BDE8           POP      {R4,R5,LR}
   \   00000904   1EFF2FE1           BX       LR
    141          			/*
    142          			if ( !SystemWindow->SysWin1->SysSetupWin->Closed ) {
    143          				SystemWindow->SysWin1->SysSetupWin->UpdateSysWin();
    144          			}
    145          			*/
    146          			break;
    147          		case WM_TOUCH_CHILD:
    148          			{
    149          				Id    = WM_GetId(pMsg->hWinSrc);	/* Id of widget */
   \                     ??cbEventHandler_11:
   \   00000908   ........           _BLF     WM_GetId,??WM_GetId??rA
   \   0000090C   0010A0E1           MOV      R1,R0
    150          				switch ( Id ) {
   \   00000910   400F40E2           SUB      R0,R0,#+256
   \   00000914   030050E3           CMP      R0,#+3
   \   00000918   F7FFFF8A           BHI      ??cbEventHandler_7
    151          					case GUI_ID_EDIT0 :
    152          					case GUI_ID_EDIT1 :
    153          					case GUI_ID_EDIT2 :
    154          					case GUI_ID_EDIT3 :
    155          						SystemWindow->SysWin1->PrintSetupWin->EDIT_ExecKeyboard(Id);
   \   0000091C   000094E5           LDR      R0,[R4, #+0]
   \   00000920   580090E5           LDR      R0,[R0, #+88]
   \   00000924   800090E5           LDR      R0,[R0, #+128]
   \   00000928   ........           _BLF     ??EDIT_ExecKeyboard,??EDIT_ExecKeyboard??rA
   \   0000092C   F2FFFFEA           B        ??cbEventHandler_7
    156          						break;
    157          					default:
    158          						break;
    159          				}
    160          			}
    161          			break;
    162          		case WM_NOTIFY_PARENT:
    163          			{
    164          				Id    = WM_GetId(pMsg->hWinSrc);	/* Id of widget */
   \                     ??cbEventHandler_12:
   \   00000930   ........           _BLF     WM_GetId,??WM_GetId??rA
   \   00000934   0010A0E1           MOV      R1,R0
    165          				NCode = pMsg->Data.v;				/* Notification code */
    166          				switch ( NCode ) {
   \   00000938   080095E5           LDR      R0,[R5, #+8]
   \   0000093C   020050E3           CMP      R0,#+2
   \   00000940   EDFFFF1A           BNE      ??cbEventHandler_7
   \   00000944   000094E5           LDR      R0,[R4, #+0]
   \   00000948   052041E2           SUB      R2,R1,#+5
   \   0000094C   580090E5           LDR      R0,[R0, #+88]
   \   00000950   2130A0E3           MOV      R3,#+33
   \   00000954   403F83E3           ORR      R3,R3,#0x100
   \   00000958   030052E1           CMP      R2,R3
   \   0000095C   E6FFFF8A           BHI      ??cbEventHandler_7
   \   00000960   023F8FE2           ADR      R3,??cbEventHandler_3
   \   00000964   8220A0E1           MOV      R2,R2, LSL #+1
   \   00000968   F23093E1           LDRSH    R3,[R3, R2]
   \   0000096C   03F18FE0           ADD      PC,PC,R3, LSL #+2
   \                     ??cbEventHandler_3:
   \   00000970   9300E2FFE2FF       DC16     +147,+65506,+65506,+65506
   \              E2FF        
   \   00000978   E2FFE2FFE2FF       DC16     +65506,+65506,+65506,+65506
   \              E2FF        
   \   00000980   E2FFE2FFE2FF       DC16     +65506,+65506,+65506,+65506
   \              E2FF        
   \   00000988   E2FFE2FFE2FF       DC16     +65506,+65506,+65506,+65506
   \              E2FF        
   \   00000990   E2FFE2FFE2FF       DC16     +65506,+65506,+65506,+65506
   \              E2FF        
   \   00000998   E2FFE2FFE2FF       DC16     +65506,+65506,+65506,+65506
   \              E2FF        
   \   000009A0   E2FFE2FFE2FF       DC16     +65506,+65506,+65506,+65506
   \              E2FF        
   \   000009A8   E2FFE2FFE2FF       DC16     +65506,+65506,+65506,+65506
   \              E2FF        
   \   000009B0   E2FFE2FFE2FF       DC16     +65506,+65506,+65506,+65506
   \              E2FF        
   \   000009B8   E2FFE2FFE2FF       DC16     +65506,+65506,+65506,+65506
   \              E2FF        
   \   000009C0   E2FFE2FFE2FF       DC16     +65506,+65506,+65506,+65506
   \              E2FF        
   \   000009C8   E2FFE2FFE2FF       DC16     +65506,+65506,+65506,+65506
   \              E2FF        
   \   000009D0   E2FFE2FFE2FF       DC16     +65506,+65506,+65506,+65506
   \              E2FF        
   \   000009D8   E2FFE2FFE2FF       DC16     +65506,+65506,+65506,+65506
   \              E2FF        
   \   000009E0   E2FFE2FFE2FF       DC16     +65506,+65506,+65506,+65506
   \              E2FF        
   \   000009E8   E2FFE2FFE2FF       DC16     +65506,+65506,+65506,+65506
   \              E2FF        
   \   000009F0   E2FFE2FFE2FF       DC16     +65506,+65506,+65506,+65506
   \              E2FF        
   \   000009F8   E2FFE2FFE2FF       DC16     +65506,+65506,+65506,+65506
   \              E2FF        
   \   00000A00   E2FFE2FFE2FF       DC16     +65506,+65506,+65506,+65506
   \              E2FF        
   \   00000A08   E2FFE2FFE2FF       DC16     +65506,+65506,+65506,+65506
   \              E2FF        
   \   00000A10   E2FFE2FFE2FF       DC16     +65506,+65506,+65506,+65506
   \              E2FF        
   \   00000A18   E2FFE2FFE2FF       DC16     +65506,+65506,+65506,+65506
   \              E2FF        
   \   00000A20   E2FFE2FFE2FF       DC16     +65506,+65506,+65506,+65506
   \              E2FF        
   \   00000A28   E2FFE2FFE2FF       DC16     +65506,+65506,+65506,+65506
   \              E2FF        
   \   00000A30   E2FFE2FFE2FF       DC16     +65506,+65506,+65506,+65506
   \              E2FF        
   \   00000A38   E2FFE2FFE2FF       DC16     +65506,+65506,+65506,+65506
   \              E2FF        
   \   00000A40   E2FFE2FFE2FF       DC16     +65506,+65506,+65506,+65506
   \              E2FF        
   \   00000A48   E2FFE2FFE2FF       DC16     +65506,+65506,+65506,+65506
   \              E2FF        
   \   00000A50   E2FFE2FFE2FF       DC16     +65506,+65506,+65506,+65506
   \              E2FF        
   \   00000A58   E2FFE2FFE2FF       DC16     +65506,+65506,+65506,+65506
   \              E2FF        
   \   00000A60   E2FFE2FFE2FF       DC16     +65506,+65506,+65506,+65506
   \              E2FF        
   \   00000A68   E2FFE2FFE2FF       DC16     +65506,+65506,+65506,+65506
   \              E2FF        
   \   00000A70   E2FFE2FFE2FF       DC16     +65506,+65506,+65506,+65506
   \              E2FF        
   \   00000A78   E2FFE2FFE2FF       DC16     +65506,+65506,+65506,+65506
   \              E2FF        
   \   00000A80   E2FFE2FFE2FF       DC16     +65506,+65506,+65506,+65506
   \              E2FF        
   \   00000A88   E2FFE2FFE2FF       DC16     +65506,+65506,+65506,+65506
   \              E2FF        
   \   00000A90   E2FFE2FFE2FF       DC16     +65506,+65506,+65506,+65506
   \              E2FF        
   \   00000A98   E2FFE2FFE2FF       DC16     +65506,+65506,+65506,+65506
   \              E2FF        
   \   00000AA0   E2FFE2FFE2FF       DC16     +65506,+65506,+65506,+65506
   \              E2FF        
   \   00000AA8   E2FFE2FFE2FF       DC16     +65506,+65506,+65506,+65506
   \              E2FF        
   \   00000AB0   E2FFE2FFE2FF       DC16     +65506,+65506,+65506,+65506
   \              E2FF        
   \   00000AB8   E2FFE2FFE2FF       DC16     +65506,+65506,+65506,+65506
   \              E2FF        
   \   00000AC0   E2FFE2FFE2FF       DC16     +65506,+65506,+65506,+65506
   \              E2FF        
   \   00000AC8   E2FFE2FFE2FF       DC16     +65506,+65506,+65506,+65506
   \              E2FF        
   \   00000AD0   E2FFE2FFE2FF       DC16     +65506,+65506,+65506,+65506
   \              E2FF        
   \   00000AD8   E2FFE2FFE2FF       DC16     +65506,+65506,+65506,+65506
   \              E2FF        
   \   00000AE0   E2FFE2FFE2FF       DC16     +65506,+65506,+65506,+65506
   \              E2FF        
   \   00000AE8   E2FFE2FFE2FF       DC16     +65506,+65506,+65506,+65506
   \              E2FF        
   \   00000AF0   E2FFE2FFE2FF       DC16     +65506,+65506,+65506,+65506
   \              E2FF        
   \   00000AF8   E2FFE2FFE2FF       DC16     +65506,+65506,+65506,+65506
   \              E2FF        
   \   00000B00   E2FFE2FFE2FF       DC16     +65506,+65506,+65506,+65506
   \              E2FF        
   \   00000B08   E2FFE2FFE2FF       DC16     +65506,+65506,+65506,+65506
   \              E2FF        
   \   00000B10   E2FFE2FFE2FF       DC16     +65506,+65506,+65506,+65506
   \              E2FF        
   \   00000B18   E2FFE2FFE2FF       DC16     +65506,+65506,+65506,+65506
   \              E2FF        
   \   00000B20   E2FFE2FFE2FF       DC16     +65506,+65506,+65506,+65506
   \              E2FF        
   \   00000B28   E2FFE2FFE2FF       DC16     +65506,+65506,+65506,+65506
   \              E2FF        
   \   00000B30   E2FFE2FFE2FF       DC16     +65506,+65506,+65506,+65506
   \              E2FF        
   \   00000B38   E2FFE2FFE2FF       DC16     +65506,+65506,+65506,+65506
   \              E2FF        
   \   00000B40   E2FFE2FFE2FF       DC16     +65506,+65506,+65506,+65506
   \              E2FF        
   \   00000B48   E2FFE2FFE2FF       DC16     +65506,+65506,+65506,+65506
   \              E2FF        
   \   00000B50   E2FFE2FFE2FF       DC16     +65506,+65506,+65506,+65506
   \              E2FF        
   \   00000B58   E2FFE2FFE2FF       DC16     +65506,+65506,+65506,+65506
   \              E2FF        
   \   00000B60   E2FFE2FFE2FF       DC16     +65506,+65506,+65506,+65506
   \              E2FF        
   \   00000B68   E2FFE2FFE2FF       DC16     +65506,+65506,+65506,+65506
   \              E2FF        
   \   00000B70   E2FFE2FFE2FF       DC16     +65506,+65506,+65506,+65506
   \              E2FF        
   \   00000B78   E2FFE2FFE2FF       DC16     +65506,+65506,+65506,+65506
   \              E2FF        
   \   00000B80   E2FFE2FFE2FF       DC16     +65506,+65506,+65506,+65506
   \              E2FF        
   \   00000B88   E2FFE2FFE2FF       DC16     +65506,+65506,+65506,+65506
   \              E2FF        
   \   00000B90   E2FFE2FFE2FF       DC16     +65506,+65506,+65506,+65506
   \              E2FF        
   \   00000B98   E2FFE2FFE2FF       DC16     +65506,+65506,+65506,+65506
   \              E2FF        
   \   00000BA0   E2FFE2FFE2FF       DC16     +65506,+65506,+65506,+144
   \              9000        
   \   00000BA8   900090009000       DC16     +144,+144,+144,+144
   \              9000        
   \   00000BB0   90009000           DC16     +144,+144
    167          					case WM_NOTIFICATION_SEL_CHANGED:
    168          						{
    169          							switch ( Id ) {
    170          								case GUI_ID_DROPDOWN0:
    171          								case GUI_ID_DROPDOWN4:
    172          									//SystemWindow->SysWin1->SysSetupWin->SetAppColor(hWin,Id);
    173          									break;
    174          							}
    175          						}
    176          						break;
    177          					case WM_NOTIFICATION_CLICKED:	 /* React only if released */
    178          						switch ( Id ) {
    179          							case GUI_ID_BUTTON0: /* TestBuzzer Button */
    180          							case GUI_ID_BUTTON2:
    181          							case GUI_ID_BUTTON3:
    182          							case GUI_ID_BUTTON4: /* Change pin code */
    183          							case GUI_ID_BUTTON5: /* Calibrate screen */
    184          								break;
    185          						}
    186          						break;
    187          					case WM_NOTIFICATION_RELEASED:		/* React only if released */
    188          						switch ( Id ) {
    189          							case GUI_ID_CHECK0:
    190          							case GUI_ID_CHECK1:
    191          							case GUI_ID_CHECK2:
    192          							case GUI_ID_CHECK3:
    193          							case GUI_ID_CHECK4:
    194          							case GUI_ID_CHECK5:
    195          							case GUI_ID_CHECK6:
    196          								SystemWindow->SysWin1->PrintSetupWin->CHECKBOX_UpdateValue(Id);
   \                     ??cbEventHandler_13:
   \   00000BB4   800090E5           LDR      R0,[R0, #+128]
   \   00000BB8   ........           _BLF     ??CHECKBOX_UpdateValue,??CHECKBOX_UpdateValue??rA
   \   00000BBC   4EFFFFEA           B        ??cbEventHandler_7
    197          								break;
    198          							case GUI_ID_CLOSE:	 /* Close Button */
    199          								SystemWindow->SysWin1->CloseSysWin();
   \                     ??cbEventHandler_14:
   \   00000BC0   ........           _BLF     ??CloseSysWin,??CloseSysWin??rA
   \   00000BC4   4CFFFFEA           B        ??cbEventHandler_7
    200          								break;
    201          						}
    202          						break;
    203          				}
    204          			}
    205          			break;
    206          		default:
    207          			WM_DefaultProc(pMsg);
   \                     ??cbEventHandler_5:
   \   00000BC8   0500A0E1           MOV      R0,R5
   \   00000BCC   ........           _BLF     WM_DefaultProc,??WM_DefaultProc??rA
    208          			break;
    209          	}
    210          }
   \                     ??cbEventHandler_15:
   \   00000BD0   49FFFFEA           B        ??cbEventHandler_7
   \                     ??cbEventHandler_4:
   \   00000BD4   ........           DC32     SystemWindow
   \   00000BD8   ........           DC32     ??npos

   \                                 In segment DIFUNCT, align 4, keep-with-next, root
   \   00000000                      REQUIRE ?call_ctors
   \   00000000   ........           DC32    ??__sti__routine

   \                                 In segment DATA_C, align 4, align-sorted
   \                     `?<Constant "Printer setup page">`:
   \   00000000   5072696E7465       DC8 "Printer setup page"
   \              722073657475
   \              702070616765
   \              00          
   \   00000013   00                 DC8 0

   \                                 In segment DATA_C, align 4, align-sorted
   \                     `?<Constant "Close">`:
   \   00000000   436C6F736500       DC8 "Close"
   \   00000006   0000               DC8 0, 0

   \                                 In segment DATA_C, align 4, align-sorted
   \                     `?<Constant "Select logging:">`:
   \   00000000   53656C656374       DC8 "Select logging:"
   \              206C6F676769
   \              6E673A00    

   \                                 In segment DATA_C, align 4, align-sorted
   \                     `?<Constant "Logging time">`:
   \   00000000   4C6F6767696E       DC8 "Logging time"
   \              672074696D65
   \              00          
   \   0000000D   000000             DC8 0, 0, 0

   \                                 In segment DATA_C, align 4, align-sorted
   \                     `?<Constant "Hours">`:
   \   00000000   486F75727300       DC8 "Hours"
   \   00000006   0000               DC8 0, 0

   \                                 In segment DATA_C, align 4, align-sorted
   \                     `?<Constant {{2193, 0, 16}, {5, 0, 18}, {352, 0`:
   \   00000000   910800000000       DC32 2193, 0, 16, 5, 0, 18, 352, 0, 13, 353, 0, 14, 0, 0, 14, 354, 0
   \              000010000000
   \              050000000000
   \              000012000000
   \              600100000000
   \              00000D000000
   \              610100000000
   \              00000E000000
   \              000000000000
   \              00000E000000
   \              620100000000
   \              0000        
   \   00000044   0F0000002001       DC32 15, 288, 0, 7, 289, 0, 8, 290, 0, 9, 291, 0, 10, 292, 0, 11, 293
   \              000000000000
   \              070000002101
   \              000000000000
   \              080000002201
   \              000000000000
   \              090000002301
   \              000000000000
   \              0A0000002401
   \              000000000000
   \              0B0000002501
   \              0000        
   \   00000088   000000000C00       DC32 0, 12, 294, 0, 620
   \              000026010000
   \              000000006C02
   \              0000        

   \                                 In segment DATA_C, align 4, align-sorted
   \                     `?<Constant {{257, 0, (PRogramObjectBase *)0, 1`:
   \   00000000   010100000000       DC32 257, 0, 0H, 1470, 0, 0, 19
   \              000000000000
   \              BE0500000000
   \              000000000000
   \              13000000    
   \   0000001C   00000000           DC8 0, 0, 0, 0
   \   00000020   200100000000       DC32 288, 0, 0H, 1471, 0, 0, 0
   \              000000000000
   \              BF0500000000
   \              000000000000
   \              00000000    
   \   0000003C   00000000           DC8 0, 0, 0, 0
   \   00000040   210100000000       DC32 289, 0, 0H, 1472, 0, 0, 0
   \              000000000000
   \              C00500000000
   \              000000000000
   \              00000000    
   \   0000005C   00000000           DC8 0, 0, 0, 0
   \   00000060   220100000000       DC32 290, 0, 0H, 1473, 0, 0, 0
   \              000000000000
   \              C10500000000
   \              000000000000
   \              00000000    
   \   0000007C   00000000           DC8 0, 0, 0, 0
   \   00000080   230100000000       DC32 291, 0, 0H, 1474, 0, 0, 0
   \              000000000000
   \              C20500000000
   \              000000000000
   \              00000000    
   \   0000009C   00000000           DC8 0, 0, 0, 0
   \   000000A0   240100000000       DC32 292, 0, 0H, 1475, 0, 0, 0
   \              000000000000
   \              C30500000000
   \              000000000000
   \              00000000    
   \   000000BC   00000000           DC8 0, 0, 0, 0
   \   000000C0   250100000000       DC32 293, 0, 0H, 1476, 0, 0, 0
   \              000000000000
   \              C40500000000
   \              000000000000
   \              00000000    
   \   000000DC   00000000           DC8 0, 0, 0, 0
   \   000000E0   260100000000       DC32 294, 0, 0H, 1477, 0, 0, 0
   \              000000000000
   \              C50500000000
   \              000000000000
   \              00000000    
   \   000000FC   00000000           DC8 0, 0, 0, 0

   \                                 In segment CODE, align 4, keep-with-next
   \   __??Code32?? __code __interwork __atpcs TDUPrinterSetupWin &TDUPrinterSetupWin::new TDUPrinterSetupWin()
   \                     `??new TDUPrinterSetupWin`:
   \   00000000   00402DE9           PUSH     {LR}
   \   00000004   7400A0E3           MOV      R0,#+116
   \   00000008   ........           _BLF     `??operator new`,`??operator new??rA`
   \   0000000C   000050E3           CMP      R0,#+0
   \   00000010   0000000A           BEQ      `??new TDUPrinterSetupWin_1`
   \   00000014   ........           BL       ??TDUPrinterSetupWin
   \                     `??new TDUPrinterSetupWin_1`:
   \   00000018   0040BDE8           POP      {LR}
   \   0000001C   1EFF2FE1           BX       LR               ;; return

   \                                 In segment CODE, align 4, keep-with-next
   \   __??Code32?? __code __interwork __atpcs void TDUPrinterSetupWin::delete ~TDUPrinterSetupWin(TDUPrinterSetupWin *)
   \                     `??delete ~TDUPrinterSetupWin`:
   \   00000000   10402DE9           PUSH     {R4,LR}
   \   00000004   0040B0E1           MOVS     R4,R0
   \   00000008   0200000A           BEQ      `??delete ~TDUPrinterSetupWin_1`
   \   0000000C   ........           BL       `?~TDUPrinterSetupWin`
   \   00000010   0400A0E1           MOV      R0,R4
   \   00000014   ........           _BLF     `??operator delete`,`??operator delete??rA`
   \                     `??delete ~TDUPrinterSetupWin_1`:
   \   00000018   1040BDE8           POP      {R4,LR}
   \   0000001C   1EFF2FE1           BX       LR               ;; return

   \                                 In segment CODE, align 4, keep-with-next
   \   static __??Code32?? __intrinsic __code __interwork __atpcs void __sti__routine()
   \                     ??__sti__routine:
   \   00000000   1EFF2FE1           BX       LR               ;; return

   Maximum stack usage in bytes:

     Function                       CSTACK
     --------                       ------
     TDUPrinterSetupWin::ExecDialogBox(GUI_HWIN)
                                       16
     TDUPrinterSetupWin::GetDialogHandles()
                                      168
     TDUPrinterSetupWin::InitPrintWin()
                                      264
     TDUPrinterSetupWin::TDUPrinterSetupWin()
                                        8
     TDUPrinterSetupWin::cbEventHandler(WM_MESSAGE *)
                                       68
     TDUPrinterSetupWin::delete ~TDUPrinterSetupWin(TDUPrinterSetupWin *)
                                        8
     TDUPrinterSetupWin::new TDUPrinterSetupWin()
                                        4
     TDUPrinterSetupWin::~TDUPrinterSetupWin()
                                        8
     __sti__routine()                   0


   Segment part sizes:

     Function/Label                 Bytes
     --------------                 -----
     TDUPrinterSetupWin::~TDUPrinterSetupWin()
                                      32
     TDUPrinterSetupWin::TDUPrinterSetupWin()
                                      40
     TDUPrinterSetupWin::aDialogCreate
                                     312
     TDUPrinterSetupWin::ExecDialogBox(GUI_HWIN)
                                     104
     TDUPrinterSetupWin::GetDialogHandles()
                                     172
     TDUPrinterSetupWin::InitPrintWin()
                                     148
     TDUPrinterSetupWin::cbEventHandler(WM_MESSAGE *)
                                    3036
     ?<Constant "Printer setup page">
                                      20
     ?<Constant "Close">               8
     ?<Constant "Select logging:">    16
     ?<Constant "Logging time">       16
     ?<Constant "Hours">               8
     ?<Constant {{2193, 0, 16}, {5, 0, 18}, {352, 0
                                     156
     ?<Constant {{257, 0, (PRogramObjectBase *)0, 1
                                     256
     TDUPrinterSetupWin::new TDUPrinterSetupWin()
                                      32
     TDUPrinterSetupWin::delete ~TDUPrinterSetupWin(TDUPrinterSetupWin *)
                                      32
     __sti__routine()                  4
      Others                         328

 
 3 924 bytes in segment CODE
   792 bytes in segment DATA_C
     4 bytes in segment DIFUNCT
 
 3 604 bytes of CODE  memory (+ 324 bytes shared)
   792 bytes of CONST memory

Errors: none
Warnings: none
