##############################################################################
#                                                                            #
# IAR ARM ANSI C/C++ Compiler V4.42A/W32               14/Sep/2022  15:18:46 #
# Copyright 1999-2005 IAR Systems. All rights reserved.                      #
#                                                                            #
#    Cpu mode        =  interwork                                            #
#    Endian          =  little                                               #
#    Stack alignment =  4                                                    #
#    Source file     =  D:\S2Prog\TXU\src\TDUSysWin1.cpp                     #
#    Command line    =  D:\S2Prog\TXU\src\TDUSysWin1.cpp --fpu None -D       #
#                       OS_LIBMODE_SP -D CPU_S3C2410 -D OS_RAMVECT=0 -D      #
#                       OS_UART=-1 -D S2TXU -D USE_LZO=1 -D __ARM_LIBRARY__  #
#                       -D WATCHDOG=1 -D NETWORK=1 -lCN                      #
#                       D:\S2Prog\TXU\Debug\List\ -o                         #
#                       D:\S2Prog\TXU\Debug\Obj\ -s9 --debug --cpu_mode arm  #
#                       --endian little --cpu ARM920T --stack_align 4        #
#                       --interwork -e --enable_multibytes --eec++           #
#                       --dlib_config "C:\Program Files (x86)\IAR            #
#                       Systems\Embedded Workbench                           #
#                       4.0\arm\LIB\dl4tpainl8n.h" -I                        #
#                       D:\S2Prog\TXU\GUI\CORE\ -I D:\S2Prog\TXU\GUI\WM\ -I  #
#                       D:\S2Prog\TXU\GUI\WIDGET\ -I D:\S2Prog\TXU\CONFIG\   #
#                       -I D:\S2Prog\TXU\INC\ -I D:\S2Prog\TXU\..\SHARED\INC #
#                       \ -I D:\S2Prog\TXU\..\SHARED\SRC\ -I                 #
#                       D:\S2Prog\TXU\..\SHARED\LZO\minilzo.210\ -I          #
#                       D:\S2Prog\TXU\lwip-1.4.1\src\include\ -I             #
#                       D:\S2Prog\TXU\lwip-1.4.1\src\include\ipv4\ -I        #
#                       D:\S2Prog\TXU\lwip-1.4.1\src\ -I                     #
#                       D:\S2Prog\TXU\..\SHARED\Database\ -I                 #
#                       D:\S2Prog\TXU\src\ -I "C:\Program Files (x86)\IAR    #
#                       Systems\Embedded Workbench 4.0\arm\INC\"             #
#                       --inline_threshold=2                                 #
#    List file       =  D:\S2Prog\TXU\Debug\List\TDUSysWin1.lst              #
#    Object file     =  D:\S2Prog\TXU\Debug\Obj\TDUSysWin1.r79               #
#                                                                            #
#                                                                            #
##############################################################################

D:\S2Prog\TXU\src\TDUSysWin1.cpp
      1          #include "TDUIncludes.h"

   \                                 In segment DATA_Z, align 4, align-sorted
   \   static GUI_FONT const __data TDU_FONT_PW
   \                     TDU_FONT_PW:
   \   00000000                      DS8 36
      2          

   \                                 In segment CODE, align 4, keep-with-next
      3          TDUSysWin1::~TDUSysWin1(void)
      4          {
   \                     `?~TDUSysWin1`:
   \   00000000   10402DE9           PUSH     {R4,LR}
   \   00000004   0040A0E1           MOV      R4,R0
      5          	delete UserManualWin ;
   \   00000008   780094E5           LDR      R0,[R4, #+120]
   \   0000000C   ........           _BLF     `??delete ~TDUUserManual`,`??delete ~TDUUserManual??rA`
      6          	delete SysSetupWin   ;
   \   00000010   7C0094E5           LDR      R0,[R4, #+124]
   \   00000014   ........           _BLF     `??delete ~TDUSysSetupWin`,`??delete ~TDUSysSetupWin??rA`
      7          	delete PrintSetupWin ;
   \   00000018   800094E5           LDR      R0,[R4, #+128]
   \   0000001C   ........           _BLF     `??delete ~TDUPrinterSetupWin`,`??delete ~TDUPrinterSetupWin??rA`
      8          	delete ConfigLoginWin;
   \   00000020   840094E5           LDR      R0,[R4, #+132]
   \   00000024   ........           _BLF     `??delete ~TDUConfigLoginWin`,`??delete ~TDUConfigLoginWin??rA`
   \   00000028   020000EA           B        `?~TDUSysWin1_1`
      9          	while ( DROPDOWN_GetNumItems(hDropdLanguage)>0 ) {
     10          		DROPDOWN_DeleteItem(hDropdLanguage, 0);
   \                     `?~TDUSysWin1_2`:
   \   0000002C   F004D4E1           LDRSH    R0,[R4, #+64]
   \   00000030   0010A0E3           MOV      R1,#+0
   \   00000034   ........           _BLF     DROPDOWN_DeleteItem,??DROPDOWN_DeleteItem??rA
     11          	}
   \                     `?~TDUSysWin1_1`:
   \   00000038   F004D4E1           LDRSH    R0,[R4, #+64]
   \   0000003C   ........           _BLF     DROPDOWN_GetNumItems,??DROPDOWN_GetNumItems??rA
   \   00000040   010050E3           CMP      R0,#+1
   \   00000044   F8FFFFAA           BGE      `?~TDUSysWin1_2`
     12          
     13          }
   \   00000048   0020A0E3           MOV      R2,#+0
   \   0000004C   0110A0E3           MOV      R1,#+1
   \   00000050   5C0084E2           ADD      R0,R4,#+92
   \   00000054   ........           _BLF     ??_Tidy,??_Tidy??rA
   \   00000058   0400A0E1           MOV      R0,R4
   \   0000005C   ........           _BLF     `?~TDUBasicWin`,`?~TDUBasicWin??rA`
   \   00000060   1040BDE8           POP      {R4,LR}
   \   00000064   1EFF2FE1           BX       LR               ;; return
     14          

   \                                 In segment CODE, align 4, keep-with-next
     15          TDUSysWin1::TDUSysWin1(void)
   \                     ??TDUSysWin1:
   \   00000000   30402DE9           PUSH     {R4,R5,LR}
   \   00000004   0040A0E1           MOV      R4,R0
     16          {
   \   00000008   ........           _BLF     ??TDUBasicWin,??TDUBasicWin??rA
   \   0000000C   5C0084E2           ADD      R0,R4,#+92
   \   00000010   ........           _BLF     ??AnsiString,??AnsiString??rA
     17          	UserManualWin   = new TDUUserManual;
   \   00000014   ........           _BLF     `??new TDUUserManual`,`??new TDUUserManual??rA`
   \   00000018   780084E5           STR      R0,[R4, #+120]
     18          	SysSetupWin     = new TDUSysSetupWin();
   \   0000001C   B000A0E3           MOV      R0,#+176
   \   00000020   ........           _BLF     `??operator new`,`??operator new??rA`
   \   00000024   0050B0E1           MOVS     R5,R0
   \   00000028   0000000A           BEQ      ??TDUSysWin1_1
   \   0000002C   ........           _BLF     ??TDUSysSetupWin,??TDUSysSetupWin??rA
   \                     ??TDUSysWin1_1:
   \   00000030   7C5084E5           STR      R5,[R4, #+124]
     19          	PrintSetupWin   = new TDUPrinterSetupWin();
   \   00000034   7400A0E3           MOV      R0,#+116
   \   00000038   ........           _BLF     `??operator new`,`??operator new??rA`
   \   0000003C   0050B0E1           MOVS     R5,R0
   \   00000040   0000000A           BEQ      ??TDUSysWin1_2
   \   00000044   ........           _BLF     ??TDUPrinterSetupWin,??TDUPrinterSetupWin??rA
   \                     ??TDUSysWin1_2:
   \   00000048   805084E5           STR      R5,[R4, #+128]
     20          	ConfigLoginWin  = new TDUConfigLoginWin;
   \   0000004C   ........           _BLF     `??new TDUConfigLoginWin`,`??new TDUConfigLoginWin??rA`
   \   00000050   840084E5           STR      R0,[R4, #+132]
     21          }
   \   00000054   0400A0E1           MOV      R0,R4
   \   00000058   3040BDE8           POP      {R4,R5,LR}
   \   0000005C   1EFF2FE1           BX       LR               ;; return
     22          

   \                                 In segment DATA_C, align 4, align-sorted
     23          const GUI_WIDGET_CREATE_INFO TDUSysWin1::aDialogCreate[] =
   \                     ??aDialogCreate:
   \   00000000   ............       DC32 FRAMEWIN_CreateIndirect, `?<Constant "System page 1">`
   \              ....        
   \   00000008   8D0800000000       DC16 2189, 0, 0, 286, 198, 128
   \              1E01C6008000
   \   00000014   00000000....       DC32 0, BUTTON_CreateIndirect, `?<Constant "Setup">`
   \              ............
   \   00000020   710164009A00       DC16 369, 100, 154, 80, 22
   \              50001600    
   \   0000002A   000000000000       DC8 0, 0, 0, 0, 0, 0
   \   00000030   ............       DC32 BUTTON_CreateIndirect, `?<Constant "Printer">`
   \              ....        
   \   00000038   7201BE009A00       DC16 370, 190, 154, 80, 22
   \              50001600    
   \   00000042   000000000000       DC8 0, 0, 0, 0, 0, 0
   \   00000048   ............       DC32 TEXT_CreateIndirect, `?<Constant "Program version:">`
   \              ....        
   \   00000050   600106000600       DC16 352, 6, 6, 95, 20, 0
   \              5F0014000000
   \   0000005C   00000000           DC8 0, 0, 0, 0
   \   00000060   ............       DC32 TEXT_CreateIndirect, `?<Constant "Data version:">`
   \              ....        
   \   00000068   610106001A00       DC16 353, 6, 26, 95, 20, 0
   \              5F0014000000
   \   00000074   00000000           DC8 0, 0, 0, 0
   \   00000078   ............       DC32 TEXT_CreateIndirect, `?<Constant "System ID:">`
   \              ....        
   \   00000080   620106002E00       DC16 354, 6, 46, 95, 20, 0
   \              5F0014000000
   \   0000008C   00000000           DC8 0, 0, 0, 0
   \   00000090   ............       DC32 TEXT_CreateIndirect, `?<Constant "">`
   \              ....        
   \   00000098   630164000600       DC16 355, 100, 6, 70, 20, 1
   \              460014000100
   \   000000A4   00000000           DC8 0, 0, 0, 0
   \   000000A8   ............       DC32 TEXT_CreateIndirect, `?<Constant "">`
   \              ....        
   \   000000B0   640164001A00       DC16 356, 100, 26, 70, 20, 1
   \              460014000100
   \   000000BC   00000000           DC8 0, 0, 0, 0
   \   000000C0   ............       DC32 TEXT_CreateIndirect, `?<Constant "">`
   \              ....        
   \   000000C8   650164002E00       DC16 357, 100, 46, 70, 20, 1
   \              460014000100
   \   000000D4   00000000           DC8 0, 0, 0, 0
   \   000000D8   ............       DC32 TEXT_CreateIndirect, `?<Constant "Unit System:">`
   \              ....        
   \   000000E0   660106005400       DC16 358, 6, 84, 70, 15, 0
   \              46000F000000
   \   000000EC   00000000           DC8 0, 0, 0, 0
   \   000000F0   ........0000       DC32 RADIO_CreateIndirect, 0H
   \              0000        
   \   000000F8   500106006400       DC16 336, 6, 100, 60, 60, 0
   \              3C003C000000
   \   00000104   03000000....       DC32 3, TEXT_CreateIndirect, `?<Constant "Language">`
   \              ............
   \   00000110   6701C8006900       DC16 359, 200, 105, 70, 15, 0
   \              46000F000000
   \   0000011C   00000000           DC8 0, 0, 0, 0
   \   00000120   ........0000       DC32 DROPDOWN_CreateIndirect, 0H
   \              0000        
   \   00000128   8101C8007800       DC16 385, 200, 120, 70, 50, 0
   \              460032000000
   \   00000134   03000000....       DC32 3, EDIT_CreateIndirect, `?<Constant "">`
   \              ............
   \   00000140   630AC8000800       DC16 2659, 200, 8, 70, 15, 14
   \              46000F000E00
   \   0000014C   14000000....       DC32 20, EDIT_CreateIndirect, `?<Constant "">`
   \              ............
   \   00000158   620AC8001C00       DC16 2658, 200, 28, 70, 15, 14
   \              46000F000E00
   \   00000164   14000000....       DC32 20, TEXT_CreateIndirect, `?<Constant " GMT ">`
   \              ............
   \   00000170   6801C8003000       DC16 360, 200, 48, 34, 15, 0
   \              22000F000000
   \   0000017C   00000000           DC8 0, 0, 0, 0
   \   00000180   ............       DC32 EDIT_CreateIndirect, `?<Constant "">`
   \              ....        
   \   00000188   640AEC003000       DC16 2660, 236, 48, 34, 15, 14
   \              22000F000E00
   \   00000194   14000000....       DC32 20, BUTTON_CreateIndirect, `?<Constant "+">`
   \              ............
   \   000001A0   7501D2004200       DC16 373, 210, 66, 25, 18
   \              19001200    
   \   000001AA   000000000000       DC8 0, 0, 0, 0, 0, 0
   \   000001B0   ............       DC32 BUTTON_CreateIndirect, `?<Constant "-">`
   \              ....        
   \   000001B8   7601F5004200       DC16 374, 245, 66, 25, 18
   \              19001200    
   \   000001C2   000000000000       DC8 0, 0, 0, 0, 0, 0
   \   000001C8   ............       DC32 BUTTON_CreateIndirect, `?<Constant "-">`
   \              ....        
   \   000001D0   7601F5004200       DC16 374, 245, 66, 25, 18
   \              19001200    
   \   000001DA   000000000000       DC8 0, 0, 0, 0, 0, 0
   \   000001E0   ........0000       DC32 CHECKBOX_CreateIndirect, 0H
   \              0000        
   \   000001E8   2001C8005600       DC16 288, 200, 86, 50, 15
   \              32000F00    
   \   000001F2   000000000000       DC8 0, 0, 0, 0, 0, 0
   \   000001F8   ............       DC32 TEXT_CreateIndirect, `?<Constant "Operation Mode">`
   \              ....        
   \   00000200   69015A005400       DC16 361, 90, 84, 80, 15, 0
   \              50000F000000
   \   0000020C   00000000           DC8 0, 0, 0, 0
   \   00000210   ........0000       DC32 DROPDOWN_CreateIndirect, 0H
   \              0000        
   \   00000218   82015A006400       DC16 386, 90, 100, 80, 50, 0
   \              500032000000
   \   00000224   03000000           DC32 3
     24          {
     25          	{ FRAMEWIN_CreateIndirect, "System page 1", TDU_SYSTEM1_WIN,   0,   0, 286, 198, FRAMEWIN_CF_MAXIMIZED, 0},
     26          	//{ BUTTON_CreateIndirect, "User manual"    ,GUI_ID_BUTTON0  ,  10, 154,  80, 22},
     27          	{ BUTTON_CreateIndirect, "Setup"          ,GUI_ID_BUTTON1  , 100, 154,  80, 22},
     28          	{ BUTTON_CreateIndirect, "Printer"        ,GUI_ID_BUTTON2  , 190, 154,  80, 22},
     29          	{ TEXT_CreateIndirect, "Program version:" ,  GUI_ID_TEXT0  ,   6,   6,  95, 20, TEXT_CF_LEFT},
     30          	{ TEXT_CreateIndirect, "Data version:"    ,  GUI_ID_TEXT1  ,   6,  26,  95, 20, TEXT_CF_LEFT},
     31          	{ TEXT_CreateIndirect, "System ID:"       ,  GUI_ID_TEXT2  ,   6,  46,  95, 20, TEXT_CF_LEFT},
     32          	{ TEXT_CreateIndirect, ""                 ,  GUI_ID_TEXT3  , 100,   6,  70, 20, TEXT_CF_RIGHT},
     33          	{ TEXT_CreateIndirect, ""                 ,  GUI_ID_TEXT4  , 100,  26,  70, 20, TEXT_CF_RIGHT},
     34          	{ TEXT_CreateIndirect, ""                 ,  GUI_ID_TEXT5  , 100,  46,  70, 20, TEXT_CF_RIGHT},
     35          	{ TEXT_CreateIndirect, "Unit System:"     ,  GUI_ID_TEXT6  ,   6,  84,  70, 15, TEXT_CF_LEFT},
     36          	{ RADIO_CreateIndirect,      NULL         , GUI_ID_RADIO0  ,   6, 100,  60, 60, 0, 3},
     37          //Language
     38          	{ TEXT_CreateIndirect, "Language"         ,  GUI_ID_TEXT7  , 200, 105,  70, 15, TEXT_CF_LEFT},
     39          	{ DROPDOWN_CreateIndirect,   NULL         ,GUI_ID_DROPDOWN1, 200, 120,  70, 50, 0, 3},
     40          
     41          	{ EDIT_CreateIndirect, ""                 , GUI_ID_EDIT11  , 200,   8,  70, 15, GUI_TA_HCENTER | GUI_TA_VCENTER, 20},
     42          	{ EDIT_CreateIndirect, ""                 , GUI_ID_EDIT10  , 200,  28,  70, 15, GUI_TA_HCENTER | GUI_TA_VCENTER, 20},
     43          	{ TEXT_CreateIndirect, " GMT "            , GUI_ID_TEXT8   , 200,  48,  34, 15, TEXT_CF_LEFT},
     44          	{ EDIT_CreateIndirect, ""                 , GUI_ID_EDIT12  , 236,  48,  34, 15, GUI_TA_HCENTER | GUI_TA_VCENTER, 20},
     45          	{ BUTTON_CreateIndirect, "+"              ,GUI_ID_BUTTON5  , 210,  66,  25, 18},
     46          	{ BUTTON_CreateIndirect, "-"              ,GUI_ID_BUTTON6  , 245,  66,  25, 18},
     47          	{ BUTTON_CreateIndirect, "-"              ,GUI_ID_BUTTON6  , 245,  66,  25, 18},
     48          	{ CHECKBOX_CreateIndirect, NULL           ,GUI_ID_CHECK0   ,  200,  86,  50, 15},
     49          
     50          	{ TEXT_CreateIndirect, "Operation Mode"   ,GUI_ID_TEXT9    ,  90,  84,  80, 15, TEXT_CF_LEFT},
     51          	{ DROPDOWN_CreateIndirect,   NULL         ,GUI_ID_DROPDOWN2,  90, 100,  80, 50, 0, 3},
     52          
     53          };
     54          

   \                                 In segment DATA_C, align 4, align-sorted
   \                     `?<Constant {tSeaGoing, tUndefined}>`:
   \   00000000   0004               DC8 0, 4
   \   00000002   0000               DC8 0, 0
   \   00000004   8D0800000000       DC32 2189, 0, 20, 369, 0, 22, 370, 0, 23, 352, 0, 24, 353, 0, 25, 354
   \              000014000000
   \              710100000000
   \              000016000000
   \              720100000000
   \              000017000000
   \              600100000000
   \              000018000000
   \              610100000000
   \              000019000000
   \              62010000    
   \   00000044   000000001A00       DC32 0, 26, 358, 0, 27, 359, 0, 28, 360, 0, 29, 361, 0, 857, 336, 0, 59
   \              000066010000
   \              000000001B00
   \              000067010000
   \              000000001C00
   \              000068010000
   \              000000001D00
   \              000069010000
   \              000000005903
   \              000050010000
   \              000000003B00
   \              0000        
   \   00000088   500100000100       DC32 336, 1, 60, 336, 2, 984, 288, 1, 652
   \              00003C000000
   \              500100000200
   \              0000D8030000
   \              200100000100
   \              00008C020000
     55          const GUIKey Words[] ={
     56          	{TDU_SYSTEM1_WIN  ,0,L_WORD20},
     57          	//{GUI_ID_BUTTON0   ,0,L_WORD21 },
     58          	{GUI_ID_BUTTON1   ,0,L_WORD22},
     59          	{GUI_ID_BUTTON2   ,0,L_WORD23},
     60          	{GUI_ID_TEXT0     ,0,L_WORD24},
     61          	{GUI_ID_TEXT1     ,0,L_WORD25},
     62          	{GUI_ID_TEXT2     ,0,L_WORD26},
     63          	{GUI_ID_TEXT6     ,0,L_WORD27},
     64          	{GUI_ID_TEXT7     ,0,L_WORD28},
     65          	{GUI_ID_TEXT8     ,0,L_WORD29},
     66          	{GUI_ID_TEXT9     ,0,L_WORD857},
     67          	{GUI_ID_RADIO0    ,0,L_WORD59},
     68          	{GUI_ID_RADIO0    ,1,L_WORD60},
     69          	{GUI_ID_RADIO0    ,2,L_WORD984},
     70          	{GUI_ID_CHECK0    ,1,L_WORD652},
     71          
     72          };
     73          

   \                                 In segment CODE, align 4, keep-with-next
     74          void TDUSysWin1::ExecDialogBox(WM_HWIN hCurrentWin)
     75          {
   \                     ??ExecDialogBox:
   \   00000000   70402DE9           PUSH     {R4-R6,LR}
     76              SystemWindow->Protect();
   \   00000004   ........           LDR      R5,??DataTable1  ;; SystemWindow
   \   00000008   0040A0E1           MOV      R4,R0
   \   0000000C   000095E5           LDR      R0,[R5, #+0]
   \   00000010   0160A0E1           MOV      R6,R1
   \   00000014   ........           _BLF     ??Protect,??Protect??rA
     77          	if ( SystemWindow->SysWin1IsClosed ) {
   \   00000018   000095E5           LDR      R0,[R5, #+0]
   \   0000001C   7010D0E5           LDRB     R1,[R0, #+112]
   \   00000020   000051E3           CMP      R1,#+0
   \   00000024   1300000A           BEQ      ??ExecDialogBox_4
     78          		SystemWindow->SysWin1IsClosed = false;
     79          		WinHandl = GUI_CreateDialogBox(aDialogCreate, GUI_COUNTOF(aDialogCreate),&cbSysWin,
     80          									   hCurrentWin, 0, 0);
   \   00000028   6C209FE5           LDR      R2,??ExecDialogBox_5  ;; ??cbSysWin
   \   0000002C   0010A0E3           MOV      R1,#+0
   \   00000030   7010C0E5           STRB     R1,[R0, #+112]
   \   00000034   0000A0E3           MOV      R0,#+0
   \   00000038   01002DE9           PUSH     {R0}
   \   0000003C   01002DE9           PUSH     {R0}
   \   00000040   58009FE5           LDR      R0,??ExecDialogBox_5+0x4  ;; ??aDialogCreate
   \   00000044   0630A0E1           MOV      R3,R6
   \   00000048   1710A0E3           MOV      R1,#+23
   \   0000004C   ........           _BLF     GUI_CreateDialogBox,??GUI_CreateDialogBox??rA
   \   00000050   BA02C4E1           STRH     R0,[R4, #+42]
     81          		SystemWindow->CurrentSysWin = TDU_SYSWIN1;
   \   00000054   000095E5           LDR      R0,[R5, #+0]
   \   00000058   0110A0E3           MOV      R1,#+1
   \   0000005C   6C1080E5           STR      R1,[R0, #+108]
     82          		WM_EnableMemdev(WinHandl);
   \   00000060   FA02D4E1           LDRSH    R0,[R4, #+42]
   \   00000064   ........           _BLF     WM_EnableMemdev,??WM_EnableMemdev??rA
     83          		GetDialogHandles();
   \   00000068   0400A0E1           MOV      R0,R4
   \   0000006C   ........           BL       ??GetDialogHandles
   \   00000070   08D08DE2           ADD      SP,SP,#+8
   \   00000074   040000EA           B        ??ExecDialogBox_6
     84          	} else {
     85          		WM_BringToTop(WinHandl);
   \                     ??ExecDialogBox_4:
   \   00000078   FA02D4E1           LDRSH    R0,[R4, #+42]
   \   0000007C   ........           _BLF     WM_BringToTop,??WM_BringToTop??rA
     86          		WM_SetFocus(CurrentWinHandl);
   \   00000080   1C009FE5           LDR      R0,??ExecDialogBox_5+0x8  ;; CurrentWinHandl
   \   00000084   F000D0E1           LDRSH    R0,[R0, #+0]
   \   00000088   ........           _BLF     WM_SetFocus,??WM_SetFocus??rA
     87          	}
     88              SystemWindow->UnProtect();
   \                     ??ExecDialogBox_6:
   \   0000008C   000095E5           LDR      R0,[R5, #+0]
   \   00000090   ........           _BLF     ??UnProtect,??UnProtect??rA
     89          }
   \   00000094   7040BDE8           POP      {R4-R6,LR}
   \   00000098   1EFF2FE1           BX       LR               ;; return
   \                     ??ExecDialogBox_5:
   \   0000009C   ........           DC32     ??cbSysWin
   \   000000A0   ........           DC32     ??aDialogCreate
   \   000000A4   ........           DC32     CurrentWinHandl
     90          
     91          /*********************************************************************
     92          *
     93          * Dialog procedure
     94          */

   \                                 In segment CODE, align 4, keep-with-next
     95          void TDUSysWin1::GetDialogHandles(void)
     96          {
   \                     ??GetDialogHandles:
   \   00000000   10402DE9           PUSH     {R4,LR}
   \   00000004   0040A0E1           MOV      R4,R0
     97          	hTextProg         = WM_GetDialogItem(WinHandl, GUI_ID_TEXT0);
   \   00000008   FA02D4E1           LDRSH    R0,[R4, #+42]
   \   0000000C   581FA0E3           MOV      R1,#+352
   \   00000010   ........           _BLF     WM_GetDialogItem,??WM_GetDialogItem??rA
   \   00000014   B403C4E1           STRH     R0,[R4, #+52]
     98          	hTextData         = WM_GetDialogItem(WinHandl, GUI_ID_TEXT1);
   \   00000018   FA02D4E1           LDRSH    R0,[R4, #+42]
   \   0000001C   6110A0E3           MOV      R1,#+97
   \   00000020   401F81E3           ORR      R1,R1,#0x100
   \   00000024   ........           _BLF     WM_GetDialogItem,??WM_GetDialogItem??rA
   \   00000028   B603C4E1           STRH     R0,[R4, #+54]
     99          	hTextSystem       = WM_GetDialogItem(WinHandl, GUI_ID_TEXT2);
   \   0000002C   FA02D4E1           LDRSH    R0,[R4, #+42]
   \   00000030   6210A0E3           MOV      R1,#+98
   \   00000034   401F81E3           ORR      R1,R1,#0x100
   \   00000038   ........           _BLF     WM_GetDialogItem,??WM_GetDialogItem??rA
   \   0000003C   B803C4E1           STRH     R0,[R4, #+56]
    100          	hTextProgVersion  = WM_GetDialogItem(WinHandl, GUI_ID_TEXT3);
   \   00000040   FA02D4E1           LDRSH    R0,[R4, #+42]
   \   00000044   6310A0E3           MOV      R1,#+99
   \   00000048   401F81E3           ORR      R1,R1,#0x100
   \   0000004C   ........           _BLF     WM_GetDialogItem,??WM_GetDialogItem??rA
   \   00000050   BA03C4E1           STRH     R0,[R4, #+58]
    101          	hTextDataVersion  = WM_GetDialogItem(WinHandl, GUI_ID_TEXT4);
   \   00000054   FA02D4E1           LDRSH    R0,[R4, #+42]
   \   00000058   591FA0E3           MOV      R1,#+356
   \   0000005C   ........           _BLF     WM_GetDialogItem,??WM_GetDialogItem??rA
   \   00000060   BC03C4E1           STRH     R0,[R4, #+60]
    102          	hTextSystemID     = WM_GetDialogItem(WinHandl, GUI_ID_TEXT5);
   \   00000064   FA02D4E1           LDRSH    R0,[R4, #+42]
   \   00000068   6510A0E3           MOV      R1,#+101
   \   0000006C   401F81E3           ORR      R1,R1,#0x100
   \   00000070   ........           _BLF     WM_GetDialogItem,??WM_GetDialogItem??rA
   \   00000074   BE03C4E1           STRH     R0,[R4, #+62]
    103          	htextLanguage     = WM_GetDialogItem(WinHandl, GUI_ID_TEXT7);
   \   00000078   FA02D4E1           LDRSH    R0,[R4, #+42]
   \   0000007C   6710A0E3           MOV      R1,#+103
   \   00000080   401F81E3           ORR      R1,R1,#0x100
   \   00000084   ........           _BLF     WM_GetDialogItem,??WM_GetDialogItem??rA
   \   00000088   B805C4E1           STRH     R0,[R4, #+88]
    104          
    105          	hDropdLanguage    = WM_GetDialogItem(WinHandl, GUI_ID_DROPDOWN1);
   \   0000008C   FA02D4E1           LDRSH    R0,[R4, #+42]
   \   00000090   8110A0E3           MOV      R1,#+129
   \   00000094   401F81E3           ORR      R1,R1,#0x100
   \   00000098   ........           _BLF     WM_GetDialogItem,??WM_GetDialogItem??rA
   \   0000009C   B004C4E1           STRH     R0,[R4, #+64]
    106          	hDropdOpMode      = WM_GetDialogItem(WinHandl, GUI_ID_DROPDOWN2);
   \   000000A0   FA02D4E1           LDRSH    R0,[R4, #+42]
   \   000000A4   8210A0E3           MOV      R1,#+130
   \   000000A8   401F81E3           ORR      R1,R1,#0x100
   \   000000AC   ........           _BLF     WM_GetDialogItem,??WM_GetDialogItem??rA
   \   000000B0   B604C4E1           STRH     R0,[R4, #+70]
    107          
    108          	hRadioUnitSystem  = WM_GetDialogItem(WinHandl, GUI_ID_RADIO0);
   \   000000B4   FA02D4E1           LDRSH    R0,[R4, #+42]
   \   000000B8   541FA0E3           MOV      R1,#+336
   \   000000BC   ........           _BLF     WM_GetDialogItem,??WM_GetDialogItem??rA
   \   000000C0   B204C4E1           STRH     R0,[R4, #+66]
    109          	hEditTime         = WM_GetDialogItem(WinHandl, GUI_ID_EDIT10);
   \   000000C4   FA02D4E1           LDRSH    R0,[R4, #+42]
   \   000000C8   6210A0E3           MOV      R1,#+98
   \   000000CC   A01E81E3           ORR      R1,R1,#0xA00
   \   000000D0   ........           _BLF     WM_GetDialogItem,??WM_GetDialogItem??rA
   \   000000D4   B804C4E1           STRH     R0,[R4, #+72]
    110          	hEditDate         = WM_GetDialogItem(WinHandl, GUI_ID_EDIT11);
   \   000000D8   FA02D4E1           LDRSH    R0,[R4, #+42]
   \   000000DC   6310A0E3           MOV      R1,#+99
   \   000000E0   A01E81E3           ORR      R1,R1,#0xA00
   \   000000E4   ........           _BLF     WM_GetDialogItem,??WM_GetDialogItem??rA
   \   000000E8   BA04C4E1           STRH     R0,[R4, #+74]
    111          	hEditGMT          = WM_GetDialogItem(WinHandl, GUI_ID_EDIT12);
   \   000000EC   FA02D4E1           LDRSH    R0,[R4, #+42]
   \   000000F0   6410A0E3           MOV      R1,#+100
   \   000000F4   A01E81E3           ORR      R1,R1,#0xA00
   \   000000F8   ........           _BLF     WM_GetDialogItem,??WM_GetDialogItem??rA
   \   000000FC   BC04C4E1           STRH     R0,[R4, #+76]
    112          	hEditPlus         = WM_GetDialogItem(WinHandl, GUI_ID_BUTTON5);
   \   00000100   FA02D4E1           LDRSH    R0,[R4, #+42]
   \   00000104   7510A0E3           MOV      R1,#+117
   \   00000108   401F81E3           ORR      R1,R1,#0x100
   \   0000010C   ........           _BLF     WM_GetDialogItem,??WM_GetDialogItem??rA
   \   00000110   BE04C4E1           STRH     R0,[R4, #+78]
    113          	hEditMinus        = WM_GetDialogItem(WinHandl, GUI_ID_BUTTON6);
   \   00000114   FA02D4E1           LDRSH    R0,[R4, #+42]
   \   00000118   7610A0E3           MOV      R1,#+118
   \   0000011C   401F81E3           ORR      R1,R1,#0x100
   \   00000120   ........           _BLF     WM_GetDialogItem,??WM_GetDialogItem??rA
   \   00000124   B005C4E1           STRH     R0,[R4, #+80]
    114          	//hButManual        = WM_GetDialogItem(WinHandl, GUI_ID_BUTTON0);
    115          	hButSetup         = WM_GetDialogItem(WinHandl, GUI_ID_BUTTON1);
   \   00000128   FA02D4E1           LDRSH    R0,[R4, #+42]
   \   0000012C   7110A0E3           MOV      R1,#+113
   \   00000130   401F81E3           ORR      R1,R1,#0x100
   \   00000134   ........           _BLF     WM_GetDialogItem,??WM_GetDialogItem??rA
   \   00000138   B405C4E1           STRH     R0,[R4, #+84]
    116          	hButPrinter       = WM_GetDialogItem(WinHandl, GUI_ID_BUTTON2);
   \   0000013C   FA02D4E1           LDRSH    R0,[R4, #+42]
   \   00000140   7210A0E3           MOV      R1,#+114
   \   00000144   401F81E3           ORR      R1,R1,#0x100
   \   00000148   ........           _BLF     WM_GetDialogItem,??WM_GetDialogItem??rA
   \   0000014C   B605C4E1           STRH     R0,[R4, #+86]
    117          	hDSTCheckbox          = WM_GetDialogItem(WinHandl, GUI_ID_CHECK0);
   \   00000150   FA02D4E1           LDRSH    R0,[R4, #+42]
   \   00000154   481FA0E3           MOV      R1,#+288
   \   00000158   ........           _BLF     WM_GetDialogItem,??WM_GetDialogItem??rA
   \   0000015C   B404C4E1           STRH     R0,[R4, #+68]
    118          	//WM_DisableWindow(hButPrinter);
    119          	WM_DisableWindow(hEditGMT);
   \   00000160   FC04D4E1           LDRSH    R0,[R4, #+76]
   \   00000164   ........           _BLF     WM_DisableWindow,??WM_DisableWindow??rA
    120          	InitSysWin();
   \   00000168   0400A0E1           MOV      R0,R4
   \   0000016C   ........           BL       ??InitSysWin
    121          }
   \   00000170   1040BDE8           POP      {R4,LR}
   \   00000174   1EFF2FE1           BX       LR               ;; return
    122          

   \                                 In segment CODE, align 4, keep-with-next
    123          void TDUSysWin1::InitSysWin(void)
    124          {
   \                     ??InitSysWin:
   \   00000000   70402DE9           PUSH     {R4-R6,LR}
   \   00000004   20D04DE2           SUB      SP,SP,#+32
    125          //		/* Initialize all widgets */
    126          	TEXT_SetFont(hTextProg,&TDU_FONT_PW);
   \   00000008   ........           LDR      R5,??DataTable2  ;; TDU_FONT_PW
   \   0000000C   0040A0E1           MOV      R4,R0
   \   00000010   F403D4E1           LDRSH    R0,[R4, #+52]
   \   00000014   0510A0E1           MOV      R1,R5
   \   00000018   ........           _BLF     TEXT_SetFont,??TEXT_SetFont??rA
    127          	TEXT_SetFont(hTextData,&TDU_FONT_PW);
   \   0000001C   F603D4E1           LDRSH    R0,[R4, #+54]
   \   00000020   0510A0E1           MOV      R1,R5
   \   00000024   ........           _BLF     TEXT_SetFont,??TEXT_SetFont??rA
    128          	TEXT_SetFont(hTextSystem,&TDU_FONT_PW);
   \   00000028   F803D4E1           LDRSH    R0,[R4, #+56]
   \   0000002C   0510A0E1           MOV      R1,R5
   \   00000030   ........           _BLF     TEXT_SetFont,??TEXT_SetFont??rA
    129          	TEXT_SetFont(hTextProgVersion,&TDU_FONT_PW);
   \   00000034   FA03D4E1           LDRSH    R0,[R4, #+58]
   \   00000038   0510A0E1           MOV      R1,R5
   \   0000003C   ........           _BLF     TEXT_SetFont,??TEXT_SetFont??rA
    130          	TEXT_SetFont(hTextDataVersion,&TDU_FONT_PW);
   \   00000040   FC03D4E1           LDRSH    R0,[R4, #+60]
   \   00000044   0510A0E1           MOV      R1,R5
   \   00000048   ........           _BLF     TEXT_SetFont,??TEXT_SetFont??rA
    131          	TEXT_SetFont(hTextSystemID,&TDU_FONT_PW);
   \   0000004C   FE03D4E1           LDRSH    R0,[R4, #+62]
   \   00000050   0510A0E1           MOV      R1,R5
   \   00000054   ........           _BLF     TEXT_SetFont,??TEXT_SetFont??rA
    132          	DROPDOWN_SetAutoScroll(hDropdLanguage,1);
   \   00000058   F004D4E1           LDRSH    R0,[R4, #+64]
   \   0000005C   0110A0E3           MOV      R1,#+1
   \   00000060   ........           _BLF     DROPDOWN_SetAutoScroll,??DROPDOWN_SetAutoScroll??rA
   \   00000064   020000EA           B        ??InitSysWin_1
    133          	while ( DROPDOWN_GetNumItems(hDropdLanguage)>0 ) {
    134          		DROPDOWN_DeleteItem(hDropdLanguage, 0);
   \                     ??InitSysWin_2:
   \   00000068   F004D4E1           LDRSH    R0,[R4, #+64]
   \   0000006C   0010A0E3           MOV      R1,#+0
   \   00000070   ........           _BLF     DROPDOWN_DeleteItem,??DROPDOWN_DeleteItem??rA
    135          	}
   \                     ??InitSysWin_1:
   \   00000074   F004D4E1           LDRSH    R0,[R4, #+64]
   \   00000078   ........           _BLF     DROPDOWN_GetNumItems,??DROPDOWN_GetNumItems??rA
   \   0000007C   010050E3           CMP      R0,#+1
   \   00000080   F8FFFFAA           BGE      ??InitSysWin_2
    136          	{
    137          		int Selected = 0;	// First entry is English
   \   00000084   0050A0E3           MOV      R5,#+0
    138          		for ( int Key=0; Key < L_MAX_KEY; Key++ ) {
   \   00000088   0060A0E3           MOV      R6,#+0
    139          			AnsiString CName = GetLanguage(Key);
   \                     ??InitSysWin_3:
   \   0000008C   0610A0E1           MOV      R1,R6
   \   00000090   04008DE2           ADD      R0,SP,#+4
   \   00000094   ........           _BLF     ??GetLanguage,??GetLanguage??rA
    140          			if ( !CName.IsEmpty() ) {
   \   00000098   04008DE2           ADD      R0,SP,#+4
   \   0000009C   ........           _BLF     ??IsEmpty,??IsEmpty??rA
   \   000000A0   000050E3           CMP      R0,#+0
   \   000000A4   0C00001A           BNE      ??InitSysWin_4
    141          				DROPDOWN_AddString(hDropdLanguage, CName.c_str());
   \   000000A8   1C009DE5           LDR      R0,[SP, #+28]
   \   000000AC   100050E3           CMP      R0,#+16
   \   000000B0   F004D4E1           LDRSH    R0,[R4, #+64]
   \   000000B4   08109D25           LDRCS    R1,[SP, #+8]
   \   000000B8   08108D32           ADDCC    R1,SP,#+8
   \   000000BC   ........           _BLF     DROPDOWN_AddString,??DROPDOWN_AddString??rA
    142          				if ( Key == PROSystemData::CurrentLanguage ) {
   \   000000C0   ........           LDR      R0,??DataTable3  ;; ??CurrentLanguage
   \   000000C4   000090E5           LDR      R0,[R0, #+0]
   \   000000C8   000056E1           CMP      R6,R0
   \   000000CC   0200001A           BNE      ??InitSysWin_4
    143          					Selected = DROPDOWN_GetNumItems(hDropdLanguage);
   \   000000D0   F004D4E1           LDRSH    R0,[R4, #+64]
   \   000000D4   ........           _BLF     DROPDOWN_GetNumItems,??DROPDOWN_GetNumItems??rA
   \   000000D8   0050A0E1           MOV      R5,R0
    144          				}
    145          			}
    146          		}
   \                     ??InitSysWin_4:
   \   000000DC   0020A0E3           MOV      R2,#+0
   \   000000E0   0110A0E3           MOV      R1,#+1
   \   000000E4   04008DE2           ADD      R0,SP,#+4
   \   000000E8   ........           _BLF     ??_Tidy,??_Tidy??rA
   \   000000EC   016086E2           ADD      R6,R6,#+1
   \   000000F0   070056E3           CMP      R6,#+7
   \   000000F4   E4FFFFBA           BLT      ??InitSysWin_3
    147          		SetSelected(GUI_ID_DROPDOWN1,Selected);
   \   000000F8   0520A0E1           MOV      R2,R5
   \   000000FC   8110A0E3           MOV      R1,#+129
   \   00000100   401F81E3           ORR      R1,R1,#0x100
   \   00000104   0400A0E1           MOV      R0,R4
   \   00000108   ........           _BLF     ??SetSelected,??SetSelected??rA
    148          	}
    149          	DROPDOWN_SetAutoScroll(hDropdOpMode,1);
   \   0000010C   F604D4E1           LDRSH    R0,[R4, #+70]
   \   00000110   0110A0E3           MOV      R1,#+1
   \   00000114   ........           _BLF     DROPDOWN_SetAutoScroll,??DROPDOWN_SetAutoScroll??rA
   \   00000118   020000EA           B        ??InitSysWin_5
    150          	while ( DROPDOWN_GetNumItems(hDropdOpMode)>0 ) {
    151          		DROPDOWN_DeleteItem(hDropdOpMode, 0);
   \                     ??InitSysWin_6:
   \   0000011C   F604D4E1           LDRSH    R0,[R4, #+70]
   \   00000120   0010A0E3           MOV      R1,#+0
   \   00000124   ........           _BLF     DROPDOWN_DeleteItem,??DROPDOWN_DeleteItem??rA
    152          	}
   \                     ??InitSysWin_5:
   \   00000128   F604D4E1           LDRSH    R0,[R4, #+70]
   \   0000012C   ........           _BLF     DROPDOWN_GetNumItems,??DROPDOWN_GetNumItems??rA
   \   00000130   010050E3           CMP      R0,#+1
   \   00000134   F8FFFFAA           BGE      ??InitSysWin_6
    153          	{
    154          		const TankState TankStates[] = {tSeaGoing,tUndefined};
   \   00000138   E4509FE5           LDR      R5,??InitSysWin_7  ;; `?<Constant {tSeaGoing, tUndefined}>`
   \   0000013C   0D00A0E1           MOV      R0,SP
   \   00000140   0010D5E5           LDRB     R1,[R5, #0]
    155          		for ( int OpModeKey = 0; OpModeKey < NELEMENTS(TankStates); OpModeKey++ ) {
   \   00000144   0060A0E3           MOV      R6,#+0
   \   00000148   0010C0E5           STRB     R1,[R0, #+0]
   \   0000014C   0110D5E5           LDRB     R1,[R5, #+1]
   \   00000150   0110C0E5           STRB     R1,[R0, #+1]
    156          			AnsiString CName = PROXRefObject::GetStateString(TankStates[OpModeKey]);
   \                     ??InitSysWin_8:
   \   00000154   0D00A0E1           MOV      R0,SP
   \   00000158   0010D6E7           LDRB     R1,[R6, +R0]
   \   0000015C   04008DE2           ADD      R0,SP,#+4
   \   00000160   ........           _BLF     ??GetStateString,??GetStateString??rA
    157          			if ( !CName.IsEmpty() ) {
   \   00000164   04008DE2           ADD      R0,SP,#+4
   \   00000168   ........           _BLF     ??IsEmpty,??IsEmpty??rA
   \   0000016C   000050E3           CMP      R0,#+0
   \   00000170   0500001A           BNE      ??InitSysWin_9
    158          				DROPDOWN_AddString(hDropdOpMode, CName.c_str());
   \   00000174   1C009DE5           LDR      R0,[SP, #+28]
   \   00000178   100050E3           CMP      R0,#+16
   \   0000017C   F604D4E1           LDRSH    R0,[R4, #+70]
   \   00000180   08109D25           LDRCS    R1,[SP, #+8]
   \   00000184   08108D32           ADDCC    R1,SP,#+8
   \   00000188   ........           _BLF     DROPDOWN_AddString,??DROPDOWN_AddString??rA
    159          			}
    160          		}
   \                     ??InitSysWin_9:
   \   0000018C   0020A0E3           MOV      R2,#+0
   \   00000190   0110A0E3           MOV      R1,#+1
   \   00000194   04008DE2           ADD      R0,SP,#+4
   \   00000198   ........           _BLF     ??_Tidy,??_Tidy??rA
   \   0000019C   016086E2           ADD      R6,R6,#+1
   \   000001A0   020056E3           CMP      R6,#+2
   \   000001A4   EAFFFF3A           BCC      ??InitSysWin_8
    161          		int Selected = int(PROSystemData::TXUSystemData->GetOpModeState());
   \   000001A8   ........           LDR      R0,??DataTable15  ;; ??TXUSystemData
   \   000001AC   C710A0E3           MOV      R1,#+199
   \   000001B0   000090E5           LDR      R0,[R0, #+0]
   \   000001B4   501E81E3           ORR      R1,R1,#0x500
   \   000001B8   ........           _BLF     ??GetOpModeState,??GetOpModeState??rA
    162          		//Quick and dirty.
    163          		switch ( Selected ) {
   \   000001BC   000050E3           CMP      R0,#+0
    164          		case tSeaGoing:
    165          			Selected = 0;
   \   000001C0   0020A003           MOVEQ    R2,#+0
    166          			break;
    167          		default:
    168          			Selected = 1;
   \   000001C4   0120A013           MOVNE    R2,#+1
    169          			break;
    170          		}
    171          		SetSelected(GUI_ID_DROPDOWN2,Selected);
   \   000001C8   8260A0E3           MOV      R6,#+130
   \   000001CC   406F86E3           ORR      R6,R6,#0x100
   \   000001D0   0610A0E1           MOV      R1,R6
   \   000001D4   0400A0E1           MOV      R0,R4
   \   000001D8   ........           _BLF     ??SetSelected,??SetSelected??rA
    172          
    173          	}
    174          	AddToSKeyList((GUIKey*)Words,NELEMENTS(Words));
   \   000001DC   0130A0E3           MOV      R3,#+1
   \   000001E0   0E20A0E3           MOV      R2,#+14
   \   000001E4   041085E2           ADD      R1,R5,#+4
   \   000001E8   0400A0E1           MOV      R0,R4
   \   000001EC   ........           _BLF     ??AddToSKeyList,??AddToSKeyList??rA
    175          	switch(PROProjectInfo::ProjectType) {
   \   000001F0   30009FE5           LDR      R0,??InitSysWin_7+0x4  ;; ??ProjectType
   \   000001F4   000090E5           LDR      R0,[R0, #+0]
   \   000001F8   020050E3           CMP      R0,#+2
   \   000001FC   0500001A           BNE      ??InitSysWin_10
    176          	case 0:
    177          	case 1:
    178          		break;
    179          	case 2:
    180          		Hide(GUI_ID_TEXT9);
   \   00000200   191046E2           SUB      R1,R6,#+25
   \   00000204   0400A0E1           MOV      R0,R4
   \   00000208   ........           _BLF     ??Hide,??Hide??rA
    181          		Hide(GUI_ID_DROPDOWN2);
   \   0000020C   0610A0E1           MOV      R1,R6
   \   00000210   0400A0E1           MOV      R0,R4
   \   00000214   ........           _BLF     ??Hide,??Hide??rA
    182          		break;
    183          	}
    184          
    185          }
   \                     ??InitSysWin_10:
   \   00000218   20D08DE2           ADD      SP,SP,#+32
   \   0000021C   7040BDE8           POP      {R4-R6,LR}
   \   00000220   1EFF2FE1           BX       LR               ;; return
   \                     ??InitSysWin_7:
   \   00000224   ........           DC32     `?<Constant {tSeaGoing, tUndefined}>`
   \   00000228   ........           DC32     ??ProjectType
    186          

   \                                 In segment CODE, align 4, keep-with-next
    187          void TDUSysWin1::InitConfigLoginWin(WM_HWIN hWin)
    188          {
   \                     ??InitConfigLoginWin:
   \   00000000   00402DE9           PUSH     {LR}
   \   00000004   0100B0E1           MOVS     R0,R1
    189          	WM_HWIN hEdit0;
    190          	if ( hWin ) {
   \   00000008   0500000A           BEQ      ??InitConfigLoginWin_1
    191          		hEdit0 = WM_GetDialogItem(hWin, GUI_ID_EDIT0);
   \   0000000C   401FA0E3           MOV      R1,#+256
   \   00000010   ........           _BLF     WM_GetDialogItem,??WM_GetDialogItem??rA
    192          		if ( hEdit0 )EDIT_SetText(hEdit0, "******");
   \   00000014   000050E3           CMP      R0,#+0
   \   00000018   0100000A           BEQ      ??InitConfigLoginWin_1
   \   0000001C   08109FE5           LDR      R1,??InitConfigLoginWin_2  ;; `?<Constant "******">`
   \   00000020   ........           _BLF     EDIT_SetText,??EDIT_SetText??rA
    193          	}
    194          }
   \                     ??InitConfigLoginWin_1:
   \   00000024   0040BDE8           POP      {LR}
   \   00000028   1EFF2FE1           BX       LR               ;; return
   \                     ??InitConfigLoginWin_2:
   \   0000002C   ........           DC32     `?<Constant "******">`
    195          
    196          

   \                                 In segment CODE, align 4, keep-with-next
    197          void TDUSysWin1::CloseSysWin(void)
    198          {
   \                     ??CloseSysWin:
   \   00000000   30402DE9           PUSH     {R4,R5,LR}
   \   00000004   0040A0E1           MOV      R4,R0
    199          	if ( !UserManualWin->Closed ) {
   \   00000008   780094E5           LDR      R0,[R4, #+120]
   \   0000000C   0150A0E3           MOV      R5,#+1
   \   00000010   3610D0E5           LDRB     R1,[R0, #+54]
   \   00000014   000051E3           CMP      R1,#+0
   \   00000018   0600001A           BNE      ??CloseSysWin_1
    200          		UserManualWin->Closed = true;
   \   0000001C   3650C0E5           STRB     R5,[R0, #+54]
    201          		if ( UserManualWin->WinHandl>0 ) GUI_EndDialog(UserManualWin->WinHandl, 0);
   \   00000020   FA12D0E1           LDRSH    R1,[R0, #+42]
   \   00000024   010051E3           CMP      R1,#+1
   \   00000028   020000BA           BLT      ??CloseSysWin_1
   \   0000002C   FA02D0E1           LDRSH    R0,[R0, #+42]
   \   00000030   0010A0E3           MOV      R1,#+0
   \   00000034   ........           _BLF     GUI_EndDialog,??GUI_EndDialog??rA
    202          	}
    203          	if ( !SysSetupWin->Closed ) {
   \                     ??CloseSysWin_1:
   \   00000038   7C0094E5           LDR      R0,[R4, #+124]
   \   0000003C   8410D0E5           LDRB     R1,[R0, #+132]
   \   00000040   000051E3           CMP      R1,#+0
   \   00000044   0600001A           BNE      ??CloseSysWin_2
    204          		SysSetupWin->Closed = true;
   \   00000048   8450C0E5           STRB     R5,[R0, #+132]
    205          		if ( SysSetupWin->WinHandl>0 ) GUI_EndDialog(SysSetupWin->WinHandl, 0);
   \   0000004C   FA12D0E1           LDRSH    R1,[R0, #+42]
   \   00000050   010051E3           CMP      R1,#+1
   \   00000054   020000BA           BLT      ??CloseSysWin_2
   \   00000058   FA02D0E1           LDRSH    R0,[R0, #+42]
   \   0000005C   0010A0E3           MOV      R1,#+0
   \   00000060   ........           _BLF     GUI_EndDialog,??GUI_EndDialog??rA
    206          	}
    207          	if ( !PrintSetupWin->Closed ) {
   \                     ??CloseSysWin_2:
   \   00000064   800094E5           LDR      R0,[R4, #+128]
   \   00000068   4A10D0E5           LDRB     R1,[R0, #+74]
   \   0000006C   000051E3           CMP      R1,#+0
   \   00000070   0600001A           BNE      ??CloseSysWin_3
    208          		PrintSetupWin->Closed = true;
   \   00000074   4A50C0E5           STRB     R5,[R0, #+74]
    209          		if ( PrintSetupWin->WinHandl>0 ) GUI_EndDialog(PrintSetupWin->WinHandl, 0);
   \   00000078   FA12D0E1           LDRSH    R1,[R0, #+42]
   \   0000007C   010051E3           CMP      R1,#+1
   \   00000080   020000BA           BLT      ??CloseSysWin_3
   \   00000084   FA02D0E1           LDRSH    R0,[R0, #+42]
   \   00000088   0010A0E3           MOV      R1,#+0
   \   0000008C   ........           _BLF     GUI_EndDialog,??GUI_EndDialog??rA
    210          	}
    211          	if ( !ConfigLoginWin->Closed ) {
   \                     ??CloseSysWin_3:
   \   00000090   841094E5           LDR      R1,[R4, #+132]
   \   00000094   0200D1E5           LDRB     R0,[R1, #+2]
   \   00000098   000050E3           CMP      R0,#+0
   \   0000009C   0700001A           BNE      ??CloseSysWin_4
    212          		if ( ConfigLoginWin->WinHandl ) {
   \   000000A0   F000D1E1           LDRSH    R0,[R1, #+0]
   \   000000A4   000050E3           CMP      R0,#+0
   \   000000A8   0400000A           BEQ      ??CloseSysWin_4
    213          			ConfigLoginWin->CloseTimer.Stop();
   \   000000AC   040081E2           ADD      R0,R1,#+4
   \   000000B0   201091E5           LDR      R1,[R1, #+32]
   \   000000B4   001091E5           LDR      R1,[R1, #+0]
   \   000000B8   0FE0A0E1           MOV      LR,PC
   \   000000BC   11FF2FE1           BX       R1
    214          		}
    215          	}
    216          	//GetDialogHandles();
    217          }
   \                     ??CloseSysWin_4:
   \   000000C0   3040BDE8           POP      {R4,R5,LR}
   \   000000C4   1EFF2FE1           BX       LR               ;; return
    218          

   \                                 In segment CODE, align 4, keep-with-next
    219          void TDUSysWin1::UpdateSysWin(void)
    220          {
   \                     ??UpdateSysWin:
   \   00000000   70402DE9           PUSH     {R4-R6,LR}
    221          	AnsiString str = LibGetValue(SVT_PROG_VERSION, PROSystemData::TXUSystemData);
   \   00000004   ........           LDR      R5,??DataTable15  ;; ??TXUSystemData
   \   00000008   DCD04DE2           SUB      SP,SP,#+220
   \   0000000C   002095E5           LDR      R2,[R5, #+0]
   \   00000010   0040A0E1           MOV      R4,R0
   \   00000014   0030A0E3           MOV      R3,#+0
   \   00000018   1D10A0E3           MOV      R1,#+29
   \   0000001C   C01E81E3           ORR      R1,R1,#0xC00
   \   00000020   0D00A0E1           MOV      R0,SP
   \   00000024   ........           _BLF     ??LibGetValue,??LibGetValue??rA
    222          	TEXT_SetText(hTextProgVersion, str.c_str());
   \   00000028   18009DE5           LDR      R0,[SP, #+24]
   \   0000002C   100050E3           CMP      R0,#+16
   \   00000030   FA03D4E1           LDRSH    R0,[R4, #+58]
   \   00000034   04109D25           LDRCS    R1,[SP, #+4]
   \   00000038   04108D32           ADDCC    R1,SP,#+4
   \   0000003C   ........           _BLF     TEXT_SetText,??TEXT_SetText??rA
    223          	str = LibGetValue(SVT_DATA_VERSION, PROSystemData::TXUSystemData);
   \   00000040   002095E5           LDR      R2,[R5, #+0]
   \   00000044   0030A0E3           MOV      R3,#+0
   \   00000048   2210A0E3           MOV      R1,#+34
   \   0000004C   C01E81E3           ORR      R1,R1,#0xC00
   \   00000050   1C008DE2           ADD      R0,SP,#+28
   \   00000054   ........           _BLF     ??LibGetValue,??LibGetValue??rA
   \   00000058   ........           LDR      R0,??DataTable13  ;; ??npos
   \   0000005C   0020A0E3           MOV      R2,#+0
   \   00000060   006090E5           LDR      R6,[R0, #+0]
   \   00000064   1C108DE2           ADD      R1,SP,#+28
   \   00000068   0630A0E1           MOV      R3,R6
   \   0000006C   0D00A0E1           MOV      R0,SP
   \   00000070   ........           _BLF     ??assign,??assign??rA
   \   00000074   0020A0E3           MOV      R2,#+0
   \   00000078   0110A0E3           MOV      R1,#+1
   \   0000007C   1C008DE2           ADD      R0,SP,#+28
   \   00000080   ........           _BLF     ??_Tidy,??_Tidy??rA
    224          	TEXT_SetText(hTextDataVersion, str.c_str());
   \   00000084   18009DE5           LDR      R0,[SP, #+24]
   \   00000088   100050E3           CMP      R0,#+16
   \   0000008C   FC03D4E1           LDRSH    R0,[R4, #+60]
   \   00000090   04109D25           LDRCS    R1,[SP, #+4]
   \   00000094   04108D32           ADDCC    R1,SP,#+4
   \   00000098   ........           _BLF     TEXT_SetText,??TEXT_SetText??rA
    225          	str = LibGetValue(SVT_SYSTEM_ID, PROSystemData::TXUSystemData);
   \   0000009C   002095E5           LDR      R2,[R5, #+0]
   \   000000A0   0030A0E3           MOV      R3,#+0
   \   000000A4   2310A0E3           MOV      R1,#+35
   \   000000A8   C01E81E3           ORR      R1,R1,#0xC00
   \   000000AC   38008DE2           ADD      R0,SP,#+56
   \   000000B0   ........           _BLF     ??LibGetValue,??LibGetValue??rA
   \   000000B4   0630A0E1           MOV      R3,R6
   \   000000B8   0020A0E3           MOV      R2,#+0
   \   000000BC   38108DE2           ADD      R1,SP,#+56
   \   000000C0   0D00A0E1           MOV      R0,SP
   \   000000C4   ........           _BLF     ??assign,??assign??rA
   \   000000C8   0020A0E3           MOV      R2,#+0
   \   000000CC   0110A0E3           MOV      R1,#+1
   \   000000D0   38008DE2           ADD      R0,SP,#+56
   \   000000D4   ........           _BLF     ??_Tidy,??_Tidy??rA
    226          	TEXT_SetText(hTextSystemID, str.c_str());
   \   000000D8   18009DE5           LDR      R0,[SP, #+24]
   \   000000DC   100050E3           CMP      R0,#+16
   \   000000E0   FE03D4E1           LDRSH    R0,[R4, #+62]
   \   000000E4   04109D25           LDRCS    R1,[SP, #+4]
   \   000000E8   04108D32           ADDCC    R1,SP,#+4
   \   000000EC   ........           _BLF     TEXT_SetText,??TEXT_SetText??rA
    227          
    228          	if ( PROSystemData::TXUSystemData ) {
   \   000000F0   000095E5           LDR      R0,[R5, #+0]
   \   000000F4   000050E3           CMP      R0,#+0
   \   000000F8   0300000A           BEQ      ??UpdateSysWin_1
    229          		int CurrentUnitSystem =(int)PROSystemData::TXUSystemData->CurrentUnitSystem;
    230          		RADIO_SetValue(hRadioUnitSystem,CurrentUnitSystem);
   \   000000FC   ........           LDR      R0,??DataTable14  ;; ??CurrentUnitSystem
   \   00000100   001090E5           LDR      R1,[R0, #+0]
   \   00000104   F204D4E1           LDRSH    R0,[R4, #+66]
   \   00000108   ........           _BLF     RADIO_SetValue,??RADIO_SetValue??rA
    231          	}
    232          	EDIT_SetText(hEditTime,(TSNTime()).c_str());
   \                     ??UpdateSysWin_1:
   \   0000010C   54008DE2           ADD      R0,SP,#+84
   \   00000110   ........           _BLF     ??TSNTime,??TSNTime??rA
   \   00000114   6C009DE5           LDR      R0,[SP, #+108]
   \   00000118   100050E3           CMP      R0,#+16
   \   0000011C   F804D4E1           LDRSH    R0,[R4, #+72]
   \   00000120   58109D25           LDRCS    R1,[SP, #+88]
   \   00000124   58108D32           ADDCC    R1,SP,#+88
   \   00000128   ........           _BLF     EDIT_SetText,??EDIT_SetText??rA
   \   0000012C   0020A0E3           MOV      R2,#+0
   \   00000130   0110A0E3           MOV      R1,#+1
   \   00000134   54008DE2           ADD      R0,SP,#+84
   \   00000138   ........           _BLF     ??_Tidy,??_Tidy??rA
    233          	EDIT_SetText(hEditDate,(TSNDate()).c_str());
   \   0000013C   70008DE2           ADD      R0,SP,#+112
   \   00000140   ........           _BLF     ??TSNDate,??TSNDate??rA
   \   00000144   88009DE5           LDR      R0,[SP, #+136]
   \   00000148   100050E3           CMP      R0,#+16
   \   0000014C   FA04D4E1           LDRSH    R0,[R4, #+74]
   \   00000150   74109D25           LDRCS    R1,[SP, #+116]
   \   00000154   74108D32           ADDCC    R1,SP,#+116
   \   00000158   ........           _BLF     EDIT_SetText,??EDIT_SetText??rA
   \   0000015C   0020A0E3           MOV      R2,#+0
   \   00000160   0110A0E3           MOV      R1,#+1
   \   00000164   70008DE2           ADD      R0,SP,#+112
   \   00000168   ........           _BLF     ??_Tidy,??_Tidy??rA
    234          
    235          	int RawTZone = (int)TSNTimeZone();
   \   0000016C   ........           _BLF     ??TSNTimeZone,??TSNTimeZone??rA
    236          	int TZone  = RawTZone / 60;
   \   00000170   A8109FE5           LDR      R1,??UpdateSysWin_2+0x4  ;; 0xffffffff88888889
   \   00000174   9120C3E0           SMULL    R2,R3,R1,R0
   \   00000178   003083E0           ADD      R3,R3,R0
   \   0000017C   C332A0E1           ASR      R3,R3,#+5
   \   00000180   A02F83E0           ADD      R2,R3,R0, LSR #+31
    237          	int RTzone = RawTZone % 60;	// Min step is 30 min
    238          	char Buf[BUF_SIZE];
    239          	if ( RTzone ) {
   \   00000184   9031C6E0           SMULL    R3,R6,R0,R1
   \   00000188   006086E0           ADD      R6,R6,R0
   \   0000018C   C662A0E1           ASR      R6,R6,#+5
   \   00000190   A06F86E0           ADD      R6,R6,R0, LSR #+31
   \   00000194   3C30A0E3           MOV      R3,#+60
   \   00000198   930606E0           MUL      R6,R3,R6
   \   0000019C   060050E0           SUBS     R0,R0,R6
    240          		sprintf(Buf,"%+i.5",TZone);
   \   000001A0   7C109F15           LDRNE    R1,??UpdateSysWin_2+0x8  ;; `?<Constant "%+i.5">`
    241          	} else {
    242          		sprintf(Buf,"%+i",TZone);
   \   000001A4   8C008DE2           ADD      R0,SP,#+140
   \   000001A8   1B1F8F02           ADREQ    R1,??UpdateSysWin_2  ;; "%+i"
   \   000001AC   ........           _BLF     sprintf,??sprintf??rA
    243          	}
    244          	EDIT_SetText(hEditGMT,Buf);
   \   000001B0   FC04D4E1           LDRSH    R0,[R4, #+76]
   \   000001B4   8C108DE2           ADD      R1,SP,#+140
   \   000001B8   ........           _BLF     EDIT_SetText,??EDIT_SetText??rA
    245          	if ( GetDaylightSaving() ) {
   \   000001BC   ........           _BLF     ??GetDaylightSaving,??GetDaylightSaving??rA
   \   000001C0   000050E3           CMP      R0,#+0
    246          		CHECKBOX_Check(hDSTCheckbox);
    247          	} else {
    248          		CHECKBOX_Uncheck(hDSTCheckbox);
   \   000001C4   F404D4E1           LDRSH    R0,[R4, #+68]
   \   000001C8   0110A013           MOVNE    R1,#+1
   \   000001CC   0010A003           MOVEQ    R1,#+0
   \   000001D0   ........           _BLF     CHECKBOX_SetState,??CHECKBOX_SetState??rA
    249          	}
    250          	{
    251          		int Selected = int(PROSystemData::TXUSystemData->GetOpModeState());
   \   000001D4   000095E5           LDR      R0,[R5, #+0]
   \   000001D8   C710A0E3           MOV      R1,#+199
   \   000001DC   501E81E3           ORR      R1,R1,#0x500
   \   000001E0   ........           _BLF     ??GetOpModeState,??GetOpModeState??rA
    252          		//Quick and dirty.
    253          		switch ( Selected ) {
   \   000001E4   000050E3           CMP      R0,#+0
    254          		case tSeaGoing:
    255          			Selected = 0;
   \   000001E8   0020A003           MOVEQ    R2,#+0
    256          			break;
    257          		default:
    258          			Selected = 1;
   \   000001EC   0120A013           MOVNE    R2,#+1
    259          			break;
    260          		}
    261          		SetSelected(GUI_ID_DROPDOWN2,Selected);
   \   000001F0   8210A0E3           MOV      R1,#+130
   \   000001F4   401F81E3           ORR      R1,R1,#0x100
   \   000001F8   0400A0E1           MOV      R0,R4
   \   000001FC   ........           _BLF     ??SetSelected,??SetSelected??rA
    262          	}
    263          }
   \   00000200   0020A0E3           MOV      R2,#+0
   \   00000204   0110A0E3           MOV      R1,#+1
   \   00000208   0D00A0E1           MOV      R0,SP
   \   0000020C   ........           _BLF     ??_Tidy,??_Tidy??rA
   \   00000210   DCD08DE2           ADD      SP,SP,#+220
   \   00000214   7040BDE8           POP      {R4-R6,LR}
   \   00000218   1EFF2FE1           BX       LR               ;; return
   \                     ??UpdateSysWin_2:
   \   0000021C   252B6900           DC8      "%+i"
   \   00000220   89888888           DC32     0xffffffff88888889
   \   00000224   ........           DC32     `?<Constant "%+i.5">`
    264          

   \                                 In segment CODE, align 4, keep-with-next
    265          void TDUSysWin1::SetTime(AnsiString TimeString)
    266          {
   \                     ??SetTime:
   \   00000000   F0472DE9           PUSH     {R4-R10,LR}
   \   00000004   ACD04DE2           SUB      SP,SP,#+172
    267          	char *DivideSting = ". ,/-:";
    268          	char *Ptr1,*Ptr2,*Ptr3;
    269          	int Hour=24;
    270          	int Minute=60;
    271          	int Second=60;
    272          	Ptr1 = (char*)TimeString.c_str();
    273          	Ptr2 = strpbrk( Ptr1, DivideSting );
   \   00000008   ........           LDR      R6,??DataTable11  ;; `?<Constant ". ,/-:">`
   \   0000000C   0040A0E1           MOV      R4,R0
   \   00000010   180091E5           LDR      R0,[R1, #+24]
   \   00000014   3C70A0E3           MOV      R7,#+60
   \   00000018   100050E3           CMP      R0,#+16
   \   0000001C   04509125           LDRCS    R5,[R1, #+4]
   \   00000020   3C80A0E3           MOV      R8,#+60
   \   00000024   04508132           ADDCC    R5,R1,#+4
   \   00000028   0610A0E1           MOV      R1,R6
   \   0000002C   0500A0E1           MOV      R0,R5
   \   00000030   ........           _BLF     _Strpbrk,??_Strpbrk??rA
   \   00000034   00A0B0E1           MOVS     R10,R0
    274          	if ( Ptr2 ) {
   \   00000038   1D00000A           BEQ      ??SetTime_1
    275          		Ptr2++;
    276          		Ptr3 = strpbrk(Ptr2,DivideSting);
   \   0000003C   0610A0E1           MOV      R1,R6
   \   00000040   01A080E2           ADD      R10,R0,#+1
   \   00000044   0A00A0E1           MOV      R0,R10
   \   00000048   ........           _BLF     _Strpbrk,??_Strpbrk??rA
   \   0000004C   0060B0E1           MOVS     R6,R0
    277          		if ( Ptr3 ) {
   \   00000050   0A20A0E3           MOV      R2,#+10
   \   00000054   0010A0E3           MOV      R1,#+0
   \   00000058   0500A0E1           MOV      R0,R5
   \   0000005C   0C00000A           BEQ      ??SetTime_2
    278          			Ptr3++;
    279          			Hour   = atoi(Ptr1);
   \   00000060   ........           _BLF     _Stoul,??_Stoul??rA
   \   00000064   0090A0E1           MOV      R9,R0
    280          			Minute = atoi(Ptr2);
   \   00000068   0A20A0E3           MOV      R2,#+10
   \   0000006C   0010A0E3           MOV      R1,#+0
   \   00000070   0A00A0E1           MOV      R0,R10
   \   00000074   ........           _BLF     _Stoul,??_Stoul??rA
   \   00000078   0070A0E1           MOV      R7,R0
    281          			Second = atoi(Ptr3);
   \   0000007C   0A20A0E3           MOV      R2,#+10
   \   00000080   0010A0E3           MOV      R1,#+0
   \   00000084   010086E2           ADD      R0,R6,#+1
   \   00000088   ........           _BLF     _Stoul,??_Stoul??rA
   \   0000008C   0080A0E1           MOV      R8,R0
   \   00000090   0C0000EA           B        ??SetTime_3
    282          		} else {
    283          			Hour   = atoi(Ptr1);
   \                     ??SetTime_2:
   \   00000094   ........           _BLF     _Stoul,??_Stoul??rA
   \   00000098   0090A0E1           MOV      R9,R0
    284          			Minute = atoi(Ptr2);
   \   0000009C   0A20A0E3           MOV      R2,#+10
   \   000000A0   0010A0E3           MOV      R1,#+0
   \   000000A4   0A00A0E1           MOV      R0,R10
   \   000000A8   ........           _BLF     _Stoul,??_Stoul??rA
   \   000000AC   0070A0E1           MOV      R7,R0
   \   000000B0   040000EA           B        ??SetTime_3
    285          		}
    286          	} else {
    287          		Hour   = atoi(Ptr1);
   \                     ??SetTime_1:
   \   000000B4   0A20A0E3           MOV      R2,#+10
   \   000000B8   0010A0E3           MOV      R1,#+0
   \   000000BC   0500A0E1           MOV      R0,R5
   \   000000C0   ........           _BLF     _Stoul,??_Stoul??rA
   \   000000C4   0090A0E1           MOV      R9,R0
    288          	}
    289          	//RBMARK test on fault
    290          //	EncodeTime( Hour, Minute, Second); Only suported in Borland
    291          	if ( (Hour >= 0) && (Hour <= 24) ) {// && (Minute >= 0) && (Minute < 60) && (Second >= 0) &&( Second < 60 )){
   \                     ??SetTime_3:
   \   000000C8   ........           LDR      R5,??DataTable12  ;; OKMessageBox
   \   000000CC   ........           LDR      R6,??DataTable13  ;; ??npos
   \   000000D0   000059E3           CMP      R9,#+0
   \   000000D4   6100004A           BMI      ??SetTime_4
   \   000000D8   190059E3           CMP      R9,#+25
   \   000000DC   5F0000AA           BGE      ??SetTime_4
    292          #ifdef S2TXU
    293          		const time_t TimeNow = time(NULL)+3600*GetDaylightSaving();
   \   000000E0   0000A0E3           MOV      R0,#+0
   \   000000E4   ........           _BLF     time,??time??rA
   \   000000E8   00A0A0E1           MOV      R10,R0
   \   000000EC   ........           _BLF     ??GetDaylightSaving,??GetDaylightSaving??rA
   \   000000F0   E11EA0E3           MOV      R1,#+3600
   \   000000F4   91A020E0           MLA      R0,R1,R0,R10
   \   000000F8   00008DE5           STR      R0,[SP, #+0]
    294          		struct tm *timeBuffer = localtime((const time_t*)&TimeNow);
   \   000000FC   0D00A0E1           MOV      R0,SP
   \   00000100   ........           _BLF     localtime,??localtime??rA
    295          		timeBuffer->tm_hour = Hour;
   \   00000104   089080E5           STR      R9,[R0, #+8]
    296          
    297          		if ( (Minute >= 0) && (Minute < 60) ) {
   \   00000108   000057E3           CMP      R7,#+0
   \   0000010C   0100004A           BMI      ??SetTime_5
   \   00000110   3C0057E3           CMP      R7,#+60
    298          			timeBuffer->tm_min  = Minute;
   \   00000114   047080B5           STRLT    R7,[R0, #+4]
    299          		}
    300          		if ( (Second >= 0) &&( Second < 60 ) ) {
   \                     ??SetTime_5:
   \   00000118   000058E3           CMP      R8,#+0
   \   0000011C   0100004A           BMI      ??SetTime_6
   \   00000120   3C0058E3           CMP      R8,#+60
    301          			timeBuffer->tm_sec  = Second;
   \   00000124   008080B5           STRLT    R8,[R0, #+0]
    302          		}
    303          		time_t NewTime = mktime(timeBuffer);
   \                     ??SetTime_6:
   \   00000128   ........           _BLF     mktime,??mktime??rA
   \   0000012C   0070A0E1           MOV      R7,R0
    304          		if ( int(NewTime)!=-1 ) {
   \   00000130   010077E3           CMN      R7,#+1
   \   00000134   0700000A           BEQ      ??SetTime_7
    305          			NewTime -= 3600*GetDaylightSaving();
   \   00000138   ........           _BLF     ??GetDaylightSaving,??GetDaylightSaving??rA
   \   0000013C   E11EA0E3           MOV      R1,#+3600
   \   00000140   910000E0           MUL      R0,R1,R0
   \   00000144   000047E0           SUB      R0,R7,R0
    306          			SetRTC(NewTime);
   \   00000148   ........           _BLF     ??SetRTC,??SetRTC??rA
    307          			ANPRO10_SendTime();
   \   0000014C   0100A0E3           MOV      R0,#+1
   \   00000150   ........           _BLF     ??ANPRO10_SendTime,??ANPRO10_SendTime??rA
   \   00000154   830000EA           B        ??SetTime_8
    308          		} else {
    309          			AnsiString Text1(FindDictionaryWord(L_WORD176).c_str());	// Fault in insert of Time!
   \                     ??SetTime_7:
   \   00000158   B010A0E3           MOV      R1,#+176
   \   0000015C   90008DE2           ADD      R0,SP,#+144
   \   00000160   ........           _BLF     ??FindDictionaryWord,??FindDictionaryWord??rA
   \   00000164   A8009DE5           LDR      R0,[SP, #+168]
   \   00000168   100050E3           CMP      R0,#+16
   \   0000016C   94109D25           LDRCS    R1,[SP, #+148]
   \   00000170   20008DE2           ADD      R0,SP,#+32
   \   00000174   94108D32           ADDCC    R1,SP,#+148
   \   00000178   ........           _BLF     ??AnsiString_1,??AnsiString??rA_1
   \   0000017C   0020A0E3           MOV      R2,#+0
   \   00000180   0110A0E3           MOV      R1,#+1
   \   00000184   90008DE2           ADD      R0,SP,#+144
   \   00000188   ........           _BLF     ??_Tidy,??_Tidy??rA
    310          			AnsiString Text2(FindDictionaryWord(L_WORD177).c_str());	// Time format h.m.s
   \   0000018C   B110A0E3           MOV      R1,#+177
   \   00000190   74008DE2           ADD      R0,SP,#+116
   \   00000194   ........           _BLF     ??FindDictionaryWord,??FindDictionaryWord??rA
   \   00000198   8C009DE5           LDR      R0,[SP, #+140]
   \   0000019C   100050E3           CMP      R0,#+16
   \   000001A0   78109D25           LDRCS    R1,[SP, #+120]
   \   000001A4   04008DE2           ADD      R0,SP,#+4
   \   000001A8   78108D32           ADDCC    R1,SP,#+120
   \   000001AC   ........           _BLF     ??AnsiString_1,??AnsiString??rA_1
   \   000001B0   0020A0E3           MOV      R2,#+0
   \   000001B4   0110A0E3           MOV      R1,#+1
   \   000001B8   74008DE2           ADD      R0,SP,#+116
   \   000001BC   ........           _BLF     ??_Tidy,??_Tidy??rA
    311          			OKMessageBox->Exec(WinHandl,Text1 , Text2);
   \   000001C0   0020A0E3           MOV      R2,#+0
   \   000001C4   0010A0E3           MOV      R1,#+0
   \   000001C8   3C008DE2           ADD      R0,SP,#+60
   \   000001CC   ........           _BLF     ??_Tidy,??_Tidy??rA
   \   000001D0   006096E5           LDR      R6,[R6, #+0]
   \   000001D4   0020A0E3           MOV      R2,#+0
   \   000001D8   0630A0E1           MOV      R3,R6
   \   000001DC   04108DE2           ADD      R1,SP,#+4
   \   000001E0   3C008DE2           ADD      R0,SP,#+60
   \   000001E4   ........           _BLF     ??assign,??assign??rA
   \   000001E8   0020A0E3           MOV      R2,#+0
   \   000001EC   0210A0E1           MOV      R1,R2
   \   000001F0   58008DE2           ADD      R0,SP,#+88
   \   000001F4   ........           _BLF     ??_Tidy,??_Tidy??rA
   \   000001F8   0630A0E1           MOV      R3,R6
   \   000001FC   0020A0E3           MOV      R2,#+0
   \   00000200   20108DE2           ADD      R1,SP,#+32
   \   00000204   58008DE2           ADD      R0,SP,#+88
   \   00000208   ........           _BLF     ??assign,??assign??rA
   \   0000020C   FA12D4E1           LDRSH    R1,[R4, #+42]
   \   00000210   000095E5           LDR      R0,[R5, #+0]
   \   00000214   3C308DE2           ADD      R3,SP,#+60
   \   00000218   58208DE2           ADD      R2,SP,#+88
   \   0000021C   ........           _BLF     ??Exec,??Exec??rA
   \   00000220   0020A0E3           MOV      R2,#+0
   \   00000224   0110A0E3           MOV      R1,#+1
   \   00000228   3C008DE2           ADD      R0,SP,#+60
   \   0000022C   ........           _BLF     ??_Tidy,??_Tidy??rA
   \   00000230   0020A0E3           MOV      R2,#+0
   \   00000234   0110A0E3           MOV      R1,#+1
   \   00000238   58008DE2           ADD      R0,SP,#+88
   \   0000023C   ........           _BLF     ??_Tidy,??_Tidy??rA
    312          		}
   \   00000240   0020A0E3           MOV      R2,#+0
   \   00000244   0110A0E3           MOV      R1,#+1
   \   00000248   04008DE2           ADD      R0,SP,#+4
   \   0000024C   ........           _BLF     ??_Tidy,??_Tidy??rA
   \   00000250   0020A0E3           MOV      R2,#+0
   \   00000254   0110A0E3           MOV      R1,#+1
   \   00000258   20008DE2           ADD      R0,SP,#+32
   \   0000025C   400000EA           B        ??SetTime_9
    313          #else
    314          		AnsiString Text2;
    315          		if ( (Hour >= 0) && (Hour <= 24) ) {
    316          			Text2 +=(AnsiString)" Hour "+(AnsiString)Hour;
    317          		}
    318          		if ( (Minute >= 0) && (Minute < 60) ) {
    319          			Text2 +=(AnsiString)", Minute "+(AnsiString)Minute;
    320          		}
    321          		if ( (Second >= 0) &&( Second < 60 ) ) {
    322          			Text2 +=(AnsiString)", Second "+(AnsiString)Second;
    323          		}
    324          		AnsiString Text1("OK Insert of Time!");
    325          		OKMessageBox->Exec(WinHandl,Text1 , Text2);
    326          #endif
    327          	} else {
    328          		AnsiString Text1(FindDictionaryWord(L_WORD176).c_str());	// Fault in insert of Time!
   \                     ??SetTime_4:
   \   00000260   B010A0E3           MOV      R1,#+176
   \   00000264   04008DE2           ADD      R0,SP,#+4
   \   00000268   ........           _BLF     ??FindDictionaryWord,??FindDictionaryWord??rA
   \   0000026C   1C009DE5           LDR      R0,[SP, #+28]
   \   00000270   100050E3           CMP      R0,#+16
   \   00000274   08109D25           LDRCS    R1,[SP, #+8]
   \   00000278   74008DE2           ADD      R0,SP,#+116
   \   0000027C   08108D32           ADDCC    R1,SP,#+8
   \   00000280   ........           _BLF     ??AnsiString_1,??AnsiString??rA_1
   \   00000284   0020A0E3           MOV      R2,#+0
   \   00000288   0110A0E3           MOV      R1,#+1
   \   0000028C   04008DE2           ADD      R0,SP,#+4
   \   00000290   ........           _BLF     ??_Tidy,??_Tidy??rA
    329          		AnsiString Text2(FindDictionaryWord(L_WORD177).c_str());	// Time format h.m.s
   \   00000294   B110A0E3           MOV      R1,#+177
   \   00000298   20008DE2           ADD      R0,SP,#+32
   \   0000029C   ........           _BLF     ??FindDictionaryWord,??FindDictionaryWord??rA
   \   000002A0   38009DE5           LDR      R0,[SP, #+56]
   \   000002A4   100050E3           CMP      R0,#+16
   \   000002A8   24109D25           LDRCS    R1,[SP, #+36]
   \   000002AC   90008DE2           ADD      R0,SP,#+144
   \   000002B0   24108D32           ADDCC    R1,SP,#+36
   \   000002B4   ........           _BLF     ??AnsiString_1,??AnsiString??rA_1
   \   000002B8   0020A0E3           MOV      R2,#+0
   \   000002BC   0110A0E3           MOV      R1,#+1
   \   000002C0   20008DE2           ADD      R0,SP,#+32
   \   000002C4   ........           _BLF     ??_Tidy,??_Tidy??rA
    330          		OKMessageBox->Exec(WinHandl,Text1 , Text2);
   \   000002C8   0020A0E3           MOV      R2,#+0
   \   000002CC   0010A0E3           MOV      R1,#+0
   \   000002D0   58008DE2           ADD      R0,SP,#+88
   \   000002D4   ........           _BLF     ??_Tidy,??_Tidy??rA
   \   000002D8   006096E5           LDR      R6,[R6, #+0]
   \   000002DC   0020A0E3           MOV      R2,#+0
   \   000002E0   0630A0E1           MOV      R3,R6
   \   000002E4   90108DE2           ADD      R1,SP,#+144
   \   000002E8   58008DE2           ADD      R0,SP,#+88
   \   000002EC   ........           _BLF     ??assign,??assign??rA
   \   000002F0   0020A0E3           MOV      R2,#+0
   \   000002F4   0210A0E1           MOV      R1,R2
   \   000002F8   3C008DE2           ADD      R0,SP,#+60
   \   000002FC   ........           _BLF     ??_Tidy,??_Tidy??rA
   \   00000300   0630A0E1           MOV      R3,R6
   \   00000304   0020A0E3           MOV      R2,#+0
   \   00000308   74108DE2           ADD      R1,SP,#+116
   \   0000030C   3C008DE2           ADD      R0,SP,#+60
   \   00000310   ........           _BLF     ??assign,??assign??rA
   \   00000314   FA12D4E1           LDRSH    R1,[R4, #+42]
   \   00000318   000095E5           LDR      R0,[R5, #+0]
   \   0000031C   58308DE2           ADD      R3,SP,#+88
   \   00000320   3C208DE2           ADD      R2,SP,#+60
   \   00000324   ........           _BLF     ??Exec,??Exec??rA
   \   00000328   0020A0E3           MOV      R2,#+0
   \   0000032C   0110A0E3           MOV      R1,#+1
   \   00000330   58008DE2           ADD      R0,SP,#+88
   \   00000334   ........           _BLF     ??_Tidy,??_Tidy??rA
   \   00000338   0020A0E3           MOV      R2,#+0
   \   0000033C   0110A0E3           MOV      R1,#+1
   \   00000340   3C008DE2           ADD      R0,SP,#+60
   \   00000344   ........           _BLF     ??_Tidy,??_Tidy??rA
    331          	}
   \   00000348   0020A0E3           MOV      R2,#+0
   \   0000034C   0110A0E3           MOV      R1,#+1
   \   00000350   90008DE2           ADD      R0,SP,#+144
   \   00000354   ........           _BLF     ??_Tidy,??_Tidy??rA
   \   00000358   0020A0E3           MOV      R2,#+0
   \   0000035C   0110A0E3           MOV      R1,#+1
   \   00000360   74008DE2           ADD      R0,SP,#+116
   \                     ??SetTime_9:
   \   00000364   ........           _BLF     ??_Tidy,??_Tidy??rA
    332          }
   \                     ??SetTime_8:
   \   00000368   ACD08DE2           ADD      SP,SP,#+172
   \   0000036C   F047BDE8           POP      {R4-R10,LR}
   \   00000370   1EFF2FE1           BX       LR               ;; return
    333          

   \                                 In segment CODE, align 4, keep-with-next
    334          void TDUSysWin1::SetDate(AnsiString TimeString)
    335          {
   \                     ??SetDate:
   \   00000000   F0472DE9           PUSH     {R4-R10,LR}
   \   00000004   ACD04DE2           SUB      SP,SP,#+172
    336          	char *DivideSting = ". ,/-:";
    337          	char *Ptr1,*Ptr2,*Ptr3;
    338          	int Day=0;
    339          	int Month=0;
    340          	int Year=0;
    341          	Ptr1 = (char*)TimeString.c_str();
    342          	Ptr2 = strpbrk(Ptr1,DivideSting);
   \   00000008   ........           LDR      R6,??DataTable11  ;; `?<Constant ". ,/-:">`
   \   0000000C   0040A0E1           MOV      R4,R0
   \   00000010   180091E5           LDR      R0,[R1, #+24]
   \   00000014   0070A0E3           MOV      R7,#+0
   \   00000018   100050E3           CMP      R0,#+16
   \   0000001C   04509125           LDRCS    R5,[R1, #+4]
   \   00000020   0080A0E3           MOV      R8,#+0
   \   00000024   04508132           ADDCC    R5,R1,#+4
   \   00000028   0610A0E1           MOV      R1,R6
   \   0000002C   0500A0E1           MOV      R0,R5
   \   00000030   ........           _BLF     _Strpbrk,??_Strpbrk??rA
   \   00000034   00A0B0E1           MOVS     R10,R0
    343          	if ( Ptr2 ) {
   \   00000038   1B00000A           BEQ      ??SetDate_1
    344          		Ptr2++;
    345          		Ptr3 = strpbrk(Ptr2,DivideSting);
   \   0000003C   0610A0E1           MOV      R1,R6
   \   00000040   01A080E2           ADD      R10,R0,#+1
   \   00000044   0A00A0E1           MOV      R0,R10
   \   00000048   ........           _BLF     _Strpbrk,??_Strpbrk??rA
   \   0000004C   0060B0E1           MOVS     R6,R0
    346          		if ( Ptr3 ) {
   \   00000050   0A20A0E3           MOV      R2,#+10
   \   00000054   0010A0E3           MOV      R1,#+0
   \   00000058   1000000A           BEQ      ??SetDate_2
    347          			Ptr3++;
    348          			Day   = atoi(Ptr1);
   \   0000005C   0500A0E1           MOV      R0,R5
   \   00000060   ........           _BLF     _Stoul,??_Stoul??rA
   \   00000064   0090A0E1           MOV      R9,R0
    349          			Month = atoi(Ptr2);
   \   00000068   0A20A0E3           MOV      R2,#+10
   \   0000006C   0010A0E3           MOV      R1,#+0
   \   00000070   0A00A0E1           MOV      R0,R10
   \   00000074   ........           _BLF     _Stoul,??_Stoul??rA
   \   00000078   0070A0E1           MOV      R7,R0
    350          			Year  = atoi(Ptr3);
   \   0000007C   0A20A0E3           MOV      R2,#+10
   \   00000080   0810A0E1           MOV      R1,R8
   \   00000084   010086E2           ADD      R0,R6,#+1
   \   00000088   ........           _BLF     _Stoul,??_Stoul??rA
   \   0000008C   0080A0E1           MOV      R8,R0
    351          			if ( Year < 100 ) {
   \   00000090   640058E3           CMP      R8,#+100
   \   00000094   090000AA           BGE      ??SetDate_3
    352          				Year += 2000;
   \   00000098   7D8E88E2           ADD      R8,R8,#+2000
   \   0000009C   070000EA           B        ??SetDate_3
    353          			}
    354          		} else {
    355          			Month = atoi(Ptr2);
   \                     ??SetDate_2:
   \   000000A0   0A00A0E1           MOV      R0,R10
   \   000000A4   ........           _BLF     _Stoul,??_Stoul??rA
   \   000000A8   0070A0E1           MOV      R7,R0
    356          			Day   = atoi(Ptr1);
    357          		}
    358          	} else {
    359          		Day   = atoi(Ptr1);
   \                     ??SetDate_1:
   \   000000AC   0A20A0E3           MOV      R2,#+10
   \   000000B0   0010A0E3           MOV      R1,#+0
   \   000000B4   0500A0E1           MOV      R0,R5
   \   000000B8   ........           _BLF     _Stoul,??_Stoul??rA
   \   000000BC   0090A0E1           MOV      R9,R0
    360          	}
    361          	if ( (Day >= 1) && (Day <= 31) ) {
   \                     ??SetDate_3:
   \   000000C0   ........           LDR      R5,??DataTable12  ;; OKMessageBox
   \   000000C4   ........           LDR      R6,??DataTable13  ;; ??npos
   \   000000C8   010059E3           CMP      R9,#+1
   \   000000CC   660000BA           BLT      ??SetDate_4
   \   000000D0   200059E3           CMP      R9,#+32
   \   000000D4   640000AA           BGE      ??SetDate_4
    362          #ifdef S2TXU
    363          		const time_t TimeNow = time(NULL)+3600*GetDaylightSaving();
   \   000000D8   0000A0E3           MOV      R0,#+0
   \   000000DC   ........           _BLF     time,??time??rA
   \   000000E0   00A0A0E1           MOV      R10,R0
   \   000000E4   ........           _BLF     ??GetDaylightSaving,??GetDaylightSaving??rA
   \   000000E8   E11EA0E3           MOV      R1,#+3600
   \   000000EC   91A020E0           MLA      R0,R1,R0,R10
   \   000000F0   00008DE5           STR      R0,[SP, #+0]
    364          		struct tm *timeBuffer = localtime((const time_t*)&TimeNow);
   \   000000F4   0D00A0E1           MOV      R0,SP
   \   000000F8   ........           _BLF     localtime,??localtime??rA
    365          		timeBuffer->tm_mday  = Day;
   \   000000FC   0C9080E5           STR      R9,[R0, #+12]
    366          		if ( (Month >= 1) && (Month <= 12) ) {
   \   00000100   010057E3           CMP      R7,#+1
   \   00000104   020000BA           BLT      ??SetDate_5
   \   00000108   0D0057E3           CMP      R7,#+13
    367          			timeBuffer->tm_mon   = Month-1;
   \   0000010C   011047B2           SUBLT    R1,R7,#+1
   \   00000110   101080B5           STRLT    R1,[R0, #+16]
    368          		}
    369          		if ( (Year >= 2004) ) {
   \                     ??SetDate_5:
   \   00000114   D410A0E3           MOV      R1,#+212
   \   00000118   701E81E3           ORR      R1,R1,#0x700
   \   0000011C   010058E1           CMP      R8,R1
   \   00000120   030000BA           BLT      ??SetDate_6
    370          			timeBuffer->tm_year  = Year-1900;
   \   00000124   6B10E0E3           MVN      R1,#+107
   \   00000128   701EC1E3           BIC      R1,R1,#0x700
   \   0000012C   081081E0           ADD      R1,R1,R8
   \   00000130   141080E5           STR      R1,[R0, #+20]
    371          		}
    372          		time_t NewTime = mktime(timeBuffer);
   \                     ??SetDate_6:
   \   00000134   ........           _BLF     mktime,??mktime??rA
   \   00000138   0070A0E1           MOV      R7,R0
    373          		if ( int(NewTime)!=-1 ) {
   \   0000013C   010077E3           CMN      R7,#+1
   \   00000140   0700000A           BEQ      ??SetDate_7
    374          			NewTime -= 3600*GetDaylightSaving();
   \   00000144   ........           _BLF     ??GetDaylightSaving,??GetDaylightSaving??rA
   \   00000148   E11EA0E3           MOV      R1,#+3600
   \   0000014C   910000E0           MUL      R0,R1,R0
   \   00000150   000047E0           SUB      R0,R7,R0
    375          			SetRTC(NewTime);
   \   00000154   ........           _BLF     ??SetRTC,??SetRTC??rA
    376          			ANPRO10_SendTime();
   \   00000158   0100A0E3           MOV      R0,#+1
   \   0000015C   ........           _BLF     ??ANPRO10_SendTime,??ANPRO10_SendTime??rA
   \   00000160   830000EA           B        ??SetDate_8
    377          		} else {
    378          			AnsiString Text1(FindDictionaryWord(L_WORD178).c_str());	// Fault in insert of Date!
   \                     ??SetDate_7:
   \   00000164   B210A0E3           MOV      R1,#+178
   \   00000168   90008DE2           ADD      R0,SP,#+144
   \   0000016C   ........           _BLF     ??FindDictionaryWord,??FindDictionaryWord??rA
   \   00000170   A8009DE5           LDR      R0,[SP, #+168]
   \   00000174   100050E3           CMP      R0,#+16
   \   00000178   94109D25           LDRCS    R1,[SP, #+148]
   \   0000017C   20008DE2           ADD      R0,SP,#+32
   \   00000180   94108D32           ADDCC    R1,SP,#+148
   \   00000184   ........           _BLF     ??AnsiString_1,??AnsiString??rA_1
   \   00000188   0020A0E3           MOV      R2,#+0
   \   0000018C   0110A0E3           MOV      R1,#+1
   \   00000190   90008DE2           ADD      R0,SP,#+144
   \   00000194   ........           _BLF     ??_Tidy,??_Tidy??rA
    379          			AnsiString Text2(FindDictionaryWord(L_WORD179).c_str());	// Date format \"d.m.y\"
   \   00000198   B310A0E3           MOV      R1,#+179
   \   0000019C   74008DE2           ADD      R0,SP,#+116
   \   000001A0   ........           _BLF     ??FindDictionaryWord,??FindDictionaryWord??rA
   \   000001A4   8C009DE5           LDR      R0,[SP, #+140]
   \   000001A8   100050E3           CMP      R0,#+16
   \   000001AC   78109D25           LDRCS    R1,[SP, #+120]
   \   000001B0   04008DE2           ADD      R0,SP,#+4
   \   000001B4   78108D32           ADDCC    R1,SP,#+120
   \   000001B8   ........           _BLF     ??AnsiString_1,??AnsiString??rA_1
   \   000001BC   0020A0E3           MOV      R2,#+0
   \   000001C0   0110A0E3           MOV      R1,#+1
   \   000001C4   74008DE2           ADD      R0,SP,#+116
   \   000001C8   ........           _BLF     ??_Tidy,??_Tidy??rA
    380          			OKMessageBox->Exec(WinHandl,Text1 , Text2);
   \   000001CC   0020A0E3           MOV      R2,#+0
   \   000001D0   0010A0E3           MOV      R1,#+0
   \   000001D4   3C008DE2           ADD      R0,SP,#+60
   \   000001D8   ........           _BLF     ??_Tidy,??_Tidy??rA
   \   000001DC   006096E5           LDR      R6,[R6, #+0]
   \   000001E0   0020A0E3           MOV      R2,#+0
   \   000001E4   0630A0E1           MOV      R3,R6
   \   000001E8   04108DE2           ADD      R1,SP,#+4
   \   000001EC   3C008DE2           ADD      R0,SP,#+60
   \   000001F0   ........           _BLF     ??assign,??assign??rA
   \   000001F4   0020A0E3           MOV      R2,#+0
   \   000001F8   0210A0E1           MOV      R1,R2
   \   000001FC   58008DE2           ADD      R0,SP,#+88
   \   00000200   ........           _BLF     ??_Tidy,??_Tidy??rA
   \   00000204   0630A0E1           MOV      R3,R6
   \   00000208   0020A0E3           MOV      R2,#+0
   \   0000020C   20108DE2           ADD      R1,SP,#+32
   \   00000210   58008DE2           ADD      R0,SP,#+88
   \   00000214   ........           _BLF     ??assign,??assign??rA
   \   00000218   FA12D4E1           LDRSH    R1,[R4, #+42]
   \   0000021C   000095E5           LDR      R0,[R5, #+0]
   \   00000220   3C308DE2           ADD      R3,SP,#+60
   \   00000224   58208DE2           ADD      R2,SP,#+88
   \   00000228   ........           _BLF     ??Exec,??Exec??rA
   \   0000022C   0020A0E3           MOV      R2,#+0
   \   00000230   0110A0E3           MOV      R1,#+1
   \   00000234   3C008DE2           ADD      R0,SP,#+60
   \   00000238   ........           _BLF     ??_Tidy,??_Tidy??rA
   \   0000023C   0020A0E3           MOV      R2,#+0
   \   00000240   0110A0E3           MOV      R1,#+1
   \   00000244   58008DE2           ADD      R0,SP,#+88
   \   00000248   ........           _BLF     ??_Tidy,??_Tidy??rA
    381          		}
   \   0000024C   0020A0E3           MOV      R2,#+0
   \   00000250   0110A0E3           MOV      R1,#+1
   \   00000254   04008DE2           ADD      R0,SP,#+4
   \   00000258   ........           _BLF     ??_Tidy,??_Tidy??rA
   \   0000025C   0020A0E3           MOV      R2,#+0
   \   00000260   0110A0E3           MOV      R1,#+1
   \   00000264   20008DE2           ADD      R0,SP,#+32
   \   00000268   400000EA           B        ??SetDate_9
    382          #else
    383          		AnsiString Text2;
    384          		if ( (Day >= 1) && (Day <= 31) ) {
    385          			Text2 +=(AnsiString)" Day "+(AnsiString)Day;
    386          		}
    387          		if ( (Month >= 1) && (Month <= 12) ) {
    388          			Text2 +=(AnsiString)" Month "+(AnsiString)Month;
    389          		}
    390          		if ( (Year >= 2004) ) {
    391          			Text2 +=(AnsiString)" Year "+(AnsiString)Year;
    392          		}
    393          		AnsiString Text1("OK Insert of Date!");
    394          		//		AnsiString Text2("Date format \"d.m.y\"");
    395          		OKMessageBox->Exec(WinHandl,Text1 , Text2);
    396          #endif
    397          	} else {
    398          		AnsiString Text1(FindDictionaryWord(L_WORD178).c_str());	// Fault in insert of Date!
   \                     ??SetDate_4:
   \   0000026C   B210A0E3           MOV      R1,#+178
   \   00000270   04008DE2           ADD      R0,SP,#+4
   \   00000274   ........           _BLF     ??FindDictionaryWord,??FindDictionaryWord??rA
   \   00000278   1C009DE5           LDR      R0,[SP, #+28]
   \   0000027C   100050E3           CMP      R0,#+16
   \   00000280   08109D25           LDRCS    R1,[SP, #+8]
   \   00000284   74008DE2           ADD      R0,SP,#+116
   \   00000288   08108D32           ADDCC    R1,SP,#+8
   \   0000028C   ........           _BLF     ??AnsiString_1,??AnsiString??rA_1
   \   00000290   0020A0E3           MOV      R2,#+0
   \   00000294   0110A0E3           MOV      R1,#+1
   \   00000298   04008DE2           ADD      R0,SP,#+4
   \   0000029C   ........           _BLF     ??_Tidy,??_Tidy??rA
    399          		AnsiString Text2(FindDictionaryWord(L_WORD179).c_str());	// Date format \"d.m.y\"
   \   000002A0   B310A0E3           MOV      R1,#+179
   \   000002A4   20008DE2           ADD      R0,SP,#+32
   \   000002A8   ........           _BLF     ??FindDictionaryWord,??FindDictionaryWord??rA
   \   000002AC   38009DE5           LDR      R0,[SP, #+56]
   \   000002B0   100050E3           CMP      R0,#+16
   \   000002B4   24109D25           LDRCS    R1,[SP, #+36]
   \   000002B8   90008DE2           ADD      R0,SP,#+144
   \   000002BC   24108D32           ADDCC    R1,SP,#+36
   \   000002C0   ........           _BLF     ??AnsiString_1,??AnsiString??rA_1
   \   000002C4   0020A0E3           MOV      R2,#+0
   \   000002C8   0110A0E3           MOV      R1,#+1
   \   000002CC   20008DE2           ADD      R0,SP,#+32
   \   000002D0   ........           _BLF     ??_Tidy,??_Tidy??rA
    400          		OKMessageBox->Exec(WinHandl,Text1 , Text2);
   \   000002D4   0020A0E3           MOV      R2,#+0
   \   000002D8   0010A0E3           MOV      R1,#+0
   \   000002DC   58008DE2           ADD      R0,SP,#+88
   \   000002E0   ........           _BLF     ??_Tidy,??_Tidy??rA
   \   000002E4   006096E5           LDR      R6,[R6, #+0]
   \   000002E8   0020A0E3           MOV      R2,#+0
   \   000002EC   0630A0E1           MOV      R3,R6
   \   000002F0   90108DE2           ADD      R1,SP,#+144
   \   000002F4   58008DE2           ADD      R0,SP,#+88
   \   000002F8   ........           _BLF     ??assign,??assign??rA
   \   000002FC   0020A0E3           MOV      R2,#+0
   \   00000300   0210A0E1           MOV      R1,R2
   \   00000304   3C008DE2           ADD      R0,SP,#+60
   \   00000308   ........           _BLF     ??_Tidy,??_Tidy??rA
   \   0000030C   0630A0E1           MOV      R3,R6
   \   00000310   0020A0E3           MOV      R2,#+0
   \   00000314   74108DE2           ADD      R1,SP,#+116
   \   00000318   3C008DE2           ADD      R0,SP,#+60
   \   0000031C   ........           _BLF     ??assign,??assign??rA
   \   00000320   FA12D4E1           LDRSH    R1,[R4, #+42]
   \   00000324   000095E5           LDR      R0,[R5, #+0]
   \   00000328   58308DE2           ADD      R3,SP,#+88
   \   0000032C   3C208DE2           ADD      R2,SP,#+60
   \   00000330   ........           _BLF     ??Exec,??Exec??rA
   \   00000334   0020A0E3           MOV      R2,#+0
   \   00000338   0110A0E3           MOV      R1,#+1
   \   0000033C   58008DE2           ADD      R0,SP,#+88
   \   00000340   ........           _BLF     ??_Tidy,??_Tidy??rA
   \   00000344   0020A0E3           MOV      R2,#+0
   \   00000348   0110A0E3           MOV      R1,#+1
   \   0000034C   3C008DE2           ADD      R0,SP,#+60
   \   00000350   ........           _BLF     ??_Tidy,??_Tidy??rA
    401          	}
   \   00000354   0020A0E3           MOV      R2,#+0
   \   00000358   0110A0E3           MOV      R1,#+1
   \   0000035C   90008DE2           ADD      R0,SP,#+144
   \   00000360   ........           _BLF     ??_Tidy,??_Tidy??rA
   \   00000364   0020A0E3           MOV      R2,#+0
   \   00000368   0110A0E3           MOV      R1,#+1
   \   0000036C   74008DE2           ADD      R0,SP,#+116
   \                     ??SetDate_9:
   \   00000370   ........           _BLF     ??_Tidy,??_Tidy??rA
    402          }
   \                     ??SetDate_8:
   \   00000374   ACD08DE2           ADD      SP,SP,#+172
   \   00000378   F047BDE8           POP      {R4-R10,LR}
   \   0000037C   1EFF2FE1           BX       LR               ;; return
    403          

   \                                 In segment CODE, align 4, keep-with-next
    404          void TDUSysWin1::UpdateUnitSystem(WM_HWIN hWin)
    405          {
   \                     ??UpdateUnitSystem:
   \   00000000   10402DE9           PUSH     {R4,LR}
    406          	WM_HWIN hRadio0;
    407          	hRadio0 = WM_GetDialogItem(hWin, GUI_ID_RADIO0);
    408          	int Key = RADIO_GetValue(hRadio0);
    409          	switch ( Key ) {
   \   00000004   ........           LDR      R4,??DataTable14  ;; ??CurrentUnitSystem
   \   00000008   0100A0E1           MOV      R0,R1
   \   0000000C   541FA0E3           MOV      R1,#+336
   \   00000010   ........           _BLF     WM_GetDialogItem,??WM_GetDialogItem??rA
   \   00000014   ........           _BLF     RADIO_GetValue,??RADIO_GetValue??rA
   \   00000018   000050E3           CMP      R0,#+0
   \   0000001C   0400000A           BEQ      ??UpdateUnitSystem_1
   \   00000020   010050E2           SUBS     R0,R0,#+1
   \   00000024   0500000A           BEQ      ??UpdateUnitSystem_2
   \   00000028   010050E2           SUBS     R0,R0,#+1
   \   0000002C   0700000A           BEQ      ??UpdateUnitSystem_3
   \   00000030   090000EA           B        ??UpdateUnitSystem_4
    410          	case 0:
    411                  PROSystemData::TXUSystemData->CurrentUnitSystem = UNIT_SYS_SI;
   \                     ??UpdateUnitSystem_1:
   \   00000034   000084E5           STR      R0,[R4, #+0]
    412          		SetStdSIUnits();
   \   00000038   ........           _BLF     ??SetStdSIUnits,??SetStdSIUnits??rA
   \   0000003C   060000EA           B        ??UpdateUnitSystem_4
    413                  break;
    414              case 1:
    415          		PROSystemData::TXUSystemData->CurrentUnitSystem = UNIT_SYS_US;
   \                     ??UpdateUnitSystem_2:
   \   00000040   0100A0E3           MOV      R0,#+1
   \   00000044   000084E5           STR      R0,[R4, #+0]
    416          		SetStdUSUnits();
   \   00000048   ........           _BLF     ??SetStdUSUnits,??SetStdUSUnits??rA
   \   0000004C   020000EA           B        ??UpdateUnitSystem_4
    417                  break;
    418              case 2:
    419                  PROSystemData::TXUSystemData->CurrentUnitSystem = UNIT_SYS_USER;
   \                     ??UpdateUnitSystem_3:
   \   00000050   0200A0E3           MOV      R0,#+2
   \   00000054   000084E5           STR      R0,[R4, #+0]
    420                  SetUserUnits();
   \   00000058   ........           _BLF     ??SetUserUnits,??SetUserUnits??rA
    421                  break;
    422          	}
    423          	PROSystemData::TXUSystemData->SetModifiedFlag();
   \                     ??UpdateUnitSystem_4:
   \   0000005C   ........           LDR      R0,??DataTable15  ;; ??TXUSystemData
   \   00000060   001090E5           LDR      R1,[R0, #+0]
   \   00000064   0100A0E1           MOV      R0,R1
   \   00000068   A41091E5           LDR      R1,[R1, #+164]
   \   0000006C   541091E5           LDR      R1,[R1, #+84]
   \   00000070   0FE0A0E1           MOV      LR,PC
   \   00000074   11FF2FE1           BX       R1
    424          	SignalSaveSettings(FLASH_SAVE_SETTINGS);
   \   00000078   0100A0E3           MOV      R0,#+1
   \   0000007C   ........           _BLF     ??SignalSaveSettings,??SignalSaveSettings??rA
    425          
    426          }
   \   00000080   1040BDE8           POP      {R4,LR}
   \   00000084   1EFF2FE1           BX       LR               ;; return
    427          
    428          

   \                                 In segment CODE, align 4, keep-with-next
    429          void TDUSysWin1::cbSysWin(WM_MESSAGE *pMsg)
    430          {
   \                     ??cbSysWin:
   \   00000000   F0472DE9           PUSH     {R4-R10,LR}
   \   00000004   6CD04DE2           SUB      SP,SP,#+108
    431          	int NCode, Id;
    432          	WM_HWIN hWin = pMsg->hWin;
    433          	switch ( pMsg->MsgId ) {
   \   00000008   ........           LDR      R4,??DataTable16  ;; SystemWindow
   \   0000000C   ........           LDR      R8,??DataTable17  ;; ??TXUSystemData
   \   00000010   001094E5           LDR      R1,[R4, #+0]
   \   00000014   0070A0E1           MOV      R7,R0
   \   00000018   F600D7E1           LDRSH    R0,[R7, #+6]
   \   0000001C   003097E5           LDR      R3,[R7, #+0]
   \   00000020   F460D7E1           LDRSH    R6,[R7, #+4]
   \   00000024   0050A0E1           MOV      R5,R0
   \   00000028   0120A0E3           MOV      R2,#+1
   \   0000002C   82A0A0E3           MOV      R10,#+130
   \   00000030   40AF8AE3           ORR      R10,R10,#0x100
   \   00000034   609F82E3           ORR      R9,R2,#0x180
   \   00000038   0B3043E2           SUB      R3,R3,#+11
   \   0000003C   40CE82E3           ORR      R12,R2,#0x400
   \   00000040   0C0053E1           CMP      R3,R12
   \   00000044   B203008A           BHI      ??cbSysWin_3
   \   00000048   02CF8FE2           ADR      R12,??cbSysWin_1
   \   0000004C   8330A0E1           MOV      R3,R3, LSL #+1
   \   00000050   B3C09CE1           LDRH     R12,[R12, R3]
   \   00000054   0CF18FE0           ADD      PC,PC,R12, LSL #+2
   \                     ??cbSysWin_1:
   \   00000058   0002AE038002       DC16     +512,+942,+640,+640
   \              8002        
   \   00000060   0202AE03AE03       DC16     +514,+942,+942,+942
   \              AE03        
   \   00000068   AE03AE03AE03       DC16     +942,+942,+942,+942
   \              AE03        
   \   00000070   AE03AE03AE03       DC16     +942,+942,+942,+942
   \              AE03        
   \   00000078   AE03AE033102       DC16     +942,+942,+561,+942
   \              AE03        
   \   00000080   AE032E02AE03       DC16     +942,+558,+942,+942
   \              AE03        
   \   00000088   AE03AE03AE03       DC16     +942,+942,+942,+663
   \              9702        
   \   00000090   AE03AE03AE03       DC16     +942,+942,+942,+942
   \              AE03        
   \   00000098   AE03AE03AE03       DC16     +942,+942,+942,+942
   \              AE03        
   \   000000A0   AE03AE03AE03       DC16     +942,+942,+942,+942
   \              AE03        
   \   000000A8   AE03AE03AE03       DC16     +942,+942,+942,+942
   \              AE03        
   \   000000B0   AE03AE03AE03       DC16     +942,+942,+942,+942
   \              AE03        
   \   000000B8   AE03AE03AE03       DC16     +942,+942,+942,+942
   \              AE03        
   \   000000C0   AE03AE03AE03       DC16     +942,+942,+942,+942
   \              AE03        
   \   000000C8   AE03AE03AE03       DC16     +942,+942,+942,+942
   \              AE03        
   \   000000D0   AE03AE03AE03       DC16     +942,+942,+942,+942
   \              AE03        
   \   000000D8   AE03AE03AE03       DC16     +942,+942,+942,+942
   \              AE03        
   \   000000E0   AE03AE03AE03       DC16     +942,+942,+942,+942
   \              AE03        
   \   000000E8   AE03AE03AE03       DC16     +942,+942,+942,+942
   \              AE03        
   \   000000F0   AE03AE03AE03       DC16     +942,+942,+942,+942
   \              AE03        
   \   000000F8   AE03AE03AE03       DC16     +942,+942,+942,+942
   \              AE03        
   \   00000100   AE03AE03AE03       DC16     +942,+942,+942,+942
   \              AE03        
   \   00000108   AE03AE03AE03       DC16     +942,+942,+942,+942
   \              AE03        
   \   00000110   AE03AE03AE03       DC16     +942,+942,+942,+942
   \              AE03        
   \   00000118   AE03AE03AE03       DC16     +942,+942,+942,+942
   \              AE03        
   \   00000120   AE03AE03AE03       DC16     +942,+942,+942,+942
   \              AE03        
   \   00000128   AE03AE03AE03       DC16     +942,+942,+942,+942
   \              AE03        
   \   00000130   AE03AE03AE03       DC16     +942,+942,+942,+942
   \              AE03        
   \   00000138   AE03AE03AE03       DC16     +942,+942,+942,+942
   \              AE03        
   \   00000140   AE03AE03AE03       DC16     +942,+942,+942,+942
   \              AE03        
   \   00000148   AE03AE03AE03       DC16     +942,+942,+942,+942
   \              AE03        
   \   00000150   AE03AE03AE03       DC16     +942,+942,+942,+942
   \              AE03        
   \   00000158   AE03AE03AE03       DC16     +942,+942,+942,+942
   \              AE03        
   \   00000160   AE03AE03AE03       DC16     +942,+942,+942,+942
   \              AE03        
   \   00000168   AE03AE03AE03       DC16     +942,+942,+942,+942
   \              AE03        
   \   00000170   AE03AE03AE03       DC16     +942,+942,+942,+942
   \              AE03        
   \   00000178   AE03AE03AE03       DC16     +942,+942,+942,+942
   \              AE03        
   \   00000180   AE03AE03AE03       DC16     +942,+942,+942,+942
   \              AE03        
   \   00000188   AE03AE03AE03       DC16     +942,+942,+942,+942
   \              AE03        
   \   00000190   AE03AE03AE03       DC16     +942,+942,+942,+942
   \              AE03        
   \   00000198   AE03AE03AE03       DC16     +942,+942,+942,+942
   \              AE03        
   \   000001A0   AE03AE03AE03       DC16     +942,+942,+942,+942
   \              AE03        
   \   000001A8   AE03AE03AE03       DC16     +942,+942,+942,+942
   \              AE03        
   \   000001B0   AE03AE03AE03       DC16     +942,+942,+942,+942
   \              AE03        
   \   000001B8   AE03AE03AE03       DC16     +942,+942,+942,+942
   \              AE03        
   \   000001C0   AE03AE03AE03       DC16     +942,+942,+942,+942
   \              AE03        
   \   000001C8   AE03AE03AE03       DC16     +942,+942,+942,+942
   \              AE03        
   \   000001D0   AE03AE03AE03       DC16     +942,+942,+942,+942
   \              AE03        
   \   000001D8   AE03AE03AE03       DC16     +942,+942,+942,+942
   \              AE03        
   \   000001E0   AE03AE03AE03       DC16     +942,+942,+942,+942
   \              AE03        
   \   000001E8   AE03AE03AE03       DC16     +942,+942,+942,+942
   \              AE03        
   \   000001F0   AE03AE03AE03       DC16     +942,+942,+942,+942
   \              AE03        
   \   000001F8   AE03AE03AE03       DC16     +942,+942,+942,+942
   \              AE03        
   \   00000200   AE03AE03AE03       DC16     +942,+942,+942,+942
   \              AE03        
   \   00000208   AE03AE03AE03       DC16     +942,+942,+942,+942
   \              AE03        
   \   00000210   AE03AE03AE03       DC16     +942,+942,+942,+942
   \              AE03        
   \   00000218   AE03AE03AE03       DC16     +942,+942,+942,+942
   \              AE03        
   \   00000220   AE03AE03AE03       DC16     +942,+942,+942,+942
   \              AE03        
   \   00000228   AE03AE03AE03       DC16     +942,+942,+942,+942
   \              AE03        
   \   00000230   AE03AE03AE03       DC16     +942,+942,+942,+942
   \              AE03        
   \   00000238   AE03AE03AE03       DC16     +942,+942,+942,+942
   \              AE03        
   \   00000240   AE03AE03AE03       DC16     +942,+942,+942,+942
   \              AE03        
   \   00000248   AE03AE03AE03       DC16     +942,+942,+942,+942
   \              AE03        
   \   00000250   AE03AE03AE03       DC16     +942,+942,+942,+942
   \              AE03        
   \   00000258   AE03AE03AE03       DC16     +942,+942,+942,+942
   \              AE03        
   \   00000260   AE03AE03AE03       DC16     +942,+942,+942,+942
   \              AE03        
   \   00000268   AE03AE03AE03       DC16     +942,+942,+942,+942
   \              AE03        
   \   00000270   AE03AE03AE03       DC16     +942,+942,+942,+942
   \              AE03        
   \   00000278   AE03AE03AE03       DC16     +942,+942,+942,+942
   \              AE03        
   \   00000280   AE03AE03AE03       DC16     +942,+942,+942,+942
   \              AE03        
   \   00000288   AE03AE03AE03       DC16     +942,+942,+942,+942
   \              AE03        
   \   00000290   AE03AE03AE03       DC16     +942,+942,+942,+942
   \              AE03        
   \   00000298   AE03AE03AE03       DC16     +942,+942,+942,+942
   \              AE03        
   \   000002A0   AE03AE03AE03       DC16     +942,+942,+942,+942
   \              AE03        
   \   000002A8   AE03AE03AE03       DC16     +942,+942,+942,+942
   \              AE03        
   \   000002B0   AE03AE03AE03       DC16     +942,+942,+942,+942
   \              AE03        
   \   000002B8   AE03AE03AE03       DC16     +942,+942,+942,+942
   \              AE03        
   \   000002C0   AE03AE03AE03       DC16     +942,+942,+942,+942
   \              AE03        
   \   000002C8   AE03AE03AE03       DC16     +942,+942,+942,+942
   \              AE03        
   \   000002D0   AE03AE03AE03       DC16     +942,+942,+942,+942
   \              AE03        
   \   000002D8   AE03AE03AE03       DC16     +942,+942,+942,+942
   \              AE03        
   \   000002E0   AE03AE03AE03       DC16     +942,+942,+942,+942
   \              AE03        
   \   000002E8   AE03AE03AE03       DC16     +942,+942,+942,+942
   \              AE03        
   \   000002F0   AE03AE03AE03       DC16     +942,+942,+942,+942
   \              AE03        
   \   000002F8   AE03AE03AE03       DC16     +942,+942,+942,+942
   \              AE03        
   \   00000300   AE03AE03AE03       DC16     +942,+942,+942,+942
   \              AE03        
   \   00000308   AE03AE03AE03       DC16     +942,+942,+942,+942
   \              AE03        
   \   00000310   AE03AE03AE03       DC16     +942,+942,+942,+942
   \              AE03        
   \   00000318   AE03AE03AE03       DC16     +942,+942,+942,+942
   \              AE03        
   \   00000320   AE03AE03AE03       DC16     +942,+942,+942,+942
   \              AE03        
   \   00000328   AE03AE03AE03       DC16     +942,+942,+942,+942
   \              AE03        
   \   00000330   AE03AE03AE03       DC16     +942,+942,+942,+942
   \              AE03        
   \   00000338   AE03AE03AE03       DC16     +942,+942,+942,+942
   \              AE03        
   \   00000340   AE03AE03AE03       DC16     +942,+942,+942,+942
   \              AE03        
   \   00000348   AE03AE03AE03       DC16     +942,+942,+942,+942
   \              AE03        
   \   00000350   AE03AE03AE03       DC16     +942,+942,+942,+942
   \              AE03        
   \   00000358   AE03AE03AE03       DC16     +942,+942,+942,+942
   \              AE03        
   \   00000360   AE03AE03AE03       DC16     +942,+942,+942,+942
   \              AE03        
   \   00000368   AE03AE03AE03       DC16     +942,+942,+942,+942
   \              AE03        
   \   00000370   AE03AE03AE03       DC16     +942,+942,+942,+942
   \              AE03        
   \   00000378   AE03AE03AE03       DC16     +942,+942,+942,+942
   \              AE03        
   \   00000380   AE03AE03AE03       DC16     +942,+942,+942,+942
   \              AE03        
   \   00000388   AE03AE03AE03       DC16     +942,+942,+942,+942
   \              AE03        
   \   00000390   AE03AE03AE03       DC16     +942,+942,+942,+942
   \              AE03        
   \   00000398   AE03AE03AE03       DC16     +942,+942,+942,+942
   \              AE03        
   \   000003A0   AE03AE03AE03       DC16     +942,+942,+942,+942
   \              AE03        
   \   000003A8   AE03AE03AE03       DC16     +942,+942,+942,+942
   \              AE03        
   \   000003B0   AE03AE03AE03       DC16     +942,+942,+942,+942
   \              AE03        
   \   000003B8   AE03AE03AE03       DC16     +942,+942,+942,+942
   \              AE03        
   \   000003C0   AE03AE03AE03       DC16     +942,+942,+942,+942
   \              AE03        
   \   000003C8   AE03AE03AE03       DC16     +942,+942,+942,+942
   \              AE03        
   \   000003D0   AE03AE03AE03       DC16     +942,+942,+942,+942
   \              AE03        
   \   000003D8   AE03AE03AE03       DC16     +942,+942,+942,+942
   \              AE03        
   \   000003E0   AE03AE03AE03       DC16     +942,+942,+942,+942
   \              AE03        
   \   000003E8   AE03AE03AE03       DC16     +942,+942,+942,+942
   \              AE03        
   \   000003F0   AE03AE03AE03       DC16     +942,+942,+942,+942
   \              AE03        
   \   000003F8   AE03AE03AE03       DC16     +942,+942,+942,+942
   \              AE03        
   \   00000400   AE03AE03AE03       DC16     +942,+942,+942,+942
   \              AE03        
   \   00000408   AE03AE03AE03       DC16     +942,+942,+942,+942
   \              AE03        
   \   00000410   AE03AE03AE03       DC16     +942,+942,+942,+942
   \              AE03        
   \   00000418   AE03AE03AE03       DC16     +942,+942,+942,+942
   \              AE03        
   \   00000420   AE03AE03AE03       DC16     +942,+942,+942,+942
   \              AE03        
   \   00000428   AE03AE03AE03       DC16     +942,+942,+942,+942
   \              AE03        
   \   00000430   AE03AE03AE03       DC16     +942,+942,+942,+942
   \              AE03        
   \   00000438   AE03AE03AE03       DC16     +942,+942,+942,+942
   \              AE03        
   \   00000440   AE03AE03AE03       DC16     +942,+942,+942,+942
   \              AE03        
   \   00000448   AE03AE03AE03       DC16     +942,+942,+942,+942
   \              AE03        
   \   00000450   AE03AE03AE03       DC16     +942,+942,+942,+942
   \              AE03        
   \   00000458   AE03AE03AE03       DC16     +942,+942,+942,+942
   \              AE03        
   \   00000460   AE03AE03AE03       DC16     +942,+942,+942,+942
   \              AE03        
   \   00000468   AE03AE03AE03       DC16     +942,+942,+942,+942
   \              AE03        
   \   00000470   AE03AE03AE03       DC16     +942,+942,+942,+942
   \              AE03        
   \   00000478   AE03AE03AE03       DC16     +942,+942,+942,+942
   \              AE03        
   \   00000480   AE03AE03AE03       DC16     +942,+942,+942,+942
   \              AE03        
   \   00000488   AE03AE03AE03       DC16     +942,+942,+942,+942
   \              AE03        
   \   00000490   AE03AE03AE03       DC16     +942,+942,+942,+942
   \              AE03        
   \   00000498   AE03AE03AE03       DC16     +942,+942,+942,+942
   \              AE03        
   \   000004A0   AE03AE03AE03       DC16     +942,+942,+942,+942
   \              AE03        
   \   000004A8   AE03AE03AE03       DC16     +942,+942,+942,+942
   \              AE03        
   \   000004B0   AE03AE03AE03       DC16     +942,+942,+942,+942
   \              AE03        
   \   000004B8   AE03AE03AE03       DC16     +942,+942,+942,+942
   \              AE03        
   \   000004C0   AE03AE03AE03       DC16     +942,+942,+942,+942
   \              AE03        
   \   000004C8   AE03AE03AE03       DC16     +942,+942,+942,+942
   \              AE03        
   \   000004D0   AE03AE03AE03       DC16     +942,+942,+942,+942
   \              AE03        
   \   000004D8   AE03AE03AE03       DC16     +942,+942,+942,+942
   \              AE03        
   \   000004E0   AE03AE03AE03       DC16     +942,+942,+942,+942
   \              AE03        
   \   000004E8   AE03AE03AE03       DC16     +942,+942,+942,+942
   \              AE03        
   \   000004F0   AE03AE03AE03       DC16     +942,+942,+942,+942
   \              AE03        
   \   000004F8   AE03AE03AE03       DC16     +942,+942,+942,+942
   \              AE03        
   \   00000500   AE03AE03AE03       DC16     +942,+942,+942,+942
   \              AE03        
   \   00000508   AE03AE03AE03       DC16     +942,+942,+942,+942
   \              AE03        
   \   00000510   AE03AE03AE03       DC16     +942,+942,+942,+942
   \              AE03        
   \   00000518   AE03AE03AE03       DC16     +942,+942,+942,+942
   \              AE03        
   \   00000520   AE03AE03AE03       DC16     +942,+942,+942,+942
   \              AE03        
   \   00000528   AE03AE03AE03       DC16     +942,+942,+942,+942
   \              AE03        
   \   00000530   AE03AE03AE03       DC16     +942,+942,+942,+942
   \              AE03        
   \   00000538   AE03AE03AE03       DC16     +942,+942,+942,+942
   \              AE03        
   \   00000540   AE03AE03AE03       DC16     +942,+942,+942,+942
   \              AE03        
   \   00000548   AE03AE03AE03       DC16     +942,+942,+942,+942
   \              AE03        
   \   00000550   AE03AE03AE03       DC16     +942,+942,+942,+942
   \              AE03        
   \   00000558   AE03AE03AE03       DC16     +942,+942,+942,+942
   \              AE03        
   \   00000560   AE03AE03AE03       DC16     +942,+942,+942,+942
   \              AE03        
   \   00000568   AE03AE03AE03       DC16     +942,+942,+942,+942
   \              AE03        
   \   00000570   AE03AE03AE03       DC16     +942,+942,+942,+942
   \              AE03        
   \   00000578   AE03AE03AE03       DC16     +942,+942,+942,+942
   \              AE03        
   \   00000580   AE03AE03AE03       DC16     +942,+942,+942,+942
   \              AE03        
   \   00000588   AE03AE03AE03       DC16     +942,+942,+942,+942
   \              AE03        
   \   00000590   AE03AE03AE03       DC16     +942,+942,+942,+942
   \              AE03        
   \   00000598   AE03AE03AE03       DC16     +942,+942,+942,+942
   \              AE03        
   \   000005A0   AE03AE03AE03       DC16     +942,+942,+942,+942
   \              AE03        
   \   000005A8   AE03AE03AE03       DC16     +942,+942,+942,+942
   \              AE03        
   \   000005B0   AE03AE03AE03       DC16     +942,+942,+942,+942
   \              AE03        
   \   000005B8   AE03AE03AE03       DC16     +942,+942,+942,+942
   \              AE03        
   \   000005C0   AE03AE03AE03       DC16     +942,+942,+942,+942
   \              AE03        
   \   000005C8   AE03AE03AE03       DC16     +942,+942,+942,+942
   \              AE03        
   \   000005D0   AE03AE03AE03       DC16     +942,+942,+942,+942
   \              AE03        
   \   000005D8   AE03AE03AE03       DC16     +942,+942,+942,+942
   \              AE03        
   \   000005E0   AE03AE03AE03       DC16     +942,+942,+942,+942
   \              AE03        
   \   000005E8   AE03AE03AE03       DC16     +942,+942,+942,+942
   \              AE03        
   \   000005F0   AE03AE03AE03       DC16     +942,+942,+942,+942
   \              AE03        
   \   000005F8   AE03AE03AE03       DC16     +942,+942,+942,+942
   \              AE03        
   \   00000600   AE03AE03AE03       DC16     +942,+942,+942,+942
   \              AE03        
   \   00000608   AE03AE03AE03       DC16     +942,+942,+942,+942
   \              AE03        
   \   00000610   AE03AE03AE03       DC16     +942,+942,+942,+942
   \              AE03        
   \   00000618   AE03AE03AE03       DC16     +942,+942,+942,+942
   \              AE03        
   \   00000620   AE03AE03AE03       DC16     +942,+942,+942,+942
   \              AE03        
   \   00000628   AE03AE03AE03       DC16     +942,+942,+942,+942
   \              AE03        
   \   00000630   AE03AE03AE03       DC16     +942,+942,+942,+942
   \              AE03        
   \   00000638   AE03AE03AE03       DC16     +942,+942,+942,+942
   \              AE03        
   \   00000640   AE03AE03AE03       DC16     +942,+942,+942,+942
   \              AE03        
   \   00000648   AE03AE03AE03       DC16     +942,+942,+942,+942
   \              AE03        
   \   00000650   AE03AE03AE03       DC16     +942,+942,+942,+942
   \              AE03        
   \   00000658   AE03AE03AE03       DC16     +942,+942,+942,+942
   \              AE03        
   \   00000660   AE03AE03AE03       DC16     +942,+942,+942,+942
   \              AE03        
   \   00000668   AE03AE03AE03       DC16     +942,+942,+942,+942
   \              AE03        
   \   00000670   AE03AE03AE03       DC16     +942,+942,+942,+942
   \              AE03        
   \   00000678   AE03AE03AE03       DC16     +942,+942,+942,+942
   \              AE03        
   \   00000680   AE03AE03AE03       DC16     +942,+942,+942,+942
   \              AE03        
   \   00000688   AE03AE03AE03       DC16     +942,+942,+942,+942
   \              AE03        
   \   00000690   AE03AE03AE03       DC16     +942,+942,+942,+942
   \              AE03        
   \   00000698   AE03AE03AE03       DC16     +942,+942,+942,+942
   \              AE03        
   \   000006A0   AE03AE03AE03       DC16     +942,+942,+942,+942
   \              AE03        
   \   000006A8   AE03AE03AE03       DC16     +942,+942,+942,+942
   \              AE03        
   \   000006B0   AE03AE03AE03       DC16     +942,+942,+942,+942
   \              AE03        
   \   000006B8   AE03AE03AE03       DC16     +942,+942,+942,+942
   \              AE03        
   \   000006C0   AE03AE03AE03       DC16     +942,+942,+942,+942
   \              AE03        
   \   000006C8   AE03AE03AE03       DC16     +942,+942,+942,+942
   \              AE03        
   \   000006D0   AE03AE03AE03       DC16     +942,+942,+942,+942
   \              AE03        
   \   000006D8   AE03AE03AE03       DC16     +942,+942,+942,+942
   \              AE03        
   \   000006E0   AE03AE03AE03       DC16     +942,+942,+942,+942
   \              AE03        
   \   000006E8   AE03AE03AE03       DC16     +942,+942,+942,+942
   \              AE03        
   \   000006F0   AE03AE03AE03       DC16     +942,+942,+942,+942
   \              AE03        
   \   000006F8   AE03AE03AE03       DC16     +942,+942,+942,+942
   \              AE03        
   \   00000700   AE03AE03AE03       DC16     +942,+942,+942,+942
   \              AE03        
   \   00000708   AE03AE03AE03       DC16     +942,+942,+942,+942
   \              AE03        
   \   00000710   AE03AE03AE03       DC16     +942,+942,+942,+942
   \              AE03        
   \   00000718   AE03AE03AE03       DC16     +942,+942,+942,+942
   \              AE03        
   \   00000720   AE03AE03AE03       DC16     +942,+942,+942,+942
   \              AE03        
   \   00000728   AE03AE03AE03       DC16     +942,+942,+942,+942
   \              AE03        
   \   00000730   AE03AE03AE03       DC16     +942,+942,+942,+942
   \              AE03        
   \   00000738   AE03AE03AE03       DC16     +942,+942,+942,+942
   \              AE03        
   \   00000740   AE03AE03AE03       DC16     +942,+942,+942,+942
   \              AE03        
   \   00000748   AE03AE03AE03       DC16     +942,+942,+942,+942
   \              AE03        
   \   00000750   AE03AE03AE03       DC16     +942,+942,+942,+942
   \              AE03        
   \   00000758   AE03AE03AE03       DC16     +942,+942,+942,+942
   \              AE03        
   \   00000760   AE03AE03AE03       DC16     +942,+942,+942,+942
   \              AE03        
   \   00000768   AE03AE03AE03       DC16     +942,+942,+942,+942
   \              AE03        
   \   00000770   AE03AE03AE03       DC16     +942,+942,+942,+942
   \              AE03        
   \   00000778   AE03AE03AE03       DC16     +942,+942,+942,+942
   \              AE03        
   \   00000780   AE03AE03AE03       DC16     +942,+942,+942,+942
   \              AE03        
   \   00000788   AE03AE03AE03       DC16     +942,+942,+942,+942
   \              AE03        
   \   00000790   AE03AE03AE03       DC16     +942,+942,+942,+942
   \              AE03        
   \   00000798   AE03AE03AE03       DC16     +942,+942,+942,+942
   \              AE03        
   \   000007A0   AE03AE03AE03       DC16     +942,+942,+942,+942
   \              AE03        
   \   000007A8   AE03AE03AE03       DC16     +942,+942,+942,+942
   \              AE03        
   \   000007B0   AE03AE03AE03       DC16     +942,+942,+942,+942
   \              AE03        
   \   000007B8   AE03AE03AE03       DC16     +942,+942,+942,+942
   \              AE03        
   \   000007C0   AE03AE03AE03       DC16     +942,+942,+942,+942
   \              AE03        
   \   000007C8   AE03AE03AE03       DC16     +942,+942,+942,+942
   \              AE03        
   \   000007D0   AE03AE03AE03       DC16     +942,+942,+942,+942
   \              AE03        
   \   000007D8   AE03AE03AE03       DC16     +942,+942,+942,+942
   \              AE03        
   \   000007E0   AE03AE03AE03       DC16     +942,+942,+942,+942
   \              AE03        
   \   000007E8   AE03AE03AE03       DC16     +942,+942,+942,+942
   \              AE03        
   \   000007F0   AE03AE03AE03       DC16     +942,+942,+942,+942
   \              AE03        
   \   000007F8   AE03AE03AE03       DC16     +942,+942,+942,+942
   \              AE03        
   \   00000800   AE03AE03AE03       DC16     +942,+942,+942,+942
   \              AE03        
   \   00000808   AE03AE03AE03       DC16     +942,+942,+942,+942
   \              AE03        
   \   00000810   AE03AE03AE03       DC16     +942,+942,+942,+942
   \              AE03        
   \   00000818   AE03AE03AE03       DC16     +942,+942,+942,+942
   \              AE03        
   \   00000820   AE03AE03AE03       DC16     +942,+942,+942,+942
   \              AE03        
   \   00000828   AE03AE03AE03       DC16     +942,+942,+942,+942
   \              AE03        
   \   00000830   AE03AE03AE03       DC16     +942,+942,+942,+942
   \              AE03        
   \   00000838   AE03AE03AE03       DC16     +942,+942,+942,+942
   \              AE03        
   \   00000840   AE03AE03AE03       DC16     +942,+942,+942,+942
   \              AE03        
   \   00000848   AE03AE03AE03       DC16     +942,+942,+942,+942
   \              AE03        
   \   00000850   AE03AE03AE03       DC16     +942,+942,+942,+942
   \              AE03        
   \   00000858   5A023402           DC16     +602,+564
    434          	case WM_DELETE:
    435          		SystemWindow->SysWin1IsClosed = true;
   \                     ??cbSysWin_4:
   \   0000085C   7020C1E5           STRB     R2,[R1, #+112]
   \   00000860   2B0000EA           B        ??cbSysWin_5
    436          		break;
    437          	case WM_PAINT:
    438          		GUI_DrawRect(   2,  2, 174,  66); // Prog, data verson etc
   \                     ??cbSysWin_6:
   \   00000864   4230A0E3           MOV      R3,#+66
   \   00000868   AE20A0E3           MOV      R2,#+174
   \   0000086C   0210A0E3           MOV      R1,#+2
   \   00000870   0200A0E3           MOV      R0,#+2
   \   00000874   ........           _BLF     GUI_DrawRect,??GUI_DrawRect??rA
    439          		GUI_DrawRect( 194,  2, 276, 145); // Time/date etc.
   \   00000878   9130A0E3           MOV      R3,#+145
   \   0000087C   452FA0E3           MOV      R2,#+276
   \   00000880   0210A0E3           MOV      R1,#+2
   \   00000884   C200A0E3           MOV      R0,#+194
   \   00000888   ........           _BLF     GUI_DrawRect,??GUI_DrawRect??rA
    440          		GUI_DrawRect(   2, 80,  72, 165); //Unit system
   \   0000088C   A530A0E3           MOV      R3,#+165
   \   00000890   4820A0E3           MOV      R2,#+72
   \   00000894   5010A0E3           MOV      R1,#+80
   \   00000898   0200A0E3           MOV      R0,#+2
   \   0000089C   ........           _BLF     GUI_DrawRect,??GUI_DrawRect??rA
    441          		GUI_DrawRect(  86, 80, 174, 145); // Operation mode
   \   000008A0   9130A0E3           MOV      R3,#+145
   \   000008A4   AE20A0E3           MOV      R2,#+174
   \   000008A8   5010A0E3           MOV      R1,#+80
   \   000008AC   5600A0E3           MOV      R0,#+86
   \   000008B0   ........           _BLF     GUI_DrawRect,??GUI_DrawRect??rA
    442          		SystemWindow->SysWin1->UpdateLanguage();
   \   000008B4   000094E5           LDR      R0,[R4, #+0]
   \   000008B8   580090E5           LDR      R0,[R0, #+88]
   \   000008BC   ........           _BLF     ??UpdateLanguage,??UpdateLanguage??rA
    443          		SystemWindow->SysWin1->UpdateFields(false);
   \   000008C0   000094E5           LDR      R0,[R4, #+0]
   \   000008C4   0010A0E3           MOV      R1,#+0
   \   000008C8   580090E5           LDR      R0,[R0, #+88]
   \   000008CC   ........           _BLF     ??UpdateFields,??UpdateFields??rA
    444          		SystemWindow->SysWin1->SetSelected(GUI_ID_DROPDOWN1,PROSystemData::CurrentLanguage);
   \   000008D0   ........           LDR      R0,??DataTable18  ;; ??CurrentLanguage
   \   000008D4   0910A0E1           MOV      R1,R9
   \   000008D8   002090E5           LDR      R2,[R0, #+0]
   \   000008DC   000094E5           LDR      R0,[R4, #+0]
   \   000008E0   580090E5           LDR      R0,[R0, #+88]
   \   000008E4   ........           _BLF     ??SetSelected,??SetSelected??rA
    445          		{
    446          			int Selected = int(PROSystemData::TXUSystemData->GetOpModeState());
   \   000008E8   000098E5           LDR      R0,[R8, #+0]
   \   000008EC   C710A0E3           MOV      R1,#+199
   \   000008F0   501E81E3           ORR      R1,R1,#0x500
   \   000008F4   ........           _BLF     ??GetOpModeState,??GetOpModeState??rA
    447          			//Quick and dirty.
    448          			switch ( Selected ) {
   \   000008F8   000050E3           CMP      R0,#+0
    449          			case tSeaGoing:
    450          				Selected = 0;
    451          				break;
    452          			default:
    453          				Selected = 1;
    454          				break;
    455          			}
    456          			SystemWindow->SysWin1->SetSelected(GUI_ID_DROPDOWN2,Selected);
   \   000008FC   000094E5           LDR      R0,[R4, #+0]
   \   00000900   0020A003           MOVEQ    R2,#+0
   \   00000904   580090E5           LDR      R0,[R0, #+88]
   \   00000908   0120A013           MOVNE    R2,#+1
   \   0000090C   0A10A0E1           MOV      R1,R10
   \   00000910   ........           _BLF     ??SetSelected,??SetSelected??rA
   \                     ??cbSysWin_5:
   \   00000914   6CD08DE2           ADD      SP,SP,#+108
   \   00000918   F047BDE8           POP      {R4-R10,LR}
   \   0000091C   1EFF2FE1           BX       LR
    457          		}
    458          		//SystemWindow->SysWin1->Repaint();
    459          		//New????          GUI_DrawBitmap(&bmScanjetlogo_small, 180, 100);
    460          		break;
    461          	case WM_INIT_DIALOG:
    462          		SystemWindow->SysWin1->FirstTime = true;
   \                     ??cbSysWin_7:
   \   00000920   580091E5           LDR      R0,[R1, #+88]
   \   00000924   2820C0E5           STRB     R2,[R0, #+40]
   \   00000928   F9FFFFEA           B        ??cbSysWin_5
    463          		break;
    464          	case MESSAGE_PINCODE_RETURN:
    465          		{
    466          			int ValueId = pMsg->hWinSrc;
    467          			char StringBuf[BUF_SIZE]={""};
   \                     ??cbSysWin_8:
   \   0000092C   1C008DE2           ADD      R0,SP,#+28
   \   00000930   0010A0E3           MOV      R1,#+0
   \   00000934   5020A0E3           MOV      R2,#+80
   \                     ??cbSysWin_9:
   \   00000938   042052E2           SUBS     R2,R2,#+4
   \   0000093C   021080E7           STR      R1,[R0, R2]
   \   00000940   FCFFFF1A           BNE      ??cbSysWin_9
    468          			strcpy( StringBuf,(char *)pMsg->Data.p);
   \   00000944   081097E5           LDR      R1,[R7, #+8]
   \   00000948   ........           _BLF     strcpy,??strcpy??rA
    469          			switch ( ValueId ) {
   \   0000094C   0F0049E2           SUB      R0,R9,#+15
   \   00000950   000055E1           CMP      R5,R0
   \   00000954   EEFFFF1A           BNE      ??cbSysWin_5
    470          			case GUI_ID_BUTTON2: // Config Button
    471          				if ( PinUnlock || CheckPinCode(StringBuf) ) {
   \   00000958   C0059FE5           LDR      R0,??cbSysWin_10  ;; PinUnlock
   \   0000095C   0000D0E5           LDRB     R0,[R0, #+0]
   \   00000960   000050E3           CMP      R0,#+0
   \   00000964   0B00001A           BNE      ??cbSysWin_11
   \   00000968   1C108DE2           ADD      R1,SP,#+28
   \   0000096C   0D00A0E1           MOV      R0,SP
   \   00000970   ........           _BLF     ??AnsiString_1,??AnsiString??rA_1
   \   00000974   0D00A0E1           MOV      R0,SP
   \   00000978   ........           _BLF     ??CheckPinCode,??CheckPinCode??rA
   \   0000097C   0040A0E1           MOV      R4,R0
   \   00000980   0020A0E3           MOV      R2,#+0
   \   00000984   0110A0E3           MOV      R1,#+1
   \   00000988   0D00A0E1           MOV      R0,SP
   \   0000098C   ........           _BLF     ??_Tidy,??_Tidy??rA
   \   00000990   000054E3           CMP      R4,#+0
   \   00000994   DEFFFF0A           BEQ      ??cbSysWin_5
    472          					PreviousWinID = CurrentWinID;
   \                     ??cbSysWin_11:
   \   00000998   84059FE5           LDR      R0,??cbSysWin_10+0x4  ;; CurrentWinID
   \   0000099C   84159FE5           LDR      R1,??cbSysWin_10+0x8  ;; PreviousWinID
   \   000009A0   002090E5           LDR      R2,[R0, #+0]
   \   000009A4   002081E5           STR      R2,[R1, #+0]
    473          					CurrentWinID = TDU_CONFIG_MAIN_WIN;
   \   000009A8   701E8AE2           ADD      R1,R10,#+1792
   \   000009AC   001080E5           STR      R1,[R0, #+0]
    474          					MainWindow->SetWindow(CurrentWinID);
   \   000009B0   001090E5           LDR      R1,[R0, #+0]
   \   000009B4   70059FE5           LDR      R0,??cbSysWin_10+0xC  ;; MainWindow
   \   000009B8   000090E5           LDR      R0,[R0, #+0]
   \   000009BC   ........           _BLF     ??SetWindow,??SetWindow??rA
   \   000009C0   D3FFFFEA           B        ??cbSysWin_5
    475          				}
    476          				break;
    477          			}
    478          		}
    479          		break;
    480          	case MESSAGE_KEYPAD_RETURN:
    481          		{
    482          			int ValueId = pMsg->hWinSrc;
    483          			char StringBuf[BUF_SIZE]={""};
   \                     ??cbSysWin_12:
   \   000009C4   1C008DE2           ADD      R0,SP,#+28
   \   000009C8   0010A0E3           MOV      R1,#+0
   \   000009CC   5020A0E3           MOV      R2,#+80
   \                     ??cbSysWin_13:
   \   000009D0   042052E2           SUBS     R2,R2,#+4
   \   000009D4   021080E7           STR      R1,[R0, R2]
   \   000009D8   FCFFFF1A           BNE      ??cbSysWin_13
    484          			if ( ValueId == GUI_ID_EDIT10 ) {
   \   000009DC   8E0E8AE2           ADD      R0,R10,#+2272
   \   000009E0   000055E1           CMP      R5,R0
   \   000009E4   0E00001A           BNE      ??cbSysWin_14
    485          				strcpy( StringBuf,(char *)pMsg->Data.p);
   \   000009E8   081097E5           LDR      R1,[R7, #+8]
   \   000009EC   1C008DE2           ADD      R0,SP,#+28
   \   000009F0   ........           _BLF     strcpy,??strcpy??rA
    486          				SystemWindow->SysWin1->SetTime(StringBuf);
   \   000009F4   1C108DE2           ADD      R1,SP,#+28
   \   000009F8   0D00A0E1           MOV      R0,SP
   \   000009FC   ........           _BLF     ??AnsiString_1,??AnsiString??rA_1
   \   00000A00   0010A0E1           MOV      R1,R0
   \   00000A04   000094E5           LDR      R0,[R4, #+0]
   \   00000A08   580090E5           LDR      R0,[R0, #+88]
   \   00000A0C   ........           BL       ??SetTime
   \                     ??cbSysWin_15:
   \   00000A10   0020A0E3           MOV      R2,#+0
   \   00000A14   0110A0E3           MOV      R1,#+1
   \   00000A18   0D00A0E1           MOV      R0,SP
   \   00000A1C   ........           _BLF     ??_Tidy,??_Tidy??rA
   \   00000A20   BBFFFFEA           B        ??cbSysWin_5
    487          			}
    488          			if ( ValueId == GUI_ID_EDIT11 ) {
   \                     ??cbSysWin_14:
   \   00000A24   010080E3           ORR      R0,R0,#0x1
   \   00000A28   000055E1           CMP      R5,R0
   \   00000A2C   B8FFFF1A           BNE      ??cbSysWin_5
    489          				strcpy( StringBuf,(char *)pMsg->Data.p);
   \   00000A30   081097E5           LDR      R1,[R7, #+8]
   \   00000A34   1C008DE2           ADD      R0,SP,#+28
   \   00000A38   ........           _BLF     strcpy,??strcpy??rA
    490          				SystemWindow->SysWin1->SetDate(StringBuf);
   \   00000A3C   1C108DE2           ADD      R1,SP,#+28
   \   00000A40   0D00A0E1           MOV      R0,SP
   \   00000A44   ........           _BLF     ??AnsiString_1,??AnsiString??rA_1
   \   00000A48   0010A0E1           MOV      R1,R0
   \   00000A4C   000094E5           LDR      R0,[R4, #+0]
   \   00000A50   580090E5           LDR      R0,[R0, #+88]
   \   00000A54   ........           BL       ??SetDate
   \   00000A58   ECFFFFEA           B        ??cbSysWin_15
    491          			}
    492          			//if(ValueId == GUI_ID_EDIT12){
    493          			//	strcpy( StringBuf,(char *)pMsg->Data.p);
    494          			//	SystemWindow->SysWin1->SetGMT(StringBuf);
    495          			//}
    496          		}
    497          		break;
    498          	case WM_KEY:
    499          		//switch (((WM_KEY_INFO*)(pMsg->Data.p))->Key)
    500          		//{
    501          		//	case GUI_KEY_ESCAPE:
    502          		//			GUI_EndDialog(hWin, 1);
    503          		//		break;
    504          		//	case GUI_KEY_ENTER:
    505          		//			GUI_EndDialog(hWin, 0);
    506          		//		break;
    507          		//}
    508          		// break;
    509          	case WM_TOUCH_CHILD:
    510          		{
    511          			Id    = WM_GetId(pMsg->hWinSrc);		// Id of widget
    512          			NCode = pMsg->Data.v;								// Notification code
    513          			switch ( Id ) {
   \                     ??cbSysWin_16:
   \   00000A5C   CC449FE5           LDR      R4,??cbSysWin_10+0x10  ;; KeyBoard
   \   00000A60   ........           _BLF     WM_GetId,??WM_GetId??rA
   \   00000A64   0050A0E1           MOV      R5,R0
   \   00000A68   8E1E8AE2           ADD      R1,R10,#+2272
   \   00000A6C   010050E1           CMP      R0,R1
   \   00000A70   0300000A           BEQ      ??cbSysWin_17
   \   00000A74   011081E3           ORR      R1,R1,#0x1
   \   00000A78   010050E1           CMP      R0,R1
   \   00000A7C   0800000A           BEQ      ??cbSysWin_18
   \   00000A80   A3FFFFEA           B        ??cbSysWin_5
    514          			case GUI_ID_EDIT10:
    515          				KeyBoard->ExecKeyBoardNum(WM_GetClientWindow(hWin), L_WORD175,Id);	// Set time \'hh.mm.ss\'
   \                     ??cbSysWin_17:
   \   00000A84   0600A0E1           MOV      R0,R6
   \   00000A88   ........           _BLF     WM_GetClientWindow,??WM_GetClientWindow??rA
   \   00000A8C   0530A0E1           MOV      R3,R5
   \   00000A90   AF20A0E3           MOV      R2,#+175
   \                     ??cbSysWin_19:
   \   00000A94   0010A0E1           MOV      R1,R0
   \   00000A98   000094E5           LDR      R0,[R4, #+0]
   \   00000A9C   ........           _BLF     ??ExecKeyBoardNum,??ExecKeyBoardNum??rA
   \   00000AA0   9BFFFFEA           B        ??cbSysWin_5
    516          				break;
    517          			case GUI_ID_EDIT11:
    518          				KeyBoard->ExecKeyBoardNum(WM_GetClientWindow(hWin), L_WORD174,Id);	// Set date \'dd.mm.yy\'
   \                     ??cbSysWin_18:
   \   00000AA4   0600A0E1           MOV      R0,R6
   \   00000AA8   ........           _BLF     WM_GetClientWindow,??WM_GetClientWindow??rA
   \   00000AAC   0530A0E1           MOV      R3,R5
   \   00000AB0   AE20A0E3           MOV      R2,#+174
   \   00000AB4   F6FFFFEA           B        ??cbSysWin_19
    519          				break;
    520          			}
    521          		}
    522          		break;
    523          	case WM_NOTIFY_CHILD_HAS_FOCUS:
    524          		//Id    = WM_GetId(pMsg->hWinSrc);		// Id of widget
    525          		//NCode = pMsg->Data.v;								// Notification code
    526          		break;
    527          	case WM_NOTIFY_PARENT:
    528          		{
    529          			Id    = WM_GetId(pMsg->hWinSrc);		// Id of widget
   \                     ??cbSysWin_20:
   \   00000AB8   ........           _BLF     WM_GetId,??WM_GetId??rA
   \   00000ABC   0050A0E1           MOV      R5,R0
    530          			NCode = pMsg->Data.v;								// Notification code
    531          			switch ( NCode ) {
   \   00000AC0   080097E5           LDR      R0,[R7, #+8]
   \   00000AC4   020050E2           SUBS     R0,R0,#+2
   \   00000AC8   0200000A           BEQ      ??cbSysWin_21
   \   00000ACC   060050E2           SUBS     R0,R0,#+6
   \   00000AD0   EB00000A           BEQ      ??cbSysWin_22
   \   00000AD4   8EFFFFEA           B        ??cbSysWin_5
    532          			case WM_NOTIFICATION_RELEASED:		// React only if released
    533          				switch ( Id ) {
   \                     ??cbSysWin_21:
   \   00000AD8   001094E5           LDR      R1,[R4, #+0]
   \   00000ADC   055045E2           SUB      R5,R5,#+5
   \   00000AE0   580091E5           LDR      R0,[R1, #+88]
   \   00000AE4   102049E2           SUB      R2,R9,#+16
   \   00000AE8   020055E1           CMP      R5,R2
   \   00000AEC   88FFFF8A           BHI      ??cbSysWin_5
   \   00000AF0   022F8FE2           ADR      R2,??cbSysWin_2
   \   00000AF4   8550A0E1           MOV      R5,R5, LSL #+1
   \   00000AF8   F52092E1           LDRSH    R2,[R2, R5]
   \   00000AFC   02F18FE0           ADD      PC,PC,R2, LSL #+2
   \                     ??cbSysWin_2:
   \   00000B00   CC0084FF84FF       DC16     +204,+65412,+65412,+65412
   \              84FF        
   \   00000B08   84FF84FF84FF       DC16     +65412,+65412,+65412,+65412
   \              84FF        
   \   00000B10   84FF84FF84FF       DC16     +65412,+65412,+65412,+65412
   \              84FF        
   \   00000B18   84FF84FF84FF       DC16     +65412,+65412,+65412,+65412
   \              84FF        
   \   00000B20   84FF84FF84FF       DC16     +65412,+65412,+65412,+65412
   \              84FF        
   \   00000B28   84FF84FF84FF       DC16     +65412,+65412,+65412,+65412
   \              84FF        
   \   00000B30   84FF84FF84FF       DC16     +65412,+65412,+65412,+65412
   \              84FF        
   \   00000B38   84FF84FF84FF       DC16     +65412,+65412,+65412,+65412
   \              84FF        
   \   00000B40   84FF84FF84FF       DC16     +65412,+65412,+65412,+65412
   \              84FF        
   \   00000B48   84FF84FF84FF       DC16     +65412,+65412,+65412,+65412
   \              84FF        
   \   00000B50   84FF84FF84FF       DC16     +65412,+65412,+65412,+65412
   \              84FF        
   \   00000B58   84FF84FF84FF       DC16     +65412,+65412,+65412,+65412
   \              84FF        
   \   00000B60   84FF84FF84FF       DC16     +65412,+65412,+65412,+65412
   \              84FF        
   \   00000B68   84FF84FF84FF       DC16     +65412,+65412,+65412,+65412
   \              84FF        
   \   00000B70   84FF84FF84FF       DC16     +65412,+65412,+65412,+65412
   \              84FF        
   \   00000B78   84FF84FF84FF       DC16     +65412,+65412,+65412,+65412
   \              84FF        
   \   00000B80   84FF84FF84FF       DC16     +65412,+65412,+65412,+65412
   \              84FF        
   \   00000B88   84FF84FF84FF       DC16     +65412,+65412,+65412,+65412
   \              84FF        
   \   00000B90   84FF84FF84FF       DC16     +65412,+65412,+65412,+65412
   \              84FF        
   \   00000B98   84FF84FF84FF       DC16     +65412,+65412,+65412,+65412
   \              84FF        
   \   00000BA0   84FF84FF84FF       DC16     +65412,+65412,+65412,+65412
   \              84FF        
   \   00000BA8   84FF84FF84FF       DC16     +65412,+65412,+65412,+65412
   \              84FF        
   \   00000BB0   84FF84FF84FF       DC16     +65412,+65412,+65412,+65412
   \              84FF        
   \   00000BB8   84FF84FF84FF       DC16     +65412,+65412,+65412,+65412
   \              84FF        
   \   00000BC0   84FF84FF84FF       DC16     +65412,+65412,+65412,+65412
   \              84FF        
   \   00000BC8   84FF84FF84FF       DC16     +65412,+65412,+65412,+65412
   \              84FF        
   \   00000BD0   84FF84FF84FF       DC16     +65412,+65412,+65412,+65412
   \              84FF        
   \   00000BD8   84FF84FF84FF       DC16     +65412,+65412,+65412,+65412
   \              84FF        
   \   00000BE0   84FF84FF84FF       DC16     +65412,+65412,+65412,+65412
   \              84FF        
   \   00000BE8   84FF84FF84FF       DC16     +65412,+65412,+65412,+65412
   \              84FF        
   \   00000BF0   84FF84FF84FF       DC16     +65412,+65412,+65412,+65412
   \              84FF        
   \   00000BF8   84FF84FF84FF       DC16     +65412,+65412,+65412,+65412
   \              84FF        
   \   00000C00   84FF84FF84FF       DC16     +65412,+65412,+65412,+65412
   \              84FF        
   \   00000C08   84FF84FF84FF       DC16     +65412,+65412,+65412,+65412
   \              84FF        
   \   00000C10   84FF84FF84FF       DC16     +65412,+65412,+65412,+65412
   \              84FF        
   \   00000C18   84FF84FF84FF       DC16     +65412,+65412,+65412,+65412
   \              84FF        
   \   00000C20   84FF84FF84FF       DC16     +65412,+65412,+65412,+65412
   \              84FF        
   \   00000C28   84FF84FF84FF       DC16     +65412,+65412,+65412,+65412
   \              84FF        
   \   00000C30   84FF84FF84FF       DC16     +65412,+65412,+65412,+65412
   \              84FF        
   \   00000C38   84FF84FF84FF       DC16     +65412,+65412,+65412,+65412
   \              84FF        
   \   00000C40   84FF84FF84FF       DC16     +65412,+65412,+65412,+65412
   \              84FF        
   \   00000C48   84FF84FF84FF       DC16     +65412,+65412,+65412,+65412
   \              84FF        
   \   00000C50   84FF84FF84FF       DC16     +65412,+65412,+65412,+65412
   \              84FF        
   \   00000C58   84FF84FF84FF       DC16     +65412,+65412,+65412,+65412
   \              84FF        
   \   00000C60   84FF84FF84FF       DC16     +65412,+65412,+65412,+65412
   \              84FF        
   \   00000C68   84FF84FF84FF       DC16     +65412,+65412,+65412,+65412
   \              84FF        
   \   00000C70   84FF84FF84FF       DC16     +65412,+65412,+65412,+65412
   \              84FF        
   \   00000C78   84FF84FF84FF       DC16     +65412,+65412,+65412,+65412
   \              84FF        
   \   00000C80   84FF84FF84FF       DC16     +65412,+65412,+65412,+65412
   \              84FF        
   \   00000C88   84FF84FF84FF       DC16     +65412,+65412,+65412,+65412
   \              84FF        
   \   00000C90   84FF84FF84FF       DC16     +65412,+65412,+65412,+65412
   \              84FF        
   \   00000C98   84FF84FF84FF       DC16     +65412,+65412,+65412,+65412
   \              84FF        
   \   00000CA0   84FF84FF84FF       DC16     +65412,+65412,+65412,+65412
   \              84FF        
   \   00000CA8   84FF84FF84FF       DC16     +65412,+65412,+65412,+65412
   \              84FF        
   \   00000CB0   84FF84FF84FF       DC16     +65412,+65412,+65412,+65412
   \              84FF        
   \   00000CB8   84FF84FF84FF       DC16     +65412,+65412,+65412,+65412
   \              84FF        
   \   00000CC0   84FF84FF84FF       DC16     +65412,+65412,+65412,+65412
   \              84FF        
   \   00000CC8   84FF84FF84FF       DC16     +65412,+65412,+65412,+65412
   \              84FF        
   \   00000CD0   84FF84FF84FF       DC16     +65412,+65412,+65412,+65412
   \              84FF        
   \   00000CD8   84FF84FF84FF       DC16     +65412,+65412,+65412,+65412
   \              84FF        
   \   00000CE0   84FF84FF84FF       DC16     +65412,+65412,+65412,+65412
   \              84FF        
   \   00000CE8   84FF84FF84FF       DC16     +65412,+65412,+65412,+65412
   \              84FF        
   \   00000CF0   84FF84FF84FF       DC16     +65412,+65412,+65412,+65412
   \              84FF        
   \   00000CF8   84FF84FF84FF       DC16     +65412,+65412,+65412,+65412
   \              84FF        
   \   00000D00   84FF84FF84FF       DC16     +65412,+65412,+65412,+65412
   \              84FF        
   \   00000D08   84FF84FF84FF       DC16     +65412,+65412,+65412,+65412
   \              84FF        
   \   00000D10   84FF84FF84FF       DC16     +65412,+65412,+65412,+65412
   \              84FF        
   \   00000D18   84FF84FF84FF       DC16     +65412,+65412,+65412,+65412
   \              84FF        
   \   00000D20   84FF84FF84FF       DC16     +65412,+65412,+65412,+65412
   \              84FF        
   \   00000D28   84FF84FF84FF       DC16     +65412,+65412,+65412,+65412
   \              84FF        
   \   00000D30   84FF84FF84FF       DC16     +65412,+65412,+65412,+218
   \              DA00        
   \   00000D38   84FF84FF84FF       DC16     +65412,+65412,+65412,+65412
   \              84FF        
   \   00000D40   84FF84FF84FF       DC16     +65412,+65412,+65412,+65412
   \              84FF        
   \   00000D48   84FF84FF84FF       DC16     +65412,+65412,+65412,+65412
   \              84FF        
   \   00000D50   84FF84FF84FF       DC16     +65412,+65412,+65412,+65412
   \              84FF        
   \   00000D58   84FF84FF84FF       DC16     +65412,+65412,+65412,+65412
   \              84FF        
   \   00000D60   84FF84FF84FF       DC16     +65412,+65412,+65412,+65412
   \              84FF        
   \   00000D68   84FF84FF84FF       DC16     +65412,+65412,+65412,+65412
   \              84FF        
   \   00000D70   84FF84FF84FF       DC16     +65412,+65412,+65412,+65412
   \              84FF        
   \   00000D78   84FF84FF84FF       DC16     +65412,+65412,+65412,+65412
   \              84FF        
   \   00000D80   84FF84FF84FF       DC16     +65412,+65412,+65412,+65412
   \              84FF        
   \   00000D88   84FF84FF84FF       DC16     +65412,+65412,+65412,+65412
   \              84FF        
   \   00000D90   84FF84FF84FF       DC16     +65412,+65412,+65412,+184
   \              B800        
   \   00000D98   84FF84FF84FF       DC16     +65412,+65412,+65412,+65412
   \              84FF        
   \   00000DA0   84FF84FF84FF       DC16     +65412,+65412,+65412,+65412
   \              84FF        
   \   00000DA8   84FF84FF84FF       DC16     +65412,+65412,+65412,+65412
   \              84FF        
   \   00000DB0   84FF84FF84FF       DC16     +65412,+65412,+65412,+65412
   \              84FF        
   \   00000DB8   84FF84FF84FF       DC16     +65412,+65412,+65412,+65412
   \              84FF        
   \   00000DC0   84FF84FF84FF       DC16     +65412,+65412,+65412,+65412
   \              84FF        
   \   00000DC8   84FF84FF84FF       DC16     +65412,+65412,+65412,+65412
   \              84FF        
   \   00000DD0   84FF84FF84FF       DC16     +65412,+65412,+65412,+187
   \              BB00        
   \   00000DD8   BF00C30084FF       DC16     +191,+195,+65412,+65412
   \              84FF        
   \   00000DE0   C700CA00           DC16     +199,+202
    534          				case GUI_ID_RADIO0:
    535          					SystemWindow->SysWin1->UpdateUnitSystem(hWin);
   \                     ??cbSysWin_23:
   \   00000DE4   0610A0E1           MOV      R1,R6
   \   00000DE8   ........           BL       ??UpdateUnitSystem
   \   00000DEC   C8FEFFEA           B        ??cbSysWin_5
    536          					break;
    537          				case GUI_ID_BUTTON0: // User manual Button
    538          					SystemWindow->SysWin1->UserManualWin->ExecDialogBox(hWin);
   \                     ??cbSysWin_24:
   \   00000DF0   780090E5           LDR      R0,[R0, #+120]
   \   00000DF4   0610A0E1           MOV      R1,R6
   \   00000DF8   ........           _BLF     ??ExecDialogBox_1,??ExecDialogBox??rA
   \   00000DFC   C4FEFFEA           B        ??cbSysWin_5
    539          					break;
    540          				case GUI_ID_BUTTON1: // Setup Button
    541          					SystemWindow->SysWin1->SysSetupWin->ExecDialogBox(hWin);
   \                     ??cbSysWin_25:
   \   00000E00   7C0090E5           LDR      R0,[R0, #+124]
   \   00000E04   0610A0E1           MOV      R1,R6
   \   00000E08   ........           _BLF     ??ExecDialogBox_2,??ExecDialogBox??rA_1
   \   00000E0C   C0FEFFEA           B        ??cbSysWin_5
    542          					break;
    543          				case GUI_ID_BUTTON2: // Config Button
    544          					SystemWindow->SysWin1->PrintSetupWin->ExecDialogBox(hWin);
   \                     ??cbSysWin_26:
   \   00000E10   800090E5           LDR      R0,[R0, #+128]
   \   00000E14   0610A0E1           MOV      R1,R6
   \   00000E18   ........           _BLF     ??ExecDialogBox_3,??ExecDialogBox??rA_2
   \   00000E1C   BCFEFFEA           B        ??cbSysWin_5
    545          					break;
    546          				case GUI_ID_BUTTON5: // GMT + Button
    547          					SetGMT(+1);
   \                     ??cbSysWin_27:
   \   00000E20   0100A0E3           MOV      R0,#+1
   \                     ??cbSysWin_28:
   \   00000E24   ........           _BLF     ??SetGMT,??SetGMT??rA
   \   00000E28   B9FEFFEA           B        ??cbSysWin_5
    548          					break;
    549          				case GUI_ID_BUTTON6: // GMT - Button
    550          					SetGMT(-1);
   \                     ??cbSysWin_29:
   \   00000E2C   0000E0E3           MVN      R0,#+0
   \   00000E30   FBFFFFEA           B        ??cbSysWin_28
    551          					break;
    552          				case GUI_ID_CLOSE:	 // Close Button
    553          					SystemWindow->Protect();
   \                     ??cbSysWin_30:
   \   00000E34   0100A0E1           MOV      R0,R1
   \   00000E38   ........           _BLF     ??Protect,??Protect??rA
    554          					if ( !SystemWindow->SysWin1IsClosed ) {
   \   00000E3C   000094E5           LDR      R0,[R4, #+0]
   \   00000E40   7010D0E5           LDRB     R1,[R0, #+112]
   \   00000E44   000051E3           CMP      R1,#+0
   \   00000E48   0400001A           BNE      ??cbSysWin_31
    555          						SystemWindow->SysWin1->CloseSysWin();
   \   00000E4C   580090E5           LDR      R0,[R0, #+88]
   \   00000E50   ........           BL       ??CloseSysWin
    556          						GUI_EndDialog(hWin, 0);
   \   00000E54   0010A0E3           MOV      R1,#+0
   \   00000E58   0600A0E1           MOV      R0,R6
   \   00000E5C   ........           _BLF     GUI_EndDialog,??GUI_EndDialog??rA
    557          					}
    558          					SystemWindow->UnProtect();
   \                     ??cbSysWin_31:
   \   00000E60   000094E5           LDR      R0,[R4, #+0]
   \   00000E64   ........           _BLF     ??UnProtect,??UnProtect??rA
   \   00000E68   A9FEFFEA           B        ??cbSysWin_5
    559          					break;
    560          				case GUI_ID_CHECK0:
    561          					if ( CHECKBOX_IsChecked(SystemWindow->SysWin1->hDSTCheckbox) ) {
   \                     ??cbSysWin_32:
   \   00000E6C   F404D0E1           LDRSH    R0,[R0, #+68]
   \   00000E70   ........           _BLF     CHECKBOX_IsChecked,??CHECKBOX_IsChecked??rA
   \   00000E74   000050E3           CMP      R0,#+0
    562          						PROSystemData::SetDST(1);
   \   00000E78   0100A013           MOVNE    R0,#+1
   \   00000E7C   ........           _BLF     ??SetDST,??SetDST??rA
   \   00000E80   A3FEFFEA           B        ??cbSysWin_5
    563          					} else {
    564          						PROSystemData::SetDST(0);
    565          					}
    566          					break;
    567          				}
    568          				break;
    569          			case WM_NOTIFICATION_GOT_FOCUS:
    570          				switch ( Id ) {
   \                     ??cbSysWin_22:
   \   00000E84   090055E1           CMP      R5,R9
   \   00000E88   0200000A           BEQ      ??cbSysWin_33
   \   00000E8C   0A0055E1           CMP      R5,R10
   \   00000E90   0900000A           BEQ      ??cbSysWin_34
   \   00000E94   9EFEFFEA           B        ??cbSysWin_5
    571          				case GUI_ID_DROPDOWN1: /* Language  */
    572          					SystemWindow->SysWin1->GetSelected(GUI_ID_DROPDOWN1,SVT_CURRENT_LANGUAGE,PROSystemData::TXUSystemData);
   \                     ??cbSysWin_33:
   \   00000E98   000094E5           LDR      R0,[R4, #+0]
   \   00000E9C   003098E5           LDR      R3,[R8, #+0]
   \   00000EA0   580090E5           LDR      R0,[R0, #+88]
   \   00000EA4   8D20A0E3           MOV      R2,#+141
   \   00000EA8   502E82E3           ORR      R2,R2,#0x500
   \   00000EAC   0910A0E1           MOV      R1,R9
   \   00000EB0   ........           _BLF     ??GetSelected,??GetSelected??rA
    573          					RepaintAll();
   \   00000EB4   ........           _BLF     ??RepaintAll,??RepaintAll??rA
    574          					NewLanguage();
   \   00000EB8   ........           _BLF     ??NewLanguage,??NewLanguage??rA
    575          				case GUI_ID_DROPDOWN2: /* OpMode  */
    576          					SystemWindow->SysWin1->GetSelected(GUI_ID_DROPDOWN2,SVT_TANK_STATE_STR_CGO,PROSystemData::TXUSystemData);
   \                     ??cbSysWin_34:
   \   00000EBC   000094E5           LDR      R0,[R4, #+0]
   \   00000EC0   003098E5           LDR      R3,[R8, #+0]
   \   00000EC4   580090E5           LDR      R0,[R0, #+88]
   \   00000EC8   C820A0E3           MOV      R2,#+200
   \   00000ECC   502E82E3           ORR      R2,R2,#0x500
   \   00000ED0   0A10A0E1           MOV      R1,R10
   \   00000ED4   ........           _BLF     ??GetSelected,??GetSelected??rA
    577          					SystemWindow->SysWin1->GetSelected(GUI_ID_DROPDOWN2,SVT_TANK_STATE_STR_BAL,PROSystemData::TXUSystemData);
   \   00000ED8   000094E5           LDR      R0,[R4, #+0]
   \   00000EDC   003098E5           LDR      R3,[R8, #+0]
   \   00000EE0   580090E5           LDR      R0,[R0, #+88]
   \   00000EE4   C920A0E3           MOV      R2,#+201
   \   00000EE8   502E82E3           ORR      R2,R2,#0x500
   \   00000EEC   0A10A0E1           MOV      R1,R10
   \   00000EF0   ........           _BLF     ??GetSelected,??GetSelected??rA
    578          					SystemWindow->SysWin1->GetSelected(GUI_ID_DROPDOWN2,SVT_TANK_STATE_STR_PRE,PROSystemData::TXUSystemData);
   \   00000EF4   000094E5           LDR      R0,[R4, #+0]
   \   00000EF8   003098E5           LDR      R3,[R8, #+0]
   \   00000EFC   580090E5           LDR      R0,[R0, #+88]
   \   00000F00   CC20A0E3           MOV      R2,#+204
   \   00000F04   502E82E3           ORR      R2,R2,#0x500
   \   00000F08   0A10A0E1           MOV      R1,R10
   \   00000F0C   ........           _BLF     ??GetSelected,??GetSelected??rA
   \   00000F10   7FFEFFEA           B        ??cbSysWin_5
    579          					break;
    580          				}
    581          				break;
    582          			default:
    583          				break;
    584          			}
    585          		}
    586          		break;
    587          	default:
    588          		WM_DefaultProc(pMsg);
   \                     ??cbSysWin_3:
   \   00000F14   0700A0E1           MOV      R0,R7
   \   00000F18   ........           _BLF     WM_DefaultProc,??WM_DefaultProc??rA
    589          		break;
    590          	}
    591          }
   \                     ??cbSysWin_35:
   \   00000F1C   7CFEFFEA           B        ??cbSysWin_5
   \                     ??cbSysWin_10:
   \   00000F20   ........           DC32     PinUnlock
   \   00000F24   ........           DC32     CurrentWinID
   \   00000F28   ........           DC32     PreviousWinID
   \   00000F2C   ........           DC32     MainWindow
   \   00000F30   ........           DC32     KeyBoard

   \                                 In segment DIFUNCT, align 4, keep-with-next, root
   \   00000000                      REQUIRE ?call_ctors
   \   00000000   ........           DC32    ??__sti__routine

   \                                 In segment DATA_C, align 4, align-sorted
   \                     `?<Constant "System page 1">`:
   \   00000000   53797374656D       DC8 "System page 1"
   \              207061676520
   \              3100        
   \   0000000E   0000               DC8 0, 0

   \                                 In segment DATA_C, align 4, align-sorted
   \                     `?<Constant "Setup">`:
   \   00000000   536574757000       DC8 "Setup"
   \   00000006   0000               DC8 0, 0

   \                                 In segment DATA_C, align 4, align-sorted
   \                     `?<Constant "Printer">`:
   \   00000000   5072696E7465       DC8 "Printer"
   \              7200        

   \                                 In segment DATA_C, align 4, align-sorted
   \                     `?<Constant "Program version:">`:
   \   00000000   50726F677261       DC8 "Program version:"
   \              6D2076657273
   \              696F6E3A00  
   \   00000011   000000             DC8 0, 0, 0

   \                                 In segment DATA_C, align 4, align-sorted
   \                     `?<Constant "Data version:">`:
   \   00000000   446174612076       DC8 "Data version:"
   \              657273696F6E
   \              3A00        
   \   0000000E   0000               DC8 0, 0

   \                                 In segment DATA_C, align 4, align-sorted
   \                     `?<Constant "System ID:">`:
   \   00000000   53797374656D       DC8 "System ID:"
   \              2049443A00  
   \   0000000B   00                 DC8 0

   \                                 In segment DATA_C, align 1, align-sorted
   \                     `?<Constant "">`:
   \   00000000   00                 DC8 ""

   \                                 In segment DATA_C, align 4, align-sorted
   \                     `?<Constant "Unit System:">`:
   \   00000000   556E69742053       DC8 "Unit System:"
   \              797374656D3A
   \              00          
   \   0000000D   000000             DC8 0, 0, 0

   \                                 In segment DATA_C, align 4, align-sorted
   \                     `?<Constant "Language">`:
   \   00000000   4C616E677561       DC8 "Language"
   \              676500      
   \   00000009   000000             DC8 0, 0, 0

   \                                 In segment DATA_C, align 4, align-sorted
   \                     `?<Constant " GMT ">`:
   \   00000000   20474D542000       DC8 " GMT "
   \   00000006   0000               DC8 0, 0

   \                                 In segment DATA_C, align 1, align-sorted
   \                     `?<Constant "+">`:
   \   00000000   2B00               DC8 "+"

   \                                 In segment DATA_C, align 1, align-sorted
   \                     `?<Constant "-">`:
   \   00000000   2D00               DC8 "-"

   \                                 In segment DATA_C, align 4, align-sorted
   \                     `?<Constant "Operation Mode">`:
   \   00000000   4F7065726174       DC8 "Operation Mode"
   \              696F6E204D6F
   \              646500      
   \   0000000F   00                 DC8 0

   \                                 In segment DATA_C, align 4, align-sorted
   \                     `?<Constant "******">`:
   \   00000000   2A2A2A2A2A2A       DC8 "******"
   \              00          
   \   00000007   00                 DC8 0

   \                                 In segment DATA_C, align 4, align-sorted
   \                     `?<Constant "%+i.5">`:
   \   00000000   252B692E3500       DC8 "%+i.5"
   \   00000006   0000               DC8 0, 0

   \                                 In segment DATA_C, align 4, align-sorted
   \   00000000   252B6900           DC8 "%+i"

   \                                 In segment DATA_C, align 4, align-sorted
   \                     `?<Constant ". ,/-:">`:
   \   00000000   2E202C2F2D3A       DC8 ". ,/-:"
   \              00          
   \   00000007   00                 DC8 0

   \                                 In segment DATA_C, align 4, align-sorted
   \   00000000   00                 DC8 ""
   \   00000001   000000000000       DC8 0, 0, 0, 0, 0, 0, 0, 0, 0, 0, 0, 0, 0, 0, 0, 0
   \              000000000000
   \              00000000    
   \   00000011   000000000000       DC8 0, 0, 0, 0, 0, 0, 0, 0, 0, 0, 0, 0, 0, 0, 0, 0
   \              000000000000
   \              00000000    
   \   00000021   000000000000       DC8 0, 0, 0, 0, 0, 0, 0, 0, 0, 0, 0, 0, 0, 0, 0, 0
   \              000000000000
   \              00000000    
   \   00000031   000000000000       DC8 0, 0, 0, 0, 0, 0, 0, 0, 0, 0, 0, 0, 0, 0, 0, 0
   \              000000000000
   \              00000000    
   \   00000041   000000000000       DC8 0, 0, 0, 0, 0, 0, 0, 0, 0, 0, 0, 0, 0, 0, 0
   \              000000000000
   \              000000      

   \                                 In segment DATA_C, align 4, align-sorted
   \   00000000   00                 DC8 ""
   \   00000001   000000000000       DC8 0, 0, 0, 0, 0, 0, 0, 0, 0, 0, 0, 0, 0, 0, 0, 0
   \              000000000000
   \              00000000    
   \   00000011   000000000000       DC8 0, 0, 0, 0, 0, 0, 0, 0, 0, 0, 0, 0, 0, 0, 0, 0
   \              000000000000
   \              00000000    
   \   00000021   000000000000       DC8 0, 0, 0, 0, 0, 0, 0, 0, 0, 0, 0, 0, 0, 0, 0, 0
   \              000000000000
   \              00000000    
   \   00000031   000000000000       DC8 0, 0, 0, 0, 0, 0, 0, 0, 0, 0, 0, 0, 0, 0, 0, 0
   \              000000000000
   \              00000000    
   \   00000041   000000000000       DC8 0, 0, 0, 0, 0, 0, 0, 0, 0, 0, 0, 0, 0, 0, 0
   \              000000000000
   \              000000      

   \                                 In segment CODE, align 4, keep-with-next
   \   __??Code32?? __code __interwork __atpcs TDUSysWin1 &TDUSysWin1::new TDUSysWin1()
   \                     `??new TDUSysWin1`:
   \   00000000   00402DE9           PUSH     {LR}
   \   00000004   8800A0E3           MOV      R0,#+136
   \   00000008   ........           _BLF     `??operator new`,`??operator new??rA`
   \   0000000C   000050E3           CMP      R0,#+0
   \   00000010   0000000A           BEQ      `??new TDUSysWin1_1`
   \   00000014   ........           BL       ??TDUSysWin1
   \                     `??new TDUSysWin1_1`:
   \   00000018   0040BDE8           POP      {LR}
   \   0000001C   1EFF2FE1           BX       LR               ;; return

   \                                 In segment CODE, align 4, keep-with-next
   \   __??Code32?? __code __interwork __atpcs void TDUSysWin1::delete ~TDUSysWin1(TDUSysWin1 *)
   \                     `??delete ~TDUSysWin1`:
   \   00000000   10402DE9           PUSH     {R4,LR}
   \   00000004   0040B0E1           MOVS     R4,R0
   \   00000008   0200000A           BEQ      `??delete ~TDUSysWin1_1`
   \   0000000C   ........           BL       `?~TDUSysWin1`
   \   00000010   0400A0E1           MOV      R0,R4
   \   00000014   ........           _BLF     `??operator delete`,`??operator delete??rA`
   \                     `??delete ~TDUSysWin1_1`:
   \   00000018   1040BDE8           POP      {R4,LR}
   \   0000001C   1EFF2FE1           BX       LR               ;; return

   \                                 In segment CODE, align 4, keep-with-next
   \   static __??Code32?? __intrinsic __code __interwork __atpcs void __sti__routine()
   \                     ??__sti__routine:
   \   00000000   1C109FE5           LDR      R1,??__sti__routine_1  ;; GUI_Font16_1
   \   00000004   ........           LDR      R0,??DataTable2  ;; TDU_FONT_PW
   \   00000008   30002DE9           PUSH     {R4,R5}
   \   0000000C   3C10B1E8           LDM      R1!,{R2-R5,R12}
   \   00000010   3C10A0E8           STM      R0!,{R2-R5,R12}
   \   00000014   1C1091E8           LDM      R1,{R2-R4,R12}
   \   00000018   1C1080E8           STM      R0,{R2-R4,R12}
   \   0000001C   3000BDE8           POP      {R4,R5}
   \   00000020   1EFF2FE1           BX       LR               ;; return
   \                     ??__sti__routine_1:
   \   00000024   ........           DC32     GUI_Font16_1

   \                                 In segment CODE, align 4, keep-with-next
   \                     ??DataTable1:
   \   00000000   ........           DC32     SystemWindow

   \                                 In segment CODE, align 4, keep-with-next
   \                     ??DataTable2:
   \   00000000   ........           DC32     TDU_FONT_PW

   \                                 In segment CODE, align 4, keep-with-next
   \                     ??DataTable3:
   \   00000000   ........           DC32     ??CurrentLanguage

   \                                 In segment CODE, align 4, keep-with-next
   \                     ??DataTable11:
   \   00000000   ........           DC32     `?<Constant ". ,/-:">`

   \                                 In segment CODE, align 4, keep-with-next
   \                     ??DataTable12:
   \   00000000   ........           DC32     OKMessageBox

   \                                 In segment CODE, align 4, keep-with-next
   \                     ??DataTable13:
   \   00000000   ........           DC32     ??npos

   \                                 In segment CODE, align 4, keep-with-next
   \                     ??DataTable14:
   \   00000000   ........           DC32     ??CurrentUnitSystem

   \                                 In segment CODE, align 4, keep-with-next
   \                     ??DataTable15:
   \   00000000   ........           DC32     ??TXUSystemData

   \                                 In segment CODE, align 4, keep-with-next
   \                     ??DataTable16:
   \   00000000   ........           DC32     SystemWindow

   \                                 In segment CODE, align 4, keep-with-next
   \                     ??DataTable17:
   \   00000000   ........           DC32     ??TXUSystemData

   \                                 In segment CODE, align 4, keep-with-next
   \                     ??DataTable18:
   \   00000000   ........           DC32     ??CurrentLanguage

   Maximum stack usage in bytes:

     Function                       CSTACK
     --------                       ------
     TDUSysWin1::CloseSysWin()         12
     TDUSysWin1::ExecDialogBox(GUI_HWIN)
                                       24
     TDUSysWin1::GetDialogHandles()     8
     TDUSysWin1::InitConfigLoginWin(GUI_HWIN)
                                        4
     TDUSysWin1::InitSysWin()          48
     TDUSysWin1::SetDate(AnsiString)
                                      204
     TDUSysWin1::SetTime(AnsiString)
                                      204
     TDUSysWin1::TDUSysWin1()          12
     TDUSysWin1::UpdateSysWin()       236
     TDUSysWin1::UpdateUnitSystem(GUI_HWIN)
                                        8
     TDUSysWin1::cbSysWin(WM_MESSAGE *)
                                      140
     TDUSysWin1::delete ~TDUSysWin1(TDUSysWin1 *)
                                        8
     TDUSysWin1::new TDUSysWin1()       4
     TDUSysWin1::~TDUSysWin1()          8
     __sti__routine()                   8


   Segment part sizes:

     Function/Label                 Bytes
     --------------                 -----
     TDU_FONT_PW                      36
     TDUSysWin1::~TDUSysWin1()       104
     TDUSysWin1::TDUSysWin1()         96
     TDUSysWin1::aDialogCreate       552
     ?<Constant {tSeaGoing, tUndefined}>
                                     172
     TDUSysWin1::ExecDialogBox(GUI_HWIN)
                                     168
     TDUSysWin1::GetDialogHandles()  376
     TDUSysWin1::InitSysWin()        556
     TDUSysWin1::InitConfigLoginWin(GUI_HWIN)
                                      48
     TDUSysWin1::CloseSysWin()       200
     TDUSysWin1::UpdateSysWin()      552
     TDUSysWin1::SetTime(AnsiString)
                                     884
     TDUSysWin1::SetDate(AnsiString)
                                     896
     TDUSysWin1::UpdateUnitSystem(GUI_HWIN)
                                     136
     TDUSysWin1::cbSysWin(WM_MESSAGE *)
                                    3892
     ?<Constant "System page 1">      16
     ?<Constant "Setup">               8
     ?<Constant "Printer">             8
     ?<Constant "Program version:">   20
     ?<Constant "Data version:">      16
     ?<Constant "System ID:">         12
     ?<Constant "">                    1
     ?<Constant "Unit System:">       16
     ?<Constant "Language">           12
     ?<Constant " GMT ">               8
     ?<Constant "+">                   2
     ?<Constant "-">                   2
     ?<Constant "Operation Mode">     16
     ?<Constant "******">              8
     ?<Constant "%+i.5">               8
     ?<Constant "%+i">                 4
     ?<Constant ". ,/-:">              8
     ?<Constant "">_1                 80
     ?<Constant "">_2                 80
     TDUSysWin1::new TDUSysWin1()     32
     TDUSysWin1::delete ~TDUSysWin1(TDUSysWin1 *)
                                      32
     __sti__routine()                 40
     ??DataTable1                      4
     ??DataTable2                      4
     ??DataTable3                      4
     ??DataTable11                     4
     ??DataTable12                     4
     ??DataTable13                     4
     ??DataTable14                     4
     ??DataTable15                     4
     ??DataTable16                     4
     ??DataTable17                     4
     ??DataTable18                     4
      Others                        1036

 
 9 076 bytes in segment CODE
 1 049 bytes in segment DATA_C
    36 bytes in segment DATA_Z
     4 bytes in segment DIFUNCT
    12 bytes in segment INITTAB
 
 8 060 bytes of CODE  memory (+ 1 032 bytes shared)
 1 049 bytes of CONST memory
    36 bytes of DATA  memory

Errors: none
Warnings: none
