##############################################################################
#                                                                            #
# IAR ARM ANSI C/C++ Compiler V4.42A/W32               14/Sep/2022  15:18:50 #
# Copyright 1999-2005 IAR Systems. All rights reserved.                      #
#                                                                            #
#    Cpu mode        =  interwork                                            #
#    Endian          =  little                                               #
#    Stack alignment =  4                                                    #
#    Source file     =  D:\S2Prog\TXU\src\TDUSysWin3.cpp                     #
#    Command line    =  D:\S2Prog\TXU\src\TDUSysWin3.cpp --fpu None -D       #
#                       OS_LIBMODE_SP -D CPU_S3C2410 -D OS_RAMVECT=0 -D      #
#                       OS_UART=-1 -D S2TXU -D USE_LZO=1 -D __ARM_LIBRARY__  #
#                       -D WATCHDOG=1 -D NETWORK=1 -lCN                      #
#                       D:\S2Prog\TXU\Debug\List\ -o                         #
#                       D:\S2Prog\TXU\Debug\Obj\ -s9 --debug --cpu_mode arm  #
#                       --endian little --cpu ARM920T --stack_align 4        #
#                       --interwork -e --enable_multibytes --eec++           #
#                       --dlib_config "C:\Program Files (x86)\IAR            #
#                       Systems\Embedded Workbench                           #
#                       4.0\arm\LIB\dl4tpainl8n.h" -I                        #
#                       D:\S2Prog\TXU\GUI\CORE\ -I D:\S2Prog\TXU\GUI\WM\ -I  #
#                       D:\S2Prog\TXU\GUI\WIDGET\ -I D:\S2Prog\TXU\CONFIG\   #
#                       -I D:\S2Prog\TXU\INC\ -I D:\S2Prog\TXU\..\SHARED\INC #
#                       \ -I D:\S2Prog\TXU\..\SHARED\SRC\ -I                 #
#                       D:\S2Prog\TXU\..\SHARED\LZO\minilzo.210\ -I          #
#                       D:\S2Prog\TXU\lwip-1.4.1\src\include\ -I             #
#                       D:\S2Prog\TXU\lwip-1.4.1\src\include\ipv4\ -I        #
#                       D:\S2Prog\TXU\lwip-1.4.1\src\ -I                     #
#                       D:\S2Prog\TXU\..\SHARED\Database\ -I                 #
#                       D:\S2Prog\TXU\src\ -I "C:\Program Files (x86)\IAR    #
#                       Systems\Embedded Workbench 4.0\arm\INC\"             #
#                       --inline_threshold=2                                 #
#    List file       =  D:\S2Prog\TXU\Debug\List\TDUSysWin3.lst              #
#    Object file     =  D:\S2Prog\TXU\Debug\Obj\TDUSysWin3.r79               #
#                                                                            #
#                                                                            #
##############################################################################

D:\S2Prog\TXU\src\TDUSysWin3.cpp
      1          #include "TDUIncludes.h"

   \                                 In segment CODE, align 4, keep-with-next
   \   __??Code32?? __code __interwork __atpcs _Tree<_Tset_traits<PRogramObject *, less<PRogramObject *>, allocator<PRogramObject *>, false>>::iterator _Tree<_Tset_traits<PRogramObject *, less<PRogramObject *>, allocator<PRogramObject *>, false>>::iterator::operator++(int)
   \                     `??operator++`:
   \   00000000   001090E5           LDR      R1,[R0, #+0]
   \   00000004   0120A0E1           MOV      R2,R1
   \   00000008   0D30D2E5           LDRB     R3,[R2, #+13]
   \   0000000C   000053E3           CMP      R3,#+0
   \   00000010   1600001A           BNE      `??operator++_1`
   \   00000014   083092E5           LDR      R3,[R2, #+8]
   \   00000018   0DC0D3E5           LDRB     R12,[R3, #+13]
   \   0000001C   00005CE3           CMP      R12,#+0
   \   00000020   0B00001A           BNE      `??operator++_2`
   \   00000024   0320A0E1           MOV      R2,R3
   \   00000028   003092E5           LDR      R3,[R2, #+0]
   \   0000002C   0D30D3E5           LDRB     R3,[R3, #+13]
   \   00000030   000053E3           CMP      R3,#+0
   \   00000034   0D00001A           BNE      `??operator++_1`
   \                     `??operator++_3`:
   \   00000038   002092E5           LDR      R2,[R2, #+0]
   \   0000003C   003092E5           LDR      R3,[R2, #+0]
   \   00000040   0D30D3E5           LDRB     R3,[R3, #+13]
   \   00000044   000053E3           CMP      R3,#+0
   \   00000048   FAFFFF0A           BEQ      `??operator++_3`
   \   0000004C   070000EA           B        `??operator++_1`
   \                     `??operator++_4`:
   \   00000050   0320A0E1           MOV      R2,R3
   \                     `??operator++_2`:
   \   00000054   043092E5           LDR      R3,[R2, #+4]
   \   00000058   0DC0D3E5           LDRB     R12,[R3, #+13]
   \   0000005C   00005CE3           CMP      R12,#+0
   \   00000060   08C09305           LDREQ    R12,[R3, #+8]
   \   00000064   0C005201           CMPEQ    R2,R12
   \   00000068   F8FFFF0A           BEQ      `??operator++_4`
   \   0000006C   0320A0E1           MOV      R2,R3
   \                     `??operator++_1`:
   \   00000070   002080E5           STR      R2,[R0, #+0]
   \   00000074   0100A0E1           MOV      R0,R1
   \   00000078   1EFF2FE1           BX       LR               ;; return

   \                                 In segment CODE, align 4, keep-with-next
   \   __??Code32?? __code __interwork __atpcs void operator+(string const &, string const &)
   \                     `??operator+`:
   \   00000000   F0402DE9           PUSH     {R4-R7,LR}
   \   00000004   1CD04DE2           SUB      SP,SP,#+28
   \   00000008   0040A0E1           MOV      R4,R0
   \   0000000C   0150A0E1           MOV      R5,R1
   \   00000010   0260A0E1           MOV      R6,R2
   \   00000014   0020A0E3           MOV      R2,#+0
   \   00000018   0010A0E3           MOV      R1,#+0
   \   0000001C   0D00A0E1           MOV      R0,SP
   \   00000020   ........           _BLF     ??_Tidy,??_Tidy??rA
   \   00000024   6C009FE5           LDR      R0,`??operator+_2`  ;; ??npos
   \   00000028   0020A0E3           MOV      R2,#+0
   \   0000002C   007090E5           LDR      R7,[R0, #+0]
   \   00000030   0510A0E1           MOV      R1,R5
   \   00000034   0730A0E1           MOV      R3,R7
   \   00000038   0D00A0E1           MOV      R0,SP
   \   0000003C   ........           _BLF     ??assign,??assign??rA
   \   00000040   0730A0E1           MOV      R3,R7
   \   00000044   0020A0E3           MOV      R2,#+0
   \   00000048   0610A0E1           MOV      R1,R6
   \   0000004C   0D00A0E1           MOV      R0,SP
   \   00000050   ........           _BLF     ??append,??append??rA
   \   00000054   0050A0E1           MOV      R5,R0
   \   00000058   0020A0E3           MOV      R2,#+0
   \   0000005C   0210A0E1           MOV      R1,R2
   \   00000060   0400A0E1           MOV      R0,R4
   \   00000064   ........           _BLF     ??_Tidy,??_Tidy??rA
   \   00000068   0730A0E1           MOV      R3,R7
   \   0000006C   0020A0E3           MOV      R2,#+0
   \   00000070   0510A0E1           MOV      R1,R5
   \   00000074   0400A0E1           MOV      R0,R4
   \   00000078   ........           _BLF     ??assign,??assign??rA
   \   0000007C   0020A0E3           MOV      R2,#+0
   \   00000080   0110A0E3           MOV      R1,#+1
   \   00000084   0D00A0E1           MOV      R0,SP
   \   00000088   ........           _BLF     ??_Tidy,??_Tidy??rA
   \   0000008C   1CD08DE2           ADD      SP,SP,#+28
   \   00000090   F040BDE8           POP      {R4-R7,LR}
   \   00000094   1EFF2FE1           BX       LR               ;; return
   \                     `??operator+_2`:
   \   00000098   ........           DC32     ??npos

   \                                 In segment CODE, align 4, keep-with-next
   \   __??Code32?? __code __interwork __atpcs void operator+(string const &, char const *)
   \                     `??operator+_1`:
   \   00000000   F0402DE9           PUSH     {R4-R7,LR}
   \   00000004   1CD04DE2           SUB      SP,SP,#+28
   \   00000008   0040A0E1           MOV      R4,R0
   \   0000000C   0150A0E1           MOV      R5,R1
   \   00000010   0260A0E1           MOV      R6,R2
   \   00000014   0020A0E3           MOV      R2,#+0
   \   00000018   0010A0E3           MOV      R1,#+0
   \   0000001C   0D00A0E1           MOV      R0,SP
   \   00000020   ........           _BLF     ??_Tidy,??_Tidy??rA
   \   00000024   70009FE5           LDR      R0,`??operator+_3`  ;; ??npos
   \   00000028   0020A0E3           MOV      R2,#+0
   \   0000002C   007090E5           LDR      R7,[R0, #+0]
   \   00000030   0510A0E1           MOV      R1,R5
   \   00000034   0730A0E1           MOV      R3,R7
   \   00000038   0D00A0E1           MOV      R0,SP
   \   0000003C   ........           _BLF     ??assign,??assign??rA
   \   00000040   0600A0E1           MOV      R0,R6
   \   00000044   ........           _BLF     strlen,??strlen??rA
   \   00000048   0020A0E1           MOV      R2,R0
   \   0000004C   0610A0E1           MOV      R1,R6
   \   00000050   0D00A0E1           MOV      R0,SP
   \   00000054   ........           _BLF     ??append_1,??append??rA_1
   \   00000058   0050A0E1           MOV      R5,R0
   \   0000005C   0020A0E3           MOV      R2,#+0
   \   00000060   0210A0E1           MOV      R1,R2
   \   00000064   0400A0E1           MOV      R0,R4
   \   00000068   ........           _BLF     ??_Tidy,??_Tidy??rA
   \   0000006C   0730A0E1           MOV      R3,R7
   \   00000070   0020A0E3           MOV      R2,#+0
   \   00000074   0510A0E1           MOV      R1,R5
   \   00000078   0400A0E1           MOV      R0,R4
   \   0000007C   ........           _BLF     ??assign,??assign??rA
   \   00000080   0020A0E3           MOV      R2,#+0
   \   00000084   0110A0E3           MOV      R1,#+1
   \   00000088   0D00A0E1           MOV      R0,SP
   \   0000008C   ........           _BLF     ??_Tidy,??_Tidy??rA
   \   00000090   1CD08DE2           ADD      SP,SP,#+28
   \   00000094   F040BDE8           POP      {R4-R7,LR}
   \   00000098   1EFF2FE1           BX       LR               ;; return
   \                     `??operator+_3`:
   \   0000009C   ........           DC32     ??npos

   \                                 In segment CODE, align 4, keep-with-next
   \   __??Code32?? __code __interwork __atpcs PRogramObjectBase ** _Vector_impl<PRogramObjectBase *, allocator<PRogramObjectBase *>>::_Make_room(PRogramObjectBase **, unsigned int)
   \                     ??_Make_room:
   \   00000000   F0472DE9           PUSH     {R4-R10,LR}
   \   00000004   0040A0E1           MOV      R4,R0
   \   00000008   000094E5           LDR      R0,[R4, #+0]
   \   0000000C   0150A0E1           MOV      R5,R1
   \   00000010   081094E5           LDR      R1,[R4, #+8]
   \   00000014   0260A0E1           MOV      R6,R2
   \   00000018   001041E0           SUB      R1,R1,R0
   \   0000001C   2171A0E1           LSR      R7,R1,#+2
   \   00000020   041094E5           LDR      R1,[R4, #+4]
   \   00000024   000056E3           CMP      R6,#+0
   \   00000028   000041E0           SUB      R0,R1,R0
   \   0000002C   2001A0E1           LSR      R0,R0,#+2
   \   00000030   2C00000A           BEQ      ??_Make_room_1
   \   00000034   C024E0E3           MVN      R2,#-1073741824
   \   00000038   002042E0           SUB      R2,R2,R0
   \   0000003C   060052E1           CMP      R2,R6
   \   00000040   2800003A           BCC      ??_Make_room_1
   \   00000044   008086E0           ADD      R8,R6,R0
   \   00000048   080057E1           CMP      R7,R8
   \   0000004C   1F00002A           BCS      ??_Make_room_2
   \   00000050   A700A0E1           LSR      R0,R7,#+1
   \   00000054   C014E0E3           MVN      R1,#-1073741824
   \   00000058   001041E0           SUB      R1,R1,R0
   \   0000005C   070051E1           CMP      R1,R7
   \   00000060   0070A033           MOVCC    R7,#+0
   \   00000064   07708020           ADDCS    R7,R0,R7
   \   00000068   080057E1           CMP      R7,R8
   \   0000006C   0870A031           MOVCC    R7,R8
   \   00000070   0701A0E1           LSL      R0,R7,#+2
   \   00000074   ........           _BLF     `??operator new`,`??operator new??rA`
   \   00000078   0090A0E1           MOV      R9,R0
   \   0000007C   000094E5           LDR      R0,[R4, #+0]
   \   00000080   0920A0E1           MOV      R2,R9
   \   00000084   0510A0E1           MOV      R1,R5
   \   00000088   ........           _BLF     _Copy_a4,??_Copy_a4??rA
   \   0000008C   041094E5           LDR      R1,[R4, #+4]
   \   00000090   00A0A0E1           MOV      R10,R0
   \   00000094   06218AE0           ADD      R2,R10,R6, LSL #+2
   \   00000098   0500A0E1           MOV      R0,R5
   \   0000009C   ........           _BLF     _Copy_a4,??_Copy_a4??rA
   \   000000A0   000094E5           LDR      R0,[R4, #+0]
   \   000000A4   000050E3           CMP      R0,#+0
   \   000000A8   0100000A           BEQ      ??_Make_room_3
   \   000000AC   040084E5           STR      R0,[R4, #+4]
   \   000000B0   ........           _BLF     `??operator delete`,`??operator delete??rA`
   \                     ??_Make_room_3:
   \   000000B4   070189E0           ADD      R0,R9,R7, LSL #+2
   \   000000B8   080084E5           STR      R0,[R4, #+8]
   \   000000BC   080189E0           ADD      R0,R9,R8, LSL #+2
   \   000000C0   040084E5           STR      R0,[R4, #+4]
   \   000000C4   009084E5           STR      R9,[R4, #+0]
   \   000000C8   0A50A0E1           MOV      R5,R10
   \   000000CC   050000EA           B        ??_Make_room_1
   \                     ??_Make_room_2:
   \   000000D0   062181E0           ADD      R2,R1,R6, LSL #+2
   \   000000D4   0500A0E1           MOV      R0,R5
   \   000000D8   ........           _BLF     _Copy_backward_a4,??_Copy_backward_a4??rA
   \   000000DC   040094E5           LDR      R0,[R4, #+4]
   \   000000E0   060180E0           ADD      R0,R0,R6, LSL #+2
   \   000000E4   040084E5           STR      R0,[R4, #+4]
   \                     ??_Make_room_1:
   \   000000E8   0500A0E1           MOV      R0,R5
   \   000000EC   F047BDE8           POP      {R4-R10,LR}
   \   000000F0   1EFF2FE1           BX       LR               ;; return

   \                                 In segment CODE, align 4, keep-with-next
   \   __??Code32?? __code __interwork __atpcs void vector<PRogramObjectBase *>::push_back(PRogramObjectBase *)
   \                     ??push_back:
   \   00000000   10402DE9           PUSH     {R4,LR}
   \   00000004   082090E5           LDR      R2,[R0, #+8]
   \   00000008   0140A0E1           MOV      R4,R1
   \   0000000C   041090E5           LDR      R1,[R0, #+4]
   \   00000010   020051E1           CMP      R1,R2
   \   00000014   0120A0E3           MOV      R2,#+1
   \   00000018   0600002A           BCS      ??push_back_1
   \   0000001C   0130A0E1           MOV      R3,R1
   \                     ??push_back_2:
   \   00000020   ........           STR      R4,[R3], #+4
   \   00000024   012052E2           SUBS     R2,R2,#+1
   \   00000028   FCFFFF1A           BNE      ??push_back_2
   \   0000002C   041081E2           ADD      R1,R1,#+4
   \   00000030   041080E5           STR      R1,[R0, #+4]
   \   00000034   040000EA           B        ??push_back_3
   \                     ??push_back_1:
   \   00000038   ........           _BLF     ??_Make_room,??_Make_room??rA
   \   0000003C   0110A0E3           MOV      R1,#+1
   \                     ??push_back_4:
   \   00000040   ........           STR      R4,[R0], #+4
   \   00000044   011051E2           SUBS     R1,R1,#+1
   \   00000048   FCFFFF1A           BNE      ??push_back_4
   \                     ??push_back_3:
   \   0000004C   1040BDE8           POP      {R4,LR}
   \   00000050   1EFF2FE1           BX       LR               ;; return

   \                                 In segment DATA_Z, align 4, align-sorted
   \   static GUI_FONT const __data TDU_FONT_ST
   \                     TDU_FONT_ST:
   \   00000000                      DS8 36
      2          
      3          #define SELECT_TIMEOUT  5000

   \                                 In segment CODE, align 4, keep-with-next
      4          TDUSysWin3::TDUSysWin3(void)
   \                     ??TDUSysWin3:
   \   00000000   10402DE9           PUSH     {R4,LR}
   \   00000004   0040A0E1           MOV      R4,R0
      5          {
   \   00000008   ........           _BLF     ??TDUBasicWin,??TDUBasicWin??rA
   \   0000000C   3C0084E2           ADD      R0,R4,#+60
   \   00000010   0010A0E3           MOV      R1,#+0
   \   00000014   001080E5           STR      R1,[R0, #+0]
   \   00000018   041080E5           STR      R1,[R0, #+4]
   \   0000001C   081080E5           STR      R1,[R0, #+8]
      6             CurrentIOUnit   = NULL;
   \   00000020   381084E5           STR      R1,[R4, #+56]
      7             UserTouch       = false;
   \   00000024   0000A0E3           MOV      R0,#+0
   \   00000028   4800C4E5           STRB     R0,[R4, #+72]
      8             TimerCount      = 0;
   \   0000002C   4C1084E5           STR      R1,[R4, #+76]
      9          }
   \   00000030   0400A0E1           MOV      R0,R4
   \   00000034   1040BDE8           POP      {R4,LR}
   \   00000038   1EFF2FE1           BX       LR               ;; return
     10          

   \                                 In segment CODE, align 4, keep-with-next
     11          TDUSysWin3::~TDUSysWin3(void)
     12          {
   \                     `?~TDUSysWin3`:
   \   00000000   30402DE9           PUSH     {R4,R5,LR}
   \   00000004   0040A0E1           MOV      R4,R0
     13          }
   \   00000008   3C5084E2           ADD      R5,R4,#+60
   \   0000000C   000095E5           LDR      R0,[R5, #+0]
   \   00000010   000050E3           CMP      R0,#+0
   \   00000014   0200000A           BEQ      `?~TDUSysWin3_1`
   \   00000018   040085E5           STR      R0,[R5, #+4]
   \   0000001C   ........           _BLF     `??operator delete`,`??operator delete??rA`
   \   00000020   0000A0E3           MOV      R0,#+0
   \                     `?~TDUSysWin3_1`:
   \   00000024   000085E5           STR      R0,[R5, #+0]
   \   00000028   040085E5           STR      R0,[R5, #+4]
   \   0000002C   080085E5           STR      R0,[R5, #+8]
   \   00000030   0400A0E1           MOV      R0,R4
   \   00000034   ........           _BLF     `?~TDUBasicWin`,`?~TDUBasicWin??rA`
   \   00000038   3040BDE8           POP      {R4,R5,LR}
   \   0000003C   1EFF2FE1           BX       LR               ;; return
     14          

   \                                 In segment DATA_C, align 4, align-sorted
     15          const GUI_WIDGET_CREATE_INFO TDUSysWin3::aDialogCreate[] =
   \                     ??aDialogCreate:
   \   00000000   ............       DC32 FRAMEWIN_CreateIndirect, `?<Constant "System page 3: IO units">`
   \              ....        
   \   00000008   8F0800000000       DC16 2191, 0, 0, 286, 198, 128
   \              1E01C6008000
   \   00000014   00000000....       DC32 0, TEXT_CreateIndirect, `?<Constant "Select:">`
   \              ............
   \   00000020   600102000200       DC16 352, 2, 2, 46, 15, 0
   \              2E000F000000
   \   0000002C   00000000           DC8 0, 0, 0, 0
   \   00000030   ........0000       DC32 DROPDOWN_CreateIndirect, 0H
   \              0000        
   \   00000038   800132000000       DC16 384, 50, 0, 220, 100, 0
   \              DC0064000000
   \   00000044   03000000....       DC32 3, LISTVIEW_CreateIndirect, 0H
   \              ....00000000
   \   00000050   000200001200       DC16 512, 0, 18, 281, 163, 0
   \              1901A3000000
   \   0000005C   00000000           DC8 0, 0, 0, 0
     16          {
     17             { FRAMEWIN_CreateIndirect, "System page 3: IO units", TDU_SYSTEM3_WIN, 0, 0, 286, 198, FRAMEWIN_CF_MAXIMIZED, 0 },
     18             { TEXT_CreateIndirect,     "Select:", GUI_ID_TEXT0,  2,   2,  46,  15, TEXT_CF_LEFT },
     19             { DROPDOWN_CreateIndirect, NULL,    GUI_ID_DROPDOWN0, 50,   0, 220, 100, 0, 3 },
     20             { LISTVIEW_CreateIndirect, NULL,    GUI_ID_LISTVIEW0,  0,  18, 281, 163, 0 },
     21          };
     22          
     23          

   \                                 In segment CODE, align 4, keep-with-next
     24          void TDUSysWin3::SetListViewColor(void)
     25          {
   \                     ??SetListViewColor:
   \   00000000   70402DE9           PUSH     {R4-R6,LR}
     26             LISTVIEW_SetBkColor(hListviewIO, 0, BackColor);
   \   00000004   6C509FE5           LDR      R5,??SetListViewColor_1  ;; BackColor
     27             LISTVIEW_SetBkColor(hListviewIO, 1, TextColor);
   \   00000008   6C609FE5           LDR      R6,??SetListViewColor_1+0x4  ;; TextColor
   \   0000000C   002095E5           LDR      R2,[R5, #+0]
   \   00000010   0040A0E1           MOV      R4,R0
   \   00000014   F603D4E1           LDRSH    R0,[R4, #+54]
   \   00000018   0010A0E3           MOV      R1,#+0
   \   0000001C   ........           _BLF     LISTVIEW_SetBkColor,??LISTVIEW_SetBkColor??rA
   \   00000020   F603D4E1           LDRSH    R0,[R4, #+54]
   \   00000024   002096E5           LDR      R2,[R6, #+0]
   \   00000028   0110A0E3           MOV      R1,#+1
   \   0000002C   ........           _BLF     LISTVIEW_SetBkColor,??LISTVIEW_SetBkColor??rA
     28             LISTVIEW_SetBkColor(hListviewIO, 2, TextColor);
   \   00000030   F603D4E1           LDRSH    R0,[R4, #+54]
   \   00000034   002096E5           LDR      R2,[R6, #+0]
   \   00000038   0210A0E3           MOV      R1,#+2
   \   0000003C   ........           _BLF     LISTVIEW_SetBkColor,??LISTVIEW_SetBkColor??rA
     29             LISTVIEW_SetTextColor(hListviewIO, 0, TextColor);
   \   00000040   F603D4E1           LDRSH    R0,[R4, #+54]
   \   00000044   002096E5           LDR      R2,[R6, #+0]
   \   00000048   0010A0E3           MOV      R1,#+0
   \   0000004C   ........           _BLF     LISTVIEW_SetTextColor,??LISTVIEW_SetTextColor??rA
     30             LISTVIEW_SetTextColor(hListviewIO, 1, BackColor);
   \   00000050   F603D4E1           LDRSH    R0,[R4, #+54]
   \   00000054   002095E5           LDR      R2,[R5, #+0]
   \   00000058   0110A0E3           MOV      R1,#+1
   \   0000005C   ........           _BLF     LISTVIEW_SetTextColor,??LISTVIEW_SetTextColor??rA
     31             LISTVIEW_SetTextColor(hListviewIO, 2, BackColor);
   \   00000060   F603D4E1           LDRSH    R0,[R4, #+54]
   \   00000064   002095E5           LDR      R2,[R5, #+0]
   \   00000068   0210A0E3           MOV      R1,#+2
   \   0000006C   ........           _BLF     LISTVIEW_SetTextColor,??LISTVIEW_SetTextColor??rA
     32          }
   \   00000070   7040BDE8           POP      {R4-R6,LR}
   \   00000074   1EFF2FE1           BX       LR               ;; return
   \                     ??SetListViewColor_1:
   \   00000078   ........           DC32     BackColor
   \   0000007C   ........           DC32     TextColor
     33          

   \                                 In segment CODE, align 4, keep-with-next
     34          void TDUSysWin3::ExecDialogBox(WM_HWIN hCurrentWin)
     35          {
   \                     ??ExecDialogBox:
   \   00000000   70402DE9           PUSH     {R4-R6,LR}
     36             SystemWindow->Protect();
   \   00000004   ........           LDR      R5,??DataTable1  ;; SystemWindow
   \   00000008   0040A0E1           MOV      R4,R0
   \   0000000C   000095E5           LDR      R0,[R5, #+0]
   \   00000010   0160A0E1           MOV      R6,R1
   \   00000014   ........           _BLF     ??Protect,??Protect??rA
     37             if (SystemWindow->SysWin3IsClosed)
   \   00000018   000095E5           LDR      R0,[R5, #+0]
   \   0000001C   7210D0E5           LDRB     R1,[R0, #+114]
   \   00000020   000051E3           CMP      R1,#+0
   \   00000024   1300000A           BEQ      ??ExecDialogBox_1
     38             {
     39                SystemWindow->SysWin3IsClosed = false;
     40                WinHandl = GUI_CreateDialogBox(aDialogCreate, GUI_COUNTOF(aDialogCreate), &cbSysWin,
     41                                               hCurrentWin, 0, 0);
   \   00000028   74209FE5           LDR      R2,??ExecDialogBox_2  ;; ??cbSysWin
   \   0000002C   0010A0E3           MOV      R1,#+0
   \   00000030   7210C0E5           STRB     R1,[R0, #+114]
   \   00000034   0000A0E3           MOV      R0,#+0
   \   00000038   01002DE9           PUSH     {R0}
   \   0000003C   01002DE9           PUSH     {R0}
   \   00000040   60009FE5           LDR      R0,??ExecDialogBox_2+0x4  ;; ??aDialogCreate
   \   00000044   0630A0E1           MOV      R3,R6
   \   00000048   0410A0E3           MOV      R1,#+4
   \   0000004C   ........           _BLF     GUI_CreateDialogBox,??GUI_CreateDialogBox??rA
   \   00000050   BA02C4E1           STRH     R0,[R4, #+42]
     42                SystemWindow->CurrentSysWin = TDU_SYSWIN3;
   \   00000054   000095E5           LDR      R0,[R5, #+0]
   \   00000058   0310A0E3           MOV      R1,#+3
   \   0000005C   6C1080E5           STR      R1,[R0, #+108]
     43                WM_EnableMemdev(WinHandl);
   \   00000060   FA02D4E1           LDRSH    R0,[R4, #+42]
   \   00000064   ........           _BLF     WM_EnableMemdev,??WM_EnableMemdev??rA
     44                GetDialogHandles();
   \   00000068   0400A0E1           MOV      R0,R4
   \   0000006C   ........           BL       ??GetDialogHandles
   \   00000070   08D08DE2           ADD      SP,SP,#+8
   \   00000074   010000EA           B        ??ExecDialogBox_3
     45             }
     46             else
     47             {
     48                WM_BringToTop(WinHandl);
   \                     ??ExecDialogBox_1:
   \   00000078   FA02D4E1           LDRSH    R0,[R4, #+42]
   \   0000007C   ........           _BLF     WM_BringToTop,??WM_BringToTop??rA
     49             }
     50             ButWindow->EnableButton(2, false);
   \                     ??ExecDialogBox_3:
   \   00000080   ........           LDR      R0,??DataTable2  ;; ButWindow
   \   00000084   0020A0E3           MOV      R2,#+0
   \   00000088   000090E5           LDR      R0,[R0, #+0]
   \   0000008C   0210A0E3           MOV      R1,#+2
   \   00000090   ........           _BLF     ??EnableButton,??EnableButton??rA
     51             SystemWindow->UnProtect();
   \   00000094   000095E5           LDR      R0,[R5, #+0]
   \   00000098   ........           _BLF     ??UnProtect,??UnProtect??rA
     52          }
   \   0000009C   7040BDE8           POP      {R4-R6,LR}
   \   000000A0   1EFF2FE1           BX       LR               ;; return
   \                     ??ExecDialogBox_2:
   \   000000A4   ........           DC32     ??cbSysWin
   \   000000A8   ........           DC32     ??aDialogCreate
     53          
     54          /*********************************************************************
     55          *
     56          * Dialog procedure
     57          */

   \                                 In segment CODE, align 4, keep-with-next
     58          void TDUSysWin3::GetDialogHandles(void)
     59          {
   \                     ??GetDialogHandles:
   \   00000000   10402DE9           PUSH     {R4,LR}
   \   00000004   0040A0E1           MOV      R4,R0
     60             hDropdPRO     = WM_GetDialogItem(WinHandl, GUI_ID_DROPDOWN0);
   \   00000008   FA02D4E1           LDRSH    R0,[R4, #+42]
   \   0000000C   601FA0E3           MOV      R1,#+384
   \   00000010   ........           _BLF     WM_GetDialogItem,??WM_GetDialogItem??rA
   \   00000014   B403C4E1           STRH     R0,[R4, #+52]
     61             DROPDOWN_SetAutoScroll(hDropdPRO, 1);
   \   00000018   0110A0E3           MOV      R1,#+1
   \   0000001C   ........           _BLF     DROPDOWN_SetAutoScroll,??DROPDOWN_SetAutoScroll??rA
     62             hListviewIO   = WM_GetDialogItem(WinHandl, GUI_ID_LISTVIEW0);
   \   00000020   FA02D4E1           LDRSH    R0,[R4, #+42]
   \   00000024   801FA0E3           MOV      R1,#+512
   \   00000028   ........           _BLF     WM_GetDialogItem,??WM_GetDialogItem??rA
     63             LISTVIEW_SetFont(hListviewIO, &TDU_FONT_ST);
   \   0000002C   ........           LDR      R1,??DataTable3  ;; TDU_FONT_ST
   \   00000030   B603C4E1           STRH     R0,[R4, #+54]
   \   00000034   ........           _BLF     LISTVIEW_SetFont,??LISTVIEW_SetFont??rA
     64             InitSysWin();
   \   00000038   0400A0E1           MOV      R0,R4
   \   0000003C   ........           BL       ??InitSysWin
     65          }
   \   00000040   1040BDE8           POP      {R4,LR}
   \   00000044   1EFF2FE1           BX       LR               ;; return
     66          

   \                                 In segment CODE, align 4, keep-with-next
     67          void TDUSysWin3::SetListviewRow(int Row, int Ch, AnsiString NameStr, AnsiString LocStr, AnsiString TypeStr, AnsiString RawValStr, AnsiString ValStr, AnsiString GainStr, AnsiString OffsetStr, AnsiString EnableStr, AnsiString UnitStr)
     68          {
   \                     ??SetListviewRow:
   \   00000000   FC4F2DE9           PUSH     {R2-R11,LR}
   \   00000004   1CD04DE2           SUB      SP,SP,#+28
   \   00000008   48609DE5           LDR      R6,[SP, #+72]
   \   0000000C   4C709DE5           LDR      R7,[SP, #+76]
   \   00000010   58809DE5           LDR      R8,[SP, #+88]
   \   00000014   5C909DE5           LDR      R9,[SP, #+92]
   \   00000018   60A09DE5           LDR      R10,[SP, #+96]
   \   0000001C   64B09DE5           LDR      R11,[SP, #+100]
   \   00000020   0040A0E1           MOV      R4,R0
   \   00000024   0150A0E1           MOV      R5,R1
     69             //NumItems = LISTVIEW_GetNumRows(hObj);
     70             if (!(NameStr.IsEmpty() && LocStr.IsEmpty() && TypeStr.IsEmpty()))
   \   00000028   0300A0E1           MOV      R0,R3
   \   0000002C   ........           _BLF     ??IsEmpty,??IsEmpty??rA
   \   00000030   000050E3           CMP      R0,#+0
   \   00000034   0700000A           BEQ      ??SetListviewRow_1
   \   00000038   0600A0E1           MOV      R0,R6
   \   0000003C   ........           _BLF     ??IsEmpty,??IsEmpty??rA
   \   00000040   000050E3           CMP      R0,#+0
   \   00000044   0300000A           BEQ      ??SetListviewRow_1
   \   00000048   0700A0E1           MOV      R0,R7
   \   0000004C   ........           _BLF     ??IsEmpty,??IsEmpty??rA
   \   00000050   000050E3           CMP      R0,#+0
   \   00000054   5D00001A           BNE      ??SetListviewRow_2
     71             {
     72                AnsiString ChStr = (AnsiString)(Ch + 1);
   \                     ??SetListviewRow_1:
   \   00000058   1C009DE5           LDR      R0,[SP, #+28]
   \   0000005C   011080E2           ADD      R1,R0,#+1
   \   00000060   0D00A0E1           MOV      R0,SP
   \   00000064   ........           _BLF     ??AnsiString,??AnsiString??rA
     73                LISTVIEW_SetItemText(hListviewIO, 0, Row, ChStr.c_str());
   \   00000068   18009DE5           LDR      R0,[SP, #+24]
   \   0000006C   0520A0E1           MOV      R2,R5
   \   00000070   100050E3           CMP      R0,#+16
   \   00000074   F603D4E1           LDRSH    R0,[R4, #+54]
   \   00000078   04309D25           LDRCS    R3,[SP, #+4]
   \   0000007C   0010A0E3           MOV      R1,#+0
   \   00000080   04308D32           ADDCC    R3,SP,#+4
   \   00000084   ........           _BLF     LISTVIEW_SetItemText,??LISTVIEW_SetItemText??rA
     74                LISTVIEW_SetItemText(hListviewIO, 1, Row, NameStr.c_str());
   \   00000088   20009DE5           LDR      R0,[SP, #+32]
   \   0000008C   0520A0E1           MOV      R2,R5
   \   00000090   180090E5           LDR      R0,[R0, #+24]
   \   00000094   0110A0E3           MOV      R1,#+1
   \   00000098   100050E3           CMP      R0,#+16
   \   0000009C   20009DE5           LDR      R0,[SP, #+32]
   \   000000A0   04309025           LDRCS    R3,[R0, #+4]
   \   000000A4   04308032           ADDCC    R3,R0,#+4
   \   000000A8   F603D4E1           LDRSH    R0,[R4, #+54]
   \   000000AC   ........           _BLF     LISTVIEW_SetItemText,??LISTVIEW_SetItemText??rA
     75                LISTVIEW_SetItemText(hListviewIO, 2, Row, LocStr.c_str());
   \   000000B0   180096E5           LDR      R0,[R6, #+24]
   \   000000B4   0520A0E1           MOV      R2,R5
   \   000000B8   100050E3           CMP      R0,#+16
   \   000000BC   F603D4E1           LDRSH    R0,[R4, #+54]
   \   000000C0   04309625           LDRCS    R3,[R6, #+4]
   \   000000C4   0210A0E3           MOV      R1,#+2
   \   000000C8   04308632           ADDCC    R3,R6,#+4
   \   000000CC   ........           _BLF     LISTVIEW_SetItemText,??LISTVIEW_SetItemText??rA
     76                LISTVIEW_SetItemText(hListviewIO, 3, Row, TypeStr.c_str());
   \   000000D0   180097E5           LDR      R0,[R7, #+24]
   \   000000D4   0520A0E1           MOV      R2,R5
   \   000000D8   100050E3           CMP      R0,#+16
   \   000000DC   F603D4E1           LDRSH    R0,[R4, #+54]
   \   000000E0   04309725           LDRCS    R3,[R7, #+4]
   \   000000E4   0310A0E3           MOV      R1,#+3
   \   000000E8   04308732           ADDCC    R3,R7,#+4
   \   000000EC   ........           _BLF     LISTVIEW_SetItemText,??LISTVIEW_SetItemText??rA
     77                LISTVIEW_SetItemText(hListviewIO, 4, Row, RawValStr.c_str());
   \   000000F0   50009DE5           LDR      R0,[SP, #+80]
   \   000000F4   0520A0E1           MOV      R2,R5
   \   000000F8   180090E5           LDR      R0,[R0, #+24]
   \   000000FC   0410A0E3           MOV      R1,#+4
   \   00000100   100050E3           CMP      R0,#+16
   \   00000104   50009DE5           LDR      R0,[SP, #+80]
   \   00000108   04309025           LDRCS    R3,[R0, #+4]
   \   0000010C   04308032           ADDCC    R3,R0,#+4
   \   00000110   F603D4E1           LDRSH    R0,[R4, #+54]
   \   00000114   ........           _BLF     LISTVIEW_SetItemText,??LISTVIEW_SetItemText??rA
     78                LISTVIEW_SetItemText(hListviewIO, 5, Row, ValStr.c_str());
   \   00000118   54009DE5           LDR      R0,[SP, #+84]
   \   0000011C   0520A0E1           MOV      R2,R5
   \   00000120   180090E5           LDR      R0,[R0, #+24]
   \   00000124   0510A0E3           MOV      R1,#+5
   \   00000128   100050E3           CMP      R0,#+16
   \   0000012C   54009DE5           LDR      R0,[SP, #+84]
   \   00000130   04309025           LDRCS    R3,[R0, #+4]
   \   00000134   04308032           ADDCC    R3,R0,#+4
   \   00000138   F603D4E1           LDRSH    R0,[R4, #+54]
   \   0000013C   ........           _BLF     LISTVIEW_SetItemText,??LISTVIEW_SetItemText??rA
     79                LISTVIEW_SetItemText(hListviewIO, 6, Row, GainStr.c_str());
   \   00000140   180098E5           LDR      R0,[R8, #+24]
   \   00000144   0520A0E1           MOV      R2,R5
   \   00000148   100050E3           CMP      R0,#+16
   \   0000014C   F603D4E1           LDRSH    R0,[R4, #+54]
   \   00000150   04309825           LDRCS    R3,[R8, #+4]
   \   00000154   0610A0E3           MOV      R1,#+6
   \   00000158   04308832           ADDCC    R3,R8,#+4
   \   0000015C   ........           _BLF     LISTVIEW_SetItemText,??LISTVIEW_SetItemText??rA
     80                LISTVIEW_SetItemText(hListviewIO, 7, Row, OffsetStr.c_str());
   \   00000160   180099E5           LDR      R0,[R9, #+24]
   \   00000164   0520A0E1           MOV      R2,R5
   \   00000168   100050E3           CMP      R0,#+16
   \   0000016C   F603D4E1           LDRSH    R0,[R4, #+54]
   \   00000170   04309925           LDRCS    R3,[R9, #+4]
   \   00000174   0710A0E3           MOV      R1,#+7
   \   00000178   04308932           ADDCC    R3,R9,#+4
   \   0000017C   ........           _BLF     LISTVIEW_SetItemText,??LISTVIEW_SetItemText??rA
     81                LISTVIEW_SetItemText(hListviewIO, 8, Row, UnitStr.c_str());
   \   00000180   18009BE5           LDR      R0,[R11, #+24]
   \   00000184   0520A0E1           MOV      R2,R5
   \   00000188   100050E3           CMP      R0,#+16
   \   0000018C   F603D4E1           LDRSH    R0,[R4, #+54]
   \   00000190   04309B25           LDRCS    R3,[R11, #+4]
   \   00000194   0810A0E3           MOV      R1,#+8
   \   00000198   04308B32           ADDCC    R3,R11,#+4
   \   0000019C   ........           _BLF     LISTVIEW_SetItemText,??LISTVIEW_SetItemText??rA
     82                LISTVIEW_SetItemText(hListviewIO, 9, Row, EnableStr.c_str());
   \   000001A0   18009AE5           LDR      R0,[R10, #+24]
   \   000001A4   0520A0E1           MOV      R2,R5
   \   000001A8   100050E3           CMP      R0,#+16
   \   000001AC   F603D4E1           LDRSH    R0,[R4, #+54]
   \   000001B0   04309A25           LDRCS    R3,[R10, #+4]
   \   000001B4   0910A0E3           MOV      R1,#+9
   \   000001B8   04308A32           ADDCC    R3,R10,#+4
   \   000001BC   ........           _BLF     LISTVIEW_SetItemText,??LISTVIEW_SetItemText??rA
     83             }
   \   000001C0   0020A0E3           MOV      R2,#+0
   \   000001C4   0110A0E3           MOV      R1,#+1
   \   000001C8   0D00A0E1           MOV      R0,SP
   \   000001CC   ........           _BLF     ??_Tidy,??_Tidy??rA
     84          }
   \                     ??SetListviewRow_2:
   \   000001D0   24D08DE2           ADD      SP,SP,#+36
   \   000001D4   F04FBDE8           POP      {R4-R11,LR}
   \   000001D8   1EFF2FE1           BX       LR               ;; return
     85          

   \                                 In segment CODE, align 4, keep-with-next
     86          void TDUSysWin3::SetListviewRow2(int Row, AnsiString CalVal, AnsiString CnvCalErr, AnsiString PromStat, AnsiString PCStat, AnsiString UsePCSetUp, AnsiString ADSns, AnsiString PCSns, AnsiString UseFromPc)
     87          {
   \                     ??SetListviewRow2:
   \   00000000   F84F2DE9           PUSH     {R3-R11,LR}
   \   00000004   28609DE5           LDR      R6,[SP, #+40]
   \   00000008   2C709DE5           LDR      R7,[SP, #+44]
   \   0000000C   30809DE5           LDR      R8,[SP, #+48]
   \   00000010   34909DE5           LDR      R9,[SP, #+52]
   \   00000014   38A09DE5           LDR      R10,[SP, #+56]
   \   00000018   3CB09DE5           LDR      R11,[SP, #+60]
   \   0000001C   0040A0E1           MOV      R4,R0
     88             LISTVIEW_SetItemText(hListviewIO, 10, Row, CalVal.c_str());
   \   00000020   180092E5           LDR      R0,[R2, #+24]
   \   00000024   0150A0E1           MOV      R5,R1
   \   00000028   100050E3           CMP      R0,#+16
   \   0000002C   F603D4E1           LDRSH    R0,[R4, #+54]
   \   00000030   04309225           LDRCS    R3,[R2, #+4]
   \   00000034   0A10A0E3           MOV      R1,#+10
   \   00000038   04308232           ADDCC    R3,R2,#+4
   \   0000003C   0520A0E1           MOV      R2,R5
   \   00000040   ........           _BLF     LISTVIEW_SetItemText,??LISTVIEW_SetItemText??rA
     89             LISTVIEW_SetItemText(hListviewIO, 11, Row, CnvCalErr.c_str());
   \   00000044   00009DE5           LDR      R0,[SP, #+0]
   \   00000048   0520A0E1           MOV      R2,R5
   \   0000004C   180090E5           LDR      R0,[R0, #+24]
   \   00000050   0B10A0E3           MOV      R1,#+11
   \   00000054   100050E3           CMP      R0,#+16
   \   00000058   00009DE5           LDR      R0,[SP, #+0]
   \   0000005C   04309025           LDRCS    R3,[R0, #+4]
   \   00000060   04308032           ADDCC    R3,R0,#+4
   \   00000064   F603D4E1           LDRSH    R0,[R4, #+54]
   \   00000068   ........           _BLF     LISTVIEW_SetItemText,??LISTVIEW_SetItemText??rA
     90             LISTVIEW_SetItemText(hListviewIO, 12, Row, PromStat.c_str());
   \   0000006C   180096E5           LDR      R0,[R6, #+24]
   \   00000070   0520A0E1           MOV      R2,R5
   \   00000074   100050E3           CMP      R0,#+16
   \   00000078   F603D4E1           LDRSH    R0,[R4, #+54]
   \   0000007C   04309625           LDRCS    R3,[R6, #+4]
   \   00000080   0C10A0E3           MOV      R1,#+12
   \   00000084   04308632           ADDCC    R3,R6,#+4
   \   00000088   ........           _BLF     LISTVIEW_SetItemText,??LISTVIEW_SetItemText??rA
     91             LISTVIEW_SetItemText(hListviewIO, 13, Row, PCStat.c_str());
   \   0000008C   180097E5           LDR      R0,[R7, #+24]
   \   00000090   0520A0E1           MOV      R2,R5
   \   00000094   100050E3           CMP      R0,#+16
   \   00000098   F603D4E1           LDRSH    R0,[R4, #+54]
   \   0000009C   04309725           LDRCS    R3,[R7, #+4]
   \   000000A0   0D10A0E3           MOV      R1,#+13
   \   000000A4   04308732           ADDCC    R3,R7,#+4
   \   000000A8   ........           _BLF     LISTVIEW_SetItemText,??LISTVIEW_SetItemText??rA
     92             LISTVIEW_SetItemText(hListviewIO, 14, Row, UsePCSetUp.c_str());
   \   000000AC   180098E5           LDR      R0,[R8, #+24]
   \   000000B0   0520A0E1           MOV      R2,R5
   \   000000B4   100050E3           CMP      R0,#+16
   \   000000B8   F603D4E1           LDRSH    R0,[R4, #+54]
   \   000000BC   04309825           LDRCS    R3,[R8, #+4]
   \   000000C0   0E10A0E3           MOV      R1,#+14
   \   000000C4   04308832           ADDCC    R3,R8,#+4
   \   000000C8   ........           _BLF     LISTVIEW_SetItemText,??LISTVIEW_SetItemText??rA
     93             LISTVIEW_SetItemText(hListviewIO, 15, Row, ADSns.c_str());
   \   000000CC   180099E5           LDR      R0,[R9, #+24]
   \   000000D0   0520A0E1           MOV      R2,R5
   \   000000D4   100050E3           CMP      R0,#+16
   \   000000D8   F603D4E1           LDRSH    R0,[R4, #+54]
   \   000000DC   04309925           LDRCS    R3,[R9, #+4]
   \   000000E0   0F10A0E3           MOV      R1,#+15
   \   000000E4   04308932           ADDCC    R3,R9,#+4
   \   000000E8   ........           _BLF     LISTVIEW_SetItemText,??LISTVIEW_SetItemText??rA
     94             LISTVIEW_SetItemText(hListviewIO, 16, Row, PCSns.c_str());
   \   000000EC   18009AE5           LDR      R0,[R10, #+24]
   \   000000F0   0520A0E1           MOV      R2,R5
   \   000000F4   100050E3           CMP      R0,#+16
   \   000000F8   F603D4E1           LDRSH    R0,[R4, #+54]
   \   000000FC   04309A25           LDRCS    R3,[R10, #+4]
   \   00000100   1010A0E3           MOV      R1,#+16
   \   00000104   04308A32           ADDCC    R3,R10,#+4
   \   00000108   ........           _BLF     LISTVIEW_SetItemText,??LISTVIEW_SetItemText??rA
     95             LISTVIEW_SetItemText(hListviewIO, 17, Row, UseFromPc.c_str());
   \   0000010C   18009BE5           LDR      R0,[R11, #+24]
   \   00000110   0520A0E1           MOV      R2,R5
   \   00000114   100050E3           CMP      R0,#+16
   \   00000118   F603D4E1           LDRSH    R0,[R4, #+54]
   \   0000011C   04309B25           LDRCS    R3,[R11, #+4]
   \   00000120   1110A0E3           MOV      R1,#+17
   \   00000124   04308B32           ADDCC    R3,R11,#+4
   \   00000128   ........           _BLF     LISTVIEW_SetItemText,??LISTVIEW_SetItemText??rA
     96          }
   \   0000012C   F14FBDE8           POP      {R0,R4-R11,LR}
   \   00000130   1EFF2FE1           BX       LR               ;; return
     97          
     98          

   \                                 In segment CODE, align 4, keep-with-next
     99          void TDUSysWin3::InitSysWin(void)
    100          {
   \                     ??InitSysWin:
   \   00000000   F04F2DE9           PUSH     {R4-R11,LR}
   \   00000004   99DF4DE2           SUB      SP,SP,#+612
    101             CurrentIOUnit = NULL;
    102             if (PROProjectInfo::PROProjectInfoPtr)
   \   00000008   ........           LDR      R5,??DataTable10  ;; `?<Constant {{2191, 0, 39}, {352, 0, 40}}>`
   \   0000000C   0040A0E1           MOV      R4,R0
   \   00000010   0000A0E3           MOV      R0,#+0
   \   00000014   380084E5           STR      R0,[R4, #+56]
   \   00000018   B4069FE5           LDR      R0,??InitSysWin_2  ;; ??PROProjectInfoPtr
   \   0000001C   000090E5           LDR      R0,[R0, #+0]
   \   00000020   000050E3           CMP      R0,#+0
   \   00000024   9F01000A           BEQ      ??InitSysWin_3
   \   00000028   020000EA           B        ??InitSysWin_4
    103             {
    104                while (DROPDOWN_GetNumItems(hDropdPRO) > 0)
    105                {
    106                   DROPDOWN_DeleteItem(hDropdPRO, 0);
   \                     ??InitSysWin_5:
   \   0000002C   F403D4E1           LDRSH    R0,[R4, #+52]
   \   00000030   0010A0E3           MOV      R1,#+0
   \   00000034   ........           _BLF     DROPDOWN_DeleteItem,??DROPDOWN_DeleteItem??rA
    107                }
   \                     ??InitSysWin_4:
   \   00000038   F403D4E1           LDRSH    R0,[R4, #+52]
   \   0000003C   ........           _BLF     DROPDOWN_GetNumItems,??DROPDOWN_GetNumItems??rA
   \   00000040   010050E3           CMP      R0,#+1
   \   00000044   F8FFFFAA           BGE      ??InitSysWin_5
   \   00000048   88069FE5           LDR      R0,??InitSysWin_2+0x4  ;; ??GlobalPRO_IOList
    108                int Count = 0;
    109                int TotCount = 0;
    110                set<PRogramObject *>::iterator pBIt;
    111                for (pBIt = IOUnit::GlobalPRO_IOList.begin(); pBIt != IOUnit::GlobalPRO_IOList.end(); pBIt++)
   \   0000004C   88769FE5           LDR      R7,??InitSysWin_2+0x8  ;; MainObjectList
   \   00000050   000090E5           LDR      R0,[R0, #+0]
   \   00000054   84869FE5           LDR      R8,??InitSysWin_2+0xC  ;; SizeofMainObjectList
   \   00000058   04008DE5           STR      R0,[SP, #+4]
   \   0000005C   060000EA           B        ??InitSysWin_6
    112                {
    113                   PRogramObject *IOUnitElement = (*pBIt);
    114                   if (IOUnitElement)
    115                   {
    116                      AnsiString DropdStr;
    117                      switch (IOUnitElement->Type)
    118                      {
    119                      case C_SC_ADCARD:
    120                      case C_SC_W_INGRESS:
    121                         {
    122                            SignalConverter *ePtr = (SignalConverter *)IOUnitElement;
    123                            //int Size = ePtr->PROList->Size();
    124                            //PRONode *NodePtr = ePtr->PROList->getHead();
    125                            set<PRogramObject *>::iterator pBIt;
    126                            for (pBIt = ePtr->UniquePROList.begin(); pBIt != ePtr->UniquePROList.end(); pBIt++)
    127                            {
    128                               PRogramObject *Element = *pBIt;
    129                               if (Element && Element->ReadPermission())
    130                               {
    131                                  DropdStr = Element->Name;
    132                                  AnsiString MainObjType = LibGetValueName(MainObjectList, SizeofMainObjectList, Element->Type);
    133                                  if (!MainObjType.IsEmpty())
    134                                  {
    135                                     MainObjType = (AnsiString)"(" + MainObjType + (AnsiString)")";
    136                                  }
    137                                  DropdStr += MainObjType + " on ZB485:" + (AnsiString)ePtr->IOAddress + " Ch." + (AnsiString)(ePtr->IOChannel + 1);
    138                                  DropdStr += " (AD-SGCNV) ";
    139                                  //SensorInfo[DROPDOWN_GetNumItems(hDropdPRO)] = DropdStr;
    140                                  DROPDOWN_AddString(hDropdPRO, DropdStr.c_str());
    141                                  DropdIOUnitList.push_back(ePtr);
    142                                  Count++;
    143                               }
    144                            }
    145                         }
    146                         break;
    147                      case C_IO_AN_ZBANA:
    148                      case C_IO_AN_ZBHART:
    149                         {
    150                            IOUnitZBAna *ePtr = (IOUnitZBAna *)IOUnitElement;
    151                            set<PRogramObject *>::iterator pBIt;
    152                            for (pBIt = ePtr->IOUniquePROSet.begin(); pBIt != ePtr->IOUniquePROSet.end(); pBIt++)
    153                            {
    154                               PRogramObject *Element = *pBIt;
    155                               if (Element && Element->ReadPermission())
    156                               {
    157                                  AnsiString MainObjType = LibGetValueName(MainObjectList, SizeofMainObjectList, Element->Type);
    158                                  if (!MainObjType.IsEmpty())
    159                                  {
    160                                     MainObjType = (AnsiString)"(" + MainObjType + (AnsiString)")";
    161                                  }
    162                                  DropdStr = Element->Name + MainObjType;
    163                                  switch(IOUnitElement->Type) {
    164                                  case C_IO_AN_ZBANA:
    165                                      DropdStr += " on ZBANA:";
    166                                      break;
    167                                  case C_IO_AN_ZBHART:
    168                                      DropdStr += " on ZBHART:";
    169                                      break;
    170                                  }
    171                                  DropdStr += (AnsiString)ePtr->IOAddress;
    172                                  //SensorInfo[DROPDOWN_GetNumItems(hDropdPRO)] = DropdStr;
    173                                  DROPDOWN_AddString(hDropdPRO, DropdStr.c_str());
    174                                  DropdIOUnitList.push_back(ePtr);
    175                                  Count++;
    176                               }
    177                            }
    178                         }
    179                         break;
    180                      case C_IO_AN_ZB485:
    181                         //case C_IO_WAGO:
    182                         //SensorInfo[DROPDOWN_GetNumItems(hDropdPRO)] = DropdStr;
    183                         TotCount++;
    184                         break;
    185                      }
    186                   }
   \                     ??InitSysWin_7:
   \   00000060   0020A0E3           MOV      R2,#+0
   \   00000064   0110A0E3           MOV      R1,#+1
   \   00000068   08008DE2           ADD      R0,SP,#+8
   \   0000006C   ........           _BLF     ??_Tidy,??_Tidy??rA
   \                     ??InitSysWin_8:
   \   00000070   0010A0E3           MOV      R1,#+0
   \   00000074   04008DE2           ADD      R0,SP,#+4
   \   00000078   ........           _BLF     `??operator++`,`??operator++??rA`
   \                     ??InitSysWin_6:
   \   0000007C   54069FE5           LDR      R0,??InitSysWin_2+0x4  ;; ??GlobalPRO_IOList
   \   00000080   04109DE5           LDR      R1,[SP, #+4]
   \   00000084   000051E1           CMP      R1,R0
   \   00000088   4201000A           BEQ      ??InitSysWin_9
   \   0000008C   106091E5           LDR      R6,[R1, #+16]
   \   00000090   000056E3           CMP      R6,#+0
   \   00000094   F5FFFF0A           BEQ      ??InitSysWin_8
   \   00000098   08008DE2           ADD      R0,SP,#+8
   \   0000009C   ........           _BLF     ??AnsiString_1,??AnsiString??rA_1
   \   000000A0   A00096E5           LDR      R0,[R6, #+160]
   \   000000A4   170040E2           SUB      R0,R0,#+23
   \   000000A8   800E40E2           SUB      R0,R0,#+2048
   \   000000AC   0B0050E3           CMP      R0,#+11
   \   000000B0   EAFFFF8A           BHI      ??InitSysWin_7
   \   000000B4   021F8FE2           ADR      R1,??InitSysWin_1
   \   000000B8   8000A0E1           MOV      R0,R0, LSL #+1
   \   000000BC   F01091E1           LDRSH    R1,[R1, R0]
   \   000000C0   01F18FE0           ADD      PC,PC,R1, LSL #+2
   \                     ??InitSysWin_1:
   \   000000C4   A100E6FFA100       DC16     +161,+65510,+161,+65510
   \              E6FF        
   \   000000CC   E6FFE6FFE6FF       DC16     +65510,+65510,+65510,+65510
   \              E6FF        
   \   000000D4   E6FFE6FF0500       DC16     +65510,+65510,+5,+5
   \              0500        
   \                     ??InitSysWin_10:
   \   000000DC   0010A0E3           MOV      R1,#+0
   \   000000E0   00108DE5           STR      R1,[SP, #+0]
   \   000000E4   880196E5           LDR      R0,[R6, #+392]
   \   000000E8   00008DE5           STR      R0,[SP, #+0]
   \   000000EC   0B0000EA           B        ??InitSysWin_11
   \                     ??InitSysWin_12:
   \   000000F0   F403D4E1           LDRSH    R0,[R4, #+52]
   \   000000F4   ........           _BLF     DROPDOWN_AddString,??DROPDOWN_AddString??rA
   \   000000F8   0610A0E1           MOV      R1,R6
   \   000000FC   3C0084E2           ADD      R0,R4,#+60
   \   00000100   ........           _BLF     ??push_back,??push_back??rA
   \   00000104   0020A0E3           MOV      R2,#+0
   \   00000108   0110A0E3           MOV      R1,#+1
   \   0000010C   24008DE2           ADD      R0,SP,#+36
   \   00000110   ........           _BLF     ??_Tidy,??_Tidy??rA
   \                     ??InitSysWin_13:
   \   00000114   0010A0E3           MOV      R1,#+0
   \   00000118   0D00A0E1           MOV      R0,SP
   \   0000011C   ........           _BLF     `??operator++`,`??operator++??rA`
   \                     ??InitSysWin_11:
   \   00000120   00109DE5           LDR      R1,[SP, #+0]
   \   00000124   620F86E2           ADD      R0,R6,#+392
   \   00000128   000051E1           CMP      R1,R0
   \   0000012C   CBFFFF0A           BEQ      ??InitSysWin_7
   \   00000130   109091E5           LDR      R9,[R1, #+16]
   \   00000134   000059E3           CMP      R9,#+0
   \   00000138   F5FFFF0A           BEQ      ??InitSysWin_13
   \   0000013C   0010A0E3           MOV      R1,#+0
   \   00000140   0900A0E1           MOV      R0,R9
   \   00000144   ........           _BLF     ??ReadPermission,??ReadPermission??rA
   \   00000148   000050E3           CMP      R0,#+0
   \   0000014C   F0FFFF0A           BEQ      ??InitSysWin_13
   \   00000150   ........           LDR      R0,??DataTable9  ;; ??npos
   \   00000154   0020A0E3           MOV      R2,#+0
   \   00000158   00A090E5           LDR      R10,[R0, #+0]
   \   0000015C   441089E2           ADD      R1,R9,#+68
   \   00000160   0A30A0E1           MOV      R3,R10
   \   00000164   08008DE2           ADD      R0,SP,#+8
   \   00000168   ........           _BLF     ??assign,??assign??rA
   \   0000016C   0000A0E3           MOV      R0,#+0
   \   00000170   01002DE9           PUSH     {R0}
   \   00000174   A03099E5           LDR      R3,[R9, #+160]
   \   00000178   002098E5           LDR      R2,[R8, #+0]
   \   0000017C   0710A0E1           MOV      R1,R7
   \   00000180   28008DE2           ADD      R0,SP,#+40
   \   00000184   ........           _BLF     ??LibGetValueName,??LibGetValueName??rA
   \   00000188   28008DE2           ADD      R0,SP,#+40
   \   0000018C   ........           _BLF     ??IsEmpty,??IsEmpty??rA
   \   00000190   000050E3           CMP      R0,#+0
   \   00000194   04D08DE2           ADD      SP,SP,#+4
   \   00000198   2A00001A           BNE      ??InitSysWin_14
   \   0000019C   E41F8FE2           ADR      R1,??InitSysWin_15  ;; ")"
   \   000001A0   8C0F8DE2           ADD      R0,SP,#+560
   \   000001A4   ........           _BLF     ??AnsiString_2,??AnsiString??rA_2
   \   000001A8   0090A0E1           MOV      R9,R0
   \   000001AC   E11F8FE2           ADR      R1,??InitSysWin_15+0x4  ;; "("
   \   000001B0   850F8DE2           ADD      R0,SP,#+532
   \   000001B4   ........           _BLF     ??AnsiString_2,??AnsiString??rA_2
   \   000001B8   24208DE2           ADD      R2,SP,#+36
   \   000001BC   0010A0E1           MOV      R1,R0
   \   000001C0   B0008DE2           ADD      R0,SP,#+176
   \   000001C4   ........           _BLF     `??operator+`,`??operator+??rA`
   \   000001C8   0920A0E1           MOV      R2,R9
   \   000001CC   B0108DE2           ADD      R1,SP,#+176
   \   000001D0   CC008DE2           ADD      R0,SP,#+204
   \   000001D4   ........           _BLF     `??operator+`,`??operator+??rA`
   \   000001D8   CC108DE2           ADD      R1,SP,#+204
   \   000001DC   7E0F8DE2           ADD      R0,SP,#+504
   \   000001E0   ........           _BLF     ??AnsiString_3,??AnsiString??rA_3
   \   000001E4   0A30A0E1           MOV      R3,R10
   \   000001E8   0020A0E3           MOV      R2,#+0
   \   000001EC   0010A0E1           MOV      R1,R0
   \   000001F0   24008DE2           ADD      R0,SP,#+36
   \   000001F4   ........           _BLF     ??assign,??assign??rA
   \   000001F8   0020A0E3           MOV      R2,#+0
   \   000001FC   0110A0E3           MOV      R1,#+1
   \   00000200   7E0F8DE2           ADD      R0,SP,#+504
   \   00000204   ........           _BLF     ??_Tidy,??_Tidy??rA
   \   00000208   0020A0E3           MOV      R2,#+0
   \   0000020C   0110A0E3           MOV      R1,#+1
   \   00000210   CC008DE2           ADD      R0,SP,#+204
   \   00000214   ........           _BLF     ??_Tidy,??_Tidy??rA
   \   00000218   0020A0E3           MOV      R2,#+0
   \   0000021C   0110A0E3           MOV      R1,#+1
   \   00000220   8C0F8DE2           ADD      R0,SP,#+560
   \   00000224   ........           _BLF     ??_Tidy,??_Tidy??rA
   \   00000228   0020A0E3           MOV      R2,#+0
   \   0000022C   0110A0E3           MOV      R1,#+1
   \   00000230   B0008DE2           ADD      R0,SP,#+176
   \   00000234   ........           _BLF     ??_Tidy,??_Tidy??rA
   \   00000238   0020A0E3           MOV      R2,#+0
   \   0000023C   0110A0E3           MOV      R1,#+1
   \   00000240   850F8DE2           ADD      R0,SP,#+532
   \   00000244   ........           _BLF     ??_Tidy,??_Tidy??rA
   \                     ??InitSysWin_14:
   \   00000248   7C0196E5           LDR      R0,[R6, #+380]
   \   0000024C   011080E2           ADD      R1,R0,#+1
   \   00000250   410F8DE2           ADD      R0,SP,#+260
   \   00000254   ........           _BLF     ??AnsiString,??AnsiString??rA
   \   00000258   781196E5           LDR      R1,[R6, #+376]
   \   0000025C   0090A0E1           MOV      R9,R0
   \   00000260   E8008DE2           ADD      R0,SP,#+232
   \   00000264   ........           _BLF     ??AnsiString,??AnsiString??rA
   \   00000268   00B0A0E1           MOV      R11,R0
   \   0000026C   182085E2           ADD      R2,R5,#+24
   \   00000270   24108DE2           ADD      R1,SP,#+36
   \   00000274   40008DE2           ADD      R0,SP,#+64
   \   00000278   ........           _BLF     `??operator+_1`,`??operator+??rA_1`
   \   0000027C   0B20A0E1           MOV      R2,R11
   \   00000280   40108DE2           ADD      R1,SP,#+64
   \   00000284   5C008DE2           ADD      R0,SP,#+92
   \   00000288   ........           _BLF     `??operator+`,`??operator+??rA`
   \   0000028C   242085E2           ADD      R2,R5,#+36
   \   00000290   5C108DE2           ADD      R1,SP,#+92
   \   00000294   78008DE2           ADD      R0,SP,#+120
   \   00000298   ........           _BLF     `??operator+_1`,`??operator+??rA_1`
   \   0000029C   0920A0E1           MOV      R2,R9
   \   000002A0   78108DE2           ADD      R1,SP,#+120
   \   000002A4   94008DE2           ADD      R0,SP,#+148
   \   000002A8   ........           _BLF     `??operator+`,`??operator+??rA`
   \   000002AC   0A30A0E1           MOV      R3,R10
   \   000002B0   0020A0E3           MOV      R2,#+0
   \   000002B4   94108DE2           ADD      R1,SP,#+148
   \   000002B8   08008DE2           ADD      R0,SP,#+8
   \   000002BC   ........           _BLF     ??append,??append??rA
   \   000002C0   0020A0E3           MOV      R2,#+0
   \   000002C4   0110A0E3           MOV      R1,#+1
   \   000002C8   94008DE2           ADD      R0,SP,#+148
   \   000002CC   ........           _BLF     ??_Tidy,??_Tidy??rA
   \   000002D0   0020A0E3           MOV      R2,#+0
   \   000002D4   0110A0E3           MOV      R1,#+1
   \   000002D8   410F8DE2           ADD      R0,SP,#+260
   \   000002DC   ........           _BLF     ??_Tidy,??_Tidy??rA
   \   000002E0   0020A0E3           MOV      R2,#+0
   \   000002E4   0110A0E3           MOV      R1,#+1
   \   000002E8   78008DE2           ADD      R0,SP,#+120
   \   000002EC   ........           _BLF     ??_Tidy,??_Tidy??rA
   \   000002F0   0020A0E3           MOV      R2,#+0
   \   000002F4   0110A0E3           MOV      R1,#+1
   \   000002F8   5C008DE2           ADD      R0,SP,#+92
   \   000002FC   ........           _BLF     ??_Tidy,??_Tidy??rA
   \   00000300   0020A0E3           MOV      R2,#+0
   \   00000304   0110A0E3           MOV      R1,#+1
   \   00000308   E8008DE2           ADD      R0,SP,#+232
   \   0000030C   ........           _BLF     ??_Tidy,??_Tidy??rA
   \   00000310   0020A0E3           MOV      R2,#+0
   \   00000314   0110A0E3           MOV      R1,#+1
   \   00000318   40008DE2           ADD      R0,SP,#+64
   \   0000031C   ........           _BLF     ??_Tidy,??_Tidy??rA
   \   00000320   2C0085E2           ADD      R0,R5,#+44
   \   00000324   ........           _BLF     strlen,??strlen??rA
   \   00000328   0020A0E1           MOV      R2,R0
   \   0000032C   2C1085E2           ADD      R1,R5,#+44
   \   00000330   08008DE2           ADD      R0,SP,#+8
   \   00000334   ........           _BLF     ??append_1,??append??rA_1
   \   00000338   20009DE5           LDR      R0,[SP, #+32]
   \   0000033C   100050E3           CMP      R0,#+16
   \   00000340   0C109D25           LDRCS    R1,[SP, #+12]
   \   00000344   0C108D32           ADDCC    R1,SP,#+12
   \   00000348   68FFFFEA           B        ??InitSysWin_12
   \                     ??InitSysWin_16:
   \   0000034C   0010A0E3           MOV      R1,#+0
   \   00000350   00108DE5           STR      R1,[SP, #+0]
   \   00000354   5F9FA0E3           MOV      R9,#+380
   \   00000358   060099E7           LDR      R0,[R9, +R6]
   \   0000035C   00008DE5           STR      R0,[SP, #+0]
   \   00000360   0B0000EA           B        ??InitSysWin_17
   \                     ??InitSysWin_18:
   \   00000364   F403D4E1           LDRSH    R0,[R4, #+52]
   \   00000368   ........           _BLF     DROPDOWN_AddString,??DROPDOWN_AddString??rA
   \   0000036C   0610A0E1           MOV      R1,R6
   \   00000370   3C0084E2           ADD      R0,R4,#+60
   \   00000374   ........           _BLF     ??push_back,??push_back??rA
   \   00000378   0020A0E3           MOV      R2,#+0
   \   0000037C   0110A0E3           MOV      R1,#+1
   \   00000380   E8008DE2           ADD      R0,SP,#+232
   \   00000384   ........           _BLF     ??_Tidy,??_Tidy??rA
   \                     ??InitSysWin_19:
   \   00000388   0010A0E3           MOV      R1,#+0
   \   0000038C   0D00A0E1           MOV      R0,SP
   \   00000390   ........           _BLF     `??operator++`,`??operator++??rA`
   \                     ??InitSysWin_17:
   \   00000394   00109DE5           LDR      R1,[SP, #+0]
   \   00000398   060089E0           ADD      R0,R9,R6
   \   0000039C   000051E1           CMP      R1,R0
   \   000003A0   2EFFFF0A           BEQ      ??InitSysWin_7
   \   000003A4   10A091E5           LDR      R10,[R1, #+16]
   \   000003A8   00005AE3           CMP      R10,#+0
   \   000003AC   F5FFFF0A           BEQ      ??InitSysWin_19
   \   000003B0   0010A0E3           MOV      R1,#+0
   \   000003B4   0A00A0E1           MOV      R0,R10
   \   000003B8   ........           _BLF     ??ReadPermission,??ReadPermission??rA
   \   000003BC   000050E3           CMP      R0,#+0
   \   000003C0   F0FFFF0A           BEQ      ??InitSysWin_19
   \   000003C4   0000A0E3           MOV      R0,#+0
   \   000003C8   01002DE9           PUSH     {R0}
   \   000003CC   A0309AE5           LDR      R3,[R10, #+160]
   \   000003D0   002098E5           LDR      R2,[R8, #+0]
   \   000003D4   0710A0E1           MOV      R1,R7
   \   000003D8   EC008DE2           ADD      R0,SP,#+236
   \   000003DC   ........           _BLF     ??LibGetValueName,??LibGetValueName??rA
   \   000003E0   EC008DE2           ADD      R0,SP,#+236
   \   000003E4   ........           _BLF     ??IsEmpty,??IsEmpty??rA
   \   000003E8   000050E3           CMP      R0,#+0
   \   000003EC   04D08DE2           ADD      SP,SP,#+4
   \   000003F0   2B00001A           BNE      ??InitSysWin_20
   \   000003F4   4E1F8FE2           ADR      R1,??InitSysWin_15  ;; ")"
   \   000003F8   94008DE2           ADD      R0,SP,#+148
   \   000003FC   ........           _BLF     ??AnsiString_2,??AnsiString??rA_2
   \   00000400   00B0A0E1           MOV      R11,R0
   \   00000404   4B1F8FE2           ADR      R1,??InitSysWin_15+0x4  ;; "("
   \   00000408   78008DE2           ADD      R0,SP,#+120
   \   0000040C   ........           _BLF     ??AnsiString_2,??AnsiString??rA_2
   \   00000410   E8208DE2           ADD      R2,SP,#+232
   \   00000414   0010A0E1           MOV      R1,R0
   \   00000418   5C008DE2           ADD      R0,SP,#+92
   \   0000041C   ........           _BLF     `??operator+`,`??operator+??rA`
   \   00000420   0B20A0E1           MOV      R2,R11
   \   00000424   5C108DE2           ADD      R1,SP,#+92
   \   00000428   40008DE2           ADD      R0,SP,#+64
   \   0000042C   ........           _BLF     `??operator+`,`??operator+??rA`
   \   00000430   40108DE2           ADD      R1,SP,#+64
   \   00000434   24008DE2           ADD      R0,SP,#+36
   \   00000438   ........           _BLF     ??AnsiString_3,??AnsiString??rA_3
   \   0000043C   ........           LDR      R1,??DataTable9  ;; ??npos
   \   00000440   0020A0E3           MOV      R2,#+0
   \   00000444   003091E5           LDR      R3,[R1, #+0]
   \   00000448   0010A0E1           MOV      R1,R0
   \   0000044C   E8008DE2           ADD      R0,SP,#+232
   \   00000450   ........           _BLF     ??assign,??assign??rA
   \   00000454   0020A0E3           MOV      R2,#+0
   \   00000458   0110A0E3           MOV      R1,#+1
   \   0000045C   24008DE2           ADD      R0,SP,#+36
   \   00000460   ........           _BLF     ??_Tidy,??_Tidy??rA
   \   00000464   0020A0E3           MOV      R2,#+0
   \   00000468   0110A0E3           MOV      R1,#+1
   \   0000046C   40008DE2           ADD      R0,SP,#+64
   \   00000470   ........           _BLF     ??_Tidy,??_Tidy??rA
   \   00000474   0020A0E3           MOV      R2,#+0
   \   00000478   0110A0E3           MOV      R1,#+1
   \   0000047C   94008DE2           ADD      R0,SP,#+148
   \   00000480   ........           _BLF     ??_Tidy,??_Tidy??rA
   \   00000484   0020A0E3           MOV      R2,#+0
   \   00000488   0110A0E3           MOV      R1,#+1
   \   0000048C   5C008DE2           ADD      R0,SP,#+92
   \   00000490   ........           _BLF     ??_Tidy,??_Tidy??rA
   \   00000494   0020A0E3           MOV      R2,#+0
   \   00000498   0110A0E3           MOV      R1,#+1
   \   0000049C   78008DE2           ADD      R0,SP,#+120
   \   000004A0   ........           _BLF     ??_Tidy,??_Tidy??rA
   \                     ??InitSysWin_20:
   \   000004A4   E8208DE2           ADD      R2,SP,#+232
   \   000004A8   44108AE2           ADD      R1,R10,#+68
   \   000004AC   CC008DE2           ADD      R0,SP,#+204
   \   000004B0   ........           _BLF     `??operator+`,`??operator+??rA`
   \   000004B4   CC108DE2           ADD      R1,SP,#+204
   \   000004B8   B0008DE2           ADD      R0,SP,#+176
   \   000004BC   ........           _BLF     ??AnsiString_3,??AnsiString??rA_3
   \   000004C0   0010A0E1           MOV      R1,R0
   \   000004C4   ........           LDR      R0,??DataTable9  ;; ??npos
   \   000004C8   0020A0E3           MOV      R2,#+0
   \   000004CC   00A090E5           LDR      R10,[R0, #+0]
   \   000004D0   08008DE2           ADD      R0,SP,#+8
   \   000004D4   0A30A0E1           MOV      R3,R10
   \   000004D8   ........           _BLF     ??assign,??assign??rA
   \   000004DC   0020A0E3           MOV      R2,#+0
   \   000004E0   0110A0E3           MOV      R1,#+1
   \   000004E4   B0008DE2           ADD      R0,SP,#+176
   \   000004E8   ........           _BLF     ??_Tidy,??_Tidy??rA
   \   000004EC   0020A0E3           MOV      R2,#+0
   \   000004F0   0110A0E3           MOV      R1,#+1
   \   000004F4   CC008DE2           ADD      R0,SP,#+204
   \   000004F8   ........           _BLF     ??_Tidy,??_Tidy??rA
   \   000004FC   A00096E5           LDR      R0,[R6, #+160]
   \   00000500   1710A0E3           MOV      R1,#+23
   \   00000504   801E81E3           ORR      R1,R1,#0x800
   \   00000508   010050E1           CMP      R0,R1
   \   0000050C   0300000A           BEQ      ??InitSysWin_21
   \   00000510   021081E2           ADD      R1,R1,#+2
   \   00000514   010050E1           CMP      R0,R1
   \   00000518   0700000A           BEQ      ??InitSysWin_22
   \   0000051C   0C0000EA           B        ??InitSysWin_23
   \                     ??InitSysWin_21:
   \   00000520   480085E2           ADD      R0,R5,#+72
   \   00000524   ........           _BLF     strlen,??strlen??rA
   \   00000528   0020A0E1           MOV      R2,R0
   \   0000052C   481085E2           ADD      R1,R5,#+72
   \   00000530   050000EA           B        ??InitSysWin_24
   \                     ??InitSysWin_15:
   \   00000534   29000000           DC8      ")",+0,+0
   \   00000538   28000000           DC8      "(",+0,+0
   \                     ??InitSysWin_22:
   \   0000053C   3C0085E2           ADD      R0,R5,#+60
   \   00000540   ........           _BLF     strlen,??strlen??rA
   \   00000544   0020A0E1           MOV      R2,R0
   \   00000548   3C1085E2           ADD      R1,R5,#+60
   \                     ??InitSysWin_24:
   \   0000054C   08008DE2           ADD      R0,SP,#+8
   \   00000550   ........           _BLF     ??append_1,??append??rA_1
   \                     ??InitSysWin_23:
   \   00000554   A01196E5           LDR      R1,[R6, #+416]
   \   00000558   410F8DE2           ADD      R0,SP,#+260
   \   0000055C   ........           _BLF     ??AnsiString,??AnsiString??rA
   \   00000560   0A30A0E1           MOV      R3,R10
   \   00000564   0020A0E3           MOV      R2,#+0
   \   00000568   0010A0E1           MOV      R1,R0
   \   0000056C   08008DE2           ADD      R0,SP,#+8
   \   00000570   ........           _BLF     ??append,??append??rA
   \   00000574   0020A0E3           MOV      R2,#+0
   \   00000578   0110A0E3           MOV      R1,#+1
   \   0000057C   410F8DE2           ADD      R0,SP,#+260
   \   00000580   ........           _BLF     ??_Tidy,??_Tidy??rA
   \   00000584   20009DE5           LDR      R0,[SP, #+32]
   \   00000588   100050E3           CMP      R0,#+16
   \   0000058C   0C109D25           LDRCS    R1,[SP, #+12]
   \   00000590   0C108D32           ADDCC    R1,SP,#+12
   \   00000594   72FFFFEA           B        ??InitSysWin_18
    187                }
    188                TotCount += Count;
    189                DROPDOWN_SetSel(hDropdPRO, CurrentIndex);
   \                     ??InitSysWin_9:
   \   00000598   301094E5           LDR      R1,[R4, #+48]
   \   0000059C   F403D4E1           LDRSH    R0,[R4, #+52]
    190                LISTVIEW_SetGridVis(hListviewIO, 1); //Sets the visibility
    191                LISTVIEW_SetLBorder(hListviewIO, 2);
    192                LISTVIEW_SetRBorder(hListviewIO, 1);
    193                HEADER_Handle ListHeadHandl = LISTVIEW_GetHeader(hListviewIO);
    194          
    195                WM_SetId(ListHeadHandl, GUI_ID_HEADER0);
   \   000005A0   8460A0E3           MOV      R6,#+132
   \   000005A4   B06E86E3           ORR      R6,R6,#0xB00
   \   000005A8   ........           _BLF     DROPDOWN_SetSel,??DROPDOWN_SetSel??rA
   \   000005AC   F603D4E1           LDRSH    R0,[R4, #+54]
   \   000005B0   0110A0E3           MOV      R1,#+1
   \   000005B4   ........           _BLF     LISTVIEW_SetGridVis,??LISTVIEW_SetGridVis??rA
   \   000005B8   F603D4E1           LDRSH    R0,[R4, #+54]
   \   000005BC   0210A0E3           MOV      R1,#+2
   \   000005C0   ........           _BLF     LISTVIEW_SetLBorder,??LISTVIEW_SetLBorder??rA
   \   000005C4   F603D4E1           LDRSH    R0,[R4, #+54]
   \   000005C8   0110A0E3           MOV      R1,#+1
   \   000005CC   ........           _BLF     LISTVIEW_SetRBorder,??LISTVIEW_SetRBorder??rA
   \   000005D0   F603D4E1           LDRSH    R0,[R4, #+54]
   \   000005D4   ........           _BLF     LISTVIEW_GetHeader,??LISTVIEW_GetHeader??rA
   \   000005D8   0610A0E1           MOV      R1,R6
   \   000005DC   ........           _BLF     WM_SetId,??WM_SetId??rA
    196                {
    197                   HeaderInfo Header[] = {
    198                      { L_WORD554, 18, GUI_TA_LEFT },   // ch
    199                      { L_WORD74, 60, GUI_TA_LEFT },   // Name
    200                      { L_WORD555, 25, GUI_TA_LEFT },   // Loc
    201                      { L_WORD449, 50, GUI_TA_LEFT },   // Type
    202                      { L_WORD556, 50, GUI_TA_RIGHT },  // RawVal
    203                      { L_WORD128, 50, GUI_TA_RIGHT },  // Value
    204                      { L_WORD126, 50, GUI_TA_RIGHT },  // Gain
    205                      { L_WORD127, 50, GUI_TA_RIGHT },  // Offset
    206                      { L_WORD36, 50, GUI_TA_LEFT },   // Unit
    207                      { L_WORD1, 50, GUI_TA_LEFT },   // Enable
    208                      { L_WORD557, 50, GUI_TA_LEFT },   // CalVal
    209                      { L_WORD558, 50, GUI_TA_CENTER }, // CnvCalE
    210                      { L_WORD559, 45, GUI_TA_CENTER }, // Prom
    211                      { L_WORD560, 45, GUI_TA_CENTER }, // PC
    212                      { L_WORD561, 50, GUI_TA_CENTER }, // UsPCCal
    213                      { L_WORD562, 50, GUI_TA_CENTER }, // AD Sns
    214                      { L_WORD563, 50, GUI_TA_CENTER }, // PC Sns
    215                      { L_WORD564, 50, GUI_TA_CENTER }, // From PC
    216                   };
   \   000005E0   FC109FE5           LDR      R1,??InitSysWin_2+0x10  ;; `?<Constant {{554, 18, 0}, {74, 60, 0}, {555, 2`
   \   000005E4   480F8DE2           ADD      R0,SP,#+288
   \   000005E8   D830A0E3           MOV      R3,#+216
   \                     ??InitSysWin_25:
   \   000005EC   043053E2           SUBS     R3,R3,#+4
   \   000005F0   032091E7           LDR      R2,[R1, R3]
   \   000005F4   032080E7           STR      R2,[R0, R3]
   \   000005F8   FBFFFF1A           BNE      ??InitSysWin_25
    217          
    218                   for (int i = 0; i < NELEMENTS(Header); i++)
   \   000005FC   0070A0E3           MOV      R7,#+0
    219                   {
    220                      AddToSKeyList(GUI_ID_HEADER0, i, Header[i].WordKey);
   \                     ??InitSysWin_26:
   \   00000600   0C00A0E3           MOV      R0,#+12
   \   00000604   481F8DE2           ADD      R1,SP,#+288
   \   00000608   901728E0           MLA      R8,R0,R7,R1
   \   0000060C   009098E5           LDR      R9,[R8, #+0]
   \   00000610   0720A0E1           MOV      R2,R7
   \   00000614   0930A0E1           MOV      R3,R9
   \   00000618   0610A0E1           MOV      R1,R6
   \   0000061C   0400A0E1           MOV      R0,R4
   \   00000620   ........           _BLF     ??AddToSKeyList,??AddToSKeyList??rA
    221                      LISTVIEW_AddColumn(hListviewIO, Header[i].Width, FindDictionaryWord(Header[i].WordKey).c_str(), Header[i].Align); // S
   \   00000624   0910A0E1           MOV      R1,R9
   \   00000628   08008DE2           ADD      R0,SP,#+8
   \   0000062C   ........           _BLF     ??FindDictionaryWord,??FindDictionaryWord??rA
   \   00000630   20009DE5           LDR      R0,[SP, #+32]
   \   00000634   083098E5           LDR      R3,[R8, #+8]
   \   00000638   041098E5           LDR      R1,[R8, #+4]
   \   0000063C   100050E3           CMP      R0,#+16
   \   00000640   F603D4E1           LDRSH    R0,[R4, #+54]
   \   00000644   0C209D25           LDRCS    R2,[SP, #+12]
    222                   }
   \   00000648   017087E2           ADD      R7,R7,#+1
   \   0000064C   0C208D32           ADDCC    R2,SP,#+12
   \   00000650   ........           _BLF     LISTVIEW_AddColumn,??LISTVIEW_AddColumn??rA
   \   00000654   0020A0E3           MOV      R2,#+0
   \   00000658   0110A0E3           MOV      R1,#+1
   \   0000065C   08008DE2           ADD      R0,SP,#+8
   \   00000660   ........           _BLF     ??_Tidy,??_Tidy??rA
   \   00000664   120057E3           CMP      R7,#+18
   \   00000668   E4FFFF3A           BCC      ??InitSysWin_26
    223                }
    224                for (int l = 0; l < MAX_AN_SGCNV_CHANNELS; l++)
   \   0000066C   0060A0E3           MOV      R6,#+0
    225                {
    226                   LISTVIEW_AddRow(hListviewIO, NULL);
   \                     ??InitSysWin_27:
   \   00000670   F603D4E1           LDRSH    R0,[R4, #+54]
   \   00000674   0010A0E3           MOV      R1,#+0
    227                }
   \   00000678   016086E2           ADD      R6,R6,#+1
   \   0000067C   ........           _BLF     LISTVIEW_AddRow,??LISTVIEW_AddRow??rA
   \   00000680   0E0056E3           CMP      R6,#+14
   \   00000684   F9FFFFBA           BLT      ??InitSysWin_27
    228                ClearList();
   \   00000688   0400A0E1           MOV      R0,R4
   \   0000068C   ........           BL       ??ClearList
    229                WM_SetScrollbarH(hListviewIO, 1);
   \   00000690   F603D4E1           LDRSH    R0,[R4, #+54]
   \   00000694   0110A0E3           MOV      R1,#+1
   \   00000698   ........           _BLF     WM_SetScrollbarH,??WM_SetScrollbarH??rA
    230                WM_SetScrollbarV(hListviewIO, 1);
   \   0000069C   F603D4E1           LDRSH    R0,[R4, #+54]
   \   000006A0   0110A0E3           MOV      R1,#+1
   \   000006A4   ........           _BLF     WM_SetScrollbarV,??WM_SetScrollbarV??rA
    231             }
    232             {
    233                const GUIKey Words[] = {
    234                   { TDU_SYSTEM3_WIN, 0, L_WORD39 },
    235                   { GUI_ID_TEXT0, 0, L_WORD40 },
    236                };
   \                     ??InitSysWin_3:
   \   000006A8   CE0195E8           LDM      R5,{R1-R3,R6-R8}
   \   000006AC   930F8DE2           ADD      R0,SP,#+588
   \   000006B0   CE0180E8           STM      R0,{R1-R3,R6-R8}
    237                AddToSKeyList((GUIKey *)Words, NELEMENTS(Words));
   \   000006B4   0130A0E3           MOV      R3,#+1
   \   000006B8   0220A0E3           MOV      R2,#+2
   \   000006BC   931F8DE2           ADD      R1,SP,#+588
   \   000006C0   0400A0E1           MOV      R0,R4
   \   000006C4   ........           _BLF     ??AddToSKeyList_1,??AddToSKeyList??rA_1
    238             }
    239          }
   \   000006C8   99DF8DE2           ADD      SP,SP,#+612
   \   000006CC   F04FBDE8           POP      {R4-R11,LR}
   \   000006D0   1EFF2FE1           BX       LR               ;; return
   \                     ??InitSysWin_2:
   \   000006D4   ........           DC32     ??PROProjectInfoPtr
   \   000006D8   ........           DC32     ??GlobalPRO_IOList
   \   000006DC   ........           DC32     MainObjectList
   \   000006E0   ........           DC32     SizeofMainObjectList
   \   000006E4   ........           DC32     `?<Constant {{554, 18, 0}, {74, 60, 0}, {555, 2`
    240          

   \                                 In segment CODE, align 4, keep-with-next
    241          void TDUSysWin3::ClearList(void)
    242          {
   \                     ??ClearList:
   \   00000000   F0402DE9           PUSH     {R4-R7,LR}
   \   00000004   0040A0E1           MOV      R4,R0
    243             int NumberOfCols = LISTVIEW_GetNumColumns(hListviewIO);
   \   00000008   F603D4E1           LDRSH    R0,[R4, #+54]
    244             for (int Row = 0; Row < MAX_AN_SGCNV_CHANNELS; Row++)
   \   0000000C   0060A0E3           MOV      R6,#+0
   \   00000010   ........           _BLF     LISTVIEW_GetNumColumns,??LISTVIEW_GetNumColumns??rA
   \   00000014   0050A0E1           MOV      R5,R0
    245             {
    246                for (int Col = 0; Col < NumberOfCols; Col++)
   \                     ??ClearList_1:
   \   00000018   0070A0E3           MOV      R7,#+0
   \   0000001C   010055E3           CMP      R5,#+1
   \   00000020   060000AA           BGE      ??ClearList_2
   \   00000024   070000EA           B        ??ClearList_3
    247                {
    248                   LISTVIEW_SetItemText(hListviewIO, Col, Row, "");
   \                     ??ClearList_4:
   \   00000028   F603D4E1           LDRSH    R0,[R4, #+54]
   \   0000002C   ........           ADR      R3,??DataTable8  ;; ""
   \   00000030   0620A0E1           MOV      R2,R6
   \   00000034   0710A0E1           MOV      R1,R7
   \   00000038   ........           _BLF     LISTVIEW_SetItemText,??LISTVIEW_SetItemText??rA
    249                }
   \   0000003C   017087E2           ADD      R7,R7,#+1
   \                     ??ClearList_2:
   \   00000040   050057E1           CMP      R7,R5
   \   00000044   F7FFFFBA           BLT      ??ClearList_4
    250             }
   \                     ??ClearList_3:
   \   00000048   016086E2           ADD      R6,R6,#+1
   \   0000004C   0E0056E3           CMP      R6,#+14
   \   00000050   F0FFFFBA           BLT      ??ClearList_1
    251             UpdateSysWin();
   \   00000054   0400A0E1           MOV      R0,R4
   \   00000058   ........           BL       ??UpdateSysWin
    252          }
   \   0000005C   F040BDE8           POP      {R4-R7,LR}
   \   00000060   1EFF2FE1           BX       LR               ;; return
    253          

   \                                 In segment CODE, align 4, keep-with-next
    254          bool TDUSysWin3::SetupWin(void)
    255          {
   \                     ??SetupWin:
   \   00000000   D04F2DE9           PUSH     {R4,R6-R11,LR}
   \   00000004   C8D04DE2           SUB      SP,SP,#+200
   \   00000008   0040A0E1           MOV      R4,R0
    256             bool Found = false;
   \   0000000C   0010A0E3           MOV      R1,#+0
   \   00000010   0010CDE5           STRB     R1,[SP, #+0]
    257          
    258             int SnsSelect = LISTVIEW_GetSel(hListviewIO);
   \   00000014   F603D4E1           LDRSH    R0,[R4, #+54]
    259             AnsiString SnsInfo;
    260             PROIOComponent *SnsPtr = NULL;
   \   00000018   0080A0E3           MOV      R8,#+0
   \   0000001C   ........           _BLF     LISTVIEW_GetSel,??LISTVIEW_GetSel??rA
   \   00000020   0090A0E1           MOV      R9,R0
   \   00000024   20008DE2           ADD      R0,SP,#+32
   \   00000028   ........           _BLF     ??AnsiString_1,??AnsiString??rA_1
    261             PRogramObject  *ProPtr  = NULL;
    262          
    263             if (CurrentIOUnit)
   \   0000002C   382094E5           LDR      R2,[R4, #+56]
   \   00000030   000052E3           CMP      R2,#+0
   \   00000034   6C01000A           BEQ      ??SetupWin_2
    264             {
    265                switch (CurrentIOUnit->Type)
   \   00000038   ........           LDR      R0,??DataTable9  ;; ??npos
   \   0000003C   A03092E5           LDR      R3,[R2, #+160]
   \   00000040   006090E5           LDR      R6,[R0, #+0]
   \   00000044   ........           LDR      R7,??DataTable10  ;; `?<Constant {{2191, 0, 39}, {352, 0, 40}}>`
   \   00000048   680FA0E3           MOV      R0,#+416
   \   0000004C   EC1F8FE2           ADR      R1,??SetupWin_3  ;; "\?\?\?"
   \   00000050   173043E2           SUB      R3,R3,#+23
   \   00000054   803E43E2           SUB      R3,R3,#+2048
   \   00000058   0B0053E3           CMP      R3,#+11
   \   0000005C   6201008A           BHI      ??SetupWin_2
   \   00000060   02AF8FE2           ADR      R10,??SetupWin_1
   \   00000064   8330A0E1           MOV      R3,R3, LSL #+1
   \   00000068   B3A09AE1           LDRH     R10,[R10, R3]
   \   0000006C   0AF18FE0           ADD      PC,PC,R10, LSL #+2
   \                     ??SetupWin_1:
   \   00000070   E5005E01E500       DC16     +229,+350,+229,+350
   \              5E01        
   \   00000078   5E015E015E01       DC16     +350,+350,+350,+350
   \              5E01        
   \   00000080   5E015E010500       DC16     +350,+350,+5,+120
   \              7800        
    266                {
    267                case C_SC_ADCARD:
    268                   {
    269                      SCADCard *ePtr = (SCADCard *)CurrentIOUnit;
    270                      if (SnsSelect < MAX_AN_SGCNV_CHANNELS)
   \                     ??SetupWin_4:
   \   00000088   0E0059E3           CMP      R9,#+14
   \   0000008C   560100AA           BGE      ??SetupWin_2
    271                      {
    272                         // First locate the sensor
    273                         for (int i = 0, Cnt = 0; !SnsPtr && i < MAX_AN_SGCNV_CHANNELS; i++)
   \   00000090   0030A0E3           MOV      R3,#+0
   \   00000094   03A0A0E1           MOV      R10,R3
    274                         {
    275                            if (Cnt == SnsSelect)
   \                     ??SetupWin_5:
   \   00000098   03B182E0           ADD      R11,R2,R3, LSL #+2
   \   0000009C   09005AE1           CMP      R10,R9
    276                            {
    277                               SnsPtr = ePtr->IOComponent[i];
   \   000000A0   0B809007           LDREQ    R8,[R0, +R11]
   \   000000A4   0200000A           BEQ      ??SetupWin_6
    278                            }
    279                            else if (ePtr->IOComponent[i])
   \   000000A8   0BB090E7           LDR      R11,[R0, +R11]
   \   000000AC   00005BE3           CMP      R11,#+0
    280                            {
    281                               Cnt++;
   \   000000B0   01A08A12           ADDNE    R10,R10,#+1
    282                            }
    283                         }
   \                     ??SetupWin_6:
   \   000000B4   013083E2           ADD      R3,R3,#+1
   \   000000B8   000058E3           CMP      R8,#+0
   \   000000BC   0200001A           BNE      ??SetupWin_7
   \   000000C0   0E0053E3           CMP      R3,#+14
   \   000000C4   480100AA           BGE      ??SetupWin_2
   \   000000C8   F2FFFFEA           B        ??SetupWin_5
    284                         if (SnsPtr)
    285                         {
    286                            ProPtr = ((AnalogInput *)SnsPtr)->PROPtr;
   \                     ??SetupWin_7:
   \   000000CC   249198E5           LDR      R9,[R8, #+292]
    287                            if (ProPtr)
   \   000000D0   000059E3           CMP      R9,#+0
   \   000000D4   0500000A           BEQ      ??SetupWin_8
    288                            {
    289                               SnsInfo = ProPtr->Name;
   \   000000D8   0630A0E1           MOV      R3,R6
   \   000000DC   0020A0E3           MOV      R2,#+0
   \   000000E0   441089E2           ADD      R1,R9,#+68
   \   000000E4   20008DE2           ADD      R0,SP,#+32
   \   000000E8   ........           _BLF     ??assign,??assign??rA
   \   000000EC   0A0000EA           B        ??SetupWin_9
    290                            }
    291                            else
    292                            {
    293                               SnsInfo = "???";
   \                     ??SetupWin_8:
   \   000000F0   04008DE2           ADD      R0,SP,#+4
   \   000000F4   ........           _BLF     ??AnsiString_2,??AnsiString??rA_2
   \   000000F8   0630A0E1           MOV      R3,R6
   \   000000FC   0020A0E3           MOV      R2,#+0
   \   00000100   0010A0E1           MOV      R1,R0
   \   00000104   20008DE2           ADD      R0,SP,#+32
   \   00000108   ........           _BLF     ??assign,??assign??rA
   \   0000010C   0020A0E3           MOV      R2,#+0
   \   00000110   0110A0E3           MOV      R1,#+1
   \   00000114   04008DE2           ADD      R0,SP,#+4
   \   00000118   ........           _BLF     ??_Tidy,??_Tidy??rA
    294                            }
    295                            SnsInfo += " on ZB485:" + (AnsiString)SnsPtr->IOAddress + " Ch." + (AnsiString)(SnsPtr->IOChannel + 1);
   \                     ??SetupWin_9:
   \   0000011C   040198E5           LDR      R0,[R8, #+260]
   \   00000120   011080E2           ADD      R1,R0,#+1
   \   00000124   AC008DE2           ADD      R0,SP,#+172
   \   00000128   ........           _BLF     ??AnsiString,??AnsiString??rA
   \   0000012C   001198E5           LDR      R1,[R8, #+256]
   \   00000130   00A0A0E1           MOV      R10,R0
   \   00000134   90008DE2           ADD      R0,SP,#+144
   \   00000138   ........           _BLF     ??AnsiString,??AnsiString??rA
   \   0000013C   00B0A0E1           MOV      R11,R0
   \   00000140   0020A0E3           MOV      R2,#+0
   \   00000144   0010A0E3           MOV      R1,#+0
   \   00000148   04008DE2           ADD      R0,SP,#+4
   \   0000014C   ........           _BLF     ??_Tidy,??_Tidy??rA
   \   00000150   180087E2           ADD      R0,R7,#+24
   \   00000154   ........           _BLF     strlen,??strlen??rA
   \   00000158   0020A0E1           MOV      R2,R0
   \   0000015C   181087E2           ADD      R1,R7,#+24
   \   00000160   04008DE2           ADD      R0,SP,#+4
   \   00000164   ........           _BLF     ??assign_1,??assign??rA_1
   \   00000168   0630A0E1           MOV      R3,R6
   \   0000016C   0020A0E3           MOV      R2,#+0
   \   00000170   0B10A0E1           MOV      R1,R11
   \   00000174   04008DE2           ADD      R0,SP,#+4
   \   00000178   ........           _BLF     ??append,??append??rA
   \   0000017C   00B0A0E1           MOV      R11,R0
   \   00000180   0020A0E3           MOV      R2,#+0
   \   00000184   0210A0E1           MOV      R1,R2
   \   00000188   74008DE2           ADD      R0,SP,#+116
   \   0000018C   ........           _BLF     ??_Tidy,??_Tidy??rA
   \   00000190   0630A0E1           MOV      R3,R6
   \   00000194   0020A0E3           MOV      R2,#+0
   \   00000198   0B10A0E1           MOV      R1,R11
   \   0000019C   74008DE2           ADD      R0,SP,#+116
   \   000001A0   ........           _BLF     ??assign,??assign??rA
   \   000001A4   0020A0E3           MOV      R2,#+0
   \   000001A8   0110A0E3           MOV      R1,#+1
   \   000001AC   04008DE2           ADD      R0,SP,#+4
   \   000001B0   ........           _BLF     ??_Tidy,??_Tidy??rA
   \   000001B4   242087E2           ADD      R2,R7,#+36
   \   000001B8   74108DE2           ADD      R1,SP,#+116
   \   000001BC   58008DE2           ADD      R0,SP,#+88
   \   000001C0   ........           _BLF     `??operator+_1`,`??operator+??rA_1`
   \   000001C4   0A20A0E1           MOV      R2,R10
   \   000001C8   58108DE2           ADD      R1,SP,#+88
   \   000001CC   3C008DE2           ADD      R0,SP,#+60
   \   000001D0   ........           _BLF     `??operator+`,`??operator+??rA`
   \   000001D4   0630A0E1           MOV      R3,R6
   \   000001D8   0020A0E3           MOV      R2,#+0
   \   000001DC   3C108DE2           ADD      R1,SP,#+60
   \   000001E0   20008DE2           ADD      R0,SP,#+32
   \   000001E4   ........           _BLF     ??append,??append??rA
   \   000001E8   0020A0E3           MOV      R2,#+0
   \   000001EC   0110A0E3           MOV      R1,#+1
   \   000001F0   3C008DE2           ADD      R0,SP,#+60
   \   000001F4   ........           _BLF     ??_Tidy,??_Tidy??rA
   \   000001F8   0020A0E3           MOV      R2,#+0
   \   000001FC   0110A0E3           MOV      R1,#+1
   \   00000200   AC008DE2           ADD      R0,SP,#+172
   \   00000204   ........           _BLF     ??_Tidy,??_Tidy??rA
   \   00000208   0020A0E3           MOV      R2,#+0
   \   0000020C   0110A0E3           MOV      R1,#+1
   \   00000210   58008DE2           ADD      R0,SP,#+88
   \   00000214   ........           _BLF     ??_Tidy,??_Tidy??rA
   \   00000218   0020A0E3           MOV      R2,#+0
   \   0000021C   0110A0E3           MOV      R1,#+1
   \   00000220   74008DE2           ADD      R0,SP,#+116
   \   00000224   ........           _BLF     ??_Tidy,??_Tidy??rA
   \   00000228   0020A0E3           MOV      R2,#+0
   \   0000022C   0110A0E3           MOV      R1,#+1
   \   00000230   90008DE2           ADD      R0,SP,#+144
   \   00000234   ........           _BLF     ??_Tidy,??_Tidy??rA
    296                            SnsInfo += " (AD-SGCNV) ";
   \   00000238   2C0087E2           ADD      R0,R7,#+44
   \   0000023C   ........           _BLF     strlen,??strlen??rA
   \   00000240   0020A0E1           MOV      R2,R0
   \   00000244   2C1087E2           ADD      R1,R7,#+44
   \   00000248   20008DE2           ADD      R0,SP,#+32
   \   0000024C   ........           _BLF     ??append_1,??append??rA_1
   \   00000250   CA0000EA           B        ??SetupWin_10
    297          
    298                         }
    299          
    300                      }
    301                   }
    302                   break;
    303                case C_SC_W_INGRESS:
    304                   {
    305                      SCWaterIngress *ePtr = (SCWaterIngress *)CurrentIOUnit;
    306                      if (SnsSelect < MAX_W_INGR_CHANNELS)
   \                     ??SetupWin_11:
   \   00000254   020059E3           CMP      R9,#+2
   \   00000258   E30000AA           BGE      ??SetupWin_2
    307                      {
    308                         for (int i = 0, Cnt = 0; !SnsPtr && i < MAX_W_INGR_CHANNELS; i++)
   \   0000025C   0030A0E3           MOV      R3,#+0
   \   00000260   03A0A0E1           MOV      R10,R3
    309                         {
    310                            if (Cnt == SnsSelect)
   \                     ??SetupWin_12:
   \   00000264   03B182E0           ADD      R11,R2,R3, LSL #+2
   \   00000268   09005AE1           CMP      R10,R9
    311                            {
    312                               SnsPtr = ePtr->IOComponent[i];
   \   0000026C   0B809007           LDREQ    R8,[R0, +R11]
   \   00000270   0200000A           BEQ      ??SetupWin_13
    313                            }
    314                            else if (ePtr->IOComponent[i])
   \   00000274   0BB090E7           LDR      R11,[R0, +R11]
   \   00000278   00005BE3           CMP      R11,#+0
    315                            {
    316                               Cnt++;
   \   0000027C   01A08A12           ADDNE    R10,R10,#+1
    317                            }
    318                         }
   \                     ??SetupWin_13:
   \   00000280   013083E2           ADD      R3,R3,#+1
   \   00000284   000058E3           CMP      R8,#+0
   \   00000288   0200001A           BNE      ??SetupWin_14
   \   0000028C   020053E3           CMP      R3,#+2
   \   00000290   D50000AA           BGE      ??SetupWin_2
   \   00000294   F2FFFFEA           B        ??SetupWin_12
    319                         if (SnsPtr)
    320                         {
    321                            ProPtr = ((AnalogInput *)SnsPtr)->PROPtr;
   \                     ??SetupWin_14:
   \   00000298   249198E5           LDR      R9,[R8, #+292]
    322                            if (ProPtr)
   \   0000029C   000059E3           CMP      R9,#+0
   \   000002A0   0500000A           BEQ      ??SetupWin_15
    323                            {
    324                               SnsInfo = ProPtr->Name;
   \   000002A4   0630A0E1           MOV      R3,R6
   \   000002A8   0020A0E3           MOV      R2,#+0
   \   000002AC   441089E2           ADD      R1,R9,#+68
   \   000002B0   20008DE2           ADD      R0,SP,#+32
   \   000002B4   ........           _BLF     ??assign,??assign??rA
   \   000002B8   0A0000EA           B        ??SetupWin_16
    325                            }
    326                            else
    327                            {
    328                               SnsInfo = "???";
   \                     ??SetupWin_15:
   \   000002BC   04008DE2           ADD      R0,SP,#+4
   \   000002C0   ........           _BLF     ??AnsiString_2,??AnsiString??rA_2
   \   000002C4   0010A0E1           MOV      R1,R0
   \   000002C8   0630A0E1           MOV      R3,R6
   \   000002CC   0020A0E3           MOV      R2,#+0
   \   000002D0   20008DE2           ADD      R0,SP,#+32
   \   000002D4   ........           _BLF     ??assign,??assign??rA
   \   000002D8   0020A0E3           MOV      R2,#+0
   \   000002DC   0110A0E3           MOV      R1,#+1
   \   000002E0   04008DE2           ADD      R0,SP,#+4
   \   000002E4   ........           _BLF     ??_Tidy,??_Tidy??rA
    329                            }
    330                            SnsInfo += " on ZB485:" + (AnsiString)SnsPtr->IOAddress + " Ch." + (AnsiString)(SnsPtr->IOChannel + 1);
   \                     ??SetupWin_16:
   \   000002E8   040198E5           LDR      R0,[R8, #+260]
   \   000002EC   011080E2           ADD      R1,R0,#+1
   \   000002F0   90008DE2           ADD      R0,SP,#+144
   \   000002F4   ........           _BLF     ??AnsiString,??AnsiString??rA
   \   000002F8   001198E5           LDR      R1,[R8, #+256]
   \   000002FC   00A0A0E1           MOV      R10,R0
   \   00000300   AC008DE2           ADD      R0,SP,#+172
   \   00000304   ........           _BLF     ??AnsiString,??AnsiString??rA
   \   00000308   00B0A0E1           MOV      R11,R0
   \   0000030C   0020A0E3           MOV      R2,#+0
   \   00000310   0010A0E3           MOV      R1,#+0
   \   00000314   04008DE2           ADD      R0,SP,#+4
   \   00000318   ........           _BLF     ??_Tidy,??_Tidy??rA
   \   0000031C   180087E2           ADD      R0,R7,#+24
   \   00000320   ........           _BLF     strlen,??strlen??rA
   \   00000324   0020A0E1           MOV      R2,R0
   \   00000328   181087E2           ADD      R1,R7,#+24
   \   0000032C   04008DE2           ADD      R0,SP,#+4
   \   00000330   ........           _BLF     ??assign_1,??assign??rA_1
   \   00000334   0630A0E1           MOV      R3,R6
   \   00000338   0020A0E3           MOV      R2,#+0
   \   0000033C   0B10A0E1           MOV      R1,R11
   \   00000340   04008DE2           ADD      R0,SP,#+4
   \   00000344   ........           _BLF     ??append,??append??rA
   \   00000348   00B0A0E1           MOV      R11,R0
   \   0000034C   0020A0E3           MOV      R2,#+0
   \   00000350   0210A0E1           MOV      R1,R2
   \   00000354   3C008DE2           ADD      R0,SP,#+60
   \   00000358   ........           _BLF     ??_Tidy,??_Tidy??rA
   \   0000035C   0630A0E1           MOV      R3,R6
   \   00000360   0020A0E3           MOV      R2,#+0
   \   00000364   0B10A0E1           MOV      R1,R11
   \   00000368   3C008DE2           ADD      R0,SP,#+60
   \   0000036C   ........           _BLF     ??assign,??assign??rA
   \   00000370   0020A0E3           MOV      R2,#+0
   \   00000374   0110A0E3           MOV      R1,#+1
   \   00000378   04008DE2           ADD      R0,SP,#+4
   \   0000037C   ........           _BLF     ??_Tidy,??_Tidy??rA
   \   00000380   242087E2           ADD      R2,R7,#+36
   \   00000384   3C108DE2           ADD      R1,SP,#+60
   \   00000388   58008DE2           ADD      R0,SP,#+88
   \   0000038C   ........           _BLF     `??operator+_1`,`??operator+??rA_1`
   \   00000390   0A20A0E1           MOV      R2,R10
   \   00000394   58108DE2           ADD      R1,SP,#+88
   \   00000398   74008DE2           ADD      R0,SP,#+116
   \   0000039C   ........           _BLF     `??operator+`,`??operator+??rA`
   \   000003A0   0630A0E1           MOV      R3,R6
   \   000003A4   0020A0E3           MOV      R2,#+0
   \   000003A8   74108DE2           ADD      R1,SP,#+116
   \   000003AC   20008DE2           ADD      R0,SP,#+32
   \   000003B0   ........           _BLF     ??append,??append??rA
   \   000003B4   0020A0E3           MOV      R2,#+0
   \   000003B8   0110A0E3           MOV      R1,#+1
   \   000003BC   74008DE2           ADD      R0,SP,#+116
   \   000003C0   ........           _BLF     ??_Tidy,??_Tidy??rA
   \   000003C4   0020A0E3           MOV      R2,#+0
   \   000003C8   0110A0E3           MOV      R1,#+1
   \   000003CC   90008DE2           ADD      R0,SP,#+144
   \   000003D0   ........           _BLF     ??_Tidy,??_Tidy??rA
   \   000003D4   0020A0E3           MOV      R2,#+0
   \   000003D8   0110A0E3           MOV      R1,#+1
   \   000003DC   58008DE2           ADD      R0,SP,#+88
   \   000003E0   ........           _BLF     ??_Tidy,??_Tidy??rA
   \   000003E4   0020A0E3           MOV      R2,#+0
   \   000003E8   0110A0E3           MOV      R1,#+1
   \   000003EC   3C008DE2           ADD      R0,SP,#+60
   \   000003F0   ........           _BLF     ??_Tidy,??_Tidy??rA
   \   000003F4   0020A0E3           MOV      R2,#+0
   \   000003F8   0110A0E3           MOV      R1,#+1
   \   000003FC   AC008DE2           ADD      R0,SP,#+172
   \   00000400   5D0000EA           B        ??SetupWin_17
   \                     ??SetupWin_3:
   \   00000404   3F3F3F00           DC8      "\?\?\?"
    331                         }
    332                      }
    333                   }
    334                   break;
    335                case C_IO_AN_ZBHART:
    336                case C_IO_AN_ZBANA :
    337                   {
    338                      IOUnitZBAna *ePtr = (IOUnitZBAna *)CurrentIOUnit;
    339                      if (SnsSelect < MAX_AN_ZBANA_CHANNELS)
   \                     ??SetupWin_18:
   \   00000408   0C0059E3           CMP      R9,#+12
   \   0000040C   760000AA           BGE      ??SetupWin_2
    340                      {
    341                         for (int i = 0, Cnt = 0; !SnsPtr && i < MAX_AN_ZBANA_CHANNELS; i++)
   \   00000410   0000A0E3           MOV      R0,#+0
   \   00000414   0030A0E1           MOV      R3,R0
    342                         {
    343                            if (Cnt == SnsSelect)
   \                     ??SetupWin_19:
   \   00000418   00A182E0           ADD      R10,R2,R0, LSL #+2
   \   0000041C   090053E1           CMP      R3,R9
    344                            {
    345                               SnsPtr = ePtr->IOComponent[i];
   \   00000420   F4819A05           LDREQ    R8,[R10, #+500]
   \   00000424   0200000A           BEQ      ??SetupWin_20
    346                            }
    347                            else if (ePtr->IOComponent[i])
   \   00000428   F4A19AE5           LDR      R10,[R10, #+500]
   \   0000042C   00005AE3           CMP      R10,#+0
    348                            {
    349                               Cnt++;
   \   00000430   01308312           ADDNE    R3,R3,#+1
    350                            }
    351                         }
   \                     ??SetupWin_20:
   \   00000434   010080E2           ADD      R0,R0,#+1
   \   00000438   000058E3           CMP      R8,#+0
   \   0000043C   0200001A           BNE      ??SetupWin_21
   \   00000440   0C0050E3           CMP      R0,#+12
   \   00000444   680000AA           BGE      ??SetupWin_2
   \   00000448   F2FFFFEA           B        ??SetupWin_19
    352                         if (SnsPtr)
    353                         {
    354                            ProPtr = ((AnalogInput *)SnsPtr)->PROPtr;
   \                     ??SetupWin_21:
   \   0000044C   249198E5           LDR      R9,[R8, #+292]
    355                            if (ProPtr)
   \   00000450   000059E3           CMP      R9,#+0
   \   00000454   0500000A           BEQ      ??SetupWin_22
    356                            {
    357                               SnsInfo = ProPtr->Name;
   \   00000458   0630A0E1           MOV      R3,R6
   \   0000045C   0020A0E3           MOV      R2,#+0
   \   00000460   441089E2           ADD      R1,R9,#+68
   \   00000464   20008DE2           ADD      R0,SP,#+32
   \   00000468   ........           _BLF     ??assign,??assign??rA
   \   0000046C   0A0000EA           B        ??SetupWin_23
    358                            }
    359                            else
    360                            {
    361                               SnsInfo = "???";
   \                     ??SetupWin_22:
   \   00000470   04008DE2           ADD      R0,SP,#+4
   \   00000474   ........           _BLF     ??AnsiString_2,??AnsiString??rA_2
   \   00000478   0630A0E1           MOV      R3,R6
   \   0000047C   0020A0E3           MOV      R2,#+0
   \   00000480   0010A0E1           MOV      R1,R0
   \   00000484   20008DE2           ADD      R0,SP,#+32
   \   00000488   ........           _BLF     ??assign,??assign??rA
   \   0000048C   0020A0E3           MOV      R2,#+0
   \   00000490   0110A0E3           MOV      R1,#+1
   \   00000494   04008DE2           ADD      R0,SP,#+4
   \   00000498   ........           _BLF     ??_Tidy,??_Tidy??rA
    362                            }
    363                            switch (CurrentIOUnit->Type) {
   \                     ??SetupWin_23:
   \   0000049C   380094E5           LDR      R0,[R4, #+56]
   \   000004A0   1710A0E3           MOV      R1,#+23
   \   000004A4   A00090E5           LDR      R0,[R0, #+160]
   \   000004A8   801E81E3           ORR      R1,R1,#0x800
   \   000004AC   010050E1           CMP      R0,R1
   \   000004B0   0700000A           BEQ      ??SetupWin_24
   \   000004B4   021081E2           ADD      R1,R1,#+2
   \   000004B8   010050E1           CMP      R0,R1
   \   000004BC   0A00001A           BNE      ??SetupWin_25
    364                            case C_IO_AN_ZBHART:
    365                                SnsInfo += " on ZBHART:";
   \   000004C0   3C0087E2           ADD      R0,R7,#+60
   \   000004C4   ........           _BLF     strlen,??strlen??rA
   \   000004C8   0020A0E1           MOV      R2,R0
   \   000004CC   3C1087E2           ADD      R1,R7,#+60
   \   000004D0   030000EA           B        ??SetupWin_26
    366                                break;
    367                            case C_IO_AN_ZBANA :
    368                                SnsInfo += " on ZBANA:";
   \                     ??SetupWin_24:
   \   000004D4   480087E2           ADD      R0,R7,#+72
   \   000004D8   ........           _BLF     strlen,??strlen??rA
   \   000004DC   0020A0E1           MOV      R2,R0
   \   000004E0   481087E2           ADD      R1,R7,#+72
   \                     ??SetupWin_26:
   \   000004E4   20008DE2           ADD      R0,SP,#+32
   \   000004E8   ........           _BLF     ??append_1,??append??rA_1
    369                                break;
    370                            }
    371                            SnsInfo += (AnsiString)SnsPtr->IOAddress + " Ch." + (AnsiString)(SnsPtr->IOChannel + 1);
   \                     ??SetupWin_25:
   \   000004EC   040198E5           LDR      R0,[R8, #+260]
   \   000004F0   011080E2           ADD      R1,R0,#+1
   \   000004F4   90008DE2           ADD      R0,SP,#+144
   \   000004F8   ........           _BLF     ??AnsiString,??AnsiString??rA
   \   000004FC   001198E5           LDR      R1,[R8, #+256]
   \   00000500   00A0A0E1           MOV      R10,R0
   \   00000504   74008DE2           ADD      R0,SP,#+116
   \   00000508   ........           _BLF     ??AnsiString,??AnsiString??rA
   \   0000050C   242087E2           ADD      R2,R7,#+36
   \   00000510   0010A0E1           MOV      R1,R0
   \   00000514   58008DE2           ADD      R0,SP,#+88
   \   00000518   ........           _BLF     `??operator+_1`,`??operator+??rA_1`
   \   0000051C   0A20A0E1           MOV      R2,R10
   \   00000520   58108DE2           ADD      R1,SP,#+88
   \   00000524   3C008DE2           ADD      R0,SP,#+60
   \   00000528   ........           _BLF     `??operator+`,`??operator+??rA`
   \   0000052C   0630A0E1           MOV      R3,R6
   \   00000530   0020A0E3           MOV      R2,#+0
   \   00000534   3C108DE2           ADD      R1,SP,#+60
   \   00000538   20008DE2           ADD      R0,SP,#+32
   \   0000053C   ........           _BLF     ??append,??append??rA
   \   00000540   0020A0E3           MOV      R2,#+0
   \   00000544   0110A0E3           MOV      R1,#+1
   \   00000548   3C008DE2           ADD      R0,SP,#+60
   \   0000054C   ........           _BLF     ??_Tidy,??_Tidy??rA
   \   00000550   0020A0E3           MOV      R2,#+0
   \   00000554   0110A0E3           MOV      R1,#+1
   \   00000558   90008DE2           ADD      R0,SP,#+144
   \   0000055C   ........           _BLF     ??_Tidy,??_Tidy??rA
   \   00000560   0020A0E3           MOV      R2,#+0
   \   00000564   0110A0E3           MOV      R1,#+1
   \   00000568   58008DE2           ADD      R0,SP,#+88
   \   0000056C   ........           _BLF     ??_Tidy,??_Tidy??rA
   \   00000570   0020A0E3           MOV      R2,#+0
   \   00000574   0110A0E3           MOV      R1,#+1
   \   00000578   74008DE2           ADD      R0,SP,#+116
   \                     ??SetupWin_17:
   \   0000057C   ........           _BLF     ??_Tidy,??_Tidy??rA
   \                     ??SetupWin_10:
   \   00000580   380094E5           LDR      R0,[R4, #+56]
   \   00000584   000050E3           CMP      R0,#+0
   \   00000588   1700000A           BEQ      ??SetupWin_2
    372                         }
    373                      }
    374                   }
    375                   break;
    376                case C_IO_AN_ZB485:
    377                   //case C_IO_WAGO:
    378                   break;
    379                }
    380             }
    381          
    382             if (SnsPtr && CurrentIOUnit)
    383             {
    384                SensorDetails->CreatePage(WinHandl, ProPtr, SnsPtr, SnsInfo);
   \   0000058C   0020A0E3           MOV      R2,#+0
   \   00000590   0010A0E3           MOV      R1,#+0
   \   00000594   04008DE2           ADD      R0,SP,#+4
   \   00000598   ........           _BLF     ??_Tidy,??_Tidy??rA
   \   0000059C   0630A0E1           MOV      R3,R6
   \   000005A0   0020A0E3           MOV      R2,#+0
   \   000005A4   20108DE2           ADD      R1,SP,#+32
   \   000005A8   04008DE2           ADD      R0,SP,#+4
   \   000005AC   ........           _BLF     ??assign,??assign??rA
   \   000005B0   04008DE2           ADD      R0,SP,#+4
   \   000005B4   01002DE9           PUSH     {R0}
   \   000005B8   FA12D4E1           LDRSH    R1,[R4, #+42]
   \   000005BC   68009FE5           LDR      R0,??SetupWin_27  ;; SensorDetails
   \   000005C0   0830A0E1           MOV      R3,R8
   \   000005C4   000090E5           LDR      R0,[R0, #+0]
   \   000005C8   0920A0E1           MOV      R2,R9
   \   000005CC   ........           _BLF     ??CreatePage,??CreatePage??rA
   \   000005D0   0020A0E3           MOV      R2,#+0
   \   000005D4   0110A0E3           MOV      R1,#+1
   \   000005D8   08008DE2           ADD      R0,SP,#+8
   \   000005DC   ........           _BLF     ??_Tidy,??_Tidy??rA
    385                Found = true;
   \   000005E0   0110A0E3           MOV      R1,#+1
   \   000005E4   0410CDE5           STRB     R1,[SP, #+4]
   \   000005E8   04D08DE2           ADD      SP,SP,#+4
    386             }
    387             TimedOut = false;
    388             TimerCount = SELECT_TIMEOUT;
    389             SetGuiEvent(PWEventHandl, 1, &aTCB[1]);
   \                     ??SetupWin_2:
   \   000005EC   3C109FE5           LDR      R1,??SetupWin_27+0x4  ;; aTCB + 64
   \   000005F0   0000A0E3           MOV      R0,#+0
   \   000005F4   5000C4E5           STRB     R0,[R4, #+80]
   \   000005F8   8800A0E3           MOV      R0,#+136
   \   000005FC   4C0D80E3           ORR      R0,R0,#0x1300
   \   00000600   4C0084E5           STR      R0,[R4, #+76]
   \   00000604   0100A0E3           MOV      R0,#+1
   \   00000608   ........           _BLF     OS_SignalEvent,??OS_SignalEvent??rA
    390             return (Found);
   \   0000060C   0020A0E3           MOV      R2,#+0
   \   00000610   0110A0E3           MOV      R1,#+1
   \   00000614   20008DE2           ADD      R0,SP,#+32
   \   00000618   ........           _BLF     ??_Tidy,??_Tidy??rA
   \   0000061C   0000DDE5           LDRB     R0,[SP, #+0]
   \   00000620   C8D08DE2           ADD      SP,SP,#+200
   \   00000624   D04FBDE8           POP      {R4,R6-R11,LR}
   \   00000628   1EFF2FE1           BX       LR               ;; return
   \                     ??SetupWin_27:
   \   0000062C   ........           DC32     SensorDetails
   \   00000630   ........           DC32     aTCB + 64
    391          }
    392          
    393          

   \                                 In segment CODE, align 4, keep-with-next
    394          void TDUSysWin3::UpdateSysWin(void)
    395          {
   \                     ??UpdateSysWin:
   \   00000000   F04F2DE9           PUSH     {R4-R11,LR}
   \   00000004   46DE4DE2           SUB      SP,SP,#+1120
   \   00000008   0050A0E1           MOV      R5,R0
    396             if (DROPDOWN_GetNumItems(hDropdPRO))
   \   0000000C   F403D5E1           LDRSH    R0,[R5, #+52]
   \   00000010   ........           _BLF     DROPDOWN_GetNumItems,??DROPDOWN_GetNumItems??rA
   \   00000014   000050E3           CMP      R0,#+0
   \   00000018   CA04000A           BEQ      ??UpdateSysWin_3
    397             {
    398                CurrentIOUnit = (PRogramObject *)DropdIOUnitList[CurrentIndex];
   \   0000001C   300095E5           LDR      R0,[R5, #+48]
   \   00000020   3C1095E5           LDR      R1,[R5, #+60]
   \   00000024   000191E7           LDR      R0,[R1, +R0, LSL #+2]
   \   00000028   380085E5           STR      R0,[R5, #+56]
    399                if (CurrentIOUnit)
   \   0000002C   0040A0E1           MOV      R4,R0
   \   00000030   000054E3           CMP      R4,#+0
   \   00000034   A604000A           BEQ      ??UpdateSysWin_4
   \   00000038   A00094E5           LDR      R0,[R4, #+160]
   \   0000003C   ED60A0E3           MOV      R6,#+237
   \   00000040   406E86E3           ORR      R6,R6,#0x400
   \   00000044   0170C6E3           BIC      R7,R6,#0x1
   \   00000048   170040E2           SUB      R0,R0,#+23
   \   0000004C   800E40E2           SUB      R0,R0,#+2048
   \   00000050   0B0050E3           CMP      R0,#+11
   \   00000054   9E04008A           BHI      ??UpdateSysWin_4
   \   00000058   021F8FE2           ADR      R1,??UpdateSysWin_1
   \   0000005C   8000A0E1           MOV      R0,R0, LSL #+1
   \   00000060   B01091E1           LDRH     R1,[R1, R0]
   \   00000064   01F18FE0           ADD      PC,PC,R1, LSL #+2
   \                     ??UpdateSysWin_1:
   \   00000068   6E039A046E03       DC16     +878,+1178,+878,+1178
   \              9A04        
   \   00000070   9A049A049A04       DC16     +1178,+1178,+1178,+1178
   \              9A04        
   \   00000078   9A049A040500       DC16     +1178,+1178,+5,+599
   \              5702        
    400                {
    401                   switch (CurrentIOUnit->Type)
    402                   {
    403                   case C_SC_ADCARD:
    404                      {
    405                         SCADCard *ePtr = (SCADCard *)CurrentIOUnit;
    406                         int LCnt = 0;
   \                     ??UpdateSysWin_5:
   \   00000080   0090A0E3           MOV      R9,#+0
    407                         for (int index = 0; index < MAX_AN_SGCNV_CHANNELS; index++)
   \   00000084   00A0A0E3           MOV      R10,#+0
   \   00000088   9F0100EA           B        ??UpdateSysWin_6
    408                         {
    409                            AnsiString Name  = LibGetValue(SVT_IO_CH_NAME, index, ePtr);
    410                            if (!Name.IsEmpty())
    411                            {
    412                               AnsiString Loc   = LibGetValue(SVT_IO_CH_LOCATION, index, ePtr);
    413                               AnsiString Type  = LibGetValue(SVT_IO_CH_TYPE_TEXT, index, ePtr);
    414                               AnsiString RawVal = LibGetValue(SVT_IO_CH_RAW_VAL, index, ePtr);
    415                               AnsiString Value = LibGetValue(SVT_IO_CH_VALUE, index, ePtr);
    416          
    417                               AnsiString GainStr, OffsetStr, EnableStr, UnitStr;
    418                               PROIOComponent *SnsPtr = ePtr->IOComponent[index];
    419                               if (SnsPtr)
    420                               {
    421                                  GainStr   = LibGetValue(SVT_AI_GAIN, index, SnsPtr);
    422                                  OffsetStr = LibGetValue(SVT_AI_OFFSET, index, SnsPtr);
    423                                  EnableStr = LibGetValue(SVT_AI_ENABLE_TEXT, index, SnsPtr);
    424                                  if (SnsPtr)
    425                                  {
    426                                     switch (SnsPtr->Type)
    427                                     {
    428                                     case C_AI_Pt100     :
    429                                     case C_AI_Pt1000    :
    430                                     case C_AI_TEMP_AD590:
    431                                        UnitStr = FindDictionaryWord(L_WORD266);
    432                                        break;
    433                                     case C_AI_1728      :
    434                                     case C_AI_P906_0110 :
    435                                     case C_AI_P906_0111 :
    436                                        UnitStr = FindDictionaryWord(L_WORD268);
    437                                        break;
    438                                     case C_AI_LeSw_ADCard       :
    439                                     case C_AI_WashTrackSensor      :
    440                                        UnitStr = FindDictionaryWord(L_WORD297);
   \                     ??UpdateSysWin_7:
   \   0000008C   F11F46E2           SUB      R1,R6,#+964
   \   00000090   0C008DE2           ADD      R0,SP,#+12
   \   00000094   400E80E2           ADD      R0,R0,#+1024
   \   00000098   ........           _BLF     ??FindDictionaryWord,??FindDictionaryWord??rA
   \   0000009C   0830A0E1           MOV      R3,R8
   \   000000A0   0020A0E3           MOV      R2,#+0
   \   000000A4   0C108DE2           ADD      R1,SP,#+12
   \   000000A8   401E81E2           ADD      R1,R1,#+1024
   \   000000AC   0D00A0E1           MOV      R0,SP
   \   000000B0   ........           _BLF     ??assign,??assign??rA
   \   000000B4   0020A0E3           MOV      R2,#+0
   \   000000B8   0110A0E3           MOV      R1,#+1
   \   000000BC   0C008DE2           ADD      R0,SP,#+12
   \                     ??UpdateSysWin_8:
   \   000000C0   400E80E2           ADD      R0,R0,#+1024
   \   000000C4   ........           _BLF     ??_Tidy,??_Tidy??rA
    441                                        break;
    442                                     }
    443                                  }
    444          
    445                               }
    446                               SetListviewRow(LCnt, index, Name, Loc, Type, RawVal, Value, GainStr, OffsetStr, EnableStr, UnitStr);
   \                     ??UpdateSysWin_9:
   \   000000C8   0020A0E3           MOV      R2,#+0
   \   000000CC   0010A0E3           MOV      R1,#+0
   \   000000D0   D90F8DE2           ADD      R0,SP,#+868
   \   000000D4   ........           _BLF     ??_Tidy,??_Tidy??rA
   \   000000D8   400D9FE5           LDR      R0,??UpdateSysWin_10+0x4  ;; ??npos
   \   000000DC   0020A0E3           MOV      R2,#+0
   \   000000E0   008090E5           LDR      R8,[R0, #+0]
   \   000000E4   0D10A0E1           MOV      R1,SP
   \   000000E8   0830A0E1           MOV      R3,R8
   \   000000EC   D90F8DE2           ADD      R0,SP,#+868
   \   000000F0   ........           _BLF     ??assign,??assign??rA
   \   000000F4   0020A0E3           MOV      R2,#+0
   \   000000F8   0210A0E1           MOV      R1,R2
   \   000000FC   D20F8DE2           ADD      R0,SP,#+840
   \   00000100   ........           _BLF     ??_Tidy,??_Tidy??rA
   \   00000104   0830A0E1           MOV      R3,R8
   \   00000108   0020A0E3           MOV      R2,#+0
   \   0000010C   A8108DE2           ADD      R1,SP,#+168
   \   00000110   D20F8DE2           ADD      R0,SP,#+840
   \   00000114   ........           _BLF     ??assign,??assign??rA
   \   00000118   0020A0E3           MOV      R2,#+0
   \   0000011C   0210A0E1           MOV      R1,R2
   \   00000120   CB0F8DE2           ADD      R0,SP,#+812
   \   00000124   ........           _BLF     ??_Tidy,??_Tidy??rA
   \   00000128   0830A0E1           MOV      R3,R8
   \   0000012C   0020A0E3           MOV      R2,#+0
   \   00000130   8C108DE2           ADD      R1,SP,#+140
   \   00000134   CB0F8DE2           ADD      R0,SP,#+812
   \   00000138   ........           _BLF     ??assign,??assign??rA
   \   0000013C   0020A0E3           MOV      R2,#+0
   \   00000140   0210A0E1           MOV      R1,R2
   \   00000144   C40F8DE2           ADD      R0,SP,#+784
   \   00000148   ........           _BLF     ??_Tidy,??_Tidy??rA
   \   0000014C   0830A0E1           MOV      R3,R8
   \   00000150   0020A0E3           MOV      R2,#+0
   \   00000154   70108DE2           ADD      R1,SP,#+112
   \   00000158   C40F8DE2           ADD      R0,SP,#+784
   \   0000015C   ........           _BLF     ??assign,??assign??rA
   \   00000160   0020A0E3           MOV      R2,#+0
   \   00000164   0210A0E1           MOV      R1,R2
   \   00000168   BD0F8DE2           ADD      R0,SP,#+756
   \   0000016C   ........           _BLF     ??_Tidy,??_Tidy??rA
   \   00000170   0830A0E1           MOV      R3,R8
   \   00000174   0020A0E3           MOV      R2,#+0
   \   00000178   691F8DE2           ADD      R1,SP,#+420
   \   0000017C   BD0F8DE2           ADD      R0,SP,#+756
   \   00000180   ........           _BLF     ??assign,??assign??rA
   \   00000184   0020A0E3           MOV      R2,#+0
   \   00000188   0210A0E1           MOV      R1,R2
   \   0000018C   B60F8DE2           ADD      R0,SP,#+728
   \   00000190   ........           _BLF     ??_Tidy,??_Tidy??rA
   \   00000194   0830A0E1           MOV      R3,R8
   \   00000198   0020A0E3           MOV      R2,#+0
   \   0000019C   621F8DE2           ADD      R1,SP,#+392
   \   000001A0   B60F8DE2           ADD      R0,SP,#+728
   \   000001A4   ........           _BLF     ??assign,??assign??rA
   \   000001A8   0020A0E3           MOV      R2,#+0
   \   000001AC   0210A0E1           MOV      R1,R2
   \   000001B0   AF0F8DE2           ADD      R0,SP,#+700
   \   000001B4   ........           _BLF     ??_Tidy,??_Tidy??rA
   \   000001B8   0830A0E1           MOV      R3,R8
   \   000001BC   0020A0E3           MOV      R2,#+0
   \   000001C0   54108DE2           ADD      R1,SP,#+84
   \   000001C4   AF0F8DE2           ADD      R0,SP,#+700
   \   000001C8   ........           _BLF     ??assign,??assign??rA
   \   000001CC   0020A0E3           MOV      R2,#+0
   \   000001D0   0210A0E1           MOV      R1,R2
   \   000001D4   A80F8DE2           ADD      R0,SP,#+672
   \   000001D8   ........           _BLF     ??_Tidy,??_Tidy??rA
   \   000001DC   0830A0E1           MOV      R3,R8
   \   000001E0   0020A0E3           MOV      R2,#+0
   \   000001E4   5B1F8DE2           ADD      R1,SP,#+364
   \   000001E8   A80F8DE2           ADD      R0,SP,#+672
   \   000001EC   ........           _BLF     ??assign,??assign??rA
   \   000001F0   0020A0E3           MOV      R2,#+0
   \   000001F4   0210A0E1           MOV      R1,R2
   \   000001F8   A10F8DE2           ADD      R0,SP,#+644
   \   000001FC   ........           _BLF     ??_Tidy,??_Tidy??rA
   \   00000200   0830A0E1           MOV      R3,R8
   \   00000204   0020A0E3           MOV      R2,#+0
   \   00000208   9A1F8DE2           ADD      R1,SP,#+616
   \   0000020C   A10F8DE2           ADD      R0,SP,#+644
   \   00000210   ........           _BLF     ??assign,??assign??rA
   \   00000214   D90F8DE2           ADD      R0,SP,#+868
   \   00000218   01002DE9           PUSH     {R0}
   \   0000021C   D30F8DE2           ADD      R0,SP,#+844
   \   00000220   01002DE9           PUSH     {R0}
   \   00000224   CD0F8DE2           ADD      R0,SP,#+820
   \   00000228   01002DE9           PUSH     {R0}
   \   0000022C   C70F8DE2           ADD      R0,SP,#+796
   \   00000230   01002DE9           PUSH     {R0}
   \   00000234   C10F8DE2           ADD      R0,SP,#+772
   \   00000238   01002DE9           PUSH     {R0}
   \   0000023C   BB0F8DE2           ADD      R0,SP,#+748
   \   00000240   01002DE9           PUSH     {R0}
   \   00000244   B50F8DE2           ADD      R0,SP,#+724
   \   00000248   01002DE9           PUSH     {R0}
   \   0000024C   AF0F8DE2           ADD      R0,SP,#+700
   \   00000250   01002DE9           PUSH     {R0}
   \   00000254   A93F8DE2           ADD      R3,SP,#+676
   \   00000258   0A20A0E1           MOV      R2,R10
   \   0000025C   0910A0E1           MOV      R1,R9
   \   00000260   0500A0E1           MOV      R0,R5
   \   00000264   ........           BL       ??SetListviewRow
   \   00000268   0020A0E3           MOV      R2,#+0
   \   0000026C   0110A0E3           MOV      R1,#+1
   \   00000270   E10F8DE2           ADD      R0,SP,#+900
   \   00000274   ........           _BLF     ??_Tidy,??_Tidy??rA
   \   00000278   0020A0E3           MOV      R2,#+0
   \   0000027C   0110A0E3           MOV      R1,#+1
   \   00000280   DA0F8DE2           ADD      R0,SP,#+872
   \   00000284   ........           _BLF     ??_Tidy,??_Tidy??rA
   \   00000288   0020A0E3           MOV      R2,#+0
   \   0000028C   0110A0E3           MOV      R1,#+1
   \   00000290   D30F8DE2           ADD      R0,SP,#+844
   \   00000294   ........           _BLF     ??_Tidy,??_Tidy??rA
   \   00000298   0020A0E3           MOV      R2,#+0
   \   0000029C   0110A0E3           MOV      R1,#+1
   \   000002A0   CC0F8DE2           ADD      R0,SP,#+816
   \   000002A4   ........           _BLF     ??_Tidy,??_Tidy??rA
   \   000002A8   0020A0E3           MOV      R2,#+0
   \   000002AC   0110A0E3           MOV      R1,#+1
   \   000002B0   C50F8DE2           ADD      R0,SP,#+788
   \   000002B4   ........           _BLF     ??_Tidy,??_Tidy??rA
   \   000002B8   0020A0E3           MOV      R2,#+0
   \   000002BC   0110A0E3           MOV      R1,#+1
   \   000002C0   BE0F8DE2           ADD      R0,SP,#+760
   \   000002C4   ........           _BLF     ??_Tidy,??_Tidy??rA
   \   000002C8   0020A0E3           MOV      R2,#+0
   \   000002CC   0110A0E3           MOV      R1,#+1
   \   000002D0   B70F8DE2           ADD      R0,SP,#+732
   \   000002D4   ........           _BLF     ??_Tidy,??_Tidy??rA
   \   000002D8   0020A0E3           MOV      R2,#+0
   \   000002DC   0110A0E3           MOV      R1,#+1
   \   000002E0   B00F8DE2           ADD      R0,SP,#+704
   \   000002E4   ........           _BLF     ??_Tidy,??_Tidy??rA
   \   000002E8   0020A0E3           MOV      R2,#+0
   \   000002EC   0110A0E3           MOV      R1,#+1
   \   000002F0   A90F8DE2           ADD      R0,SP,#+676
   \   000002F4   ........           _BLF     ??_Tidy,??_Tidy??rA
    447                               AnsiString CalVal    = LibGetValue(SVT_IO_CH_CAL_VAL, index, ePtr);
   \   000002F8   0000A0E3           MOV      R0,#+0
   \   000002FC   01002DE9           PUSH     {R0}
   \   00000300   0430A0E1           MOV      R3,R4
   \   00000304   0A20A0E1           MOV      R2,R10
   \   00000308   4F1EA0E3           MOV      R1,#+1264
   \   0000030C   E8008DE2           ADD      R0,SP,#+232
   \   00000310   ........           _BLF     ??LibGetValue,??LibGetValue??rA
   \   00000314   24D08DE2           ADD      SP,SP,#+36
    448                               AnsiString CnvCalErr = LibGetValue(SVT_IO_CH_CNV_CAL_ERROR, index, ePtr);
   \   00000318   0000A0E3           MOV      R0,#+0
   \   0000031C   01002DE9           PUSH     {R0}
   \   00000320   0430A0E1           MOV      R3,R4
   \   00000324   0A20A0E1           MOV      R2,R10
   \   00000328   0410A0E3           MOV      R1,#+4
   \   0000032C   481D81E3           ORR      R1,R1,#0x1200
   \   00000330   E4008DE2           ADD      R0,SP,#+228
   \   00000334   ........           _BLF     ??LibGetValue,??LibGetValue??rA
    449                               AnsiString PromStat  = LibGetValue(SVT_IO_CH_EEP_SNS_STAT, index, ePtr);
   \   00000338   0000A0E3           MOV      R0,#+0
   \   0000033C   01002DE9           PUSH     {R0}
   \   00000340   0430A0E1           MOV      R3,R4
   \   00000344   0A20A0E1           MOV      R2,R10
   \   00000348   0B10A0E3           MOV      R1,#+11
   \   0000034C   481D81E3           ORR      R1,R1,#0x1200
   \   00000350   410F8DE2           ADD      R0,SP,#+260
   \   00000354   ........           _BLF     ??LibGetValue,??LibGetValue??rA
    450                               AnsiString PCStat    = LibGetValue(SVT_IO_CH_EEP_PC_STAT, index, ePtr);
   \   00000358   0000A0E3           MOV      R0,#+0
   \   0000035C   01002DE9           PUSH     {R0}
   \   00000360   0430A0E1           MOV      R3,R4
   \   00000364   0A20A0E1           MOV      R2,R10
   \   00000368   0A10A0E3           MOV      R1,#+10
   \   0000036C   481D81E3           ORR      R1,R1,#0x1200
   \   00000370   730F8DE2           ADD      R0,SP,#+460
   \   00000374   ........           _BLF     ??LibGetValue,??LibGetValue??rA
    451                               AnsiString UsePCSetUp = LibGetValue(SVT_IO_CH_EEP_USE_PCDATA, index, ePtr);
   \   00000378   0000A0E3           MOV      R0,#+0
   \   0000037C   01002DE9           PUSH     {R0}
   \   00000380   0430A0E1           MOV      R3,R4
   \   00000384   0A20A0E1           MOV      R2,R10
   \   00000388   0910A0E3           MOV      R1,#+9
   \   0000038C   481D81E3           ORR      R1,R1,#0x1200
   \   00000390   7B0F8DE2           ADD      R0,SP,#+492
   \   00000394   ........           _BLF     ??LibGetValue,??LibGetValue??rA
    452                               AnsiString ADSns     = LibGetValue(SVT_IO_CH_AD_SENSOR, index, ePtr);
   \   00000398   0000A0E3           MOV      R0,#+0
   \   0000039C   01002DE9           PUSH     {R0}
   \   000003A0   0430A0E1           MOV      R3,R4
   \   000003A4   0A20A0E1           MOV      R2,R10
   \   000003A8   0710A0E3           MOV      R1,#+7
   \   000003AC   481D81E3           ORR      R1,R1,#0x1200
   \   000003B0   830F8DE2           ADD      R0,SP,#+524
   \   000003B4   ........           _BLF     ??LibGetValue,??LibGetValue??rA
    453                               AnsiString PCSns     = LibGetValue(SVT_IO_CH_FROM_PC_SENSOR, index, ePtr);
   \   000003B8   0000A0E3           MOV      R0,#+0
   \   000003BC   01002DE9           PUSH     {R0}
   \   000003C0   0430A0E1           MOV      R3,R4
   \   000003C4   0A20A0E1           MOV      R2,R10
   \   000003C8   0510A0E3           MOV      R1,#+5
   \   000003CC   481D81E3           ORR      R1,R1,#0x1200
   \   000003D0   4C0F8DE2           ADD      R0,SP,#+304
   \   000003D4   ........           _BLF     ??LibGetValue,??LibGetValue??rA
    454                               AnsiString UseFromPc = LibGetValue(SVT_IO_CH_USE_PC_SETUP, index, ePtr);
   \   000003D8   0000A0E3           MOV      R0,#+0
   \   000003DC   01002DE9           PUSH     {R0}
   \   000003E0   0430A0E1           MOV      R3,R4
   \   000003E4   0A20A0E1           MOV      R2,R10
   \   000003E8   0610A0E3           MOV      R1,#+6
   \   000003EC   481D81E3           ORR      R1,R1,#0x1200
   \   000003F0   540F8DE2           ADD      R0,SP,#+336
   \   000003F4   ........           _BLF     ??LibGetValue,??LibGetValue??rA
    455                               SetListviewRow2(LCnt, CalVal, CnvCalErr, PromStat, PCStat, UsePCSetUp,  ADSns,  PCSns,  UseFromPc);
   \   000003F8   0020A0E3           MOV      R2,#+0
   \   000003FC   0210A0E1           MOV      R1,R2
   \   00000400   54008DE2           ADD      R0,SP,#+84
   \   00000404   ........           _BLF     ??_Tidy,??_Tidy??rA
   \   00000408   0830A0E1           MOV      R3,R8
   \   0000040C   0020A0E3           MOV      R2,#+0
   \   00000410   541F8DE2           ADD      R1,SP,#+336
   \   00000414   54008DE2           ADD      R0,SP,#+84
   \   00000418   ........           _BLF     ??assign,??assign??rA
   \   0000041C   0020A0E3           MOV      R2,#+0
   \   00000420   0210A0E1           MOV      R1,R2
   \   00000424   38008DE2           ADD      R0,SP,#+56
   \   00000428   ........           _BLF     ??_Tidy,??_Tidy??rA
   \   0000042C   0830A0E1           MOV      R3,R8
   \   00000430   0020A0E3           MOV      R2,#+0
   \   00000434   4D1F8DE2           ADD      R1,SP,#+308
   \   00000438   38008DE2           ADD      R0,SP,#+56
   \   0000043C   ........           _BLF     ??assign,??assign??rA
   \   00000440   0020A0E3           MOV      R2,#+0
   \   00000444   0210A0E1           MOV      R1,R2
   \   00000448   9A0F8DE2           ADD      R0,SP,#+616
   \   0000044C   ........           _BLF     ??_Tidy,??_Tidy??rA
   \   00000450   0830A0E1           MOV      R3,R8
   \   00000454   0020A0E3           MOV      R2,#+0
   \   00000458   851F8DE2           ADD      R1,SP,#+532
   \   0000045C   9A0F8DE2           ADD      R0,SP,#+616
   \   00000460   ........           _BLF     ??assign,??assign??rA
   \   00000464   0020A0E3           MOV      R2,#+0
   \   00000468   0210A0E1           MOV      R1,R2
   \   0000046C   0C008DE2           ADD      R0,SP,#+12
   \   00000470   400E80E2           ADD      R0,R0,#+1024
   \   00000474   ........           _BLF     ??_Tidy,??_Tidy??rA
   \   00000478   0830A0E1           MOV      R3,R8
   \   0000047C   0020A0E3           MOV      R2,#+0
   \   00000480   7E1F8DE2           ADD      R1,SP,#+504
   \   00000484   0C008DE2           ADD      R0,SP,#+12
   \   00000488   400E80E2           ADD      R0,R0,#+1024
   \   0000048C   ........           _BLF     ??assign,??assign??rA
   \   00000490   0020A0E3           MOV      R2,#+0
   \   00000494   0210A0E1           MOV      R1,R2
   \   00000498   FC0F8DE2           ADD      R0,SP,#+1008
   \   0000049C   ........           _BLF     ??_Tidy,??_Tidy??rA
   \   000004A0   0830A0E1           MOV      R3,R8
   \   000004A4   0020A0E3           MOV      R2,#+0
   \   000004A8   771F8DE2           ADD      R1,SP,#+476
   \   000004AC   FC0F8DE2           ADD      R0,SP,#+1008
   \   000004B0   ........           _BLF     ??assign,??assign??rA
   \   000004B4   0020A0E3           MOV      R2,#+0
   \   000004B8   0210A0E1           MOV      R1,R2
   \   000004BC   F50F8DE2           ADD      R0,SP,#+980
   \   000004C0   ........           _BLF     ??_Tidy,??_Tidy??rA
   \   000004C4   0830A0E1           MOV      R3,R8
   \   000004C8   0020A0E3           MOV      R2,#+0
   \   000004CC   461F8DE2           ADD      R1,SP,#+280
   \   000004D0   F50F8DE2           ADD      R0,SP,#+980
   \   000004D4   ........           _BLF     ??assign,??assign??rA
   \   000004D8   0020A0E3           MOV      R2,#+0
   \   000004DC   0210A0E1           MOV      R1,R2
   \   000004E0   EE0F8DE2           ADD      R0,SP,#+952
   \   000004E4   ........           _BLF     ??_Tidy,??_Tidy??rA
   \   000004E8   0830A0E1           MOV      R3,R8
   \   000004EC   0020A0E3           MOV      R2,#+0
   \   000004F0   FC108DE2           ADD      R1,SP,#+252
   \   000004F4   EE0F8DE2           ADD      R0,SP,#+952
   \   000004F8   ........           _BLF     ??assign,??assign??rA
   \   000004FC   0020A0E3           MOV      R2,#+0
   \   00000500   0210A0E1           MOV      R1,R2
   \   00000504   E70F8DE2           ADD      R0,SP,#+924
   \   00000508   ........           _BLF     ??_Tidy,??_Tidy??rA
   \   0000050C   0830A0E1           MOV      R3,R8
   \   00000510   0020A0E3           MOV      R2,#+0
   \   00000514   E0108DE2           ADD      R1,SP,#+224
   \   00000518   E70F8DE2           ADD      R0,SP,#+924
   \   0000051C   ........           _BLF     ??assign,??assign??rA
   \   00000520   54008DE2           ADD      R0,SP,#+84
   \   00000524   01002DE9           PUSH     {R0}
   \   00000528   3C008DE2           ADD      R0,SP,#+60
   \   0000052C   01002DE9           PUSH     {R0}
   \   00000530   9C0F8DE2           ADD      R0,SP,#+624
   \   00000534   01002DE9           PUSH     {R0}
   \   00000538   18008DE2           ADD      R0,SP,#+24
   \   0000053C   400E80E2           ADD      R0,R0,#+1024
   \   00000540   01002DE9           PUSH     {R0}
   \   00000544   400E8DE2           ADD      R0,SP,#+1024
   \   00000548   01002DE9           PUSH     {R0}
   \   0000054C   FA0F8DE2           ADD      R0,SP,#+1000
   \   00000550   01002DE9           PUSH     {R0}
   \   00000554   F43F8DE2           ADD      R3,SP,#+976
   \   00000558   ED2F8DE2           ADD      R2,SP,#+948
   \   0000055C   0910A0E1           MOV      R1,R9
   \   00000560   0500A0E1           MOV      R0,R5
   \   00000564   ........           BL       ??SetListviewRow2
   \   00000568   34D08DE2           ADD      SP,SP,#+52
   \   0000056C   0020A0E3           MOV      R2,#+0
   \   00000570   0110A0E3           MOV      R1,#+1
   \   00000574   38008DE2           ADD      R0,SP,#+56
   \   00000578   ........           _BLF     ??_Tidy,??_Tidy??rA
   \   0000057C   0020A0E3           MOV      R2,#+0
   \   00000580   0110A0E3           MOV      R1,#+1
   \   00000584   1C008DE2           ADD      R0,SP,#+28
   \   00000588   ........           _BLF     ??_Tidy,??_Tidy??rA
   \   0000058C   0020A0E3           MOV      R2,#+0
   \   00000590   0110A0E3           MOV      R1,#+1
   \   00000594   930F8DE2           ADD      R0,SP,#+588
   \   00000598   ........           _BLF     ??_Tidy,??_Tidy??rA
   \   0000059C   0020A0E3           MOV      R2,#+0
   \   000005A0   0110A0E3           MOV      R1,#+1
   \   000005A4   FC0F8DE2           ADD      R0,SP,#+1008
   \   000005A8   ........           _BLF     ??_Tidy,??_Tidy??rA
   \   000005AC   0020A0E3           MOV      R2,#+0
   \   000005B0   0110A0E3           MOV      R1,#+1
   \   000005B4   F50F8DE2           ADD      R0,SP,#+980
   \   000005B8   ........           _BLF     ??_Tidy,??_Tidy??rA
   \   000005BC   0020A0E3           MOV      R2,#+0
   \   000005C0   0110A0E3           MOV      R1,#+1
   \   000005C4   EE0F8DE2           ADD      R0,SP,#+952
   \   000005C8   ........           _BLF     ??_Tidy,??_Tidy??rA
   \   000005CC   0020A0E3           MOV      R2,#+0
   \   000005D0   0110A0E3           MOV      R1,#+1
   \   000005D4   E70F8DE2           ADD      R0,SP,#+924
   \   000005D8   ........           _BLF     ??_Tidy,??_Tidy??rA
   \   000005DC   0020A0E3           MOV      R2,#+0
   \   000005E0   0110A0E3           MOV      R1,#+1
   \   000005E4   E00F8DE2           ADD      R0,SP,#+896
   \   000005E8   ........           _BLF     ??_Tidy,??_Tidy??rA
    456                               LCnt++;
   \   000005EC   019089E2           ADD      R9,R9,#+1
    457                            }
   \   000005F0   0020A0E3           MOV      R2,#+0
   \   000005F4   0110A0E3           MOV      R1,#+1
   \   000005F8   4D0F8DE2           ADD      R0,SP,#+308
   \   000005FC   ........           _BLF     ??_Tidy,??_Tidy??rA
   \   00000600   0020A0E3           MOV      R2,#+0
   \   00000604   0110A0E3           MOV      R1,#+1
   \   00000608   460F8DE2           ADD      R0,SP,#+280
   \   0000060C   ........           _BLF     ??_Tidy,??_Tidy??rA
   \   00000610   0020A0E3           MOV      R2,#+0
   \   00000614   0110A0E3           MOV      R1,#+1
   \   00000618   7E0F8DE2           ADD      R0,SP,#+504
   \   0000061C   ........           _BLF     ??_Tidy,??_Tidy??rA
   \   00000620   0020A0E3           MOV      R2,#+0
   \   00000624   0110A0E3           MOV      R1,#+1
   \   00000628   770F8DE2           ADD      R0,SP,#+476
   \   0000062C   ........           _BLF     ??_Tidy,??_Tidy??rA
   \   00000630   0020A0E3           MOV      R2,#+0
   \   00000634   0110A0E3           MOV      R1,#+1
   \   00000638   700F8DE2           ADD      R0,SP,#+448
   \   0000063C   ........           _BLF     ??_Tidy,??_Tidy??rA
   \   00000640   0020A0E3           MOV      R2,#+0
   \   00000644   0110A0E3           MOV      R1,#+1
   \   00000648   FC008DE2           ADD      R0,SP,#+252
   \   0000064C   ........           _BLF     ??_Tidy,??_Tidy??rA
   \   00000650   0020A0E3           MOV      R2,#+0
   \   00000654   0110A0E3           MOV      R1,#+1
   \   00000658   E0008DE2           ADD      R0,SP,#+224
   \   0000065C   ........           _BLF     ??_Tidy,??_Tidy??rA
   \   00000660   0020A0E3           MOV      R2,#+0
   \   00000664   0110A0E3           MOV      R1,#+1
   \   00000668   C4008DE2           ADD      R0,SP,#+196
   \   0000066C   ........           _BLF     ??_Tidy,??_Tidy??rA
   \   00000670   0020A0E3           MOV      R2,#+0
   \   00000674   0110A0E3           MOV      R1,#+1
   \   00000678   0D00A0E1           MOV      R0,SP
   \   0000067C   ........           _BLF     ??_Tidy,??_Tidy??rA
   \   00000680   0020A0E3           MOV      R2,#+0
   \   00000684   0110A0E3           MOV      R1,#+1
   \   00000688   A8008DE2           ADD      R0,SP,#+168
   \   0000068C   ........           _BLF     ??_Tidy,??_Tidy??rA
   \   00000690   0020A0E3           MOV      R2,#+0
   \   00000694   0110A0E3           MOV      R1,#+1
   \   00000698   8C008DE2           ADD      R0,SP,#+140
   \   0000069C   ........           _BLF     ??_Tidy,??_Tidy??rA
   \   000006A0   0020A0E3           MOV      R2,#+0
   \   000006A4   0110A0E3           MOV      R1,#+1
   \   000006A8   70008DE2           ADD      R0,SP,#+112
   \   000006AC   ........           _BLF     ??_Tidy,??_Tidy??rA
   \   000006B0   0020A0E3           MOV      R2,#+0
   \   000006B4   0110A0E3           MOV      R1,#+1
   \   000006B8   690F8DE2           ADD      R0,SP,#+420
   \   000006BC   ........           _BLF     ??_Tidy,??_Tidy??rA
   \   000006C0   0020A0E3           MOV      R2,#+0
   \   000006C4   0110A0E3           MOV      R1,#+1
   \   000006C8   620F8DE2           ADD      R0,SP,#+392
   \   000006CC   ........           _BLF     ??_Tidy,??_Tidy??rA
   \   000006D0   0020A0E3           MOV      R2,#+0
   \   000006D4   0110A0E3           MOV      R1,#+1
   \   000006D8   54008DE2           ADD      R0,SP,#+84
   \   000006DC   ........           _BLF     ??_Tidy,??_Tidy??rA
   \   000006E0   0020A0E3           MOV      R2,#+0
   \   000006E4   0110A0E3           MOV      R1,#+1
   \   000006E8   5B0F8DE2           ADD      R0,SP,#+364
   \   000006EC   ........           _BLF     ??_Tidy,??_Tidy??rA
    458                         }
   \                     ??UpdateSysWin_11:
   \   000006F0   0020A0E3           MOV      R2,#+0
   \   000006F4   0110A0E3           MOV      R1,#+1
   \   000006F8   9A0F8DE2           ADD      R0,SP,#+616
   \   000006FC   ........           _BLF     ??_Tidy,??_Tidy??rA
   \   00000700   01A08AE2           ADD      R10,R10,#+1
   \   00000704   0E005AE3           CMP      R10,#+14
   \   00000708   F10200AA           BGE      ??UpdateSysWin_4
   \                     ??UpdateSysWin_6:
   \   0000070C   0000A0E3           MOV      R0,#+0
   \   00000710   01002DE9           PUSH     {R0}
   \   00000714   0430A0E1           MOV      R3,R4
   \   00000718   0A20A0E1           MOV      R2,R10
   \   0000071C   0710A0E1           MOV      R1,R7
   \   00000720   9B0F8DE2           ADD      R0,SP,#+620
   \   00000724   ........           _BLF     ??LibGetValue,??LibGetValue??rA
   \   00000728   9B0F8DE2           ADD      R0,SP,#+620
   \   0000072C   ........           _BLF     ??IsEmpty,??IsEmpty??rA
   \   00000730   000050E3           CMP      R0,#+0
   \   00000734   04D08DE2           ADD      SP,SP,#+4
   \   00000738   ECFFFF1A           BNE      ??UpdateSysWin_11
   \   0000073C   0000A0E3           MOV      R0,#+0
   \   00000740   01002DE9           PUSH     {R0}
   \   00000744   0430A0E1           MOV      R3,R4
   \   00000748   0A20A0E1           MOV      R2,R10
   \   0000074C   0610A0E1           MOV      R1,R6
   \   00000750   5C0F8DE2           ADD      R0,SP,#+368
   \   00000754   ........           _BLF     ??LibGetValue,??LibGetValue??rA
   \   00000758   0000A0E3           MOV      R0,#+0
   \   0000075C   01002DE9           PUSH     {R0}
   \   00000760   0430A0E1           MOV      R3,R4
   \   00000764   0A20A0E1           MOV      R2,R10
   \   00000768   011086E2           ADD      R1,R6,#+1
   \   0000076C   5C008DE2           ADD      R0,SP,#+92
   \   00000770   ........           _BLF     ??LibGetValue,??LibGetValue??rA
   \   00000774   0000A0E3           MOV      R0,#+0
   \   00000778   01002DE9           PUSH     {R0}
   \   0000077C   0430A0E1           MOV      R3,R4
   \   00000780   0A20A0E1           MOV      R2,R10
   \   00000784   021086E3           ORR      R1,R6,#0x2
   \   00000788   650F8DE2           ADD      R0,SP,#+404
   \   0000078C   ........           _BLF     ??LibGetValue,??LibGetValue??rA
   \   00000790   0000A0E3           MOV      R0,#+0
   \   00000794   01002DE9           PUSH     {R0}
   \   00000798   0430A0E1           MOV      R3,R4
   \   0000079C   0A20A0E1           MOV      R2,R10
   \   000007A0   041086E2           ADD      R1,R6,#+4
   \   000007A4   6D0F8DE2           ADD      R0,SP,#+436
   \   000007A8   ........           _BLF     ??LibGetValue,??LibGetValue??rA
   \   000007AC   80008DE2           ADD      R0,SP,#+128
   \   000007B0   ........           _BLF     ??AnsiString_1,??AnsiString??rA_1
   \   000007B4   9C008DE2           ADD      R0,SP,#+156
   \   000007B8   ........           _BLF     ??AnsiString_1,??AnsiString??rA_1
   \   000007BC   B8008DE2           ADD      R0,SP,#+184
   \   000007C0   ........           _BLF     ??AnsiString_1,??AnsiString??rA_1
   \   000007C4   10008DE2           ADD      R0,SP,#+16
   \   000007C8   ........           _BLF     ??AnsiString_1,??AnsiString??rA_1
   \   000007CC   0A0184E0           ADD      R0,R4,R10, LSL #+2
   \   000007D0   A0B190E5           LDR      R11,[R0, #+416]
   \   000007D4   10D08DE2           ADD      SP,SP,#+16
   \   000007D8   00005BE3           CMP      R11,#+0
   \   000007DC   39FEFF0A           BEQ      ??UpdateSysWin_9
   \   000007E0   0000A0E3           MOV      R0,#+0
   \   000007E4   01002DE9           PUSH     {R0}
   \   000007E8   0B30A0E1           MOV      R3,R11
   \   000007EC   0A20A0E1           MOV      R2,R10
   \   000007F0   391046E2           SUB      R1,R6,#+57
   \   000007F4   550F8DE2           ADD      R0,SP,#+340
   \   000007F8   ........           _BLF     ??LibGetValue,??LibGetValue??rA
   \   000007FC   1C069FE5           LDR      R0,??UpdateSysWin_10+0x4  ;; ??npos
   \   00000800   0020A0E3           MOV      R2,#+0
   \   00000804   008090E5           LDR      R8,[R0, #+0]
   \   00000808   551F8DE2           ADD      R1,SP,#+340
   \   0000080C   0830A0E1           MOV      R3,R8
   \   00000810   74008DE2           ADD      R0,SP,#+116
   \   00000814   ........           _BLF     ??assign,??assign??rA
   \   00000818   0020A0E3           MOV      R2,#+0
   \   0000081C   0110A0E3           MOV      R1,#+1
   \   00000820   550F8DE2           ADD      R0,SP,#+340
   \   00000824   ........           _BLF     ??_Tidy,??_Tidy??rA
   \   00000828   0000A0E3           MOV      R0,#+0
   \   0000082C   01002DE9           PUSH     {R0}
   \   00000830   0B30A0E1           MOV      R3,R11
   \   00000834   0A20A0E1           MOV      R2,R10
   \   00000838   381046E2           SUB      R1,R6,#+56
   \   0000083C   870F8DE2           ADD      R0,SP,#+540
   \   00000840   ........           _BLF     ??LibGetValue,??LibGetValue??rA
   \   00000844   0830A0E1           MOV      R3,R8
   \   00000848   0020A0E3           MOV      R2,#+0
   \   0000084C   871F8DE2           ADD      R1,SP,#+540
   \   00000850   94008DE2           ADD      R0,SP,#+148
   \   00000854   ........           _BLF     ??assign,??assign??rA
   \   00000858   0020A0E3           MOV      R2,#+0
   \   0000085C   0110A0E3           MOV      R1,#+1
   \   00000860   870F8DE2           ADD      R0,SP,#+540
   \   00000864   ........           _BLF     ??_Tidy,??_Tidy??rA
   \   00000868   0000A0E3           MOV      R0,#+0
   \   0000086C   01002DE9           PUSH     {R0}
   \   00000870   0B30A0E1           MOV      R3,R11
   \   00000874   0A20A0E1           MOV      R2,R10
   \   00000878   3B1046E2           SUB      R1,R6,#+59
   \   0000087C   8F0F8DE2           ADD      R0,SP,#+572
   \   00000880   ........           _BLF     ??LibGetValue,??LibGetValue??rA
   \   00000884   0830A0E1           MOV      R3,R8
   \   00000888   0020A0E3           MOV      R2,#+0
   \   0000088C   8F1F8DE2           ADD      R1,SP,#+572
   \   00000890   B4008DE2           ADD      R0,SP,#+180
   \   00000894   ........           _BLF     ??assign,??assign??rA
   \   00000898   0020A0E3           MOV      R2,#+0
   \   0000089C   0110A0E3           MOV      R1,#+1
   \   000008A0   8F0F8DE2           ADD      R0,SP,#+572
   \   000008A4   ........           _BLF     ??_Tidy,??_Tidy??rA
   \   000008A8   A0009BE5           LDR      R0,[R11, #+160]
   \   000008AC   0CD08DE2           ADD      SP,SP,#+12
   \   000008B0   3E0040E2           SUB      R0,R0,#+62
   \   000008B4   800E40E2           SUB      R0,R0,#+2048
   \   000008B8   410050E3           CMP      R0,#+65
   \   000008BC   01FEFF8A           BHI      ??UpdateSysWin_9
   \   000008C0   021F8FE2           ADR      R1,??UpdateSysWin_2
   \   000008C4   8000A0E1           MOV      R0,R0, LSL #+1
   \   000008C8   F01091E1           LDRSH    R1,[R1, R0]
   \   000008CC   01F18FE0           ADD      PC,PC,R1, LSL #+2
   \                     ??UpdateSysWin_2:
   \   000008D0   2F002F00FDFD       DC16     +47,+47,+65021,+65021
   \              FDFD        
   \   000008D8   FDFDFDFDFDFD       DC16     +65021,+65021,+65021,+65021
   \              FDFD        
   \   000008E0   FDFDFDFDFDFD       DC16     +65021,+65021,+65021,+65021
   \              FDFD        
   \   000008E8   FDFDFDFDFDFD       DC16     +65021,+65021,+65021,+65021
   \              FDFD        
   \   000008F0   FDFDFDFDFDFD       DC16     +65021,+65021,+65021,+65021
   \              FDFD        
   \   000008F8   FDFDFDFD2F00       DC16     +65021,+65021,+47,+65021
   \              FDFD        
   \   00000900   FDFDFDFDFDFD       DC16     +65021,+65021,+65021,+65021
   \              FDFD        
   \   00000908   FDFDFDFDFDFD       DC16     +65021,+65021,+65021,+65021
   \              FDFD        
   \   00000910   20002000FDFD       DC16     +32,+32,+65021,+65021
   \              FDFD        
   \   00000918   FDFDFDFDFDFD       DC16     +65021,+65021,+65021,+65021
   \              FDFD        
   \   00000920   FDFDFDFD2000       DC16     +65021,+65021,+32,+65006
   \              EEFD        
   \   00000928   FDFDFDFDFDFD       DC16     +65021,+65021,+65021,+65021
   \              FDFD        
   \   00000930   FDFDFDFDFDFD       DC16     +65021,+65021,+65021,+65021
   \              FDFD        
   \   00000938   FDFDFDFDFDFD       DC16     +65021,+65021,+65021,+65021
   \              FDFD        
   \   00000940   FDFDFDFDFDFD       DC16     +65021,+65021,+65021,+65021
   \              FDFD        
   \   00000948   FDFDFDFDFDFD       DC16     +65021,+65021,+65021,+65021
   \              FDFD        
   \   00000950   FDFDEEFD           DC16     +65021,+65006
   \                     ??UpdateSysWin_12:
   \   00000954   0A10A0E3           MOV      R1,#+10
   \   00000958   401F81E3           ORR      R1,R1,#0x100
   \   0000095C   28008DE2           ADD      R0,SP,#+40
   \   00000960   400E80E2           ADD      R0,R0,#+1024
   \   00000964   ........           _BLF     ??FindDictionaryWord,??FindDictionaryWord??rA
   \   00000968   0830A0E1           MOV      R3,R8
   \   0000096C   0020A0E3           MOV      R2,#+0
   \   00000970   28108DE2           ADD      R1,SP,#+40
   \   00000974   401E81E2           ADD      R1,R1,#+1024
   \   00000978   0D00A0E1           MOV      R0,SP
   \   0000097C   ........           _BLF     ??assign,??assign??rA
   \   00000980   0020A0E3           MOV      R2,#+0
   \   00000984   0110A0E3           MOV      R1,#+1
   \   00000988   28008DE2           ADD      R0,SP,#+40
   \   0000098C   CBFDFFEA           B        ??UpdateSysWin_8
   \                     ??UpdateSysWin_13:
   \   00000990   431FA0E3           MOV      R1,#+268
   \   00000994   44008DE2           ADD      R0,SP,#+68
   \   00000998   400E80E2           ADD      R0,R0,#+1024
   \   0000099C   ........           _BLF     ??FindDictionaryWord,??FindDictionaryWord??rA
   \   000009A0   0830A0E1           MOV      R3,R8
   \   000009A4   0020A0E3           MOV      R2,#+0
   \   000009A8   44108DE2           ADD      R1,SP,#+68
   \   000009AC   401E81E2           ADD      R1,R1,#+1024
   \   000009B0   0D00A0E1           MOV      R0,SP
   \   000009B4   ........           _BLF     ??assign,??assign??rA
   \   000009B8   0020A0E3           MOV      R2,#+0
   \   000009BC   0110A0E3           MOV      R1,#+1
   \   000009C0   44008DE2           ADD      R0,SP,#+68
   \   000009C4   BDFDFFEA           B        ??UpdateSysWin_8
    459                      }
    460                      break;
    461                   case C_SC_W_INGRESS:
    462                      {
    463                         SCWaterIngress *ePtr = (SCWaterIngress *)CurrentIOUnit;
    464                         for (int index = 0; index < MAX_W_INGR_CHANNELS; index++)
   \                     ??UpdateSysWin_14:
   \   000009C8   0090A0E3           MOV      R9,#+0
    465                         {
    466                            AnsiString Name  = LibGetValue(SVT_IO_CH_NAME, index, ePtr);
   \                     ??UpdateSysWin_15:
   \   000009CC   0000A0E3           MOV      R0,#+0
   \   000009D0   01002DE9           PUSH     {R0}
   \   000009D4   0430A0E1           MOV      R3,R4
   \   000009D8   0920A0E1           MOV      R2,R9
   \   000009DC   0710A0E1           MOV      R1,R7
   \   000009E0   AC008DE2           ADD      R0,SP,#+172
   \   000009E4   ........           _BLF     ??LibGetValue,??LibGetValue??rA
    467                            AnsiString Loc   = LibGetValue(SVT_IO_CH_LOCATION, index, ePtr);
   \   000009E8   0000A0E3           MOV      R0,#+0
   \   000009EC   01002DE9           PUSH     {R0}
   \   000009F0   0430A0E1           MOV      R3,R4
   \   000009F4   0920A0E1           MOV      R2,R9
   \   000009F8   0610A0E1           MOV      R1,R6
   \   000009FC   94008DE2           ADD      R0,SP,#+148
   \   00000A00   ........           _BLF     ??LibGetValue,??LibGetValue??rA
    468                            AnsiString Type  = LibGetValue(SVT_IO_CH_TYPE_TEXT, index, ePtr);
   \   00000A04   0000A0E3           MOV      R0,#+0
   \   00000A08   01002DE9           PUSH     {R0}
   \   00000A0C   0430A0E1           MOV      R3,R4
   \   00000A10   0920A0E1           MOV      R2,R9
   \   00000A14   011086E2           ADD      R1,R6,#+1
   \   00000A18   7C008DE2           ADD      R0,SP,#+124
   \   00000A1C   ........           _BLF     ??LibGetValue,??LibGetValue??rA
    469                            AnsiString Raw   = LibGetValue(SVT_IO_CH_RAW_VAL, index, ePtr);
   \   00000A20   0000A0E3           MOV      R0,#+0
   \   00000A24   01002DE9           PUSH     {R0}
   \   00000A28   0430A0E1           MOV      R3,R4
   \   00000A2C   0920A0E1           MOV      R2,R9
   \   00000A30   021086E3           ORR      R1,R6,#0x2
   \   00000A34   6D0F8DE2           ADD      R0,SP,#+436
   \   00000A38   ........           _BLF     ??LibGetValue,??LibGetValue??rA
    470                            AnsiString Value = LibGetValue(SVT_IO_CH_VALUE, index, ePtr);
   \   00000A3C   0000A0E3           MOV      R0,#+0
   \   00000A40   01002DE9           PUSH     {R0}
   \   00000A44   0430A0E1           MOV      R3,R4
   \   00000A48   0920A0E1           MOV      R2,R9
   \   00000A4C   041086E2           ADD      R1,R6,#+4
   \   00000A50   670F8DE2           ADD      R0,SP,#+412
   \   00000A54   ........           _BLF     ??LibGetValue,??LibGetValue??rA
    471                            AnsiString GainStr, OffsetStr, EnableStr, UnitStr;
   \   00000A58   68008DE2           ADD      R0,SP,#+104
   \   00000A5C   ........           _BLF     ??AnsiString_1,??AnsiString??rA_1
   \   00000A60   600F8DE2           ADD      R0,SP,#+384
   \   00000A64   ........           _BLF     ??AnsiString_1,??AnsiString??rA_1
   \   00000A68   4C008DE2           ADD      R0,SP,#+76
   \   00000A6C   ........           _BLF     ??AnsiString_1,??AnsiString??rA_1
   \   00000A70   30008DE2           ADD      R0,SP,#+48
   \   00000A74   ........           _BLF     ??AnsiString_1,??AnsiString??rA_1
    472                            PROIOComponent *SnsPtr = ePtr->IOComponent[index];
   \   00000A78   090184E0           ADD      R0,R4,R9, LSL #+2
   \   00000A7C   A0A190E5           LDR      R10,[R0, #+416]
    473                            if (SnsPtr)
   \   00000A80   14D08DE2           ADD      SP,SP,#+20
   \   00000A84   00005AE3           CMP      R10,#+0
   \   00000A88   3400000A           BEQ      ??UpdateSysWin_16
    474                            {
    475                               GainStr   = LibGetValue(SVT_AI_GAIN, index, SnsPtr);
   \   00000A8C   0000A0E3           MOV      R0,#+0
   \   00000A90   01002DE9           PUSH     {R0}
   \   00000A94   0A30A0E1           MOV      R3,R10
   \   00000A98   0920A0E1           MOV      R2,R9
   \   00000A9C   391046E2           SUB      R1,R6,#+57
   \   00000AA0   04008DE2           ADD      R0,SP,#+4
   \   00000AA4   ........           _BLF     ??LibGetValue,??LibGetValue??rA
   \   00000AA8   70039FE5           LDR      R0,??UpdateSysWin_10+0x4  ;; ??npos
   \   00000AAC   0020A0E3           MOV      R2,#+0
   \   00000AB0   008090E5           LDR      R8,[R0, #+0]
   \   00000AB4   04108DE2           ADD      R1,SP,#+4
   \   00000AB8   0830A0E1           MOV      R3,R8
   \   00000ABC   58008DE2           ADD      R0,SP,#+88
   \   00000AC0   ........           _BLF     ??assign,??assign??rA
   \   00000AC4   0020A0E3           MOV      R2,#+0
   \   00000AC8   0110A0E3           MOV      R1,#+1
   \   00000ACC   04008DE2           ADD      R0,SP,#+4
   \   00000AD0   ........           _BLF     ??_Tidy,??_Tidy??rA
    476                               OffsetStr = LibGetValue(SVT_AI_OFFSET, index, SnsPtr, &UnitStr);
   \   00000AD4   0000A0E3           MOV      R0,#+0
   \   00000AD8   01002DE9           PUSH     {R0}
   \   00000ADC   24008DE2           ADD      R0,SP,#+36
   \   00000AE0   01002DE9           PUSH     {R0}
   \   00000AE4   0A30A0E1           MOV      R3,R10
   \   00000AE8   0920A0E1           MOV      R2,R9
   \   00000AEC   381046E2           SUB      R1,R6,#+56
   \   00000AF0   8F0F8DE2           ADD      R0,SP,#+572
   \   00000AF4   ........           _BLF     ??LibGetValue_1,??LibGetValue??rA_1
   \   00000AF8   0830A0E1           MOV      R3,R8
   \   00000AFC   0020A0E3           MOV      R2,#+0
   \   00000B00   8F1F8DE2           ADD      R1,SP,#+572
   \   00000B04   5E0F8DE2           ADD      R0,SP,#+376
   \   00000B08   ........           _BLF     ??assign,??assign??rA
   \   00000B0C   0020A0E3           MOV      R2,#+0
   \   00000B10   0110A0E3           MOV      R1,#+1
   \   00000B14   8F0F8DE2           ADD      R0,SP,#+572
   \   00000B18   ........           _BLF     ??_Tidy,??_Tidy??rA
    477                               EnableStr = LibGetValue(SVT_AI_ENABLE_TEXT, index, SnsPtr);
   \   00000B1C   0000A0E3           MOV      R0,#+0
   \   00000B20   01002DE9           PUSH     {R0}
   \   00000B24   0A30A0E1           MOV      R3,R10
   \   00000B28   0920A0E1           MOV      R2,R9
   \   00000B2C   3B1046E2           SUB      R1,R6,#+59
   \   00000B30   890F8DE2           ADD      R0,SP,#+548
   \   00000B34   ........           _BLF     ??LibGetValue,??LibGetValue??rA
   \   00000B38   0830A0E1           MOV      R3,R8
   \   00000B3C   0020A0E3           MOV      R2,#+0
   \   00000B40   891F8DE2           ADD      R1,SP,#+548
   \   00000B44   48008DE2           ADD      R0,SP,#+72
   \   00000B48   ........           _BLF     ??assign,??assign??rA
   \   00000B4C   0020A0E3           MOV      R2,#+0
   \   00000B50   0110A0E3           MOV      R1,#+1
   \   00000B54   890F8DE2           ADD      R0,SP,#+548
   \   00000B58   ........           _BLF     ??_Tidy,??_Tidy??rA
   \   00000B5C   10D08DE2           ADD      SP,SP,#+16
    478                            }
    479                            SetListviewRow(index, index, Name, Loc, Type, "", Value, GainStr, OffsetStr, EnableStr, UnitStr);
   \                     ??UpdateSysWin_16:
   \   00000B60   0020A0E3           MOV      R2,#+0
   \   00000B64   0010A0E3           MOV      R1,#+0
   \   00000B68   C4008DE2           ADD      R0,SP,#+196
   \   00000B6C   ........           _BLF     ??_Tidy,??_Tidy??rA
   \   00000B70   A8029FE5           LDR      R0,??UpdateSysWin_10+0x4  ;; ??npos
   \   00000B74   0020A0E3           MOV      R2,#+0
   \   00000B78   008090E5           LDR      R8,[R0, #+0]
   \   00000B7C   1C108DE2           ADD      R1,SP,#+28
   \   00000B80   0830A0E1           MOV      R3,R8
   \   00000B84   C4008DE2           ADD      R0,SP,#+196
   \   00000B88   ........           _BLF     ??assign,??assign??rA
   \   00000B8C   0020A0E3           MOV      R2,#+0
   \   00000B90   0210A0E1           MOV      R1,R2
   \   00000B94   E0008DE2           ADD      R0,SP,#+224
   \   00000B98   ........           _BLF     ??_Tidy,??_Tidy??rA
   \   00000B9C   0830A0E1           MOV      R3,R8
   \   00000BA0   0020A0E3           MOV      R2,#+0
   \   00000BA4   38108DE2           ADD      R1,SP,#+56
   \   00000BA8   E0008DE2           ADD      R0,SP,#+224
   \   00000BAC   ........           _BLF     ??assign,??assign??rA
   \   00000BB0   0020A0E3           MOV      R2,#+0
   \   00000BB4   0210A0E1           MOV      R1,R2
   \   00000BB8   FC008DE2           ADD      R0,SP,#+252
   \   00000BBC   ........           _BLF     ??_Tidy,??_Tidy??rA
   \   00000BC0   0830A0E1           MOV      R3,R8
   \   00000BC4   0020A0E3           MOV      R2,#+0
   \   00000BC8   5B1F8DE2           ADD      R1,SP,#+364
   \   00000BCC   FC008DE2           ADD      R0,SP,#+252
   \   00000BD0   ........           _BLF     ??assign,??assign??rA
   \   00000BD4   0020A0E3           MOV      R2,#+0
   \   00000BD8   0210A0E1           MOV      R1,R2
   \   00000BDC   700F8DE2           ADD      R0,SP,#+448
   \   00000BE0   ........           _BLF     ??_Tidy,??_Tidy??rA
   \   00000BE4   0830A0E1           MOV      R3,R8
   \   00000BE8   0020A0E3           MOV      R2,#+0
   \   00000BEC   54108DE2           ADD      R1,SP,#+84
   \   00000BF0   700F8DE2           ADD      R0,SP,#+448
   \   00000BF4   ........           _BLF     ??assign,??assign??rA
   \   00000BF8   0020A0E3           MOV      R2,#+0
   \   00000BFC   0210A0E1           MOV      R1,R2
   \   00000C00   770F8DE2           ADD      R0,SP,#+476
   \   00000C04   ........           _BLF     ??_Tidy,??_Tidy??rA
   \   00000C08   0830A0E1           MOV      R3,R8
   \   00000C0C   0020A0E3           MOV      R2,#+0
   \   00000C10   621F8DE2           ADD      R1,SP,#+392
   \   00000C14   770F8DE2           ADD      R0,SP,#+476
   \   00000C18   ........           _BLF     ??assign,??assign??rA
   \   00000C1C   7E1F8FE2           ADR      R1,??UpdateSysWin_10  ;; ""
   \   00000C20   7E0F8DE2           ADD      R0,SP,#+504
   \   00000C24   ........           _BLF     ??AnsiString_2,??AnsiString??rA_2
   \   00000C28   00A0A0E1           MOV      R10,R0
   \   00000C2C   0020A0E3           MOV      R2,#+0
   \   00000C30   0210A0E1           MOV      R1,R2
   \   00000C34   460F8DE2           ADD      R0,SP,#+280
   \   00000C38   ........           _BLF     ??_Tidy,??_Tidy??rA
   \   00000C3C   0830A0E1           MOV      R3,R8
   \   00000C40   0020A0E3           MOV      R2,#+0
   \   00000C44   70108DE2           ADD      R1,SP,#+112
   \   00000C48   460F8DE2           ADD      R0,SP,#+280
   \   00000C4C   ........           _BLF     ??assign,??assign??rA
   \   00000C50   0020A0E3           MOV      R2,#+0
   \   00000C54   0210A0E1           MOV      R1,R2
   \   00000C58   4D0F8DE2           ADD      R0,SP,#+308
   \   00000C5C   ........           _BLF     ??_Tidy,??_Tidy??rA
   \   00000C60   0830A0E1           MOV      R3,R8
   \   00000C64   0020A0E3           MOV      R2,#+0
   \   00000C68   8C108DE2           ADD      R1,SP,#+140
   \   00000C6C   4D0F8DE2           ADD      R0,SP,#+308
   \   00000C70   ........           _BLF     ??assign,??assign??rA
   \   00000C74   0020A0E3           MOV      R2,#+0
   \   00000C78   0210A0E1           MOV      R1,R2
   \   00000C7C   540F8DE2           ADD      R0,SP,#+336
   \   00000C80   ........           _BLF     ??_Tidy,??_Tidy??rA
   \   00000C84   0830A0E1           MOV      R3,R8
   \   00000C88   0020A0E3           MOV      R2,#+0
   \   00000C8C   A8108DE2           ADD      R1,SP,#+168
   \   00000C90   540F8DE2           ADD      R0,SP,#+336
   \   00000C94   ........           _BLF     ??assign,??assign??rA
   \   00000C98   C4008DE2           ADD      R0,SP,#+196
   \   00000C9C   01002DE9           PUSH     {R0}
   \   00000CA0   E4008DE2           ADD      R0,SP,#+228
   \   00000CA4   01002DE9           PUSH     {R0}
   \   00000CA8   410F8DE2           ADD      R0,SP,#+260
   \   00000CAC   01002DE9           PUSH     {R0}
   \   00000CB0   730F8DE2           ADD      R0,SP,#+460
   \   00000CB4   01002DE9           PUSH     {R0}
   \   00000CB8   7B0F8DE2           ADD      R0,SP,#+492
   \   00000CBC   01002DE9           PUSH     {R0}
   \   00000CC0   00042DE9           PUSH     {R10}
   \   00000CC4   4C0F8DE2           ADD      R0,SP,#+304
   \   00000CC8   01002DE9           PUSH     {R0}
   \   00000CCC   540F8DE2           ADD      R0,SP,#+336
   \   00000CD0   01002DE9           PUSH     {R0}
   \   00000CD4   5C3F8DE2           ADD      R3,SP,#+368
   \   00000CD8   0920A0E1           MOV      R2,R9
   \   00000CDC   0910A0E1           MOV      R1,R9
   \   00000CE0   0500A0E1           MOV      R0,R5
   \   00000CE4   ........           BL       ??SetListviewRow
   \   00000CE8   0020A0E3           MOV      R2,#+0
   \   00000CEC   0110A0E3           MOV      R1,#+1
   \   00000CF0   E4008DE2           ADD      R0,SP,#+228
   \   00000CF4   ........           _BLF     ??_Tidy,??_Tidy??rA
   \   00000CF8   0020A0E3           MOV      R2,#+0
   \   00000CFC   0110A0E3           MOV      R1,#+1
   \   00000D00   400F8DE2           ADD      R0,SP,#+256
   \   00000D04   ........           _BLF     ??_Tidy,??_Tidy??rA
   \   00000D08   0020A0E3           MOV      R2,#+0
   \   00000D0C   0110A0E3           MOV      R1,#+1
   \   00000D10   470F8DE2           ADD      R0,SP,#+284
   \   00000D14   ........           _BLF     ??_Tidy,??_Tidy??rA
   \   00000D18   0020A0E3           MOV      R2,#+0
   \   00000D1C   0110A0E3           MOV      R1,#+1
   \   00000D20   780F8DE2           ADD      R0,SP,#+480
   \   00000D24   ........           _BLF     ??_Tidy,??_Tidy??rA
   \   00000D28   0020A0E3           MOV      R2,#+0
   \   00000D2C   0110A0E3           MOV      R1,#+1
   \   00000D30   7F0F8DE2           ADD      R0,SP,#+508
   \   00000D34   ........           _BLF     ??_Tidy,??_Tidy??rA
   \   00000D38   0020A0E3           MOV      R2,#+0
   \   00000D3C   0110A0E3           MOV      R1,#+1
   \   00000D40   860F8DE2           ADD      R0,SP,#+536
   \   00000D44   ........           _BLF     ??_Tidy,??_Tidy??rA
   \   00000D48   0020A0E3           MOV      R2,#+0
   \   00000D4C   0110A0E3           MOV      R1,#+1
   \   00000D50   4E0F8DE2           ADD      R0,SP,#+312
   \   00000D54   ........           _BLF     ??_Tidy,??_Tidy??rA
   \   00000D58   0020A0E3           MOV      R2,#+0
   \   00000D5C   0110A0E3           MOV      R1,#+1
   \   00000D60   550F8DE2           ADD      R0,SP,#+340
   \   00000D64   ........           _BLF     ??_Tidy,??_Tidy??rA
   \   00000D68   0020A0E3           MOV      R2,#+0
   \   00000D6C   0110A0E3           MOV      R1,#+1
   \   00000D70   5C0F8DE2           ADD      R0,SP,#+368
   \   00000D74   ........           _BLF     ??_Tidy,??_Tidy??rA
    480                         }
   \   00000D78   0020A0E3           MOV      R2,#+0
   \   00000D7C   0110A0E3           MOV      R1,#+1
   \   00000D80   3C008DE2           ADD      R0,SP,#+60
   \   00000D84   ........           _BLF     ??_Tidy,??_Tidy??rA
   \   00000D88   0020A0E3           MOV      R2,#+0
   \   00000D8C   0110A0E3           MOV      R1,#+1
   \   00000D90   58008DE2           ADD      R0,SP,#+88
   \   00000D94   ........           _BLF     ??_Tidy,??_Tidy??rA
   \   00000D98   0020A0E3           MOV      R2,#+0
   \   00000D9C   0110A0E3           MOV      R1,#+1
   \   00000DA0   630F8DE2           ADD      R0,SP,#+396
   \   00000DA4   ........           _BLF     ??_Tidy,??_Tidy??rA
   \   00000DA8   0020A0E3           MOV      R2,#+0
   \   00000DAC   0110A0E3           MOV      R1,#+1
   \   00000DB0   74008DE2           ADD      R0,SP,#+116
   \   00000DB4   ........           _BLF     ??_Tidy,??_Tidy??rA
   \   00000DB8   0020A0E3           MOV      R2,#+0
   \   00000DBC   0110A0E3           MOV      R1,#+1
   \   00000DC0   6A0F8DE2           ADD      R0,SP,#+424
   \   00000DC4   ........           _BLF     ??_Tidy,??_Tidy??rA
   \   00000DC8   0020A0E3           MOV      R2,#+0
   \   00000DCC   0110A0E3           MOV      R1,#+1
   \   00000DD0   710F8DE2           ADD      R0,SP,#+452
   \   00000DD4   ........           _BLF     ??_Tidy,??_Tidy??rA
   \   00000DD8   0020A0E3           MOV      R2,#+0
   \   00000DDC   0110A0E3           MOV      R1,#+1
   \   00000DE0   90008DE2           ADD      R0,SP,#+144
   \   00000DE4   ........           _BLF     ??_Tidy,??_Tidy??rA
   \   00000DE8   0020A0E3           MOV      R2,#+0
   \   00000DEC   0110A0E3           MOV      R1,#+1
   \   00000DF0   AC008DE2           ADD      R0,SP,#+172
   \   00000DF4   ........           _BLF     ??_Tidy,??_Tidy??rA
   \   00000DF8   0020A0E3           MOV      R2,#+0
   \   00000DFC   0110A0E3           MOV      R1,#+1
   \   00000E00   C8008DE2           ADD      R0,SP,#+200
   \   00000E04   ........           _BLF     ??_Tidy,??_Tidy??rA
   \   00000E08   019089E2           ADD      R9,R9,#+1
   \   00000E0C   020059E3           CMP      R9,#+2
   \   00000E10   20D08DE2           ADD      SP,SP,#+32
   \   00000E14   2E0100AA           BGE      ??UpdateSysWin_4
   \   00000E18   EBFEFFEA           B        ??UpdateSysWin_15
   \                     ??UpdateSysWin_10:
   \   00000E1C   00000000           DC8      "",+0,+0,+0
   \   00000E20   ........           DC32     ??npos
    481                      }
    482                      break;
    483                   case C_IO_AN_ZBHART:
    484                   case C_IO_AN_ZBANA:
    485                      {
    486          
    487                         IOUnitZBAna *ePtr = (IOUnitZBAna *)CurrentIOUnit;
    488                         int LCnt = 0;
   \                     ??UpdateSysWin_17:
   \   00000E24   0090A0E3           MOV      R9,#+0
    489                         for (int index = 0; index < MAX_AN_ZBANA_CHANNELS; index++)
   \   00000E28   00A0A0E3           MOV      R10,#+0
    490                         {
    491                            AnsiString Name  = LibGetValue(SVT_IO_CH_NAME, index, ePtr);
   \                     ??UpdateSysWin_18:
   \   00000E2C   0000A0E3           MOV      R0,#+0
   \   00000E30   01002DE9           PUSH     {R0}
   \   00000E34   0430A0E1           MOV      R3,R4
   \   00000E38   0A20A0E1           MOV      R2,R10
   \   00000E3C   0710A0E1           MOV      R1,R7
   \   00000E40   940F8DE2           ADD      R0,SP,#+592
   \   00000E44   ........           _BLF     ??LibGetValue,??LibGetValue??rA
    492                            if (!Name.IsEmpty())
   \   00000E48   940F8DE2           ADD      R0,SP,#+592
   \   00000E4C   ........           _BLF     ??IsEmpty,??IsEmpty??rA
   \   00000E50   000050E3           CMP      R0,#+0
   \   00000E54   04D08DE2           ADD      SP,SP,#+4
   \   00000E58   1601001A           BNE      ??UpdateSysWin_19
    493                            {
    494                               AnsiString Loc   = LibGetValue(SVT_IO_CH_LOCATION, index, ePtr);
   \   00000E5C   0000A0E3           MOV      R0,#+0
   \   00000E60   01002DE9           PUSH     {R0}
   \   00000E64   0430A0E1           MOV      R3,R4
   \   00000E68   0A20A0E1           MOV      R2,R10
   \   00000E6C   0610A0E1           MOV      R1,R6
   \   00000E70   710F8DE2           ADD      R0,SP,#+452
   \   00000E74   ........           _BLF     ??LibGetValue,??LibGetValue??rA
    495                               AnsiString Type  = LibGetValue(SVT_IO_CH_TYPE_TEXT, index, ePtr);
   \   00000E78   0000A0E3           MOV      R0,#+0
   \   00000E7C   01002DE9           PUSH     {R0}
   \   00000E80   0430A0E1           MOV      R3,R4
   \   00000E84   0A20A0E1           MOV      R2,R10
   \   00000E88   011086E2           ADD      R1,R6,#+1
   \   00000E8C   790F8DE2           ADD      R0,SP,#+484
   \   00000E90   ........           _BLF     ??LibGetValue,??LibGetValue??rA
    496                               AnsiString RawVal = LibGetValue(SVT_IO_CH_RAW_VAL, index, ePtr);
   \   00000E94   0000A0E3           MOV      R0,#+0
   \   00000E98   01002DE9           PUSH     {R0}
   \   00000E9C   0430A0E1           MOV      R3,R4
   \   00000EA0   0A20A0E1           MOV      R2,R10
   \   00000EA4   021086E3           ORR      R1,R6,#0x2
   \   00000EA8   810F8DE2           ADD      R0,SP,#+516
   \   00000EAC   ........           _BLF     ??LibGetValue,??LibGetValue??rA
    497          
    498                               AnsiString ValueStr, GainStr, OffsetStr, EnableStr, UnitStr;
   \   00000EB0   490F8DE2           ADD      R0,SP,#+292
   \   00000EB4   ........           _BLF     ??AnsiString_1,??AnsiString??rA_1
   \   00000EB8   500F8DE2           ADD      R0,SP,#+320
   \   00000EBC   ........           _BLF     ??AnsiString_1,??AnsiString??rA_1
   \   00000EC0   570F8DE2           ADD      R0,SP,#+348
   \   00000EC4   ........           _BLF     ??AnsiString_1,??AnsiString??rA_1
   \   00000EC8   880F8DE2           ADD      R0,SP,#+544
   \   00000ECC   ........           _BLF     ??AnsiString_1,??AnsiString??rA_1
   \   00000ED0   8F0F8DE2           ADD      R0,SP,#+572
   \   00000ED4   ........           _BLF     ??AnsiString_1,??AnsiString??rA_1
    499                               PROIOComponent *SnsPtr = ePtr->IOComponent[index];
   \   00000ED8   0A0184E0           ADD      R0,R4,R10, LSL #+2
   \   00000EDC   F4B190E5           LDR      R11,[R0, #+500]
    500                               if (SnsPtr)
   \   00000EE0   0CD08DE2           ADD      SP,SP,#+12
   \   00000EE4   00005BE3           CMP      R11,#+0
   \   00000EE8   4400000A           BEQ      ??UpdateSysWin_20
    501                               {
    502                                  GainStr   = LibGetValue(SVT_AI_GAIN, index, SnsPtr);
   \   00000EEC   0000A0E3           MOV      R0,#+0
   \   00000EF0   01002DE9           PUSH     {R0}
   \   00000EF4   0B30A0E1           MOV      R3,R11
   \   00000EF8   0A20A0E1           MOV      R2,R10
   \   00000EFC   391046E2           SUB      R1,R6,#+57
   \   00000F00   04008DE2           ADD      R0,SP,#+4
   \   00000F04   ........           _BLF     ??LibGetValue,??LibGetValue??rA
   \   00000F08   ........           LDR      R0,??DataTable12  ;; ??npos
   \   00000F0C   0020A0E3           MOV      R2,#+0
   \   00000F10   008090E5           LDR      R8,[R0, #+0]
   \   00000F14   04108DE2           ADD      R1,SP,#+4
   \   00000F18   0830A0E1           MOV      R3,R8
   \   00000F1C   4E0F8DE2           ADD      R0,SP,#+312
   \   00000F20   ........           _BLF     ??assign,??assign??rA
   \   00000F24   0020A0E3           MOV      R2,#+0
   \   00000F28   0110A0E3           MOV      R1,#+1
   \   00000F2C   04008DE2           ADD      R0,SP,#+4
   \   00000F30   ........           _BLF     ??_Tidy,??_Tidy??rA
    503                                  OffsetStr = LibGetValue(SVT_AI_OFFSET, index, SnsPtr);
   \   00000F34   0000A0E3           MOV      R0,#+0
   \   00000F38   01002DE9           PUSH     {R0}
   \   00000F3C   0B30A0E1           MOV      R3,R11
   \   00000F40   0A20A0E1           MOV      R2,R10
   \   00000F44   381046E2           SUB      R1,R6,#+56
   \   00000F48   24008DE2           ADD      R0,SP,#+36
   \   00000F4C   ........           _BLF     ??LibGetValue,??LibGetValue??rA
   \   00000F50   0830A0E1           MOV      R3,R8
   \   00000F54   0020A0E3           MOV      R2,#+0
   \   00000F58   24108DE2           ADD      R1,SP,#+36
   \   00000F5C   560F8DE2           ADD      R0,SP,#+344
   \   00000F60   ........           _BLF     ??assign,??assign??rA
   \   00000F64   0020A0E3           MOV      R2,#+0
   \   00000F68   0110A0E3           MOV      R1,#+1
   \   00000F6C   24008DE2           ADD      R0,SP,#+36
   \   00000F70   ........           _BLF     ??_Tidy,??_Tidy??rA
    504                                  EnableStr = LibGetValue(SVT_AI_ENABLE_TEXT, index, SnsPtr);
   \   00000F74   0000A0E3           MOV      R0,#+0
   \   00000F78   01002DE9           PUSH     {R0}
   \   00000F7C   0B30A0E1           MOV      R3,R11
   \   00000F80   0A20A0E1           MOV      R2,R10
   \   00000F84   3B1046E2           SUB      R1,R6,#+59
   \   00000F88   44008DE2           ADD      R0,SP,#+68
   \   00000F8C   ........           _BLF     ??LibGetValue,??LibGetValue??rA
   \   00000F90   0830A0E1           MOV      R3,R8
   \   00000F94   0020A0E3           MOV      R2,#+0
   \   00000F98   44108DE2           ADD      R1,SP,#+68
   \   00000F9C   880F8DE2           ADD      R0,SP,#+544
   \   00000FA0   ........           _BLF     ??assign,??assign??rA
   \   00000FA4   0020A0E3           MOV      R2,#+0
   \   00000FA8   0110A0E3           MOV      R1,#+1
   \   00000FAC   44008DE2           ADD      R0,SP,#+68
   \   00000FB0   ........           _BLF     ??_Tidy,??_Tidy??rA
    505                                  ValueStr  = LibGetValue(SVT_AI_CALC_VAL, index, SnsPtr, &UnitStr);
   \   00000FB4   0000A0E3           MOV      R0,#+0
   \   00000FB8   01002DE9           PUSH     {R0}
   \   00000FBC   900F8DE2           ADD      R0,SP,#+576
   \   00000FC0   01002DE9           PUSH     {R0}
   \   00000FC4   0B30A0E1           MOV      R3,R11
   \   00000FC8   0A20A0E1           MOV      R2,R10
   \   00000FCC   351046E2           SUB      R1,R6,#+53
   \   00000FD0   600F8DE2           ADD      R0,SP,#+384
   \   00000FD4   ........           _BLF     ??LibGetValue_1,??LibGetValue??rA_1
   \   00000FD8   0830A0E1           MOV      R3,R8
   \   00000FDC   0020A0E3           MOV      R2,#+0
   \   00000FE0   601F8DE2           ADD      R1,SP,#+384
   \   00000FE4   4B0F8DE2           ADD      R0,SP,#+300
   \   00000FE8   ........           _BLF     ??assign,??assign??rA
   \   00000FEC   0020A0E3           MOV      R2,#+0
   \   00000FF0   0110A0E3           MOV      R1,#+1
   \   00000FF4   600F8DE2           ADD      R0,SP,#+384
   \   00000FF8   ........           _BLF     ??_Tidy,??_Tidy??rA
   \   00000FFC   14D08DE2           ADD      SP,SP,#+20
    506                               }
    507                               SetListviewRow(LCnt++, index, Name, Loc, Type, RawVal, ValueStr, GainStr, OffsetStr, EnableStr, UnitStr);
   \                     ??UpdateSysWin_20:
   \   00001000   0020A0E3           MOV      R2,#+0
   \   00001004   0010A0E3           MOV      R1,#+0
   \   00001008   FC008DE2           ADD      R0,SP,#+252
   \   0000100C   ........           _BLF     ??_Tidy,??_Tidy??rA
   \   00001010   ........           LDR      R0,??DataTable12  ;; ??npos
   \   00001014   0020A0E3           MOV      R2,#+0
   \   00001018   008090E5           LDR      R8,[R0, #+0]
   \   0000101C   8C1F8DE2           ADD      R1,SP,#+560
   \   00001020   0830A0E1           MOV      R3,R8
   \   00001024   FC008DE2           ADD      R0,SP,#+252
   \   00001028   ........           _BLF     ??assign,??assign??rA
   \   0000102C   0020A0E3           MOV      R2,#+0
   \   00001030   0210A0E1           MOV      R1,R2
   \   00001034   E0008DE2           ADD      R0,SP,#+224
   \   00001038   ........           _BLF     ??_Tidy,??_Tidy??rA
   \   0000103C   0830A0E1           MOV      R3,R8
   \   00001040   0020A0E3           MOV      R2,#+0
   \   00001044   851F8DE2           ADD      R1,SP,#+532
   \   00001048   E0008DE2           ADD      R0,SP,#+224
   \   0000104C   ........           _BLF     ??assign,??assign??rA
   \   00001050   0020A0E3           MOV      R2,#+0
   \   00001054   0210A0E1           MOV      R1,R2
   \   00001058   C4008DE2           ADD      R0,SP,#+196
   \   0000105C   ........           _BLF     ??_Tidy,??_Tidy??rA
   \   00001060   0830A0E1           MOV      R3,R8
   \   00001064   0020A0E3           MOV      R2,#+0
   \   00001068   541F8DE2           ADD      R1,SP,#+336
   \   0000106C   C4008DE2           ADD      R0,SP,#+196
   \   00001070   ........           _BLF     ??assign,??assign??rA
   \   00001074   0020A0E3           MOV      R2,#+0
   \   00001078   0210A0E1           MOV      R1,R2
   \   0000107C   A8008DE2           ADD      R0,SP,#+168
   \   00001080   ........           _BLF     ??_Tidy,??_Tidy??rA
   \   00001084   0830A0E1           MOV      R3,R8
   \   00001088   0020A0E3           MOV      R2,#+0
   \   0000108C   4D1F8DE2           ADD      R1,SP,#+308
   \   00001090   A8008DE2           ADD      R0,SP,#+168
   \   00001094   ........           _BLF     ??assign,??assign??rA
   \   00001098   0020A0E3           MOV      R2,#+0
   \   0000109C   0210A0E1           MOV      R1,R2
   \   000010A0   8C008DE2           ADD      R0,SP,#+140
   \   000010A4   ........           _BLF     ??_Tidy,??_Tidy??rA
   \   000010A8   0830A0E1           MOV      R3,R8
   \   000010AC   0020A0E3           MOV      R2,#+0
   \   000010B0   461F8DE2           ADD      R1,SP,#+280
   \   000010B4   8C008DE2           ADD      R0,SP,#+140
   \   000010B8   ........           _BLF     ??assign,??assign??rA
   \   000010BC   0020A0E3           MOV      R2,#+0
   \   000010C0   0210A0E1           MOV      R1,R2
   \   000010C4   70008DE2           ADD      R0,SP,#+112
   \   000010C8   ........           _BLF     ??_Tidy,??_Tidy??rA
   \   000010CC   0830A0E1           MOV      R3,R8
   \   000010D0   0020A0E3           MOV      R2,#+0
   \   000010D4   7E1F8DE2           ADD      R1,SP,#+504
   \   000010D8   70008DE2           ADD      R0,SP,#+112
   \   000010DC   ........           _BLF     ??assign,??assign??rA
   \   000010E0   0020A0E3           MOV      R2,#+0
   \   000010E4   0210A0E1           MOV      R1,R2
   \   000010E8   690F8DE2           ADD      R0,SP,#+420
   \   000010EC   ........           _BLF     ??_Tidy,??_Tidy??rA
   \   000010F0   0830A0E1           MOV      R3,R8
   \   000010F4   0020A0E3           MOV      R2,#+0
   \   000010F8   771F8DE2           ADD      R1,SP,#+476
   \   000010FC   690F8DE2           ADD      R0,SP,#+420
   \   00001100   ........           _BLF     ??assign,??assign??rA
   \   00001104   0020A0E3           MOV      R2,#+0
   \   00001108   0210A0E1           MOV      R1,R2
   \   0000110C   620F8DE2           ADD      R0,SP,#+392
   \   00001110   ........           _BLF     ??_Tidy,??_Tidy??rA
   \   00001114   0830A0E1           MOV      R3,R8
   \   00001118   0020A0E3           MOV      R2,#+0
   \   0000111C   701F8DE2           ADD      R1,SP,#+448
   \   00001120   620F8DE2           ADD      R0,SP,#+392
   \   00001124   ........           _BLF     ??assign,??assign??rA
   \   00001128   0020A0E3           MOV      R2,#+0
   \   0000112C   0210A0E1           MOV      R1,R2
   \   00001130   54008DE2           ADD      R0,SP,#+84
   \   00001134   ........           _BLF     ??_Tidy,??_Tidy??rA
   \   00001138   0830A0E1           MOV      R3,R8
   \   0000113C   0020A0E3           MOV      R2,#+0
   \   00001140   931F8DE2           ADD      R1,SP,#+588
   \   00001144   54008DE2           ADD      R0,SP,#+84
   \   00001148   ........           _BLF     ??assign,??assign??rA
   \   0000114C   FC008DE2           ADD      R0,SP,#+252
   \   00001150   01002DE9           PUSH     {R0}
   \   00001154   E4008DE2           ADD      R0,SP,#+228
   \   00001158   01002DE9           PUSH     {R0}
   \   0000115C   CC008DE2           ADD      R0,SP,#+204
   \   00001160   01002DE9           PUSH     {R0}
   \   00001164   B4008DE2           ADD      R0,SP,#+180
   \   00001168   01002DE9           PUSH     {R0}
   \   0000116C   9C008DE2           ADD      R0,SP,#+156
   \   00001170   01002DE9           PUSH     {R0}
   \   00001174   84008DE2           ADD      R0,SP,#+132
   \   00001178   01002DE9           PUSH     {R0}
   \   0000117C   6F0F8DE2           ADD      R0,SP,#+444
   \   00001180   01002DE9           PUSH     {R0}
   \   00001184   690F8DE2           ADD      R0,SP,#+420
   \   00001188   01002DE9           PUSH     {R0}
   \   0000118C   74308DE2           ADD      R3,SP,#+116
   \   00001190   0A20A0E1           MOV      R2,R10
   \   00001194   0910A0E1           MOV      R1,R9
   \   00001198   0500A0E1           MOV      R0,R5
   \   0000119C   ........           BL       ??SetListviewRow
   \   000011A0   019089E2           ADD      R9,R9,#+1
   \   000011A4   0020A0E3           MOV      R2,#+0
   \   000011A8   0110A0E3           MOV      R1,#+1
   \   000011AC   470F8DE2           ADD      R0,SP,#+284
   \   000011B0   ........           _BLF     ??_Tidy,??_Tidy??rA
   \   000011B4   0020A0E3           MOV      R2,#+0
   \   000011B8   0110A0E3           MOV      R1,#+1
   \   000011BC   400F8DE2           ADD      R0,SP,#+256
   \   000011C0   ........           _BLF     ??_Tidy,??_Tidy??rA
   \   000011C4   0020A0E3           MOV      R2,#+0
   \   000011C8   0110A0E3           MOV      R1,#+1
   \   000011CC   E4008DE2           ADD      R0,SP,#+228
   \   000011D0   ........           _BLF     ??_Tidy,??_Tidy??rA
   \   000011D4   0020A0E3           MOV      R2,#+0
   \   000011D8   0110A0E3           MOV      R1,#+1
   \   000011DC   C8008DE2           ADD      R0,SP,#+200
   \   000011E0   ........           _BLF     ??_Tidy,??_Tidy??rA
   \   000011E4   0020A0E3           MOV      R2,#+0
   \   000011E8   0110A0E3           MOV      R1,#+1
   \   000011EC   AC008DE2           ADD      R0,SP,#+172
   \   000011F0   ........           _BLF     ??_Tidy,??_Tidy??rA
   \   000011F4   0020A0E3           MOV      R2,#+0
   \   000011F8   0110A0E3           MOV      R1,#+1
   \   000011FC   90008DE2           ADD      R0,SP,#+144
   \   00001200   ........           _BLF     ??_Tidy,??_Tidy??rA
   \   00001204   0020A0E3           MOV      R2,#+0
   \   00001208   0110A0E3           MOV      R1,#+1
   \   0000120C   710F8DE2           ADD      R0,SP,#+452
   \   00001210   ........           _BLF     ??_Tidy,??_Tidy??rA
   \   00001214   0020A0E3           MOV      R2,#+0
   \   00001218   0110A0E3           MOV      R1,#+1
   \   0000121C   6A0F8DE2           ADD      R0,SP,#+424
   \   00001220   ........           _BLF     ??_Tidy,??_Tidy??rA
   \   00001224   0020A0E3           MOV      R2,#+0
   \   00001228   0110A0E3           MOV      R1,#+1
   \   0000122C   74008DE2           ADD      R0,SP,#+116
   \   00001230   ........           _BLF     ??_Tidy,??_Tidy??rA
    508                            }
   \   00001234   0020A0E3           MOV      R2,#+0
   \   00001238   0110A0E3           MOV      R1,#+1
   \   0000123C   940F8DE2           ADD      R0,SP,#+592
   \   00001240   ........           _BLF     ??_Tidy,??_Tidy??rA
   \   00001244   0020A0E3           MOV      R2,#+0
   \   00001248   0110A0E3           MOV      R1,#+1
   \   0000124C   8D0F8DE2           ADD      R0,SP,#+564
   \   00001250   ........           _BLF     ??_Tidy,??_Tidy??rA
   \   00001254   0020A0E3           MOV      R2,#+0
   \   00001258   0110A0E3           MOV      R1,#+1
   \   0000125C   5C0F8DE2           ADD      R0,SP,#+368
   \   00001260   ........           _BLF     ??_Tidy,??_Tidy??rA
   \   00001264   0020A0E3           MOV      R2,#+0
   \   00001268   0110A0E3           MOV      R1,#+1
   \   0000126C   550F8DE2           ADD      R0,SP,#+340
   \   00001270   ........           _BLF     ??_Tidy,??_Tidy??rA
   \   00001274   0020A0E3           MOV      R2,#+0
   \   00001278   0110A0E3           MOV      R1,#+1
   \   0000127C   4E0F8DE2           ADD      R0,SP,#+312
   \   00001280   ........           _BLF     ??_Tidy,??_Tidy??rA
   \   00001284   0020A0E3           MOV      R2,#+0
   \   00001288   0110A0E3           MOV      R1,#+1
   \   0000128C   860F8DE2           ADD      R0,SP,#+536
   \   00001290   ........           _BLF     ??_Tidy,??_Tidy??rA
   \   00001294   0020A0E3           MOV      R2,#+0
   \   00001298   0110A0E3           MOV      R1,#+1
   \   0000129C   7F0F8DE2           ADD      R0,SP,#+508
   \   000012A0   ........           _BLF     ??_Tidy,??_Tidy??rA
   \   000012A4   0020A0E3           MOV      R2,#+0
   \   000012A8   0110A0E3           MOV      R1,#+1
   \   000012AC   780F8DE2           ADD      R0,SP,#+480
   \   000012B0   ........           _BLF     ??_Tidy,??_Tidy??rA
   \   000012B4   20D08DE2           ADD      SP,SP,#+32
    509                         }
   \                     ??UpdateSysWin_19:
   \   000012B8   0020A0E3           MOV      R2,#+0
   \   000012BC   0110A0E3           MOV      R1,#+1
   \   000012C0   930F8DE2           ADD      R0,SP,#+588
   \   000012C4   ........           _BLF     ??_Tidy,??_Tidy??rA
   \   000012C8   01A08AE2           ADD      R10,R10,#+1
   \   000012CC   0C005AE3           CMP      R10,#+12
   \   000012D0   D5FEFFBA           BLT      ??UpdateSysWin_18
    510                      }
    511                      break;
    512                   case C_IO_AN_ZB485:
    513                      //case C_IO_WAGO:
    514                      break;
    515                   }
    516                }
    517                TimerCount++;
   \                     ??UpdateSysWin_4:
   \   000012D4   4C0095E5           LDR      R0,[R5, #+76]
    518                if (UserTouch)
   \   000012D8   ........           LDR      R4,??DataTable14  ;; ButWindow
   \   000012DC   010080E2           ADD      R0,R0,#+1
   \   000012E0   4C0085E5           STR      R0,[R5, #+76]
   \   000012E4   4820D5E5           LDRB     R2,[R5, #+72]
   \   000012E8   0010A0E3           MOV      R1,#+0
   \   000012EC   000052E3           CMP      R2,#+0
   \   000012F0   0500000A           BEQ      ??UpdateSysWin_21
    519                {
    520                   TimedOut = false;
   \   000012F4   0000A0E3           MOV      R0,#+0
   \   000012F8   5000C5E5           STRB     R0,[R5, #+80]
    521                   TimerCount = 0;
   \   000012FC   4C1085E5           STR      R1,[R5, #+76]
    522                   UserTouch = false;
   \   00001300   4800C5E5           STRB     R0,[R5, #+72]
    523                   ButWindow->EnableButton(2, true);
   \   00001304   0120A0E3           MOV      R2,#+1
   \   00001308   0B0000EA           B        ??UpdateSysWin_22
    524                }
    525                else if (TimerCount >= 3 && !TimedOut)
   \                     ??UpdateSysWin_21:
   \   0000130C   030050E3           CMP      R0,#+3
   \   00001310   0C0000BA           BLT      ??UpdateSysWin_3
   \   00001314   5000D5E5           LDRB     R0,[R5, #+80]
   \   00001318   000050E3           CMP      R0,#+0
   \   0000131C   0900001A           BNE      ??UpdateSysWin_3
    526                {
    527                   TimedOut = true;
   \   00001320   0100A0E3           MOV      R0,#+1
   \   00001324   5000C5E5           STRB     R0,[R5, #+80]
    528                   TimerCount = 0;
   \   00001328   4C1085E5           STR      R1,[R5, #+76]
    529                   LISTVIEW_SetSel(hListviewIO, -1);
   \   0000132C   001060E2           RSB      R1,R0,#+0
   \   00001330   F603D5E1           LDRSH    R0,[R5, #+54]
   \   00001334   ........           _BLF     LISTVIEW_SetSel,??LISTVIEW_SetSel??rA
    530                   ButWindow->EnableButton(2, false);
   \   00001338   0020A0E3           MOV      R2,#+0
   \                     ??UpdateSysWin_22:
   \   0000133C   000094E5           LDR      R0,[R4, #+0]
   \   00001340   0210A0E3           MOV      R1,#+2
   \   00001344   ........           _BLF     ??EnableButton,??EnableButton??rA
    531                }
    532             }
    533          
    534          
    535          }
   \                     ??UpdateSysWin_3:
   \   00001348   46DE8DE2           ADD      SP,SP,#+1120
   \   0000134C   F04FBDE8           POP      {R4-R11,LR}
   \   00001350   1EFF2FE1           BX       LR               ;; return
    536          
    537          
    538          

   \                                 In segment CODE, align 4, keep-with-next
    539          void TDUSysWin3::cbSysWin(WM_MESSAGE *pMsg)
    540          {
   \                     ??cbSysWin:
   \   00000000   F0412DE9           PUSH     {R4-R8,LR}
    541             int NCode, Id;
    542             WM_HWIN hWin = pMsg->hWin;
    543             switch (pMsg->MsgId)
   \   00000004   ........           LDR      R7,??DataTable14  ;; ButWindow
   \   00000008   ........           LDR      R5,??DataTable15  ;; SystemWindow
   \   0000000C   0080A0E1           MOV      R8,R0
   \   00000010   002098E5           LDR      R2,[R8, #+0]
   \   00000014   F460D8E1           LDRSH    R6,[R8, #+4]
   \   00000018   000097E5           LDR      R0,[R7, #+0]
   \   0000001C   D310A0E3           MOV      R1,#+211
   \   00000020   801E81E3           ORR      R1,R1,#0x800
   \   00000024   0140A0E3           MOV      R4,#+1
   \   00000028   0B2052E2           SUBS     R2,R2,#+11
   \   0000002C   0800000A           BEQ      ??cbSysWin_1
   \   00000030   032052E2           SUBS     R2,R2,#+3
   \   00000034   2200000A           BEQ      ??cbSysWin_2
   \   00000038   012052E2           SUBS     R2,R2,#+1
   \   0000003C   0B00000A           BEQ      ??cbSysWin_3
   \   00000040   0E2052E2           SUBS     R2,R2,#+14
   \   00000044   1300000A           BEQ      ??cbSysWin_4
   \   00000048   092052E2           SUBS     R2,R2,#+9
   \   0000004C   2800000A           BEQ      ??cbSysWin_5
   \   00000050   4E0000EA           B        ??cbSysWin_6
    544             {
    545             case WM_DELETE:
    546                ButWindow->ChangeSWord(TDU_BUTTON_ID_PW3, 0,L_WORD237);
   \                     ??cbSysWin_1:
   \   00000054   0020A0E3           MOV      R2,#+0
   \   00000058   04002DE9           PUSH     {R2}
   \   0000005C   ED30A0E3           MOV      R3,#+237
   \   00000060   ........           _BLF     ??ChangeSWord,??ChangeSWord??rA
    547                SystemWindow->SysWin3IsClosed = true;
   \   00000064   000095E5           LDR      R0,[R5, #+0]
   \   00000068   7240C0E5           STRB     R4,[R0, #+114]
   \   0000006C   060000EA           B        ??cbSysWin_7
    548                break;
    549             case WM_PAINT:
    550                ButWindow->ChangeSWord(TDU_BUTTON_ID_PW3, 0, L_WORD545);
   \                     ??cbSysWin_3:
   \   00000070   0020A0E3           MOV      R2,#+0
   \   00000074   04002DE9           PUSH     {R2}
   \   00000078   883F84E3           ORR      R3,R4,#0x220
   \   0000007C   ........           _BLF     ??ChangeSWord,??ChangeSWord??rA
    551                SystemWindow->SysWin3->UpdateLanguage();
   \   00000080   000095E5           LDR      R0,[R5, #+0]
   \   00000084   600090E5           LDR      R0,[R0, #+96]
   \   00000088   ........           _BLF     ??UpdateLanguage,??UpdateLanguage??rA
   \                     ??cbSysWin_7:
   \   0000008C   04D08DE2           ADD      SP,SP,#+4
   \                     ??cbSysWin_8:
   \   00000090   F041BDE8           POP      {R4-R8,LR}
   \   00000094   1EFF2FE1           BX       LR
   \                     ??cbSysWin_4:
   \   00000098   000095E5           LDR      R0,[R5, #+0]
   \   0000009C   0010A0E3           MOV      R1,#+0
   \   000000A0   600090E5           LDR      R0,[R0, #+96]
   \   000000A4   0020A0E3           MOV      R2,#+0
   \   000000A8   4820C0E5           STRB     R2,[R0, #+72]
    552                break;
    553             case WM_INIT_DIALOG:
    554                SystemWindow->SysWin3->UserTouch = false;
    555                SystemWindow->SysWin3->TimedOut  = false;
   \   000000AC   5010C0E5           STRB     R1,[R0, #+80]
    556                SystemWindow->SysWin3->TimerCount = SELECT_TIMEOUT;
   \   000000B0   8810A0E3           MOV      R1,#+136
   \   000000B4   4C1D81E3           ORR      R1,R1,#0x1300
   \   000000B8   4C1080E5           STR      R1,[R0, #+76]
    557                SystemWindow->SysWin3->FirstTime = true;
   \   000000BC   2840C0E5           STRB     R4,[R0, #+40]
   \   000000C0   F2FFFFEA           B        ??cbSysWin_8
    558                //SystemWindow->SysWin3->SetListViewColor();
    559                break;
    560             case WM_KEY:
    561                switch (((WM_KEY_INFO *)(pMsg->Data.p))->Key)
   \                     ??cbSysWin_2:
   \   000000C4   080098E5           LDR      R0,[R8, #+8]
   \   000000C8   000090E5           LDR      R0,[R0, #+0]
   \   000000CC   0D0050E2           SUBS     R0,R0,#+13
   \   000000D0   0500000A           BEQ      ??cbSysWin_9
   \   000000D4   0E0050E2           SUBS     R0,R0,#+14
   \   000000D8   ECFFFF1A           BNE      ??cbSysWin_8
    562                {
    563                case GUI_KEY_ESCAPE:
    564                   GUI_EndDialog(hWin, 1);
   \   000000DC   0110A0E3           MOV      R1,#+1
   \                     ??cbSysWin_10:
   \   000000E0   0600A0E1           MOV      R0,R6
   \   000000E4   ........           _BLF     GUI_EndDialog,??GUI_EndDialog??rA
   \   000000E8   E8FFFFEA           B        ??cbSysWin_8
    565                   break;
    566                case GUI_KEY_ENTER:
    567                   GUI_EndDialog(hWin, 0);
   \                     ??cbSysWin_9:
   \   000000EC   0010A0E3           MOV      R1,#+0
   \   000000F0   FAFFFFEA           B        ??cbSysWin_10
    568                   break;
    569                }
    570                break;
    571             case WM_NOTIFY_PARENT:
    572                Id    = WM_GetId(pMsg->hWinSrc);        /* Id of widget */
   \                     ??cbSysWin_5:
   \   000000F4   F600D8E1           LDRSH    R0,[R8, #+6]
   \   000000F8   ........           _BLF     WM_GetId,??WM_GetId??rA
    573                NCode = pMsg->Data.v;                               /* Notification code */
    574                switch (NCode)
   \   000000FC   081098E5           LDR      R1,[R8, #+8]
   \   00000100   021051E2           SUBS     R1,R1,#+2
   \   00000104   0C00000A           BEQ      ??cbSysWin_11
   \   00000108   021051E2           SUBS     R1,R1,#+2
    575                {
    576                case WM_NOTIFICATION_SEL_CHANGED:       /* React only if released */
    577                   switch (Id)
   \   0000010C   600F5003           CMPEQ    R0,#+384
   \   00000110   DEFFFF1A           BNE      ??cbSysWin_8
    578                   {
    579                   case GUI_ID_DROPDOWN0: /* Select TCU */
    580                      {
    581                         SystemWindow->SysWin3->CurrentIndex = DROPDOWN_GetSel(SystemWindow->SysWin3->hDropdPRO);
   \   00000114   000095E5           LDR      R0,[R5, #+0]
   \   00000118   600090E5           LDR      R0,[R0, #+96]
   \   0000011C   F403D0E1           LDRSH    R0,[R0, #+52]
   \   00000120   ........           _BLF     DROPDOWN_GetSel,??DROPDOWN_GetSel??rA
   \   00000124   0010A0E1           MOV      R1,R0
   \   00000128   000095E5           LDR      R0,[R5, #+0]
   \   0000012C   600090E5           LDR      R0,[R0, #+96]
   \   00000130   301080E5           STR      R1,[R0, #+48]
    582                         SystemWindow->SysWin3->ClearList();
   \   00000134   ........           BL       ??ClearList
   \   00000138   D4FFFFEA           B        ??cbSysWin_8
    583                      }
    584                      break;
    585                   }
    586                   break;
    587                case WM_NOTIFICATION_RELEASED:      /* React only if released */
    588                   SystemWindow->SysWin3->UserTouch = true;
   \                     ??cbSysWin_11:
   \   0000013C   001095E5           LDR      R1,[R5, #+0]
    589          
    590                   switch (Id)
   \   00000140   050050E3           CMP      R0,#+5
   \   00000144   602091E5           LDR      R2,[R1, #+96]
   \   00000148   4840C2E5           STRB     R4,[R2, #+72]
   \   0000014C   CFFFFF1A           BNE      ??cbSysWin_8
    591                   {
    592                   case GUI_ID_CLOSE:
    593                      /* Close Button */
    594                      SystemWindow->Protect();
   \   00000150   0100A0E1           MOV      R0,R1
   \   00000154   ........           _BLF     ??Protect,??Protect??rA
    595                      if (!SystemWindow->SysWin3IsClosed)
   \   00000158   000095E5           LDR      R0,[R5, #+0]
   \   0000015C   7200D0E5           LDRB     R0,[R0, #+114]
   \   00000160   000050E3           CMP      R0,#+0
   \   00000164   0600001A           BNE      ??cbSysWin_12
    596                      {
    597                         GUI_EndDialog(hWin, 0);
   \   00000168   0010A0E3           MOV      R1,#+0
   \   0000016C   0600A0E1           MOV      R0,R6
   \   00000170   ........           _BLF     GUI_EndDialog,??GUI_EndDialog??rA
    598                         ButWindow->EnableButton(2, true);
   \   00000174   000097E5           LDR      R0,[R7, #+0]
   \   00000178   0120A0E3           MOV      R2,#+1
   \   0000017C   0210A0E3           MOV      R1,#+2
   \   00000180   ........           _BLF     ??EnableButton,??EnableButton??rA
    599                      }
    600                      SystemWindow->UnProtect();
   \                     ??cbSysWin_12:
   \   00000184   000095E5           LDR      R0,[R5, #+0]
   \   00000188   ........           _BLF     ??UnProtect,??UnProtect??rA
   \   0000018C   BFFFFFEA           B        ??cbSysWin_8
    601                      break;
    602                   }
    603                   break;
    604                }
    605                break;
    606             default:
    607                WM_DefaultProc(pMsg);
   \                     ??cbSysWin_6:
   \   00000190   0800A0E1           MOV      R0,R8
   \   00000194   ........           _BLF     WM_DefaultProc,??WM_DefaultProc??rA
    608             }
    609          }
   \                     ??cbSysWin_13:
   \   00000198   BCFFFFEA           B        ??cbSysWin_8

   \                                 In segment DIFUNCT, align 4, keep-with-next, root
   \   00000000                      REQUIRE ?call_ctors
   \   00000000   ........           DC32    ??__sti__routine

   \                                 In segment DATA_C, align 4, align-sorted
   \                     `?<Constant "System page 3: IO units">`:
   \   00000000   53797374656D       DC8 "System page 3: IO units"
   \              207061676520
   \              333A20494F20
   \              756E69747300

   \                                 In segment DATA_C, align 4, align-sorted
   \                     `?<Constant "Select:">`:
   \   00000000   53656C656374       DC8 "Select:"
   \              3A00        

   \                                 In segment DATA_C, align 4, align-sorted
   \   00000000   3F3F3F00           DC8 "???"

   \                                 In segment DATA_C, align 4, align-sorted
   \                     `?<Constant {{2191, 0, 39}, {352, 0, 40}}>`:
   \   00000000   8F0800000000       DC32 2191, 0, 39, 352, 0, 40
   \              000027000000
   \              600100000000
   \              000028000000
   \   00000018   206F6E205A42       DC8 " on ZB485:"
   \              3438353A00  
   \   00000023   00                 DC8 0
   \   00000024   2043682E00         DC8 " Ch."
   \   00000029   000000             DC8 0, 0, 0
   \   0000002C   202841442D53       DC8 " (AD-SGCNV) "
   \              47434E562920
   \              00          
   \   00000039   000000             DC8 0, 0, 0
   \   0000003C   206F6E205A42       DC8 " on ZBHART:"
   \              484152543A00
   \   00000048   206F6E205A42       DC8 " on ZBANA:"
   \              414E413A00  
   \   00000053   00                 DC8 0

   \                                 In segment DATA_C, align 1, align-sorted
   \   00000000   2800               DC8 "("

   \                                 In segment DATA_C, align 1, align-sorted
   \   00000000   2900               DC8 ")"

   \                                 In segment DATA_C, align 4, align-sorted
   \                     `?<Constant {{554, 18, 0}, {74, 60, 0}, {555, 2`:
   \   00000000   2A0200001200       DC32 554, 18, 0, 74, 60, 0, 555, 25, 0, 449, 50, 0, 556, 50, 1, 128, 50
   \              000000000000
   \              4A0000003C00
   \              000000000000
   \              2B0200001900
   \              000000000000
   \              C10100003200
   \              000000000000
   \              2C0200003200
   \              000001000000
   \              800000003200
   \              0000        
   \   00000044   010000007E00       DC32 1, 126, 50, 1, 127, 50, 1, 36, 50, 0, 1, 50, 0, 557, 50, 0, 558
   \              000032000000
   \              010000007F00
   \              000032000000
   \              010000002400
   \              000032000000
   \              000000000100
   \              000032000000
   \              000000002D02
   \              000032000000
   \              000000002E02
   \              0000        
   \   00000088   320000000200       DC32 50, 2, 559, 45, 2, 560, 45, 2, 561, 50, 2, 562, 50, 2, 563, 50, 2
   \              00002F020000
   \              2D0000000200
   \              000030020000
   \              2D0000000200
   \              000031020000
   \              320000000200
   \              000032020000
   \              320000000200
   \              000033020000
   \              320000000200
   \              0000        
   \   000000CC   340200003200       DC32 564, 50, 2
   \              000002000000

   \                                 In segment DATA_C, align 1, align-sorted
   \   00000000   00                 DC8 ""

   \                                 In segment CODE, align 4, keep-with-next
   \   __??Code32?? __code __interwork __atpcs TDUSysWin3 &TDUSysWin3::new TDUSysWin3()
   \                     `??new TDUSysWin3`:
   \   00000000   00402DE9           PUSH     {LR}
   \   00000004   5800A0E3           MOV      R0,#+88
   \   00000008   ........           _BLF     `??operator new`,`??operator new??rA`
   \   0000000C   000050E3           CMP      R0,#+0
   \   00000010   0000000A           BEQ      `??new TDUSysWin3_1`
   \   00000014   ........           BL       ??TDUSysWin3
   \                     `??new TDUSysWin3_1`:
   \   00000018   0040BDE8           POP      {LR}
   \   0000001C   1EFF2FE1           BX       LR               ;; return

   \                                 In segment CODE, align 4, keep-with-next
   \   static __??Code32?? __intrinsic __code __interwork __atpcs void __sti__routine()
   \                     ??__sti__routine:
   \   00000000   1C109FE5           LDR      R1,??__sti__routine_1  ;; GUI_Font13_1
   \   00000004   ........           LDR      R0,??DataTable3  ;; TDU_FONT_ST
   \   00000008   30002DE9           PUSH     {R4,R5}
   \   0000000C   3C10B1E8           LDM      R1!,{R2-R5,R12}
   \   00000010   3C10A0E8           STM      R0!,{R2-R5,R12}
   \   00000014   1C1091E8           LDM      R1,{R2-R4,R12}
   \   00000018   1C1080E8           STM      R0,{R2-R4,R12}
   \   0000001C   3000BDE8           POP      {R4,R5}
   \   00000020   1EFF2FE1           BX       LR               ;; return
   \                     ??__sti__routine_1:
   \   00000024   ........           DC32     GUI_Font13_1

   \                                 In segment CODE, align 4, keep-with-next
   \   __??Code32?? __code __interwork __atpcs void TDUSysWin3::delete ~TDUSysWin3(TDUSysWin3 *)
   \                     `??delete ~TDUSysWin3`:
   \   00000000   10402DE9           PUSH     {R4,LR}
   \   00000004   0040B0E1           MOVS     R4,R0
   \   00000008   0200000A           BEQ      `??delete ~TDUSysWin3_1`
   \   0000000C   ........           BL       `?~TDUSysWin3`
   \   00000010   0400A0E1           MOV      R0,R4
   \   00000014   ........           _BLF     `??operator delete`,`??operator delete??rA`
   \                     `??delete ~TDUSysWin3_1`:
   \   00000018   1040BDE8           POP      {R4,LR}
   \   0000001C   1EFF2FE1           BX       LR               ;; return

   \                                 In segment CODE, align 4, keep-with-next
   \                     ??DataTable1:
   \   00000000   ........           DC32     SystemWindow

   \                                 In segment CODE, align 4, keep-with-next
   \                     ??DataTable2:
   \   00000000   ........           DC32     ButWindow

   \                                 In segment CODE, align 4, keep-with-next
   \                     ??DataTable3:
   \   00000000   ........           DC32     TDU_FONT_ST

   \                                 In segment CODE, align 4, keep-with-next
   \                     ??DataTable8:
   \   00000000   00000000           DC8      "",+0,+0,+0

   \                                 In segment CODE, align 4, keep-with-next
   \                     ??DataTable9:
   \   00000000   ........           DC32     ??npos

   \                                 In segment CODE, align 4, keep-with-next
   \                     ??DataTable10:
   \   00000000   ........           DC32     `?<Constant {{2191, 0, 39}, {352, 0, 40}}>`

   \                                 In segment CODE, align 4, keep-with-next
   \                     ??DataTable12:
   \   00000000   ........           DC32     ??npos

   \                                 In segment CODE, align 4, keep-with-next
   \                     ??DataTable14:
   \   00000000   ........           DC32     ButWindow

   \                                 In segment CODE, align 4, keep-with-next
   \                     ??DataTable15:
   \   00000000   ........           DC32     SystemWindow
    610          

   Maximum stack usage in bytes:

     Function                       CSTACK
     --------                       ------
     TDUSysWin3::ClearList()           20
     TDUSysWin3::ExecDialogBox(GUI_HWIN)
                                       24
     TDUSysWin3::GetDialogHandles()     8
     TDUSysWin3::InitSysWin()         652
     TDUSysWin3::SetListViewColor()    16
     TDUSysWin3::SetListviewRow(int, int, AnsiString, AnsiString, AnsiString, AnsiString, AnsiString, AnsiString, AnsiString, AnsiString, AnsiString)
                                       72
     TDUSysWin3::SetListviewRow2(int, AnsiString, AnsiString, AnsiString, AnsiString, AnsiString, AnsiString, AnsiString, AnsiString)
                                       40
     TDUSysWin3::SetupWin()           240
     TDUSysWin3::TDUSysWin3()           8
     TDUSysWin3::UpdateSysWin()      1208
     TDUSysWin3::cbSysWin(WM_MESSAGE *)
                                       28
     TDUSysWin3::delete ~TDUSysWin3(TDUSysWin3 *)
                                        8
     TDUSysWin3::new TDUSysWin3()       4
     TDUSysWin3::~TDUSysWin3()         12
     _Tree<_Tset_traits<PRogramObject *, less<PRogramObject *>, allocator<PRogramObject *>, false>>::iterator::operator++(int)
                                        0
     _Vector_impl<PRogramObjectBase *, allocator<PRogramObjectBase *>>::_Make_room(PRogramObjectBase **, unsigned int)
                                       32
     __sti__routine()                   8
     operator+(string const &, char const *)
                                       48
     operator+(string const &, string const &)
                                       48
     vector<PRogramObjectBase *>::push_back(PRogramObjectBase *)
                                        8


   Segment part sizes:

     Function/Label                 Bytes
     --------------                 -----
     _Tree<_Tset_traits<PRogramObject *, less<PRogramObject *>, allocator<PRogramObject *>, false>>::iterator::operator++(int)
                                     124
     operator+(string const &, string const &)
                                     156
     operator+(string const &, char const *)
                                     160
     _Vector_impl<PRogramObjectBase *, allocator<PRogramObjectBase *>>::_Make_room(PRogramObjectBase **, unsigned int)
                                     244
     vector<PRogramObjectBase *>::push_back(PRogramObjectBase *)
                                      84
     TDU_FONT_ST                      36
     TDUSysWin3::TDUSysWin3()         60
     TDUSysWin3::~TDUSysWin3()        64
     TDUSysWin3::aDialogCreate        96
     TDUSysWin3::SetListViewColor()  128
     TDUSysWin3::ExecDialogBox(GUI_HWIN)
                                     172
     TDUSysWin3::GetDialogHandles()   72
     TDUSysWin3::SetListviewRow(int, int, AnsiString, AnsiString, AnsiString, AnsiString, AnsiString, AnsiString, AnsiString, AnsiString, AnsiString)
                                     476
     TDUSysWin3::SetListviewRow2(int, AnsiString, AnsiString, AnsiString, AnsiString, AnsiString, AnsiString, AnsiString, AnsiString)
                                     308
     TDUSysWin3::InitSysWin()       1768
     TDUSysWin3::ClearList()         100
     TDUSysWin3::SetupWin()         1588
     TDUSysWin3::UpdateSysWin()     4948
     TDUSysWin3::cbSysWin(WM_MESSAGE *)
                                     412
     ?<Constant "System page 3: IO units">
                                      24
     ?<Constant "Select:">             8
     ?<Constant "???">                 4
     ?<Constant {{2191, 0, 39}, {352, 0, 40}}>
                                      84
     ?<Constant "(">                   2
     ?<Constant ")">                   2
     ?<Constant {{554, 18, 0}, {74, 60, 0}, {555, 2
                                     216
     ?<Constant "">                    1
     TDUSysWin3::new TDUSysWin3()     32
     __sti__routine()                 40
     TDUSysWin3::delete ~TDUSysWin3(TDUSysWin3 *)
                                      32
     ??DataTable1                      4
     ??DataTable2                      4
     ??DataTable3                      4
     ??DataTable8                      4
     ??DataTable9                      4
     ??DataTable10                     4
     ??DataTable12                     4
     ??DataTable14                     4
     ??DataTable15                     4
      Others                         856

 
 11 844 bytes in segment CODE
    437 bytes in segment DATA_C
     36 bytes in segment DATA_Z
      4 bytes in segment DIFUNCT
     12 bytes in segment INITTAB
 
 10 240 bytes of CODE  memory (+ 1 620 bytes shared)
    437 bytes of CONST memory
     36 bytes of DATA  memory

Errors: none
Warnings: none
