##############################################################################
#                                                                            #
# IAR ARM ANSI C/C++ Compiler V4.42A/W32               14/Sep/2022  15:18:53 #
# Copyright 1999-2005 IAR Systems. All rights reserved.                      #
#                                                                            #
#    Cpu mode        =  interwork                                            #
#    Endian          =  little                                               #
#    Stack alignment =  4                                                    #
#    Source file     =  D:\S2Prog\TXU\src\TDUSysWin5.cpp                     #
#    Command line    =  D:\S2Prog\TXU\src\TDUSysWin5.cpp --fpu None -D       #
#                       OS_LIBMODE_SP -D CPU_S3C2410 -D OS_RAMVECT=0 -D      #
#                       OS_UART=-1 -D S2TXU -D USE_LZO=1 -D __ARM_LIBRARY__  #
#                       -D WATCHDOG=1 -D NETWORK=1 -lCN                      #
#                       D:\S2Prog\TXU\Debug\List\ -o                         #
#                       D:\S2Prog\TXU\Debug\Obj\ -s9 --debug --cpu_mode arm  #
#                       --endian little --cpu ARM920T --stack_align 4        #
#                       --interwork -e --enable_multibytes --eec++           #
#                       --dlib_config "C:\Program Files (x86)\IAR            #
#                       Systems\Embedded Workbench                           #
#                       4.0\arm\LIB\dl4tpainl8n.h" -I                        #
#                       D:\S2Prog\TXU\GUI\CORE\ -I D:\S2Prog\TXU\GUI\WM\ -I  #
#                       D:\S2Prog\TXU\GUI\WIDGET\ -I D:\S2Prog\TXU\CONFIG\   #
#                       -I D:\S2Prog\TXU\INC\ -I D:\S2Prog\TXU\..\SHARED\INC #
#                       \ -I D:\S2Prog\TXU\..\SHARED\SRC\ -I                 #
#                       D:\S2Prog\TXU\..\SHARED\LZO\minilzo.210\ -I          #
#                       D:\S2Prog\TXU\lwip-1.4.1\src\include\ -I             #
#                       D:\S2Prog\TXU\lwip-1.4.1\src\include\ipv4\ -I        #
#                       D:\S2Prog\TXU\lwip-1.4.1\src\ -I                     #
#                       D:\S2Prog\TXU\..\SHARED\Database\ -I                 #
#                       D:\S2Prog\TXU\src\ -I "C:\Program Files (x86)\IAR    #
#                       Systems\Embedded Workbench 4.0\arm\INC\"             #
#                       --inline_threshold=2                                 #
#    List file       =  D:\S2Prog\TXU\Debug\List\TDUSysWin5.lst              #
#    Object file     =  D:\S2Prog\TXU\Debug\Obj\TDUSysWin5.r79               #
#                                                                            #
#                                                                            #
##############################################################################

D:\S2Prog\TXU\src\TDUSysWin5.cpp
      1          #include "TDUIncludes.h"
      2          

   \                                 In segment CODE, align 4, keep-with-next
      3          TDUSysWin5::TDUSysWin5(void)
   \                     ??TDUSysWin5:
   \   00000000   10402DE9           PUSH     {R4,LR}
   \   00000004   0040A0E1           MOV      R4,R0
      4          {
   \   00000008   ........           _BLF     ??TDUBasicWin,??TDUBasicWin??rA
   \   0000000C   580084E2           ADD      R0,R4,#+88
   \   00000010   ........           _BLF     ??AnsiString,??AnsiString??rA
      5          }
   \   00000014   0400A0E1           MOV      R0,R4
   \   00000018   1040BDE8           POP      {R4,LR}
   \   0000001C   1EFF2FE1           BX       LR               ;; return
      6          

   \                                 In segment CODE, align 4, keep-with-next
      7          TDUSysWin5::~TDUSysWin5(void)
      8          {
   \                     `?~TDUSysWin5`:
   \   00000000   10402DE9           PUSH     {R4,LR}
   \   00000004   0040A0E1           MOV      R4,R0
      9          }
   \   00000008   0020A0E3           MOV      R2,#+0
   \   0000000C   0110A0E3           MOV      R1,#+1
   \   00000010   580084E2           ADD      R0,R4,#+88
   \   00000014   ........           _BLF     ??_Tidy,??_Tidy??rA
   \   00000018   0400A0E1           MOV      R0,R4
   \   0000001C   ........           _BLF     `?~TDUBasicWin`,`?~TDUBasicWin??rA`
   \   00000020   1040BDE8           POP      {R4,LR}
   \   00000024   1EFF2FE1           BX       LR               ;; return
     10          

   \                                 In segment DATA_C, align 4, align-sorted
     11          const int TDUSysWin5::VList[2][8]={
   \                     ??VList:
   \   00000000   AA050000AC05       DC32 1450, 1452, 1454, 1456, 1458, 1460, 1462, 1467, 1451, 1453, 1455
   \              0000AE050000
   \              B0050000B205
   \              0000B4050000
   \              B6050000BB05
   \              0000AB050000
   \              AD050000AF05
   \              0000        
   \   0000002C   B1050000B305       DC32 1457, 1459, 1461, 1463, 1468
   \              0000B5050000
   \              B7050000BC05
   \              0000        
     12          	{SVT_CARGO_VOLUME ,SVT_BALLAST_VOLUME ,SVT_HEAVY_FUEL_VOLUME ,SVT_DIESEL_OIL_VOLUME ,SVT_LUBRICANTS_VOLUME ,SVT_FRESH_WATER_VOLUME ,SVT_MISC_VOLUME,SVT_TOTAL_VOLUME},
     13          	{SVT_CARGO_WEIGHT ,SVT_BALLAST_WEIGHT ,SVT_HEAVY_FUEL_WEIGHT ,SVT_DIESEL_OIL_WEIGHT ,SVT_LUBRICANTS_WEIGHT ,SVT_FRESH_WATER_WEIGHT ,SVT_MISC_WEIGHT,SVT_TOTAL_WEIGHT},
     14          };

   \                                 In segment DATA_C, align 4, align-sorted
     15          const GUI_WIDGET_CREATE_INFO TDUSysWin5::aDialogCreate[] =
   \                     ??aDialogCreate:
   \   00000000   ............       DC32 FRAMEWIN_CreateIndirect, `?<Constant "System page 5">`
   \              ....        
   \   00000008   920800000000       DC16 2194, 0, 0, 286, 198, 128
   \              1E01C6008000
   \   00000014   00000000....       DC32 0, TEXT_CreateIndirect, `?<Constant "Total for all tanks">`
   \              ............
   \   00000020   60010A000A00       DC16 352, 10, 10, 85, 15, 0
   \              55000F000000
   \   0000002C   00000000           DC8 0, 0, 0, 0
   \   00000030   ............       DC32 TEXT_CreateIndirect, `?<Constant "Volume">`
   \              ....        
   \   00000038   100A64000A00       DC16 2576, 100, 10, 70, 15, 1
   \              46000F000100
   \   00000044   00000000           DC8 0, 0, 0, 0
   \   00000048   ............       DC32 TEXT_CreateIndirect, `?<Constant "Weight">`
   \              ....        
   \   00000050   110ABE000A00       DC16 2577, 190, 10, 70, 15, 1
   \              46000F000100
   \   0000005C   00000000           DC8 0, 0, 0, 0
   \   00000060   ............       DC32 TEXT_CreateIndirect, `?<Constant "">`
   \              ....        
   \   00000068   61010A001900       DC16 353, 10, 25, 80, 15, 0
   \              50000F000000
   \   00000074   00000000           DC8 0, 0, 0, 0
   \   00000078   ............       DC32 TEXT_CreateIndirect, `?<Constant "Cargo">`
   \              ....        
   \   00000080   62010A002800       DC16 354, 10, 40, 80, 15, 0
   \              50000F000000
   \   0000008C   00000000           DC8 0, 0, 0, 0
   \   00000090   ............       DC32 TEXT_CreateIndirect, `?<Constant "Ballast">`
   \              ....        
   \   00000098   63010A003700       DC16 355, 10, 55, 80, 15, 0
   \              50000F000000
   \   000000A4   00000000           DC8 0, 0, 0, 0
   \   000000A8   ............       DC32 TEXT_CreateIndirect, `?<Constant "Heavy fuel">`
   \              ....        
   \   000000B0   64010A004600       DC16 356, 10, 70, 80, 15, 0
   \              50000F000000
   \   000000BC   00000000           DC8 0, 0, 0, 0
   \   000000C0   ............       DC32 TEXT_CreateIndirect, `?<Constant "Diesel oil">`
   \              ....        
   \   000000C8   65010A005500       DC16 357, 10, 85, 80, 15, 0
   \              50000F000000
   \   000000D4   00000000           DC8 0, 0, 0, 0
   \   000000D8   ............       DC32 TEXT_CreateIndirect, `?<Constant "Lubricants">`
   \              ....        
   \   000000E0   66010A006400       DC16 358, 10, 100, 80, 15, 0
   \              50000F000000
   \   000000EC   00000000           DC8 0, 0, 0, 0
   \   000000F0   ............       DC32 TEXT_CreateIndirect, `?<Constant "Fresh water">`
   \              ....        
   \   000000F8   67010A007300       DC16 359, 10, 115, 80, 15, 0
   \              50000F000000
   \   00000104   00000000           DC8 0, 0, 0, 0
   \   00000108   ............       DC32 TEXT_CreateIndirect, `?<Constant "Misc">`
   \              ....        
   \   00000110   68010A008200       DC16 360, 10, 130, 80, 15, 0
   \              50000F000000
   \   0000011C   00000000           DC8 0, 0, 0, 0
   \   00000120   ............       DC32 TEXT_CreateIndirect, `?<Constant "Grand total">`
   \              ....        
   \   00000128   69010A009100       DC16 361, 10, 145, 80, 15, 0
   \              50000F000000
   \   00000134   00000000           DC8 0, 0, 0, 0
   \   00000138   ............       DC32 TEXT_CreateIndirect, `?<Constant "--">`
   \              ....        
   \   00000140   FE0964001900       DC16 2558, 100, 25, 70, 15, 1
   \              46000F000100
   \   0000014C   00000000           DC8 0, 0, 0, 0
   \   00000150   ............       DC32 TEXT_CreateIndirect, `?<Constant "0.0">`
   \              ....        
   \   00000158   FF0964002800       DC16 2559, 100, 40, 70, 15, 1
   \              46000F000100
   \   00000164   00000000           DC8 0, 0, 0, 0
   \   00000168   ............       DC32 TEXT_CreateIndirect, `?<Constant "0.0">`
   \              ....        
   \   00000170   000A64003700       DC16 2560, 100, 55, 70, 15, 1
   \              46000F000100
   \   0000017C   00000000           DC8 0, 0, 0, 0
   \   00000180   ............       DC32 TEXT_CreateIndirect, `?<Constant "0.0">`
   \              ....        
   \   00000188   010A64004600       DC16 2561, 100, 70, 70, 15, 1
   \              46000F000100
   \   00000194   00000000           DC8 0, 0, 0, 0
   \   00000198   ............       DC32 TEXT_CreateIndirect, `?<Constant "0.0">`
   \              ....        
   \   000001A0   020A64005500       DC16 2562, 100, 85, 70, 15, 1
   \              46000F000100
   \   000001AC   00000000           DC8 0, 0, 0, 0
   \   000001B0   ............       DC32 TEXT_CreateIndirect, `?<Constant "0.0">`
   \              ....        
   \   000001B8   030A64006400       DC16 2563, 100, 100, 70, 15, 1
   \              46000F000100
   \   000001C4   00000000           DC8 0, 0, 0, 0
   \   000001C8   ............       DC32 TEXT_CreateIndirect, `?<Constant "0.0">`
   \              ....        
   \   000001D0   040A64007300       DC16 2564, 100, 115, 70, 15, 1
   \              46000F000100
   \   000001DC   00000000           DC8 0, 0, 0, 0
   \   000001E0   ............       DC32 TEXT_CreateIndirect, `?<Constant "0.0">`
   \              ....        
   \   000001E8   050A64008200       DC16 2565, 100, 130, 70, 15, 1
   \              46000F000100
   \   000001F4   00000000           DC8 0, 0, 0, 0
   \   000001F8   ............       DC32 TEXT_CreateIndirect, `?<Constant "0.0">`
   \              ....        
   \   00000200   060A64009100       DC16 2566, 100, 145, 70, 15, 1
   \              46000F000100
   \   0000020C   00000000           DC8 0, 0, 0, 0
   \   00000210   ............       DC32 TEXT_CreateIndirect, `?<Constant "--">`
   \              ....        
   \   00000218   070ABE001900       DC16 2567, 190, 25, 70, 15, 1
   \              46000F000100
   \   00000224   00000000           DC8 0, 0, 0, 0
   \   00000228   ............       DC32 TEXT_CreateIndirect, `?<Constant "0.0">`
   \              ....        
   \   00000230   080ABE002800       DC16 2568, 190, 40, 70, 15, 1
   \              46000F000100
   \   0000023C   00000000           DC8 0, 0, 0, 0
   \   00000240   ............       DC32 TEXT_CreateIndirect, `?<Constant "0.0">`
   \              ....        
   \   00000248   090ABE003700       DC16 2569, 190, 55, 70, 15, 1
   \              46000F000100
   \   00000254   00000000           DC8 0, 0, 0, 0
   \   00000258   ............       DC32 TEXT_CreateIndirect, `?<Constant "0.0">`
   \              ....        
   \   00000260   0A0ABE004600       DC16 2570, 190, 70, 70, 15, 1
   \              46000F000100
   \   0000026C   00000000           DC8 0, 0, 0, 0
   \   00000270   ............       DC32 TEXT_CreateIndirect, `?<Constant "0.0">`
   \              ....        
   \   00000278   0B0ABE005500       DC16 2571, 190, 85, 70, 15, 1
   \              46000F000100
   \   00000284   00000000           DC8 0, 0, 0, 0
   \   00000288   ............       DC32 TEXT_CreateIndirect, `?<Constant "0.0">`
   \              ....        
   \   00000290   0C0ABE006400       DC16 2572, 190, 100, 70, 15, 1
   \              46000F000100
   \   0000029C   00000000           DC8 0, 0, 0, 0
   \   000002A0   ............       DC32 TEXT_CreateIndirect, `?<Constant "0.0">`
   \              ....        
   \   000002A8   0D0ABE007300       DC16 2573, 190, 115, 70, 15, 1
   \              46000F000100
   \   000002B4   00000000           DC8 0, 0, 0, 0
   \   000002B8   ............       DC32 TEXT_CreateIndirect, `?<Constant "0.0">`
   \              ....        
   \   000002C0   0E0ABE008200       DC16 2574, 190, 130, 70, 15, 1
   \              46000F000100
   \   000002CC   00000000           DC8 0, 0, 0, 0
   \   000002D0   ............       DC32 TEXT_CreateIndirect, `?<Constant "0.0">`
   \              ....        
   \   000002D8   0F0ABE009100       DC16 2575, 190, 145, 70, 15, 1
   \              46000F000100
   \   000002E4   00000000           DC8 0, 0, 0, 0
     16          {
     17          	{ FRAMEWIN_CreateIndirect, "System page 5",TDU_SYSTEM5_WIN, 0, 0, 286, 198, FRAMEWIN_CF_MAXIMIZED, 0},
     18          	{ TEXT_CreateIndirect, "Total for all tanks"  , GUI_ID_TEXT0,   10,  10, 85, 15, TEXT_CF_LEFT},
     19          	{ TEXT_CreateIndirect, "Volume" 		,    	GUI_ID_TEXT28,  100 ,  10, 70, 15, TEXT_CF_RIGHT},
     20          	{ TEXT_CreateIndirect, "Weight" 		,    	GUI_ID_TEXT29,  190 ,  10, 70, 15, TEXT_CF_RIGHT},
     21          	{ TEXT_CreateIndirect, ""     			,GUI_ID_TEXT1	,   10 ,  25, 80, 15, TEXT_CF_LEFT},
     22          	{ TEXT_CreateIndirect, "Cargo"    	,GUI_ID_TEXT2	,   10 ,  40, 80, 15, TEXT_CF_LEFT},
     23          	{ TEXT_CreateIndirect, "Ballast"  	,GUI_ID_TEXT3	,   10 ,  55, 80, 15, TEXT_CF_LEFT},
     24          	{ TEXT_CreateIndirect, "Heavy fuel" ,GUI_ID_TEXT4	,   10 ,  70, 80, 15, TEXT_CF_LEFT},
     25          	{ TEXT_CreateIndirect, "Diesel oil" ,GUI_ID_TEXT5	,   10 ,  85, 80, 15, TEXT_CF_LEFT},
     26          	{ TEXT_CreateIndirect, "Lubricants" ,GUI_ID_TEXT6	,   10 , 100, 80, 15, TEXT_CF_LEFT},
     27          	{ TEXT_CreateIndirect, "Fresh water",GUI_ID_TEXT7	,   10 , 115, 80, 15, TEXT_CF_LEFT},
     28          	{ TEXT_CreateIndirect, "Misc"   		,GUI_ID_TEXT8	,   10 , 130, 80, 15, TEXT_CF_LEFT},
     29          	{ TEXT_CreateIndirect, "Grand total",GUI_ID_TEXT9 ,   10 , 145, 80, 15, TEXT_CF_LEFT},
     30          	{ TEXT_CreateIndirect, "--"   			,GUI_ID_TEXT10,   100,  25, 70, 15, TEXT_CF_RIGHT},
     31          	{ TEXT_CreateIndirect, "0.0"     		,GUI_ID_TEXT11,   100,  40, 70, 15, TEXT_CF_RIGHT},
     32          	{ TEXT_CreateIndirect, "0.0"     		,GUI_ID_TEXT12,   100,  55, 70, 15, TEXT_CF_RIGHT},
     33          	{ TEXT_CreateIndirect, "0.0"     		,GUI_ID_TEXT13,   100,  70, 70, 15, TEXT_CF_RIGHT},
     34          	{ TEXT_CreateIndirect, "0.0"     		,GUI_ID_TEXT14,   100,  85, 70, 15, TEXT_CF_RIGHT},
     35          	{ TEXT_CreateIndirect, "0.0"     		,GUI_ID_TEXT15,   100, 100, 70, 15, TEXT_CF_RIGHT},
     36          	{ TEXT_CreateIndirect, "0.0"     		,GUI_ID_TEXT16,   100, 115, 70, 15, TEXT_CF_RIGHT},
     37          	{ TEXT_CreateIndirect, "0.0"     		,GUI_ID_TEXT17,   100, 130, 70, 15, TEXT_CF_RIGHT},
     38          	{ TEXT_CreateIndirect, "0.0"     		,GUI_ID_TEXT18,   100, 145, 70, 15, TEXT_CF_RIGHT},
     39          	{ TEXT_CreateIndirect, "--"   			,GUI_ID_TEXT19,   190,  25, 70, 15, TEXT_CF_RIGHT},
     40          	{ TEXT_CreateIndirect, "0.0"     		,GUI_ID_TEXT20,   190,  40, 70, 15, TEXT_CF_RIGHT},
     41          	{ TEXT_CreateIndirect, "0.0"     		,GUI_ID_TEXT21,   190,  55, 70, 15, TEXT_CF_RIGHT},
     42          	{ TEXT_CreateIndirect, "0.0"     		,GUI_ID_TEXT22,   190,  70, 70, 15, TEXT_CF_RIGHT},
     43          	{ TEXT_CreateIndirect, "0.0"     		,GUI_ID_TEXT23,   190,  85, 70, 15, TEXT_CF_RIGHT},
     44          	{ TEXT_CreateIndirect, "0.0"     		,GUI_ID_TEXT24,   190, 100, 70, 15, TEXT_CF_RIGHT},
     45          	{ TEXT_CreateIndirect, "0.0"     		,GUI_ID_TEXT25,   190, 115, 70, 15, TEXT_CF_RIGHT},
     46          	{ TEXT_CreateIndirect, "0.0"     		,GUI_ID_TEXT26,   190, 130, 70, 15, TEXT_CF_RIGHT},
     47          	{ TEXT_CreateIndirect, "0.0"     		,GUI_ID_TEXT27,   190, 145, 70, 15, TEXT_CF_RIGHT},
     48          };
     49          

   \                                 In segment DATA_I, align 4, align-sorted
     50          unsigned TDUSysWin5::IdSet2[] ={
   \                     ??IdSet2:
   \   00000000                      DS8 84
   \   00000054                      REQUIRE `?<Initializer for IdSet2>`
     51          	GUI_ID_TEXT3,
     52          	GUI_ID_TEXT4,
     53          	GUI_ID_TEXT5,
     54          	GUI_ID_TEXT6,
     55          	GUI_ID_TEXT7,
     56          	GUI_ID_TEXT8,
     57          	GUI_ID_TEXT9,
     58          
     59          	GUI_ID_TEXT12,
     60          	GUI_ID_TEXT13,
     61          	GUI_ID_TEXT14,
     62          	GUI_ID_TEXT15,
     63          	GUI_ID_TEXT16,
     64          	GUI_ID_TEXT17,
     65          	GUI_ID_TEXT18,
     66          
     67          	GUI_ID_TEXT21,
     68          	GUI_ID_TEXT22,
     69          	GUI_ID_TEXT23,
     70          	GUI_ID_TEXT24,
     71          	GUI_ID_TEXT25,
     72          	GUI_ID_TEXT26,
     73          	GUI_ID_TEXT27,
     74          
     75          };
     76          
     77          
     78          

   \                                 In segment CODE, align 4, keep-with-next
     79          void TDUSysWin5::ExecDialogBox(WM_HWIN hCurrentWin) {
   \                     ??ExecDialogBox:
   \   00000000   70402DE9           PUSH     {R4-R6,LR}
     80              SystemWindow->Protect();
   \   00000004   ........           LDR      R5,??DataTable1  ;; SystemWindow
   \   00000008   0040A0E1           MOV      R4,R0
   \   0000000C   000095E5           LDR      R0,[R5, #+0]
   \   00000010   0160A0E1           MOV      R6,R1
   \   00000014   ........           _BLF     ??Protect,??Protect??rA
     81          	if ( SystemWindow->SysWin5IsClosed ) {
   \   00000018   000095E5           LDR      R0,[R5, #+0]
   \   0000001C   7410D0E5           LDRB     R1,[R0, #+116]
   \   00000020   000051E3           CMP      R1,#+0
   \   00000024   1300000A           BEQ      ??ExecDialogBox_1
     82          		SystemWindow->SysWin5IsClosed = false;
     83          		WinHandl = GUI_CreateDialogBox(aDialogCreate, GUI_COUNTOF(aDialogCreate),&cbSysWin,
     84          																	 hCurrentWin, 0, 0);
   \   00000028   60209FE5           LDR      R2,??ExecDialogBox_2  ;; ??cbSysWin
   \   0000002C   0010A0E3           MOV      R1,#+0
   \   00000030   7410C0E5           STRB     R1,[R0, #+116]
   \   00000034   0000A0E3           MOV      R0,#+0
   \   00000038   01002DE9           PUSH     {R0}
   \   0000003C   01002DE9           PUSH     {R0}
   \   00000040   4C009FE5           LDR      R0,??ExecDialogBox_2+0x4  ;; ??aDialogCreate
   \   00000044   0630A0E1           MOV      R3,R6
   \   00000048   1F10A0E3           MOV      R1,#+31
   \   0000004C   ........           _BLF     GUI_CreateDialogBox,??GUI_CreateDialogBox??rA
   \   00000050   BA02C4E1           STRH     R0,[R4, #+42]
     85          		SystemWindow->CurrentSysWin = TDU_SYSWIN5;
   \   00000054   000095E5           LDR      R0,[R5, #+0]
   \   00000058   0510A0E3           MOV      R1,#+5
   \   0000005C   6C1080E5           STR      R1,[R0, #+108]
     86          		WM_EnableMemdev(WinHandl);
   \   00000060   FA02D4E1           LDRSH    R0,[R4, #+42]
   \   00000064   ........           _BLF     WM_EnableMemdev,??WM_EnableMemdev??rA
     87          		GetDialogHandles();
   \   00000068   0400A0E1           MOV      R0,R4
   \   0000006C   ........           BL       ??GetDialogHandles
   \   00000070   08D08DE2           ADD      SP,SP,#+8
   \   00000074   010000EA           B        ??ExecDialogBox_3
     88          	} else {
     89          		WM_BringToTop(WinHandl);
   \                     ??ExecDialogBox_1:
   \   00000078   FA02D4E1           LDRSH    R0,[R4, #+42]
   \   0000007C   ........           _BLF     WM_BringToTop,??WM_BringToTop??rA
     90          	}
     91              SystemWindow->UnProtect();
   \                     ??ExecDialogBox_3:
   \   00000080   000095E5           LDR      R0,[R5, #+0]
   \   00000084   ........           _BLF     ??UnProtect,??UnProtect??rA
     92          }
   \   00000088   7040BDE8           POP      {R4-R6,LR}
   \   0000008C   1EFF2FE1           BX       LR               ;; return
   \                     ??ExecDialogBox_2:
   \   00000090   ........           DC32     ??cbSysWin
   \   00000094   ........           DC32     ??aDialogCreate
     93          
     94          /*********************************************************************
     95          *
     96          * Dialog procedure
     97          */

   \                                 In segment CODE, align 4, keep-with-next
     98          void TDUSysWin5::GetDialogHandles(void)
     99          {
   \                     ??GetDialogHandles:
   \   00000000   10402DE9           PUSH     {R4,LR}
   \   00000004   0040A0E1           MOV      R4,R0
    100          	uText[0]    = WM_GetDialogItem(WinHandl, GUI_ID_TEXT10);
   \   00000008   FA02D4E1           LDRSH    R0,[R4, #+42]
   \   0000000C   FE10A0E3           MOV      R1,#+254
   \   00000010   901E81E3           ORR      R1,R1,#0x900
   \   00000014   ........           _BLF     WM_GetDialogItem,??WM_GetDialogItem??rA
   \   00000018   B403C4E1           STRH     R0,[R4, #+52]
    101          	vText[0][0] = WM_GetDialogItem(WinHandl, GUI_ID_TEXT11);
   \   0000001C   FA02D4E1           LDRSH    R0,[R4, #+42]
   \   00000020   FF10A0E3           MOV      R1,#+255
   \   00000024   901E81E3           ORR      R1,R1,#0x900
   \   00000028   ........           _BLF     WM_GetDialogItem,??WM_GetDialogItem??rA
   \   0000002C   B803C4E1           STRH     R0,[R4, #+56]
    102          	vText[0][1] = WM_GetDialogItem(WinHandl, GUI_ID_TEXT12);
   \   00000030   FA02D4E1           LDRSH    R0,[R4, #+42]
   \   00000034   A01EA0E3           MOV      R1,#+2560
   \   00000038   ........           _BLF     WM_GetDialogItem,??WM_GetDialogItem??rA
   \   0000003C   BA03C4E1           STRH     R0,[R4, #+58]
    103          	vText[0][2] = WM_GetDialogItem(WinHandl, GUI_ID_TEXT13);
   \   00000040   FA02D4E1           LDRSH    R0,[R4, #+42]
   \   00000044   0110A0E3           MOV      R1,#+1
   \   00000048   A01E81E3           ORR      R1,R1,#0xA00
   \   0000004C   ........           _BLF     WM_GetDialogItem,??WM_GetDialogItem??rA
   \   00000050   BC03C4E1           STRH     R0,[R4, #+60]
    104          	vText[0][3] = WM_GetDialogItem(WinHandl, GUI_ID_TEXT14);
   \   00000054   FA02D4E1           LDRSH    R0,[R4, #+42]
   \   00000058   0210A0E3           MOV      R1,#+2
   \   0000005C   A01E81E3           ORR      R1,R1,#0xA00
   \   00000060   ........           _BLF     WM_GetDialogItem,??WM_GetDialogItem??rA
   \   00000064   BE03C4E1           STRH     R0,[R4, #+62]
    105          	vText[0][4] = WM_GetDialogItem(WinHandl, GUI_ID_TEXT15);
   \   00000068   FA02D4E1           LDRSH    R0,[R4, #+42]
   \   0000006C   0310A0E3           MOV      R1,#+3
   \   00000070   A01E81E3           ORR      R1,R1,#0xA00
   \   00000074   ........           _BLF     WM_GetDialogItem,??WM_GetDialogItem??rA
   \   00000078   B004C4E1           STRH     R0,[R4, #+64]
    106          	vText[0][5] = WM_GetDialogItem(WinHandl, GUI_ID_TEXT16);
   \   0000007C   FA02D4E1           LDRSH    R0,[R4, #+42]
   \   00000080   0410A0E3           MOV      R1,#+4
   \   00000084   A01E81E3           ORR      R1,R1,#0xA00
   \   00000088   ........           _BLF     WM_GetDialogItem,??WM_GetDialogItem??rA
   \   0000008C   B204C4E1           STRH     R0,[R4, #+66]
    107          	vText[0][6] = WM_GetDialogItem(WinHandl, GUI_ID_TEXT17);
   \   00000090   FA02D4E1           LDRSH    R0,[R4, #+42]
   \   00000094   0510A0E3           MOV      R1,#+5
   \   00000098   A01E81E3           ORR      R1,R1,#0xA00
   \   0000009C   ........           _BLF     WM_GetDialogItem,??WM_GetDialogItem??rA
   \   000000A0   B404C4E1           STRH     R0,[R4, #+68]
    108          	vText[0][7] = WM_GetDialogItem(WinHandl, GUI_ID_TEXT18);
   \   000000A4   FA02D4E1           LDRSH    R0,[R4, #+42]
   \   000000A8   0610A0E3           MOV      R1,#+6
   \   000000AC   A01E81E3           ORR      R1,R1,#0xA00
   \   000000B0   ........           _BLF     WM_GetDialogItem,??WM_GetDialogItem??rA
   \   000000B4   B604C4E1           STRH     R0,[R4, #+70]
    109          
    110          	uText[1]    = WM_GetDialogItem(WinHandl, GUI_ID_TEXT19);
   \   000000B8   FA02D4E1           LDRSH    R0,[R4, #+42]
   \   000000BC   0710A0E3           MOV      R1,#+7
   \   000000C0   A01E81E3           ORR      R1,R1,#0xA00
   \   000000C4   ........           _BLF     WM_GetDialogItem,??WM_GetDialogItem??rA
   \   000000C8   B603C4E1           STRH     R0,[R4, #+54]
    111          	vText[1][0] = WM_GetDialogItem(WinHandl, GUI_ID_TEXT20);
   \   000000CC   FA02D4E1           LDRSH    R0,[R4, #+42]
   \   000000D0   0810A0E3           MOV      R1,#+8
   \   000000D4   A01E81E3           ORR      R1,R1,#0xA00
   \   000000D8   ........           _BLF     WM_GetDialogItem,??WM_GetDialogItem??rA
   \   000000DC   B804C4E1           STRH     R0,[R4, #+72]
    112          	vText[1][1] = WM_GetDialogItem(WinHandl, GUI_ID_TEXT21);
   \   000000E0   FA02D4E1           LDRSH    R0,[R4, #+42]
   \   000000E4   0910A0E3           MOV      R1,#+9
   \   000000E8   A01E81E3           ORR      R1,R1,#0xA00
   \   000000EC   ........           _BLF     WM_GetDialogItem,??WM_GetDialogItem??rA
   \   000000F0   BA04C4E1           STRH     R0,[R4, #+74]
    113          	vText[1][2] = WM_GetDialogItem(WinHandl, GUI_ID_TEXT22);
   \   000000F4   FA02D4E1           LDRSH    R0,[R4, #+42]
   \   000000F8   0A10A0E3           MOV      R1,#+10
   \   000000FC   A01E81E3           ORR      R1,R1,#0xA00
   \   00000100   ........           _BLF     WM_GetDialogItem,??WM_GetDialogItem??rA
   \   00000104   BC04C4E1           STRH     R0,[R4, #+76]
    114          	vText[1][3] = WM_GetDialogItem(WinHandl, GUI_ID_TEXT23);
   \   00000108   FA02D4E1           LDRSH    R0,[R4, #+42]
   \   0000010C   0B10A0E3           MOV      R1,#+11
   \   00000110   A01E81E3           ORR      R1,R1,#0xA00
   \   00000114   ........           _BLF     WM_GetDialogItem,??WM_GetDialogItem??rA
   \   00000118   BE04C4E1           STRH     R0,[R4, #+78]
    115          	vText[1][4] = WM_GetDialogItem(WinHandl, GUI_ID_TEXT24);
   \   0000011C   FA02D4E1           LDRSH    R0,[R4, #+42]
   \   00000120   0C10A0E3           MOV      R1,#+12
   \   00000124   A01E81E3           ORR      R1,R1,#0xA00
   \   00000128   ........           _BLF     WM_GetDialogItem,??WM_GetDialogItem??rA
   \   0000012C   B005C4E1           STRH     R0,[R4, #+80]
    116          	vText[1][5] = WM_GetDialogItem(WinHandl, GUI_ID_TEXT25);
   \   00000130   FA02D4E1           LDRSH    R0,[R4, #+42]
   \   00000134   0D10A0E3           MOV      R1,#+13
   \   00000138   A01E81E3           ORR      R1,R1,#0xA00
   \   0000013C   ........           _BLF     WM_GetDialogItem,??WM_GetDialogItem??rA
   \   00000140   B205C4E1           STRH     R0,[R4, #+82]
    117          	vText[1][6] = WM_GetDialogItem(WinHandl, GUI_ID_TEXT26);
   \   00000144   FA02D4E1           LDRSH    R0,[R4, #+42]
   \   00000148   0E10A0E3           MOV      R1,#+14
   \   0000014C   A01E81E3           ORR      R1,R1,#0xA00
   \   00000150   ........           _BLF     WM_GetDialogItem,??WM_GetDialogItem??rA
   \   00000154   B405C4E1           STRH     R0,[R4, #+84]
    118          	vText[1][7] = WM_GetDialogItem(WinHandl, GUI_ID_TEXT27);
   \   00000158   FA02D4E1           LDRSH    R0,[R4, #+42]
   \   0000015C   0F10A0E3           MOV      R1,#+15
   \   00000160   A01E81E3           ORR      R1,R1,#0xA00
   \   00000164   ........           _BLF     WM_GetDialogItem,??WM_GetDialogItem??rA
   \   00000168   B605C4E1           STRH     R0,[R4, #+86]
    119          	InitSysWin();
   \   0000016C   0400A0E1           MOV      R0,R4
   \   00000170   ........           BL       ??InitSysWin
    120          }
   \   00000174   1040BDE8           POP      {R4,LR}
   \   00000178   1EFF2FE1           BX       LR               ;; return
    121          

   \                                 In segment CODE, align 4, keep-with-next
    122          void TDUSysWin5::InitSysWin(void)
    123          {
    124          	{
    125          		const GUIKey Words[] ={
    126          			{TDU_SYSTEM5_WIN	,0,L_WORD42},
    127          			{GUI_ID_TEXT0     	,0,L_WORD43},
    128          			{GUI_ID_TEXT28     	,0,L_WORD44},
    129          			{GUI_ID_TEXT29     	,0,L_WORD45},
    130          			{GUI_ID_TEXT2     	,0,L_WORD9 },
    131          			{GUI_ID_TEXT3     	,0,L_WORD47},
    132          			{GUI_ID_TEXT4     	,0,L_WORD48},
    133          			{GUI_ID_TEXT5     	,0,L_WORD49},
    134          			{GUI_ID_TEXT6     	,0,L_WORD50},
    135          			{GUI_ID_TEXT7     	,0,L_WORD51},
    136          			{GUI_ID_TEXT8     	,0,L_WORD52},
    137          			{GUI_ID_TEXT9     	,0,L_WORD53},
    138          		};
   \                     ??InitSysWin:
   \   00000000   74109FE5           LDR      R1,??InitSysWin_1  ;; `?<Constant {{2194, 0, 42}, {352, 0, 43}, {2576`
   \   00000004   30402DE9           PUSH     {R4,R5,LR}
   \   00000008   90D04DE2           SUB      SP,SP,#+144
   \   0000000C   0040A0E1           MOV      R4,R0
   \   00000010   0D00A0E1           MOV      R0,SP
   \   00000014   9030A0E3           MOV      R3,#+144
   \                     ??InitSysWin_2:
   \   00000018   043053E2           SUBS     R3,R3,#+4
   \   0000001C   032091E7           LDR      R2,[R1, R3]
   \   00000020   032080E7           STR      R2,[R0, R3]
   \   00000024   FBFFFF1A           BNE      ??InitSysWin_2
    139          
    140          		AddToSKeyList((GUIKey*)Words,NELEMENTS(Words));
   \   00000028   0130A0E3           MOV      R3,#+1
   \   0000002C   0C20A0E3           MOV      R2,#+12
   \   00000030   0D10A0E1           MOV      R1,SP
   \   00000034   0400A0E1           MOV      R0,R4
   \   00000038   ........           _BLF     ??AddToSKeyList,??AddToSKeyList??rA
    141          	}
    142          	switch(PROProjectInfo::ProjectType) {
   \   0000003C   3C009FE5           LDR      R0,??InitSysWin_1+0x4  ;; ??ProjectType
   \   00000040   000090E5           LDR      R0,[R0, #+0]
   \   00000044   020050E3           CMP      R0,#+2
   \   00000048   0800001A           BNE      ??InitSysWin_3
    143          	case 0:
    144          	case 1:
    145          		break;
    146          	case 2:
    147          		for(int i=0; i < NELEMENTS(IdSet2); i++){
   \   0000004C   0050A0E3           MOV      R5,#+0
   \   00000050   040000EA           B        ??InitSysWin_4
    148          			Hide(IdSet2[i]);
   \                     ??InitSysWin_5:
   \   00000054   28009FE5           LDR      R0,??InitSysWin_1+0x8  ;; ??IdSet2
   \   00000058   051190E7           LDR      R1,[R0, +R5, LSL #+2]
   \   0000005C   0400A0E1           MOV      R0,R4
   \   00000060   ........           _BLF     ??Hide,??Hide??rA
    149          		}
   \   00000064   015085E2           ADD      R5,R5,#+1
   \                     ??InitSysWin_4:
   \   00000068   150055E3           CMP      R5,#+21
   \   0000006C   F8FFFF3A           BCC      ??InitSysWin_5
    150          		break;
    151          	}
    152          }
   \                     ??InitSysWin_3:
   \   00000070   90D08DE2           ADD      SP,SP,#+144
   \   00000074   3040BDE8           POP      {R4,R5,LR}
   \   00000078   1EFF2FE1           BX       LR               ;; return
   \                     ??InitSysWin_1:
   \   0000007C   ........           DC32     `?<Constant {{2194, 0, 42}, {352, 0, 43}, {2576`
   \   00000080   ........           DC32     ??ProjectType
   \   00000084   ........           DC32     ??IdSet2
    153          

   \                                 In segment CODE, align 4, keep-with-next
    154          void TDUSysWin5::UpdateSysWin(void)
    155          {
   \                     ??UpdateSysWin:
   \   00000000   F0402DE9           PUSH     {R4-R7,LR}
    156          	if ( PROSystemData::TXUSystemData) {
   \   00000004   D0509FE5           LDR      R5,??UpdateSysWin_1  ;; ??TXUSystemData
   \   00000008   38D04DE2           SUB      SP,SP,#+56
   \   0000000C   0040A0E1           MOV      R4,R0
   \   00000010   000095E5           LDR      R0,[R5, #+0]
   \   00000014   000050E3           CMP      R0,#+0
   \   00000018   2C00000A           BEQ      ??UpdateSysWin_2
    157          		for ( int i=0; i < 2; i++ ) {
   \   0000001C   0060A0E3           MOV      R6,#+0
    158          			AnsiString UnitStr;
   \                     ??UpdateSysWin_3:
   \   00000020   0D00A0E1           MOV      R0,SP
   \   00000024   ........           _BLF     ??AnsiString,??AnsiString??rA
    159          			for ( int j = 0; j < 8; j++ ) {
   \   00000028   0070A0E3           MOV      R7,#+0
    160          				AnsiString tmpStr = LibGetValue(VList[i][j], PROSystemData::TXUSystemData, &UnitStr);
   \                     ??UpdateSysWin_4:
   \   0000002C   0000A0E3           MOV      R0,#+0
   \   00000030   01002DE9           PUSH     {R0}
   \   00000034   A4009FE5           LDR      R0,??UpdateSysWin_1+0x4  ;; ??VList
   \   00000038   002095E5           LDR      R2,[R5, #+0]
   \   0000003C   860280E0           ADD      R0,R0,R6, LSL #+5
   \   00000040   071190E7           LDR      R1,[R0, +R7, LSL #+2]
   \   00000044   04308DE2           ADD      R3,SP,#+4
   \   00000048   20008DE2           ADD      R0,SP,#+32
   \   0000004C   ........           _BLF     ??LibGetValue,??LibGetValue??rA
    161          				TEXT_SetText(vText[i][j], tmpStr.c_str());
   \   00000050   38009DE5           LDR      R0,[SP, #+56]
   \   00000054   04D08DE2           ADD      SP,SP,#+4
   \   00000058   100050E3           CMP      R0,#+16
   \   0000005C   20109D25           LDRCS    R1,[SP, #+32]
   \   00000060   060284E0           ADD      R0,R4,R6, LSL #+4
   \   00000064   870080E0           ADD      R0,R0,R7, LSL #+1
   \   00000068   F803D0E1           LDRSH    R0,[R0, #+56]
   \   0000006C   20108D32           ADDCC    R1,SP,#+32
    162          			}
   \   00000070   017087E2           ADD      R7,R7,#+1
   \   00000074   ........           _BLF     TEXT_SetText,??TEXT_SetText??rA
   \   00000078   0020A0E3           MOV      R2,#+0
   \   0000007C   0110A0E3           MOV      R1,#+1
   \   00000080   1C008DE2           ADD      R0,SP,#+28
   \   00000084   ........           _BLF     ??_Tidy,??_Tidy??rA
   \   00000088   080057E3           CMP      R7,#+8
   \   0000008C   E6FFFFBA           BLT      ??UpdateSysWin_4
    163          			TSN_Delay(2);
   \   00000090   0200A0E3           MOV      R0,#+2
   \   00000094   ........           _BLF     OS_Delay,??OS_Delay??rA
    164          		  TEXT_SetText(uText[i], UnitStr.c_str());
   \   00000098   18009DE5           LDR      R0,[SP, #+24]
   \   0000009C   100050E3           CMP      R0,#+16
   \   000000A0   04109D25           LDRCS    R1,[SP, #+4]
   \   000000A4   860084E0           ADD      R0,R4,R6, LSL #+1
   \   000000A8   F403D0E1           LDRSH    R0,[R0, #+52]
   \   000000AC   04108D32           ADDCC    R1,SP,#+4
    165          		}
   \   000000B0   016086E2           ADD      R6,R6,#+1
   \   000000B4   ........           _BLF     TEXT_SetText,??TEXT_SetText??rA
   \   000000B8   0020A0E3           MOV      R2,#+0
   \   000000BC   0110A0E3           MOV      R1,#+1
   \   000000C0   0D00A0E1           MOV      R0,SP
   \   000000C4   ........           _BLF     ??_Tidy,??_Tidy??rA
   \   000000C8   020056E3           CMP      R6,#+2
   \   000000CC   D3FFFFBA           BLT      ??UpdateSysWin_3
    166          	}
    167          }
   \                     ??UpdateSysWin_2:
   \   000000D0   38D08DE2           ADD      SP,SP,#+56
   \   000000D4   F040BDE8           POP      {R4-R7,LR}
   \   000000D8   1EFF2FE1           BX       LR               ;; return
   \                     ??UpdateSysWin_1:
   \   000000DC   ........           DC32     ??TXUSystemData
   \   000000E0   ........           DC32     ??VList
    168          

   \                                 In segment CODE, align 4, keep-with-next
    169          void TDUSysWin5::cbSysWin(WM_MESSAGE *pMsg)
    170          {
   \                     ??cbSysWin:
   \   00000000   70402DE9           PUSH     {R4-R6,LR}
    171          	int NCode, Id;
    172          	WM_HWIN hWin = pMsg->hWin;
    173          	switch ( pMsg->MsgId ) {
   \   00000004   ........           LDR      R5,??DataTable1  ;; SystemWindow
   \   00000008   0060A0E1           MOV      R6,R0
   \   0000000C   001095E5           LDR      R1,[R5, #+0]
   \   00000010   003096E5           LDR      R3,[R6, #+0]
   \   00000014   F440D6E1           LDRSH    R4,[R6, #+4]
   \   00000018   680091E5           LDR      R0,[R1, #+104]
   \   0000001C   0120A0E3           MOV      R2,#+1
   \   00000020   0B3053E2           SUBS     R3,R3,#+11
   \   00000024   0800000A           BEQ      ??cbSysWin_1
   \   00000028   033053E2           SUBS     R3,R3,#+3
   \   0000002C   0D00000A           BEQ      ??cbSysWin_2
   \   00000030   013053E2           SUBS     R3,R3,#+1
   \   00000034   0600000A           BEQ      ??cbSysWin_3
   \   00000038   0E3053E2           SUBS     R3,R3,#+14
   \   0000003C   0700000A           BEQ      ??cbSysWin_4
   \   00000040   093053E2           SUBS     R3,R3,#+9
   \   00000044   1300000A           BEQ      ??cbSysWin_5
   \   00000048   1D0000EA           B        ??cbSysWin_6
    174          		case WM_DELETE:
    175          			SystemWindow->SysWin5IsClosed = true;
   \                     ??cbSysWin_1:
   \   0000004C   7420C1E5           STRB     R2,[R1, #+116]
   \   00000050   000000EA           B        ??cbSysWin_7
    176          			break;
    177          		case WM_PAINT:
    178          			SystemWindow->SysWin5->UpdateLanguage();
   \                     ??cbSysWin_3:
   \   00000054   ........           _BLF     ??UpdateLanguage,??UpdateLanguage??rA
   \                     ??cbSysWin_7:
   \   00000058   7040BDE8           POP      {R4-R6,LR}
   \   0000005C   1EFF2FE1           BX       LR
    179          			break;
    180          		case WM_INIT_DIALOG:
    181          			SystemWindow->SysWin5->FirstTime = true;
   \                     ??cbSysWin_4:
   \   00000060   2820C0E5           STRB     R2,[R0, #+40]
   \   00000064   FBFFFFEA           B        ??cbSysWin_7
    182          			break;
    183          		case WM_KEY:
    184          			switch ( ((WM_KEY_INFO*)(pMsg->Data.p))->Key ) {
   \                     ??cbSysWin_2:
   \   00000068   080096E5           LDR      R0,[R6, #+8]
   \   0000006C   000090E5           LDR      R0,[R0, #+0]
   \   00000070   0D0050E2           SUBS     R0,R0,#+13
   \   00000074   0500000A           BEQ      ??cbSysWin_8
   \   00000078   0E0050E2           SUBS     R0,R0,#+14
   \   0000007C   F5FFFF1A           BNE      ??cbSysWin_7
    185          				case GUI_KEY_ESCAPE:
    186          					GUI_EndDialog(hWin, 1);
   \   00000080   0110A0E3           MOV      R1,#+1
   \                     ??cbSysWin_9:
   \   00000084   0400A0E1           MOV      R0,R4
   \   00000088   ........           _BLF     GUI_EndDialog,??GUI_EndDialog??rA
   \   0000008C   F1FFFFEA           B        ??cbSysWin_7
    187          					break;
    188          				case GUI_KEY_ENTER:
    189          					GUI_EndDialog(hWin, 0);
   \                     ??cbSysWin_8:
   \   00000090   0010A0E3           MOV      R1,#+0
   \   00000094   FAFFFFEA           B        ??cbSysWin_9
    190          					break;
    191          			}
    192          			break;
    193          		case WM_NOTIFY_PARENT:
    194          			Id    = WM_GetId(pMsg->hWinSrc);		/* Id of widget */
   \                     ??cbSysWin_5:
   \   00000098   F600D6E1           LDRSH    R0,[R6, #+6]
   \   0000009C   ........           _BLF     WM_GetId,??WM_GetId??rA
    195          			NCode = pMsg->Data.v;								/* Notification code */
    196          			switch ( NCode ) {
   \   000000A0   081096E5           LDR      R1,[R6, #+8]
   \   000000A4   020051E3           CMP      R1,#+2
    197          				case WM_NOTIFICATION_RELEASED:		/* React only if released */
    198          					switch ( Id ) {
   \   000000A8   05005003           CMPEQ    R0,#+5
   \   000000AC   E9FFFF1A           BNE      ??cbSysWin_7
    199          						case GUI_ID_RADIO0:
    200          							break;
    201          						case GUI_ID_BUTTON0: /* User manual Button */
    202          							break;
    203          						case GUI_ID_BUTTON1: /* Setup Button */
    204          							break;
    205          						case GUI_ID_BUTTON2: /* Config Button */
    206          							break;
    207          						case GUI_ID_CLOSE:	 /* Close Button */
    208          							if ( !SystemWindow->SysWin5IsClosed ) {
   \   000000B0   000095E5           LDR      R0,[R5, #+0]
   \   000000B4   7400D0E5           LDRB     R0,[R0, #+116]
   \   000000B8   000050E3           CMP      R0,#+0
   \   000000BC   E5FFFF1A           BNE      ??cbSysWin_7
    209          								GUI_EndDialog(hWin, 0);
   \   000000C0   F2FFFFEA           B        ??cbSysWin_8
    210          							}
    211          							break;
    212          					}
    213          					break;
    214          			}
    215          			break;
    216          		default:
    217          			WM_DefaultProc(pMsg);
   \                     ??cbSysWin_6:
   \   000000C4   0600A0E1           MOV      R0,R6
   \   000000C8   ........           _BLF     WM_DefaultProc,??WM_DefaultProc??rA
    218          	}
    219          }
   \                     ??cbSysWin_10:
   \   000000CC   E1FFFFEA           B        ??cbSysWin_7

   \                                 In segment DATA_ID, align 4, align-sorted
   \                     `?<Initializer for IdSet2>`:
   \   00000000   630100006401       DC32 355, 356, 357, 358, 359, 360, 361, 2560, 2561, 2562, 2563, 2564
   \              000065010000
   \              660100006701
   \              000068010000
   \              69010000000A
   \              0000010A0000
   \              020A0000030A
   \              0000040A0000
   \   00000030   050A0000060A       DC32 2565, 2566, 2569, 2570, 2571, 2572, 2573, 2574, 2575
   \              0000090A0000
   \              0A0A00000B0A
   \              00000C0A0000
   \              0D0A00000E0A
   \              00000F0A0000

   \                                 In segment DIFUNCT, align 4, keep-with-next, root
   \   00000000                      REQUIRE ?call_ctors
   \   00000000   ........           DC32    ??__sti__routine

   \                                 In segment DATA_C, align 4, align-sorted
   \                     `?<Constant "System page 5">`:
   \   00000000   53797374656D       DC8 "System page 5"
   \              207061676520
   \              3500        
   \   0000000E   0000               DC8 0, 0

   \                                 In segment DATA_C, align 4, align-sorted
   \                     `?<Constant "Total for all tanks">`:
   \   00000000   546F74616C20       DC8 "Total for all tanks"
   \              666F7220616C
   \              6C2074616E6B
   \              7300        

   \                                 In segment DATA_C, align 4, align-sorted
   \                     `?<Constant "Volume">`:
   \   00000000   566F6C756D65       DC8 "Volume"
   \              00          
   \   00000007   00                 DC8 0

   \                                 In segment DATA_C, align 4, align-sorted
   \                     `?<Constant "Weight">`:
   \   00000000   576569676874       DC8 "Weight"
   \              00          
   \   00000007   00                 DC8 0

   \                                 In segment DATA_C, align 1, align-sorted
   \                     `?<Constant "">`:
   \   00000000   00                 DC8 ""

   \                                 In segment DATA_C, align 4, align-sorted
   \                     `?<Constant "Cargo">`:
   \   00000000   436172676F00       DC8 "Cargo"
   \   00000006   0000               DC8 0, 0

   \                                 In segment DATA_C, align 4, align-sorted
   \                     `?<Constant "Ballast">`:
   \   00000000   42616C6C6173       DC8 "Ballast"
   \              7400        

   \                                 In segment DATA_C, align 4, align-sorted
   \                     `?<Constant "Heavy fuel">`:
   \   00000000   486561767920       DC8 "Heavy fuel"
   \              6675656C00  
   \   0000000B   00                 DC8 0

   \                                 In segment DATA_C, align 4, align-sorted
   \                     `?<Constant "Diesel oil">`:
   \   00000000   44696573656C       DC8 "Diesel oil"
   \              206F696C00  
   \   0000000B   00                 DC8 0

   \                                 In segment DATA_C, align 4, align-sorted
   \                     `?<Constant "Lubricants">`:
   \   00000000   4C7562726963       DC8 "Lubricants"
   \              616E747300  
   \   0000000B   00                 DC8 0

   \                                 In segment DATA_C, align 4, align-sorted
   \                     `?<Constant "Fresh water">`:
   \   00000000   467265736820       DC8 "Fresh water"
   \              776174657200

   \                                 In segment DATA_C, align 4, align-sorted
   \                     `?<Constant "Misc">`:
   \   00000000   4D69736300         DC8 "Misc"
   \   00000005   000000             DC8 0, 0, 0

   \                                 In segment DATA_C, align 4, align-sorted
   \                     `?<Constant "Grand total">`:
   \   00000000   4772616E6420       DC8 "Grand total"
   \              746F74616C00

   \                                 In segment DATA_C, align 1, align-sorted
   \                     `?<Constant "--">`:
   \   00000000   2D2D00             DC8 "--"

   \                                 In segment DATA_C, align 4, align-sorted
   \                     `?<Constant "0.0">`:
   \   00000000   302E3000           DC8 "0.0"

   \                                 In segment DATA_C, align 4, align-sorted
   \                     `?<Constant {{2194, 0, 42}, {352, 0, 43}, {2576`:
   \   00000000   920800000000       DC32 2194, 0, 42, 352, 0, 43, 2576, 0, 44, 2577, 0, 45, 354, 0, 9, 355
   \              00002A000000
   \              600100000000
   \              00002B000000
   \              100A00000000
   \              00002C000000
   \              110A00000000
   \              00002D000000
   \              620100000000
   \              000009000000
   \              63010000    
   \   00000040   000000002F00       DC32 0, 47, 356, 0, 48, 357, 0, 49, 358, 0, 50, 359, 0, 51, 360, 0, 52
   \              000064010000
   \              000000003000
   \              000065010000
   \              000000003100
   \              000066010000
   \              000000003200
   \              000067010000
   \              000000003300
   \              000068010000
   \              000000003400
   \              0000        
   \   00000084   690100000000       DC32 361, 0, 53
   \              000035000000

   \                                 In segment CODE, align 4, keep-with-next
   \   __??Code32?? __code __interwork __atpcs TDUSysWin5 &TDUSysWin5::new TDUSysWin5()
   \                     `??new TDUSysWin5`:
   \   00000000   00402DE9           PUSH     {LR}
   \   00000004   7400A0E3           MOV      R0,#+116
   \   00000008   ........           _BLF     `??operator new`,`??operator new??rA`
   \   0000000C   000050E3           CMP      R0,#+0
   \   00000010   0000000A           BEQ      `??new TDUSysWin5_1`
   \   00000014   ........           BL       ??TDUSysWin5
   \                     `??new TDUSysWin5_1`:
   \   00000018   0040BDE8           POP      {LR}
   \   0000001C   1EFF2FE1           BX       LR               ;; return

   \                                 In segment CODE, align 4, keep-with-next
   \   __??Code32?? __code __interwork __atpcs void TDUSysWin5::delete ~TDUSysWin5(TDUSysWin5 *)
   \                     `??delete ~TDUSysWin5`:
   \   00000000   10402DE9           PUSH     {R4,LR}
   \   00000004   0040B0E1           MOVS     R4,R0
   \   00000008   0200000A           BEQ      `??delete ~TDUSysWin5_1`
   \   0000000C   ........           BL       `?~TDUSysWin5`
   \   00000010   0400A0E1           MOV      R0,R4
   \   00000014   ........           _BLF     `??operator delete`,`??operator delete??rA`
   \                     `??delete ~TDUSysWin5_1`:
   \   00000018   1040BDE8           POP      {R4,LR}
   \   0000001C   1EFF2FE1           BX       LR               ;; return

   \                                 In segment CODE, align 4, keep-with-next
   \   static __??Code32?? __intrinsic __code __interwork __atpcs void __sti__routine()
   \                     ??__sti__routine:
   \   00000000   1EFF2FE1           BX       LR               ;; return

   \                                 In segment CODE, align 4, keep-with-next
   \                     ??DataTable1:
   \   00000000   ........           DC32     SystemWindow

   Maximum stack usage in bytes:

     Function                       CSTACK
     --------                       ------
     TDUSysWin5::ExecDialogBox(GUI_HWIN)
                                       24
     TDUSysWin5::GetDialogHandles()     8
     TDUSysWin5::InitSysWin()         156
     TDUSysWin5::TDUSysWin5()           8
     TDUSysWin5::UpdateSysWin()        80
     TDUSysWin5::cbSysWin(WM_MESSAGE *)
                                       16
     TDUSysWin5::delete ~TDUSysWin5(TDUSysWin5 *)
                                        8
     TDUSysWin5::new TDUSysWin5()       4
     TDUSysWin5::~TDUSysWin5()          8
     __sti__routine()                   0


   Segment part sizes:

     Function/Label                 Bytes
     --------------                 -----
     TDUSysWin5::TDUSysWin5()         32
     TDUSysWin5::~TDUSysWin5()        40
     TDUSysWin5::VList                64
     TDUSysWin5::aDialogCreate       744
     TDUSysWin5::IdSet2               84
     TDUSysWin5::ExecDialogBox(GUI_HWIN)
                                     152
     TDUSysWin5::GetDialogHandles()  380
     TDUSysWin5::InitSysWin()        136
     TDUSysWin5::UpdateSysWin()      228
     TDUSysWin5::cbSysWin(WM_MESSAGE *)
                                     208
     ?<Initializer for IdSet2>        84
     ?<Constant "System page 5">      16
     ?<Constant "Total for all tanks">
                                      20
     ?<Constant "Volume">              8
     ?<Constant "Weight">              8
     ?<Constant "">                    1
     ?<Constant "Cargo">               8
     ?<Constant "Ballast">             8
     ?<Constant "Heavy fuel">         12
     ?<Constant "Diesel oil">         12
     ?<Constant "Lubricants">         12
     ?<Constant "Fresh water">        12
     ?<Constant "Misc">                8
     ?<Constant "Grand total">        12
     ?<Constant "--">                  3
     ?<Constant "0.0">                 4
     ?<Constant {{2194, 0, 42}, {352, 0, 43}, {2576
                                     144
     TDUSysWin5::new TDUSysWin5()     32
     TDUSysWin5::delete ~TDUSysWin5(TDUSysWin5 *)
                                      32
     __sti__routine()                  4
     ??DataTable1                      4
      Others                         308

 
 1 540 bytes in segment CODE
 1 096 bytes in segment DATA_C
    84 bytes in segment DATA_I
    84 bytes in segment DATA_ID
     4 bytes in segment DIFUNCT
    12 bytes in segment INITTAB
 
 1 252 bytes of CODE  memory (+ 304 bytes shared)
 1 180 bytes of CONST memory
    84 bytes of DATA  memory

Errors: none
Warnings: none
