##############################################################################
#                                                                            #
# IAR ARM ANSI C/C++ Compiler V4.42A/W32               14/Sep/2022  15:18:48 #
# Copyright 1999-2005 IAR Systems. All rights reserved.                      #
#                                                                            #
#    Cpu mode        =  interwork                                            #
#    Endian          =  little                                               #
#    Stack alignment =  4                                                    #
#    Source file     =  D:\S2Prog\TXU\src\TDUSysWin2.cpp                     #
#    Command line    =  D:\S2Prog\TXU\src\TDUSysWin2.cpp --fpu None -D       #
#                       OS_LIBMODE_SP -D CPU_S3C2410 -D OS_RAMVECT=0 -D      #
#                       OS_UART=-1 -D S2TXU -D USE_LZO=1 -D __ARM_LIBRARY__  #
#                       -D WATCHDOG=1 -D NETWORK=1 -lCN                      #
#                       D:\S2Prog\TXU\Debug\List\ -o                         #
#                       D:\S2Prog\TXU\Debug\Obj\ -s9 --debug --cpu_mode arm  #
#                       --endian little --cpu ARM920T --stack_align 4        #
#                       --interwork -e --enable_multibytes --eec++           #
#                       --dlib_config "C:\Program Files (x86)\IAR            #
#                       Systems\Embedded Workbench                           #
#                       4.0\arm\LIB\dl4tpainl8n.h" -I                        #
#                       D:\S2Prog\TXU\GUI\CORE\ -I D:\S2Prog\TXU\GUI\WM\ -I  #
#                       D:\S2Prog\TXU\GUI\WIDGET\ -I D:\S2Prog\TXU\CONFIG\   #
#                       -I D:\S2Prog\TXU\INC\ -I D:\S2Prog\TXU\..\SHARED\INC #
#                       \ -I D:\S2Prog\TXU\..\SHARED\SRC\ -I                 #
#                       D:\S2Prog\TXU\..\SHARED\LZO\minilzo.210\ -I          #
#                       D:\S2Prog\TXU\lwip-1.4.1\src\include\ -I             #
#                       D:\S2Prog\TXU\lwip-1.4.1\src\include\ipv4\ -I        #
#                       D:\S2Prog\TXU\lwip-1.4.1\src\ -I                     #
#                       D:\S2Prog\TXU\..\SHARED\Database\ -I                 #
#                       D:\S2Prog\TXU\src\ -I "C:\Program Files (x86)\IAR    #
#                       Systems\Embedded Workbench 4.0\arm\INC\"             #
#                       --inline_threshold=2                                 #
#    List file       =  D:\S2Prog\TXU\Debug\List\TDUSysWin2.lst              #
#    Object file     =  D:\S2Prog\TXU\Debug\Obj\TDUSysWin2.r79               #
#                                                                            #
#                                                                            #
##############################################################################

D:\S2Prog\TXU\src\TDUSysWin2.cpp
      1          #include "TDUIncludes.h"
      2          

   \                                 In segment DATA_C, align 4, align-sorted
   \                     `?<Constant "">`:
   \   00000000   00                 DC8 ""
   \   00000001   000000000000       DC8 0, 0, 0, 0, 0, 0, 0, 0, 0, 0, 0, 0, 0, 0, 0, 0
   \              000000000000
   \              00000000    
   \   00000011   000000000000       DC8 0, 0, 0, 0, 0, 0, 0, 0, 0, 0, 0, 0, 0, 0, 0, 0
   \              000000000000
   \              00000000    
   \   00000021   000000000000       DC8 0, 0, 0, 0, 0, 0, 0, 0, 0, 0, 0, 0, 0, 0, 0, 0
   \              000000000000
   \              00000000    
   \   00000031   000000000000       DC8 0, 0, 0, 0, 0, 0, 0, 0, 0, 0, 0, 0, 0, 0, 0, 0
   \              000000000000
   \              00000000    
   \   00000041   000000000000       DC8 0, 0, 0, 0, 0, 0, 0, 0, 0, 0, 0, 0, 0, 0, 0
   \              000000000000
   \              000000      
   \   00000050   00000000DC00       DC16 0, 0, 220, 0, 275, 52, 220, 104, 0, 104, 0, 0
   \              000013013400
   \              DC0068000000
   \              680000000000
   \   00000068   000000003E00       DC16 0, 0, 62, 0, 62, 52, 62, 0, 134, 0, 134, 52, 0, 52, 0, 0
   \              00003E003400
   \              3E0000008600
   \              000086003400
   \              000034000000
   \              0000        
      3          const GUI_POINT ShipLine[] = {
      4              {   0,   0},
      5              { 220,   0},
      6              { 275,  52},
      7              { 220, 104},
      8              {   0, 104},
      9              {   0,   0},
     10          };
     11          /*
     12          const GUI_POINT BargeLine[] = {
     13              {   0,   0},
     14              { 220,   0},
     15              { 275,  52},
     16              { 220, 104},
     17              {   0, 104},
     18              {   0,   0},
     19          };
     20          */
     21          const GUI_POINT DraftLine[] = {
     22              {   0,   0},
     23              {  62,   0},
     24              {  62,  52},
     25              {  62,   0},
     26              { 134,   0},
     27              { 134,  52},
     28              {   0,  52},
     29              {   0,   0},
     30          };
     31          

   \                                 In segment CODE, align 4, keep-with-next
     32          TDUSysWin2::~TDUSysWin2(void)
     33          {
   \                     `?~TDUSysWin2`:
   \   00000000   10402DE9           PUSH     {R4,LR}
   \   00000004   0040A0E1           MOV      R4,R0
   \   00000008   020000EA           B        `?~TDUSysWin2_1`
     34          //       Initialize all widgets
     35              while ( DROPDOWN_GetNumItems(hDropAtmRef)>0 ) {
     36                  DROPDOWN_DeleteItem(hDropAtmRef, 0);
   \                     `?~TDUSysWin2_2`:
   \   0000000C   F603D4E1           LDRSH    R0,[R4, #+54]
   \   00000010   0010A0E3           MOV      R1,#+0
   \   00000014   ........           _BLF     DROPDOWN_DeleteItem,??DROPDOWN_DeleteItem??rA
     37              }
   \                     `?~TDUSysWin2_1`:
   \   00000018   F603D4E1           LDRSH    R0,[R4, #+54]
   \   0000001C   ........           _BLF     DROPDOWN_GetNumItems,??DROPDOWN_GetNumItems??rA
   \   00000020   010050E3           CMP      R0,#+1
   \   00000024   F8FFFFAA           BGE      `?~TDUSysWin2_2`
     38              while ( DROPDOWN_GetNumItems(hDropTrim)>0 ) {
   \                     `?~TDUSysWin2_3`:
   \   00000028   FC03D4E1           LDRSH    R0,[R4, #+60]
   \   0000002C   ........           _BLF     DROPDOWN_GetNumItems,??DROPDOWN_GetNumItems??rA
   \   00000030   010050E3           CMP      R0,#+1
   \   00000034   060000BA           BLT      `?~TDUSysWin2_4`
     39                  DROPDOWN_DeleteItem(hDropTrim, 0);
   \   00000038   FC03D4E1           LDRSH    R0,[R4, #+60]
   \   0000003C   0010A0E3           MOV      R1,#+0
   \   00000040   ........           _BLF     DROPDOWN_DeleteItem,??DROPDOWN_DeleteItem??rA
   \   00000044   F7FFFFEA           B        `?~TDUSysWin2_3`
     40              }
     41              while ( DROPDOWN_GetNumItems(hDropList)>0 ) {
     42                  DROPDOWN_DeleteItem(hDropList, 0);
   \                     `?~TDUSysWin2_5`:
   \   00000048   F204D4E1           LDRSH    R0,[R4, #+66]
   \   0000004C   0010A0E3           MOV      R1,#+0
   \   00000050   ........           _BLF     DROPDOWN_DeleteItem,??DROPDOWN_DeleteItem??rA
     43              }
   \                     `?~TDUSysWin2_4`:
   \   00000054   F204D4E1           LDRSH    R0,[R4, #+66]
   \   00000058   ........           _BLF     DROPDOWN_GetNumItems,??DROPDOWN_GetNumItems??rA
   \   0000005C   010050E3           CMP      R0,#+1
   \   00000060   F8FFFFAA           BGE      `?~TDUSysWin2_5`
     44          }
   \   00000064   0020A0E3           MOV      R2,#+0
   \   00000068   0110A0E3           MOV      R1,#+1
   \   0000006C   600084E2           ADD      R0,R4,#+96
   \   00000070   ........           _BLF     ??_Tidy,??_Tidy??rA
   \   00000074   0400A0E1           MOV      R0,R4
   \   00000078   ........           _BLF     `?~TDUBasicWin`,`?~TDUBasicWin??rA`
   \   0000007C   1040BDE8           POP      {R4,LR}
   \   00000080   1EFF2FE1           BX       LR               ;; return
     45          

   \                                 In segment CODE, align 4, keep-with-next
     46          TDUSysWin2::TDUSysWin2(void)
   \                     ??TDUSysWin2:
   \   00000000   10402DE9           PUSH     {R4,LR}
   \   00000004   0040A0E1           MOV      R4,R0
     47          {
   \   00000008   ........           _BLF     ??TDUBasicWin,??TDUBasicWin??rA
   \   0000000C   600084E2           ADD      R0,R4,#+96
   \   00000010   ........           _BLF     ??AnsiString,??AnsiString??rA
     48          }
   \   00000014   0400A0E1           MOV      R0,R4
   \   00000018   1040BDE8           POP      {R4,LR}
   \   0000001C   1EFF2FE1           BX       LR               ;; return
     49          

   \                                 In segment DATA_C, align 4, align-sorted
     50          const GUI_WIDGET_CREATE_INFO TDUSysWin2::aDialogCreate[] =
   \                     ??aDialogCreate:
   \   00000000   ............       DC32 FRAMEWIN_CreateIndirect, `?<Constant "System page 2">`
   \              ....        
   \   00000008   8E0800000000       DC16 2190, 0, 0, 286, 198, 128
   \              1E01C6008000
   \   00000014   00000000....       DC32 0, TEXT_CreateIndirect, `?<Constant "Atmospheric ref.">`
   \              ............
   \   00000020   60010A000400       DC16 352, 10, 4, 80, 15, 0
   \              50000F000000
   \   0000002C   00000000           DC8 0, 0, 0, 0
   \   00000030   ........0000       DC32 DROPDOWN_CreateIndirect, 0H
   \              0000        
   \   00000038   81015A000400       DC16 385, 90, 4, 90, 30, 0
   \              5A001E000000
   \   00000044   03000000....       DC32 3, EDIT_CreateIndirect, 0H
   \              ....00000000
   \   00000050   0101BE000400       DC16 257, 190, 4, 50, 15, 1
   \              32000F000100
   \   0000005C   14000000....       DC32 20, TEXT_CreateIndirect, `?<Constant "meter">`
   \              ............
   \   00000068   6101F2000400       DC16 353, 242, 4, 50, 15, 0
   \              32000F000000
   \   00000074   00000000           DC8 0, 0, 0, 0
   \   00000078   ............       DC32 TEXT_CreateIndirect, `?<Constant "Trim     Source:">`
   \              ....        
   \   00000080   64010A001B00       DC16 356, 10, 27, 80, 15, 0
   \              50000F000000
   \   0000008C   00000000           DC8 0, 0, 0, 0
   \   00000090   ........0000       DC32 DROPDOWN_CreateIndirect, 0H
   \              0000        
   \   00000098   82015A001B00       DC16 386, 90, 27, 90, 45, 0
   \              5A002D000000
   \   000000A4   03000000....       DC32 3, EDIT_CreateIndirect, 0H
   \              ....00000000
   \   000000B0   0201BE001B00       DC16 258, 190, 27, 50, 15, 1
   \              32000F000100
   \   000000BC   14000000....       DC32 20, TEXT_CreateIndirect, `?<Constant "degree">`
   \              ............
   \   000000C8   6201F2001B00       DC16 354, 242, 27, 50, 15, 0
   \              32000F000000
   \   000000D4   00000000           DC8 0, 0, 0, 0
   \   000000D8   ............       DC32 TEXT_CreateIndirect, `?<Constant "List      Source:">`
   \              ....        
   \   000000E0   65010A003200       DC16 357, 10, 50, 80, 15, 0
   \              50000F000000
   \   000000EC   00000000           DC8 0, 0, 0, 0
   \   000000F0   ........0000       DC32 DROPDOWN_CreateIndirect, 0H
   \              0000        
   \   000000F8   83015A003200       DC16 387, 90, 50, 90, 45, 0
   \              5A002D000000
   \   00000104   03000000....       DC32 3, EDIT_CreateIndirect, 0H
   \              ....00000000
   \   00000110   0301BE003200       DC16 259, 190, 50, 50, 15, 1
   \              32000F000100
   \   0000011C   14000000....       DC32 20, TEXT_CreateIndirect, `?<Constant "degree">`
   \              ............
   \   00000128   6301F2003200       DC16 355, 242, 50, 50, 15, 0
   \              32000F000000
   \   00000134   00000000           DC8 0, 0, 0, 0
   \   00000138   ............       DC32 EDIT_CreateIndirect, `?<Constant "DA">`
   \              ....        
   \   00000140   630A08007700       DC16 2659, 8, 119, 50, 15, 1
   \              32000F000100
   \   0000014C   14000000....       DC32 20, EDIT_CreateIndirect, `?<Constant "DP">`
   \              ............
   \   00000158   640A5F004E00       DC16 2660, 95, 78, 50, 15, 1
   \              32000F000100
   \   00000164   14000000....       DC32 20, EDIT_CreateIndirect, `?<Constant "DS">`
   \              ............
   \   00000170   650A5F00A000       DC16 2661, 95, 160, 50, 15, 1
   \              32000F000100
   \   0000017C   14000000....       DC32 20, EDIT_CreateIndirect, `?<Constant "DF">`
   \              ............
   \   00000188   660AD2007700       DC16 2662, 210, 119, 50, 15, 1
   \              32000F000100
   \   00000194   14000000....       DC32 20, EDIT_CreateIndirect, `?<Constant "DFP">`
   \              ............
   \   000001A0   670AAA004E00       DC16 2663, 170, 78, 50, 15, 1
   \              32000F000100
   \   000001AC   14000000....       DC32 20, EDIT_CreateIndirect, `?<Constant "DFS">`
   \              ............
   \   000001B8   680AAA00A000       DC16 2664, 170, 160, 50, 15, 1
   \              32000F000100
   \   000001C4   14000000....       DC32 20, EDIT_CreateIndirect, `?<Constant "DAP">`
   \              ............
   \   000001D0   690A14004E00       DC16 2665, 20, 78, 50, 15, 1
   \              32000F000100
   \   000001DC   14000000....       DC32 20, EDIT_CreateIndirect, `?<Constant "DAS">`
   \              ............
   \   000001E8   6A0A1400A000       DC16 2666, 20, 160, 50, 15, 1
   \              32000F000100
   \   000001F4   14000000....       DC32 20, RADIO_CreateIndirect, 0H
   \              ....00000000
   \   00000200   500146006A00       DC16 336, 70, 106, 60, 40, 0
   \              3C0028000000
   \   0000020C   02000000....       DC32 2, TEXT_CreateIndirect, `?<Constant "Seawater">`
   \              ............
   \   00000218   000A8A006600       DC16 2560, 138, 102, 50, 15, 0
   \              32000F000000
   \   00000224   00000000           DC8 0, 0, 0, 0
   \   00000228   ............       DC32 EDIT_CreateIndirect, `?<Constant "0.000">`
   \              ....        
   \   00000230   6C0A88007600       DC16 2668, 136, 118, 50, 15, 1
   \              32000F000100
   \   0000023C   14000000....       DC32 20, TEXT_CreateIndirect, `?<Constant "Unit">`
   \              ............
   \   00000248   080A87008600       DC16 2568, 135, 134, 55, 15, 0
   \              37000F000000
   \   00000254   00000000           DC8 0, 0, 0, 0
     51          {
     52              { FRAMEWIN_CreateIndirect,"System page 2" , TDU_SYSTEM2_WIN ,   0,   0, 286, 198, FRAMEWIN_CF_MAXIMIZED, 0},
     53              { TEXT_CreateIndirect,"Atmospheric ref."  , GUI_ID_TEXT0    ,  10,   4,  80,  15, TEXT_CF_LEFT},
     54              { DROPDOWN_CreateIndirect,NULL            , GUI_ID_DROPDOWN1,  90,   4,  90,  30, 0, 3},
     55              { EDIT_CreateIndirect, NULL               , GUI_ID_EDIT1    , 190,   4,  50,  15, GUI_TA_RIGHT, 20},
     56              { TEXT_CreateIndirect, "meter"            , GUI_ID_TEXT1    , 242,   4,  50,  15, TEXT_CF_LEFT},
     57          
     58              { TEXT_CreateIndirect, "Trim     Source:" , GUI_ID_TEXT4    ,  10,  27,  80,  15, TEXT_CF_LEFT},
     59              { DROPDOWN_CreateIndirect,NULL            , GUI_ID_DROPDOWN2,  90,  27,  90,  45, 0, 3},
     60              { EDIT_CreateIndirect, NULL               , GUI_ID_EDIT2    , 190,  27,  50,  15, GUI_TA_RIGHT, 20},
     61              { TEXT_CreateIndirect, "degree"           , GUI_ID_TEXT2    , 242,  27,  50,  15, TEXT_CF_LEFT},
     62          
     63              { TEXT_CreateIndirect,"List      Source:" , GUI_ID_TEXT5    ,  10,  50,  80,  15, TEXT_CF_LEFT},
     64              { DROPDOWN_CreateIndirect,NULL            , GUI_ID_DROPDOWN3,  90,  50,  90,  45, 0, 3},
     65              { EDIT_CreateIndirect, NULL               , GUI_ID_EDIT3    , 190,  50,  50,  15, GUI_TA_RIGHT, 20},
     66              { TEXT_CreateIndirect, "degree"           , GUI_ID_TEXT3    , 242,  50,  50,  15, TEXT_CF_LEFT},
     67          
     68              { EDIT_CreateIndirect, "DA"               , GUI_ID_EDIT11   ,   8, 119,  50,  15, GUI_TA_RIGHT, 20},
     69              { EDIT_CreateIndirect, "DP"               , GUI_ID_EDIT12   ,  95,  78,  50,  15, GUI_TA_RIGHT, 20},
     70              { EDIT_CreateIndirect, "DS"               , GUI_ID_EDIT13   ,  95, 160,  50,  15, GUI_TA_RIGHT, 20},
     71              { EDIT_CreateIndirect, "DF"               , GUI_ID_EDIT14   , 210, 119,  50,  15, GUI_TA_RIGHT, 20},
     72          
     73              { EDIT_CreateIndirect, "DFP"              , GUI_ID_EDIT15   , 170,  78,  50,  15, GUI_TA_RIGHT, 20},
     74              { EDIT_CreateIndirect, "DFS"              , GUI_ID_EDIT16   , 170, 160,  50,  15, GUI_TA_RIGHT, 20},
     75              { EDIT_CreateIndirect, "DAP"              , GUI_ID_EDIT17   ,  20,  78,  50,  15, GUI_TA_RIGHT, 20},
     76              { EDIT_CreateIndirect, "DAS"              , GUI_ID_EDIT18   ,  20, 160,  50,  15, GUI_TA_RIGHT, 20},
     77          
     78              { RADIO_CreateIndirect,      NULL         , GUI_ID_RADIO0   ,  70, 106,  60,  40, 0, 2},
     79          
     80              { TEXT_CreateIndirect, "Seawater"         , GUI_ID_TEXT12   , 138, 102,  50,  15, TEXT_CF_LEFT},
     81              { EDIT_CreateIndirect, "0.000"            , GUI_ID_EDIT20   , 136, 118,  50,  15, GUI_TA_RIGHT, 20},
     82              { TEXT_CreateIndirect, "Unit"             , GUI_ID_TEXT20   , 135, 134,  55,  15, TEXT_CF_LEFT},
     83          
     84          };
     85          

   \                                 In segment DATA_I, align 4, align-sorted
     86          unsigned TDUSysWin2::IdSet1[] ={
   \                     ??IdSet1:
   \   00000000                      DS8 68
   \   00000044                      REQUIRE `?<Initializer for IdSet1>`
     87              GUI_ID_DROPDOWN1,
     88              GUI_ID_EDIT1    ,
     89          
     90              GUI_ID_DROPDOWN2,
     91              GUI_ID_EDIT2    ,
     92              GUI_ID_DROPDOWN3,
     93              GUI_ID_EDIT3    ,
     94          
     95              GUI_ID_EDIT20       ,
     96          
     97              GUI_ID_EDIT11       ,
     98              GUI_ID_EDIT12       ,
     99              GUI_ID_EDIT13       ,
    100              GUI_ID_EDIT14       ,
    101          
    102              GUI_ID_EDIT15       ,
    103              GUI_ID_EDIT16       ,
    104              GUI_ID_EDIT17       ,
    105              GUI_ID_EDIT18       ,
    106          
    107              GUI_ID_RADIO0       ,
    108              GUI_ID_EDIT20       ,
    109          };
    110          

   \                                 In segment DATA_I, align 4, align-sorted
    111          unsigned TDUSysWin2::IdSet2[] ={
   \                     ??IdSet2:
   \   00000000                      DS8 84
   \   00000054                      REQUIRE `?<Initializer for IdSet2>`
    112              GUI_ID_TEXT4        ,
    113              GUI_ID_DROPDOWN2    ,
    114          
    115              GUI_ID_EDIT2        ,
    116              GUI_ID_TEXT2        ,
    117              GUI_ID_TEXT5        ,
    118              GUI_ID_EDIT3        ,
    119          
    120              GUI_ID_DROPDOWN3    ,
    121          
    122              GUI_ID_EDIT3        ,
    123              GUI_ID_TEXT3        ,
    124              GUI_ID_EDIT11       ,
    125              GUI_ID_EDIT12       ,
    126              GUI_ID_EDIT13       ,
    127              GUI_ID_EDIT14       ,
    128              GUI_ID_EDIT15       ,
    129              GUI_ID_EDIT16       ,
    130              GUI_ID_EDIT17       ,
    131              GUI_ID_EDIT18       ,
    132          
    133              GUI_ID_RADIO0       ,
    134              GUI_ID_TEXT12       ,
    135              GUI_ID_EDIT20       ,
    136              GUI_ID_TEXT20       ,
    137          };
    138          
    139          
    140          

   \                                 In segment CODE, align 4, keep-with-next
    141          void TDUSysWin2::ExecDialogBox(WM_HWIN hCurrentWin)
    142          {
   \                     ??ExecDialogBox:
   \   00000000   70402DE9           PUSH     {R4-R6,LR}
    143              SystemWindow->Protect();
   \   00000004   ........           LDR      R5,??DataTable0  ;; SystemWindow
   \   00000008   0040A0E1           MOV      R4,R0
   \   0000000C   000095E5           LDR      R0,[R5, #+0]
   \   00000010   0160A0E1           MOV      R6,R1
   \   00000014   ........           _BLF     ??Protect,??Protect??rA
    144              if ( SystemWindow->SysWin2IsClosed ) {
   \   00000018   000095E5           LDR      R0,[R5, #+0]
   \   0000001C   7110D0E5           LDRB     R1,[R0, #+113]
   \   00000020   000051E3           CMP      R1,#+0
   \   00000024   1300000A           BEQ      ??ExecDialogBox_1
    145                  SystemWindow->SysWin2IsClosed = false;
    146                  WinHandl = GUI_CreateDialogBox(aDialogCreate, GUI_COUNTOF(aDialogCreate),&cbSysWin,
    147                                                 hCurrentWin, 0, 0);
   \   00000028   60209FE5           LDR      R2,??ExecDialogBox_2  ;; ??cbSysWin
   \   0000002C   0010A0E3           MOV      R1,#+0
   \   00000030   7110C0E5           STRB     R1,[R0, #+113]
   \   00000034   0000A0E3           MOV      R0,#+0
   \   00000038   01002DE9           PUSH     {R0}
   \   0000003C   01002DE9           PUSH     {R0}
   \   00000040   4C009FE5           LDR      R0,??ExecDialogBox_2+0x4  ;; ??aDialogCreate
   \   00000044   0630A0E1           MOV      R3,R6
   \   00000048   1910A0E3           MOV      R1,#+25
   \   0000004C   ........           _BLF     GUI_CreateDialogBox,??GUI_CreateDialogBox??rA
   \   00000050   BA02C4E1           STRH     R0,[R4, #+42]
    148                  //   GUI_DrawPolyLine(ShipLine, GUI_COUNTOF(ShipLine), 10,10);
    149                  SystemWindow->CurrentSysWin = TDU_SYSWIN2;
   \   00000054   000095E5           LDR      R0,[R5, #+0]
   \   00000058   0210A0E3           MOV      R1,#+2
   \   0000005C   6C1080E5           STR      R1,[R0, #+108]
    150                  WM_EnableMemdev(WinHandl);
   \   00000060   FA02D4E1           LDRSH    R0,[R4, #+42]
   \   00000064   ........           _BLF     WM_EnableMemdev,??WM_EnableMemdev??rA
    151                  GetDialogHandles();
   \   00000068   0400A0E1           MOV      R0,R4
   \   0000006C   ........           BL       ??GetDialogHandles
   \   00000070   08D08DE2           ADD      SP,SP,#+8
   \   00000074   010000EA           B        ??ExecDialogBox_3
    152              } else {
    153                  WM_BringToTop(WinHandl);
   \                     ??ExecDialogBox_1:
   \   00000078   FA02D4E1           LDRSH    R0,[R4, #+42]
   \   0000007C   ........           _BLF     WM_BringToTop,??WM_BringToTop??rA
    154              }
    155              SystemWindow->UnProtect();
   \                     ??ExecDialogBox_3:
   \   00000080   000095E5           LDR      R0,[R5, #+0]
   \   00000084   ........           _BLF     ??UnProtect,??UnProtect??rA
    156          }
   \   00000088   7040BDE8           POP      {R4-R6,LR}
   \   0000008C   1EFF2FE1           BX       LR               ;; return
   \                     ??ExecDialogBox_2:
   \   00000090   ........           DC32     ??cbSysWin
   \   00000094   ........           DC32     ??aDialogCreate
    157          
    158          /*********************************************************************
    159          *
    160          * Dialog procedure
    161          */

   \                                 In segment CODE, align 4, keep-with-next
    162          void TDUSysWin2::GetDialogHandles(void)
    163          {
   \                     ??GetDialogHandles:
   \   00000000   10402DE9           PUSH     {R4,LR}
   \   00000004   0040A0E1           MOV      R4,R0
    164              hEditAtm      = WM_GetDialogItem(WinHandl, GUI_ID_EDIT1);
   \   00000008   FA02D4E1           LDRSH    R0,[R4, #+42]
   \   0000000C   0110A0E3           MOV      R1,#+1
   \   00000010   401F81E3           ORR      R1,R1,#0x100
   \   00000014   ........           _BLF     WM_GetDialogItem,??WM_GetDialogItem??rA
   \   00000018   B403C4E1           STRH     R0,[R4, #+52]
    165              hEditTrim     = WM_GetDialogItem(WinHandl, GUI_ID_EDIT2);
   \   0000001C   FA02D4E1           LDRSH    R0,[R4, #+42]
   \   00000020   0210A0E3           MOV      R1,#+2
   \   00000024   401F81E3           ORR      R1,R1,#0x100
   \   00000028   ........           _BLF     WM_GetDialogItem,??WM_GetDialogItem??rA
   \   0000002C   BA03C4E1           STRH     R0,[R4, #+58]
    166              hEditList     = WM_GetDialogItem(WinHandl, GUI_ID_EDIT3);
   \   00000030   FA02D4E1           LDRSH    R0,[R4, #+42]
   \   00000034   0310A0E3           MOV      R1,#+3
   \   00000038   401F81E3           ORR      R1,R1,#0x100
   \   0000003C   ........           _BLF     WM_GetDialogItem,??WM_GetDialogItem??rA
   \   00000040   B004C4E1           STRH     R0,[R4, #+64]
    167              hDropAtmRef   = WM_GetDialogItem(WinHandl, GUI_ID_DROPDOWN1);
   \   00000044   FA02D4E1           LDRSH    R0,[R4, #+42]
   \   00000048   8110A0E3           MOV      R1,#+129
   \   0000004C   401F81E3           ORR      R1,R1,#0x100
   \   00000050   ........           _BLF     WM_GetDialogItem,??WM_GetDialogItem??rA
   \   00000054   B603C4E1           STRH     R0,[R4, #+54]
    168              hDropTrim     = WM_GetDialogItem(WinHandl, GUI_ID_DROPDOWN2);
   \   00000058   FA02D4E1           LDRSH    R0,[R4, #+42]
   \   0000005C   8210A0E3           MOV      R1,#+130
   \   00000060   401F81E3           ORR      R1,R1,#0x100
   \   00000064   ........           _BLF     WM_GetDialogItem,??WM_GetDialogItem??rA
   \   00000068   BC03C4E1           STRH     R0,[R4, #+60]
    169              hDropList     = WM_GetDialogItem(WinHandl, GUI_ID_DROPDOWN3);
   \   0000006C   FA02D4E1           LDRSH    R0,[R4, #+42]
   \   00000070   8310A0E3           MOV      R1,#+131
   \   00000074   401F81E3           ORR      R1,R1,#0x100
   \   00000078   ........           _BLF     WM_GetDialogItem,??WM_GetDialogItem??rA
   \   0000007C   B204C4E1           STRH     R0,[R4, #+66]
    170              hTextAtmUnit  = WM_GetDialogItem(WinHandl, GUI_ID_TEXT1);
   \   00000080   FA02D4E1           LDRSH    R0,[R4, #+42]
   \   00000084   6110A0E3           MOV      R1,#+97
   \   00000088   401F81E3           ORR      R1,R1,#0x100
   \   0000008C   ........           _BLF     WM_GetDialogItem,??WM_GetDialogItem??rA
   \   00000090   B803C4E1           STRH     R0,[R4, #+56]
    171              hTextTrimUnit = WM_GetDialogItem(WinHandl, GUI_ID_TEXT2);
   \   00000094   FA02D4E1           LDRSH    R0,[R4, #+42]
   \   00000098   6210A0E3           MOV      R1,#+98
   \   0000009C   401F81E3           ORR      R1,R1,#0x100
   \   000000A0   ........           _BLF     WM_GetDialogItem,??WM_GetDialogItem??rA
   \   000000A4   BE03C4E1           STRH     R0,[R4, #+62]
    172              hTextListUnit = WM_GetDialogItem(WinHandl, GUI_ID_TEXT3);
   \   000000A8   FA02D4E1           LDRSH    R0,[R4, #+42]
   \   000000AC   6310A0E3           MOV      R1,#+99
   \   000000B0   401F81E3           ORR      R1,R1,#0x100
   \   000000B4   ........           _BLF     WM_GetDialogItem,??WM_GetDialogItem??rA
   \   000000B8   B404C4E1           STRH     R0,[R4, #+68]
    173              hEditDA       = WM_GetDialogItem(WinHandl, GUI_ID_EDIT11);
   \   000000BC   FA02D4E1           LDRSH    R0,[R4, #+42]
   \   000000C0   6310A0E3           MOV      R1,#+99
   \   000000C4   A01E81E3           ORR      R1,R1,#0xA00
   \   000000C8   ........           _BLF     WM_GetDialogItem,??WM_GetDialogItem??rA
   \   000000CC   BC04C4E1           STRH     R0,[R4, #+76]
    174              hEditDP       = WM_GetDialogItem(WinHandl, GUI_ID_EDIT12);
   \   000000D0   FA02D4E1           LDRSH    R0,[R4, #+42]
   \   000000D4   6410A0E3           MOV      R1,#+100
   \   000000D8   A01E81E3           ORR      R1,R1,#0xA00
   \   000000DC   ........           _BLF     WM_GetDialogItem,??WM_GetDialogItem??rA
   \   000000E0   B804C4E1           STRH     R0,[R4, #+72]
    175              hEditDS       = WM_GetDialogItem(WinHandl, GUI_ID_EDIT13);
   \   000000E4   FA02D4E1           LDRSH    R0,[R4, #+42]
   \   000000E8   6510A0E3           MOV      R1,#+101
   \   000000EC   A01E81E3           ORR      R1,R1,#0xA00
   \   000000F0   ........           _BLF     WM_GetDialogItem,??WM_GetDialogItem??rA
   \   000000F4   BA04C4E1           STRH     R0,[R4, #+74]
    176              hEditDF       = WM_GetDialogItem(WinHandl, GUI_ID_EDIT14);
   \   000000F8   FA02D4E1           LDRSH    R0,[R4, #+42]
   \   000000FC   6610A0E3           MOV      R1,#+102
   \   00000100   A01E81E3           ORR      R1,R1,#0xA00
   \   00000104   ........           _BLF     WM_GetDialogItem,??WM_GetDialogItem??rA
   \   00000108   B604C4E1           STRH     R0,[R4, #+70]
    177              hEditDFP      = WM_GetDialogItem(WinHandl, GUI_ID_EDIT15);
   \   0000010C   FA02D4E1           LDRSH    R0,[R4, #+42]
   \   00000110   6710A0E3           MOV      R1,#+103
   \   00000114   A01E81E3           ORR      R1,R1,#0xA00
   \   00000118   ........           _BLF     WM_GetDialogItem,??WM_GetDialogItem??rA
   \   0000011C   B005C4E1           STRH     R0,[R4, #+80]
    178              hEditDFS      = WM_GetDialogItem(WinHandl, GUI_ID_EDIT16);
   \   00000120   FA02D4E1           LDRSH    R0,[R4, #+42]
   \   00000124   6810A0E3           MOV      R1,#+104
   \   00000128   A01E81E3           ORR      R1,R1,#0xA00
   \   0000012C   ........           _BLF     WM_GetDialogItem,??WM_GetDialogItem??rA
   \   00000130   B205C4E1           STRH     R0,[R4, #+82]
    179              hEditDAP      = WM_GetDialogItem(WinHandl, GUI_ID_EDIT17);
   \   00000134   FA02D4E1           LDRSH    R0,[R4, #+42]
   \   00000138   6910A0E3           MOV      R1,#+105
   \   0000013C   A01E81E3           ORR      R1,R1,#0xA00
   \   00000140   ........           _BLF     WM_GetDialogItem,??WM_GetDialogItem??rA
   \   00000144   B405C4E1           STRH     R0,[R4, #+84]
    180              hEditDAS      = WM_GetDialogItem(WinHandl, GUI_ID_EDIT18);
   \   00000148   FA02D4E1           LDRSH    R0,[R4, #+42]
   \   0000014C   6A10A0E3           MOV      R1,#+106
   \   00000150   A01E81E3           ORR      R1,R1,#0xA00
   \   00000154   ........           _BLF     WM_GetDialogItem,??WM_GetDialogItem??rA
   \   00000158   B605C4E1           STRH     R0,[R4, #+86]
    181              hRadioDraft   = WM_GetDialogItem(WinHandl, GUI_ID_RADIO0);
   \   0000015C   FA02D4E1           LDRSH    R0,[R4, #+42]
   \   00000160   541FA0E3           MOV      R1,#+336
   \   00000164   ........           _BLF     WM_GetDialogItem,??WM_GetDialogItem??rA
   \   00000168   BE04C4E1           STRH     R0,[R4, #+78]
    182              hEditSeaWater = WM_GetDialogItem(WinHandl, GUI_ID_EDIT20);
   \   0000016C   FA02D4E1           LDRSH    R0,[R4, #+42]
   \   00000170   6C10A0E3           MOV      R1,#+108
   \   00000174   A01E81E3           ORR      R1,R1,#0xA00
   \   00000178   ........           _BLF     WM_GetDialogItem,??WM_GetDialogItem??rA
   \   0000017C   B805C4E1           STRH     R0,[R4, #+88]
    183              hTextSWUnit   = WM_GetDialogItem(WinHandl, GUI_ID_TEXT20);
   \   00000180   FA02D4E1           LDRSH    R0,[R4, #+42]
   \   00000184   0810A0E3           MOV      R1,#+8
   \   00000188   A01E81E3           ORR      R1,R1,#0xA00
   \   0000018C   ........           _BLF     WM_GetDialogItem,??WM_GetDialogItem??rA
   \   00000190   BA05C4E1           STRH     R0,[R4, #+90]
    184              InitSysWin();
   \   00000194   0400A0E1           MOV      R0,R4
   \   00000198   ........           BL       ??InitSysWin
    185          }
   \   0000019C   1040BDE8           POP      {R4,LR}
   \   000001A0   1EFF2FE1           BX       LR               ;; return
    186          

   \                                 In segment CODE, align 4, keep-with-next
    187          void TDUSysWin2::InitDropDown(void)
    188          {
   \                     ??InitDropDown:
   \   00000000   30402DE9           PUSH     {R4,R5,LR}
   \   00000004   0040A0E1           MOV      R4,R0
    189              if ( PROAtmReference::PROAtmRefPtr && PROAtmReference::PROAtmRefPtr->AtmRefSensors[0] ) {
   \   00000008   ........           LDR      R0,??DataTable25  ;; ??PROAtmRefPtr
   \   0000000C   2CD04DE2           SUB      SP,SP,#+44
   \   00000010   000090E5           LDR      R0,[R0, #+0]
   \   00000014   8110A0E3           MOV      R1,#+129
   \   00000018   401F81E3           ORR      R1,R1,#0x100
   \   0000001C   000050E3           CMP      R0,#+0
   \   00000020   0C00000A           BEQ      ??InitDropDown_1
   \   00000024   4C0190E5           LDR      R0,[R0, #+332]
   \   00000028   000090E5           LDR      R0,[R0, #+0]
   \   0000002C   000050E3           CMP      R0,#+0
   \   00000030   0800000A           BEQ      ??InitDropDown_1
    190                  int WordKey[]={L_WORD553,L_WORD190};
   \   00000034   D4219FE5           LDR      R2,??InitDropDown_2  ;; `?<Constant {553, 190}>`
   \   00000038   24008DE2           ADD      R0,SP,#+36
   \   0000003C   280092E8           LDM      R2,{R3,R5}
    191                  AddToDropDownsList(GUI_ID_DROPDOWN1,WordKey,NELEMENTS(WordKey));
   \   00000040   24208DE2           ADD      R2,SP,#+36
   \   00000044   280080E8           STM      R0,{R3,R5}
   \   00000048   0230A0E3           MOV      R3,#+2
   \   0000004C   0400A0E1           MOV      R0,R4
   \   00000050   ........           _BLF     ??AddToDropDownsList,??AddToDropDownsList??rA
   \   00000054   090000EA           B        ??InitDropDown_3
    192              } else {
    193                  int WordKey[]={L_WORD190};
   \                     ??InitDropDown_1:
   \   00000058   B4219FE5           LDR      R2,??InitDropDown_2+0x4  ;; `?<Constant {190}>`
   \   0000005C   04008DE2           ADD      R0,SP,#+4
   \   00000060   003092E5           LDR      R3,[R2, #0]
    194                  AddToDropDownsList(GUI_ID_DROPDOWN1,WordKey,NELEMENTS(WordKey));
   \   00000064   04208DE2           ADD      R2,SP,#+4
   \   00000068   003080E5           STR      R3,[R0, #+0]
   \   0000006C   0130A0E3           MOV      R3,#+1
   \   00000070   0400A0E1           MOV      R0,R4
   \   00000074   ........           _BLF     ??AddToDropDownsList,??AddToDropDownsList??rA
    195                  WM_DisableWindow(hDropAtmRef);
   \   00000078   F603D4E1           LDRSH    R0,[R4, #+54]
   \   0000007C   ........           _BLF     WM_DisableWindow,??WM_DisableWindow??rA
    196              }
    197              switch (PROProjectInfo::ProjectType) {
   \                     ??InitDropDown_3:
   \   00000080   ........           LDR      R0,??DataTable2  ;; ??ProjectType
   \   00000084   000090E5           LDR      R0,[R0, #+0]
   \   00000088   010050E3           CMP      R0,#+1
   \   0000008C   0200009A           BLS      ??InitDropDown_4
   \   00000090   020050E2           SUBS     R0,R0,#+2
   \   00000094   5300000A           BEQ      ??InitDropDown_5
   \   00000098   350000EA           B        ??InitDropDown_6
    198              case 0:
    199              case 1:
    200                  if ( PROInclinometer::PROInclinPtr && PRODraftSystem::PRODraftSysPtr ) {
   \                     ??InitDropDown_4:
   \   0000009C   ........           LDR      R2,??DataTable20  ;; ??PROInclinPtr
   \   000000A0   ........           LDR      R0,??DataTable21  ;; ??PRODraftSysPtr
   \   000000A4   002092E5           LDR      R2,[R2, #+0]
   \   000000A8   000090E5           LDR      R0,[R0, #+0]
   \   000000AC   8350A0E3           MOV      R5,#+131
   \   000000B0   405F85E3           ORR      R5,R5,#0x100
   \   000000B4   0110C5E3           BIC      R1,R5,#0x1
   \   000000B8   000052E3           CMP      R2,#+0
   \   000000BC   0E00000A           BEQ      ??InitDropDown_7
   \   000000C0   000050E3           CMP      R0,#+0
   \   000000C4   1B00000A           BEQ      ??InitDropDown_8
    201                      IncAvailable = 0;
    202                      int WordKey[]={L_WORD551,L_WORD552,L_WORD190};
   \   000000C8   48219FE5           LDR      R2,??InitDropDown_2+0x8  ;; `?<Constant {551, 552, 190}>`
   \   000000CC   0000A0E3           MOV      R0,#+0
   \   000000D0   5C0084E5           STR      R0,[R4, #+92]
   \   000000D4   085092E8           LDM      R2,{R3,R12,LR}
   \   000000D8   18008DE2           ADD      R0,SP,#+24
    203                      AddToDropDownsList(GUI_ID_DROPDOWN2,WordKey,NELEMENTS(WordKey));
   \   000000DC   18208DE2           ADD      R2,SP,#+24
   \   000000E0   085080E8           STM      R0,{R3,R12,LR}
   \   000000E4   0330A0E3           MOV      R3,#+3
   \   000000E8   0400A0E1           MOV      R0,R4
   \   000000EC   ........           _BLF     ??AddToDropDownsList,??AddToDropDownsList??rA
    204                      AddToDropDownsList(GUI_ID_DROPDOWN3,WordKey,NELEMENTS(WordKey));
   \   000000F0   0330A0E3           MOV      R3,#+3
   \   000000F4   18208DE2           ADD      R2,SP,#+24
   \                     ??InitDropDown_9:
   \   000000F8   1A0000EA           B        ??InitDropDown_10
    205                  } else if ( PROInclinometer::PROInclinPtr ) {
    206                      IncAvailable = 1;
    207                      int WordKey[]={L_WORD551,L_WORD190};
    208                      AddToDropDownsList(GUI_ID_DROPDOWN2,WordKey,NELEMENTS(WordKey));
    209                      AddToDropDownsList(GUI_ID_DROPDOWN3,WordKey,NELEMENTS(WordKey));
    210                  } else if ( PRODraftSystem::PRODraftSysPtr ) {
   \                     ??InitDropDown_7:
   \   000000FC   000050E3           CMP      R0,#+0
   \   00000100   1E00000A           BEQ      ??InitDropDown_11
    211                      IncAvailable = 2;
    212                      int WordKey[]={L_WORD552,L_WORD190};
   \   00000104   10219FE5           LDR      R2,??InitDropDown_2+0xC  ;; `?<Constant {552, 190}>`
   \   00000108   0200A0E3           MOV      R0,#+2
   \   0000010C   5C0084E5           STR      R0,[R4, #+92]
   \   00000110   081092E8           LDM      R2,{R3,R12}
   \   00000114   08008DE2           ADD      R0,SP,#+8
    213                      AddToDropDownsList(GUI_ID_DROPDOWN2,WordKey,NELEMENTS(WordKey));
   \   00000118   08208DE2           ADD      R2,SP,#+8
   \   0000011C   081080E8           STM      R0,{R3,R12}
   \   00000120   0230A0E3           MOV      R3,#+2
   \   00000124   0400A0E1           MOV      R0,R4
   \   00000128   ........           _BLF     ??AddToDropDownsList,??AddToDropDownsList??rA
    214                      AddToDropDownsList(GUI_ID_DROPDOWN3,WordKey,NELEMENTS(WordKey));
   \   0000012C   0230A0E3           MOV      R3,#+2
   \   00000130   08208DE2           ADD      R2,SP,#+8
   \   00000134   0B0000EA           B        ??InitDropDown_10
    215                  } else {
   \                     ??InitDropDown_8:
   \   00000138   E0209FE5           LDR      R2,??InitDropDown_2+0x10  ;; `?<Constant {551, 190}>`
   \   0000013C   0100A0E3           MOV      R0,#+1
   \   00000140   5C0084E5           STR      R0,[R4, #+92]
   \   00000144   081092E8           LDM      R2,{R3,R12}
   \   00000148   10008DE2           ADD      R0,SP,#+16
   \   0000014C   10208DE2           ADD      R2,SP,#+16
   \   00000150   081080E8           STM      R0,{R3,R12}
   \   00000154   0230A0E3           MOV      R3,#+2
   \   00000158   0400A0E1           MOV      R0,R4
   \   0000015C   ........           _BLF     ??AddToDropDownsList,??AddToDropDownsList??rA
   \   00000160   0230A0E3           MOV      R3,#+2
   \   00000164   10208DE2           ADD      R2,SP,#+16
   \                     ??InitDropDown_10:
   \   00000168   0510A0E1           MOV      R1,R5
   \   0000016C   0400A0E1           MOV      R0,R4
   \   00000170   ........           _BLF     ??AddToDropDownsList,??AddToDropDownsList??rA
   \                     ??InitDropDown_6:
   \   00000174   2CD08DE2           ADD      SP,SP,#+44
   \   00000178   3040BDE8           POP      {R4,R5,LR}
   \   0000017C   1EFF2FE1           BX       LR
    216                      IncAvailable = 3;
    217                      int WordKey[]={L_WORD190};
   \                     ??InitDropDown_11:
   \   00000180   9C209FE5           LDR      R2,??InitDropDown_2+0x14  ;; `?<Constant {190}>_1`
   \   00000184   0300A0E3           MOV      R0,#+3
   \   00000188   5C0084E5           STR      R0,[R4, #+92]
   \   0000018C   003092E5           LDR      R3,[R2, #0]
   \   00000190   0D00A0E1           MOV      R0,SP
   \   00000194   003080E5           STR      R3,[R0, #+0]
    218                      AddToDropDownsList(GUI_ID_DROPDOWN2,WordKey,NELEMENTS(WordKey));
   \   00000198   0130A0E3           MOV      R3,#+1
   \   0000019C   0D20A0E1           MOV      R2,SP
   \   000001A0   0400A0E1           MOV      R0,R4
   \   000001A4   ........           _BLF     ??AddToDropDownsList,??AddToDropDownsList??rA
    219                      AddToDropDownsList(GUI_ID_DROPDOWN3,WordKey,NELEMENTS(WordKey));
   \   000001A8   0130A0E3           MOV      R3,#+1
   \   000001AC   0D20A0E1           MOV      R2,SP
   \   000001B0   0510A0E1           MOV      R1,R5
   \   000001B4   0400A0E1           MOV      R0,R4
   \   000001B8   ........           _BLF     ??AddToDropDownsList,??AddToDropDownsList??rA
    220                      DROPDOWN_SetSel(hDropTrim,0);
   \   000001BC   FC03D4E1           LDRSH    R0,[R4, #+60]
   \   000001C0   0010A0E3           MOV      R1,#+0
   \   000001C4   ........           _BLF     DROPDOWN_SetSel,??DROPDOWN_SetSel??rA
    221                      DROPDOWN_SetSel(hDropList,0);
   \   000001C8   F204D4E1           LDRSH    R0,[R4, #+66]
   \   000001CC   0010A0E3           MOV      R1,#+0
   \   000001D0   ........           _BLF     DROPDOWN_SetSel,??DROPDOWN_SetSel??rA
    222                      WM_DisableWindow(hDropTrim);
   \   000001D4   FC03D4E1           LDRSH    R0,[R4, #+60]
   \   000001D8   ........           _BLF     WM_DisableWindow,??WM_DisableWindow??rA
    223                      WM_DisableWindow(hDropList);
   \   000001DC   F204D4E1           LDRSH    R0,[R4, #+66]
   \   000001E0   ........           _BLF     WM_DisableWindow,??WM_DisableWindow??rA
   \   000001E4   E2FFFFEA           B        ??InitDropDown_6
    224                  }
    225                  break;
    226              case 2:
    227                  for (int i=0; i < NELEMENTS(IdSet2); i++) {
   \                     ??InitDropDown_5:
   \   000001E8   0050A0E3           MOV      R5,#+0
   \   000001EC   040000EA           B        ??InitDropDown_12
    228                      Hide(IdSet2[i]);
   \                     ??InitDropDown_13:
   \   000001F0   30009FE5           LDR      R0,??InitDropDown_2+0x18  ;; ??IdSet2
   \   000001F4   051190E7           LDR      R1,[R0, +R5, LSL #+2]
   \   000001F8   0400A0E1           MOV      R0,R4
   \   000001FC   ........           _BLF     ??Hide,??Hide??rA
    229                  }
   \   00000200   015085E2           ADD      R5,R5,#+1
   \                     ??InitDropDown_12:
   \   00000204   150055E3           CMP      R5,#+21
   \   00000208   F8FFFF3A           BCC      ??InitDropDown_13
    230                  break;
    231              }
    232          
    233          }
   \   0000020C   D8FFFFEA           B        ??InitDropDown_6
   \                     ??InitDropDown_2:
   \   00000210   ........           DC32     `?<Constant {553, 190}>`
   \   00000214   ........           DC32     `?<Constant {190}>`
   \   00000218   ........           DC32     `?<Constant {551, 552, 190}>`
   \   0000021C   ........           DC32     `?<Constant {552, 190}>`
   \   00000220   ........           DC32     `?<Constant {551, 190}>`
   \   00000224   ........           DC32     `?<Constant {190}>_1`
   \   00000228   ........           DC32     ??IdSet2

   \                                 In segment CODE, align 4, keep-with-next
    234          void TDUSysWin2::InitSysWin(void)
    235          {
   \                     ??InitSysWin:
   \   00000000   10402DE9           PUSH     {R4,LR}
   \   00000004   84D04DE2           SUB      SP,SP,#+132
   \   00000008   0040A0E1           MOV      R4,R0
    236              InitDropDown();
   \   0000000C   ........           BL       ??InitDropDown
    237              if ( !PRODraftSystem::PRODraftSysPtr ) {
   \   00000010   ........           LDR      R0,??DataTable21  ;; ??PRODraftSysPtr
   \   00000014   000090E5           LDR      R0,[R0, #+0]
   \   00000018   000050E3           CMP      R0,#+0
   \   0000001C   1100001A           BNE      ??InitSysWin_1
    238                  WM_HideWin(hEditDF);
   \   00000020   F604D4E1           LDRSH    R0,[R4, #+70]
   \   00000024   ........           _BLF     WM_HideWindow,??WM_HideWindow??rA
    239                  WM_HideWin(hEditDP);
   \   00000028   F804D4E1           LDRSH    R0,[R4, #+72]
   \   0000002C   ........           _BLF     WM_HideWindow,??WM_HideWindow??rA
    240                  WM_HideWin(hEditDS);
   \   00000030   FA04D4E1           LDRSH    R0,[R4, #+74]
   \   00000034   ........           _BLF     WM_HideWindow,??WM_HideWindow??rA
    241                  WM_HideWin(hEditDA);
   \   00000038   FC04D4E1           LDRSH    R0,[R4, #+76]
   \   0000003C   ........           _BLF     WM_HideWindow,??WM_HideWindow??rA
    242          
    243                  WM_HideWin(hEditDFP);
   \   00000040   F005D4E1           LDRSH    R0,[R4, #+80]
   \   00000044   ........           _BLF     WM_HideWindow,??WM_HideWindow??rA
    244                  WM_HideWin(hEditDFS);
   \   00000048   F205D4E1           LDRSH    R0,[R4, #+82]
   \   0000004C   ........           _BLF     WM_HideWindow,??WM_HideWindow??rA
    245                  WM_HideWin(hEditDAP);
   \   00000050   F405D4E1           LDRSH    R0,[R4, #+84]
   \   00000054   ........           _BLF     WM_HideWindow,??WM_HideWindow??rA
    246                  WM_HideWin(hEditDAS);
   \   00000058   F605D4E1           LDRSH    R0,[R4, #+86]
   \   0000005C   ........           _BLF     WM_HideWindow,??WM_HideWindow??rA
    247                  WM_HideWin(hRadioDraft);
   \   00000060   FE04D4E1           LDRSH    R0,[R4, #+78]
   \   00000064   0A0000EA           B        ??InitSysWin_2
    248              }else{
    249                  switch (PRODraftSystem::PRODraftSysPtr->DraftSystem) {
   \                     ??InitSysWin_1:
   \   00000068   6C01D0E5           LDRB     R0,[R0, #+364]
   \   0000006C   040050E2           SUBS     R0,R0,#+4
   \   00000070   03005012           SUBSNE   R0,R0,#+3
   \   00000074   0700000A           BEQ      ??InitSysWin_3
    250                  case PRODraftSystem::DftFwdMidShipAftPS:
    251                  case PRODraftSystem::DftCorners:
    252                      break;
    253                  default:
    254                      WM_HideWin(hEditDFP);
   \   00000078   F005D4E1           LDRSH    R0,[R4, #+80]
   \   0000007C   ........           _BLF     WM_HideWindow,??WM_HideWindow??rA
    255                      WM_HideWin(hEditDFS);
   \   00000080   F205D4E1           LDRSH    R0,[R4, #+82]
   \   00000084   ........           _BLF     WM_HideWindow,??WM_HideWindow??rA
    256                      WM_HideWin(hEditDAP);
   \   00000088   F405D4E1           LDRSH    R0,[R4, #+84]
   \   0000008C   ........           _BLF     WM_HideWindow,??WM_HideWindow??rA
    257                      WM_HideWin(hEditDAS);
   \   00000090   F605D4E1           LDRSH    R0,[R4, #+86]
   \                     ??InitSysWin_2:
   \   00000094   ........           _BLF     WM_HideWindow,??WM_HideWindow??rA
    258                      break;
    259          
    260                  }
    261              }
    262              {
    263                  const GUIKey Words[] ={
    264                      {TDU_SYSTEM2_WIN    ,0,L_WORD30},
    265                      {GUI_ID_TEXT0       ,0,L_WORD31},
    266                      {GUI_ID_TEXT1       ,0,L_WORD32},
    267                      {GUI_ID_TEXT2       ,0,L_WORD34},
    268                      {GUI_ID_TEXT4       ,0,L_WORD33},
    269                      {GUI_ID_TEXT5       ,0,L_WORD38},
    270                      {GUI_ID_TEXT3       ,0,L_WORD34},
    271                      {GUI_ID_TEXT12      ,0,L_WORD37},
    272                      {GUI_ID_TEXT20      ,0,L_WORD36},
    273                      {GUI_ID_RADIO0      ,0,L_WORD491},
    274                      {GUI_ID_RADIO0      ,1,L_WORD492},
    275                  };
   \                     ??InitSysWin_3:
   \   00000098   5C109FE5           LDR      R1,??InitSysWin_4  ;; `?<Constant {{2190, 0, 30}, {352, 0, 31}, {353,`
   \   0000009C   0D00A0E1           MOV      R0,SP
   \   000000A0   8430A0E3           MOV      R3,#+132
   \                     ??InitSysWin_5:
   \   000000A4   043053E2           SUBS     R3,R3,#+4
   \   000000A8   032091E7           LDR      R2,[R1, R3]
   \   000000AC   032080E7           STR      R2,[R0, R3]
   \   000000B0   FBFFFF1A           BNE      ??InitSysWin_5
    276                  AddToSKeyList((GUIKey*)Words,NELEMENTS(Words));
   \   000000B4   0130A0E3           MOV      R3,#+1
   \   000000B8   0B20A0E3           MOV      R2,#+11
   \   000000BC   0D10A0E1           MOV      R1,SP
   \   000000C0   0400A0E1           MOV      R0,R4
   \   000000C4   ........           _BLF     ??AddToSKeyList,??AddToSKeyList??rA
    277              }
    278              ClearRWList();
   \   000000C8   0400A0E1           MOV      R0,R4
   \   000000CC   ........           _BLF     ??ClearRWList,??ClearRWList??rA
    279              AddToRWList(IdSet1,NELEMENTS(IdSet1),PROProjectInfo::PROProjectInfoPtr);
   \   000000D0   28009FE5           LDR      R0,??InitSysWin_4+0x4  ;; ??PROProjectInfoPtr
   \   000000D4   28109FE5           LDR      R1,??InitSysWin_4+0x8  ;; ??IdSet1
   \   000000D8   003090E5           LDR      R3,[R0, #+0]
   \   000000DC   1120A0E3           MOV      R2,#+17
   \   000000E0   0400A0E1           MOV      R0,R4
   \   000000E4   ........           _BLF     ??AddToRWList,??AddToRWList??rA
    280              UpdateReadOnly();
   \   000000E8   0400A0E1           MOV      R0,R4
   \   000000EC   ........           _BLF     ??UpdateReadOnly,??UpdateReadOnly??rA
    281          }
   \   000000F0   84D08DE2           ADD      SP,SP,#+132
   \   000000F4   1040BDE8           POP      {R4,LR}
   \   000000F8   1EFF2FE1           BX       LR               ;; return
   \                     ??InitSysWin_4:
   \   000000FC   ........           DC32     `?<Constant {{2190, 0, 30}, {352, 0, 31}, {353,`
   \   00000100   ........           DC32     ??PROProjectInfoPtr
   \   00000104   ........           DC32     ??IdSet1
    282          

   \                                 In segment CODE, align 4, keep-with-next
    283          void TDUSysWin2::UpdateSysWin(void)
    284          {
   \                     ??UpdateSysWin:
   \   00000000   F0432DE9           PUSH     {R4-R9,LR}
    285              AnsiString str,unitstr;
    286          //Atm.
    287              if ( PROAtmReference::PROAtmRefPtr ) {
   \   00000004   ........           LDR      R5,??DataTable25  ;; ??PROAtmRefPtr
   \   00000008   62DF4DE2           SUB      SP,SP,#+392
   \   0000000C   0040A0E1           MOV      R4,R0
   \   00000010   0D00A0E1           MOV      R0,SP
   \   00000014   ........           _BLF     ??AnsiString,??AnsiString??rA
   \   00000018   1C008DE2           ADD      R0,SP,#+28
   \   0000001C   ........           _BLF     ??AnsiString,??AnsiString??rA
   \   00000020   000095E5           LDR      R0,[R5, #+0]
   \   00000024   000050E3           CMP      R0,#+0
   \   00000028   2200000A           BEQ      ??UpdateSysWin_3
    288                  //str =  LibGetValue(SVT_ATM_P_ENABLE, PROAtmReference::PROAtmRefPtr);
    289                  if ( PROAtmReference::PROAtmRefPtr->UseManual ) {
   \   0000002C   5A01D0E5           LDRB     R0,[R0, #+346]
   \   00000030   000050E3           CMP      R0,#+0
   \   00000034   0500000A           BEQ      ??UpdateSysWin_4
    290                      DROPDOWN_SetSel(hDropAtmRef,1);
   \   00000038   F603D4E1           LDRSH    R0,[R4, #+54]
   \   0000003C   0110A0E3           MOV      R1,#+1
   \   00000040   ........           _BLF     DROPDOWN_SetSel,??DROPDOWN_SetSel??rA
    291                      WM_EnableWindow(hEditAtm);
   \   00000044   F403D4E1           LDRSH    R0,[R4, #+52]
   \   00000048   ........           _BLF     WM_EnableWindow,??WM_EnableWindow??rA
   \   0000004C   040000EA           B        ??UpdateSysWin_5
    292                  } else {
    293                      DROPDOWN_SetSel(hDropAtmRef,0);
   \                     ??UpdateSysWin_4:
   \   00000050   F603D4E1           LDRSH    R0,[R4, #+54]
   \   00000054   0010A0E3           MOV      R1,#+0
   \   00000058   ........           _BLF     DROPDOWN_SetSel,??DROPDOWN_SetSel??rA
    294                      WM_DisableWindow(hEditAtm);
   \   0000005C   F403D4E1           LDRSH    R0,[R4, #+52]
   \   00000060   ........           _BLF     WM_DisableWindow,??WM_DisableWindow??rA
    295                  }
    296                  str = LibGetValue(SVT_ATM_PRESSURE, PROAtmReference::PROAtmRefPtr,&unitstr);
   \                     ??UpdateSysWin_5:
   \   00000064   0000A0E3           MOV      R0,#+0
   \   00000068   01002DE9           PUSH     {R0}
   \   0000006C   002095E5           LDR      R2,[R5, #+0]
   \   00000070   20308DE2           ADD      R3,SP,#+32
   \   00000074   4710A0E3           MOV      R1,#+71
   \   00000078   501E81E3           ORR      R1,R1,#0x500
   \   0000007C   3C008DE2           ADD      R0,SP,#+60
   \   00000080   ........           _BLF     ??LibGetValue,??LibGetValue??rA
   \   00000084   ........           LDR      R0,??DataTable16  ;; ??npos
   \   00000088   0020A0E3           MOV      R2,#+0
   \   0000008C   003090E5           LDR      R3,[R0, #+0]
   \   00000090   3C108DE2           ADD      R1,SP,#+60
   \   00000094   04008DE2           ADD      R0,SP,#+4
   \   00000098   ........           _BLF     ??assign,??assign??rA
   \   0000009C   0020A0E3           MOV      R2,#+0
   \   000000A0   0110A0E3           MOV      R1,#+1
   \   000000A4   3C008DE2           ADD      R0,SP,#+60
   \   000000A8   ........           _BLF     ??_Tidy,??_Tidy??rA
    297                  EDIT_SetText(hEditAtm,str.c_str());
   \   000000AC   1C009DE5           LDR      R0,[SP, #+28]
   \   000000B0   04D08DE2           ADD      SP,SP,#+4
   \   000000B4   170000EA           B        ??UpdateSysWin_6
    298                  TEXT_SetText(hTextAtmUnit, unitstr.c_str());
    299              } else {
    300                  str = FindDictionaryWord(L_WORD181).c_str();    // No value
   \                     ??UpdateSysWin_3:
   \   000000B8   B510A0E3           MOV      R1,#+181
   \   000000BC   54008DE2           ADD      R0,SP,#+84
   \   000000C0   ........           _BLF     ??FindDictionaryWord,??FindDictionaryWord??rA
   \   000000C4   6C009DE5           LDR      R0,[SP, #+108]
   \   000000C8   100050E3           CMP      R0,#+16
   \   000000CC   58109D25           LDRCS    R1,[SP, #+88]
   \   000000D0   38008DE2           ADD      R0,SP,#+56
   \   000000D4   58108D32           ADDCC    R1,SP,#+88
   \   000000D8   ........           _BLF     ??AnsiString_1,??AnsiString??rA_1
   \   000000DC   ........           LDR      R1,??DataTable16  ;; ??npos
   \   000000E0   0020A0E3           MOV      R2,#+0
   \   000000E4   003091E5           LDR      R3,[R1, #+0]
   \   000000E8   0010A0E1           MOV      R1,R0
   \   000000EC   0D00A0E1           MOV      R0,SP
   \   000000F0   ........           _BLF     ??assign,??assign??rA
   \   000000F4   0020A0E3           MOV      R2,#+0
   \   000000F8   0110A0E3           MOV      R1,#+1
   \   000000FC   38008DE2           ADD      R0,SP,#+56
   \   00000100   ........           _BLF     ??_Tidy,??_Tidy??rA
   \   00000104   0020A0E3           MOV      R2,#+0
   \   00000108   0110A0E3           MOV      R1,#+1
   \   0000010C   54008DE2           ADD      R0,SP,#+84
   \   00000110   ........           _BLF     ??_Tidy,??_Tidy??rA
    301                  EDIT_SetText(hEditAtm,str.c_str());
   \   00000114   18009DE5           LDR      R0,[SP, #+24]
   \                     ??UpdateSysWin_6:
   \   00000118   100050E3           CMP      R0,#+16
   \   0000011C   F403D4E1           LDRSH    R0,[R4, #+52]
   \   00000120   04109D25           LDRCS    R1,[SP, #+4]
    302                  TEXT_SetText(hTextAtmUnit, unitstr.c_str());
    303              }
    304          // Trim / List
    305              if ( PROSystemData::TXUSystemData ) {
   \   00000124   ........           LDR      R5,??DataTable22  ;; ??TXUSystemData
   \   00000128   04108D32           ADDCC    R1,SP,#+4
   \   0000012C   ........           _BLF     EDIT_SetText,??EDIT_SetText??rA
   \   00000130   34009DE5           LDR      R0,[SP, #+52]
   \   00000134   100050E3           CMP      R0,#+16
   \   00000138   F803D4E1           LDRSH    R0,[R4, #+56]
   \   0000013C   20109D25           LDRCS    R1,[SP, #+32]
   \   00000140   20108D32           ADDCC    R1,SP,#+32
   \   00000144   ........           _BLF     TEXT_SetText,??TEXT_SetText??rA
   \   00000148   000095E5           LDR      R0,[R5, #+0]
   \   0000014C   000050E3           CMP      R0,#+0
   \   00000150   AC00000A           BEQ      ??UpdateSysWin_7
    306                  WM_DisableWindow(hEditTrim);
   \   00000154   FA03D4E1           LDRSH    R0,[R4, #+58]
    307                  WM_DisableWindow(hEditList);
    308                  switch ( IncAvailable ) {
   \   00000158   30689FE5           LDR      R6,??UpdateSysWin_8  ;; ??ListSource
   \   0000015C   ........           _BLF     WM_DisableWindow,??WM_DisableWindow??rA
   \   00000160   F004D4E1           LDRSH    R0,[R4, #+64]
   \   00000164   ........           _BLF     WM_DisableWindow,??WM_DisableWindow??rA
   \   00000168   5C0094E5           LDR      R0,[R4, #+92]
   \   0000016C   000050E3           CMP      R0,#+0
   \   00000170   0400000A           BEQ      ??UpdateSysWin_9
   \   00000174   010050E2           SUBS     R0,R0,#+1
   \   00000178   2B00000A           BEQ      ??UpdateSysWin_10
   \   0000017C   010050E2           SUBS     R0,R0,#+1
   \   00000180   4700000A           BEQ      ??UpdateSysWin_11
   \   00000184   600000EA           B        ??UpdateSysWin_12
    309                  case 0:
    310                      switch ( PROSystemData::TXUSystemData->TrimSource ) {
   \                     ??UpdateSysWin_9:
   \   00000188   04189FE5           LDR      R1,??UpdateSysWin_8+0x4  ;; ??TrimSource
   \   0000018C   FC03D4E1           LDRSH    R0,[R4, #+60]
   \   00000190   001091E5           LDR      R1,[R1, #+0]
   \   00000194   DA1041E2           SUB      R1,R1,#+218
   \   00000198   801D41E2           SUB      R1,R1,#+8192
   \   0000019C   020051E3           CMP      R1,#+2
   \   000001A0   0C00008A           BHI      ??UpdateSysWin_13
   \   000001A4   012F8FE2           ADR      R2,??UpdateSysWin_1
   \   000001A8   0120D2E7           LDRB     R2,[R2, R1]
   \   000001AC   02F18FE0           ADD      PC,PC,R2, LSL #+2
   \                     ??UpdateSysWin_1:
   \   000001B0   00070500           DC8      +0,+7,+5,+0
    311                      case C_SD_MAN_SOURCE  :
    312                          DROPDOWN_SetSel(hDropTrim,2);
   \                     ??UpdateSysWin_14:
   \   000001B4   0210A0E3           MOV      R1,#+2
   \   000001B8   ........           _BLF     DROPDOWN_SetSel,??DROPDOWN_SetSel??rA
    313                          WM_EnableWindow(hEditTrim);
   \   000001BC   FA03D4E1           LDRSH    R0,[R4, #+58]
   \   000001C0   ........           _BLF     WM_EnableWindow,??WM_EnableWindow??rA
   \   000001C4   030000EA           B        ??UpdateSysWin_13
    314                          break;
    315                      case C_SD_DRAFT_SOURCE:
    316                          DROPDOWN_SetSel(hDropTrim,1);
   \                     ??UpdateSysWin_15:
   \   000001C8   0110A0E3           MOV      R1,#+1
   \   000001CC   000000EA           B        ??UpdateSysWin_16
    317                          break;
    318                      case C_SD_INC_SOURCE  :
    319                          DROPDOWN_SetSel(hDropTrim,0);
   \                     ??UpdateSysWin_17:
   \   000001D0   0010A0E3           MOV      R1,#+0
   \                     ??UpdateSysWin_16:
   \   000001D4   ........           _BLF     DROPDOWN_SetSel,??DROPDOWN_SetSel??rA
    320                          break;
    321                      }
    322                      switch ( PROSystemData::TXUSystemData->ListSource ) {
   \                     ??UpdateSysWin_13:
   \   000001D8   001096E5           LDR      R1,[R6, #+0]
   \   000001DC   F204D4E1           LDRSH    R0,[R4, #+66]
   \   000001E0   DA1041E2           SUB      R1,R1,#+218
   \   000001E4   801D41E2           SUB      R1,R1,#+8192
   \   000001E8   020051E3           CMP      R1,#+2
   \   000001EC   4600008A           BHI      ??UpdateSysWin_12
   \   000001F0   012F8FE2           ADR      R2,??UpdateSysWin_2
   \   000001F4   0120D2E7           LDRB     R2,[R2, R1]
   \   000001F8   02F18FE0           ADD      PC,PC,R2, LSL #+2
   \                     ??UpdateSysWin_2:
   \   000001FC   00080500           DC8      +0,+8,+5,+0
    323                      case C_SD_MAN_SOURCE  :
    324                          DROPDOWN_SetSel(hDropList,2);
   \                     ??UpdateSysWin_18:
   \   00000200   0210A0E3           MOV      R1,#+2
   \                     ??UpdateSysWin_19:
   \   00000204   ........           _BLF     DROPDOWN_SetSel,??DROPDOWN_SetSel??rA
    325                          WM_EnableWindow(hEditList);
   \   00000208   F004D4E1           LDRSH    R0,[R4, #+64]
   \   0000020C   ........           _BLF     WM_EnableWindow,??WM_EnableWindow??rA
   \   00000210   3D0000EA           B        ??UpdateSysWin_12
    326                          break;
    327                      case C_SD_DRAFT_SOURCE:
    328                          DROPDOWN_SetSel(hDropList,1);
   \                     ??UpdateSysWin_20:
   \   00000214   0110A0E3           MOV      R1,#+1
   \                     ??UpdateSysWin_21:
   \   00000218   ........           _BLF     DROPDOWN_SetSel,??DROPDOWN_SetSel??rA
   \   0000021C   3A0000EA           B        ??UpdateSysWin_12
    329                          break;
    330                      case C_SD_INC_SOURCE  :
    331                          DROPDOWN_SetSel(hDropList,0);
   \                     ??UpdateSysWin_22:
   \   00000220   F204D4E1           LDRSH    R0,[R4, #+66]
   \   00000224   0010A0E3           MOV      R1,#+0
   \   00000228   FAFFFFEA           B        ??UpdateSysWin_21
    332                          break;
    333                      }
    334                      break;
    335                  case 1:
    336                      switch ( PROSystemData::TXUSystemData->TrimSource ) {
   \                     ??UpdateSysWin_10:
   \   0000022C   60179FE5           LDR      R1,??UpdateSysWin_8+0x4  ;; ??TrimSource
   \   00000230   FC03D4E1           LDRSH    R0,[R4, #+60]
   \   00000234   001091E5           LDR      R1,[R1, #+0]
   \   00000238   DA20A0E3           MOV      R2,#+218
   \   0000023C   802D82E3           ORR      R2,R2,#0x2000
   \   00000240   020051E1           CMP      R1,R2
   \   00000244   0300000A           BEQ      ??UpdateSysWin_23
   \   00000248   012082E3           ORR      R2,R2,#0x1
   \   0000024C   020051E1           CMP      R1,R2
   \   00000250   0500000A           BEQ      ??UpdateSysWin_24
   \   00000254   060000EA           B        ??UpdateSysWin_25
    337                      case C_SD_MAN_SOURCE  :
    338                          DROPDOWN_SetSel(hDropTrim,1);
   \                     ??UpdateSysWin_23:
   \   00000258   0110A0E3           MOV      R1,#+1
   \   0000025C   ........           _BLF     DROPDOWN_SetSel,??DROPDOWN_SetSel??rA
    339                          WM_EnableWindow(hEditTrim);
   \   00000260   FA03D4E1           LDRSH    R0,[R4, #+58]
   \   00000264   ........           _BLF     WM_EnableWindow,??WM_EnableWindow??rA
   \   00000268   010000EA           B        ??UpdateSysWin_25
    340                          break;
    341                      case C_SD_INC_SOURCE  :
    342                          DROPDOWN_SetSel(hDropTrim,0);
   \                     ??UpdateSysWin_24:
   \   0000026C   0010A0E3           MOV      R1,#+0
   \   00000270   ........           _BLF     DROPDOWN_SetSel,??DROPDOWN_SetSel??rA
    343                          break;
    344                      }
    345                      switch ( PROSystemData::TXUSystemData->ListSource ) {
   \                     ??UpdateSysWin_25:
   \   00000274   000096E5           LDR      R0,[R6, #+0]
   \   00000278   DA10A0E3           MOV      R1,#+218
   \   0000027C   801D81E3           ORR      R1,R1,#0x2000
   \   00000280   010050E1           CMP      R0,R1
   \   00000284   0300000A           BEQ      ??UpdateSysWin_26
   \   00000288   011081E3           ORR      R1,R1,#0x1
   \   0000028C   010050E1           CMP      R0,R1
   \   00000290   E2FFFF0A           BEQ      ??UpdateSysWin_22
   \   00000294   1C0000EA           B        ??UpdateSysWin_12
    346                      case C_SD_MAN_SOURCE  :
    347                          DROPDOWN_SetSel(hDropList,1);
   \                     ??UpdateSysWin_26:
   \   00000298   F204D4E1           LDRSH    R0,[R4, #+66]
   \   0000029C   0110A0E3           MOV      R1,#+1
   \   000002A0   D7FFFFEA           B        ??UpdateSysWin_19
    348                          WM_EnableWindow(hEditList);
    349                          break;
    350                      case C_SD_INC_SOURCE  :
    351                          DROPDOWN_SetSel(hDropList,0);
    352                          break;
    353                      }
    354                      break;
    355                  case 2:
    356                      switch ( PROSystemData::TXUSystemData->TrimSource ) {
   \                     ??UpdateSysWin_11:
   \   000002A4   E8169FE5           LDR      R1,??UpdateSysWin_8+0x4  ;; ??TrimSource
   \   000002A8   FC03D4E1           LDRSH    R0,[R4, #+60]
   \   000002AC   001091E5           LDR      R1,[R1, #+0]
   \   000002B0   DA20A0E3           MOV      R2,#+218
   \   000002B4   802D82E3           ORR      R2,R2,#0x2000
   \   000002B8   020051E1           CMP      R1,R2
   \   000002BC   0300000A           BEQ      ??UpdateSysWin_27
   \   000002C0   022082E2           ADD      R2,R2,#+2
   \   000002C4   020051E1           CMP      R1,R2
   \   000002C8   0500000A           BEQ      ??UpdateSysWin_28
   \   000002CC   060000EA           B        ??UpdateSysWin_29
    357                      case C_SD_MAN_SOURCE  :
    358                          DROPDOWN_SetSel(hDropTrim,1);
   \                     ??UpdateSysWin_27:
   \   000002D0   0110A0E3           MOV      R1,#+1
   \   000002D4   ........           _BLF     DROPDOWN_SetSel,??DROPDOWN_SetSel??rA
    359                          WM_EnableWindow(hEditTrim);
   \   000002D8   FA03D4E1           LDRSH    R0,[R4, #+58]
   \   000002DC   ........           _BLF     WM_EnableWindow,??WM_EnableWindow??rA
   \   000002E0   010000EA           B        ??UpdateSysWin_29
    360                          break;
    361                      case C_SD_DRAFT_SOURCE:
    362                          DROPDOWN_SetSel(hDropTrim,0);
   \                     ??UpdateSysWin_28:
   \   000002E4   0010A0E3           MOV      R1,#+0
   \   000002E8   ........           _BLF     DROPDOWN_SetSel,??DROPDOWN_SetSel??rA
    363                          break;
    364                      }
    365                      switch ( PROSystemData::TXUSystemData->ListSource ) {
   \                     ??UpdateSysWin_29:
   \   000002EC   000096E5           LDR      R0,[R6, #+0]
   \   000002F0   DA10A0E3           MOV      R1,#+218
   \   000002F4   801D81E3           ORR      R1,R1,#0x2000
   \   000002F8   010050E1           CMP      R0,R1
   \   000002FC   E5FFFF0A           BEQ      ??UpdateSysWin_26
   \   00000300   021081E2           ADD      R1,R1,#+2
   \   00000304   010050E1           CMP      R0,R1
   \   00000308   C4FFFF0A           BEQ      ??UpdateSysWin_22
    366                      case C_SD_MAN_SOURCE  :
    367                          DROPDOWN_SetSel(hDropList,1);
    368                          WM_EnableWindow(hEditList);
    369                          break;
    370                      case C_SD_DRAFT_SOURCE:
    371                          DROPDOWN_SetSel(hDropList,0);
    372                          break;
    373                      }
    374                      break;
    375                  }
    376                  str = LibGetValue( SVT_TRIM_M_NOSIGN, PROSystemData::TXUSystemData,&unitstr);
   \                     ??UpdateSysWin_12:
   \   0000030C   0000A0E3           MOV      R0,#+0
   \   00000310   01002DE9           PUSH     {R0}
   \   00000314   002095E5           LDR      R2,[R5, #+0]
   \   00000318   20308DE2           ADD      R3,SP,#+32
   \   0000031C   4E10A0E3           MOV      R1,#+78
   \   00000320   501E81E3           ORR      R1,R1,#0x500
   \   00000324   3C008DE2           ADD      R0,SP,#+60
   \   00000328   ........           _BLF     ??LibGetValue,??LibGetValue??rA
   \   0000032C   ........           LDR      R0,??DataTable16  ;; ??npos
   \   00000330   0020A0E3           MOV      R2,#+0
   \   00000334   009090E5           LDR      R9,[R0, #+0]
   \   00000338   3C108DE2           ADD      R1,SP,#+60
   \   0000033C   0930A0E1           MOV      R3,R9
   \   00000340   04008DE2           ADD      R0,SP,#+4
   \   00000344   ........           _BLF     ??assign,??assign??rA
   \   00000348   0020A0E3           MOV      R2,#+0
   \   0000034C   0110A0E3           MOV      R1,#+1
   \   00000350   3C008DE2           ADD      R0,SP,#+60
   \   00000354   ........           _BLF     ??_Tidy,??_Tidy??rA
    377                  EDIT_SetText(hEditTrim,str.c_str());
   \   00000358   1C009DE5           LDR      R0,[SP, #+28]
   \   0000035C   04D08DE2           ADD      SP,SP,#+4
   \   00000360   100050E3           CMP      R0,#+16
   \   00000364   FA03D4E1           LDRSH    R0,[R4, #+58]
   \   00000368   04109D25           LDRCS    R1,[SP, #+4]
   \   0000036C   04108D32           ADDCC    R1,SP,#+4
   \   00000370   ........           _BLF     EDIT_SetText,??EDIT_SetText??rA
    378                  TEXT_SetText(hTextTrimUnit,unitstr.c_str());
   \   00000374   34009DE5           LDR      R0,[SP, #+52]
   \   00000378   100050E3           CMP      R0,#+16
   \   0000037C   FE03D4E1           LDRSH    R0,[R4, #+62]
   \   00000380   20109D25           LDRCS    R1,[SP, #+32]
   \   00000384   20108D32           ADDCC    R1,SP,#+32
   \   00000388   ........           _BLF     TEXT_SetText,??TEXT_SetText??rA
    379                  str = LibGetValue(SVT_LIST_ANGLE_NOSIGN, PROSystemData::TXUSystemData,&unitstr);
   \   0000038C   0000A0E3           MOV      R0,#+0
   \   00000390   01002DE9           PUSH     {R0}
   \   00000394   002095E5           LDR      R2,[R5, #+0]
   \   00000398   20308DE2           ADD      R3,SP,#+32
   \   0000039C   5410A0E3           MOV      R1,#+84
   \   000003A0   501E81E3           ORR      R1,R1,#0x500
   \   000003A4   58008DE2           ADD      R0,SP,#+88
   \   000003A8   ........           _BLF     ??LibGetValue,??LibGetValue??rA
   \   000003AC   0930A0E1           MOV      R3,R9
   \   000003B0   0020A0E3           MOV      R2,#+0
   \   000003B4   58108DE2           ADD      R1,SP,#+88
   \   000003B8   04008DE2           ADD      R0,SP,#+4
   \   000003BC   ........           _BLF     ??assign,??assign??rA
   \   000003C0   0020A0E3           MOV      R2,#+0
   \   000003C4   0110A0E3           MOV      R1,#+1
   \   000003C8   58008DE2           ADD      R0,SP,#+88
   \   000003CC   ........           _BLF     ??_Tidy,??_Tidy??rA
    380                  EDIT_SetText(hEditList,str.c_str());
   \   000003D0   1C009DE5           LDR      R0,[SP, #+28]
   \   000003D4   04D08DE2           ADD      SP,SP,#+4
   \   000003D8   100050E3           CMP      R0,#+16
   \   000003DC   F004D4E1           LDRSH    R0,[R4, #+64]
   \   000003E0   04109D25           LDRCS    R1,[SP, #+4]
   \   000003E4   04108D32           ADDCC    R1,SP,#+4
   \   000003E8   ........           _BLF     EDIT_SetText,??EDIT_SetText??rA
    381                  TEXT_SetText(hTextListUnit,unitstr.c_str());
   \   000003EC   34009DE5           LDR      R0,[SP, #+52]
   \   000003F0   100050E3           CMP      R0,#+16
   \   000003F4   F404D4E1           LDRSH    R0,[R4, #+68]
   \   000003F8   20109D25           LDRCS    R1,[SP, #+32]
   \   000003FC   20108D32           ADDCC    R1,SP,#+32
   \   00000400   ........           _BLF     TEXT_SetText,??TEXT_SetText??rA
   \   00000404   220000EA           B        ??UpdateSysWin_30
    382              } else {
    383                  str = FindDictionaryWord(L_WORD181).c_str();    // No value
   \                     ??UpdateSysWin_7:
   \   00000408   B510A0E3           MOV      R1,#+181
   \   0000040C   54008DE2           ADD      R0,SP,#+84
   \   00000410   ........           _BLF     ??FindDictionaryWord,??FindDictionaryWord??rA
   \   00000414   6C009DE5           LDR      R0,[SP, #+108]
   \   00000418   100050E3           CMP      R0,#+16
   \   0000041C   58109D25           LDRCS    R1,[SP, #+88]
   \   00000420   38008DE2           ADD      R0,SP,#+56
   \   00000424   58108D32           ADDCC    R1,SP,#+88
   \   00000428   ........           _BLF     ??AnsiString_1,??AnsiString??rA_1
   \   0000042C   ........           LDR      R1,??DataTable16  ;; ??npos
   \   00000430   0020A0E3           MOV      R2,#+0
   \   00000434   003091E5           LDR      R3,[R1, #+0]
   \   00000438   0010A0E1           MOV      R1,R0
   \   0000043C   0D00A0E1           MOV      R0,SP
   \   00000440   ........           _BLF     ??assign,??assign??rA
   \   00000444   0020A0E3           MOV      R2,#+0
   \   00000448   0110A0E3           MOV      R1,#+1
   \   0000044C   38008DE2           ADD      R0,SP,#+56
   \   00000450   ........           _BLF     ??_Tidy,??_Tidy??rA
   \   00000454   0020A0E3           MOV      R2,#+0
   \   00000458   0110A0E3           MOV      R1,#+1
   \   0000045C   54008DE2           ADD      R0,SP,#+84
   \   00000460   ........           _BLF     ??_Tidy,??_Tidy??rA
    384                  EDIT_SetText(hEditTrim,str.c_str());
   \   00000464   18009DE5           LDR      R0,[SP, #+24]
   \   00000468   100050E3           CMP      R0,#+16
   \   0000046C   FA03D4E1           LDRSH    R0,[R4, #+58]
   \   00000470   04109D25           LDRCS    R1,[SP, #+4]
   \   00000474   04108D32           ADDCC    R1,SP,#+4
   \   00000478   ........           _BLF     EDIT_SetText,??EDIT_SetText??rA
    385                  EDIT_SetText(hEditList,str.c_str());
   \   0000047C   18009DE5           LDR      R0,[SP, #+24]
   \   00000480   100050E3           CMP      R0,#+16
   \   00000484   F004D4E1           LDRSH    R0,[R4, #+64]
   \   00000488   04109D25           LDRCS    R1,[SP, #+4]
   \   0000048C   04108D32           ADDCC    R1,SP,#+4
   \   00000490   ........           _BLF     EDIT_SetText,??EDIT_SetText??rA
    386              }
    387          //Draft system
    388              if ( PRODraftSystem::PRODraftSysPtr ) {
   \                     ??UpdateSysWin_30:
   \   00000494   ........           LDR      R6,??DataTable21  ;; ??PRODraftSysPtr
   \   00000498   001096E5           LDR      R1,[R6, #+0]
   \   0000049C   000051E3           CMP      R1,#+0
   \   000004A0   F700000A           BEQ      ??UpdateSysWin_31
    389                  if ( PRODraftSystem::PRODraftSysPtr->DraftIndicationAtPP ) {
   \   000004A4   FE04D4E1           LDRSH    R0,[R4, #+78]
   \   000004A8   F811D1E5           LDRB     R1,[R1, #+504]
    390                      RADIO_SetValue(hRadioDraft,0);
    391                  } else {
    392                      RADIO_SetValue(hRadioDraft,1);
    393                  }
    394          
    395                  switch (PRODraftSystem::PRODraftSysPtr->DraftSystem) {
   \   000004AC   E770A0E3           MOV      R7,#+231
   \   000004B0   507E87E3           ORR      R7,R7,#0x500
   \   000004B4   000051E3           CMP      R1,#+0
   \   000004B8   0010A013           MOVNE    R1,#+0
   \   000004BC   0110A003           MOVEQ    R1,#+1
   \   000004C0   ........           _BLF     RADIO_SetValue,??RADIO_SetValue??rA
   \   000004C4   002096E5           LDR      R2,[R6, #+0]
   \   000004C8   0180C7E3           BIC      R8,R7,#0x1
   \   000004CC   6C01D2E5           LDRB     R0,[R2, #+364]
   \   000004D0   040050E2           SUBS     R0,R0,#+4
   \   000004D4   03005012           SUBSNE   R0,R0,#+3
   \   000004D8   8A00001A           BNE      ??UpdateSysWin_32
    396                  case PRODraftSystem::DftFwdMidShipAftPS:
    397                  case PRODraftSystem::DftCorners:
    398                      str = LibGetValue( SVT_DFP, PRODraftSystem::PRODraftSysPtr,&unitstr);
   \   000004DC   0000A0E3           MOV      R0,#+0
   \   000004E0   01002DE9           PUSH     {R0}
   \   000004E4   20308DE2           ADD      R3,SP,#+32
   \   000004E8   011087E2           ADD      R1,R7,#+1
   \   000004EC   74008DE2           ADD      R0,SP,#+116
   \   000004F0   ........           _BLF     ??LibGetValue,??LibGetValue??rA
   \   000004F4   ........           LDR      R0,??DataTable16  ;; ??npos
   \   000004F8   0020A0E3           MOV      R2,#+0
   \   000004FC   009090E5           LDR      R9,[R0, #+0]
   \   00000500   74108DE2           ADD      R1,SP,#+116
   \   00000504   0930A0E1           MOV      R3,R9
   \   00000508   04008DE2           ADD      R0,SP,#+4
   \   0000050C   ........           _BLF     ??assign,??assign??rA
   \   00000510   0020A0E3           MOV      R2,#+0
   \   00000514   0110A0E3           MOV      R1,#+1
   \   00000518   74008DE2           ADD      R0,SP,#+116
   \   0000051C   ........           _BLF     ??_Tidy,??_Tidy??rA
    399                      EDIT_SetText(hEditDFP,str.c_str());
   \   00000520   1C009DE5           LDR      R0,[SP, #+28]
   \   00000524   04D08DE2           ADD      SP,SP,#+4
   \   00000528   100050E3           CMP      R0,#+16
   \   0000052C   F005D4E1           LDRSH    R0,[R4, #+80]
   \   00000530   04109D25           LDRCS    R1,[SP, #+4]
   \   00000534   04108D32           ADDCC    R1,SP,#+4
   \   00000538   ........           _BLF     EDIT_SetText,??EDIT_SetText??rA
    400                      str = LibGetValue( SVT_DFS, PRODraftSystem::PRODraftSysPtr,&unitstr);
   \   0000053C   0000A0E3           MOV      R0,#+0
   \   00000540   01002DE9           PUSH     {R0}
   \   00000544   002096E5           LDR      R2,[R6, #+0]
   \   00000548   20308DE2           ADD      R3,SP,#+32
   \   0000054C   021087E2           ADD      R1,R7,#+2
   \   00000550   90008DE2           ADD      R0,SP,#+144
   \   00000554   ........           _BLF     ??LibGetValue,??LibGetValue??rA
   \   00000558   0930A0E1           MOV      R3,R9
   \   0000055C   0020A0E3           MOV      R2,#+0
   \   00000560   90108DE2           ADD      R1,SP,#+144
   \   00000564   04008DE2           ADD      R0,SP,#+4
   \   00000568   ........           _BLF     ??assign,??assign??rA
   \   0000056C   0020A0E3           MOV      R2,#+0
   \   00000570   0110A0E3           MOV      R1,#+1
   \   00000574   90008DE2           ADD      R0,SP,#+144
   \   00000578   ........           _BLF     ??_Tidy,??_Tidy??rA
    401                      EDIT_SetText(hEditDFS,str.c_str());
   \   0000057C   1C009DE5           LDR      R0,[SP, #+28]
   \   00000580   04D08DE2           ADD      SP,SP,#+4
   \   00000584   100050E3           CMP      R0,#+16
   \   00000588   F205D4E1           LDRSH    R0,[R4, #+82]
   \   0000058C   04109D25           LDRCS    R1,[SP, #+4]
   \   00000590   04108D32           ADDCC    R1,SP,#+4
   \   00000594   ........           _BLF     EDIT_SetText,??EDIT_SetText??rA
    402                      str = LibGetValue( SVT_DAP, PRODraftSystem::PRODraftSysPtr,&unitstr);
   \   00000598   0000A0E3           MOV      R0,#+0
   \   0000059C   01002DE9           PUSH     {R0}
   \   000005A0   002096E5           LDR      R2,[R6, #+0]
   \   000005A4   20308DE2           ADD      R3,SP,#+32
   \   000005A8   051087E2           ADD      R1,R7,#+5
   \   000005AC   AC008DE2           ADD      R0,SP,#+172
   \   000005B0   ........           _BLF     ??LibGetValue,??LibGetValue??rA
   \   000005B4   0930A0E1           MOV      R3,R9
   \   000005B8   0020A0E3           MOV      R2,#+0
   \   000005BC   AC108DE2           ADD      R1,SP,#+172
   \   000005C0   04008DE2           ADD      R0,SP,#+4
   \   000005C4   ........           _BLF     ??assign,??assign??rA
   \   000005C8   0020A0E3           MOV      R2,#+0
   \   000005CC   0110A0E3           MOV      R1,#+1
   \   000005D0   AC008DE2           ADD      R0,SP,#+172
   \   000005D4   ........           _BLF     ??_Tidy,??_Tidy??rA
    403                      EDIT_SetText(hEditDAP,str.c_str());
   \   000005D8   1C009DE5           LDR      R0,[SP, #+28]
   \   000005DC   04D08DE2           ADD      SP,SP,#+4
   \   000005E0   100050E3           CMP      R0,#+16
   \   000005E4   F405D4E1           LDRSH    R0,[R4, #+84]
   \   000005E8   04109D25           LDRCS    R1,[SP, #+4]
   \   000005EC   04108D32           ADDCC    R1,SP,#+4
   \   000005F0   ........           _BLF     EDIT_SetText,??EDIT_SetText??rA
    404                      str = LibGetValue( SVT_DAS, PRODraftSystem::PRODraftSysPtr,&unitstr);
   \   000005F4   0000A0E3           MOV      R0,#+0
   \   000005F8   01002DE9           PUSH     {R0}
   \   000005FC   002096E5           LDR      R2,[R6, #+0]
   \   00000600   20308DE2           ADD      R3,SP,#+32
   \   00000604   061087E2           ADD      R1,R7,#+6
   \   00000608   C8008DE2           ADD      R0,SP,#+200
   \   0000060C   ........           _BLF     ??LibGetValue,??LibGetValue??rA
   \   00000610   0930A0E1           MOV      R3,R9
   \   00000614   0020A0E3           MOV      R2,#+0
   \   00000618   C8108DE2           ADD      R1,SP,#+200
   \   0000061C   04008DE2           ADD      R0,SP,#+4
   \   00000620   ........           _BLF     ??assign,??assign??rA
   \   00000624   0020A0E3           MOV      R2,#+0
   \   00000628   0110A0E3           MOV      R1,#+1
   \   0000062C   C8008DE2           ADD      R0,SP,#+200
   \   00000630   ........           _BLF     ??_Tidy,??_Tidy??rA
    405                      EDIT_SetText(hEditDAS,str.c_str());
   \   00000634   1C009DE5           LDR      R0,[SP, #+28]
   \   00000638   04D08DE2           ADD      SP,SP,#+4
   \   0000063C   100050E3           CMP      R0,#+16
   \   00000640   F605D4E1           LDRSH    R0,[R4, #+86]
   \   00000644   04109D25           LDRCS    R1,[SP, #+4]
   \   00000648   04108D32           ADDCC    R1,SP,#+4
   \   0000064C   ........           _BLF     EDIT_SetText,??EDIT_SetText??rA
    406                      str = LibGetValue( SVT_DS, PRODraftSystem::PRODraftSysPtr,&unitstr);
   \   00000650   0000A0E3           MOV      R0,#+0
   \   00000654   01002DE9           PUSH     {R0}
   \   00000658   002096E5           LDR      R2,[R6, #+0]
   \   0000065C   20308DE2           ADD      R3,SP,#+32
   \   00000660   0810A0E1           MOV      R1,R8
   \   00000664   E4008DE2           ADD      R0,SP,#+228
   \   00000668   ........           _BLF     ??LibGetValue,??LibGetValue??rA
   \   0000066C   0930A0E1           MOV      R3,R9
   \   00000670   0020A0E3           MOV      R2,#+0
   \   00000674   E4108DE2           ADD      R1,SP,#+228
   \   00000678   04008DE2           ADD      R0,SP,#+4
   \   0000067C   ........           _BLF     ??assign,??assign??rA
   \   00000680   0020A0E3           MOV      R2,#+0
   \   00000684   0110A0E3           MOV      R1,#+1
   \   00000688   E4008DE2           ADD      R0,SP,#+228
   \   0000068C   ........           _BLF     ??_Tidy,??_Tidy??rA
    407                      EDIT_SetText(hEditDS,str.c_str());
   \   00000690   1C009DE5           LDR      R0,[SP, #+28]
   \   00000694   04D08DE2           ADD      SP,SP,#+4
   \   00000698   100050E3           CMP      R0,#+16
   \   0000069C   FA04D4E1           LDRSH    R0,[R4, #+74]
   \   000006A0   04109D25           LDRCS    R1,[SP, #+4]
   \   000006A4   04108D32           ADDCC    R1,SP,#+4
   \   000006A8   ........           _BLF     EDIT_SetText,??EDIT_SetText??rA
    408                      str = LibGetValue( SVT_DP, PRODraftSystem::PRODraftSysPtr,&unitstr);
   \   000006AC   0000A0E3           MOV      R0,#+0
   \   000006B0   01002DE9           PUSH     {R0}
   \   000006B4   002096E5           LDR      R2,[R6, #+0]
   \   000006B8   20308DE2           ADD      R3,SP,#+32
   \   000006BC   0710A0E1           MOV      R1,R7
   \   000006C0   400F8DE2           ADD      R0,SP,#+256
   \   000006C4   ........           _BLF     ??LibGetValue,??LibGetValue??rA
   \   000006C8   0930A0E1           MOV      R3,R9
   \   000006CC   0020A0E3           MOV      R2,#+0
   \   000006D0   401F8DE2           ADD      R1,SP,#+256
   \   000006D4   04008DE2           ADD      R0,SP,#+4
   \   000006D8   ........           _BLF     ??assign,??assign??rA
   \   000006DC   0020A0E3           MOV      R2,#+0
   \   000006E0   0110A0E3           MOV      R1,#+1
   \   000006E4   400F8DE2           ADD      R0,SP,#+256
   \   000006E8   ........           _BLF     ??_Tidy,??_Tidy??rA
    409                      EDIT_SetText(hEditDP,str.c_str());
   \   000006EC   1C009DE5           LDR      R0,[SP, #+28]
   \   000006F0   04D08DE2           ADD      SP,SP,#+4
   \   000006F4   100050E3           CMP      R0,#+16
   \   000006F8   F804D4E1           LDRSH    R0,[R4, #+72]
   \   000006FC   04109D25           LDRCS    R1,[SP, #+4]
   \   00000700   04108D32           ADDCC    R1,SP,#+4
   \   00000704   ........           _BLF     EDIT_SetText,??EDIT_SetText??rA
    410                  default:
    411                      str = LibGetValue( SVT_DA, PRODraftSystem::PRODraftSysPtr,&unitstr);
   \                     ??UpdateSysWin_32:
   \   00000708   0000A0E3           MOV      R0,#+0
   \   0000070C   01002DE9           PUSH     {R0}
   \   00000710   002096E5           LDR      R2,[R6, #+0]
   \   00000714   20308DE2           ADD      R3,SP,#+32
   \   00000718   0410C7E3           BIC      R1,R7,#0x4
   \   0000071C   470F8DE2           ADD      R0,SP,#+284
   \   00000720   ........           _BLF     ??LibGetValue,??LibGetValue??rA
   \   00000724   ........           LDR      R0,??DataTable16  ;; ??npos
   \   00000728   0020A0E3           MOV      R2,#+0
   \   0000072C   009090E5           LDR      R9,[R0, #+0]
   \   00000730   471F8DE2           ADD      R1,SP,#+284
   \   00000734   0930A0E1           MOV      R3,R9
   \   00000738   04008DE2           ADD      R0,SP,#+4
   \   0000073C   ........           _BLF     ??assign,??assign??rA
   \   00000740   0020A0E3           MOV      R2,#+0
   \   00000744   0110A0E3           MOV      R1,#+1
   \   00000748   470F8DE2           ADD      R0,SP,#+284
   \   0000074C   ........           _BLF     ??_Tidy,??_Tidy??rA
    412                      EDIT_SetText(hEditDA,str.c_str());
   \   00000750   1C009DE5           LDR      R0,[SP, #+28]
   \   00000754   04D08DE2           ADD      SP,SP,#+4
   \   00000758   100050E3           CMP      R0,#+16
   \   0000075C   FC04D4E1           LDRSH    R0,[R4, #+76]
   \   00000760   04109D25           LDRCS    R1,[SP, #+4]
   \   00000764   04108D32           ADDCC    R1,SP,#+4
   \   00000768   ........           _BLF     EDIT_SetText,??EDIT_SetText??rA
    413                      str = LibGetValue( SVT_DF, PRODraftSystem::PRODraftSysPtr,&unitstr);
   \   0000076C   0000A0E3           MOV      R0,#+0
   \   00000770   01002DE9           PUSH     {R0}
   \   00000774   002096E5           LDR      R2,[R6, #+0]
   \   00000778   20308DE2           ADD      R3,SP,#+32
   \   0000077C   5E1EA0E3           MOV      R1,#+1504
   \   00000780   4E0F8DE2           ADD      R0,SP,#+312
   \   00000784   ........           _BLF     ??LibGetValue,??LibGetValue??rA
   \   00000788   0930A0E1           MOV      R3,R9
   \   0000078C   0020A0E3           MOV      R2,#+0
   \   00000790   4E1F8DE2           ADD      R1,SP,#+312
   \   00000794   04008DE2           ADD      R0,SP,#+4
   \   00000798   ........           _BLF     ??assign,??assign??rA
   \   0000079C   0020A0E3           MOV      R2,#+0
   \   000007A0   0110A0E3           MOV      R1,#+1
   \   000007A4   4E0F8DE2           ADD      R0,SP,#+312
   \   000007A8   ........           _BLF     ??_Tidy,??_Tidy??rA
    414                      EDIT_SetText(hEditDF,str.c_str());
   \   000007AC   1C009DE5           LDR      R0,[SP, #+28]
   \   000007B0   04D08DE2           ADD      SP,SP,#+4
   \   000007B4   100050E3           CMP      R0,#+16
   \   000007B8   F604D4E1           LDRSH    R0,[R4, #+70]
   \   000007BC   04109D25           LDRCS    R1,[SP, #+4]
   \   000007C0   04108D32           ADDCC    R1,SP,#+4
   \   000007C4   ........           _BLF     EDIT_SetText,??EDIT_SetText??rA
    415                      str = LibGetValue( SVT_DS, PRODraftSystem::PRODraftSysPtr,&unitstr);
   \   000007C8   0000A0E3           MOV      R0,#+0
   \   000007CC   01002DE9           PUSH     {R0}
   \   000007D0   002096E5           LDR      R2,[R6, #+0]
   \   000007D4   20308DE2           ADD      R3,SP,#+32
   \   000007D8   0810A0E1           MOV      R1,R8
   \   000007DC   550F8DE2           ADD      R0,SP,#+340
   \   000007E0   ........           _BLF     ??LibGetValue,??LibGetValue??rA
   \   000007E4   0930A0E1           MOV      R3,R9
   \   000007E8   0020A0E3           MOV      R2,#+0
   \   000007EC   551F8DE2           ADD      R1,SP,#+340
   \   000007F0   04008DE2           ADD      R0,SP,#+4
   \   000007F4   ........           _BLF     ??assign,??assign??rA
   \   000007F8   0020A0E3           MOV      R2,#+0
   \   000007FC   0110A0E3           MOV      R1,#+1
   \   00000800   550F8DE2           ADD      R0,SP,#+340
   \   00000804   ........           _BLF     ??_Tidy,??_Tidy??rA
    416                      EDIT_SetText(hEditDS,str.c_str());
   \   00000808   1C009DE5           LDR      R0,[SP, #+28]
   \   0000080C   04D08DE2           ADD      SP,SP,#+4
   \   00000810   100050E3           CMP      R0,#+16
   \   00000814   FA04D4E1           LDRSH    R0,[R4, #+74]
   \   00000818   04109D25           LDRCS    R1,[SP, #+4]
   \   0000081C   04108D32           ADDCC    R1,SP,#+4
   \   00000820   ........           _BLF     EDIT_SetText,??EDIT_SetText??rA
    417                      str = LibGetValue( SVT_DP, PRODraftSystem::PRODraftSysPtr,&unitstr);
   \   00000824   0000A0E3           MOV      R0,#+0
   \   00000828   01002DE9           PUSH     {R0}
   \   0000082C   002096E5           LDR      R2,[R6, #+0]
   \   00000830   20308DE2           ADD      R3,SP,#+32
   \   00000834   0710A0E1           MOV      R1,R7
   \   00000838   5C0F8DE2           ADD      R0,SP,#+368
   \   0000083C   ........           _BLF     ??LibGetValue,??LibGetValue??rA
   \   00000840   0930A0E1           MOV      R3,R9
   \   00000844   0020A0E3           MOV      R2,#+0
   \   00000848   5C1F8DE2           ADD      R1,SP,#+368
   \   0000084C   04008DE2           ADD      R0,SP,#+4
   \   00000850   ........           _BLF     ??assign,??assign??rA
   \   00000854   0020A0E3           MOV      R2,#+0
   \   00000858   0110A0E3           MOV      R1,#+1
   \   0000085C   5C0F8DE2           ADD      R0,SP,#+368
   \   00000860   ........           _BLF     ??_Tidy,??_Tidy??rA
    418                      EDIT_SetText(hEditDP,str.c_str());
   \   00000864   1C009DE5           LDR      R0,[SP, #+28]
   \   00000868   04D08DE2           ADD      SP,SP,#+4
   \   0000086C   100050E3           CMP      R0,#+16
   \   00000870   F804D4E1           LDRSH    R0,[R4, #+72]
   \   00000874   04109D25           LDRCS    R1,[SP, #+4]
   \   00000878   04108D32           ADDCC    R1,SP,#+4
   \   0000087C   ........           _BLF     EDIT_SetText,??EDIT_SetText??rA
   \   00000880   160000EA           B        ??UpdateSysWin_33
    419                      break;
    420          
    421                  }
    422              } else {
    423                  str = FindDictionaryWord(L_WORD182).c_str();    // No sensors
   \                     ??UpdateSysWin_31:
   \   00000884   B610A0E3           MOV      R1,#+182
   \   00000888   38008DE2           ADD      R0,SP,#+56
   \   0000088C   ........           _BLF     ??FindDictionaryWord,??FindDictionaryWord??rA
   \   00000890   50009DE5           LDR      R0,[SP, #+80]
   \   00000894   100050E3           CMP      R0,#+16
   \   00000898   3C109D25           LDRCS    R1,[SP, #+60]
   \   0000089C   54008DE2           ADD      R0,SP,#+84
   \   000008A0   3C108D32           ADDCC    R1,SP,#+60
   \   000008A4   ........           _BLF     ??AnsiString_1,??AnsiString??rA_1
   \   000008A8   ........           LDR      R1,??DataTable16  ;; ??npos
   \   000008AC   0020A0E3           MOV      R2,#+0
   \   000008B0   003091E5           LDR      R3,[R1, #+0]
   \   000008B4   0010A0E1           MOV      R1,R0
   \   000008B8   0D00A0E1           MOV      R0,SP
   \   000008BC   ........           _BLF     ??assign,??assign??rA
   \   000008C0   0020A0E3           MOV      R2,#+0
   \   000008C4   0110A0E3           MOV      R1,#+1
   \   000008C8   54008DE2           ADD      R0,SP,#+84
   \   000008CC   ........           _BLF     ??_Tidy,??_Tidy??rA
   \   000008D0   0020A0E3           MOV      R2,#+0
   \   000008D4   0110A0E3           MOV      R1,#+1
   \   000008D8   38008DE2           ADD      R0,SP,#+56
   \   000008DC   ........           _BLF     ??_Tidy,??_Tidy??rA
    424              }
    425          //Sea water density
    426              if ( PROSystemData::TXUSystemData ) {
   \                     ??UpdateSysWin_33:
   \   000008E0   002095E5           LDR      R2,[R5, #+0]
   \   000008E4   000052E3           CMP      R2,#+0
   \   000008E8   1E00000A           BEQ      ??UpdateSysWin_34
    427                  str = LibGetValue( SVT_SEAWATER_DNS, PROSystemData::TXUSystemData,&unitstr);
   \   000008EC   0000A0E3           MOV      R0,#+0
   \   000008F0   01002DE9           PUSH     {R0}
   \   000008F4   20308DE2           ADD      R3,SP,#+32
   \   000008F8   A110A0E3           MOV      R1,#+161
   \   000008FC   501E81E3           ORR      R1,R1,#0x500
   \   00000900   3C008DE2           ADD      R0,SP,#+60
   \   00000904   ........           _BLF     ??LibGetValue,??LibGetValue??rA
   \   00000908   ........           LDR      R0,??DataTable16  ;; ??npos
   \   0000090C   0020A0E3           MOV      R2,#+0
   \   00000910   003090E5           LDR      R3,[R0, #+0]
   \   00000914   3C108DE2           ADD      R1,SP,#+60
   \   00000918   04008DE2           ADD      R0,SP,#+4
   \   0000091C   ........           _BLF     ??assign,??assign??rA
   \   00000920   0020A0E3           MOV      R2,#+0
   \   00000924   0110A0E3           MOV      R1,#+1
   \   00000928   3C008DE2           ADD      R0,SP,#+60
   \   0000092C   ........           _BLF     ??_Tidy,??_Tidy??rA
    428                  EDIT_SetText(hEditSeaWater,str.c_str());
   \   00000930   1C009DE5           LDR      R0,[SP, #+28]
   \   00000934   04D08DE2           ADD      SP,SP,#+4
   \   00000938   100050E3           CMP      R0,#+16
   \   0000093C   F805D4E1           LDRSH    R0,[R4, #+88]
   \   00000940   04109D25           LDRCS    R1,[SP, #+4]
   \   00000944   04108D32           ADDCC    R1,SP,#+4
   \   00000948   ........           _BLF     EDIT_SetText,??EDIT_SetText??rA
    429                  TEXT_SetText(hTextSWUnit,unitstr.c_str());
   \   0000094C   34009DE5           LDR      R0,[SP, #+52]
   \   00000950   100050E3           CMP      R0,#+16
   \   00000954   FA05D4E1           LDRSH    R0,[R4, #+90]
   \   00000958   20109D25           LDRCS    R1,[SP, #+32]
   \   0000095C   20108D32           ADDCC    R1,SP,#+32
   \   00000960   ........           _BLF     TEXT_SetText,??TEXT_SetText??rA
    430              }
    431          }
   \   00000964   0020A0E3           MOV      R2,#+0
   \                     ??UpdateSysWin_34:
   \   00000968   0110A0E3           MOV      R1,#+1
   \   0000096C   1C008DE2           ADD      R0,SP,#+28
   \   00000970   ........           _BLF     ??_Tidy,??_Tidy??rA
   \   00000974   0020A0E3           MOV      R2,#+0
   \   00000978   0110A0E3           MOV      R1,#+1
   \   0000097C   0D00A0E1           MOV      R0,SP
   \   00000980   ........           _BLF     ??_Tidy,??_Tidy??rA
   \   00000984   62DF8DE2           ADD      SP,SP,#+392
   \   00000988   F043BDE8           POP      {R4-R9,LR}
   \   0000098C   1EFF2FE1           BX       LR               ;; return
   \                     ??UpdateSysWin_8:
   \   00000990   ........           DC32     ??ListSource
   \   00000994   ........           DC32     ??TrimSource
    432          

   \                                 In segment CODE, align 4, keep-with-next
    433          void TDUSysWin2::SetTrimSource(int Index)
    434          {
    435              int Source = C_SD_MAN_SOURCE;
    436              if ( PROInclinometer::PROInclinPtr && PRODraftSystem::PRODraftSysPtr ) {
   \                     ??SetTrimSource:
   \   00000000   ........           LDR      R12,??DataTable20  ;; ??PROInclinPtr
   \   00000004   ........           LDR      R0,??DataTable21  ;; ??PRODraftSysPtr
   \   00000008   00402DE9           PUSH     {LR}
   \   0000000C   00C09CE5           LDR      R12,[R12, #+0]
   \   00000010   000090E5           LDR      R0,[R0, #+0]
   \   00000014   DA20A0E3           MOV      R2,#+218
   \   00000018   802D82E3           ORR      R2,R2,#0x2000
   \   0000001C   023082E2           ADD      R3,R2,#+2
   \   00000020   00005CE3           CMP      R12,#+0
   \   00000024   0900000A           BEQ      ??SetTrimSource_1
   \   00000028   01C082E3           ORR      R12,R2,#0x1
   \   0000002C   000050E3           CMP      R0,#+0
   \   00000030   1200000A           BEQ      ??SetTrimSource_2
    437                  switch ( Index ) {
   \   00000034   000051E3           CMP      R1,#+0
   \   00000038   0200000A           BEQ      ??SetTrimSource_3
   \   0000003C   011051E2           SUBS     R1,R1,#+1
   \   00000040   0600000A           BEQ      ??SetTrimSource_4
   \   00000044   060000EA           B        ??SetTrimSource_5
    438                  case 0:
    439                      Source = C_SD_INC_SOURCE;
   \                     ??SetTrimSource_3:
   \   00000048   0C20A0E1           MOV      R2,R12
   \   0000004C   040000EA           B        ??SetTrimSource_5
    440                      break;
    441                  case 1:
    442                      Source = C_SD_DRAFT_SOURCE;
    443                      break;
    444                  case 2:
    445                      Source = C_SD_MAN_SOURCE;
    446                      break;
    447                  }
    448              } else if ( PROInclinometer::PROInclinPtr ) {
    449                  switch ( Index ) {
    450                  case 0:
    451                      Source = C_SD_INC_SOURCE;
    452                      break;
    453                  case 1:
    454                      Source = C_SD_MAN_SOURCE;
    455                      break;
    456                  }
    457              } else if ( PRODraftSystem::PRODraftSysPtr ) {
   \                     ??SetTrimSource_1:
   \   00000050   000050E3           CMP      R0,#+0
   \   00000054   0200000A           BEQ      ??SetTrimSource_5
    458                  switch ( Index ) {
   \   00000058   000051E3           CMP      R1,#+0
   \   0000005C   0000001A           BNE      ??SetTrimSource_5
    459                  case 0:
    460                      Source = C_SD_DRAFT_SOURCE;
   \                     ??SetTrimSource_4:
   \   00000060   0320A0E1           MOV      R2,R3
    461                      break;
    462                  case 1:
    463                      Source = C_SD_MAN_SOURCE;
    464                      break;
    465                  }
    466              } else {
    467                  Source = C_SD_MAN_SOURCE;
    468              }
    469              LibPutValue(SVT_TRIM_SOURCE,PROSystemData::TXUSystemData,Source);
   \                     ??SetTrimSource_5:
   \   00000064   ........           LDR      R0,??DataTable22  ;; ??TXUSystemData
   \   00000068   0030A0E3           MOV      R3,#+0
   \   0000006C   001090E5           LDR      R1,[R0, #+0]
   \   00000070   550EA0E3           MOV      R0,#+1360
   \   00000074   ........           _BLF     ??LibPutValue,??LibPutValue??rA
    470          }
   \   00000078   0040BDE8           POP      {LR}
   \   0000007C   1EFF2FE1           BX       LR               ;; return
   \                     ??SetTrimSource_2:
   \   00000080   000051E3           CMP      R1,#+0
   \   00000084   F6FFFF1A           BNE      ??SetTrimSource_5
   \   00000088   EEFFFFEA           B        ??SetTrimSource_3
    471          

   \                                 In segment CODE, align 4, keep-with-next
    472          void TDUSysWin2::SetListSource(int Index)
    473          {
    474              int Source = C_SD_MAN_SOURCE;
    475              if ( PROInclinometer::PROInclinPtr && PRODraftSystem::PRODraftSysPtr ) {
   \                     ??SetListSource:
   \   00000000   ........           LDR      R12,??DataTable20  ;; ??PROInclinPtr
   \   00000004   ........           LDR      R0,??DataTable21  ;; ??PRODraftSysPtr
   \   00000008   00402DE9           PUSH     {LR}
   \   0000000C   00C09CE5           LDR      R12,[R12, #+0]
   \   00000010   000090E5           LDR      R0,[R0, #+0]
   \   00000014   DA20A0E3           MOV      R2,#+218
   \   00000018   802D82E3           ORR      R2,R2,#0x2000
   \   0000001C   023082E2           ADD      R3,R2,#+2
   \   00000020   00005CE3           CMP      R12,#+0
   \   00000024   0900000A           BEQ      ??SetListSource_1
   \   00000028   01C082E3           ORR      R12,R2,#0x1
   \   0000002C   000050E3           CMP      R0,#+0
   \   00000030   1300000A           BEQ      ??SetListSource_2
    476                  switch ( Index ) {
   \   00000034   000051E3           CMP      R1,#+0
   \   00000038   0200000A           BEQ      ??SetListSource_3
   \   0000003C   011051E2           SUBS     R1,R1,#+1
   \   00000040   0600000A           BEQ      ??SetListSource_4
   \   00000044   060000EA           B        ??SetListSource_5
    477                  case 0:
    478                      Source = C_SD_INC_SOURCE;
   \                     ??SetListSource_3:
   \   00000048   0C20A0E1           MOV      R2,R12
   \   0000004C   040000EA           B        ??SetListSource_5
    479                      break;
    480                  case 1:
    481                      Source = C_SD_DRAFT_SOURCE;
    482                      break;
    483                  case 2:
    484                      Source = C_SD_MAN_SOURCE;
    485                      break;
    486                  }
    487              } else if ( PROInclinometer::PROInclinPtr ) {
    488                  switch ( Index ) {
    489                  case 0:
    490                      Source = C_SD_INC_SOURCE;
    491                      break;
    492                  case 1:
    493                      Source = C_SD_MAN_SOURCE;
    494                      break;
    495                  }
    496              } else if ( PRODraftSystem::PRODraftSysPtr ) {
   \                     ??SetListSource_1:
   \   00000050   000050E3           CMP      R0,#+0
   \   00000054   0200000A           BEQ      ??SetListSource_5
    497                  switch ( Index ) {
   \   00000058   000051E3           CMP      R1,#+0
   \   0000005C   0000001A           BNE      ??SetListSource_5
    498                  case 0:
    499                      Source = C_SD_DRAFT_SOURCE;
   \                     ??SetListSource_4:
   \   00000060   0320A0E1           MOV      R2,R3
    500                      break;
    501                  case 1:
    502                      Source = C_SD_MAN_SOURCE;
    503                      break;
    504                  }
    505              } else {
    506                  Source = C_SD_MAN_SOURCE;
    507              }
    508              LibPutValue(SVT_LIST_SOURCE,PROSystemData::TXUSystemData,Source);
   \                     ??SetListSource_5:
   \   00000064   ........           LDR      R0,??DataTable22  ;; ??TXUSystemData
   \   00000068   0030A0E3           MOV      R3,#+0
   \   0000006C   001090E5           LDR      R1,[R0, #+0]
   \   00000070   8700A0E3           MOV      R0,#+135
   \   00000074   500E80E3           ORR      R0,R0,#0x500
   \   00000078   ........           _BLF     ??LibPutValue,??LibPutValue??rA
    509          }
   \   0000007C   0040BDE8           POP      {LR}
   \   00000080   1EFF2FE1           BX       LR               ;; return
   \                     ??SetListSource_2:
   \   00000084   000051E3           CMP      R1,#+0
   \   00000088   F5FFFF1A           BNE      ??SetListSource_5
   \   0000008C   EDFFFFEA           B        ??SetListSource_3
    510          

   \                                 In segment CODE, align 4, keep-with-next
    511          void TDUSysWin2::UpdateSystem(WM_HWIN hWin,int Key)
    512          {
   \                     ??UpdateSystem:
   \   00000000   70402DE9           PUSH     {R4-R6,LR}
   \   00000004   1CD04DE2           SUB      SP,SP,#+28
   \   00000008   0040A0E1           MOV      R4,R0
   \   0000000C   0100A0E1           MOV      R0,R1
   \   00000010   0250A0E1           MOV      R5,R2
    513              WM_HWIN hDropDown;
    514              hDropDown = WM_GetDialogItem(hWin, Key);
   \   00000014   0510A0E1           MOV      R1,R5
   \   00000018   ........           _BLF     WM_GetDialogItem,??WM_GetDialogItem??rA
    515              switch ( Key ) {
   \   0000001C   815045E2           SUB      R5,R5,#+129
   \   00000020   405F45E2           SUB      R5,R5,#+256
   \   00000024   020055E3           CMP      R5,#+2
   \   00000028   2800008A           BHI      ??UpdateSystem_2
   \   0000002C   011F8FE2           ADR      R1,??UpdateSystem_1
   \   00000030   0510D1E7           LDRB     R1,[R1, R5]
   \   00000034   01F18FE0           ADD      PC,PC,R1, LSL #+2
   \                     ??UpdateSystem_1:
   \   00000038   001C2100           DC8      +0,+28,+33,+0
    516              case GUI_ID_DROPDOWN1:
    517                  {
    518                      if ( PROAtmReference::PROAtmRefPtr ) {
   \                     ??UpdateSystem_3:
   \   0000003C   ........           LDR      R5,??DataTable25  ;; ??PROAtmRefPtr
   \   00000040   001095E5           LDR      R1,[R5, #+0]
   \   00000044   000051E3           CMP      R1,#+0
   \   00000048   2000000A           BEQ      ??UpdateSystem_2
    519                          if ( DROPDOWN_GetSel(hDropDown)==0 ) {
   \   0000004C   4860A0E3           MOV      R6,#+72
   \   00000050   506E86E3           ORR      R6,R6,#0x500
   \   00000054   ........           _BLF     DROPDOWN_GetSel,??DROPDOWN_GetSel??rA
   \   00000058   000050E3           CMP      R0,#+0
   \   0000005C   0C00001A           BNE      ??UpdateSystem_4
    520                              LibPutValue(SVT_ATM_P_ENABLE, PROAtmReference::PROAtmRefPtr,"1");
   \   00000060   ........           ADR      R1,??DataTable23  ;; "1"
   \   00000064   0D00A0E1           MOV      R0,SP
   \   00000068   ........           _BLF     ??AnsiString_1,??AnsiString??rA_1
   \   0000006C   0020A0E1           MOV      R2,R0
   \   00000070   0030A0E3           MOV      R3,#+0
   \                     ??UpdateSystem_5:
   \   00000074   001095E5           LDR      R1,[R5, #+0]
   \   00000078   0600A0E1           MOV      R0,R6
   \   0000007C   ........           _BLF     ??LibPutValue_1,??LibPutValue??rA_1
   \   00000080   0020A0E3           MOV      R2,#+0
   \   00000084   0110A0E3           MOV      R1,#+1
   \   00000088   0D00A0E1           MOV      R0,SP
   \   0000008C   ........           _BLF     ??_Tidy,??_Tidy??rA
   \   00000090   0E0000EA           B        ??UpdateSystem_2
    521                          } else {
    522                              LibPutValue(SVT_ATM_P_ENABLE, PROAtmReference::PROAtmRefPtr,"0");
   \                     ??UpdateSystem_4:
   \   00000094   ........           ADR      R1,??DataTable24  ;; "0"
   \   00000098   0D00A0E1           MOV      R0,SP
   \   0000009C   ........           _BLF     ??AnsiString_1,??AnsiString??rA_1
   \   000000A0   0030A0E3           MOV      R3,#+0
   \   000000A4   0020A0E1           MOV      R2,R0
   \   000000A8   F1FFFFEA           B        ??UpdateSystem_5
    523                          }
    524                      } else {
    525                      }
    526                  }
    527                  break;
    528              case GUI_ID_DROPDOWN2:
    529                  SetTrimSource(DROPDOWN_GetSel(hDropDown));
   \                     ??UpdateSystem_6:
   \   000000AC   ........           _BLF     DROPDOWN_GetSel,??DROPDOWN_GetSel??rA
   \   000000B0   0010A0E1           MOV      R1,R0
   \   000000B4   0400A0E1           MOV      R0,R4
   \   000000B8   ........           BL       ??SetTrimSource
   \   000000BC   030000EA           B        ??UpdateSystem_2
    530                  break;
    531              case GUI_ID_DROPDOWN3:
    532                  SetListSource(DROPDOWN_GetSel(hDropDown));
   \                     ??UpdateSystem_7:
   \   000000C0   ........           _BLF     DROPDOWN_GetSel,??DROPDOWN_GetSel??rA
   \   000000C4   0010A0E1           MOV      R1,R0
   \   000000C8   0400A0E1           MOV      R0,R4
   \   000000CC   ........           BL       ??SetListSource
    533                  break;
    534              }
    535              UpdateSysWin();
   \                     ??UpdateSystem_2:
   \   000000D0   0400A0E1           MOV      R0,R4
   \   000000D4   ........           BL       ??UpdateSysWin
    536          }
   \   000000D8   1CD08DE2           ADD      SP,SP,#+28
   \   000000DC   7040BDE8           POP      {R4-R6,LR}
   \   000000E0   1EFF2FE1           BX       LR               ;; return
    537          

   \                                 In segment CODE, align 4, keep-with-next
    538          void TDUSysWin2::cbSysWin(WM_MESSAGE *pMsg)
    539          {
   \                     ??cbSysWin:
   \   00000000   F0472DE9           PUSH     {R4-R10,LR}
    540              int NCode, Id;
    541              WM_HWIN hWin = pMsg->hWin;
    542              switch ( pMsg->MsgId ) {
   \   00000004   88A99FE5           LDR      R10,??cbSysWin_7  ;; SystemWindow
   \   00000008   E8D04DE2           SUB      SP,SP,#+232
   \   0000000C   00309AE5           LDR      R3,[R10, #+0]
   \   00000010   80599FE5           LDR      R5,??cbSysWin_7+0x4  ;; `?<Constant "">`
   \   00000014   80499FE5           LDR      R4,??cbSysWin_7+0x8  ;; KeyBoard
   \   00000018   80699FE5           LDR      R6,??cbSysWin_7+0xC  ;; ??PRODraftSysPtr
   \   0000001C   0090A0E1           MOV      R9,R0
   \   00000020   00C099E5           LDR      R12,[R9, #+0]
   \   00000024   F470D9E1           LDRSH    R7,[R9, #+4]
   \   00000028   5C0093E5           LDR      R0,[R3, #+92]
   \   0000002C   F620D9E1           LDRSH    R2,[R9, #+6]
   \   00000030   0180A0E3           MOV      R8,#+1
   \   00000034   0BC04CE2           SUB      R12,R12,#+11
   \   00000038   40EE88E3           ORR      LR,R8,#0x400
   \   0000003C   0E005CE1           CMP      R12,LR
   \   00000040   DD0C008A           BHI      ??cbSysWin_8
   \   00000044   02EF8FE2           ADR      LR,??cbSysWin_1
   \   00000048   8CC0A0E1           MOV      R12,R12, LSL #+1
   \   0000004C   BCE09EE1           LDRH     LR,[LR, R12]
   \   00000050   0EF18FE0           ADD      PC,PC,LR, LSL #+2
   \                     ??cbSysWin_1:
   \   00000054   0002D90C7D07       DC16     +512,+3289,+1917,+540
   \              1C02        
   \   0000005C   0202D90CD90C       DC16     +514,+3289,+3289,+3289
   \              D90C        
   \   00000064   D90CD90CD90C       DC16     +3289,+3289,+3289,+3289
   \              D90C        
   \   0000006C   D90CD90CD90C       DC16     +3289,+3289,+3289,+3289
   \              D90C        
   \   00000074   D90CD90C1A02       DC16     +3289,+3289,+538,+3289
   \              D90C        
   \   0000007C   D90CD90CD90C       DC16     +3289,+3289,+3289,+3289
   \              D90C        
   \   00000084   D90CD90CD90C       DC16     +3289,+3289,+3289,+3184
   \              700C        
   \   0000008C   D90CD90CD90C       DC16     +3289,+3289,+3289,+3289
   \              D90C        
   \   00000094   D90CD90CD90C       DC16     +3289,+3289,+3289,+3289
   \              D90C        
   \   0000009C   D90CD90CD90C       DC16     +3289,+3289,+3289,+3289
   \              D90C        
   \   000000A4   D90CD90CD90C       DC16     +3289,+3289,+3289,+3289
   \              D90C        
   \   000000AC   D90CD90CD90C       DC16     +3289,+3289,+3289,+3289
   \              D90C        
   \   000000B4   D90CD90CD90C       DC16     +3289,+3289,+3289,+3289
   \              D90C        
   \   000000BC   D90CD90CD90C       DC16     +3289,+3289,+3289,+3289
   \              D90C        
   \   000000C4   D90CD90CD90C       DC16     +3289,+3289,+3289,+3289
   \              D90C        
   \   000000CC   D90CD90CD90C       DC16     +3289,+3289,+3289,+3289
   \              D90C        
   \   000000D4   D90CD90CD90C       DC16     +3289,+3289,+3289,+3289
   \              D90C        
   \   000000DC   D90CD90CD90C       DC16     +3289,+3289,+3289,+3289
   \              D90C        
   \   000000E4   D90CD90CD90C       DC16     +3289,+3289,+3289,+3289
   \              D90C        
   \   000000EC   D90CD90CD90C       DC16     +3289,+3289,+3289,+3289
   \              D90C        
   \   000000F4   D90CD90CD90C       DC16     +3289,+3289,+3289,+3289
   \              D90C        
   \   000000FC   D90CD90CD90C       DC16     +3289,+3289,+3289,+3289
   \              D90C        
   \   00000104   D90CD90CD90C       DC16     +3289,+3289,+3289,+3289
   \              D90C        
   \   0000010C   D90CD90CD90C       DC16     +3289,+3289,+3289,+3289
   \              D90C        
   \   00000114   D90CD90CD90C       DC16     +3289,+3289,+3289,+3289
   \              D90C        
   \   0000011C   D90CD90CD90C       DC16     +3289,+3289,+3289,+3289
   \              D90C        
   \   00000124   D90CD90CD90C       DC16     +3289,+3289,+3289,+3289
   \              D90C        
   \   0000012C   D90CD90CD90C       DC16     +3289,+3289,+3289,+3289
   \              D90C        
   \   00000134   D90CD90CD90C       DC16     +3289,+3289,+3289,+3289
   \              D90C        
   \   0000013C   D90CD90CD90C       DC16     +3289,+3289,+3289,+3289
   \              D90C        
   \   00000144   D90CD90CD90C       DC16     +3289,+3289,+3289,+3289
   \              D90C        
   \   0000014C   D90CD90CD90C       DC16     +3289,+3289,+3289,+3289
   \              D90C        
   \   00000154   D90CD90CD90C       DC16     +3289,+3289,+3289,+3289
   \              D90C        
   \   0000015C   D90CD90CD90C       DC16     +3289,+3289,+3289,+3289
   \              D90C        
   \   00000164   D90CD90CD90C       DC16     +3289,+3289,+3289,+3289
   \              D90C        
   \   0000016C   D90CD90CD90C       DC16     +3289,+3289,+3289,+3289
   \              D90C        
   \   00000174   D90CD90CD90C       DC16     +3289,+3289,+3289,+3289
   \              D90C        
   \   0000017C   D90CD90CD90C       DC16     +3289,+3289,+3289,+3289
   \              D90C        
   \   00000184   D90CD90CD90C       DC16     +3289,+3289,+3289,+3289
   \              D90C        
   \   0000018C   D90CD90CD90C       DC16     +3289,+3289,+3289,+3289
   \              D90C        
   \   00000194   D90CD90CD90C       DC16     +3289,+3289,+3289,+3289
   \              D90C        
   \   0000019C   D90CD90CD90C       DC16     +3289,+3289,+3289,+3289
   \              D90C        
   \   000001A4   D90CD90CD90C       DC16     +3289,+3289,+3289,+3289
   \              D90C        
   \   000001AC   D90CD90CD90C       DC16     +3289,+3289,+3289,+3289
   \              D90C        
   \   000001B4   D90CD90CD90C       DC16     +3289,+3289,+3289,+3289
   \              D90C        
   \   000001BC   D90CD90CD90C       DC16     +3289,+3289,+3289,+3289
   \              D90C        
   \   000001C4   D90CD90CD90C       DC16     +3289,+3289,+3289,+3289
   \              D90C        
   \   000001CC   D90CD90CD90C       DC16     +3289,+3289,+3289,+3289
   \              D90C        
   \   000001D4   D90CD90CD90C       DC16     +3289,+3289,+3289,+3289
   \              D90C        
   \   000001DC   D90CD90CD90C       DC16     +3289,+3289,+3289,+3289
   \              D90C        
   \   000001E4   D90CD90CD90C       DC16     +3289,+3289,+3289,+3289
   \              D90C        
   \   000001EC   D90CD90CD90C       DC16     +3289,+3289,+3289,+3289
   \              D90C        
   \   000001F4   D90CD90CD90C       DC16     +3289,+3289,+3289,+3289
   \              D90C        
   \   000001FC   D90CD90CD90C       DC16     +3289,+3289,+3289,+3289
   \              D90C        
   \   00000204   D90CD90CD90C       DC16     +3289,+3289,+3289,+3289
   \              D90C        
   \   0000020C   D90CD90CD90C       DC16     +3289,+3289,+3289,+3289
   \              D90C        
   \   00000214   D90CD90CD90C       DC16     +3289,+3289,+3289,+3289
   \              D90C        
   \   0000021C   D90CD90CD90C       DC16     +3289,+3289,+3289,+3289
   \              D90C        
   \   00000224   D90CD90CD90C       DC16     +3289,+3289,+3289,+3289
   \              D90C        
   \   0000022C   D90CD90CD90C       DC16     +3289,+3289,+3289,+3289
   \              D90C        
   \   00000234   D90CD90CD90C       DC16     +3289,+3289,+3289,+3289
   \              D90C        
   \   0000023C   D90CD90CD90C       DC16     +3289,+3289,+3289,+3289
   \              D90C        
   \   00000244   D90CD90CD90C       DC16     +3289,+3289,+3289,+3289
   \              D90C        
   \   0000024C   D90CD90CD90C       DC16     +3289,+3289,+3289,+3289
   \              D90C        
   \   00000254   D90CD90CD90C       DC16     +3289,+3289,+3289,+3289
   \              D90C        
   \   0000025C   D90CD90CD90C       DC16     +3289,+3289,+3289,+3289
   \              D90C        
   \   00000264   D90CD90CD90C       DC16     +3289,+3289,+3289,+3289
   \              D90C        
   \   0000026C   D90CD90CD90C       DC16     +3289,+3289,+3289,+3289
   \              D90C        
   \   00000274   D90CD90CD90C       DC16     +3289,+3289,+3289,+3289
   \              D90C        
   \   0000027C   D90CD90CD90C       DC16     +3289,+3289,+3289,+3289
   \              D90C        
   \   00000284   D90CD90CD90C       DC16     +3289,+3289,+3289,+3289
   \              D90C        
   \   0000028C   D90CD90CD90C       DC16     +3289,+3289,+3289,+3289
   \              D90C        
   \   00000294   D90CD90CD90C       DC16     +3289,+3289,+3289,+3289
   \              D90C        
   \   0000029C   D90CD90CD90C       DC16     +3289,+3289,+3289,+3289
   \              D90C        
   \   000002A4   D90CD90CD90C       DC16     +3289,+3289,+3289,+3289
   \              D90C        
   \   000002AC   D90CD90CD90C       DC16     +3289,+3289,+3289,+3289
   \              D90C        
   \   000002B4   D90CD90CD90C       DC16     +3289,+3289,+3289,+3289
   \              D90C        
   \   000002BC   D90CD90CD90C       DC16     +3289,+3289,+3289,+3289
   \              D90C        
   \   000002C4   D90CD90CD90C       DC16     +3289,+3289,+3289,+3289
   \              D90C        
   \   000002CC   D90CD90CD90C       DC16     +3289,+3289,+3289,+3289
   \              D90C        
   \   000002D4   D90CD90CD90C       DC16     +3289,+3289,+3289,+3289
   \              D90C        
   \   000002DC   D90CD90CD90C       DC16     +3289,+3289,+3289,+3289
   \              D90C        
   \   000002E4   D90CD90CD90C       DC16     +3289,+3289,+3289,+3289
   \              D90C        
   \   000002EC   D90CD90CD90C       DC16     +3289,+3289,+3289,+3289
   \              D90C        
   \   000002F4   D90CD90CD90C       DC16     +3289,+3289,+3289,+3289
   \              D90C        
   \   000002FC   D90CD90CD90C       DC16     +3289,+3289,+3289,+3289
   \              D90C        
   \   00000304   D90CD90CD90C       DC16     +3289,+3289,+3289,+3289
   \              D90C        
   \   0000030C   D90CD90CD90C       DC16     +3289,+3289,+3289,+3289
   \              D90C        
   \   00000314   D90CD90CD90C       DC16     +3289,+3289,+3289,+3289
   \              D90C        
   \   0000031C   D90CD90CD90C       DC16     +3289,+3289,+3289,+3289
   \              D90C        
   \   00000324   D90CD90CD90C       DC16     +3289,+3289,+3289,+3289
   \              D90C        
   \   0000032C   D90CD90CD90C       DC16     +3289,+3289,+3289,+3289
   \              D90C        
   \   00000334   D90CD90CD90C       DC16     +3289,+3289,+3289,+3289
   \              D90C        
   \   0000033C   D90CD90CD90C       DC16     +3289,+3289,+3289,+3289
   \              D90C        
   \   00000344   D90CD90CD90C       DC16     +3289,+3289,+3289,+3289
   \              D90C        
   \   0000034C   D90CD90CD90C       DC16     +3289,+3289,+3289,+3289
   \              D90C        
   \   00000354   D90CD90CD90C       DC16     +3289,+3289,+3289,+3289
   \              D90C        
   \   0000035C   D90CD90CD90C       DC16     +3289,+3289,+3289,+3289
   \              D90C        
   \   00000364   D90CD90CD90C       DC16     +3289,+3289,+3289,+3289
   \              D90C        
   \   0000036C   D90CD90CD90C       DC16     +3289,+3289,+3289,+3289
   \              D90C        
   \   00000374   D90CD90CD90C       DC16     +3289,+3289,+3289,+3289
   \              D90C        
   \   0000037C   D90CD90CD90C       DC16     +3289,+3289,+3289,+3289
   \              D90C        
   \   00000384   D90CD90CD90C       DC16     +3289,+3289,+3289,+3289
   \              D90C        
   \   0000038C   D90CD90CD90C       DC16     +3289,+3289,+3289,+3289
   \              D90C        
   \   00000394   D90CD90CD90C       DC16     +3289,+3289,+3289,+3289
   \              D90C        
   \   0000039C   D90CD90CD90C       DC16     +3289,+3289,+3289,+3289
   \              D90C        
   \   000003A4   D90CD90CD90C       DC16     +3289,+3289,+3289,+3289
   \              D90C        
   \   000003AC   D90CD90CD90C       DC16     +3289,+3289,+3289,+3289
   \              D90C        
   \   000003B4   D90CD90CD90C       DC16     +3289,+3289,+3289,+3289
   \              D90C        
   \   000003BC   D90CD90CD90C       DC16     +3289,+3289,+3289,+3289
   \              D90C        
   \   000003C4   D90CD90CD90C       DC16     +3289,+3289,+3289,+3289
   \              D90C        
   \   000003CC   D90CD90CD90C       DC16     +3289,+3289,+3289,+3289
   \              D90C        
   \   000003D4   D90CD90CD90C       DC16     +3289,+3289,+3289,+3289
   \              D90C        
   \   000003DC   D90CD90CD90C       DC16     +3289,+3289,+3289,+3289
   \              D90C        
   \   000003E4   D90CD90CD90C       DC16     +3289,+3289,+3289,+3289
   \              D90C        
   \   000003EC   D90CD90CD90C       DC16     +3289,+3289,+3289,+3289
   \              D90C        
   \   000003F4   D90CD90CD90C       DC16     +3289,+3289,+3289,+3289
   \              D90C        
   \   000003FC   D90CD90CD90C       DC16     +3289,+3289,+3289,+3289
   \              D90C        
   \   00000404   D90CD90CD90C       DC16     +3289,+3289,+3289,+3289
   \              D90C        
   \   0000040C   D90CD90CD90C       DC16     +3289,+3289,+3289,+3289
   \              D90C        
   \   00000414   D90CD90CD90C       DC16     +3289,+3289,+3289,+3289
   \              D90C        
   \   0000041C   D90CD90CD90C       DC16     +3289,+3289,+3289,+3289
   \              D90C        
   \   00000424   D90CD90CD90C       DC16     +3289,+3289,+3289,+3289
   \              D90C        
   \   0000042C   D90CD90CD90C       DC16     +3289,+3289,+3289,+3289
   \              D90C        
   \   00000434   D90CD90CD90C       DC16     +3289,+3289,+3289,+3289
   \              D90C        
   \   0000043C   D90CD90CD90C       DC16     +3289,+3289,+3289,+3289
   \              D90C        
   \   00000444   D90CD90CD90C       DC16     +3289,+3289,+3289,+3289
   \              D90C        
   \   0000044C   D90CD90CD90C       DC16     +3289,+3289,+3289,+3289
   \              D90C        
   \   00000454   D90CD90CD90C       DC16     +3289,+3289,+3289,+3289
   \              D90C        
   \   0000045C   D90CD90CD90C       DC16     +3289,+3289,+3289,+3289
   \              D90C        
   \   00000464   D90CD90CD90C       DC16     +3289,+3289,+3289,+3289
   \              D90C        
   \   0000046C   D90CD90CD90C       DC16     +3289,+3289,+3289,+3289
   \              D90C        
   \   00000474   D90CD90CD90C       DC16     +3289,+3289,+3289,+3289
   \              D90C        
   \   0000047C   D90CD90CD90C       DC16     +3289,+3289,+3289,+3289
   \              D90C        
   \   00000484   D90CD90CD90C       DC16     +3289,+3289,+3289,+3289
   \              D90C        
   \   0000048C   D90CD90CD90C       DC16     +3289,+3289,+3289,+3289
   \              D90C        
   \   00000494   D90CD90CD90C       DC16     +3289,+3289,+3289,+3289
   \              D90C        
   \   0000049C   D90CD90CD90C       DC16     +3289,+3289,+3289,+3289
   \              D90C        
   \   000004A4   D90CD90CD90C       DC16     +3289,+3289,+3289,+3289
   \              D90C        
   \   000004AC   D90CD90CD90C       DC16     +3289,+3289,+3289,+3289
   \              D90C        
   \   000004B4   D90CD90CD90C       DC16     +3289,+3289,+3289,+3289
   \              D90C        
   \   000004BC   D90CD90CD90C       DC16     +3289,+3289,+3289,+3289
   \              D90C        
   \   000004C4   D90CD90CD90C       DC16     +3289,+3289,+3289,+3289
   \              D90C        
   \   000004CC   D90CD90CD90C       DC16     +3289,+3289,+3289,+3289
   \              D90C        
   \   000004D4   D90CD90CD90C       DC16     +3289,+3289,+3289,+3289
   \              D90C        
   \   000004DC   D90CD90CD90C       DC16     +3289,+3289,+3289,+3289
   \              D90C        
   \   000004E4   D90CD90CD90C       DC16     +3289,+3289,+3289,+3289
   \              D90C        
   \   000004EC   D90CD90CD90C       DC16     +3289,+3289,+3289,+3289
   \              D90C        
   \   000004F4   D90CD90CD90C       DC16     +3289,+3289,+3289,+3289
   \              D90C        
   \   000004FC   D90CD90CD90C       DC16     +3289,+3289,+3289,+3289
   \              D90C        
   \   00000504   D90CD90CD90C       DC16     +3289,+3289,+3289,+3289
   \              D90C        
   \   0000050C   D90CD90CD90C       DC16     +3289,+3289,+3289,+3289
   \              D90C        
   \   00000514   D90CD90CD90C       DC16     +3289,+3289,+3289,+3289
   \              D90C        
   \   0000051C   D90CD90CD90C       DC16     +3289,+3289,+3289,+3289
   \              D90C        
   \   00000524   D90CD90CD90C       DC16     +3289,+3289,+3289,+3289
   \              D90C        
   \   0000052C   D90CD90CD90C       DC16     +3289,+3289,+3289,+3289
   \              D90C        
   \   00000534   D90CD90CD90C       DC16     +3289,+3289,+3289,+3289
   \              D90C        
   \   0000053C   D90CD90CD90C       DC16     +3289,+3289,+3289,+3289
   \              D90C        
   \   00000544   D90CD90CD90C       DC16     +3289,+3289,+3289,+3289
   \              D90C        
   \   0000054C   D90CD90CD90C       DC16     +3289,+3289,+3289,+3289
   \              D90C        
   \   00000554   D90CD90CD90C       DC16     +3289,+3289,+3289,+3289
   \              D90C        
   \   0000055C   D90CD90CD90C       DC16     +3289,+3289,+3289,+3289
   \              D90C        
   \   00000564   D90CD90CD90C       DC16     +3289,+3289,+3289,+3289
   \              D90C        
   \   0000056C   D90CD90CD90C       DC16     +3289,+3289,+3289,+3289
   \              D90C        
   \   00000574   D90CD90CD90C       DC16     +3289,+3289,+3289,+3289
   \              D90C        
   \   0000057C   D90CD90CD90C       DC16     +3289,+3289,+3289,+3289
   \              D90C        
   \   00000584   D90CD90CD90C       DC16     +3289,+3289,+3289,+3289
   \              D90C        
   \   0000058C   D90CD90CD90C       DC16     +3289,+3289,+3289,+3289
   \              D90C        
   \   00000594   D90CD90CD90C       DC16     +3289,+3289,+3289,+3289
   \              D90C        
   \   0000059C   D90CD90CD90C       DC16     +3289,+3289,+3289,+3289
   \              D90C        
   \   000005A4   D90CD90CD90C       DC16     +3289,+3289,+3289,+3289
   \              D90C        
   \   000005AC   D90CD90CD90C       DC16     +3289,+3289,+3289,+3289
   \              D90C        
   \   000005B4   D90CD90CD90C       DC16     +3289,+3289,+3289,+3289
   \              D90C        
   \   000005BC   D90CD90CD90C       DC16     +3289,+3289,+3289,+3289
   \              D90C        
   \   000005C4   D90CD90CD90C       DC16     +3289,+3289,+3289,+3289
   \              D90C        
   \   000005CC   D90CD90CD90C       DC16     +3289,+3289,+3289,+3289
   \              D90C        
   \   000005D4   D90CD90CD90C       DC16     +3289,+3289,+3289,+3289
   \              D90C        
   \   000005DC   D90CD90CD90C       DC16     +3289,+3289,+3289,+3289
   \              D90C        
   \   000005E4   D90CD90CD90C       DC16     +3289,+3289,+3289,+3289
   \              D90C        
   \   000005EC   D90CD90CD90C       DC16     +3289,+3289,+3289,+3289
   \              D90C        
   \   000005F4   D90CD90CD90C       DC16     +3289,+3289,+3289,+3289
   \              D90C        
   \   000005FC   D90CD90CD90C       DC16     +3289,+3289,+3289,+3289
   \              D90C        
   \   00000604   D90CD90CD90C       DC16     +3289,+3289,+3289,+3289
   \              D90C        
   \   0000060C   D90CD90CD90C       DC16     +3289,+3289,+3289,+3289
   \              D90C        
   \   00000614   D90CD90CD90C       DC16     +3289,+3289,+3289,+3289
   \              D90C        
   \   0000061C   D90CD90CD90C       DC16     +3289,+3289,+3289,+3289
   \              D90C        
   \   00000624   D90CD90CD90C       DC16     +3289,+3289,+3289,+3289
   \              D90C        
   \   0000062C   D90CD90CD90C       DC16     +3289,+3289,+3289,+3289
   \              D90C        
   \   00000634   D90CD90CD90C       DC16     +3289,+3289,+3289,+3289
   \              D90C        
   \   0000063C   D90CD90CD90C       DC16     +3289,+3289,+3289,+3289
   \              D90C        
   \   00000644   D90CD90CD90C       DC16     +3289,+3289,+3289,+3289
   \              D90C        
   \   0000064C   D90CD90CD90C       DC16     +3289,+3289,+3289,+3289
   \              D90C        
   \   00000654   D90CD90CD90C       DC16     +3289,+3289,+3289,+3289
   \              D90C        
   \   0000065C   D90CD90CD90C       DC16     +3289,+3289,+3289,+3289
   \              D90C        
   \   00000664   D90CD90CD90C       DC16     +3289,+3289,+3289,+3289
   \              D90C        
   \   0000066C   D90CD90CD90C       DC16     +3289,+3289,+3289,+3289
   \              D90C        
   \   00000674   D90CD90CD90C       DC16     +3289,+3289,+3289,+3289
   \              D90C        
   \   0000067C   D90CD90CD90C       DC16     +3289,+3289,+3289,+3289
   \              D90C        
   \   00000684   D90CD90CD90C       DC16     +3289,+3289,+3289,+3289
   \              D90C        
   \   0000068C   D90CD90CD90C       DC16     +3289,+3289,+3289,+3289
   \              D90C        
   \   00000694   D90CD90CD90C       DC16     +3289,+3289,+3289,+3289
   \              D90C        
   \   0000069C   D90CD90CD90C       DC16     +3289,+3289,+3289,+3289
   \              D90C        
   \   000006A4   D90CD90CD90C       DC16     +3289,+3289,+3289,+3289
   \              D90C        
   \   000006AC   D90CD90CD90C       DC16     +3289,+3289,+3289,+3289
   \              D90C        
   \   000006B4   D90CD90CD90C       DC16     +3289,+3289,+3289,+3289
   \              D90C        
   \   000006BC   D90CD90CD90C       DC16     +3289,+3289,+3289,+3289
   \              D90C        
   \   000006C4   D90CD90CD90C       DC16     +3289,+3289,+3289,+3289
   \              D90C        
   \   000006CC   D90CD90CD90C       DC16     +3289,+3289,+3289,+3289
   \              D90C        
   \   000006D4   D90CD90CD90C       DC16     +3289,+3289,+3289,+3289
   \              D90C        
   \   000006DC   D90CD90CD90C       DC16     +3289,+3289,+3289,+3289
   \              D90C        
   \   000006E4   D90CD90CD90C       DC16     +3289,+3289,+3289,+3289
   \              D90C        
   \   000006EC   D90CD90CD90C       DC16     +3289,+3289,+3289,+3289
   \              D90C        
   \   000006F4   D90CD90CD90C       DC16     +3289,+3289,+3289,+3289
   \              D90C        
   \   000006FC   D90CD90CD90C       DC16     +3289,+3289,+3289,+3289
   \              D90C        
   \   00000704   D90CD90CD90C       DC16     +3289,+3289,+3289,+3289
   \              D90C        
   \   0000070C   D90CD90CD90C       DC16     +3289,+3289,+3289,+3289
   \              D90C        
   \   00000714   D90CD90CD90C       DC16     +3289,+3289,+3289,+3289
   \              D90C        
   \   0000071C   D90CD90CD90C       DC16     +3289,+3289,+3289,+3289
   \              D90C        
   \   00000724   D90CD90CD90C       DC16     +3289,+3289,+3289,+3289
   \              D90C        
   \   0000072C   D90CD90CD90C       DC16     +3289,+3289,+3289,+3289
   \              D90C        
   \   00000734   D90CD90CD90C       DC16     +3289,+3289,+3289,+3289
   \              D90C        
   \   0000073C   D90CD90CD90C       DC16     +3289,+3289,+3289,+3289
   \              D90C        
   \   00000744   D90CD90CD90C       DC16     +3289,+3289,+3289,+3289
   \              D90C        
   \   0000074C   D90CD90CD90C       DC16     +3289,+3289,+3289,+3289
   \              D90C        
   \   00000754   D90CD90CD90C       DC16     +3289,+3289,+3289,+3289
   \              D90C        
   \   0000075C   D90CD90CD90C       DC16     +3289,+3289,+3289,+3289
   \              D90C        
   \   00000764   D90CD90CD90C       DC16     +3289,+3289,+3289,+3289
   \              D90C        
   \   0000076C   D90CD90CD90C       DC16     +3289,+3289,+3289,+3289
   \              D90C        
   \   00000774   D90CD90CD90C       DC16     +3289,+3289,+3289,+3289
   \              D90C        
   \   0000077C   D90CD90CD90C       DC16     +3289,+3289,+3289,+3289
   \              D90C        
   \   00000784   D90CD90CD90C       DC16     +3289,+3289,+3289,+3289
   \              D90C        
   \   0000078C   D90CD90CD90C       DC16     +3289,+3289,+3289,+3289
   \              D90C        
   \   00000794   D90CD90CD90C       DC16     +3289,+3289,+3289,+3289
   \              D90C        
   \   0000079C   D90CD90CD90C       DC16     +3289,+3289,+3289,+3289
   \              D90C        
   \   000007A4   D90CD90CD90C       DC16     +3289,+3289,+3289,+3289
   \              D90C        
   \   000007AC   D90CD90CD90C       DC16     +3289,+3289,+3289,+3289
   \              D90C        
   \   000007B4   D90CD90CD90C       DC16     +3289,+3289,+3289,+3289
   \              D90C        
   \   000007BC   D90CD90CD90C       DC16     +3289,+3289,+3289,+3289
   \              D90C        
   \   000007C4   D90CD90CD90C       DC16     +3289,+3289,+3289,+3289
   \              D90C        
   \   000007CC   D90CD90CD90C       DC16     +3289,+3289,+3289,+3289
   \              D90C        
   \   000007D4   D90CD90CD90C       DC16     +3289,+3289,+3289,+3289
   \              D90C        
   \   000007DC   D90CD90CD90C       DC16     +3289,+3289,+3289,+3289
   \              D90C        
   \   000007E4   D90CD90CD90C       DC16     +3289,+3289,+3289,+3289
   \              D90C        
   \   000007EC   D90CD90CD90C       DC16     +3289,+3289,+3289,+3289
   \              D90C        
   \   000007F4   D90CD90CD90C       DC16     +3289,+3289,+3289,+3289
   \              D90C        
   \   000007FC   D90CD90CD90C       DC16     +3289,+3289,+3289,+3289
   \              D90C        
   \   00000804   D90CD90CD90C       DC16     +3289,+3289,+3289,+3289
   \              D90C        
   \   0000080C   D90CD90CD90C       DC16     +3289,+3289,+3289,+3289
   \              D90C        
   \   00000814   D90CD90CD90C       DC16     +3289,+3289,+3289,+3289
   \              D90C        
   \   0000081C   D90CD90CD90C       DC16     +3289,+3289,+3289,+3289
   \              D90C        
   \   00000824   D90CD90CD90C       DC16     +3289,+3289,+3289,+3289
   \              D90C        
   \   0000082C   D90CD90CD90C       DC16     +3289,+3289,+3289,+3289
   \              D90C        
   \   00000834   D90CD90CD90C       DC16     +3289,+3289,+3289,+3289
   \              D90C        
   \   0000083C   D90CD90C1802       DC16     +3289,+3289,+536,+3289
   \              D90C        
   \   00000844   D90CD90CD90C       DC16     +3289,+3289,+3289,+3289
   \              D90C        
   \   0000084C   D90CD90CD90C       DC16     +3289,+3289,+3289,+3289
   \              D90C        
   \   00000854   55022802           DC16     +597,+552
    543              case WM_DELETE:
    544                  SystemWindow->SysWin2IsClosed = true;
   \                     ??cbSysWin_9:
   \   00000858   7180C3E5           STRB     R8,[R3, #+113]
   \   0000085C   4F0A00EA           B        ??cbSysWin_10
    545                  break;
    546              case WM_PAINT:
    547                  switch (PROProjectInfo::ProjectType) {
   \                     ??cbSysWin_11:
   \   00000860   3C019FE5           LDR      R0,??cbSysWin_7+0x10  ;; ??ProjectType
   \   00000864   000090E5           LDR      R0,[R0, #+0]
   \   00000868   010050E3           CMP      R0,#+1
   \   0000086C   4B0A008A           BHI      ??cbSysWin_10
    548                  case 0:
    549                  case 1:
    550                      {
    551                          GUI_DrawPolyLine(ShipLine, GUI_COUNTOF(ShipLine), 2, 74);
   \   00000870   4A30A0E3           MOV      R3,#+74
   \   00000874   0220A0E3           MOV      R2,#+2
   \   00000878   0610A0E3           MOV      R1,#+6
   \   0000087C   500085E2           ADD      R0,R5,#+80
   \   00000880   ........           _BLF     GUI_DrawPolyLine,??GUI_DrawPolyLine??rA
    552                          int CurColor = GUI_GetColor();
   \   00000884   ........           _BLF     GUI_GetColor,??GUI_GetColor??rA
   \   00000888   0040A0E1           MOV      R4,R0
    553                          GUI_SetColor(GUI_DARKGRAY);
   \   0000088C   14019FE5           LDR      R0,??cbSysWin_7+0x14  ;; 0x404040
   \   00000890   ........           _BLF     GUI_SetColor,??GUI_SetColor??rA
    554                          GUI_DrawPolyLine(DraftLine, GUI_COUNTOF(DraftLine), 66, 100);
   \   00000894   6430A0E3           MOV      R3,#+100
   \   00000898   4220A0E3           MOV      R2,#+66
   \   0000089C   0810A0E3           MOV      R1,#+8
   \   000008A0   680085E2           ADD      R0,R5,#+104
   \   000008A4   ........           _BLF     GUI_DrawPolyLine,??GUI_DrawPolyLine??rA
    555                          GUI_SetColor(CurColor);
   \   000008A8   0400A0E1           MOV      R0,R4
   \   000008AC   ........           _BLF     GUI_SetColor,??GUI_SetColor??rA
    556                          SystemWindow->SysWin2->UpdateLanguage();
   \   000008B0   00009AE5           LDR      R0,[R10, #+0]
   \   000008B4   5C0090E5           LDR      R0,[R0, #+92]
   \                     ??cbSysWin_12:
   \   000008B8   ........           _BLF     ??UpdateLanguage,??UpdateLanguage??rA
   \   000008BC   370A00EA           B        ??cbSysWin_10
    557                      }
    558                      break;
    559                  case 2:
    560                      break;
    561                  }
    562                  break;
    563              case MESSAGE_LANGUAGE_CHANGE:
    564                  SystemWindow->SysWin2->UpdateLanguage();
    565                  break;
    566              case WM_INIT_DIALOG:
    567                  SystemWindow->SysWin2->FirstTime = true;
   \                     ??cbSysWin_13:
   \   000008C0   2880C0E5           STRB     R8,[R0, #+40]
   \   000008C4   350A00EA           B        ??cbSysWin_10
    568                  break;
    569              case WM_KEY:
    570                  switch ( ((WM_KEY_INFO*)(pMsg->Data.p))->Key ) {
   \                     ??cbSysWin_14:
   \   000008C8   080099E5           LDR      R0,[R9, #+8]
   \   000008CC   000090E5           LDR      R0,[R0, #+0]
   \   000008D0   0D0050E2           SUBS     R0,R0,#+13
   \   000008D4   0500000A           BEQ      ??cbSysWin_15
   \   000008D8   0E0050E2           SUBS     R0,R0,#+14
   \   000008DC   2F0A001A           BNE      ??cbSysWin_10
    571                  case GUI_KEY_ESCAPE:
    572                      GUI_EndDialog(hWin, 1);
   \   000008E0   0110A0E3           MOV      R1,#+1
   \                     ??cbSysWin_16:
   \   000008E4   0700A0E1           MOV      R0,R7
   \   000008E8   ........           _BLF     GUI_EndDialog,??GUI_EndDialog??rA
   \   000008EC   2B0A00EA           B        ??cbSysWin_10
    573                      break;
    574                  case GUI_KEY_ENTER:
    575                      GUI_EndDialog(hWin, 0);
   \                     ??cbSysWin_15:
   \   000008F0   0010A0E3           MOV      R1,#+0
   \   000008F4   FAFFFFEA           B        ??cbSysWin_16
    576                      break;
    577                  }
    578                  break;
    579              case MESSAGE_PINCODE_RETURN:
    580                  {
    581                      int ValueId = pMsg->hWinSrc;
   \                     ??cbSysWin_17:
   \   000008F8   0260A0E1           MOV      R6,R2
    582                      char StringBuf[BUF_SIZE]={""};
   \   000008FC   60008DE2           ADD      R0,SP,#+96
   \   00000900   5020A0E3           MOV      R2,#+80
   \                     ??cbSysWin_18:
   \   00000904   042052E2           SUBS     R2,R2,#+4
   \   00000908   021095E7           LDR      R1,[R5, R2]
   \   0000090C   021080E7           STR      R1,[R0, R2]
   \   00000910   FBFFFF1A           BNE      ??cbSysWin_18
    583                      strcpy( StringBuf,(char *)pMsg->Data.p);
   \   00000914   081099E5           LDR      R1,[R9, #+8]
   \   00000918   ........           _BLF     strcpy,??strcpy??rA
    584                      switch ( ValueId ) {
   \   0000091C   630046E2           SUB      R0,R6,#+99
   \   00000920   A00E40E2           SUB      R0,R0,#+2560
   \   00000924   090050E3           CMP      R0,#+9
   \   00000928   1C0A008A           BHI      ??cbSysWin_10
   \   0000092C   021F8FE2           ADR      R1,??cbSysWin_2
   \   00000930   8000A0E1           MOV      R0,R0, LSL #+1
   \   00000934   B01091E1           LDRH     R1,[R1, R0]
   \   00000938   01F18FE0           ADD      PC,PC,R1, LSL #+2
   \                     ??cbSysWin_2:
   \   0000093C   040004000400       DC16     +4,+4,+4,+4
   \              0400        
   \   00000944   040004000400       DC16     +4,+4,+4,+4
   \              0400        
   \   0000094C   180A0400           DC16     +2584,+4
    585                      case GUI_ID_EDIT11:
    586                      case GUI_ID_EDIT12:
    587                      case GUI_ID_EDIT13:
    588                      case GUI_ID_EDIT14:
    589                      case GUI_ID_EDIT15:
    590                      case GUI_ID_EDIT16:
    591                      case GUI_ID_EDIT17:
    592                      case GUI_ID_EDIT18:
    593                      case GUI_ID_EDIT20:
    594                          if ( CheckPinCode(StringBuf) ) {
   \                     ??cbSysWin_19:
   \   00000950   60108DE2           ADD      R1,SP,#+96
   \   00000954   0D00A0E1           MOV      R0,SP
   \   00000958   ........           _BLF     ??AnsiString_1,??AnsiString??rA_1
   \   0000095C   ........           _BLF     ??CheckPinCode,??CheckPinCode??rA
   \   00000960   0050A0E1           MOV      R5,R0
   \   00000964   0020A0E3           MOV      R2,#+0
   \   00000968   0110A0E3           MOV      R1,#+1
   \   0000096C   0D00A0E1           MOV      R0,SP
   \   00000970   ........           _BLF     ??_Tidy,??_Tidy??rA
   \   00000974   000055E3           CMP      R5,#+0
   \   00000978   080A000A           BEQ      ??cbSysWin_10
    595                              KeyBoard->ExecKeyBoardNum(WM_GetClientWindow(hWin),L_WORD180, ValueId); // Enter new value:
   \   0000097C   0700A0E1           MOV      R0,R7
   \   00000980   ........           _BLF     WM_GetClientWindow,??WM_GetClientWindow??rA
   \   00000984   0010A0E1           MOV      R1,R0
   \   00000988   0630A0E1           MOV      R3,R6
   \   0000098C   B420A0E3           MOV      R2,#+180
   \                     ??cbSysWin_20:
   \   00000990   000A00EA           B        ??cbSysWin_21
   \                     ??cbSysWin_7:
   \   00000994   ........           DC32     SystemWindow
   \   00000998   ........           DC32     `?<Constant "">`
   \   0000099C   ........           DC32     KeyBoard
   \   000009A0   ........           DC32     ??PRODraftSysPtr
   \   000009A4   ........           DC32     ??ProjectType
   \   000009A8   40404000           DC32     0x404040
    596                          }
    597                          break;
    598                      }
    599                  }
    600                  break;
    601              case MESSAGE_KEYPAD_RETURN:
    602                  {
    603                      int ValueId = pMsg->hWinSrc;
   \                     ??cbSysWin_22:
   \   000009AC   0240A0E1           MOV      R4,R2
    604                      char StringBuf[BUF_SIZE]={""};
   \   000009B0   60008DE2           ADD      R0,SP,#+96
   \   000009B4   0010A0E3           MOV      R1,#+0
   \   000009B8   5020A0E3           MOV      R2,#+80
   \                     ??cbSysWin_23:
   \   000009BC   042052E2           SUBS     R2,R2,#+4
   \   000009C0   021080E7           STR      R1,[R0, R2]
   \   000009C4   FCFFFF1A           BNE      ??cbSysWin_23
    605                      strcpy( StringBuf,(char *)pMsg->Data.p);
   \   000009C8   081099E5           LDR      R1,[R9, #+8]
    606                      switch ( ValueId ) {
   \   000009CC   1C509FE5           LDR      R5,??cbSysWin_24  ;; ??TXUSystemData
   \   000009D0   ........           _BLF     strcpy,??strcpy??rA
   \   000009D4   010044E2           SUB      R0,R4,#+1
   \   000009D8   400F40E2           SUB      R0,R0,#+256
   \   000009DC   6B10A0E3           MOV      R1,#+107
   \   000009E0   901E81E3           ORR      R1,R1,#0x900
   \   000009E4   010050E1           CMP      R0,R1
   \   000009E8   EC09008A           BHI      ??cbSysWin_10
   \   000009EC   000000EA           B        ??cbSysWin_25
   \                     ??cbSysWin_24:
   \   000009F0   ........           DC32     ??TXUSystemData
   \                     ??cbSysWin_25:
   \   000009F4   021F8FE2           ADR      R1,??cbSysWin_3
   \   000009F8   8000A0E1           MOV      R0,R0, LSL #+1
   \   000009FC   B01091E1           LDRH     R1,[R1, R0]
   \   00000A00   01F18FE0           ADD      PC,PC,R1, LSL #+2
   \                     ??cbSysWin_3:
   \   00000A04   B504C404D104       DC16     +1205,+1220,+1233,+2534
   \              E609        
   \   00000A0C   E609E609E609       DC16     +2534,+2534,+2534,+2534
   \              E609        
   \   00000A14   E609E609E609       DC16     +2534,+2534,+2534,+2534
   \              E609        
   \   00000A1C   E609E609E609       DC16     +2534,+2534,+2534,+2534
   \              E609        
   \   00000A24   E609E609E609       DC16     +2534,+2534,+2534,+2534
   \              E609        
   \   00000A2C   E609E609E609       DC16     +2534,+2534,+2534,+2534
   \              E609        
   \   00000A34   E609E609E609       DC16     +2534,+2534,+2534,+2534
   \              E609        
   \   00000A3C   E609E609E609       DC16     +2534,+2534,+2534,+2534
   \              E609        
   \   00000A44   E609E609E609       DC16     +2534,+2534,+2534,+2534
   \              E609        
   \   00000A4C   E609E609E609       DC16     +2534,+2534,+2534,+2534
   \              E609        
   \   00000A54   E609E609E609       DC16     +2534,+2534,+2534,+2534
   \              E609        
   \   00000A5C   E609E609E609       DC16     +2534,+2534,+2534,+2534
   \              E609        
   \   00000A64   E609E609E609       DC16     +2534,+2534,+2534,+2534
   \              E609        
   \   00000A6C   E609E609E609       DC16     +2534,+2534,+2534,+2534
   \              E609        
   \   00000A74   E609E609E609       DC16     +2534,+2534,+2534,+2534
   \              E609        
   \   00000A7C   E609E609E609       DC16     +2534,+2534,+2534,+2534
   \              E609        
   \   00000A84   E609E609E609       DC16     +2534,+2534,+2534,+2534
   \              E609        
   \   00000A8C   E609E609E609       DC16     +2534,+2534,+2534,+2534
   \              E609        
   \   00000A94   E609E609E609       DC16     +2534,+2534,+2534,+2534
   \              E609        
   \   00000A9C   E609E609E609       DC16     +2534,+2534,+2534,+2534
   \              E609        
   \   00000AA4   E609E609E609       DC16     +2534,+2534,+2534,+2534
   \              E609        
   \   00000AAC   E609E609E609       DC16     +2534,+2534,+2534,+2534
   \              E609        
   \   00000AB4   E609E609E609       DC16     +2534,+2534,+2534,+2534
   \              E609        
   \   00000ABC   E609E609E609       DC16     +2534,+2534,+2534,+2534
   \              E609        
   \   00000AC4   E609E609E609       DC16     +2534,+2534,+2534,+2534
   \              E609        
   \   00000ACC   E609E609E609       DC16     +2534,+2534,+2534,+2534
   \              E609        
   \   00000AD4   E609E609E609       DC16     +2534,+2534,+2534,+2534
   \              E609        
   \   00000ADC   E609E609E609       DC16     +2534,+2534,+2534,+2534
   \              E609        
   \   00000AE4   E609E609E609       DC16     +2534,+2534,+2534,+2534
   \              E609        
   \   00000AEC   E609E609E609       DC16     +2534,+2534,+2534,+2534
   \              E609        
   \   00000AF4   E609E609E609       DC16     +2534,+2534,+2534,+2534
   \              E609        
   \   00000AFC   E609E609E609       DC16     +2534,+2534,+2534,+2534
   \              E609        
   \   00000B04   E609E609E609       DC16     +2534,+2534,+2534,+2534
   \              E609        
   \   00000B0C   E609E609E609       DC16     +2534,+2534,+2534,+2534
   \              E609        
   \   00000B14   E609E609E609       DC16     +2534,+2534,+2534,+2534
   \              E609        
   \   00000B1C   E609E609E609       DC16     +2534,+2534,+2534,+2534
   \              E609        
   \   00000B24   E609E609E609       DC16     +2534,+2534,+2534,+2534
   \              E609        
   \   00000B2C   E609E609E609       DC16     +2534,+2534,+2534,+2534
   \              E609        
   \   00000B34   E609E609E609       DC16     +2534,+2534,+2534,+2534
   \              E609        
   \   00000B3C   E609E609E609       DC16     +2534,+2534,+2534,+2534
   \              E609        
   \   00000B44   E609E609E609       DC16     +2534,+2534,+2534,+2534
   \              E609        
   \   00000B4C   E609E609E609       DC16     +2534,+2534,+2534,+2534
   \              E609        
   \   00000B54   E609E609E609       DC16     +2534,+2534,+2534,+2534
   \              E609        
   \   00000B5C   E609E609E609       DC16     +2534,+2534,+2534,+2534
   \              E609        
   \   00000B64   E609E609E609       DC16     +2534,+2534,+2534,+2534
   \              E609        
   \   00000B6C   E609E609E609       DC16     +2534,+2534,+2534,+2534
   \              E609        
   \   00000B74   E609E609E609       DC16     +2534,+2534,+2534,+2534
   \              E609        
   \   00000B7C   E609E609E609       DC16     +2534,+2534,+2534,+2534
   \              E609        
   \   00000B84   E609E609E609       DC16     +2534,+2534,+2534,+2534
   \              E609        
   \   00000B8C   E609E609E609       DC16     +2534,+2534,+2534,+2534
   \              E609        
   \   00000B94   E609E609E609       DC16     +2534,+2534,+2534,+2534
   \              E609        
   \   00000B9C   E609E609E609       DC16     +2534,+2534,+2534,+2534
   \              E609        
   \   00000BA4   E609E609E609       DC16     +2534,+2534,+2534,+2534
   \              E609        
   \   00000BAC   E609E609E609       DC16     +2534,+2534,+2534,+2534
   \              E609        
   \   00000BB4   E609E609E609       DC16     +2534,+2534,+2534,+2534
   \              E609        
   \   00000BBC   E609E609E609       DC16     +2534,+2534,+2534,+2534
   \              E609        
   \   00000BC4   E609E609E609       DC16     +2534,+2534,+2534,+2534
   \              E609        
   \   00000BCC   E609E609E609       DC16     +2534,+2534,+2534,+2534
   \              E609        
   \   00000BD4   E609E609E609       DC16     +2534,+2534,+2534,+2534
   \              E609        
   \   00000BDC   E609E609E609       DC16     +2534,+2534,+2534,+2534
   \              E609        
   \   00000BE4   E609E609E609       DC16     +2534,+2534,+2534,+2534
   \              E609        
   \   00000BEC   E609E609E609       DC16     +2534,+2534,+2534,+2534
   \              E609        
   \   00000BF4   E609E609E609       DC16     +2534,+2534,+2534,+2534
   \              E609        
   \   00000BFC   E609E609E609       DC16     +2534,+2534,+2534,+2534
   \              E609        
   \   00000C04   E609E609E609       DC16     +2534,+2534,+2534,+2534
   \              E609        
   \   00000C0C   E609E609E609       DC16     +2534,+2534,+2534,+2534
   \              E609        
   \   00000C14   E609E609E609       DC16     +2534,+2534,+2534,+2534
   \              E609        
   \   00000C1C   E609E609E609       DC16     +2534,+2534,+2534,+2534
   \              E609        
   \   00000C24   E609E609E609       DC16     +2534,+2534,+2534,+2534
   \              E609        
   \   00000C2C   E609E609E609       DC16     +2534,+2534,+2534,+2534
   \              E609        
   \   00000C34   E609E609E609       DC16     +2534,+2534,+2534,+2534
   \              E609        
   \   00000C3C   E609E609E609       DC16     +2534,+2534,+2534,+2534
   \              E609        
   \   00000C44   E609E609E609       DC16     +2534,+2534,+2534,+2534
   \              E609        
   \   00000C4C   E609E609E609       DC16     +2534,+2534,+2534,+2534
   \              E609        
   \   00000C54   E609E609E609       DC16     +2534,+2534,+2534,+2534
   \              E609        
   \   00000C5C   E609E609E609       DC16     +2534,+2534,+2534,+2534
   \              E609        
   \   00000C64   E609E609E609       DC16     +2534,+2534,+2534,+2534
   \              E609        
   \   00000C6C   E609E609E609       DC16     +2534,+2534,+2534,+2534
   \              E609        
   \   00000C74   E609E609E609       DC16     +2534,+2534,+2534,+2534
   \              E609        
   \   00000C7C   E609E609E609       DC16     +2534,+2534,+2534,+2534
   \              E609        
   \   00000C84   E609E609E609       DC16     +2534,+2534,+2534,+2534
   \              E609        
   \   00000C8C   E609E609E609       DC16     +2534,+2534,+2534,+2534
   \              E609        
   \   00000C94   E609E609E609       DC16     +2534,+2534,+2534,+2534
   \              E609        
   \   00000C9C   E609E609E609       DC16     +2534,+2534,+2534,+2534
   \              E609        
   \   00000CA4   E609E609E609       DC16     +2534,+2534,+2534,+2534
   \              E609        
   \   00000CAC   E609E609E609       DC16     +2534,+2534,+2534,+2534
   \              E609        
   \   00000CB4   E609E609E609       DC16     +2534,+2534,+2534,+2534
   \              E609        
   \   00000CBC   E609E609E609       DC16     +2534,+2534,+2534,+2534
   \              E609        
   \   00000CC4   E609E609E609       DC16     +2534,+2534,+2534,+2534
   \              E609        
   \   00000CCC   E609E609E609       DC16     +2534,+2534,+2534,+2534
   \              E609        
   \   00000CD4   E609E609E609       DC16     +2534,+2534,+2534,+2534
   \              E609        
   \   00000CDC   E609E609E609       DC16     +2534,+2534,+2534,+2534
   \              E609        
   \   00000CE4   E609E609E609       DC16     +2534,+2534,+2534,+2534
   \              E609        
   \   00000CEC   E609E609E609       DC16     +2534,+2534,+2534,+2534
   \              E609        
   \   00000CF4   E609E609E609       DC16     +2534,+2534,+2534,+2534
   \              E609        
   \   00000CFC   E609E609E609       DC16     +2534,+2534,+2534,+2534
   \              E609        
   \   00000D04   E609E609E609       DC16     +2534,+2534,+2534,+2534
   \              E609        
   \   00000D0C   E609E609E609       DC16     +2534,+2534,+2534,+2534
   \              E609        
   \   00000D14   E609E609E609       DC16     +2534,+2534,+2534,+2534
   \              E609        
   \   00000D1C   E609E609E609       DC16     +2534,+2534,+2534,+2534
   \              E609        
   \   00000D24   E609E609E609       DC16     +2534,+2534,+2534,+2534
   \              E609        
   \   00000D2C   E609E609E609       DC16     +2534,+2534,+2534,+2534
   \              E609        
   \   00000D34   E609E609E609       DC16     +2534,+2534,+2534,+2534
   \              E609        
   \   00000D3C   E609E609E609       DC16     +2534,+2534,+2534,+2534
   \              E609        
   \   00000D44   E609E609E609       DC16     +2534,+2534,+2534,+2534
   \              E609        
   \   00000D4C   E609E609E609       DC16     +2534,+2534,+2534,+2534
   \              E609        
   \   00000D54   E609E609E609       DC16     +2534,+2534,+2534,+2534
   \              E609        
   \   00000D5C   E609E609E609       DC16     +2534,+2534,+2534,+2534
   \              E609        
   \   00000D64   E609E609E609       DC16     +2534,+2534,+2534,+2534
   \              E609        
   \   00000D6C   E609E609E609       DC16     +2534,+2534,+2534,+2534
   \              E609        
   \   00000D74   E609E609E609       DC16     +2534,+2534,+2534,+2534
   \              E609        
   \   00000D7C   E609E609E609       DC16     +2534,+2534,+2534,+2534
   \              E609        
   \   00000D84   E609E609E609       DC16     +2534,+2534,+2534,+2534
   \              E609        
   \   00000D8C   E609E609E609       DC16     +2534,+2534,+2534,+2534
   \              E609        
   \   00000D94   E609E609E609       DC16     +2534,+2534,+2534,+2534
   \              E609        
   \   00000D9C   E609E609E609       DC16     +2534,+2534,+2534,+2534
   \              E609        
   \   00000DA4   E609E609E609       DC16     +2534,+2534,+2534,+2534
   \              E609        
   \   00000DAC   E609E609E609       DC16     +2534,+2534,+2534,+2534
   \              E609        
   \   00000DB4   E609E609E609       DC16     +2534,+2534,+2534,+2534
   \              E609        
   \   00000DBC   E609E609E609       DC16     +2534,+2534,+2534,+2534
   \              E609        
   \   00000DC4   E609E609E609       DC16     +2534,+2534,+2534,+2534
   \              E609        
   \   00000DCC   E609E609E609       DC16     +2534,+2534,+2534,+2534
   \              E609        
   \   00000DD4   E609E609E609       DC16     +2534,+2534,+2534,+2534
   \              E609        
   \   00000DDC   E609E609E609       DC16     +2534,+2534,+2534,+2534
   \              E609        
   \   00000DE4   E609E609E609       DC16     +2534,+2534,+2534,+2534
   \              E609        
   \   00000DEC   E609E609E609       DC16     +2534,+2534,+2534,+2534
   \              E609        
   \   00000DF4   E609E609E609       DC16     +2534,+2534,+2534,+2534
   \              E609        
   \   00000DFC   E609E609E609       DC16     +2534,+2534,+2534,+2534
   \              E609        
   \   00000E04   E609E609E609       DC16     +2534,+2534,+2534,+2534
   \              E609        
   \   00000E0C   E609E609E609       DC16     +2534,+2534,+2534,+2534
   \              E609        
   \   00000E14   E609E609E609       DC16     +2534,+2534,+2534,+2534
   \              E609        
   \   00000E1C   E609E609E609       DC16     +2534,+2534,+2534,+2534
   \              E609        
   \   00000E24   E609E609E609       DC16     +2534,+2534,+2534,+2534
   \              E609        
   \   00000E2C   E609E609E609       DC16     +2534,+2534,+2534,+2534
   \              E609        
   \   00000E34   E609E609E609       DC16     +2534,+2534,+2534,+2534
   \              E609        
   \   00000E3C   E609E609E609       DC16     +2534,+2534,+2534,+2534
   \              E609        
   \   00000E44   E609E609E609       DC16     +2534,+2534,+2534,+2534
   \              E609        
   \   00000E4C   E609E609E609       DC16     +2534,+2534,+2534,+2534
   \              E609        
   \   00000E54   E609E609E609       DC16     +2534,+2534,+2534,+2534
   \              E609        
   \   00000E5C   E609E609E609       DC16     +2534,+2534,+2534,+2534
   \              E609        
   \   00000E64   E609E609E609       DC16     +2534,+2534,+2534,+2534
   \              E609        
   \   00000E6C   E609E609E609       DC16     +2534,+2534,+2534,+2534
   \              E609        
   \   00000E74   E609E609E609       DC16     +2534,+2534,+2534,+2534
   \              E609        
   \   00000E7C   E609E609E609       DC16     +2534,+2534,+2534,+2534
   \              E609        
   \   00000E84   E609E609E609       DC16     +2534,+2534,+2534,+2534
   \              E609        
   \   00000E8C   E609E609E609       DC16     +2534,+2534,+2534,+2534
   \              E609        
   \   00000E94   E609E609E609       DC16     +2534,+2534,+2534,+2534
   \              E609        
   \   00000E9C   E609E609E609       DC16     +2534,+2534,+2534,+2534
   \              E609        
   \   00000EA4   E609E609E609       DC16     +2534,+2534,+2534,+2534
   \              E609        
   \   00000EAC   E609E609E609       DC16     +2534,+2534,+2534,+2534
   \              E609        
   \   00000EB4   E609E609E609       DC16     +2534,+2534,+2534,+2534
   \              E609        
   \   00000EBC   E609E609E609       DC16     +2534,+2534,+2534,+2534
   \              E609        
   \   00000EC4   E609E609E609       DC16     +2534,+2534,+2534,+2534
   \              E609        
   \   00000ECC   E609E609E609       DC16     +2534,+2534,+2534,+2534
   \              E609        
   \   00000ED4   E609E609E609       DC16     +2534,+2534,+2534,+2534
   \              E609        
   \   00000EDC   E609E609E609       DC16     +2534,+2534,+2534,+2534
   \              E609        
   \   00000EE4   E609E609E609       DC16     +2534,+2534,+2534,+2534
   \              E609        
   \   00000EEC   E609E609E609       DC16     +2534,+2534,+2534,+2534
   \              E609        
   \   00000EF4   E609E609E609       DC16     +2534,+2534,+2534,+2534
   \              E609        
   \   00000EFC   E609E609E609       DC16     +2534,+2534,+2534,+2534
   \              E609        
   \   00000F04   E609E609E609       DC16     +2534,+2534,+2534,+2534
   \              E609        
   \   00000F0C   E609E609E609       DC16     +2534,+2534,+2534,+2534
   \              E609        
   \   00000F14   E609E609E609       DC16     +2534,+2534,+2534,+2534
   \              E609        
   \   00000F1C   E609E609E609       DC16     +2534,+2534,+2534,+2534
   \              E609        
   \   00000F24   E609E609E609       DC16     +2534,+2534,+2534,+2534
   \              E609        
   \   00000F2C   E609E609E609       DC16     +2534,+2534,+2534,+2534
   \              E609        
   \   00000F34   E609E609E609       DC16     +2534,+2534,+2534,+2534
   \              E609        
   \   00000F3C   E609E609E609       DC16     +2534,+2534,+2534,+2534
   \              E609        
   \   00000F44   E609E609E609       DC16     +2534,+2534,+2534,+2534
   \              E609        
   \   00000F4C   E609E609E609       DC16     +2534,+2534,+2534,+2534
   \              E609        
   \   00000F54   E609E609E609       DC16     +2534,+2534,+2534,+2534
   \              E609        
   \   00000F5C   E609E609E609       DC16     +2534,+2534,+2534,+2534
   \              E609        
   \   00000F64   E609E609E609       DC16     +2534,+2534,+2534,+2534
   \              E609        
   \   00000F6C   E609E609E609       DC16     +2534,+2534,+2534,+2534
   \              E609        
   \   00000F74   E609E609E609       DC16     +2534,+2534,+2534,+2534
   \              E609        
   \   00000F7C   E609E609E609       DC16     +2534,+2534,+2534,+2534
   \              E609        
   \   00000F84   E609E609E609       DC16     +2534,+2534,+2534,+2534
   \              E609        
   \   00000F8C   E609E609E609       DC16     +2534,+2534,+2534,+2534
   \              E609        
   \   00000F94   E609E609E609       DC16     +2534,+2534,+2534,+2534
   \              E609        
   \   00000F9C   E609E609E609       DC16     +2534,+2534,+2534,+2534
   \              E609        
   \   00000FA4   E609E609E609       DC16     +2534,+2534,+2534,+2534
   \              E609        
   \   00000FAC   E609E609E609       DC16     +2534,+2534,+2534,+2534
   \              E609        
   \   00000FB4   E609E609E609       DC16     +2534,+2534,+2534,+2534
   \              E609        
   \   00000FBC   E609E609E609       DC16     +2534,+2534,+2534,+2534
   \              E609        
   \   00000FC4   E609E609E609       DC16     +2534,+2534,+2534,+2534
   \              E609        
   \   00000FCC   E609E609E609       DC16     +2534,+2534,+2534,+2534
   \              E609        
   \   00000FD4   E609E609E609       DC16     +2534,+2534,+2534,+2534
   \              E609        
   \   00000FDC   E609E609E609       DC16     +2534,+2534,+2534,+2534
   \              E609        
   \   00000FE4   E609E609E609       DC16     +2534,+2534,+2534,+2534
   \              E609        
   \   00000FEC   E609E609E609       DC16     +2534,+2534,+2534,+2534
   \              E609        
   \   00000FF4   E609E609E609       DC16     +2534,+2534,+2534,+2534
   \              E609        
   \   00000FFC   E609E609E609       DC16     +2534,+2534,+2534,+2534
   \              E609        
   \   00001004   E609E609E609       DC16     +2534,+2534,+2534,+2534
   \              E609        
   \   0000100C   E609E609E609       DC16     +2534,+2534,+2534,+2534
   \              E609        
   \   00001014   E609E609E609       DC16     +2534,+2534,+2534,+2534
   \              E609        
   \   0000101C   E609E609E609       DC16     +2534,+2534,+2534,+2534
   \              E609        
   \   00001024   E609E609E609       DC16     +2534,+2534,+2534,+2534
   \              E609        
   \   0000102C   E609E609E609       DC16     +2534,+2534,+2534,+2534
   \              E609        
   \   00001034   E609E609E609       DC16     +2534,+2534,+2534,+2534
   \              E609        
   \   0000103C   E609E609E609       DC16     +2534,+2534,+2534,+2534
   \              E609        
   \   00001044   E609E609E609       DC16     +2534,+2534,+2534,+2534
   \              E609        
   \   0000104C   E609E609E609       DC16     +2534,+2534,+2534,+2534
   \              E609        
   \   00001054   E609E609E609       DC16     +2534,+2534,+2534,+2534
   \              E609        
   \   0000105C   E609E609E609       DC16     +2534,+2534,+2534,+2534
   \              E609        
   \   00001064   E609E609E609       DC16     +2534,+2534,+2534,+2534
   \              E609        
   \   0000106C   E609E609E609       DC16     +2534,+2534,+2534,+2534
   \              E609        
   \   00001074   E609E609E609       DC16     +2534,+2534,+2534,+2534
   \              E609        
   \   0000107C   E609E609E609       DC16     +2534,+2534,+2534,+2534
   \              E609        
   \   00001084   E609E609E609       DC16     +2534,+2534,+2534,+2534
   \              E609        
   \   0000108C   E609E609E609       DC16     +2534,+2534,+2534,+2534
   \              E609        
   \   00001094   E609E609E609       DC16     +2534,+2534,+2534,+2534
   \              E609        
   \   0000109C   E609E609E609       DC16     +2534,+2534,+2534,+2534
   \              E609        
   \   000010A4   E609E609E609       DC16     +2534,+2534,+2534,+2534
   \              E609        
   \   000010AC   E609E609E609       DC16     +2534,+2534,+2534,+2534
   \              E609        
   \   000010B4   E609E609E609       DC16     +2534,+2534,+2534,+2534
   \              E609        
   \   000010BC   E609E609E609       DC16     +2534,+2534,+2534,+2534
   \              E609        
   \   000010C4   E609E609E609       DC16     +2534,+2534,+2534,+2534
   \              E609        
   \   000010CC   E609E609E609       DC16     +2534,+2534,+2534,+2534
   \              E609        
   \   000010D4   E609E609E609       DC16     +2534,+2534,+2534,+2534
   \              E609        
   \   000010DC   E609E609E609       DC16     +2534,+2534,+2534,+2534
   \              E609        
   \   000010E4   E609E609E609       DC16     +2534,+2534,+2534,+2534
   \              E609        
   \   000010EC   E609E609E609       DC16     +2534,+2534,+2534,+2534
   \              E609        
   \   000010F4   E609E609E609       DC16     +2534,+2534,+2534,+2534
   \              E609        
   \   000010FC   E609E609E609       DC16     +2534,+2534,+2534,+2534
   \              E609        
   \   00001104   E609E609E609       DC16     +2534,+2534,+2534,+2534
   \              E609        
   \   0000110C   E609E609E609       DC16     +2534,+2534,+2534,+2534
   \              E609        
   \   00001114   E609E609E609       DC16     +2534,+2534,+2534,+2534
   \              E609        
   \   0000111C   E609E609E609       DC16     +2534,+2534,+2534,+2534
   \              E609        
   \   00001124   E609E609E609       DC16     +2534,+2534,+2534,+2534
   \              E609        
   \   0000112C   E609E609E609       DC16     +2534,+2534,+2534,+2534
   \              E609        
   \   00001134   E609E609E609       DC16     +2534,+2534,+2534,+2534
   \              E609        
   \   0000113C   E609E609E609       DC16     +2534,+2534,+2534,+2534
   \              E609        
   \   00001144   E609E609E609       DC16     +2534,+2534,+2534,+2534
   \              E609        
   \   0000114C   E609E609E609       DC16     +2534,+2534,+2534,+2534
   \              E609        
   \   00001154   E609E609E609       DC16     +2534,+2534,+2534,+2534
   \              E609        
   \   0000115C   E609E609E609       DC16     +2534,+2534,+2534,+2534
   \              E609        
   \   00001164   E609E609E609       DC16     +2534,+2534,+2534,+2534
   \              E609        
   \   0000116C   E609E609E609       DC16     +2534,+2534,+2534,+2534
   \              E609        
   \   00001174   E609E609E609       DC16     +2534,+2534,+2534,+2534
   \              E609        
   \   0000117C   E609E609E609       DC16     +2534,+2534,+2534,+2534
   \              E609        
   \   00001184   E609E609E609       DC16     +2534,+2534,+2534,+2534
   \              E609        
   \   0000118C   E609E609E609       DC16     +2534,+2534,+2534,+2534
   \              E609        
   \   00001194   E609E609E609       DC16     +2534,+2534,+2534,+2534
   \              E609        
   \   0000119C   E609E609E609       DC16     +2534,+2534,+2534,+2534
   \              E609        
   \   000011A4   E609E609E609       DC16     +2534,+2534,+2534,+2534
   \              E609        
   \   000011AC   E609E609E609       DC16     +2534,+2534,+2534,+2534
   \              E609        
   \   000011B4   E609E609E609       DC16     +2534,+2534,+2534,+2534
   \              E609        
   \   000011BC   E609E609E609       DC16     +2534,+2534,+2534,+2534
   \              E609        
   \   000011C4   E609E609E609       DC16     +2534,+2534,+2534,+2534
   \              E609        
   \   000011CC   E609E609E609       DC16     +2534,+2534,+2534,+2534
   \              E609        
   \   000011D4   E609E609E609       DC16     +2534,+2534,+2534,+2534
   \              E609        
   \   000011DC   E609E609E609       DC16     +2534,+2534,+2534,+2534
   \              E609        
   \   000011E4   E609E609E609       DC16     +2534,+2534,+2534,+2534
   \              E609        
   \   000011EC   E609E609E609       DC16     +2534,+2534,+2534,+2534
   \              E609        
   \   000011F4   E609E609E609       DC16     +2534,+2534,+2534,+2534
   \              E609        
   \   000011FC   E609E609E609       DC16     +2534,+2534,+2534,+2534
   \              E609        
   \   00001204   E609E609E609       DC16     +2534,+2534,+2534,+2534
   \              E609        
   \   0000120C   E609E609E609       DC16     +2534,+2534,+2534,+2534
   \              E609        
   \   00001214   E609E609E609       DC16     +2534,+2534,+2534,+2534
   \              E609        
   \   0000121C   E609E609E609       DC16     +2534,+2534,+2534,+2534
   \              E609        
   \   00001224   E609E609E609       DC16     +2534,+2534,+2534,+2534
   \              E609        
   \   0000122C   E609E609E609       DC16     +2534,+2534,+2534,+2534
   \              E609        
   \   00001234   E609E609E609       DC16     +2534,+2534,+2534,+2534
   \              E609        
   \   0000123C   E609E609E609       DC16     +2534,+2534,+2534,+2534
   \              E609        
   \   00001244   E609E609E609       DC16     +2534,+2534,+2534,+2534
   \              E609        
   \   0000124C   E609E609E609       DC16     +2534,+2534,+2534,+2534
   \              E609        
   \   00001254   E609E609E609       DC16     +2534,+2534,+2534,+2534
   \              E609        
   \   0000125C   E609E609E609       DC16     +2534,+2534,+2534,+2534
   \              E609        
   \   00001264   E609E609E609       DC16     +2534,+2534,+2534,+2534
   \              E609        
   \   0000126C   E609E609E609       DC16     +2534,+2534,+2534,+2534
   \              E609        
   \   00001274   E609E609E609       DC16     +2534,+2534,+2534,+2534
   \              E609        
   \   0000127C   E609E609E609       DC16     +2534,+2534,+2534,+2534
   \              E609        
   \   00001284   E609E609E609       DC16     +2534,+2534,+2534,+2534
   \              E609        
   \   0000128C   E609E609E609       DC16     +2534,+2534,+2534,+2534
   \              E609        
   \   00001294   E609E609E609       DC16     +2534,+2534,+2534,+2534
   \              E609        
   \   0000129C   E609E609E609       DC16     +2534,+2534,+2534,+2534
   \              E609        
   \   000012A4   E609E609E609       DC16     +2534,+2534,+2534,+2534
   \              E609        
   \   000012AC   E609E609E609       DC16     +2534,+2534,+2534,+2534
   \              E609        
   \   000012B4   E609E609E609       DC16     +2534,+2534,+2534,+2534
   \              E609        
   \   000012BC   E609E609E609       DC16     +2534,+2534,+2534,+2534
   \              E609        
   \   000012C4   E609E609E609       DC16     +2534,+2534,+2534,+2534
   \              E609        
   \   000012CC   E609E609E609       DC16     +2534,+2534,+2534,+2534
   \              E609        
   \   000012D4   E609E609E609       DC16     +2534,+2534,+2534,+2534
   \              E609        
   \   000012DC   E609E609E609       DC16     +2534,+2534,+2534,+2534
   \              E609        
   \   000012E4   E609E609E609       DC16     +2534,+2534,+2534,+2534
   \              E609        
   \   000012EC   E609E609E609       DC16     +2534,+2534,+2534,+2534
   \              E609        
   \   000012F4   E609E609E609       DC16     +2534,+2534,+2534,+2534
   \              E609        
   \   000012FC   E609E609E609       DC16     +2534,+2534,+2534,+2534
   \              E609        
   \   00001304   E609E609E609       DC16     +2534,+2534,+2534,+2534
   \              E609        
   \   0000130C   E609E609E609       DC16     +2534,+2534,+2534,+2534
   \              E609        
   \   00001314   E609E609E609       DC16     +2534,+2534,+2534,+2534
   \              E609        
   \   0000131C   E609E609E609       DC16     +2534,+2534,+2534,+2534
   \              E609        
   \   00001324   E609E609E609       DC16     +2534,+2534,+2534,+2534
   \              E609        
   \   0000132C   E609E609E609       DC16     +2534,+2534,+2534,+2534
   \              E609        
   \   00001334   E609E609E609       DC16     +2534,+2534,+2534,+2534
   \              E609        
   \   0000133C   E609E609E609       DC16     +2534,+2534,+2534,+2534
   \              E609        
   \   00001344   E609E609E609       DC16     +2534,+2534,+2534,+2534
   \              E609        
   \   0000134C   E609E609E609       DC16     +2534,+2534,+2534,+2534
   \              E609        
   \   00001354   E609E609E609       DC16     +2534,+2534,+2534,+2534
   \              E609        
   \   0000135C   E609E609E609       DC16     +2534,+2534,+2534,+2534
   \              E609        
   \   00001364   E609E609E609       DC16     +2534,+2534,+2534,+2534
   \              E609        
   \   0000136C   E609E609E609       DC16     +2534,+2534,+2534,+2534
   \              E609        
   \   00001374   E609E609E609       DC16     +2534,+2534,+2534,+2534
   \              E609        
   \   0000137C   E609E609E609       DC16     +2534,+2534,+2534,+2534
   \              E609        
   \   00001384   E609E609E609       DC16     +2534,+2534,+2534,+2534
   \              E609        
   \   0000138C   E609E609E609       DC16     +2534,+2534,+2534,+2534
   \              E609        
   \   00001394   E609E609E609       DC16     +2534,+2534,+2534,+2534
   \              E609        
   \   0000139C   E609E609E609       DC16     +2534,+2534,+2534,+2534
   \              E609        
   \   000013A4   E609E609E609       DC16     +2534,+2534,+2534,+2534
   \              E609        
   \   000013AC   E609E609E609       DC16     +2534,+2534,+2534,+2534
   \              E609        
   \   000013B4   E609E609E609       DC16     +2534,+2534,+2534,+2534
   \              E609        
   \   000013BC   E609E609E609       DC16     +2534,+2534,+2534,+2534
   \              E609        
   \   000013C4   E609E609E609       DC16     +2534,+2534,+2534,+2534
   \              E609        
   \   000013CC   E609E609E609       DC16     +2534,+2534,+2534,+2534
   \              E609        
   \   000013D4   E609E609E609       DC16     +2534,+2534,+2534,+2534
   \              E609        
   \   000013DC   E609E609E609       DC16     +2534,+2534,+2534,+2534
   \              E609        
   \   000013E4   E609E609E609       DC16     +2534,+2534,+2534,+2534
   \              E609        
   \   000013EC   E609E609E609       DC16     +2534,+2534,+2534,+2534
   \              E609        
   \   000013F4   E609E609E609       DC16     +2534,+2534,+2534,+2534
   \              E609        
   \   000013FC   E609E609E609       DC16     +2534,+2534,+2534,+2534
   \              E609        
   \   00001404   E609E609E609       DC16     +2534,+2534,+2534,+2534
   \              E609        
   \   0000140C   E609E609E609       DC16     +2534,+2534,+2534,+2534
   \              E609        
   \   00001414   E609E609E609       DC16     +2534,+2534,+2534,+2534
   \              E609        
   \   0000141C   E609E609E609       DC16     +2534,+2534,+2534,+2534
   \              E609        
   \   00001424   E609E609E609       DC16     +2534,+2534,+2534,+2534
   \              E609        
   \   0000142C   E609E609E609       DC16     +2534,+2534,+2534,+2534
   \              E609        
   \   00001434   E609E609E609       DC16     +2534,+2534,+2534,+2534
   \              E609        
   \   0000143C   E609E609E609       DC16     +2534,+2534,+2534,+2534
   \              E609        
   \   00001444   E609E609E609       DC16     +2534,+2534,+2534,+2534
   \              E609        
   \   0000144C   E609E609E609       DC16     +2534,+2534,+2534,+2534
   \              E609        
   \   00001454   E609E609E609       DC16     +2534,+2534,+2534,+2534
   \              E609        
   \   0000145C   E609E609E609       DC16     +2534,+2534,+2534,+2534
   \              E609        
   \   00001464   E609E609E609       DC16     +2534,+2534,+2534,+2534
   \              E609        
   \   0000146C   E609E609E609       DC16     +2534,+2534,+2534,+2534
   \              E609        
   \   00001474   E609E609E609       DC16     +2534,+2534,+2534,+2534
   \              E609        
   \   0000147C   E609E609E609       DC16     +2534,+2534,+2534,+2534
   \              E609        
   \   00001484   E609E609E609       DC16     +2534,+2534,+2534,+2534
   \              E609        
   \   0000148C   E609E609E609       DC16     +2534,+2534,+2534,+2534
   \              E609        
   \   00001494   E609E609E609       DC16     +2534,+2534,+2534,+2534
   \              E609        
   \   0000149C   E609E609E609       DC16     +2534,+2534,+2534,+2534
   \              E609        
   \   000014A4   E609E609E609       DC16     +2534,+2534,+2534,+2534
   \              E609        
   \   000014AC   E609E609E609       DC16     +2534,+2534,+2534,+2534
   \              E609        
   \   000014B4   E609E609E609       DC16     +2534,+2534,+2534,+2534
   \              E609        
   \   000014BC   E609E609E609       DC16     +2534,+2534,+2534,+2534
   \              E609        
   \   000014C4   E609E609E609       DC16     +2534,+2534,+2534,+2534
   \              E609        
   \   000014CC   E609E609E609       DC16     +2534,+2534,+2534,+2534
   \              E609        
   \   000014D4   E609E609E609       DC16     +2534,+2534,+2534,+2534
   \              E609        
   \   000014DC   E609E609E609       DC16     +2534,+2534,+2534,+2534
   \              E609        
   \   000014E4   E609E609E609       DC16     +2534,+2534,+2534,+2534
   \              E609        
   \   000014EC   E609E609E609       DC16     +2534,+2534,+2534,+2534
   \              E609        
   \   000014F4   E609E609E609       DC16     +2534,+2534,+2534,+2534
   \              E609        
   \   000014FC   E609E609E609       DC16     +2534,+2534,+2534,+2534
   \              E609        
   \   00001504   E609E609E609       DC16     +2534,+2534,+2534,+2534
   \              E609        
   \   0000150C   E609E609E609       DC16     +2534,+2534,+2534,+2534
   \              E609        
   \   00001514   E609E609E609       DC16     +2534,+2534,+2534,+2534
   \              E609        
   \   0000151C   E609E609E609       DC16     +2534,+2534,+2534,+2534
   \              E609        
   \   00001524   E609E609E609       DC16     +2534,+2534,+2534,+2534
   \              E609        
   \   0000152C   E609E609E609       DC16     +2534,+2534,+2534,+2534
   \              E609        
   \   00001534   E609E609E609       DC16     +2534,+2534,+2534,+2534
   \              E609        
   \   0000153C   E609E609E609       DC16     +2534,+2534,+2534,+2534
   \              E609        
   \   00001544   E609E609E609       DC16     +2534,+2534,+2534,+2534
   \              E609        
   \   0000154C   E609E609E609       DC16     +2534,+2534,+2534,+2534
   \              E609        
   \   00001554   E609E609E609       DC16     +2534,+2534,+2534,+2534
   \              E609        
   \   0000155C   E609E609E609       DC16     +2534,+2534,+2534,+2534
   \              E609        
   \   00001564   E609E609E609       DC16     +2534,+2534,+2534,+2534
   \              E609        
   \   0000156C   E609E609E609       DC16     +2534,+2534,+2534,+2534
   \              E609        
   \   00001574   E609E609E609       DC16     +2534,+2534,+2534,+2534
   \              E609        
   \   0000157C   E609E609E609       DC16     +2534,+2534,+2534,+2534
   \              E609        
   \   00001584   E609E609E609       DC16     +2534,+2534,+2534,+2534
   \              E609        
   \   0000158C   E609E609E609       DC16     +2534,+2534,+2534,+2534
   \              E609        
   \   00001594   E609E609E609       DC16     +2534,+2534,+2534,+2534
   \              E609        
   \   0000159C   E609E609E609       DC16     +2534,+2534,+2534,+2534
   \              E609        
   \   000015A4   E609E609E609       DC16     +2534,+2534,+2534,+2534
   \              E609        
   \   000015AC   E609E609E609       DC16     +2534,+2534,+2534,+2534
   \              E609        
   \   000015B4   E609E609E609       DC16     +2534,+2534,+2534,+2534
   \              E609        
   \   000015BC   E609E609E609       DC16     +2534,+2534,+2534,+2534
   \              E609        
   \   000015C4   E609E609E609       DC16     +2534,+2534,+2534,+2534
   \              E609        
   \   000015CC   E609E609E609       DC16     +2534,+2534,+2534,+2534
   \              E609        
   \   000015D4   E609E609E609       DC16     +2534,+2534,+2534,+2534
   \              E609        
   \   000015DC   E609E609E609       DC16     +2534,+2534,+2534,+2534
   \              E609        
   \   000015E4   E609E609E609       DC16     +2534,+2534,+2534,+2534
   \              E609        
   \   000015EC   E609E609E609       DC16     +2534,+2534,+2534,+2534
   \              E609        
   \   000015F4   E609E609E609       DC16     +2534,+2534,+2534,+2534
   \              E609        
   \   000015FC   E609E609E609       DC16     +2534,+2534,+2534,+2534
   \              E609        
   \   00001604   E609E609E609       DC16     +2534,+2534,+2534,+2534
   \              E609        
   \   0000160C   E609E609E609       DC16     +2534,+2534,+2534,+2534
   \              E609        
   \   00001614   E609E609E609       DC16     +2534,+2534,+2534,+2534
   \              E609        
   \   0000161C   E609E609E609       DC16     +2534,+2534,+2534,+2534
   \              E609        
   \   00001624   E609E609E609       DC16     +2534,+2534,+2534,+2534
   \              E609        
   \   0000162C   E609E609E609       DC16     +2534,+2534,+2534,+2534
   \              E609        
   \   00001634   E609E609E609       DC16     +2534,+2534,+2534,+2534
   \              E609        
   \   0000163C   E609E609E609       DC16     +2534,+2534,+2534,+2534
   \              E609        
   \   00001644   E609E609E609       DC16     +2534,+2534,+2534,+2534
   \              E609        
   \   0000164C   E609E609E609       DC16     +2534,+2534,+2534,+2534
   \              E609        
   \   00001654   E609E609E609       DC16     +2534,+2534,+2534,+2534
   \              E609        
   \   0000165C   E609E609E609       DC16     +2534,+2534,+2534,+2534
   \              E609        
   \   00001664   E609E609E609       DC16     +2534,+2534,+2534,+2534
   \              E609        
   \   0000166C   E609E609E609       DC16     +2534,+2534,+2534,+2534
   \              E609        
   \   00001674   E609E609E609       DC16     +2534,+2534,+2534,+2534
   \              E609        
   \   0000167C   E609E609E609       DC16     +2534,+2534,+2534,+2534
   \              E609        
   \   00001684   E609E609E609       DC16     +2534,+2534,+2534,+2534
   \              E609        
   \   0000168C   E609E609E609       DC16     +2534,+2534,+2534,+2534
   \              E609        
   \   00001694   E609E609E609       DC16     +2534,+2534,+2534,+2534
   \              E609        
   \   0000169C   E609E609E609       DC16     +2534,+2534,+2534,+2534
   \              E609        
   \   000016A4   E609E609E609       DC16     +2534,+2534,+2534,+2534
   \              E609        
   \   000016AC   E609E609E609       DC16     +2534,+2534,+2534,+2534
   \              E609        
   \   000016B4   E609E609E609       DC16     +2534,+2534,+2534,+2534
   \              E609        
   \   000016BC   E609E609E609       DC16     +2534,+2534,+2534,+2534
   \              E609        
   \   000016C4   E609E609E609       DC16     +2534,+2534,+2534,+2534
   \              E609        
   \   000016CC   E609E609E609       DC16     +2534,+2534,+2534,+2534
   \              E609        
   \   000016D4   E609E609E609       DC16     +2534,+2534,+2534,+2534
   \              E609        
   \   000016DC   E609E609E609       DC16     +2534,+2534,+2534,+2534
   \              E609        
   \   000016E4   E609E609E609       DC16     +2534,+2534,+2534,+2534
   \              E609        
   \   000016EC   E609E609E609       DC16     +2534,+2534,+2534,+2534
   \              E609        
   \   000016F4   E609E609E609       DC16     +2534,+2534,+2534,+2534
   \              E609        
   \   000016FC   E609E609E609       DC16     +2534,+2534,+2534,+2534
   \              E609        
   \   00001704   E609E609E609       DC16     +2534,+2534,+2534,+2534
   \              E609        
   \   0000170C   E609E609E609       DC16     +2534,+2534,+2534,+2534
   \              E609        
   \   00001714   E609E609E609       DC16     +2534,+2534,+2534,+2534
   \              E609        
   \   0000171C   E609E609E609       DC16     +2534,+2534,+2534,+2534
   \              E609        
   \   00001724   E609E609E609       DC16     +2534,+2534,+2534,+2534
   \              E609        
   \   0000172C   E609E609E609       DC16     +2534,+2534,+2534,+2534
   \              E609        
   \   00001734   E609E609E609       DC16     +2534,+2534,+2534,+2534
   \              E609        
   \   0000173C   E609E609E609       DC16     +2534,+2534,+2534,+2534
   \              E609        
   \   00001744   E609E609E609       DC16     +2534,+2534,+2534,+2534
   \              E609        
   \   0000174C   E609E609E609       DC16     +2534,+2534,+2534,+2534
   \              E609        
   \   00001754   E609E609E609       DC16     +2534,+2534,+2534,+2534
   \              E609        
   \   0000175C   E609E609E609       DC16     +2534,+2534,+2534,+2534
   \              E609        
   \   00001764   E609E609E609       DC16     +2534,+2534,+2534,+2534
   \              E609        
   \   0000176C   E609E609E609       DC16     +2534,+2534,+2534,+2534
   \              E609        
   \   00001774   E609E609E609       DC16     +2534,+2534,+2534,+2534
   \              E609        
   \   0000177C   E609E609E609       DC16     +2534,+2534,+2534,+2534
   \              E609        
   \   00001784   E609E609E609       DC16     +2534,+2534,+2534,+2534
   \              E609        
   \   0000178C   E609E609E609       DC16     +2534,+2534,+2534,+2534
   \              E609        
   \   00001794   E609E609E609       DC16     +2534,+2534,+2534,+2534
   \              E609        
   \   0000179C   E609E609E609       DC16     +2534,+2534,+2534,+2534
   \              E609        
   \   000017A4   E609E609E609       DC16     +2534,+2534,+2534,+2534
   \              E609        
   \   000017AC   E609E609E609       DC16     +2534,+2534,+2534,+2534
   \              E609        
   \   000017B4   E609E609E609       DC16     +2534,+2534,+2534,+2534
   \              E609        
   \   000017BC   E609E609E609       DC16     +2534,+2534,+2534,+2534
   \              E609        
   \   000017C4   E609E609E609       DC16     +2534,+2534,+2534,+2534
   \              E609        
   \   000017CC   E609E609E609       DC16     +2534,+2534,+2534,+2534
   \              E609        
   \   000017D4   E609E609E609       DC16     +2534,+2534,+2534,+2534
   \              E609        
   \   000017DC   E609E609E609       DC16     +2534,+2534,+2534,+2534
   \              E609        
   \   000017E4   E609E609E609       DC16     +2534,+2534,+2534,+2534
   \              E609        
   \   000017EC   E609E609E609       DC16     +2534,+2534,+2534,+2534
   \              E609        
   \   000017F4   E609E609E609       DC16     +2534,+2534,+2534,+2534
   \              E609        
   \   000017FC   E609E609E609       DC16     +2534,+2534,+2534,+2534
   \              E609        
   \   00001804   E609E609E609       DC16     +2534,+2534,+2534,+2534
   \              E609        
   \   0000180C   E609E609E609       DC16     +2534,+2534,+2534,+2534
   \              E609        
   \   00001814   E609E609E609       DC16     +2534,+2534,+2534,+2534
   \              E609        
   \   0000181C   E609E609E609       DC16     +2534,+2534,+2534,+2534
   \              E609        
   \   00001824   E609E609E609       DC16     +2534,+2534,+2534,+2534
   \              E609        
   \   0000182C   E609E609E609       DC16     +2534,+2534,+2534,+2534
   \              E609        
   \   00001834   E609E609E609       DC16     +2534,+2534,+2534,+2534
   \              E609        
   \   0000183C   E609E609E609       DC16     +2534,+2534,+2534,+2534
   \              E609        
   \   00001844   E609E609E609       DC16     +2534,+2534,+2534,+2534
   \              E609        
   \   0000184C   E609E609E609       DC16     +2534,+2534,+2534,+2534
   \              E609        
   \   00001854   E609E609E609       DC16     +2534,+2534,+2534,+2534
   \              E609        
   \   0000185C   E609E609E609       DC16     +2534,+2534,+2534,+2534
   \              E609        
   \   00001864   E609E609E609       DC16     +2534,+2534,+2534,+2534
   \              E609        
   \   0000186C   E609E609E609       DC16     +2534,+2534,+2534,+2534
   \              E609        
   \   00001874   E609E609E609       DC16     +2534,+2534,+2534,+2534
   \              E609        
   \   0000187C   E609E609E609       DC16     +2534,+2534,+2534,+2534
   \              E609        
   \   00001884   E609E609E609       DC16     +2534,+2534,+2534,+2534
   \              E609        
   \   0000188C   E609E609E609       DC16     +2534,+2534,+2534,+2534
   \              E609        
   \   00001894   E609E609E609       DC16     +2534,+2534,+2534,+2534
   \              E609        
   \   0000189C   E609E609E609       DC16     +2534,+2534,+2534,+2534
   \              E609        
   \   000018A4   E609E609E609       DC16     +2534,+2534,+2534,+2534
   \              E609        
   \   000018AC   E609E609E609       DC16     +2534,+2534,+2534,+2534
   \              E609        
   \   000018B4   E609E609E609       DC16     +2534,+2534,+2534,+2534
   \              E609        
   \   000018BC   E609E609E609       DC16     +2534,+2534,+2534,+2534
   \              E609        
   \   000018C4   E609E609E609       DC16     +2534,+2534,+2534,+2534
   \              E609        
   \   000018CC   E609E609E609       DC16     +2534,+2534,+2534,+2534
   \              E609        
   \   000018D4   E609E609E609       DC16     +2534,+2534,+2534,+2534
   \              E609        
   \   000018DC   E609E609E609       DC16     +2534,+2534,+2534,+2534
   \              E609        
   \   000018E4   E609E609E609       DC16     +2534,+2534,+2534,+2534
   \              E609        
   \   000018EC   E609E609E609       DC16     +2534,+2534,+2534,+2534
   \              E609        
   \   000018F4   E609E609E609       DC16     +2534,+2534,+2534,+2534
   \              E609        
   \   000018FC   E609E609E609       DC16     +2534,+2534,+2534,+2534
   \              E609        
   \   00001904   E609E609E609       DC16     +2534,+2534,+2534,+2534
   \              E609        
   \   0000190C   E609E609E609       DC16     +2534,+2534,+2534,+2534
   \              E609        
   \   00001914   E609E609E609       DC16     +2534,+2534,+2534,+2534
   \              E609        
   \   0000191C   E609E609E609       DC16     +2534,+2534,+2534,+2534
   \              E609        
   \   00001924   E609E609E609       DC16     +2534,+2534,+2534,+2534
   \              E609        
   \   0000192C   E609E609E609       DC16     +2534,+2534,+2534,+2534
   \              E609        
   \   00001934   E609E609E609       DC16     +2534,+2534,+2534,+2534
   \              E609        
   \   0000193C   E609E609E609       DC16     +2534,+2534,+2534,+2534
   \              E609        
   \   00001944   E609E609E609       DC16     +2534,+2534,+2534,+2534
   \              E609        
   \   0000194C   E609E609E609       DC16     +2534,+2534,+2534,+2534
   \              E609        
   \   00001954   E609E609E609       DC16     +2534,+2534,+2534,+2534
   \              E609        
   \   0000195C   E609E609E609       DC16     +2534,+2534,+2534,+2534
   \              E609        
   \   00001964   E609E609E609       DC16     +2534,+2534,+2534,+2534
   \              E609        
   \   0000196C   E609E609E609       DC16     +2534,+2534,+2534,+2534
   \              E609        
   \   00001974   E609E609E609       DC16     +2534,+2534,+2534,+2534
   \              E609        
   \   0000197C   E609E609E609       DC16     +2534,+2534,+2534,+2534
   \              E609        
   \   00001984   E609E609E609       DC16     +2534,+2534,+2534,+2534
   \              E609        
   \   0000198C   E609E609E609       DC16     +2534,+2534,+2534,+2534
   \              E609        
   \   00001994   E609E609E609       DC16     +2534,+2534,+2534,+2534
   \              E609        
   \   0000199C   E609E609E609       DC16     +2534,+2534,+2534,+2534
   \              E609        
   \   000019A4   E609E609E609       DC16     +2534,+2534,+2534,+2534
   \              E609        
   \   000019AC   E609E609E609       DC16     +2534,+2534,+2534,+2534
   \              E609        
   \   000019B4   E609E609E609       DC16     +2534,+2534,+2534,+2534
   \              E609        
   \   000019BC   E609E609E609       DC16     +2534,+2534,+2534,+2534
   \              E609        
   \   000019C4   E609E609E609       DC16     +2534,+2534,+2534,+2534
   \              E609        
   \   000019CC   E609E609E609       DC16     +2534,+2534,+2534,+2534
   \              E609        
   \   000019D4   E609E609E609       DC16     +2534,+2534,+2534,+2534
   \              E609        
   \   000019DC   E609E609E609       DC16     +2534,+2534,+2534,+2534
   \              E609        
   \   000019E4   E609E609E609       DC16     +2534,+2534,+2534,+2534
   \              E609        
   \   000019EC   E609E609E609       DC16     +2534,+2534,+2534,+2534
   \              E609        
   \   000019F4   E609E609E609       DC16     +2534,+2534,+2534,+2534
   \              E609        
   \   000019FC   E609E609E609       DC16     +2534,+2534,+2534,+2534
   \              E609        
   \   00001A04   E609E609E609       DC16     +2534,+2534,+2534,+2534
   \              E609        
   \   00001A0C   E609E609E609       DC16     +2534,+2534,+2534,+2534
   \              E609        
   \   00001A14   E609E609E609       DC16     +2534,+2534,+2534,+2534
   \              E609        
   \   00001A1C   E609E609E609       DC16     +2534,+2534,+2534,+2534
   \              E609        
   \   00001A24   E609E609E609       DC16     +2534,+2534,+2534,+2534
   \              E609        
   \   00001A2C   E609E609E609       DC16     +2534,+2534,+2534,+2534
   \              E609        
   \   00001A34   E609E609E609       DC16     +2534,+2534,+2534,+2534
   \              E609        
   \   00001A3C   E609E609E609       DC16     +2534,+2534,+2534,+2534
   \              E609        
   \   00001A44   E609E609E609       DC16     +2534,+2534,+2534,+2534
   \              E609        
   \   00001A4C   E609E609E609       DC16     +2534,+2534,+2534,+2534
   \              E609        
   \   00001A54   E609E609E609       DC16     +2534,+2534,+2534,+2534
   \              E609        
   \   00001A5C   E609E609E609       DC16     +2534,+2534,+2534,+2534
   \              E609        
   \   00001A64   E609E609E609       DC16     +2534,+2534,+2534,+2534
   \              E609        
   \   00001A6C   E609E609E609       DC16     +2534,+2534,+2534,+2534
   \              E609        
   \   00001A74   E609E609E609       DC16     +2534,+2534,+2534,+2534
   \              E609        
   \   00001A7C   E609E609E609       DC16     +2534,+2534,+2534,+2534
   \              E609        
   \   00001A84   E609E609E609       DC16     +2534,+2534,+2534,+2534
   \              E609        
   \   00001A8C   E609E609E609       DC16     +2534,+2534,+2534,+2534
   \              E609        
   \   00001A94   E609E609E609       DC16     +2534,+2534,+2534,+2534
   \              E609        
   \   00001A9C   E609E609E609       DC16     +2534,+2534,+2534,+2534
   \              E609        
   \   00001AA4   E609E609E609       DC16     +2534,+2534,+2534,+2534
   \              E609        
   \   00001AAC   E609E609E609       DC16     +2534,+2534,+2534,+2534
   \              E609        
   \   00001AB4   E609E609E609       DC16     +2534,+2534,+2534,+2534
   \              E609        
   \   00001ABC   E609E609E609       DC16     +2534,+2534,+2534,+2534
   \              E609        
   \   00001AC4   E609E609E609       DC16     +2534,+2534,+2534,+2534
   \              E609        
   \   00001ACC   E609E609E609       DC16     +2534,+2534,+2534,+2534
   \              E609        
   \   00001AD4   E609E609E609       DC16     +2534,+2534,+2534,+2534
   \              E609        
   \   00001ADC   E609E609E609       DC16     +2534,+2534,+2534,+2534
   \              E609        
   \   00001AE4   E609E609E609       DC16     +2534,+2534,+2534,+2534
   \              E609        
   \   00001AEC   E609E609E609       DC16     +2534,+2534,+2534,+2534
   \              E609        
   \   00001AF4   E609E609E609       DC16     +2534,+2534,+2534,+2534
   \              E609        
   \   00001AFC   E609E609E609       DC16     +2534,+2534,+2534,+2534
   \              E609        
   \   00001B04   E609E609E609       DC16     +2534,+2534,+2534,+2534
   \              E609        
   \   00001B0C   E609E609E609       DC16     +2534,+2534,+2534,+2534
   \              E609        
   \   00001B14   E609E609E609       DC16     +2534,+2534,+2534,+2534
   \              E609        
   \   00001B1C   E609E609E609       DC16     +2534,+2534,+2534,+2534
   \              E609        
   \   00001B24   E609E609E609       DC16     +2534,+2534,+2534,+2534
   \              E609        
   \   00001B2C   E609E609E609       DC16     +2534,+2534,+2534,+2534
   \              E609        
   \   00001B34   E609E609E609       DC16     +2534,+2534,+2534,+2534
   \              E609        
   \   00001B3C   E609E609E609       DC16     +2534,+2534,+2534,+2534
   \              E609        
   \   00001B44   E609E609E609       DC16     +2534,+2534,+2534,+2534
   \              E609        
   \   00001B4C   E609E609E609       DC16     +2534,+2534,+2534,+2534
   \              E609        
   \   00001B54   E609E609E609       DC16     +2534,+2534,+2534,+2534
   \              E609        
   \   00001B5C   E609E609E609       DC16     +2534,+2534,+2534,+2534
   \              E609        
   \   00001B64   E609E609E609       DC16     +2534,+2534,+2534,+2534
   \              E609        
   \   00001B6C   E609E609E609       DC16     +2534,+2534,+2534,+2534
   \              E609        
   \   00001B74   E609E609E609       DC16     +2534,+2534,+2534,+2534
   \              E609        
   \   00001B7C   E609E609E609       DC16     +2534,+2534,+2534,+2534
   \              E609        
   \   00001B84   E609E609E609       DC16     +2534,+2534,+2534,+2534
   \              E609        
   \   00001B8C   E609E609E609       DC16     +2534,+2534,+2534,+2534
   \              E609        
   \   00001B94   E609E609E609       DC16     +2534,+2534,+2534,+2534
   \              E609        
   \   00001B9C   E609E609E609       DC16     +2534,+2534,+2534,+2534
   \              E609        
   \   00001BA4   E609E609E609       DC16     +2534,+2534,+2534,+2534
   \              E609        
   \   00001BAC   E609E609E609       DC16     +2534,+2534,+2534,+2534
   \              E609        
   \   00001BB4   E609E609E609       DC16     +2534,+2534,+2534,+2534
   \              E609        
   \   00001BBC   E609E609E609       DC16     +2534,+2534,+2534,+2534
   \              E609        
   \   00001BC4   E609E609E609       DC16     +2534,+2534,+2534,+2534
   \              E609        
   \   00001BCC   E609E609E609       DC16     +2534,+2534,+2534,+2534
   \              E609        
   \   00001BD4   E609E609E609       DC16     +2534,+2534,+2534,+2534
   \              E609        
   \   00001BDC   E609E609E609       DC16     +2534,+2534,+2534,+2534
   \              E609        
   \   00001BE4   E609E609E609       DC16     +2534,+2534,+2534,+2534
   \              E609        
   \   00001BEC   E609E609E609       DC16     +2534,+2534,+2534,+2534
   \              E609        
   \   00001BF4   E609E609E609       DC16     +2534,+2534,+2534,+2534
   \              E609        
   \   00001BFC   E609E609E609       DC16     +2534,+2534,+2534,+2534
   \              E609        
   \   00001C04   E609E609E609       DC16     +2534,+2534,+2534,+2534
   \              E609        
   \   00001C0C   E609E609E609       DC16     +2534,+2534,+2534,+2534
   \              E609        
   \   00001C14   E609E609E609       DC16     +2534,+2534,+2534,+2534
   \              E609        
   \   00001C1C   E609E609E609       DC16     +2534,+2534,+2534,+2534
   \              E609        
   \   00001C24   E609E609E609       DC16     +2534,+2534,+2534,+2534
   \              E609        
   \   00001C2C   E609E609E609       DC16     +2534,+2534,+2534,+2534
   \              E609        
   \   00001C34   E609E609E609       DC16     +2534,+2534,+2534,+2534
   \              E609        
   \   00001C3C   E609E609E609       DC16     +2534,+2534,+2534,+2534
   \              E609        
   \   00001C44   E609E609E609       DC16     +2534,+2534,+2534,+2534
   \              E609        
   \   00001C4C   E609E609E609       DC16     +2534,+2534,+2534,+2534
   \              E609        
   \   00001C54   E609E609E609       DC16     +2534,+2534,+2534,+2534
   \              E609        
   \   00001C5C   E609E609E609       DC16     +2534,+2534,+2534,+2534
   \              E609        
   \   00001C64   E609E609E609       DC16     +2534,+2534,+2534,+2534
   \              E609        
   \   00001C6C   E609E609E609       DC16     +2534,+2534,+2534,+2534
   \              E609        
   \   00001C74   E609E609E609       DC16     +2534,+2534,+2534,+2534
   \              E609        
   \   00001C7C   E609E609E609       DC16     +2534,+2534,+2534,+2534
   \              E609        
   \   00001C84   E609E609E609       DC16     +2534,+2534,+2534,+2534
   \              E609        
   \   00001C8C   E609E609E609       DC16     +2534,+2534,+2534,+2534
   \              E609        
   \   00001C94   E609E609E609       DC16     +2534,+2534,+2534,+2534
   \              E609        
   \   00001C9C   E609E609E609       DC16     +2534,+2534,+2534,+2534
   \              E609        
   \   00001CA4   E609E609E609       DC16     +2534,+2534,+2534,+2534
   \              E609        
   \   00001CAC   E609E609E609       DC16     +2534,+2534,+2534,+2534
   \              E609        
   \   00001CB4   E609E609E609       DC16     +2534,+2534,+2534,+2534
   \              E609        
   \   00001CBC   E609E609E609       DC16     +2534,+2534,+2534,+2534
   \              E609        
   \   00001CC4   E609E609DF04       DC16     +2534,+2534,+1247,+1247
   \              DF04        
   \   00001CCC   DF04DF04DF04       DC16     +1247,+1247,+1247,+1247
   \              DF04        
   \   00001CD4   DF04DF04E609       DC16     +1247,+1247,+2534,+1284
   \              0405        
    607                      case GUI_ID_EDIT1 :
    608                          LibPutValue(SVT_ATM_PRESSURE, PROAtmReference::PROAtmRefPtr, StringBuf);
   \                     ??cbSysWin_26:
   \   00001CDC   60108DE2           ADD      R1,SP,#+96
   \   00001CE0   B0008DE2           ADD      R0,SP,#+176
   \   00001CE4   ........           _BLF     ??AnsiString_1,??AnsiString??rA_1
   \   00001CE8   0020A0E1           MOV      R2,R0
   \   00001CEC   54019FE5           LDR      R0,??cbSysWin_27  ;; ??PROAtmRefPtr
   \   00001CF0   0030A0E3           MOV      R3,#+0
   \   00001CF4   001090E5           LDR      R1,[R0, #+0]
   \   00001CF8   4700A0E3           MOV      R0,#+71
   \   00001CFC   500E80E3           ORR      R0,R0,#0x500
   \   00001D00   ........           _BLF     ??LibPutValue_1,??LibPutValue??rA_1
   \   00001D04   0020A0E3           MOV      R2,#+0
   \   00001D08   0110A0E3           MOV      R1,#+1
   \   00001D0C   B0008DE2           ADD      R0,SP,#+176
   \                     ??cbSysWin_28:
   \   00001D10   ........           _BLF     ??_Tidy,??_Tidy??rA
   \   00001D14   210500EA           B        ??cbSysWin_10
    609                          break;
    610                      case GUI_ID_EDIT2 :
    611                          LibPutValue(SVT_TRIM_M,PROSystemData::TXUSystemData,StringBuf);
   \                     ??cbSysWin_29:
   \   00001D18   60108DE2           ADD      R1,SP,#+96
   \   00001D1C   CC008DE2           ADD      R0,SP,#+204
   \   00001D20   ........           _BLF     ??AnsiString_1,??AnsiString??rA_1
   \   00001D24   001095E5           LDR      R1,[R5, #+0]
   \   00001D28   0030A0E3           MOV      R3,#+0
   \   00001D2C   0020A0E1           MOV      R2,R0
   \   00001D30   4B00A0E3           MOV      R0,#+75
   \   00001D34   500E80E3           ORR      R0,R0,#0x500
   \   00001D38   ........           _BLF     ??LibPutValue_1,??LibPutValue??rA_1
   \   00001D3C   0020A0E3           MOV      R2,#+0
   \   00001D40   0110A0E3           MOV      R1,#+1
   \   00001D44   CC008DE2           ADD      R0,SP,#+204
   \   00001D48   F0FFFFEA           B        ??cbSysWin_28
    612                          break;
    613                      case GUI_ID_EDIT3 :
    614                          LibPutValue(SVT_LIST_ANGLE,PROSystemData::TXUSystemData,StringBuf);
   \                     ??cbSysWin_30:
   \   00001D4C   60108DE2           ADD      R1,SP,#+96
   \   00001D50   38008DE2           ADD      R0,SP,#+56
   \   00001D54   ........           _BLF     ??AnsiString_1,??AnsiString??rA_1
   \   00001D58   001095E5           LDR      R1,[R5, #+0]
   \   00001D5C   0030A0E3           MOV      R3,#+0
   \   00001D60   0020A0E1           MOV      R2,R0
   \   00001D64   5200A0E3           MOV      R0,#+82
   \   00001D68   500E80E3           ORR      R0,R0,#0x500
   \   00001D6C   ........           _BLF     ??LibPutValue_1,??LibPutValue??rA_1
   \   00001D70   0020A0E3           MOV      R2,#+0
   \   00001D74   0110A0E3           MOV      R1,#+1
   \   00001D78   38008DE2           ADD      R0,SP,#+56
   \                     ??cbSysWin_31:
   \   00001D7C   ........           _BLF     ??_Tidy,??_Tidy??rA
   \   00001D80   060500EA           B        ??cbSysWin_10
    615                          break;
    616                      case GUI_ID_EDIT11:
    617                      case GUI_ID_EDIT12:
    618                      case GUI_ID_EDIT13:
    619                      case GUI_ID_EDIT14:
    620                      case GUI_ID_EDIT15:
    621                      case GUI_ID_EDIT16:
    622                      case GUI_ID_EDIT17:
    623                      case GUI_ID_EDIT18:
    624                          {
    625                              int ValKey;
    626                              switch(ValueId){
   \                     ??cbSysWin_32:
   \   00001D84   634044E2           SUB      R4,R4,#+99
   \   00001D88   A04E44E2           SUB      R4,R4,#+2560
   \   00001D8C   070054E3           CMP      R4,#+7
   \   00001D90   1400008A           BHI      ??cbSysWin_33
   \   00001D94   010F8FE2           ADR      R0,??cbSysWin_4
   \   00001D98   0400D0E7           LDRB     R0,[R0, R4]
   \   00001D9C   00F18FE0           ADD      PC,PC,R0, LSL #+2
   \                     ??cbSysWin_4:
   \   00001DA0   01030507           DC8      +1,+3,+5,+7
   \   00001DA4   090B0D0F           DC8      +9,+11,+13,+15
    627                              case GUI_ID_EDIT11:ValKey = SVT_DA ;break;
   \                     ??cbSysWin_34:
   \   00001DA8   E350A0E3           MOV      R5,#+227
   \   00001DAC   0C0000EA           B        ??cbSysWin_35
    628                              case GUI_ID_EDIT12:ValKey = SVT_DP ;break;
   \                     ??cbSysWin_36:
   \   00001DB0   E750A0E3           MOV      R5,#+231
   \   00001DB4   0A0000EA           B        ??cbSysWin_35
    629                              case GUI_ID_EDIT13:ValKey = SVT_DS ;break;
   \                     ??cbSysWin_37:
   \   00001DB8   E650A0E3           MOV      R5,#+230
   \   00001DBC   080000EA           B        ??cbSysWin_35
    630                              case GUI_ID_EDIT14:ValKey = SVT_DF ;break;
   \                     ??cbSysWin_38:
   \   00001DC0   5E5EA0E3           MOV      R5,#+1504
   \   00001DC4   070000EA           B        ??cbSysWin_33
    631                              case GUI_ID_EDIT15:ValKey = SVT_DFP;break;
   \                     ??cbSysWin_39:
   \   00001DC8   E850A0E3           MOV      R5,#+232
   \   00001DCC   040000EA           B        ??cbSysWin_35
    632                              case GUI_ID_EDIT16:ValKey = SVT_DFS;break;
   \                     ??cbSysWin_40:
   \   00001DD0   E950A0E3           MOV      R5,#+233
   \   00001DD4   020000EA           B        ??cbSysWin_35
    633                              case GUI_ID_EDIT17:ValKey = SVT_DAP;break;
   \                     ??cbSysWin_41:
   \   00001DD8   EC50A0E3           MOV      R5,#+236
   \   00001DDC   000000EA           B        ??cbSysWin_35
    634                              case GUI_ID_EDIT18:ValKey = SVT_DAS;break;
   \                     ??cbSysWin_42:
   \   00001DE0   ED50A0E3           MOV      R5,#+237
   \                     ??cbSysWin_35:
   \   00001DE4   505E85E3           ORR      R5,R5,#0x500
    635                              }
    636                              LibPutValue(ValKey,PRODraftSystem::PRODraftSysPtr,StringBuf);
   \                     ??cbSysWin_33:
   \   00001DE8   60108DE2           ADD      R1,SP,#+96
   \   00001DEC   0D00A0E1           MOV      R0,SP
   \   00001DF0   ........           _BLF     ??AnsiString_1,??AnsiString??rA_1
   \   00001DF4   001096E5           LDR      R1,[R6, #+0]
   \   00001DF8   0030A0E3           MOV      R3,#+0
   \   00001DFC   0020A0E1           MOV      R2,R0
   \   00001E00   0500A0E1           MOV      R0,R5
   \   00001E04   ........           _BLF     ??LibPutValue_1,??LibPutValue??rA_1
   \   00001E08   0020A0E3           MOV      R2,#+0
   \   00001E0C   0110A0E3           MOV      R1,#+1
   \   00001E10   0D00A0E1           MOV      R0,SP
   \   00001E14   BDFFFFEA           B        ??cbSysWin_28
    637                          }
    638                          break;
    639                      case GUI_ID_EDIT20:
    640                          LibPutValue(SVT_SEAWATER_DNS,PROSystemData::TXUSystemData,StringBuf);
   \                     ??cbSysWin_43:
   \   00001E18   60108DE2           ADD      R1,SP,#+96
   \   00001E1C   1C008DE2           ADD      R0,SP,#+28
   \   00001E20   ........           _BLF     ??AnsiString_1,??AnsiString??rA_1
   \   00001E24   001095E5           LDR      R1,[R5, #+0]
   \   00001E28   0030A0E3           MOV      R3,#+0
   \   00001E2C   0020A0E1           MOV      R2,R0
   \   00001E30   5A0E88E3           ORR      R0,R8,#0x5A0
   \   00001E34   ........           _BLF     ??LibPutValue_1,??LibPutValue??rA_1
   \   00001E38   0020A0E3           MOV      R2,#+0
   \   00001E3C   0110A0E3           MOV      R1,#+1
   \   00001E40   1C008DE2           ADD      R0,SP,#+28
   \   00001E44   CCFFFFEA           B        ??cbSysWin_31
   \                     ??cbSysWin_27:
   \   00001E48   ........           DC32     ??PROAtmRefPtr
    641                          break;
    642                      }
    643                  }
    644                  break;
    645              case WM_TOUCH_CHILD:
    646                  {
    647                      GUI_PID_STATE State;
    648                      /* Wait until touch is pressed */
    649                      GUI_TOUCH_GetState(&State);
   \                     ??cbSysWin_44:
   \   00001E4C   54008DE2           ADD      R0,SP,#+84
   \   00001E50   ........           _BLF     GUI_TOUCH_GetState,??GUI_TOUCH_GetState??rA
    650                      if ( State.Pressed == 1 ) {
   \   00001E54   5C00DDE5           LDRB     R0,[SP, #+92]
   \   00001E58   010050E3           CMP      R0,#+1
   \   00001E5C   CF04001A           BNE      ??cbSysWin_10
    651                          Id    = WM_GetId(pMsg->hWinSrc);        /* Id of widget */
   \   00001E60   F600D9E1           LDRSH    R0,[R9, #+6]
   \   00001E64   ........           _BLF     WM_GetId,??WM_GetId??rA
   \   00001E68   0050A0E1           MOV      R5,R0
    652                          NCode = pMsg->Data.v;                               /* Notification code */
    653                          switch ( Id ) {
   \   00001E6C   010040E2           SUB      R0,R0,#+1
   \   00001E70   400F40E2           SUB      R0,R0,#+256
   \   00001E74   6B10A0E3           MOV      R1,#+107
   \   00001E78   901E81E3           ORR      R1,R1,#0x900
   \   00001E7C   010050E1           CMP      R0,R1
   \   00001E80   C604008A           BHI      ??cbSysWin_10
   \   00001E84   021F8FE2           ADR      R1,??cbSysWin_5
   \   00001E88   8000A0E1           MOV      R0,R0, LSL #+1
   \   00001E8C   B01091E1           LDRH     R1,[R1, R0]
   \   00001E90   01F18FE0           ADD      PC,PC,R1, LSL #+2
   \                     ??cbSysWin_5:
   \   00001E94   B504BB04C504       DC16     +1205,+1211,+1221,+1218
   \              C204        
   \   00001E9C   C204C204C204       DC16     +1218,+1218,+1218,+1218
   \              C204        
   \   00001EA4   C204C204C204       DC16     +1218,+1218,+1218,+1218
   \              C204        
   \   00001EAC   C204C204C204       DC16     +1218,+1218,+1218,+1218
   \              C204        
   \   00001EB4   C204C204C204       DC16     +1218,+1218,+1218,+1218
   \              C204        
   \   00001EBC   C204C204C204       DC16     +1218,+1218,+1218,+1218
   \              C204        
   \   00001EC4   C204C204C204       DC16     +1218,+1218,+1218,+1218
   \              C204        
   \   00001ECC   C204C204C204       DC16     +1218,+1218,+1218,+1218
   \              C204        
   \   00001ED4   C204C204C204       DC16     +1218,+1218,+1218,+1218
   \              C204        
   \   00001EDC   C204C204C204       DC16     +1218,+1218,+1218,+1218
   \              C204        
   \   00001EE4   C204C204C204       DC16     +1218,+1218,+1218,+1218
   \              C204        
   \   00001EEC   C204C204C204       DC16     +1218,+1218,+1218,+1218
   \              C204        
   \   00001EF4   C204C204C204       DC16     +1218,+1218,+1218,+1218
   \              C204        
   \   00001EFC   C204C204C204       DC16     +1218,+1218,+1218,+1218
   \              C204        
   \   00001F04   C204C204C204       DC16     +1218,+1218,+1218,+1218
   \              C204        
   \   00001F0C   C204C204C204       DC16     +1218,+1218,+1218,+1218
   \              C204        
   \   00001F14   C204C204C204       DC16     +1218,+1218,+1218,+1218
   \              C204        
   \   00001F1C   C204C204C204       DC16     +1218,+1218,+1218,+1218
   \              C204        
   \   00001F24   C204C204C204       DC16     +1218,+1218,+1218,+1218
   \              C204        
   \   00001F2C   C204C204C204       DC16     +1218,+1218,+1218,+1218
   \              C204        
   \   00001F34   C204C204C204       DC16     +1218,+1218,+1218,+1218
   \              C204        
   \   00001F3C   C204C204C204       DC16     +1218,+1218,+1218,+1218
   \              C204        
   \   00001F44   C204C204C204       DC16     +1218,+1218,+1218,+1218
   \              C204        
   \   00001F4C   C204C204C204       DC16     +1218,+1218,+1218,+1218
   \              C204        
   \   00001F54   C204C204C204       DC16     +1218,+1218,+1218,+1218
   \              C204        
   \   00001F5C   C204C204C204       DC16     +1218,+1218,+1218,+1218
   \              C204        
   \   00001F64   C204C204C204       DC16     +1218,+1218,+1218,+1218
   \              C204        
   \   00001F6C   C204C204C204       DC16     +1218,+1218,+1218,+1218
   \              C204        
   \   00001F74   C204C204C204       DC16     +1218,+1218,+1218,+1218
   \              C204        
   \   00001F7C   C204C204C204       DC16     +1218,+1218,+1218,+1218
   \              C204        
   \   00001F84   C204C204C204       DC16     +1218,+1218,+1218,+1218
   \              C204        
   \   00001F8C   C204C204C204       DC16     +1218,+1218,+1218,+1218
   \              C204        
   \   00001F94   C204C204C204       DC16     +1218,+1218,+1218,+1218
   \              C204        
   \   00001F9C   C204C204C204       DC16     +1218,+1218,+1218,+1218
   \              C204        
   \   00001FA4   C204C204C204       DC16     +1218,+1218,+1218,+1218
   \              C204        
   \   00001FAC   C204C204C204       DC16     +1218,+1218,+1218,+1218
   \              C204        
   \   00001FB4   C204C204C204       DC16     +1218,+1218,+1218,+1218
   \              C204        
   \   00001FBC   C204C204C204       DC16     +1218,+1218,+1218,+1218
   \              C204        
   \   00001FC4   C204C204C204       DC16     +1218,+1218,+1218,+1218
   \              C204        
   \   00001FCC   C204C204C204       DC16     +1218,+1218,+1218,+1218
   \              C204        
   \   00001FD4   C204C204C204       DC16     +1218,+1218,+1218,+1218
   \              C204        
   \   00001FDC   C204C204C204       DC16     +1218,+1218,+1218,+1218
   \              C204        
   \   00001FE4   C204C204C204       DC16     +1218,+1218,+1218,+1218
   \              C204        
   \   00001FEC   C204C204C204       DC16     +1218,+1218,+1218,+1218
   \              C204        
   \   00001FF4   C204C204C204       DC16     +1218,+1218,+1218,+1218
   \              C204        
   \   00001FFC   C204C204C204       DC16     +1218,+1218,+1218,+1218
   \              C204        
   \   00002004   C204C204C204       DC16     +1218,+1218,+1218,+1218
   \              C204        
   \   0000200C   C204C204C204       DC16     +1218,+1218,+1218,+1218
   \              C204        
   \   00002014   C204C204C204       DC16     +1218,+1218,+1218,+1218
   \              C204        
   \   0000201C   C204C204C204       DC16     +1218,+1218,+1218,+1218
   \              C204        
   \   00002024   C204C204C204       DC16     +1218,+1218,+1218,+1218
   \              C204        
   \   0000202C   C204C204C204       DC16     +1218,+1218,+1218,+1218
   \              C204        
   \   00002034   C204C204C204       DC16     +1218,+1218,+1218,+1218
   \              C204        
   \   0000203C   C204C204C204       DC16     +1218,+1218,+1218,+1218
   \              C204        
   \   00002044   C204C204C204       DC16     +1218,+1218,+1218,+1218
   \              C204        
   \   0000204C   C204C204C204       DC16     +1218,+1218,+1218,+1218
   \              C204        
   \   00002054   C204C204C204       DC16     +1218,+1218,+1218,+1218
   \              C204        
   \   0000205C   C204C204C204       DC16     +1218,+1218,+1218,+1218
   \              C204        
   \   00002064   C204C204C204       DC16     +1218,+1218,+1218,+1218
   \              C204        
   \   0000206C   C204C204C204       DC16     +1218,+1218,+1218,+1218
   \              C204        
   \   00002074   C204C204C204       DC16     +1218,+1218,+1218,+1218
   \              C204        
   \   0000207C   C204C204C204       DC16     +1218,+1218,+1218,+1218
   \              C204        
   \   00002084   C204C204C204       DC16     +1218,+1218,+1218,+1218
   \              C204        
   \   0000208C   C204C204C204       DC16     +1218,+1218,+1218,+1218
   \              C204        
   \   00002094   C204C204C204       DC16     +1218,+1218,+1218,+1218
   \              C204        
   \   0000209C   C204C204C204       DC16     +1218,+1218,+1218,+1218
   \              C204        
   \   000020A4   C204C204C204       DC16     +1218,+1218,+1218,+1218
   \              C204        
   \   000020AC   C204C204C204       DC16     +1218,+1218,+1218,+1218
   \              C204        
   \   000020B4   C204C204C204       DC16     +1218,+1218,+1218,+1218
   \              C204        
   \   000020BC   C204C204C204       DC16     +1218,+1218,+1218,+1218
   \              C204        
   \   000020C4   C204C204C204       DC16     +1218,+1218,+1218,+1218
   \              C204        
   \   000020CC   C204C204C204       DC16     +1218,+1218,+1218,+1218
   \              C204        
   \   000020D4   C204C204C204       DC16     +1218,+1218,+1218,+1218
   \              C204        
   \   000020DC   C204C204C204       DC16     +1218,+1218,+1218,+1218
   \              C204        
   \   000020E4   C204C204C204       DC16     +1218,+1218,+1218,+1218
   \              C204        
   \   000020EC   C204C204C204       DC16     +1218,+1218,+1218,+1218
   \              C204        
   \   000020F4   C204C204C204       DC16     +1218,+1218,+1218,+1218
   \              C204        
   \   000020FC   C204C204C204       DC16     +1218,+1218,+1218,+1218
   \              C204        
   \   00002104   C204C204C204       DC16     +1218,+1218,+1218,+1218
   \              C204        
   \   0000210C   C204C204C204       DC16     +1218,+1218,+1218,+1218
   \              C204        
   \   00002114   C204C204C204       DC16     +1218,+1218,+1218,+1218
   \              C204        
   \   0000211C   C204C204C204       DC16     +1218,+1218,+1218,+1218
   \              C204        
   \   00002124   C204C204C204       DC16     +1218,+1218,+1218,+1218
   \              C204        
   \   0000212C   C204C204C204       DC16     +1218,+1218,+1218,+1218
   \              C204        
   \   00002134   C204C204C204       DC16     +1218,+1218,+1218,+1218
   \              C204        
   \   0000213C   C204C204C204       DC16     +1218,+1218,+1218,+1218
   \              C204        
   \   00002144   C204C204C204       DC16     +1218,+1218,+1218,+1218
   \              C204        
   \   0000214C   C204C204C204       DC16     +1218,+1218,+1218,+1218
   \              C204        
   \   00002154   C204C204C204       DC16     +1218,+1218,+1218,+1218
   \              C204        
   \   0000215C   C204C204C204       DC16     +1218,+1218,+1218,+1218
   \              C204        
   \   00002164   C204C204C204       DC16     +1218,+1218,+1218,+1218
   \              C204        
   \   0000216C   C204C204C204       DC16     +1218,+1218,+1218,+1218
   \              C204        
   \   00002174   C204C204C204       DC16     +1218,+1218,+1218,+1218
   \              C204        
   \   0000217C   C204C204C204       DC16     +1218,+1218,+1218,+1218
   \              C204        
   \   00002184   C204C204C204       DC16     +1218,+1218,+1218,+1218
   \              C204        
   \   0000218C   C204C204C204       DC16     +1218,+1218,+1218,+1218
   \              C204        
   \   00002194   C204C204C204       DC16     +1218,+1218,+1218,+1218
   \              C204        
   \   0000219C   C204C204C204       DC16     +1218,+1218,+1218,+1218
   \              C204        
   \   000021A4   C204C204C204       DC16     +1218,+1218,+1218,+1218
   \              C204        
   \   000021AC   C204C204C204       DC16     +1218,+1218,+1218,+1218
   \              C204        
   \   000021B4   C204C204C204       DC16     +1218,+1218,+1218,+1218
   \              C204        
   \   000021BC   C204C204C204       DC16     +1218,+1218,+1218,+1218
   \              C204        
   \   000021C4   C204C204C204       DC16     +1218,+1218,+1218,+1218
   \              C204        
   \   000021CC   C204C204C204       DC16     +1218,+1218,+1218,+1218
   \              C204        
   \   000021D4   C204C204C204       DC16     +1218,+1218,+1218,+1218
   \              C204        
   \   000021DC   C204C204C204       DC16     +1218,+1218,+1218,+1218
   \              C204        
   \   000021E4   C204C204C204       DC16     +1218,+1218,+1218,+1218
   \              C204        
   \   000021EC   C204C204C204       DC16     +1218,+1218,+1218,+1218
   \              C204        
   \   000021F4   C204C204C204       DC16     +1218,+1218,+1218,+1218
   \              C204        
   \   000021FC   C204C204C204       DC16     +1218,+1218,+1218,+1218
   \              C204        
   \   00002204   C204C204C204       DC16     +1218,+1218,+1218,+1218
   \              C204        
   \   0000220C   C204C204C204       DC16     +1218,+1218,+1218,+1218
   \              C204        
   \   00002214   C204C204C204       DC16     +1218,+1218,+1218,+1218
   \              C204        
   \   0000221C   C204C204C204       DC16     +1218,+1218,+1218,+1218
   \              C204        
   \   00002224   C204C204C204       DC16     +1218,+1218,+1218,+1218
   \              C204        
   \   0000222C   C204C204C204       DC16     +1218,+1218,+1218,+1218
   \              C204        
   \   00002234   C204C204C204       DC16     +1218,+1218,+1218,+1218
   \              C204        
   \   0000223C   C204C204C204       DC16     +1218,+1218,+1218,+1218
   \              C204        
   \   00002244   C204C204C204       DC16     +1218,+1218,+1218,+1218
   \              C204        
   \   0000224C   C204C204C204       DC16     +1218,+1218,+1218,+1218
   \              C204        
   \   00002254   C204C204C204       DC16     +1218,+1218,+1218,+1218
   \              C204        
   \   0000225C   C204C204C204       DC16     +1218,+1218,+1218,+1218
   \              C204        
   \   00002264   C204C204C204       DC16     +1218,+1218,+1218,+1218
   \              C204        
   \   0000226C   C204C204C204       DC16     +1218,+1218,+1218,+1218
   \              C204        
   \   00002274   C204C204C204       DC16     +1218,+1218,+1218,+1218
   \              C204        
   \   0000227C   C204C204C204       DC16     +1218,+1218,+1218,+1218
   \              C204        
   \   00002284   C204C204C204       DC16     +1218,+1218,+1218,+1218
   \              C204        
   \   0000228C   C204C204C204       DC16     +1218,+1218,+1218,+1218
   \              C204        
   \   00002294   C204C204C204       DC16     +1218,+1218,+1218,+1218
   \              C204        
   \   0000229C   C204C204C204       DC16     +1218,+1218,+1218,+1218
   \              C204        
   \   000022A4   C204C204C204       DC16     +1218,+1218,+1218,+1218
   \              C204        
   \   000022AC   C204C204C204       DC16     +1218,+1218,+1218,+1218
   \              C204        
   \   000022B4   C204C204C204       DC16     +1218,+1218,+1218,+1218
   \              C204        
   \   000022BC   C204C204C204       DC16     +1218,+1218,+1218,+1218
   \              C204        
   \   000022C4   C204C204C204       DC16     +1218,+1218,+1218,+1218
   \              C204        
   \   000022CC   C204C204C204       DC16     +1218,+1218,+1218,+1218
   \              C204        
   \   000022D4   C204C204C204       DC16     +1218,+1218,+1218,+1218
   \              C204        
   \   000022DC   C204C204C204       DC16     +1218,+1218,+1218,+1218
   \              C204        
   \   000022E4   C204C204C204       DC16     +1218,+1218,+1218,+1218
   \              C204        
   \   000022EC   C204C204C204       DC16     +1218,+1218,+1218,+1218
   \              C204        
   \   000022F4   C204C204C204       DC16     +1218,+1218,+1218,+1218
   \              C204        
   \   000022FC   C204C204C204       DC16     +1218,+1218,+1218,+1218
   \              C204        
   \   00002304   C204C204C204       DC16     +1218,+1218,+1218,+1218
   \              C204        
   \   0000230C   C204C204C204       DC16     +1218,+1218,+1218,+1218
   \              C204        
   \   00002314   C204C204C204       DC16     +1218,+1218,+1218,+1218
   \              C204        
   \   0000231C   C204C204C204       DC16     +1218,+1218,+1218,+1218
   \              C204        
   \   00002324   C204C204C204       DC16     +1218,+1218,+1218,+1218
   \              C204        
   \   0000232C   C204C204C204       DC16     +1218,+1218,+1218,+1218
   \              C204        
   \   00002334   C204C204C204       DC16     +1218,+1218,+1218,+1218
   \              C204        
   \   0000233C   C204C204C204       DC16     +1218,+1218,+1218,+1218
   \              C204        
   \   00002344   C204C204C204       DC16     +1218,+1218,+1218,+1218
   \              C204        
   \   0000234C   C204C204C204       DC16     +1218,+1218,+1218,+1218
   \              C204        
   \   00002354   C204C204C204       DC16     +1218,+1218,+1218,+1218
   \              C204        
   \   0000235C   C204C204C204       DC16     +1218,+1218,+1218,+1218
   \              C204        
   \   00002364   C204C204C204       DC16     +1218,+1218,+1218,+1218
   \              C204        
   \   0000236C   C204C204C204       DC16     +1218,+1218,+1218,+1218
   \              C204        
   \   00002374   C204C204C204       DC16     +1218,+1218,+1218,+1218
   \              C204        
   \   0000237C   C204C204C204       DC16     +1218,+1218,+1218,+1218
   \              C204        
   \   00002384   C204C204C204       DC16     +1218,+1218,+1218,+1218
   \              C204        
   \   0000238C   C204C204C204       DC16     +1218,+1218,+1218,+1218
   \              C204        
   \   00002394   C204C204C204       DC16     +1218,+1218,+1218,+1218
   \              C204        
   \   0000239C   C204C204C204       DC16     +1218,+1218,+1218,+1218
   \              C204        
   \   000023A4   C204C204C204       DC16     +1218,+1218,+1218,+1218
   \              C204        
   \   000023AC   C204C204C204       DC16     +1218,+1218,+1218,+1218
   \              C204        
   \   000023B4   C204C204C204       DC16     +1218,+1218,+1218,+1218
   \              C204        
   \   000023BC   C204C204C204       DC16     +1218,+1218,+1218,+1218
   \              C204        
   \   000023C4   C204C204C204       DC16     +1218,+1218,+1218,+1218
   \              C204        
   \   000023CC   C204C204C204       DC16     +1218,+1218,+1218,+1218
   \              C204        
   \   000023D4   C204C204C204       DC16     +1218,+1218,+1218,+1218
   \              C204        
   \   000023DC   C204C204C204       DC16     +1218,+1218,+1218,+1218
   \              C204        
   \   000023E4   C204C204C204       DC16     +1218,+1218,+1218,+1218
   \              C204        
   \   000023EC   C204C204C204       DC16     +1218,+1218,+1218,+1218
   \              C204        
   \   000023F4   C204C204C204       DC16     +1218,+1218,+1218,+1218
   \              C204        
   \   000023FC   C204C204C204       DC16     +1218,+1218,+1218,+1218
   \              C204        
   \   00002404   C204C204C204       DC16     +1218,+1218,+1218,+1218
   \              C204        
   \   0000240C   C204C204C204       DC16     +1218,+1218,+1218,+1218
   \              C204        
   \   00002414   C204C204C204       DC16     +1218,+1218,+1218,+1218
   \              C204        
   \   0000241C   C204C204C204       DC16     +1218,+1218,+1218,+1218
   \              C204        
   \   00002424   C204C204C204       DC16     +1218,+1218,+1218,+1218
   \              C204        
   \   0000242C   C204C204C204       DC16     +1218,+1218,+1218,+1218
   \              C204        
   \   00002434   C204C204C204       DC16     +1218,+1218,+1218,+1218
   \              C204        
   \   0000243C   C204C204C204       DC16     +1218,+1218,+1218,+1218
   \              C204        
   \   00002444   C204C204C204       DC16     +1218,+1218,+1218,+1218
   \              C204        
   \   0000244C   C204C204C204       DC16     +1218,+1218,+1218,+1218
   \              C204        
   \   00002454   C204C204C204       DC16     +1218,+1218,+1218,+1218
   \              C204        
   \   0000245C   C204C204C204       DC16     +1218,+1218,+1218,+1218
   \              C204        
   \   00002464   C204C204C204       DC16     +1218,+1218,+1218,+1218
   \              C204        
   \   0000246C   C204C204C204       DC16     +1218,+1218,+1218,+1218
   \              C204        
   \   00002474   C204C204C204       DC16     +1218,+1218,+1218,+1218
   \              C204        
   \   0000247C   C204C204C204       DC16     +1218,+1218,+1218,+1218
   \              C204        
   \   00002484   C204C204C204       DC16     +1218,+1218,+1218,+1218
   \              C204        
   \   0000248C   C204C204C204       DC16     +1218,+1218,+1218,+1218
   \              C204        
   \   00002494   C204C204C204       DC16     +1218,+1218,+1218,+1218
   \              C204        
   \   0000249C   C204C204C204       DC16     +1218,+1218,+1218,+1218
   \              C204        
   \   000024A4   C204C204C204       DC16     +1218,+1218,+1218,+1218
   \              C204        
   \   000024AC   C204C204C204       DC16     +1218,+1218,+1218,+1218
   \              C204        
   \   000024B4   C204C204C204       DC16     +1218,+1218,+1218,+1218
   \              C204        
   \   000024BC   C204C204C204       DC16     +1218,+1218,+1218,+1218
   \              C204        
   \   000024C4   C204C204C204       DC16     +1218,+1218,+1218,+1218
   \              C204        
   \   000024CC   C204C204C204       DC16     +1218,+1218,+1218,+1218
   \              C204        
   \   000024D4   C204C204C204       DC16     +1218,+1218,+1218,+1218
   \              C204        
   \   000024DC   C204C204C204       DC16     +1218,+1218,+1218,+1218
   \              C204        
   \   000024E4   C204C204C204       DC16     +1218,+1218,+1218,+1218
   \              C204        
   \   000024EC   C204C204C204       DC16     +1218,+1218,+1218,+1218
   \              C204        
   \   000024F4   C204C204C204       DC16     +1218,+1218,+1218,+1218
   \              C204        
   \   000024FC   C204C204C204       DC16     +1218,+1218,+1218,+1218
   \              C204        
   \   00002504   C204C204C204       DC16     +1218,+1218,+1218,+1218
   \              C204        
   \   0000250C   C204C204C204       DC16     +1218,+1218,+1218,+1218
   \              C204        
   \   00002514   C204C204C204       DC16     +1218,+1218,+1218,+1218
   \              C204        
   \   0000251C   C204C204C204       DC16     +1218,+1218,+1218,+1218
   \              C204        
   \   00002524   C204C204C204       DC16     +1218,+1218,+1218,+1218
   \              C204        
   \   0000252C   C204C204C204       DC16     +1218,+1218,+1218,+1218
   \              C204        
   \   00002534   C204C204C204       DC16     +1218,+1218,+1218,+1218
   \              C204        
   \   0000253C   C204C204C204       DC16     +1218,+1218,+1218,+1218
   \              C204        
   \   00002544   C204C204C204       DC16     +1218,+1218,+1218,+1218
   \              C204        
   \   0000254C   C204C204C204       DC16     +1218,+1218,+1218,+1218
   \              C204        
   \   00002554   C204C204C204       DC16     +1218,+1218,+1218,+1218
   \              C204        
   \   0000255C   C204C204C204       DC16     +1218,+1218,+1218,+1218
   \              C204        
   \   00002564   C204C204C204       DC16     +1218,+1218,+1218,+1218
   \              C204        
   \   0000256C   C204C204C204       DC16     +1218,+1218,+1218,+1218
   \              C204        
   \   00002574   C204C204C204       DC16     +1218,+1218,+1218,+1218
   \              C204        
   \   0000257C   C204C204C204       DC16     +1218,+1218,+1218,+1218
   \              C204        
   \   00002584   C204C204C204       DC16     +1218,+1218,+1218,+1218
   \              C204        
   \   0000258C   C204C204C204       DC16     +1218,+1218,+1218,+1218
   \              C204        
   \   00002594   C204C204C204       DC16     +1218,+1218,+1218,+1218
   \              C204        
   \   0000259C   C204C204C204       DC16     +1218,+1218,+1218,+1218
   \              C204        
   \   000025A4   C204C204C204       DC16     +1218,+1218,+1218,+1218
   \              C204        
   \   000025AC   C204C204C204       DC16     +1218,+1218,+1218,+1218
   \              C204        
   \   000025B4   C204C204C204       DC16     +1218,+1218,+1218,+1218
   \              C204        
   \   000025BC   C204C204C204       DC16     +1218,+1218,+1218,+1218
   \              C204        
   \   000025C4   C204C204C204       DC16     +1218,+1218,+1218,+1218
   \              C204        
   \   000025CC   C204C204C204       DC16     +1218,+1218,+1218,+1218
   \              C204        
   \   000025D4   C204C204C204       DC16     +1218,+1218,+1218,+1218
   \              C204        
   \   000025DC   C204C204C204       DC16     +1218,+1218,+1218,+1218
   \              C204        
   \   000025E4   C204C204C204       DC16     +1218,+1218,+1218,+1218
   \              C204        
   \   000025EC   C204C204C204       DC16     +1218,+1218,+1218,+1218
   \              C204        
   \   000025F4   C204C204C204       DC16     +1218,+1218,+1218,+1218
   \              C204        
   \   000025FC   C204C204C204       DC16     +1218,+1218,+1218,+1218
   \              C204        
   \   00002604   C204C204C204       DC16     +1218,+1218,+1218,+1218
   \              C204        
   \   0000260C   C204C204C204       DC16     +1218,+1218,+1218,+1218
   \              C204        
   \   00002614   C204C204C204       DC16     +1218,+1218,+1218,+1218
   \              C204        
   \   0000261C   C204C204C204       DC16     +1218,+1218,+1218,+1218
   \              C204        
   \   00002624   C204C204C204       DC16     +1218,+1218,+1218,+1218
   \              C204        
   \   0000262C   C204C204C204       DC16     +1218,+1218,+1218,+1218
   \              C204        
   \   00002634   C204C204C204       DC16     +1218,+1218,+1218,+1218
   \              C204        
   \   0000263C   C204C204C204       DC16     +1218,+1218,+1218,+1218
   \              C204        
   \   00002644   C204C204C204       DC16     +1218,+1218,+1218,+1218
   \              C204        
   \   0000264C   C204C204C204       DC16     +1218,+1218,+1218,+1218
   \              C204        
   \   00002654   C204C204C204       DC16     +1218,+1218,+1218,+1218
   \              C204        
   \   0000265C   C204C204C204       DC16     +1218,+1218,+1218,+1218
   \              C204        
   \   00002664   C204C204C204       DC16     +1218,+1218,+1218,+1218
   \              C204        
   \   0000266C   C204C204C204       DC16     +1218,+1218,+1218,+1218
   \              C204        
   \   00002674   C204C204C204       DC16     +1218,+1218,+1218,+1218
   \              C204        
   \   0000267C   C204C204C204       DC16     +1218,+1218,+1218,+1218
   \              C204        
   \   00002684   C204C204C204       DC16     +1218,+1218,+1218,+1218
   \              C204        
   \   0000268C   C204C204C204       DC16     +1218,+1218,+1218,+1218
   \              C204        
   \   00002694   C204C204C204       DC16     +1218,+1218,+1218,+1218
   \              C204        
   \   0000269C   C204C204C204       DC16     +1218,+1218,+1218,+1218
   \              C204        
   \   000026A4   C204C204C204       DC16     +1218,+1218,+1218,+1218
   \              C204        
   \   000026AC   C204C204C204       DC16     +1218,+1218,+1218,+1218
   \              C204        
   \   000026B4   C204C204C204       DC16     +1218,+1218,+1218,+1218
   \              C204        
   \   000026BC   C204C204C204       DC16     +1218,+1218,+1218,+1218
   \              C204        
   \   000026C4   C204C204C204       DC16     +1218,+1218,+1218,+1218
   \              C204        
   \   000026CC   C204C204C204       DC16     +1218,+1218,+1218,+1218
   \              C204        
   \   000026D4   C204C204C204       DC16     +1218,+1218,+1218,+1218
   \              C204        
   \   000026DC   C204C204C204       DC16     +1218,+1218,+1218,+1218
   \              C204        
   \   000026E4   C204C204C204       DC16     +1218,+1218,+1218,+1218
   \              C204        
   \   000026EC   C204C204C204       DC16     +1218,+1218,+1218,+1218
   \              C204        
   \   000026F4   C204C204C204       DC16     +1218,+1218,+1218,+1218
   \              C204        
   \   000026FC   C204C204C204       DC16     +1218,+1218,+1218,+1218
   \              C204        
   \   00002704   C204C204C204       DC16     +1218,+1218,+1218,+1218
   \              C204        
   \   0000270C   C204C204C204       DC16     +1218,+1218,+1218,+1218
   \              C204        
   \   00002714   C204C204C204       DC16     +1218,+1218,+1218,+1218
   \              C204        
   \   0000271C   C204C204C204       DC16     +1218,+1218,+1218,+1218
   \              C204        
   \   00002724   C204C204C204       DC16     +1218,+1218,+1218,+1218
   \              C204        
   \   0000272C   C204C204C204       DC16     +1218,+1218,+1218,+1218
   \              C204        
   \   00002734   C204C204C204       DC16     +1218,+1218,+1218,+1218
   \              C204        
   \   0000273C   C204C204C204       DC16     +1218,+1218,+1218,+1218
   \              C204        
   \   00002744   C204C204C204       DC16     +1218,+1218,+1218,+1218
   \              C204        
   \   0000274C   C204C204C204       DC16     +1218,+1218,+1218,+1218
   \              C204        
   \   00002754   C204C204C204       DC16     +1218,+1218,+1218,+1218
   \              C204        
   \   0000275C   C204C204C204       DC16     +1218,+1218,+1218,+1218
   \              C204        
   \   00002764   C204C204C204       DC16     +1218,+1218,+1218,+1218
   \              C204        
   \   0000276C   C204C204C204       DC16     +1218,+1218,+1218,+1218
   \              C204        
   \   00002774   C204C204C204       DC16     +1218,+1218,+1218,+1218
   \              C204        
   \   0000277C   C204C204C204       DC16     +1218,+1218,+1218,+1218
   \              C204        
   \   00002784   C204C204C204       DC16     +1218,+1218,+1218,+1218
   \              C204        
   \   0000278C   C204C204C204       DC16     +1218,+1218,+1218,+1218
   \              C204        
   \   00002794   C204C204C204       DC16     +1218,+1218,+1218,+1218
   \              C204        
   \   0000279C   C204C204C204       DC16     +1218,+1218,+1218,+1218
   \              C204        
   \   000027A4   C204C204C204       DC16     +1218,+1218,+1218,+1218
   \              C204        
   \   000027AC   C204C204C204       DC16     +1218,+1218,+1218,+1218
   \              C204        
   \   000027B4   C204C204C204       DC16     +1218,+1218,+1218,+1218
   \              C204        
   \   000027BC   C204C204C204       DC16     +1218,+1218,+1218,+1218
   \              C204        
   \   000027C4   C204C204C204       DC16     +1218,+1218,+1218,+1218
   \              C204        
   \   000027CC   C204C204C204       DC16     +1218,+1218,+1218,+1218
   \              C204        
   \   000027D4   C204C204C204       DC16     +1218,+1218,+1218,+1218
   \              C204        
   \   000027DC   C204C204C204       DC16     +1218,+1218,+1218,+1218
   \              C204        
   \   000027E4   C204C204C204       DC16     +1218,+1218,+1218,+1218
   \              C204        
   \   000027EC   C204C204C204       DC16     +1218,+1218,+1218,+1218
   \              C204        
   \   000027F4   C204C204C204       DC16     +1218,+1218,+1218,+1218
   \              C204        
   \   000027FC   C204C204C204       DC16     +1218,+1218,+1218,+1218
   \              C204        
   \   00002804   C204C204C204       DC16     +1218,+1218,+1218,+1218
   \              C204        
   \   0000280C   C204C204C204       DC16     +1218,+1218,+1218,+1218
   \              C204        
   \   00002814   C204C204C204       DC16     +1218,+1218,+1218,+1218
   \              C204        
   \   0000281C   C204C204C204       DC16     +1218,+1218,+1218,+1218
   \              C204        
   \   00002824   C204C204C204       DC16     +1218,+1218,+1218,+1218
   \              C204        
   \   0000282C   C204C204C204       DC16     +1218,+1218,+1218,+1218
   \              C204        
   \   00002834   C204C204C204       DC16     +1218,+1218,+1218,+1218
   \              C204        
   \   0000283C   C204C204C204       DC16     +1218,+1218,+1218,+1218
   \              C204        
   \   00002844   C204C204C204       DC16     +1218,+1218,+1218,+1218
   \              C204        
   \   0000284C   C204C204C204       DC16     +1218,+1218,+1218,+1218
   \              C204        
   \   00002854   C204C204C204       DC16     +1218,+1218,+1218,+1218
   \              C204        
   \   0000285C   C204C204C204       DC16     +1218,+1218,+1218,+1218
   \              C204        
   \   00002864   C204C204C204       DC16     +1218,+1218,+1218,+1218
   \              C204        
   \   0000286C   C204C204C204       DC16     +1218,+1218,+1218,+1218
   \              C204        
   \   00002874   C204C204C204       DC16     +1218,+1218,+1218,+1218
   \              C204        
   \   0000287C   C204C204C204       DC16     +1218,+1218,+1218,+1218
   \              C204        
   \   00002884   C204C204C204       DC16     +1218,+1218,+1218,+1218
   \              C204        
   \   0000288C   C204C204C204       DC16     +1218,+1218,+1218,+1218
   \              C204        
   \   00002894   C204C204C204       DC16     +1218,+1218,+1218,+1218
   \              C204        
   \   0000289C   C204C204C204       DC16     +1218,+1218,+1218,+1218
   \              C204        
   \   000028A4   C204C204C204       DC16     +1218,+1218,+1218,+1218
   \              C204        
   \   000028AC   C204C204C204       DC16     +1218,+1218,+1218,+1218
   \              C204        
   \   000028B4   C204C204C204       DC16     +1218,+1218,+1218,+1218
   \              C204        
   \   000028BC   C204C204C204       DC16     +1218,+1218,+1218,+1218
   \              C204        
   \   000028C4   C204C204C204       DC16     +1218,+1218,+1218,+1218
   \              C204        
   \   000028CC   C204C204C204       DC16     +1218,+1218,+1218,+1218
   \              C204        
   \   000028D4   C204C204C204       DC16     +1218,+1218,+1218,+1218
   \              C204        
   \   000028DC   C204C204C204       DC16     +1218,+1218,+1218,+1218
   \              C204        
   \   000028E4   C204C204C204       DC16     +1218,+1218,+1218,+1218
   \              C204        
   \   000028EC   C204C204C204       DC16     +1218,+1218,+1218,+1218
   \              C204        
   \   000028F4   C204C204C204       DC16     +1218,+1218,+1218,+1218
   \              C204        
   \   000028FC   C204C204C204       DC16     +1218,+1218,+1218,+1218
   \              C204        
   \   00002904   C204C204C204       DC16     +1218,+1218,+1218,+1218
   \              C204        
   \   0000290C   C204C204C204       DC16     +1218,+1218,+1218,+1218
   \              C204        
   \   00002914   C204C204C204       DC16     +1218,+1218,+1218,+1218
   \              C204        
   \   0000291C   C204C204C204       DC16     +1218,+1218,+1218,+1218
   \              C204        
   \   00002924   C204C204C204       DC16     +1218,+1218,+1218,+1218
   \              C204        
   \   0000292C   C204C204C204       DC16     +1218,+1218,+1218,+1218
   \              C204        
   \   00002934   C204C204C204       DC16     +1218,+1218,+1218,+1218
   \              C204        
   \   0000293C   C204C204C204       DC16     +1218,+1218,+1218,+1218
   \              C204        
   \   00002944   C204C204C204       DC16     +1218,+1218,+1218,+1218
   \              C204        
   \   0000294C   C204C204C204       DC16     +1218,+1218,+1218,+1218
   \              C204        
   \   00002954   C204C204C204       DC16     +1218,+1218,+1218,+1218
   \              C204        
   \   0000295C   C204C204C204       DC16     +1218,+1218,+1218,+1218
   \              C204        
   \   00002964   C204C204C204       DC16     +1218,+1218,+1218,+1218
   \              C204        
   \   0000296C   C204C204C204       DC16     +1218,+1218,+1218,+1218
   \              C204        
   \   00002974   C204C204C204       DC16     +1218,+1218,+1218,+1218
   \              C204        
   \   0000297C   C204C204C204       DC16     +1218,+1218,+1218,+1218
   \              C204        
   \   00002984   C204C204C204       DC16     +1218,+1218,+1218,+1218
   \              C204        
   \   0000298C   C204C204C204       DC16     +1218,+1218,+1218,+1218
   \              C204        
   \   00002994   C204C204C204       DC16     +1218,+1218,+1218,+1218
   \              C204        
   \   0000299C   C204C204C204       DC16     +1218,+1218,+1218,+1218
   \              C204        
   \   000029A4   C204C204C204       DC16     +1218,+1218,+1218,+1218
   \              C204        
   \   000029AC   C204C204C204       DC16     +1218,+1218,+1218,+1218
   \              C204        
   \   000029B4   C204C204C204       DC16     +1218,+1218,+1218,+1218
   \              C204        
   \   000029BC   C204C204C204       DC16     +1218,+1218,+1218,+1218
   \              C204        
   \   000029C4   C204C204C204       DC16     +1218,+1218,+1218,+1218
   \              C204        
   \   000029CC   C204C204C204       DC16     +1218,+1218,+1218,+1218
   \              C204        
   \   000029D4   C204C204C204       DC16     +1218,+1218,+1218,+1218
   \              C204        
   \   000029DC   C204C204C204       DC16     +1218,+1218,+1218,+1218
   \              C204        
   \   000029E4   C204C204C204       DC16     +1218,+1218,+1218,+1218
   \              C204        
   \   000029EC   C204C204C204       DC16     +1218,+1218,+1218,+1218
   \              C204        
   \   000029F4   C204C204C204       DC16     +1218,+1218,+1218,+1218
   \              C204        
   \   000029FC   C204C204C204       DC16     +1218,+1218,+1218,+1218
   \              C204        
   \   00002A04   C204C204C204       DC16     +1218,+1218,+1218,+1218
   \              C204        
   \   00002A0C   C204C204C204       DC16     +1218,+1218,+1218,+1218
   \              C204        
   \   00002A14   C204C204C204       DC16     +1218,+1218,+1218,+1218
   \              C204        
   \   00002A1C   C204C204C204       DC16     +1218,+1218,+1218,+1218
   \              C204        
   \   00002A24   C204C204C204       DC16     +1218,+1218,+1218,+1218
   \              C204        
   \   00002A2C   C204C204C204       DC16     +1218,+1218,+1218,+1218
   \              C204        
   \   00002A34   C204C204C204       DC16     +1218,+1218,+1218,+1218
   \              C204        
   \   00002A3C   C204C204C204       DC16     +1218,+1218,+1218,+1218
   \              C204        
   \   00002A44   C204C204C204       DC16     +1218,+1218,+1218,+1218
   \              C204        
   \   00002A4C   C204C204C204       DC16     +1218,+1218,+1218,+1218
   \              C204        
   \   00002A54   C204C204C204       DC16     +1218,+1218,+1218,+1218
   \              C204        
   \   00002A5C   C204C204C204       DC16     +1218,+1218,+1218,+1218
   \              C204        
   \   00002A64   C204C204C204       DC16     +1218,+1218,+1218,+1218
   \              C204        
   \   00002A6C   C204C204C204       DC16     +1218,+1218,+1218,+1218
   \              C204        
   \   00002A74   C204C204C204       DC16     +1218,+1218,+1218,+1218
   \              C204        
   \   00002A7C   C204C204C204       DC16     +1218,+1218,+1218,+1218
   \              C204        
   \   00002A84   C204C204C204       DC16     +1218,+1218,+1218,+1218
   \              C204        
   \   00002A8C   C204C204C204       DC16     +1218,+1218,+1218,+1218
   \              C204        
   \   00002A94   C204C204C204       DC16     +1218,+1218,+1218,+1218
   \              C204        
   \   00002A9C   C204C204C204       DC16     +1218,+1218,+1218,+1218
   \              C204        
   \   00002AA4   C204C204C204       DC16     +1218,+1218,+1218,+1218
   \              C204        
   \   00002AAC   C204C204C204       DC16     +1218,+1218,+1218,+1218
   \              C204        
   \   00002AB4   C204C204C204       DC16     +1218,+1218,+1218,+1218
   \              C204        
   \   00002ABC   C204C204C204       DC16     +1218,+1218,+1218,+1218
   \              C204        
   \   00002AC4   C204C204C204       DC16     +1218,+1218,+1218,+1218
   \              C204        
   \   00002ACC   C204C204C204       DC16     +1218,+1218,+1218,+1218
   \              C204        
   \   00002AD4   C204C204C204       DC16     +1218,+1218,+1218,+1218
   \              C204        
   \   00002ADC   C204C204C204       DC16     +1218,+1218,+1218,+1218
   \              C204        
   \   00002AE4   C204C204C204       DC16     +1218,+1218,+1218,+1218
   \              C204        
   \   00002AEC   C204C204C204       DC16     +1218,+1218,+1218,+1218
   \              C204        
   \   00002AF4   C204C204C204       DC16     +1218,+1218,+1218,+1218
   \              C204        
   \   00002AFC   C204C204C204       DC16     +1218,+1218,+1218,+1218
   \              C204        
   \   00002B04   C204C204C204       DC16     +1218,+1218,+1218,+1218
   \              C204        
   \   00002B0C   C204C204C204       DC16     +1218,+1218,+1218,+1218
   \              C204        
   \   00002B14   C204C204C204       DC16     +1218,+1218,+1218,+1218
   \              C204        
   \   00002B1C   C204C204C204       DC16     +1218,+1218,+1218,+1218
   \              C204        
   \   00002B24   C204C204C204       DC16     +1218,+1218,+1218,+1218
   \              C204        
   \   00002B2C   C204C204C204       DC16     +1218,+1218,+1218,+1218
   \              C204        
   \   00002B34   C204C204C204       DC16     +1218,+1218,+1218,+1218
   \              C204        
   \   00002B3C   C204C204C204       DC16     +1218,+1218,+1218,+1218
   \              C204        
   \   00002B44   C204C204C204       DC16     +1218,+1218,+1218,+1218
   \              C204        
   \   00002B4C   C204C204C204       DC16     +1218,+1218,+1218,+1218
   \              C204        
   \   00002B54   C204C204C204       DC16     +1218,+1218,+1218,+1218
   \              C204        
   \   00002B5C   C204C204C204       DC16     +1218,+1218,+1218,+1218
   \              C204        
   \   00002B64   C204C204C204       DC16     +1218,+1218,+1218,+1218
   \              C204        
   \   00002B6C   C204C204C204       DC16     +1218,+1218,+1218,+1218
   \              C204        
   \   00002B74   C204C204C204       DC16     +1218,+1218,+1218,+1218
   \              C204        
   \   00002B7C   C204C204C204       DC16     +1218,+1218,+1218,+1218
   \              C204        
   \   00002B84   C204C204C204       DC16     +1218,+1218,+1218,+1218
   \              C204        
   \   00002B8C   C204C204C204       DC16     +1218,+1218,+1218,+1218
   \              C204        
   \   00002B94   C204C204C204       DC16     +1218,+1218,+1218,+1218
   \              C204        
   \   00002B9C   C204C204C204       DC16     +1218,+1218,+1218,+1218
   \              C204        
   \   00002BA4   C204C204C204       DC16     +1218,+1218,+1218,+1218
   \              C204        
   \   00002BAC   C204C204C204       DC16     +1218,+1218,+1218,+1218
   \              C204        
   \   00002BB4   C204C204C204       DC16     +1218,+1218,+1218,+1218
   \              C204        
   \   00002BBC   C204C204C204       DC16     +1218,+1218,+1218,+1218
   \              C204        
   \   00002BC4   C204C204C204       DC16     +1218,+1218,+1218,+1218
   \              C204        
   \   00002BCC   C204C204C204       DC16     +1218,+1218,+1218,+1218
   \              C204        
   \   00002BD4   C204C204C204       DC16     +1218,+1218,+1218,+1218
   \              C204        
   \   00002BDC   C204C204C204       DC16     +1218,+1218,+1218,+1218
   \              C204        
   \   00002BE4   C204C204C204       DC16     +1218,+1218,+1218,+1218
   \              C204        
   \   00002BEC   C204C204C204       DC16     +1218,+1218,+1218,+1218
   \              C204        
   \   00002BF4   C204C204C204       DC16     +1218,+1218,+1218,+1218
   \              C204        
   \   00002BFC   C204C204C204       DC16     +1218,+1218,+1218,+1218
   \              C204        
   \   00002C04   C204C204C204       DC16     +1218,+1218,+1218,+1218
   \              C204        
   \   00002C0C   C204C204C204       DC16     +1218,+1218,+1218,+1218
   \              C204        
   \   00002C14   C204C204C204       DC16     +1218,+1218,+1218,+1218
   \              C204        
   \   00002C1C   C204C204C204       DC16     +1218,+1218,+1218,+1218
   \              C204        
   \   00002C24   C204C204C204       DC16     +1218,+1218,+1218,+1218
   \              C204        
   \   00002C2C   C204C204C204       DC16     +1218,+1218,+1218,+1218
   \              C204        
   \   00002C34   C204C204C204       DC16     +1218,+1218,+1218,+1218
   \              C204        
   \   00002C3C   C204C204C204       DC16     +1218,+1218,+1218,+1218
   \              C204        
   \   00002C44   C204C204C204       DC16     +1218,+1218,+1218,+1218
   \              C204        
   \   00002C4C   C204C204C204       DC16     +1218,+1218,+1218,+1218
   \              C204        
   \   00002C54   C204C204C204       DC16     +1218,+1218,+1218,+1218
   \              C204        
   \   00002C5C   C204C204C204       DC16     +1218,+1218,+1218,+1218
   \              C204        
   \   00002C64   C204C204C204       DC16     +1218,+1218,+1218,+1218
   \              C204        
   \   00002C6C   C204C204C204       DC16     +1218,+1218,+1218,+1218
   \              C204        
   \   00002C74   C204C204C204       DC16     +1218,+1218,+1218,+1218
   \              C204        
   \   00002C7C   C204C204C204       DC16     +1218,+1218,+1218,+1218
   \              C204        
   \   00002C84   C204C204C204       DC16     +1218,+1218,+1218,+1218
   \              C204        
   \   00002C8C   C204C204C204       DC16     +1218,+1218,+1218,+1218
   \              C204        
   \   00002C94   C204C204C204       DC16     +1218,+1218,+1218,+1218
   \              C204        
   \   00002C9C   C204C204C204       DC16     +1218,+1218,+1218,+1218
   \              C204        
   \   00002CA4   C204C204C204       DC16     +1218,+1218,+1218,+1218
   \              C204        
   \   00002CAC   C204C204C204       DC16     +1218,+1218,+1218,+1218
   \              C204        
   \   00002CB4   C204C204C204       DC16     +1218,+1218,+1218,+1218
   \              C204        
   \   00002CBC   C204C204C204       DC16     +1218,+1218,+1218,+1218
   \              C204        
   \   00002CC4   C204C204C204       DC16     +1218,+1218,+1218,+1218
   \              C204        
   \   00002CCC   C204C204C204       DC16     +1218,+1218,+1218,+1218
   \              C204        
   \   00002CD4   C204C204C204       DC16     +1218,+1218,+1218,+1218
   \              C204        
   \   00002CDC   C204C204C204       DC16     +1218,+1218,+1218,+1218
   \              C204        
   \   00002CE4   C204C204C204       DC16     +1218,+1218,+1218,+1218
   \              C204        
   \   00002CEC   C204C204C204       DC16     +1218,+1218,+1218,+1218
   \              C204        
   \   00002CF4   C204C204C204       DC16     +1218,+1218,+1218,+1218
   \              C204        
   \   00002CFC   C204C204C204       DC16     +1218,+1218,+1218,+1218
   \              C204        
   \   00002D04   C204C204C204       DC16     +1218,+1218,+1218,+1218
   \              C204        
   \   00002D0C   C204C204C204       DC16     +1218,+1218,+1218,+1218
   \              C204        
   \   00002D14   C204C204C204       DC16     +1218,+1218,+1218,+1218
   \              C204        
   \   00002D1C   C204C204C204       DC16     +1218,+1218,+1218,+1218
   \              C204        
   \   00002D24   C204C204C204       DC16     +1218,+1218,+1218,+1218
   \              C204        
   \   00002D2C   C204C204C204       DC16     +1218,+1218,+1218,+1218
   \              C204        
   \   00002D34   C204C204C204       DC16     +1218,+1218,+1218,+1218
   \              C204        
   \   00002D3C   C204C204C204       DC16     +1218,+1218,+1218,+1218
   \              C204        
   \   00002D44   C204C204C204       DC16     +1218,+1218,+1218,+1218
   \              C204        
   \   00002D4C   C204C204C204       DC16     +1218,+1218,+1218,+1218
   \              C204        
   \   00002D54   C204C204C204       DC16     +1218,+1218,+1218,+1218
   \              C204        
   \   00002D5C   C204C204C204       DC16     +1218,+1218,+1218,+1218
   \              C204        
   \   00002D64   C204C204C204       DC16     +1218,+1218,+1218,+1218
   \              C204        
   \   00002D6C   C204C204C204       DC16     +1218,+1218,+1218,+1218
   \              C204        
   \   00002D74   C204C204C204       DC16     +1218,+1218,+1218,+1218
   \              C204        
   \   00002D7C   C204C204C204       DC16     +1218,+1218,+1218,+1218
   \              C204        
   \   00002D84   C204C204C204       DC16     +1218,+1218,+1218,+1218
   \              C204        
   \   00002D8C   C204C204C204       DC16     +1218,+1218,+1218,+1218
   \              C204        
   \   00002D94   C204C204C204       DC16     +1218,+1218,+1218,+1218
   \              C204        
   \   00002D9C   C204C204C204       DC16     +1218,+1218,+1218,+1218
   \              C204        
   \   00002DA4   C204C204C204       DC16     +1218,+1218,+1218,+1218
   \              C204        
   \   00002DAC   C204C204C204       DC16     +1218,+1218,+1218,+1218
   \              C204        
   \   00002DB4   C204C204C204       DC16     +1218,+1218,+1218,+1218
   \              C204        
   \   00002DBC   C204C204C204       DC16     +1218,+1218,+1218,+1218
   \              C204        
   \   00002DC4   C204C204C204       DC16     +1218,+1218,+1218,+1218
   \              C204        
   \   00002DCC   C204C204C204       DC16     +1218,+1218,+1218,+1218
   \              C204        
   \   00002DD4   C204C204C204       DC16     +1218,+1218,+1218,+1218
   \              C204        
   \   00002DDC   C204C204C204       DC16     +1218,+1218,+1218,+1218
   \              C204        
   \   00002DE4   C204C204C204       DC16     +1218,+1218,+1218,+1218
   \              C204        
   \   00002DEC   C204C204C204       DC16     +1218,+1218,+1218,+1218
   \              C204        
   \   00002DF4   C204C204C204       DC16     +1218,+1218,+1218,+1218
   \              C204        
   \   00002DFC   C204C204C204       DC16     +1218,+1218,+1218,+1218
   \              C204        
   \   00002E04   C204C204C204       DC16     +1218,+1218,+1218,+1218
   \              C204        
   \   00002E0C   C204C204C204       DC16     +1218,+1218,+1218,+1218
   \              C204        
   \   00002E14   C204C204C204       DC16     +1218,+1218,+1218,+1218
   \              C204        
   \   00002E1C   C204C204C204       DC16     +1218,+1218,+1218,+1218
   \              C204        
   \   00002E24   C204C204C204       DC16     +1218,+1218,+1218,+1218
   \              C204        
   \   00002E2C   C204C204C204       DC16     +1218,+1218,+1218,+1218
   \              C204        
   \   00002E34   C204C204C204       DC16     +1218,+1218,+1218,+1218
   \              C204        
   \   00002E3C   C204C204C204       DC16     +1218,+1218,+1218,+1218
   \              C204        
   \   00002E44   C204C204C204       DC16     +1218,+1218,+1218,+1218
   \              C204        
   \   00002E4C   C204C204C204       DC16     +1218,+1218,+1218,+1218
   \              C204        
   \   00002E54   C204C204C204       DC16     +1218,+1218,+1218,+1218
   \              C204        
   \   00002E5C   C204C204C204       DC16     +1218,+1218,+1218,+1218
   \              C204        
   \   00002E64   C204C204C204       DC16     +1218,+1218,+1218,+1218
   \              C204        
   \   00002E6C   C204C204C204       DC16     +1218,+1218,+1218,+1218
   \              C204        
   \   00002E74   C204C204C204       DC16     +1218,+1218,+1218,+1218
   \              C204        
   \   00002E7C   C204C204C204       DC16     +1218,+1218,+1218,+1218
   \              C204        
   \   00002E84   C204C204C204       DC16     +1218,+1218,+1218,+1218
   \              C204        
   \   00002E8C   C204C204C204       DC16     +1218,+1218,+1218,+1218
   \              C204        
   \   00002E94   C204C204C204       DC16     +1218,+1218,+1218,+1218
   \              C204        
   \   00002E9C   C204C204C204       DC16     +1218,+1218,+1218,+1218
   \              C204        
   \   00002EA4   C204C204C204       DC16     +1218,+1218,+1218,+1218
   \              C204        
   \   00002EAC   C204C204C204       DC16     +1218,+1218,+1218,+1218
   \              C204        
   \   00002EB4   C204C204C204       DC16     +1218,+1218,+1218,+1218
   \              C204        
   \   00002EBC   C204C204C204       DC16     +1218,+1218,+1218,+1218
   \              C204        
   \   00002EC4   C204C204C204       DC16     +1218,+1218,+1218,+1218
   \              C204        
   \   00002ECC   C204C204C204       DC16     +1218,+1218,+1218,+1218
   \              C204        
   \   00002ED4   C204C204C204       DC16     +1218,+1218,+1218,+1218
   \              C204        
   \   00002EDC   C204C204C204       DC16     +1218,+1218,+1218,+1218
   \              C204        
   \   00002EE4   C204C204C204       DC16     +1218,+1218,+1218,+1218
   \              C204        
   \   00002EEC   C204C204C204       DC16     +1218,+1218,+1218,+1218
   \              C204        
   \   00002EF4   C204C204C204       DC16     +1218,+1218,+1218,+1218
   \              C204        
   \   00002EFC   C204C204C204       DC16     +1218,+1218,+1218,+1218
   \              C204        
   \   00002F04   C204C204C204       DC16     +1218,+1218,+1218,+1218
   \              C204        
   \   00002F0C   C204C204C204       DC16     +1218,+1218,+1218,+1218
   \              C204        
   \   00002F14   C204C204C204       DC16     +1218,+1218,+1218,+1218
   \              C204        
   \   00002F1C   C204C204C204       DC16     +1218,+1218,+1218,+1218
   \              C204        
   \   00002F24   C204C204C204       DC16     +1218,+1218,+1218,+1218
   \              C204        
   \   00002F2C   C204C204C204       DC16     +1218,+1218,+1218,+1218
   \              C204        
   \   00002F34   C204C204C204       DC16     +1218,+1218,+1218,+1218
   \              C204        
   \   00002F3C   C204C204C204       DC16     +1218,+1218,+1218,+1218
   \              C204        
   \   00002F44   C204C204C204       DC16     +1218,+1218,+1218,+1218
   \              C204        
   \   00002F4C   C204C204C204       DC16     +1218,+1218,+1218,+1218
   \              C204        
   \   00002F54   C204C204C204       DC16     +1218,+1218,+1218,+1218
   \              C204        
   \   00002F5C   C204C204C204       DC16     +1218,+1218,+1218,+1218
   \              C204        
   \   00002F64   C204C204C204       DC16     +1218,+1218,+1218,+1218
   \              C204        
   \   00002F6C   C204C204C204       DC16     +1218,+1218,+1218,+1218
   \              C204        
   \   00002F74   C204C204C204       DC16     +1218,+1218,+1218,+1218
   \              C204        
   \   00002F7C   C204C204C204       DC16     +1218,+1218,+1218,+1218
   \              C204        
   \   00002F84   C204C204C204       DC16     +1218,+1218,+1218,+1218
   \              C204        
   \   00002F8C   C204C204C204       DC16     +1218,+1218,+1218,+1218
   \              C204        
   \   00002F94   C204C204C204       DC16     +1218,+1218,+1218,+1218
   \              C204        
   \   00002F9C   C204C204C204       DC16     +1218,+1218,+1218,+1218
   \              C204        
   \   00002FA4   C204C204C204       DC16     +1218,+1218,+1218,+1218
   \              C204        
   \   00002FAC   C204C204C204       DC16     +1218,+1218,+1218,+1218
   \              C204        
   \   00002FB4   C204C204C204       DC16     +1218,+1218,+1218,+1218
   \              C204        
   \   00002FBC   C204C204C204       DC16     +1218,+1218,+1218,+1218
   \              C204        
   \   00002FC4   C204C204C204       DC16     +1218,+1218,+1218,+1218
   \              C204        
   \   00002FCC   C204C204C204       DC16     +1218,+1218,+1218,+1218
   \              C204        
   \   00002FD4   C204C204C204       DC16     +1218,+1218,+1218,+1218
   \              C204        
   \   00002FDC   C204C204C204       DC16     +1218,+1218,+1218,+1218
   \              C204        
   \   00002FE4   C204C204C204       DC16     +1218,+1218,+1218,+1218
   \              C204        
   \   00002FEC   C204C204C204       DC16     +1218,+1218,+1218,+1218
   \              C204        
   \   00002FF4   C204C204C204       DC16     +1218,+1218,+1218,+1218
   \              C204        
   \   00002FFC   C204C204C204       DC16     +1218,+1218,+1218,+1218
   \              C204        
   \   00003004   C204C204C204       DC16     +1218,+1218,+1218,+1218
   \              C204        
   \   0000300C   C204C204C204       DC16     +1218,+1218,+1218,+1218
   \              C204        
   \   00003014   C204C204C204       DC16     +1218,+1218,+1218,+1218
   \              C204        
   \   0000301C   C204C204C204       DC16     +1218,+1218,+1218,+1218
   \              C204        
   \   00003024   C204C204C204       DC16     +1218,+1218,+1218,+1218
   \              C204        
   \   0000302C   C204C204C204       DC16     +1218,+1218,+1218,+1218
   \              C204        
   \   00003034   C204C204C204       DC16     +1218,+1218,+1218,+1218
   \              C204        
   \   0000303C   C204C204C204       DC16     +1218,+1218,+1218,+1218
   \              C204        
   \   00003044   C204C204C204       DC16     +1218,+1218,+1218,+1218
   \              C204        
   \   0000304C   C204C204C204       DC16     +1218,+1218,+1218,+1218
   \              C204        
   \   00003054   C204C204C204       DC16     +1218,+1218,+1218,+1218
   \              C204        
   \   0000305C   C204C204C204       DC16     +1218,+1218,+1218,+1218
   \              C204        
   \   00003064   C204C204C204       DC16     +1218,+1218,+1218,+1218
   \              C204        
   \   0000306C   C204C204C204       DC16     +1218,+1218,+1218,+1218
   \              C204        
   \   00003074   C204C204C204       DC16     +1218,+1218,+1218,+1218
   \              C204        
   \   0000307C   C204C204C204       DC16     +1218,+1218,+1218,+1218
   \              C204        
   \   00003084   C204C204C204       DC16     +1218,+1218,+1218,+1218
   \              C204        
   \   0000308C   C204C204C204       DC16     +1218,+1218,+1218,+1218
   \              C204        
   \   00003094   C204C204C204       DC16     +1218,+1218,+1218,+1218
   \              C204        
   \   0000309C   C204C204C204       DC16     +1218,+1218,+1218,+1218
   \              C204        
   \   000030A4   C204C204C204       DC16     +1218,+1218,+1218,+1218
   \              C204        
   \   000030AC   C204C204C204       DC16     +1218,+1218,+1218,+1218
   \              C204        
   \   000030B4   C204C204C204       DC16     +1218,+1218,+1218,+1218
   \              C204        
   \   000030BC   C204C204C204       DC16     +1218,+1218,+1218,+1218
   \              C204        
   \   000030C4   C204C204C204       DC16     +1218,+1218,+1218,+1218
   \              C204        
   \   000030CC   C204C204C204       DC16     +1218,+1218,+1218,+1218
   \              C204        
   \   000030D4   C204C204C204       DC16     +1218,+1218,+1218,+1218
   \              C204        
   \   000030DC   C204C204C204       DC16     +1218,+1218,+1218,+1218
   \              C204        
   \   000030E4   C204C204C204       DC16     +1218,+1218,+1218,+1218
   \              C204        
   \   000030EC   C204C204C204       DC16     +1218,+1218,+1218,+1218
   \              C204        
   \   000030F4   C204C204C204       DC16     +1218,+1218,+1218,+1218
   \              C204        
   \   000030FC   C204C204C204       DC16     +1218,+1218,+1218,+1218
   \              C204        
   \   00003104   C204C204C204       DC16     +1218,+1218,+1218,+1218
   \              C204        
   \   0000310C   C204C204C204       DC16     +1218,+1218,+1218,+1218
   \              C204        
   \   00003114   C204C204C204       DC16     +1218,+1218,+1218,+1218
   \              C204        
   \   0000311C   C204C204C204       DC16     +1218,+1218,+1218,+1218
   \              C204        
   \   00003124   C204C204C204       DC16     +1218,+1218,+1218,+1218
   \              C204        
   \   0000312C   C204C204C204       DC16     +1218,+1218,+1218,+1218
   \              C204        
   \   00003134   C204C204C204       DC16     +1218,+1218,+1218,+1218
   \              C204        
   \   0000313C   C204C204C204       DC16     +1218,+1218,+1218,+1218
   \              C204        
   \   00003144   C204C204C204       DC16     +1218,+1218,+1218,+1218
   \              C204        
   \   0000314C   C204C204C204       DC16     +1218,+1218,+1218,+1218
   \              C204        
   \   00003154   C204C204CA04       DC16     +1218,+1218,+1226,+1226
   \              CA04        
   \   0000315C   CA04CA04CA04       DC16     +1226,+1226,+1226,+1226
   \              CA04        
   \   00003164   CA04CA04C204       DC16     +1226,+1226,+1218,+1242
   \              DA04        
    654                          case GUI_ID_EDIT1 :
    655                              KeyBoard->ExecKeyBoardNum(WM_GetClientWindow(hWin),L_WORD180,Id);   // Enter new value:
   \                     ??cbSysWin_45:
   \   0000316C   0700A0E1           MOV      R0,R7
   \   00003170   ........           _BLF     WM_GetClientWindow,??WM_GetClientWindow??rA
   \   00003174   0530A0E1           MOV      R3,R5
   \   00003178   B420A0E3           MOV      R2,#+180
   \                     ??cbSysWin_46:
   \   0000317C   0010A0E1           MOV      R1,R0
   \   00003180   040000EA           B        ??cbSysWin_21
    656                              break;
    657                          case GUI_ID_EDIT2 :
    658                              KeyBoard->ExecKeyBoardNum(WM_GetClientWindow(hWin),L_WORD183,Id);   // Enter trim. (Aft is -):
   \                     ??cbSysWin_47:
   \   00003184   0700A0E1           MOV      R0,R7
   \   00003188   ........           _BLF     WM_GetClientWindow,??WM_GetClientWindow??rA
   \   0000318C   0530A0E1           MOV      R3,R5
   \   00003190   B720A0E3           MOV      R2,#+183
   \                     ??cbSysWin_48:
   \   00003194   0010A0E1           MOV      R1,R0
   \                     ??cbSysWin_21:
   \   00003198   000094E5           LDR      R0,[R4, #+0]
   \   0000319C   ........           _BLF     ??ExecKeyBoardNum,??ExecKeyBoardNum??rA
   \                     ??cbSysWin_10:
   \   000031A0   E8D08DE2           ADD      SP,SP,#+232
   \   000031A4   F047BDE8           POP      {R4-R10,LR}
   \   000031A8   1EFF2FE1           BX       LR
    659                              break;
    660                          case GUI_ID_EDIT3 :
    661                              KeyBoard->ExecKeyBoardNum(WM_GetClientWindow(hWin),L_WORD184,Id);   // Enter list. (Port is -)
   \                     ??cbSysWin_49:
   \   000031AC   0700A0E1           MOV      R0,R7
   \   000031B0   ........           _BLF     WM_GetClientWindow,??WM_GetClientWindow??rA
   \   000031B4   0530A0E1           MOV      R3,R5
   \   000031B8   B820A0E3           MOV      R2,#+184
   \   000031BC   EEFFFFEA           B        ??cbSysWin_46
    662                              break;
    663                          case GUI_ID_EDIT11:
    664                          case GUI_ID_EDIT12:
    665                          case GUI_ID_EDIT13:
    666                          case GUI_ID_EDIT14:
    667                          case GUI_ID_EDIT15:
    668                          case GUI_ID_EDIT16:
    669                          case GUI_ID_EDIT17:
    670                          case GUI_ID_EDIT18:
    671                              if ( PinUnlock ) {
   \                     ??cbSysWin_50:
   \   000031C0   00029FE5           LDR      R0,??cbSysWin_51  ;; PinUnlock
   \   000031C4   0000D0E5           LDRB     R0,[R0, #+0]
   \   000031C8   000050E3           CMP      R0,#+0
   \   000031CC   0700A0E1           MOV      R0,R7
   \   000031D0   0300000A           BEQ      ??cbSysWin_52
    672                                  KeyBoard->ExecKeyBoardNum(WM_GetClientWindow(hWin),L_WORD180,Id);   // Enter new value:
   \   000031D4   ........           _BLF     WM_GetClientWindow,??WM_GetClientWindow??rA
   \   000031D8   0530A0E1           MOV      R3,R5
   \   000031DC   B420A0E3           MOV      R2,#+180
   \   000031E0   EBFFFFEA           B        ??cbSysWin_48
    673                              } else {
    674                                  KeyBoard->ExecKeyBoardPinCode(WM_GetClientWindow(hWin),L_WORD150,Id);   // Enter Pin code:
   \                     ??cbSysWin_52:
   \   000031E4   ........           _BLF     WM_GetClientWindow,??WM_GetClientWindow??rA
   \   000031E8   0010A0E1           MOV      R1,R0
   \   000031EC   000094E5           LDR      R0,[R4, #+0]
   \   000031F0   0530A0E1           MOV      R3,R5
   \   000031F4   9620A0E3           MOV      R2,#+150
   \   000031F8   ........           _BLF     ??ExecKeyBoardPinCode,??ExecKeyBoardPinCode??rA
   \   000031FC   E7FFFFEA           B        ??cbSysWin_10
    675                              }
    676                              break;
    677                          case GUI_ID_EDIT20:
    678                              KeyBoard->ExecKeyBoardNum(WM_GetClientWindow(hWin),L_WORD185,Id);   // Enter new density:
   \                     ??cbSysWin_53:
   \   00003200   0700A0E1           MOV      R0,R7
   \   00003204   ........           _BLF     WM_GetClientWindow,??WM_GetClientWindow??rA
   \   00003208   0530A0E1           MOV      R3,R5
   \   0000320C   B920A0E3           MOV      R2,#+185
   \   00003210   0010A0E1           MOV      R1,R0
   \   00003214   DFFFFFEA           B        ??cbSysWin_21
    679                              break;
    680                          }
    681                      }
    682                  }
    683                  break;
    684              case WM_NOTIFY_PARENT:
    685                  Id    = WM_GetId(pMsg->hWinSrc);        /* Id of widget */
   \                     ??cbSysWin_54:
   \   00003218   0200A0E1           MOV      R0,R2
   \   0000321C   ........           _BLF     WM_GetId,??WM_GetId??rA
   \   00003220   0050A0E1           MOV      R5,R0
    686                  NCode = pMsg->Data.v;                               /* Notification code */
    687                  switch ( NCode ) {
   \   00003224   080099E5           LDR      R0,[R9, #+8]
   \   00003228   020050E2           SUBS     R0,R0,#+2
   \   0000322C   0200000A           BEQ      ??cbSysWin_55
   \   00003230   020050E2           SUBS     R0,R0,#+2
   \   00003234   5000000A           BEQ      ??cbSysWin_56
   \   00003238   D8FFFFEA           B        ??cbSysWin_10
    688                  case WM_NOTIFICATION_RELEASED:      /* React only if released */
    689                      switch ( Id ) {
   \                     ??cbSysWin_55:
   \   0000323C   050055E3           CMP      R5,#+5
   \   00003240   4100000A           BEQ      ??cbSysWin_57
   \   00003244   540F55E3           CMP      R5,#+336
   \   00003248   D4FFFF1A           BNE      ??cbSysWin_10
    690                      case GUI_ID_RADIO0:
    691                          {
    692                              AnsiString NewLoc;
   \   0000324C   38008DE2           ADD      R0,SP,#+56
   \   00003250   ........           _BLF     ??AnsiString,??AnsiString??rA
    693                              if ( RADIO_GetValue(SystemWindow->SysWin2->hRadioDraft) ) {
   \   00003254   00009AE5           LDR      R0,[R10, #+0]
   \   00003258   5C0090E5           LDR      R0,[R0, #+92]
   \   0000325C   FE04D0E1           LDRSH    R0,[R0, #+78]
   \   00003260   ........           _BLF     RADIO_GetValue,??RADIO_GetValue??rA
   \   00003264   000050E3           CMP      R0,#+0
   \   00003268   1000000A           BEQ      ??cbSysWin_58
    694                                  NewLoc = "0";
   \   0000326C   ........           ADR      R1,??DataTable26  ;; "0"
   \   00003270   0D00A0E1           MOV      R0,SP
   \   00003274   ........           _BLF     ??AnsiString_1,??AnsiString??rA_1
   \   00003278   ........           LDR      R1,??DataTable30  ;; ??npos
   \   0000327C   0020A0E3           MOV      R2,#+0
   \   00003280   003091E5           LDR      R3,[R1, #+0]
   \   00003284   0010A0E1           MOV      R1,R0
   \   00003288   38008DE2           ADD      R0,SP,#+56
   \   0000328C   ........           _BLF     ??assign,??assign??rA
   \   00003290   0020A0E3           MOV      R2,#+0
   \   00003294   0110A0E3           MOV      R1,#+1
   \   00003298   0D00A0E1           MOV      R0,SP
   \   0000329C   ........           _BLF     ??_Tidy,??_Tidy??rA
    695                                  PRODraftSystem::PRODraftSysPtr->DraftIndicationAtPP = false;
   \   000032A0   000096E5           LDR      R0,[R6, #+0]
   \   000032A4   0010A0E3           MOV      R1,#+0
   \   000032A8   F811C0E5           STRB     R1,[R0, #+504]
   \   000032AC   0E0000EA           B        ??cbSysWin_59
    696                              } else {
    697                                  NewLoc = "1";
   \                     ??cbSysWin_58:
   \   000032B0   ........           ADR      R1,??DataTable27  ;; "1"
   \   000032B4   0D00A0E1           MOV      R0,SP
   \   000032B8   ........           _BLF     ??AnsiString_1,??AnsiString??rA_1
   \   000032BC   ........           LDR      R1,??DataTable30  ;; ??npos
   \   000032C0   0020A0E3           MOV      R2,#+0
   \   000032C4   003091E5           LDR      R3,[R1, #+0]
   \   000032C8   0010A0E1           MOV      R1,R0
   \   000032CC   38008DE2           ADD      R0,SP,#+56
   \   000032D0   ........           _BLF     ??assign,??assign??rA
   \   000032D4   0020A0E3           MOV      R2,#+0
   \   000032D8   0110A0E3           MOV      R1,#+1
   \   000032DC   0D00A0E1           MOV      R0,SP
   \   000032E0   ........           _BLF     ??_Tidy,??_Tidy??rA
    698                                  PRODraftSystem::PRODraftSysPtr->DraftIndicationAtPP = true;
   \   000032E4   000096E5           LDR      R0,[R6, #+0]
   \   000032E8   F881C0E5           STRB     R8,[R0, #+504]
    699                              }
    700                              LibPutValue(SVT_DRAFT_POINT,PRODraftSystem::PRODraftSysPtr,NewLoc);
   \                     ??cbSysWin_59:
   \   000032EC   0020A0E3           MOV      R2,#+0
   \   000032F0   0010A0E3           MOV      R1,#+0
   \   000032F4   1C008DE2           ADD      R0,SP,#+28
   \   000032F8   ........           _BLF     ??_Tidy,??_Tidy??rA
   \   000032FC   ........           LDR      R0,??DataTable30  ;; ??npos
   \   00003300   0020A0E3           MOV      R2,#+0
   \   00003304   003090E5           LDR      R3,[R0, #+0]
   \   00003308   38108DE2           ADD      R1,SP,#+56
   \   0000330C   1C008DE2           ADD      R0,SP,#+28
   \   00003310   ........           _BLF     ??assign,??assign??rA
   \   00003314   001096E5           LDR      R1,[R6, #+0]
   \   00003318   0030A0E3           MOV      R3,#+0
   \   0000331C   1C208DE2           ADD      R2,SP,#+28
   \   00003320   0400A0E3           MOV      R0,#+4
   \   00003324   600E80E3           ORR      R0,R0,#0x600
   \   00003328   ........           _BLF     ??LibPutValue_1,??LibPutValue??rA_1
   \   0000332C   0020A0E3           MOV      R2,#+0
   \   00003330   0810A0E1           MOV      R1,R8
   \   00003334   1C008DE2           ADD      R0,SP,#+28
   \   00003338   ........           _BLF     ??_Tidy,??_Tidy??rA
    701                          }
   \   0000333C   0020A0E3           MOV      R2,#+0
   \   00003340   0810A0E1           MOV      R1,R8
   \   00003344   38008DE2           ADD      R0,SP,#+56
   \   00003348   70FAFFEA           B        ??cbSysWin_28
    702                          break;
    703                      case GUI_ID_CLOSE:
    704                          /* Close Button */
    705                          SystemWindow->Protect();
   \                     ??cbSysWin_57:
   \   0000334C   00009AE5           LDR      R0,[R10, #+0]
   \   00003350   ........           _BLF     ??Protect,??Protect??rA
    706                              if ( !SystemWindow->SysWin2IsClosed ) {
   \   00003354   00009AE5           LDR      R0,[R10, #+0]
   \   00003358   7100D0E5           LDRB     R0,[R0, #+113]
   \   0000335C   000050E3           CMP      R0,#+0
   \   00003360   0200001A           BNE      ??cbSysWin_60
    707                                  GUI_EndDialog(hWin, 0);
   \   00003364   0010A0E3           MOV      R1,#+0
   \   00003368   0700A0E1           MOV      R0,R7
   \   0000336C   ........           _BLF     GUI_EndDialog,??GUI_EndDialog??rA
    708                              }
    709          					SystemWindow->UnProtect();
   \                     ??cbSysWin_60:
   \   00003370   00009AE5           LDR      R0,[R10, #+0]
   \   00003374   ........           _BLF     ??UnProtect,??UnProtect??rA
   \   00003378   88FFFFEA           B        ??cbSysWin_10
    710                          break;
    711                      }
    712                      break;
    713                  case WM_NOTIFICATION_SEL_CHANGED:
    714                      switch ( Id ) {
   \                     ??cbSysWin_56:
   \   0000337C   810045E2           SUB      R0,R5,#+129
   \   00003380   400F40E2           SUB      R0,R0,#+256
   \   00003384   020050E3           CMP      R0,#+2
   \   00003388   84FFFF8A           BHI      ??cbSysWin_10
   \   0000338C   021F8FE2           ADR      R1,??cbSysWin_6
   \   00003390   8000A0E1           MOV      R0,R0, LSL #+1
   \   00003394   F01091E1           LDRSH    R1,[R1, R0]
   \   00003398   01F18FE0           ADD      PC,PC,R1, LSL #+2
   \                     ??cbSysWin_6:
   \   0000339C   010001000100       DC16     +1,+1,+1,+0
   \              0000        
    715                      case GUI_ID_DROPDOWN1: /* Atm. Enable  */
    716                      case GUI_ID_DROPDOWN2: /* Trim  */
    717                      case GUI_ID_DROPDOWN3: /* List  */
    718                          SystemWindow->SysWin2->UpdateSystem(hWin,Id);
   \                     ??cbSysWin_61:
   \   000033A4   00009AE5           LDR      R0,[R10, #+0]
   \   000033A8   0520A0E1           MOV      R2,R5
   \   000033AC   5C0090E5           LDR      R0,[R0, #+92]
   \   000033B0   0710A0E1           MOV      R1,R7
   \   000033B4   ........           BL       ??UpdateSystem
   \   000033B8   78FFFFEA           B        ??cbSysWin_10
    719                          break;
    720                      }
    721                      break;
    722                  }
    723                  break;
    724              default:
    725                  WM_DefaultProc(pMsg);
   \                     ??cbSysWin_8:
   \   000033BC   0900A0E1           MOV      R0,R9
   \   000033C0   ........           _BLF     WM_DefaultProc,??WM_DefaultProc??rA
    726              }
    727          }
   \                     ??cbSysWin_62:
   \   000033C4   75FFFFEA           B        ??cbSysWin_10
   \                     ??cbSysWin_51:
   \   000033C8   ........           DC32     PinUnlock

   \                                 In segment DATA_ID, align 4, align-sorted
   \                     `?<Initializer for IdSet1>`:
   \   00000000   810100000101       DC32 385, 257, 386, 258, 387, 259, 2668, 2659, 2660, 2661, 2662, 2663
   \              000082010000
   \              020100008301
   \              000003010000
   \              6C0A0000630A
   \              0000640A0000
   \              650A0000660A
   \              0000670A0000
   \   00000030   680A0000690A       DC32 2664, 2665, 2666, 336, 2668
   \              00006A0A0000
   \              500100006C0A
   \              0000        

   \                                 In segment DATA_ID, align 4, align-sorted
   \                     `?<Initializer for IdSet2>`:
   \   00000000   640100008201       DC32 356, 386, 258, 354, 357, 259, 387, 259, 355, 2659, 2660, 2661
   \              000002010000
   \              620100006501
   \              000003010000
   \              830100000301
   \              000063010000
   \              630A0000640A
   \              0000650A0000
   \   00000030   660A0000670A       DC32 2662, 2663, 2664, 2665, 2666, 336, 2560, 2668, 2568
   \              0000680A0000
   \              690A00006A0A
   \              000050010000
   \              000A00006C0A
   \              0000080A0000

   \                                 In segment DIFUNCT, align 4, keep-with-next, root
   \   00000000                      REQUIRE ?call_ctors
   \   00000000   ........           DC32    ??__sti__routine

   \                                 In segment DATA_C, align 1, align-sorted
   \                     `?<Constant "DS">`:
   \   00000000   445300             DC8 "DS"

   \                                 In segment DATA_C, align 4, align-sorted
   \                     `?<Constant {553, 190}>`:
   \   00000000   29020000BE00       DC32 553, 190
   \              0000        

   \                                 In segment DATA_C, align 4, align-sorted
   \                     `?<Constant {190}>`:
   \   00000000   BE000000           DC32 190

   \                                 In segment DATA_C, align 4, align-sorted
   \                     `?<Constant {551, 552, 190}>`:
   \   00000000   270200002802       DC32 551, 552, 190
   \              0000BE000000

   \                                 In segment DATA_C, align 4, align-sorted
   \                     `?<Constant {551, 190}>`:
   \   00000000   27020000BE00       DC32 551, 190
   \              0000        

   \                                 In segment DATA_C, align 4, align-sorted
   \                     `?<Constant {552, 190}>`:
   \   00000000   28020000BE00       DC32 552, 190
   \              0000        

   \                                 In segment DATA_C, align 4, align-sorted
   \                     `?<Constant {190}>_1`:
   \   00000000   BE000000           DC32 190

   \                                 In segment DATA_C, align 4, align-sorted
   \                     `?<Constant {{2190, 0, 30}, {352, 0, 31}, {353,`:
   \   00000000   8E0800000000       DC32 2190, 0, 30, 352, 0, 31, 353, 0, 32, 354, 0, 34, 356, 0, 33, 357
   \              00001E000000
   \              600100000000
   \              00001F000000
   \              610100000000
   \              000020000000
   \              620100000000
   \              000022000000
   \              640100000000
   \              000021000000
   \              65010000    
   \   00000040   000000002600       DC32 0, 38, 355, 0, 34, 2560, 0, 37, 2568, 0, 36, 336, 0, 491, 336, 1
   \              000063010000
   \              000000002200
   \              0000000A0000
   \              000000002500
   \              0000080A0000
   \              000000002400
   \              000050010000
   \              00000000EB01
   \              000050010000
   \              01000000    
   \   00000080   EC010000           DC32 492

   \                                 In segment DATA_C, align 1, align-sorted
   \   00000000   3100               DC8 "1"

   \                                 In segment DATA_C, align 1, align-sorted
   \   00000000   3000               DC8 "0"

   \                                 In segment DATA_C, align 4, align-sorted
   \                     `?<Constant "System page 2">`:
   \   00000000   53797374656D       DC8 "System page 2"
   \              207061676520
   \              3200        
   \   0000000E   0000               DC8 0, 0

   \                                 In segment DATA_C, align 4, align-sorted
   \                     `?<Constant "Atmospheric ref.">`:
   \   00000000   41746D6F7370       DC8 "Atmospheric ref."
   \              686572696320
   \              7265662E00  
   \   00000011   000000             DC8 0, 0, 0

   \                                 In segment DATA_C, align 4, align-sorted
   \                     `?<Constant "meter">`:
   \   00000000   6D6574657200       DC8 "meter"
   \   00000006   0000               DC8 0, 0

   \                                 In segment DATA_C, align 4, align-sorted
   \                     `?<Constant "Trim     Source:">`:
   \   00000000   5472696D2020       DC8 "Trim     Source:"
   \              202020536F75
   \              7263653A00  
   \   00000011   000000             DC8 0, 0, 0

   \                                 In segment DATA_C, align 4, align-sorted
   \                     `?<Constant "degree">`:
   \   00000000   646567726565       DC8 "degree"
   \              00          
   \   00000007   00                 DC8 0

   \                                 In segment DATA_C, align 4, align-sorted
   \                     `?<Constant "List      Source:">`:
   \   00000000   4C6973742020       DC8 "List      Source:"
   \              20202020536F
   \              757263653A00
   \   00000012   0000               DC8 0, 0

   \                                 In segment DATA_C, align 1, align-sorted
   \                     `?<Constant "DA">`:
   \   00000000   444100             DC8 "DA"

   \                                 In segment DATA_C, align 1, align-sorted
   \                     `?<Constant "DP">`:
   \   00000000   445000             DC8 "DP"

   \                                 In segment DATA_C, align 4, align-sorted
   \   00000000   00                 DC8 ""
   \   00000001   000000000000       DC8 0, 0, 0, 0, 0, 0, 0, 0, 0, 0, 0, 0, 0, 0, 0, 0
   \              000000000000
   \              00000000    
   \   00000011   000000000000       DC8 0, 0, 0, 0, 0, 0, 0, 0, 0, 0, 0, 0, 0, 0, 0, 0
   \              000000000000
   \              00000000    
   \   00000021   000000000000       DC8 0, 0, 0, 0, 0, 0, 0, 0, 0, 0, 0, 0, 0, 0, 0, 0
   \              000000000000
   \              00000000    
   \   00000031   000000000000       DC8 0, 0, 0, 0, 0, 0, 0, 0, 0, 0, 0, 0, 0, 0, 0, 0
   \              000000000000
   \              00000000    
   \   00000041   000000000000       DC8 0, 0, 0, 0, 0, 0, 0, 0, 0, 0, 0, 0, 0, 0, 0
   \              000000000000
   \              000000      

   \                                 In segment DATA_C, align 1, align-sorted
   \                     `?<Constant "DF">`:
   \   00000000   444600             DC8 "DF"

   \                                 In segment DATA_C, align 4, align-sorted
   \                     `?<Constant "DFP">`:
   \   00000000   44465000           DC8 "DFP"

   \                                 In segment DATA_C, align 4, align-sorted
   \                     `?<Constant "DFS">`:
   \   00000000   44465300           DC8 "DFS"

   \                                 In segment DATA_C, align 4, align-sorted
   \                     `?<Constant "DAP">`:
   \   00000000   44415000           DC8 "DAP"

   \                                 In segment DATA_C, align 4, align-sorted
   \                     `?<Constant "DAS">`:
   \   00000000   44415300           DC8 "DAS"

   \                                 In segment DATA_C, align 4, align-sorted
   \                     `?<Constant "Seawater">`:
   \   00000000   536561776174       DC8 "Seawater"
   \              657200      
   \   00000009   000000             DC8 0, 0, 0

   \                                 In segment DATA_C, align 4, align-sorted
   \                     `?<Constant "0.000">`:
   \   00000000   302E30303000       DC8 "0.000"
   \   00000006   0000               DC8 0, 0

   \                                 In segment DATA_C, align 4, align-sorted
   \                     `?<Constant "Unit">`:
   \   00000000   556E697400         DC8 "Unit"
   \   00000005   000000             DC8 0, 0, 0

   \                                 In segment CODE, align 4, keep-with-next
   \   __??Code32?? __code __interwork __atpcs TDUSysWin2 &TDUSysWin2::new TDUSysWin2()
   \                     `??new TDUSysWin2`:
   \   00000000   00402DE9           PUSH     {LR}
   \   00000004   7C00A0E3           MOV      R0,#+124
   \   00000008   ........           _BLF     `??operator new`,`??operator new??rA`
   \   0000000C   000050E3           CMP      R0,#+0
   \   00000010   0000000A           BEQ      `??new TDUSysWin2_1`
   \   00000014   ........           BL       ??TDUSysWin2
   \                     `??new TDUSysWin2_1`:
   \   00000018   0040BDE8           POP      {LR}
   \   0000001C   1EFF2FE1           BX       LR               ;; return

   \                                 In segment CODE, align 4, keep-with-next
   \   __??Code32?? __code __interwork __atpcs void TDUSysWin2::delete ~TDUSysWin2(TDUSysWin2 *)
   \                     `??delete ~TDUSysWin2`:
   \   00000000   10402DE9           PUSH     {R4,LR}
   \   00000004   0040B0E1           MOVS     R4,R0
   \   00000008   0200000A           BEQ      `??delete ~TDUSysWin2_1`
   \   0000000C   ........           BL       `?~TDUSysWin2`
   \   00000010   0400A0E1           MOV      R0,R4
   \   00000014   ........           _BLF     `??operator delete`,`??operator delete??rA`
   \                     `??delete ~TDUSysWin2_1`:
   \   00000018   1040BDE8           POP      {R4,LR}
   \   0000001C   1EFF2FE1           BX       LR               ;; return

   \                                 In segment CODE, align 4, keep-with-next
   \   static __??Code32?? __intrinsic __code __interwork __atpcs void __sti__routine()
   \                     ??__sti__routine:
   \   00000000   1EFF2FE1           BX       LR               ;; return

   \                                 In segment CODE, align 4, keep-with-next
   \                     ??DataTable0:
   \   00000000   ........           DC32     SystemWindow

   \                                 In segment CODE, align 4, keep-with-next
   \                     ??DataTable2:
   \   00000000   ........           DC32     ??ProjectType

   \                                 In segment CODE, align 4, keep-with-next
   \                     ??DataTable16:
   \   00000000   ........           DC32     ??npos

   \                                 In segment CODE, align 4, keep-with-next
   \                     ??DataTable20:
   \   00000000   ........           DC32     ??PROInclinPtr

   \                                 In segment CODE, align 4, keep-with-next
   \                     ??DataTable21:
   \   00000000   ........           DC32     ??PRODraftSysPtr

   \                                 In segment CODE, align 4, keep-with-next
   \                     ??DataTable22:
   \   00000000   ........           DC32     ??TXUSystemData

   \                                 In segment CODE, align 4, keep-with-next
   \                     ??DataTable23:
   \   00000000   31000000           DC8      "1",+0,+0

   \                                 In segment CODE, align 4, keep-with-next
   \                     ??DataTable24:
   \   00000000   30000000           DC8      "0",+0,+0

   \                                 In segment CODE, align 4, keep-with-next
   \                     ??DataTable25:
   \   00000000   ........           DC32     ??PROAtmRefPtr

   \                                 In segment CODE, align 4, keep-with-next
   \                     ??DataTable26:
   \   00000000   30000000           DC8      "0",+0,+0

   \                                 In segment CODE, align 4, keep-with-next
   \                     ??DataTable27:
   \   00000000   31000000           DC8      "1",+0,+0

   \                                 In segment CODE, align 4, keep-with-next
   \                     ??DataTable30:
   \   00000000   ........           DC32     ??npos

   Maximum stack usage in bytes:

     Function                       CSTACK
     --------                       ------
     TDUSysWin2::ExecDialogBox(GUI_HWIN)
                                       24
     TDUSysWin2::GetDialogHandles()     8
     TDUSysWin2::InitDropDown()        56
     TDUSysWin2::InitSysWin()         140
     TDUSysWin2::SetListSource(int)     4
     TDUSysWin2::SetTrimSource(int)     4
     TDUSysWin2::TDUSysWin2()           8
     TDUSysWin2::UpdateSysWin()       424
     TDUSysWin2::UpdateSystem(GUI_HWIN, int)
                                       44
     TDUSysWin2::cbSysWin(WM_MESSAGE *)
                                      264
     TDUSysWin2::delete ~TDUSysWin2(TDUSysWin2 *)
                                        8
     TDUSysWin2::new TDUSysWin2()       4
     TDUSysWin2::~TDUSysWin2()          8
     __sti__routine()                   0


   Segment part sizes:

     Function/Label                 Bytes
     --------------                 -----
     ?<Constant "">                   136
     TDUSysWin2::~TDUSysWin2()        132
     TDUSysWin2::TDUSysWin2()          32
     TDUSysWin2::aDialogCreate        600
     TDUSysWin2::IdSet1                68
     TDUSysWin2::IdSet2                84
     TDUSysWin2::ExecDialogBox(GUI_HWIN)
                                      152
     TDUSysWin2::GetDialogHandles()   420
     TDUSysWin2::InitDropDown()       556
     TDUSysWin2::InitSysWin()         264
     TDUSysWin2::UpdateSysWin()      2456
     TDUSysWin2::SetTrimSource(int)   140
     TDUSysWin2::SetListSource(int)   144
     TDUSysWin2::UpdateSystem(GUI_HWIN, int)
                                      228
     TDUSysWin2::cbSysWin(WM_MESSAGE *)
                                    13260
     ?<Initializer for IdSet1>         68
     ?<Initializer for IdSet2>         84
     ?<Constant "DS">                   3
     ?<Constant {553, 190}>             8
     ?<Constant {190}>                  4
     ?<Constant {551, 552, 190}>       12
     ?<Constant {551, 190}>             8
     ?<Constant {552, 190}>             8
     ?<Constant {190}>_1                4
     ?<Constant {{2190, 0, 30}, {352, 0, 31}, {353,
                                      132
     ?<Constant "1">                    2
     ?<Constant "0">                    2
     ?<Constant "System page 2">       16
     ?<Constant "Atmospheric ref.">    20
     ?<Constant "meter">                8
     ?<Constant "Trim     Source:">    20
     ?<Constant "degree">               8
     ?<Constant "List      Source:">
                                       20
     ?<Constant "DA">                   3
     ?<Constant "DP">                   3
     ?<Constant "">_1                  80
     ?<Constant "DF">                   3
     ?<Constant "DFP">                  4
     ?<Constant "DFS">                  4
     ?<Constant "DAP">                  4
     ?<Constant "DAS">                  4
     ?<Constant "Seawater">            12
     ?<Constant "0.000">                8
     ?<Constant "Unit">                 8
     TDUSysWin2::new TDUSysWin2()      32
     TDUSysWin2::delete ~TDUSysWin2(TDUSysWin2 *)
                                       32
     __sti__routine()                   4
     ??DataTable0                       4
     ??DataTable2                       4
     ??DataTable16                      4
     ??DataTable20                      4
     ??DataTable21                      4
     ??DataTable22                      4
     ??DataTable23                      4
     ??DataTable24                      4
     ??DataTable25                      4
     ??DataTable26                      4
     ??DataTable27                      4
     ??DataTable30                      4
      Others                          648

 
 18 532 bytes in segment CODE
  1 144 bytes in segment DATA_C
    152 bytes in segment DATA_I
    152 bytes in segment DATA_ID
      4 bytes in segment DIFUNCT
     12 bytes in segment INITTAB
 
 17 904 bytes of CODE  memory (+ 644 bytes shared)
  1 296 bytes of CONST memory
    152 bytes of DATA  memory

Errors: none
Warnings: none
