##############################################################################
#                                                                            #
# IAR ARM ANSI C/C++ Compiler V4.42A/W32               14/Sep/2022  15:18:55 #
# Copyright 1999-2005 IAR Systems. All rights reserved.                      #
#                                                                            #
#    Cpu mode        =  interwork                                            #
#    Endian          =  little                                               #
#    Stack alignment =  4                                                    #
#    Source file     =  D:\S2Prog\TXU\src\TDUSystemWin.cpp                   #
#    Command line    =  D:\S2Prog\TXU\src\TDUSystemWin.cpp --fpu None -D     #
#                       OS_LIBMODE_SP -D CPU_S3C2410 -D OS_RAMVECT=0 -D      #
#                       OS_UART=-1 -D S2TXU -D USE_LZO=1 -D __ARM_LIBRARY__  #
#                       -D WATCHDOG=1 -D NETWORK=1 -lCN                      #
#                       D:\S2Prog\TXU\Debug\List\ -o                         #
#                       D:\S2Prog\TXU\Debug\Obj\ -s9 --debug --cpu_mode arm  #
#                       --endian little --cpu ARM920T --stack_align 4        #
#                       --interwork -e --enable_multibytes --eec++           #
#                       --dlib_config "C:\Program Files (x86)\IAR            #
#                       Systems\Embedded Workbench                           #
#                       4.0\arm\LIB\dl4tpainl8n.h" -I                        #
#                       D:\S2Prog\TXU\GUI\CORE\ -I D:\S2Prog\TXU\GUI\WM\ -I  #
#                       D:\S2Prog\TXU\GUI\WIDGET\ -I D:\S2Prog\TXU\CONFIG\   #
#                       -I D:\S2Prog\TXU\INC\ -I D:\S2Prog\TXU\..\SHARED\INC #
#                       \ -I D:\S2Prog\TXU\..\SHARED\SRC\ -I                 #
#                       D:\S2Prog\TXU\..\SHARED\LZO\minilzo.210\ -I          #
#                       D:\S2Prog\TXU\lwip-1.4.1\src\include\ -I             #
#                       D:\S2Prog\TXU\lwip-1.4.1\src\include\ipv4\ -I        #
#                       D:\S2Prog\TXU\lwip-1.4.1\src\ -I                     #
#                       D:\S2Prog\TXU\..\SHARED\Database\ -I                 #
#                       D:\S2Prog\TXU\src\ -I "C:\Program Files (x86)\IAR    #
#                       Systems\Embedded Workbench 4.0\arm\INC\"             #
#                       --inline_threshold=2                                 #
#    List file       =  D:\S2Prog\TXU\Debug\List\TDUSystemWin.lst            #
#    Object file     =  D:\S2Prog\TXU\Debug\Obj\TDUSystemWin.r79             #
#                                                                            #
#                                                                            #
##############################################################################

D:\S2Prog\TXU\src\TDUSystemWin.cpp
      1          #include "TDUIncludes.h"

   \                                 In segment CODE, align 4, keep-with-next
   \   __??Code32?? __code __interwork __atpcs void operator+(string const &, string const &)
   \                     `??operator+`:
   \   00000000   F0402DE9           PUSH     {R4-R7,LR}
   \   00000004   1CD04DE2           SUB      SP,SP,#+28
   \   00000008   0040A0E1           MOV      R4,R0
   \   0000000C   0150A0E1           MOV      R5,R1
   \   00000010   0260A0E1           MOV      R6,R2
   \   00000014   0020A0E3           MOV      R2,#+0
   \   00000018   0010A0E3           MOV      R1,#+0
   \   0000001C   0D00A0E1           MOV      R0,SP
   \   00000020   ........           _BLF     ??_Tidy,??_Tidy??rA
   \   00000024   6C009FE5           LDR      R0,`??operator+_1`  ;; ??npos
   \   00000028   0020A0E3           MOV      R2,#+0
   \   0000002C   007090E5           LDR      R7,[R0, #+0]
   \   00000030   0510A0E1           MOV      R1,R5
   \   00000034   0730A0E1           MOV      R3,R7
   \   00000038   0D00A0E1           MOV      R0,SP
   \   0000003C   ........           _BLF     ??assign,??assign??rA
   \   00000040   0730A0E1           MOV      R3,R7
   \   00000044   0020A0E3           MOV      R2,#+0
   \   00000048   0610A0E1           MOV      R1,R6
   \   0000004C   0D00A0E1           MOV      R0,SP
   \   00000050   ........           _BLF     ??append,??append??rA
   \   00000054   0050A0E1           MOV      R5,R0
   \   00000058   0020A0E3           MOV      R2,#+0
   \   0000005C   0210A0E1           MOV      R1,R2
   \   00000060   0400A0E1           MOV      R0,R4
   \   00000064   ........           _BLF     ??_Tidy,??_Tidy??rA
   \   00000068   0730A0E1           MOV      R3,R7
   \   0000006C   0020A0E3           MOV      R2,#+0
   \   00000070   0510A0E1           MOV      R1,R5
   \   00000074   0400A0E1           MOV      R0,R4
   \   00000078   ........           _BLF     ??assign,??assign??rA
   \   0000007C   0020A0E3           MOV      R2,#+0
   \   00000080   0110A0E3           MOV      R1,#+1
   \   00000084   0D00A0E1           MOV      R0,SP
   \   00000088   ........           _BLF     ??_Tidy,??_Tidy??rA
   \   0000008C   1CD08DE2           ADD      SP,SP,#+28
   \   00000090   F040BDE8           POP      {R4-R7,LR}
   \   00000094   1EFF2FE1           BX       LR               ;; return
   \                     `??operator+_1`:
   \   00000098   ........           DC32     ??npos
      2          

   \                                 In segment CODE, align 4, keep-with-next
      3          TDUSystemWin::~TDUSystemWin(void) {
   \                     `?~TDUSystemWin`:
   \   00000000   10402DE9           PUSH     {R4,LR}
   \   00000004   0040A0E1           MOV      R4,R0
   \   00000008   ........           LDR      R0,??DataTable1  ;; ??__vtbl
   \   0000000C   440084E5           STR      R0,[R4, #+68]
      4          #if defined(S2TXU) || defined(ANBOOLOADER)
      5              OS_DeleteRSema(&SysWinSema);
   \   00000010   480084E2           ADD      R0,R4,#+72
   \   00000014   ........           _BLF     OS_DeleteRSema,??OS_DeleteRSema??rA
      6          #else
      7              delete SysWinSema;
      8          #endif
      9          }
   \   00000018   0400A0E1           MOV      R0,R4
   \   0000001C   ........           _BLF     `?~TDUPresentWin`,`?~TDUPresentWin??rA`
   \   00000020   1040BDE8           POP      {R4,LR}
   \   00000024   1EFF2FE1           BX       LR               ;; return
     10          

   \                                 In segment CODE, align 4, keep-with-next
     11          TDUSystemWin::TDUSystemWin(void) {
   \                     ??TDUSystemWin:
   \   00000000   10402DE9           PUSH     {R4,LR}
   \   00000004   0040A0E1           MOV      R4,R0
   \   00000008   ........           _BLF     ??TDUPresentWin,??TDUPresentWin??rA
   \   0000000C   ........           LDR      R0,??DataTable1  ;; ??__vtbl
   \   00000010   440084E5           STR      R0,[R4, #+68]
     12          #if defined(S2TXU) || defined(ANBOOLOADER)
     13              OS_CREATERSEMA(&SysWinSema);
   \   00000014   480084E2           ADD      R0,R4,#+72
   \   00000018   ........           _BLF     OS_CreateRSema,??OS_CreateRSema??rA
     14              //WithProtection = false;
     15          #else
     16              //ListSema = CreateMutex( NULL, FALSE, NULL );
     17              SysWinSema = new ANCriticalSection;
     18              AcquireCnt = 0;
     19          #endif
     20          
     21              SysWin1    = new TDUSysWin1;
   \   0000001C   ........           _BLF     `??new TDUSysWin1`,`??new TDUSysWin1??rA`
   \   00000020   580084E5           STR      R0,[R4, #+88]
     22              SysWin2    = new TDUSysWin2;
   \   00000024   ........           _BLF     `??new TDUSysWin2`,`??new TDUSysWin2??rA`
   \   00000028   5C0084E5           STR      R0,[R4, #+92]
     23              SysWin3    = new TDUSysWin3;
   \   0000002C   ........           _BLF     `??new TDUSysWin3`,`??new TDUSysWin3??rA`
   \   00000030   600084E5           STR      R0,[R4, #+96]
     24              SysWin4    = new TDUSysWin4;
   \   00000034   ........           _BLF     `??new TDUSysWin4`,`??new TDUSysWin4??rA`
   \   00000038   640084E5           STR      R0,[R4, #+100]
     25              SysWin5    = new TDUSysWin5;
   \   0000003C   ........           _BLF     `??new TDUSysWin5`,`??new TDUSysWin5??rA`
   \   00000040   680084E5           STR      R0,[R4, #+104]
     26          
     27              SysWin1IsClosed    = true;
   \   00000044   0100A0E3           MOV      R0,#+1
   \   00000048   7000C4E5           STRB     R0,[R4, #+112]
     28              SysWin2IsClosed    = true;
   \   0000004C   7100C4E5           STRB     R0,[R4, #+113]
     29              SysWin3IsClosed    = true;
   \   00000050   7200C4E5           STRB     R0,[R4, #+114]
     30              SysWin4IsClosed    = true;
   \   00000054   7300C4E5           STRB     R0,[R4, #+115]
     31              SysWin5IsClosed    = true;
   \   00000058   7400C4E5           STRB     R0,[R4, #+116]
     32              CurrentSysWin      = TDU_NO_WIN;
   \   0000005C   0000A0E3           MOV      R0,#+0
   \   00000060   6C0084E5           STR      R0,[R4, #+108]
     33              IsModified         = false;
   \   00000064   7500C4E5           STRB     R0,[R4, #+117]
     34          
     35          }
   \   00000068   0400A0E1           MOV      R0,R4
   \   0000006C   1040BDE8           POP      {R4,LR}
   \   00000070   1EFF2FE1           BX       LR               ;; return
     36          

   \                                 In segment CODE, align 4, keep-with-next
     37          void TDUSystemWin::CloseSystemWin(void) {
   \                     ??CloseSystemWin:
   \   00000000   30402DE9           PUSH     {R4,R5,LR}
   \   00000004   0040A0E1           MOV      R4,R0
     38              Protect();
   \   00000008   ........           BL       ??Protect
     39              if (!SysWin1IsClosed) {
   \   0000000C   7000D4E5           LDRB     R0,[R4, #+112]
   \   00000010   000050E3           CMP      R0,#+0
   \   00000014   0B00001A           BNE      ??CloseSystemWin_1
     40                  SysWin1->CloseSysWin();
   \   00000018   580094E5           LDR      R0,[R4, #+88]
   \   0000001C   ........           _BLF     ??CloseSysWin,??CloseSysWin??rA
     41                  GUI_EndDialog(SysWin1->WinHandl, 0);
   \   00000020   580094E5           LDR      R0,[R4, #+88]
   \   00000024   0010A0E3           MOV      R1,#+0
   \   00000028   FA02D0E1           LDRSH    R0,[R0, #+42]
   \   0000002C   ........           _BLF     GUI_EndDialog,??GUI_EndDialog??rA
     42                  while (!SysWin1IsClosed) {
   \                     ??CloseSystemWin_2:
   \   00000030   7000D4E5           LDRB     R0,[R4, #+112]
   \   00000034   000050E3           CMP      R0,#+0
   \   00000038   4700001A           BNE      ??CloseSystemWin_3
     43                      TSN_Delay(1);
   \   0000003C   0100A0E3           MOV      R0,#+1
   \   00000040   ........           _BLF     OS_Delay,??OS_Delay??rA
   \   00000044   F9FFFFEA           B        ??CloseSystemWin_2
     44                  }
     45              } else if (!SysWin2IsClosed) {
   \                     ??CloseSystemWin_1:
   \   00000048   7100D4E5           LDRB     R0,[R4, #+113]
   \   0000004C   000050E3           CMP      R0,#+0
   \   00000050   0900001A           BNE      ??CloseSystemWin_4
     46                  GUI_EndDialog(SysWin2->WinHandl, 0);
   \   00000054   5C0094E5           LDR      R0,[R4, #+92]
   \   00000058   0010A0E3           MOV      R1,#+0
   \   0000005C   FA02D0E1           LDRSH    R0,[R0, #+42]
   \   00000060   ........           _BLF     GUI_EndDialog,??GUI_EndDialog??rA
     47                  while (!SysWin2IsClosed) {
   \                     ??CloseSystemWin_5:
   \   00000064   7100D4E5           LDRB     R0,[R4, #+113]
   \   00000068   000050E3           CMP      R0,#+0
   \   0000006C   3A00001A           BNE      ??CloseSystemWin_3
     48                      TSN_Delay(1);
   \   00000070   0100A0E3           MOV      R0,#+1
   \   00000074   ........           _BLF     OS_Delay,??OS_Delay??rA
   \   00000078   F9FFFFEA           B        ??CloseSystemWin_5
     49                  }
     50              } else if (!SysWin3IsClosed) {
   \                     ??CloseSystemWin_4:
   \   0000007C   7200D4E5           LDRB     R0,[R4, #+114]
   \   00000080   000050E3           CMP      R0,#+0
   \   00000084   0900001A           BNE      ??CloseSystemWin_6
     51                  GUI_EndDialog(SysWin3->WinHandl, 0);
   \   00000088   600094E5           LDR      R0,[R4, #+96]
   \   0000008C   0010A0E3           MOV      R1,#+0
   \   00000090   FA02D0E1           LDRSH    R0,[R0, #+42]
   \   00000094   ........           _BLF     GUI_EndDialog,??GUI_EndDialog??rA
     52                  while (!SysWin3IsClosed) {
   \                     ??CloseSystemWin_7:
   \   00000098   7200D4E5           LDRB     R0,[R4, #+114]
   \   0000009C   000050E3           CMP      R0,#+0
   \   000000A0   2D00001A           BNE      ??CloseSystemWin_3
     53                      TSN_Delay(1);
   \   000000A4   0100A0E3           MOV      R0,#+1
   \   000000A8   ........           _BLF     OS_Delay,??OS_Delay??rA
   \   000000AC   F9FFFFEA           B        ??CloseSystemWin_7
     54                  }
     55              } else if (!SysWin4IsClosed) {
   \                     ??CloseSystemWin_6:
   \   000000B0   7300D4E5           LDRB     R0,[R4, #+115]
   \   000000B4   000050E3           CMP      R0,#+0
   \   000000B8   0900001A           BNE      ??CloseSystemWin_8
     56                  GUI_EndDialog(SysWin4->WinHandl, 0);
   \   000000BC   640094E5           LDR      R0,[R4, #+100]
   \   000000C0   0010A0E3           MOV      R1,#+0
   \   000000C4   FA02D0E1           LDRSH    R0,[R0, #+42]
   \   000000C8   ........           _BLF     GUI_EndDialog,??GUI_EndDialog??rA
     57                  while (!SysWin4IsClosed) {
   \                     ??CloseSystemWin_9:
   \   000000CC   7300D4E5           LDRB     R0,[R4, #+115]
   \   000000D0   000050E3           CMP      R0,#+0
   \   000000D4   2000001A           BNE      ??CloseSystemWin_3
     58                      TSN_Delay(1);
   \   000000D8   0100A0E3           MOV      R0,#+1
   \   000000DC   ........           _BLF     OS_Delay,??OS_Delay??rA
   \   000000E0   F9FFFFEA           B        ??CloseSystemWin_9
     59                  }
     60              } else if (!SysWin5IsClosed) {
   \                     ??CloseSystemWin_8:
   \   000000E4   7400D4E5           LDRB     R0,[R4, #+116]
   \   000000E8   000050E3           CMP      R0,#+0
   \   000000EC   0900001A           BNE      ??CloseSystemWin_10
     61                  GUI_EndDialog(SysWin5->WinHandl, 0);
   \   000000F0   680094E5           LDR      R0,[R4, #+104]
   \   000000F4   0010A0E3           MOV      R1,#+0
   \   000000F8   FA02D0E1           LDRSH    R0,[R0, #+42]
   \   000000FC   ........           _BLF     GUI_EndDialog,??GUI_EndDialog??rA
     62                  while (!SysWin5IsClosed) {
   \                     ??CloseSystemWin_11:
   \   00000100   7400D4E5           LDRB     R0,[R4, #+116]
   \   00000104   000050E3           CMP      R0,#+0
   \   00000108   1300001A           BNE      ??CloseSystemWin_3
     63                      TSN_Delay(1);
   \   0000010C   0100A0E3           MOV      R0,#+1
   \   00000110   ........           _BLF     OS_Delay,??OS_Delay??rA
   \   00000114   F9FFFFEA           B        ??CloseSystemWin_11
     64                  }
     65              } else if (!SensorDetails->IsClosed) {
   \                     ??CloseSystemWin_10:
   \   00000118   ........           LDR      R5,??DataTable5  ;; SensorDetails
   \   0000011C   000095E5           LDR      R0,[R5, #+0]
   \   00000120   6C10D0E5           LDRB     R1,[R0, #+108]
   \   00000124   000051E3           CMP      R1,#+0
   \   00000128   0B00001A           BNE      ??CloseSystemWin_3
     66                  SensorDetails->IsClosed = true;
   \   0000012C   0110A0E3           MOV      R1,#+1
   \   00000130   6C10C0E5           STRB     R1,[R0, #+108]
     67                  GUI_EndDialog(SensorDetails->WinHandl, 0);
   \   00000134   FA02D0E1           LDRSH    R0,[R0, #+42]
   \   00000138   0010A0E3           MOV      R1,#+0
   \   0000013C   ........           _BLF     GUI_EndDialog,??GUI_EndDialog??rA
   \   00000140   010000EA           B        ??CloseSystemWin_12
     68                  while (!SensorDetails->IsClosed) {
     69                      TSN_Delay(1);
   \                     ??CloseSystemWin_13:
   \   00000144   0100A0E3           MOV      R0,#+1
   \   00000148   ........           _BLF     OS_Delay,??OS_Delay??rA
     70                  }
   \                     ??CloseSystemWin_12:
   \   0000014C   000095E5           LDR      R0,[R5, #+0]
   \   00000150   6C00D0E5           LDRB     R0,[R0, #+108]
   \   00000154   000050E3           CMP      R0,#+0
   \   00000158   F9FFFF0A           BEQ      ??CloseSystemWin_13
     71              }
     72              UnProtect();
   \                     ??CloseSystemWin_3:
   \   0000015C   0400A0E1           MOV      R0,R4
   \   00000160   ........           BL       ??UnProtect
     73              // Give the windows system a little time to close down the page
     74              //TSN_Delay(50);
     75          }
   \   00000164   3040BDE8           POP      {R4,R5,LR}
   \   00000168   1EFF2FE1           BX       LR               ;; return
     76          

   \                                 In segment CODE, align 4, keep-with-next
     77          void TDUSystemWin::SetButton(void) {
   \                     ??SetButton:
   \   00000000   70402DE9           PUSH     {R4-R6,LR}
     78              SystemWindow->Protect();
   \   00000004   D4509FE5           LDR      R5,??SetButton_1  ;; SystemWindow
     79              ButWindow->EnableButtons(true, true, false, false, true);
   \   00000008   ........           LDR      R6,??DataTable4  ;; ButWindow
   \   0000000C   0040A0E1           MOV      R4,R0
   \   00000010   000095E5           LDR      R0,[R5, #+0]
   \   00000014   ........           BL       ??Protect
   \   00000018   0100A0E3           MOV      R0,#+1
   \   0000001C   01002DE9           PUSH     {R0}
   \   00000020   0000A0E3           MOV      R0,#+0
   \   00000024   01002DE9           PUSH     {R0}
   \   00000028   000096E5           LDR      R0,[R6, #+0]
   \   0000002C   0030A0E3           MOV      R3,#+0
   \   00000030   0120A0E3           MOV      R2,#+1
   \   00000034   0210A0E1           MOV      R1,R2
   \   00000038   ........           _BLF     ??EnableButtons,??EnableButtons??rA
     80              ButWindow->ChangeButtonText(L_WORD167, L_WORD168, L_WORD237, L_WORD237, L_WORD18);
   \   0000003C   1200A0E3           MOV      R0,#+18
   \   00000040   01002DE9           PUSH     {R0}
   \   00000044   ED00A0E3           MOV      R0,#+237
   \   00000048   01002DE9           PUSH     {R0}
   \   0000004C   0030A0E1           MOV      R3,R0
   \   00000050   000096E5           LDR      R0,[R6, #+0]
   \   00000054   A820A0E3           MOV      R2,#+168
   \   00000058   A710A0E3           MOV      R1,#+167
   \   0000005C   ........           _BLF     ??ChangeButtonText,??ChangeButtonText??rA
     81              switch (CurrentSysWin) {
   \   00000060   6C0094E5           LDR      R0,[R4, #+108]
   \   00000064   10D08DE2           ADD      SP,SP,#+16
   \   00000068   020050E2           SUBS     R0,R0,#+2
   \   0000006C   0900000A           BEQ      ??SetButton_2
   \   00000070   010050E2           SUBS     R0,R0,#+1
   \   00000074   0B00000A           BEQ      ??SetButton_3
   \   00000078   010050E2           SUBS     R0,R0,#+1
   \   0000007C   0D00000A           BEQ      ??SetButton_4
   \   00000080   FA12D4E1           LDRSH    R1,[R4, #+42]
   \   00000084   010050E2           SUBS     R0,R0,#+1
   \   00000088   0E00000A           BEQ      ??SetButton_5
     82              case TDU_SYSWIN1:
     83                  SysWin1->ExecDialogBox(WinHandl);
   \   0000008C   580094E5           LDR      R0,[R4, #+88]
   \   00000090   ........           _BLF     ??ExecDialogBox,??ExecDialogBox??rA
   \   00000094   0D0000EA           B        ??SetButton_6
     84                  break;
     85              case TDU_SYSWIN2:
     86                  SysWin2->ExecDialogBox(WinHandl);
   \                     ??SetButton_2:
   \   00000098   FA12D4E1           LDRSH    R1,[R4, #+42]
   \   0000009C   5C0094E5           LDR      R0,[R4, #+92]
   \   000000A0   ........           _BLF     ??ExecDialogBox_1,??ExecDialogBox??rA_1
   \   000000A4   090000EA           B        ??SetButton_6
     87                  break;
     88              case TDU_SYSWIN3:
     89                  SysWin3->ExecDialogBox(WinHandl);
   \                     ??SetButton_3:
   \   000000A8   FA12D4E1           LDRSH    R1,[R4, #+42]
   \   000000AC   600094E5           LDR      R0,[R4, #+96]
   \   000000B0   ........           _BLF     ??ExecDialogBox_2,??ExecDialogBox??rA_2
   \   000000B4   050000EA           B        ??SetButton_6
     90                  break;
     91              case TDU_SYSWIN4:
     92                  SysWin4->ExecDialogBox(WinHandl);
   \                     ??SetButton_4:
   \   000000B8   FA12D4E1           LDRSH    R1,[R4, #+42]
   \   000000BC   640094E5           LDR      R0,[R4, #+100]
   \   000000C0   ........           _BLF     ??ExecDialogBox_3,??ExecDialogBox??rA_3
   \   000000C4   010000EA           B        ??SetButton_6
     93                  break;
     94              case TDU_SYSWIN5:
     95                  SysWin5->ExecDialogBox(WinHandl);
   \                     ??SetButton_5:
   \   000000C8   680094E5           LDR      R0,[R4, #+104]
   \   000000CC   ........           _BLF     ??ExecDialogBox_4,??ExecDialogBox??rA_4
     96                  break;
     97              default:
     98                  SysWin1->ExecDialogBox(WinHandl);
     99                  break;
    100              }
    101              SystemWindow->UnProtect();
   \                     ??SetButton_6:
   \   000000D0   000095E5           LDR      R0,[R5, #+0]
   \   000000D4   ........           BL       ??UnProtect
    102          }
   \   000000D8   7040BDE8           POP      {R4-R6,LR}
   \   000000DC   1EFF2FE1           BX       LR               ;; return
   \                     ??SetButton_1:
   \   000000E0   ........           DC32     SystemWindow
    103          

   \                                 In segment CODE, align 4, keep-with-next
    104          void TDUSystemWin::ButtonClicked(int ButtID) {
   \                     ??ButtonClicked:
   \   00000000   70402DE9           PUSH     {R4-R6,LR}
    105              Protect();
    106              switch (ButtID) {
   \   00000004   ........           LDR      R5,??DataTable4  ;; ButWindow
   \   00000008   0040A0E1           MOV      R4,R0
   \   0000000C   0160A0E1           MOV      R6,R1
   \   00000010   ........           BL       ??Protect
   \   00000014   D16046E2           SUB      R6,R6,#+209
   \   00000018   806E46E2           SUB      R6,R6,#+2048
   \   0000001C   040056E3           CMP      R6,#+4
   \   00000020   5700008A           BHI      ??ButtonClicked_4
   \   00000024   010F8FE2           ADR      R0,??ButtonClicked_1
   \   00000028   0600D0E7           LDRB     R0,[R0, R6]
   \   0000002C   00F18FE0           ADD      PC,PC,R0, LSL #+2
   \                     ??ButtonClicked_1:
   \   00000030   011C2B54           DC8      +1,+28,+43,+84
   \   00000034   39000000           DC8      +57,+0,+0,+0
    107              case TDU_BUTTON_ID_PW1: // < Prev
    108                  {
    109                      CloseSystemWin();
   \                     ??ButtonClicked_5:
   \   00000038   0400A0E1           MOV      R0,R4
   \   0000003C   ........           BL       ??CloseSystemWin
    110                      switch (CurrentSysWin) {
   \   00000040   6C0094E5           LDR      R0,[R4, #+108]
   \   00000044   010040E2           SUB      R0,R0,#+1
   \   00000048   040050E3           CMP      R0,#+4
   \   0000004C   4C00008A           BHI      ??ButtonClicked_4
   \   00000050   011F8FE2           ADR      R1,??ButtonClicked_2
   \   00000054   0010D1E7           LDRB     R1,[R1, R0]
   \   00000058   01F18FE0           ADD      PC,PC,R1, LSL #+2
   \                     ??ButtonClicked_2:
   \   0000005C   01051C09           DC8      +1,+5,+28,+9
   \   00000060   0D000000           DC8      +13,+0,+0,+0
    111                      case TDU_SYSWIN1:
    112                          SysWin5->ExecDialogBox(WinHandl);
   \                     ??ButtonClicked_6:
   \   00000064   FA12D4E1           LDRSH    R1,[R4, #+42]
   \   00000068   680094E5           LDR      R0,[R4, #+104]
   \   0000006C   ........           _BLF     ??ExecDialogBox_4,??ExecDialogBox??rA_4
   \   00000070   430000EA           B        ??ButtonClicked_4
    113                          break;
    114                      case TDU_SYSWIN2:
    115                          SysWin1->ExecDialogBox(WinHandl);
   \                     ??ButtonClicked_7:
   \   00000074   FA12D4E1           LDRSH    R1,[R4, #+42]
   \   00000078   580094E5           LDR      R0,[R4, #+88]
   \   0000007C   ........           _BLF     ??ExecDialogBox,??ExecDialogBox??rA
   \   00000080   3F0000EA           B        ??ButtonClicked_4
    116                          break;
    117                      case TDU_SYSWIN3:
    118                          SysWin2->ExecDialogBox(WinHandl);
    119                          break;
    120                      case TDU_SYSWIN4:
    121                          SysWin3->ExecDialogBox(WinHandl);
   \                     ??ButtonClicked_8:
   \   00000084   FA12D4E1           LDRSH    R1,[R4, #+42]
   \   00000088   600094E5           LDR      R0,[R4, #+96]
   \   0000008C   ........           _BLF     ??ExecDialogBox_2,??ExecDialogBox??rA_2
   \   00000090   3B0000EA           B        ??ButtonClicked_4
    122                          break;
    123                      case TDU_SYSWIN5:
    124                          SysWin4->ExecDialogBox(WinHandl);
   \                     ??ButtonClicked_9:
   \   00000094   FA12D4E1           LDRSH    R1,[R4, #+42]
   \   00000098   640094E5           LDR      R0,[R4, #+100]
   \   0000009C   ........           _BLF     ??ExecDialogBox_3,??ExecDialogBox??rA_3
   \   000000A0   370000EA           B        ??ButtonClicked_4
    125                          break;
    126                      }
    127          
    128                  }
    129                  break;
    130              case TDU_BUTTON_ID_PW2: // > Next
    131                  {
    132                      CloseSystemWin();
   \                     ??ButtonClicked_10:
   \   000000A4   0400A0E1           MOV      R0,R4
   \   000000A8   ........           BL       ??CloseSystemWin
    133                      switch (CurrentSysWin) {
   \   000000AC   6C0094E5           LDR      R0,[R4, #+108]
   \   000000B0   010040E2           SUB      R0,R0,#+1
   \   000000B4   040050E3           CMP      R0,#+4
   \   000000B8   3100008A           BHI      ??ButtonClicked_4
   \   000000BC   011F8FE2           ADR      R1,??ButtonClicked_3
   \   000000C0   D01091E1           LDRSB    R1,[R1, R0]
   \   000000C4   01F18FE0           ADD      PC,PC,R1, LSL #+2
   \                     ??ButtonClicked_3:
   \   000000C8   01EEF2E6           DC8      +1,+238,+242,+230
   \   000000CC   EA000000           DC8      +234,+0,+0,+0
    134                      case TDU_SYSWIN1:
    135                          SysWin2->ExecDialogBox(WinHandl);
    136                          break;
    137                      case TDU_SYSWIN2:
    138                          SysWin3->ExecDialogBox(WinHandl);
    139                          break;
    140                      case TDU_SYSWIN3:
    141                          SysWin4->ExecDialogBox(WinHandl);
    142                          break;
    143                      case TDU_SYSWIN4:
    144                          SysWin5->ExecDialogBox(WinHandl);
    145                          break;
    146                      case TDU_SYSWIN5:
    147                          SysWin1->ExecDialogBox(WinHandl);
    148                          break;
    149                      }
    150                  }
   \                     ??ButtonClicked_11:
   \   000000D0   FA12D4E1           LDRSH    R1,[R4, #+42]
   \   000000D4   5C0094E5           LDR      R0,[R4, #+92]
   \   000000D8   ........           _BLF     ??ExecDialogBox_1,??ExecDialogBox??rA_1
   \   000000DC   280000EA           B        ??ButtonClicked_4
    151                  break;
    152              case TDU_BUTTON_ID_PW3:
    153                  switch (CurrentSysWin) {
   \                     ??ButtonClicked_12:
   \   000000E0   6C0094E5           LDR      R0,[R4, #+108]
   \   000000E4   030050E3           CMP      R0,#+3
   \   000000E8   2500001A           BNE      ??ButtonClicked_4
    154                  case TDU_SYSWIN1:
    155                  case TDU_SYSWIN2:
    156                  case TDU_SYSWIN4:
    157                  case TDU_SYSWIN5:
    158                      break;
    159                  case TDU_SYSWIN3:
    160                      for (int i = 0; i < 3; i++) {
   \   000000EC   0060A0E3           MOV      R6,#+0
    161                          ButWindow->EnableButton(i, false);
   \                     ??ButtonClicked_13:
   \   000000F0   000095E5           LDR      R0,[R5, #+0]
   \   000000F4   0020A0E3           MOV      R2,#+0
   \   000000F8   0610A0E1           MOV      R1,R6
   \   000000FC   ........           _BLF     ??EnableButton,??EnableButton??rA
    162                      }
   \   00000100   016086E2           ADD      R6,R6,#+1
   \   00000104   030056E3           CMP      R6,#+3
   \   00000108   F8FFFFBA           BLT      ??ButtonClicked_13
    163                      SysWin3->SetupWin();
   \   0000010C   600094E5           LDR      R0,[R4, #+96]
   \   00000110   ........           _BLF     ??SetupWin,??SetupWin??rA
   \   00000114   1A0000EA           B        ??ButtonClicked_4
    164                      break;
    165                  }
    166                  break;
    167              case TDU_BUTTON_ID_PW4:
    168                  break;
    169              case TDU_BUTTON_ID_PW5:
    170                  if (!SensorDetails->IsClosed) {
   \                     ??ButtonClicked_14:
   \   00000118   ........           LDR      R6,??DataTable5  ;; SensorDetails
   \   0000011C   000096E5           LDR      R0,[R6, #+0]
   \   00000120   6C10D0E5           LDRB     R1,[R0, #+108]
   \   00000124   000051E3           CMP      R1,#+0
   \   00000128   1000001A           BNE      ??ButtonClicked_15
    171                      SensorDetails->IsClosed = true;
   \   0000012C   0110A0E3           MOV      R1,#+1
   \   00000130   6C10C0E5           STRB     R1,[R0, #+108]
    172                      GUI_EndDialog(SensorDetails->WinHandl, 0);
   \   00000134   FA02D0E1           LDRSH    R0,[R0, #+42]
   \   00000138   0010A0E3           MOV      R1,#+0
   \   0000013C   ........           _BLF     GUI_EndDialog,??GUI_EndDialog??rA
    173                      CurrentSysWin = SensorDetails->PreviousSysWin;
   \   00000140   000096E5           LDR      R0,[R6, #+0]
    174                      ButWindow->EnableButton(0, true);
   \   00000144   0120A0E3           MOV      R2,#+1
   \   00000148   700090E5           LDR      R0,[R0, #+112]
   \   0000014C   0010A0E3           MOV      R1,#+0
   \   00000150   6C0084E5           STR      R0,[R4, #+108]
   \   00000154   000095E5           LDR      R0,[R5, #+0]
   \   00000158   ........           _BLF     ??EnableButton,??EnableButton??rA
    175                      ButWindow->EnableButton(1, true);
   \   0000015C   000095E5           LDR      R0,[R5, #+0]
   \   00000160   0120A0E3           MOV      R2,#+1
   \   00000164   0110A0E3           MOV      R1,#+1
   \   00000168   ........           _BLF     ??EnableButton,??EnableButton??rA
   \   0000016C   040000EA           B        ??ButtonClicked_4
    176                  } else {
    177                      CloseSystemWin();
   \                     ??ButtonClicked_15:
   \   00000170   0400A0E1           MOV      R0,R4
   \   00000174   ........           BL       ??CloseSystemWin
    178                      MainWindow->SetPreviousWindow();
   \   00000178   14009FE5           LDR      R0,??ButtonClicked_16  ;; MainWindow
   \   0000017C   000090E5           LDR      R0,[R0, #+0]
   \   00000180   ........           _BLF     ??SetPreviousWindow,??SetPreviousWindow??rA
    179                  }
    180                  break;
    181              }
    182              UnProtect();
   \                     ??ButtonClicked_4:
   \   00000184   0400A0E1           MOV      R0,R4
   \   00000188   ........           BL       ??UnProtect
    183          }
   \   0000018C   7040BDE8           POP      {R4-R6,LR}
   \   00000190   1EFF2FE1           BX       LR               ;; return
   \                     ??ButtonClicked_16:
   \   00000194   ........           DC32     MainWindow
    184          

   \                                 In segment CODE, align 4, keep-with-next
    185          void TDUSystemWin::cbEventHandler(WM_MESSAGE *pMsg) {
   \                     ??cbEventHandler:
   \   00000000   10402DE9           PUSH     {R4,LR}
   \   00000004   0040A0E1           MOV      R4,R0
   \   00000008   0100A0E1           MOV      R0,R1
    186              //WM_HWIN hWin =(pMsg->hWin);
    187              switch (pMsg->MsgId) {
   \   0000000C   001090E5           LDR      R1,[R0, #+0]
   \   00000010   011051E2           SUBS     R1,R1,#+1
   \   00000014   0B00000A           BEQ      ??cbEventHandler_1
   \   00000018   0E1051E2           SUBS     R1,R1,#+14
   \   0000001C   0800001A           BNE      ??cbEventHandler_2
    188              case WM_PAINT:
    189                  {
    190                      GUI_SetBkColor(TDU_C_BACK_DEFAULT);
   \   00000020   28009FE5           LDR      R0,??cbEventHandler_3  ;; 0xd3d3d3
   \   00000024   ........           _BLF     GUI_SetBkColor,??GUI_SetBkColor??rA
    191                      GUI_Clear();
   \   00000028   ........           _BLF     GUI_Clear,??GUI_Clear??rA
    192                      GUI_SetColor(TDU_C_TEXT_DEFAULT);
   \   0000002C   0000A0E3           MOV      R0,#+0
   \   00000030   ........           _BLF     GUI_SetColor,??GUI_SetColor??rA
    193                  }
    194                  UpdateFields(true);
   \   00000034   0110A0E3           MOV      R1,#+1
   \   00000038   0400A0E1           MOV      R0,R4
   \   0000003C   ........           _BLF     ??UpdateFields,??UpdateFields??rA
   \   00000040   000000EA           B        ??cbEventHandler_1
    195                  break;
    196              case WM_CREATE:
    197                  break;
    198              default:
    199                  WM_DefaultProc(pMsg);
   \                     ??cbEventHandler_2:
   \   00000044   ........           _BLF     WM_DefaultProc,??WM_DefaultProc??rA
    200              }
    201          }
   \                     ??cbEventHandler_1:
   \   00000048   1040BDE8           POP      {R4,LR}
   \   0000004C   1EFF2FE1           BX       LR               ;; return
   \                     ??cbEventHandler_3:
   \   00000050   D3D3D300           DC32     0xd3d3d3
    202          

   \                                 In segment CODE, align 4, keep-with-next
    203          void TDUSystemWin::SaveSettings(TSNConfigString *SettingsString) {
   \                     ??SaveSettings:
   \   00000000   F0432DE9           PUSH     {R4-R9,LR}
   \   00000004   B6DF4DE2           SUB      SP,SP,#+728
   \   00000008   0080A0E1           MOV      R8,R0
    204              if (IsModified || PRogramObjectBase::WriteAll) {
   \   0000000C   7500D8E5           LDRB     R0,[R8, #+117]
   \   00000010   0140A0E1           MOV      R4,R1
   \   00000014   000050E3           CMP      R0,#+0
   \   00000018   0300001A           BNE      ??SaveSettings_1
   \   0000001C   640B9FE5           LDR      R0,??SaveSettings_2  ;; ??WriteAll
   \   00000020   0000D0E5           LDRB     R0,[R0, #+0]
   \   00000024   000050E3           CMP      R0,#+0
   \   00000028   D302000A           BEQ      ??SaveSettings_3
    205                  IsModified = false;
    206                  AnsiString LocalString;
    207                  LocalString += KeyWord(C_TDU_SYSTEM_WIN) + CrLfStr;
   \                     ??SaveSettings_1:
   \   0000002C   585B9FE5           LDR      R5,??SaveSettings_2+0x4  ;; CrLfStr
    208                  LocalString += TabStr1 + KeyWord(C_TDU_BACK_COLOR) + (AnsiString)BackColor + CrLfStr;
   \   00000030   587B9FE5           LDR      R7,??SaveSettings_2+0x8  ;; TabStr1
   \   00000034   0000A0E3           MOV      R0,#+0
   \   00000038   7500C8E5           STRB     R0,[R8, #+117]
   \   0000003C   1C008DE2           ADD      R0,SP,#+28
   \   00000040   ........           _BLF     ??AnsiString,??AnsiString??rA
   \   00000044   6210A0E3           MOV      R1,#+98
   \   00000048   6C1D81E3           ORR      R1,R1,#0x1B00
   \   0000004C   C4008DE2           ADD      R0,SP,#+196
   \   00000050   ........           _BLF     ??KeyWord,??KeyWord??rA
   \   00000054   0520A0E1           MOV      R2,R5
   \   00000058   C4108DE2           ADD      R1,SP,#+196
   \   0000005C   A8008DE2           ADD      R0,SP,#+168
   \   00000060   ........           _BLF     `??operator+`,`??operator+??rA`
   \   00000064   ........           LDR      R0,??DataTable6  ;; ??npos
   \   00000068   0020A0E3           MOV      R2,#+0
   \   0000006C   006090E5           LDR      R6,[R0, #+0]
   \   00000070   A8108DE2           ADD      R1,SP,#+168
   \   00000074   0630A0E1           MOV      R3,R6
   \   00000078   1C008DE2           ADD      R0,SP,#+28
   \   0000007C   ........           _BLF     ??append,??append??rA
   \   00000080   0020A0E3           MOV      R2,#+0
   \   00000084   0110A0E3           MOV      R1,#+1
   \   00000088   A8008DE2           ADD      R0,SP,#+168
   \   0000008C   ........           _BLF     ??_Tidy,??_Tidy??rA
   \   00000090   0020A0E3           MOV      R2,#+0
   \   00000094   0110A0E3           MOV      R1,#+1
   \   00000098   C4008DE2           ADD      R0,SP,#+196
   \   0000009C   ........           _BLF     ??_Tidy,??_Tidy??rA
   \   000000A0   ........           LDR      R0,??DataTable7  ;; BackColor
   \   000000A4   001090E5           LDR      R1,[R0, #+0]
   \   000000A8   A10F8DE2           ADD      R0,SP,#+644
   \   000000AC   ........           _BLF     ??AnsiString_1,??AnsiString??rA_1
   \   000000B0   0090A0E1           MOV      R9,R0
   \   000000B4   BE10A0E3           MOV      R1,#+190
   \   000000B8   6C1D81E3           ORR      R1,R1,#0x1B00
   \   000000BC   4D0F8DE2           ADD      R0,SP,#+308
   \   000000C0   ........           _BLF     ??KeyWord,??KeyWord??rA
   \   000000C4   4D2F8DE2           ADD      R2,SP,#+308
   \   000000C8   0710A0E1           MOV      R1,R7
   \   000000CC   460F8DE2           ADD      R0,SP,#+280
   \   000000D0   ........           _BLF     `??operator+`,`??operator+??rA`
   \   000000D4   0920A0E1           MOV      R2,R9
   \   000000D8   461F8DE2           ADD      R1,SP,#+280
   \   000000DC   FC008DE2           ADD      R0,SP,#+252
   \   000000E0   ........           _BLF     `??operator+`,`??operator+??rA`
   \   000000E4   0520A0E1           MOV      R2,R5
   \   000000E8   FC108DE2           ADD      R1,SP,#+252
   \   000000EC   E0008DE2           ADD      R0,SP,#+224
   \   000000F0   ........           _BLF     `??operator+`,`??operator+??rA`
   \   000000F4   0630A0E1           MOV      R3,R6
   \   000000F8   0020A0E3           MOV      R2,#+0
   \   000000FC   E0108DE2           ADD      R1,SP,#+224
   \   00000100   1C008DE2           ADD      R0,SP,#+28
   \   00000104   ........           _BLF     ??append,??append??rA
   \   00000108   0020A0E3           MOV      R2,#+0
   \   0000010C   0110A0E3           MOV      R1,#+1
   \   00000110   E0008DE2           ADD      R0,SP,#+224
   \   00000114   ........           _BLF     ??_Tidy,??_Tidy??rA
   \   00000118   0020A0E3           MOV      R2,#+0
   \   0000011C   0110A0E3           MOV      R1,#+1
   \   00000120   FC008DE2           ADD      R0,SP,#+252
   \   00000124   ........           _BLF     ??_Tidy,??_Tidy??rA
   \   00000128   0020A0E3           MOV      R2,#+0
   \   0000012C   0110A0E3           MOV      R1,#+1
   \   00000130   A10F8DE2           ADD      R0,SP,#+644
   \   00000134   ........           _BLF     ??_Tidy,??_Tidy??rA
   \   00000138   0020A0E3           MOV      R2,#+0
   \   0000013C   0110A0E3           MOV      R1,#+1
   \   00000140   460F8DE2           ADD      R0,SP,#+280
   \   00000144   ........           _BLF     ??_Tidy,??_Tidy??rA
   \   00000148   0020A0E3           MOV      R2,#+0
   \   0000014C   0110A0E3           MOV      R1,#+1
   \   00000150   4D0F8DE2           ADD      R0,SP,#+308
   \   00000154   ........           _BLF     ??_Tidy,??_Tidy??rA
    209                  LocalString += TabStr1 + KeyWord(C_TDU_TEXT_COLOR) + (AnsiString)TextColor + CrLfStr;
   \   00000158   ........           LDR      R0,??DataTable8  ;; TextColor
   \   0000015C   001090E5           LDR      R1,[R0, #+0]
   \   00000160   A80F8DE2           ADD      R0,SP,#+672
   \   00000164   ........           _BLF     ??AnsiString_1,??AnsiString??rA_1
   \   00000168   0090A0E1           MOV      R9,R0
   \   0000016C   BF10A0E3           MOV      R1,#+191
   \   00000170   6C1D81E3           ORR      R1,R1,#0x1B00
   \   00000174   690F8DE2           ADD      R0,SP,#+420
   \   00000178   ........           _BLF     ??KeyWord,??KeyWord??rA
   \   0000017C   692F8DE2           ADD      R2,SP,#+420
   \   00000180   0710A0E1           MOV      R1,R7
   \   00000184   620F8DE2           ADD      R0,SP,#+392
   \   00000188   ........           _BLF     `??operator+`,`??operator+??rA`
   \   0000018C   0920A0E1           MOV      R2,R9
   \   00000190   621F8DE2           ADD      R1,SP,#+392
   \   00000194   5B0F8DE2           ADD      R0,SP,#+364
   \   00000198   ........           _BLF     `??operator+`,`??operator+??rA`
   \   0000019C   0520A0E1           MOV      R2,R5
   \   000001A0   5B1F8DE2           ADD      R1,SP,#+364
   \   000001A4   540F8DE2           ADD      R0,SP,#+336
   \   000001A8   ........           _BLF     `??operator+`,`??operator+??rA`
   \   000001AC   0630A0E1           MOV      R3,R6
   \   000001B0   0020A0E3           MOV      R2,#+0
   \   000001B4   541F8DE2           ADD      R1,SP,#+336
   \   000001B8   1C008DE2           ADD      R0,SP,#+28
   \   000001BC   ........           _BLF     ??append,??append??rA
   \   000001C0   0020A0E3           MOV      R2,#+0
   \   000001C4   0110A0E3           MOV      R1,#+1
   \   000001C8   540F8DE2           ADD      R0,SP,#+336
   \   000001CC   ........           _BLF     ??_Tidy,??_Tidy??rA
   \   000001D0   0020A0E3           MOV      R2,#+0
   \   000001D4   0110A0E3           MOV      R1,#+1
   \   000001D8   5B0F8DE2           ADD      R0,SP,#+364
   \   000001DC   ........           _BLF     ??_Tidy,??_Tidy??rA
   \   000001E0   0020A0E3           MOV      R2,#+0
   \   000001E4   0110A0E3           MOV      R1,#+1
   \   000001E8   A80F8DE2           ADD      R0,SP,#+672
   \   000001EC   ........           _BLF     ??_Tidy,??_Tidy??rA
   \   000001F0   0020A0E3           MOV      R2,#+0
   \   000001F4   0110A0E3           MOV      R1,#+1
   \   000001F8   620F8DE2           ADD      R0,SP,#+392
   \   000001FC   ........           _BLF     ??_Tidy,??_Tidy??rA
   \   00000200   0020A0E3           MOV      R2,#+0
   \   00000204   0110A0E3           MOV      R1,#+1
   \   00000208   690F8DE2           ADD      R0,SP,#+420
   \   0000020C   ........           _BLF     ??_Tidy,??_Tidy??rA
    210                  LocalString += TabStr1 + KeyWord(C_TDU_CURRENT_SYSWIN) + (AnsiString)CurrentSysWin + CrLfStr;
   \   00000210   6C1098E5           LDR      R1,[R8, #+108]
   \   00000214   AF0F8DE2           ADD      R0,SP,#+700
   \   00000218   ........           _BLF     ??AnsiString_1,??AnsiString??rA_1
   \   0000021C   0080A0E1           MOV      R8,R0
   \   00000220   5A10A0E3           MOV      R1,#+90
   \   00000224   6C1D81E3           ORR      R1,R1,#0x1B00
   \   00000228   850F8DE2           ADD      R0,SP,#+532
   \   0000022C   ........           _BLF     ??KeyWord,??KeyWord??rA
   \   00000230   852F8DE2           ADD      R2,SP,#+532
   \   00000234   0710A0E1           MOV      R1,R7
   \   00000238   7E0F8DE2           ADD      R0,SP,#+504
   \   0000023C   ........           _BLF     `??operator+`,`??operator+??rA`
   \   00000240   0820A0E1           MOV      R2,R8
   \   00000244   7E1F8DE2           ADD      R1,SP,#+504
   \   00000248   770F8DE2           ADD      R0,SP,#+476
   \   0000024C   ........           _BLF     `??operator+`,`??operator+??rA`
   \   00000250   0520A0E1           MOV      R2,R5
   \   00000254   771F8DE2           ADD      R1,SP,#+476
   \   00000258   700F8DE2           ADD      R0,SP,#+448
   \   0000025C   ........           _BLF     `??operator+`,`??operator+??rA`
   \   00000260   0630A0E1           MOV      R3,R6
   \   00000264   0020A0E3           MOV      R2,#+0
   \   00000268   701F8DE2           ADD      R1,SP,#+448
   \   0000026C   1C008DE2           ADD      R0,SP,#+28
   \   00000270   ........           _BLF     ??append,??append??rA
   \   00000274   0020A0E3           MOV      R2,#+0
   \   00000278   0110A0E3           MOV      R1,#+1
   \   0000027C   700F8DE2           ADD      R0,SP,#+448
   \   00000280   ........           _BLF     ??_Tidy,??_Tidy??rA
   \   00000284   0020A0E3           MOV      R2,#+0
   \   00000288   0110A0E3           MOV      R1,#+1
   \   0000028C   770F8DE2           ADD      R0,SP,#+476
   \   00000290   ........           _BLF     ??_Tidy,??_Tidy??rA
   \   00000294   0020A0E3           MOV      R2,#+0
   \   00000298   0110A0E3           MOV      R1,#+1
   \   0000029C   AF0F8DE2           ADD      R0,SP,#+700
   \   000002A0   ........           _BLF     ??_Tidy,??_Tidy??rA
   \   000002A4   0020A0E3           MOV      R2,#+0
   \   000002A8   0110A0E3           MOV      R1,#+1
   \   000002AC   7E0F8DE2           ADD      R0,SP,#+504
   \   000002B0   ........           _BLF     ??_Tidy,??_Tidy??rA
   \   000002B4   0020A0E3           MOV      R2,#+0
   \   000002B8   0110A0E3           MOV      R1,#+1
   \   000002BC   850F8DE2           ADD      R0,SP,#+532
   \   000002C0   ........           _BLF     ??_Tidy,??_Tidy??rA
    211                  if (CurrentWinID != TDU_WARNING_WIN  ) {
   \   000002C4   ........           LDR      R0,??DataTable9  ;; CurrentWinID
   \   000002C8   9C20A0E3           MOV      R2,#+156
   \   000002CC   001090E5           LDR      R1,[R0, #+0]
   \   000002D0   802E82E3           ORR      R2,R2,#0x800
   \   000002D4   020051E1           CMP      R1,R2
   \   000002D8   2C00000A           BEQ      ??SaveSettings_4
    212                      LocalString += TabStr1 + KeyWord(C_TDU_CURRENT_WIN) + (AnsiString)CurrentWinID + CrLfStr;
   \   000002DC   001090E5           LDR      R1,[R0, #+0]
   \   000002E0   8C008DE2           ADD      R0,SP,#+140
   \   000002E4   ........           _BLF     ??AnsiString_1,??AnsiString??rA_1
   \   000002E8   0080A0E1           MOV      R8,R0
   \   000002EC   5910A0E3           MOV      R1,#+89
   \   000002F0   6C1D81E3           ORR      R1,R1,#0x1B00
   \   000002F4   0D00A0E1           MOV      R0,SP
   \   000002F8   ........           _BLF     ??KeyWord,??KeyWord??rA
   \   000002FC   0D20A0E1           MOV      R2,SP
   \   00000300   0710A0E1           MOV      R1,R7
   \   00000304   54008DE2           ADD      R0,SP,#+84
   \   00000308   ........           _BLF     `??operator+`,`??operator+??rA`
   \   0000030C   0820A0E1           MOV      R2,R8
   \   00000310   54108DE2           ADD      R1,SP,#+84
   \   00000314   38008DE2           ADD      R0,SP,#+56
   \   00000318   ........           _BLF     `??operator+`,`??operator+??rA`
   \   0000031C   0520A0E1           MOV      R2,R5
   \   00000320   38108DE2           ADD      R1,SP,#+56
   \   00000324   70008DE2           ADD      R0,SP,#+112
   \   00000328   ........           _BLF     `??operator+`,`??operator+??rA`
   \   0000032C   0630A0E1           MOV      R3,R6
   \   00000330   0020A0E3           MOV      R2,#+0
   \   00000334   70108DE2           ADD      R1,SP,#+112
   \   00000338   1C008DE2           ADD      R0,SP,#+28
   \   0000033C   ........           _BLF     ??append,??append??rA
   \   00000340   0020A0E3           MOV      R2,#+0
   \   00000344   0110A0E3           MOV      R1,#+1
   \   00000348   70008DE2           ADD      R0,SP,#+112
   \   0000034C   ........           _BLF     ??_Tidy,??_Tidy??rA
   \   00000350   0020A0E3           MOV      R2,#+0
   \   00000354   0110A0E3           MOV      R1,#+1
   \   00000358   38008DE2           ADD      R0,SP,#+56
   \   0000035C   ........           _BLF     ??_Tidy,??_Tidy??rA
   \   00000360   0020A0E3           MOV      R2,#+0
   \   00000364   0110A0E3           MOV      R1,#+1
   \   00000368   8C008DE2           ADD      R0,SP,#+140
   \   0000036C   ........           _BLF     ??_Tidy,??_Tidy??rA
   \   00000370   0020A0E3           MOV      R2,#+0
   \   00000374   0110A0E3           MOV      R1,#+1
   \   00000378   54008DE2           ADD      R0,SP,#+84
   \   0000037C   ........           _BLF     ??_Tidy,??_Tidy??rA
   \   00000380   0020A0E3           MOV      R2,#+0
   \   00000384   0110A0E3           MOV      R1,#+1
   \   00000388   0D00A0E1           MOV      R0,SP
   \   0000038C   ........           _BLF     ??_Tidy,??_Tidy??rA
    213                  }
    214                  if (CargoWindow) {
   \                     ??SaveSettings_4:
   \   00000390   ........           LDR      R8,??DataTable10  ;; CargoWindow
   \   00000394   000098E5           LDR      R0,[R8, #+0]
   \   00000398   000050E3           CMP      R0,#+0
   \   0000039C   3D00000A           BEQ      ??SaveSettings_5
    215                      LocalString += TabStr1 + KeyWord(C_TDU_CARGO_WIN) + TabStr1;
   \   000003A0   6C10A0E3           MOV      R1,#+108
   \   000003A4   6C1D81E3           ORR      R1,R1,#0x1B00
   \   000003A8   8C008DE2           ADD      R0,SP,#+140
   \   000003AC   ........           _BLF     ??KeyWord,??KeyWord??rA
   \   000003B0   8C208DE2           ADD      R2,SP,#+140
   \   000003B4   0710A0E1           MOV      R1,R7
   \   000003B8   70008DE2           ADD      R0,SP,#+112
   \   000003BC   ........           _BLF     `??operator+`,`??operator+??rA`
   \   000003C0   0720A0E1           MOV      R2,R7
   \   000003C4   70108DE2           ADD      R1,SP,#+112
   \   000003C8   38008DE2           ADD      R0,SP,#+56
   \   000003CC   ........           _BLF     `??operator+`,`??operator+??rA`
   \   000003D0   0630A0E1           MOV      R3,R6
   \   000003D4   0020A0E3           MOV      R2,#+0
   \   000003D8   38108DE2           ADD      R1,SP,#+56
   \   000003DC   1C008DE2           ADD      R0,SP,#+28
   \   000003E0   ........           _BLF     ??append,??append??rA
   \   000003E4   0020A0E3           MOV      R2,#+0
   \   000003E8   0110A0E3           MOV      R1,#+1
   \   000003EC   38008DE2           ADD      R0,SP,#+56
   \   000003F0   ........           _BLF     ??_Tidy,??_Tidy??rA
   \   000003F4   0020A0E3           MOV      R2,#+0
   \   000003F8   0110A0E3           MOV      R1,#+1
   \   000003FC   70008DE2           ADD      R0,SP,#+112
   \   00000400   ........           _BLF     ??_Tidy,??_Tidy??rA
   \   00000404   0020A0E3           MOV      R2,#+0
   \   00000408   0110A0E3           MOV      R1,#+1
   \   0000040C   8C008DE2           ADD      R0,SP,#+140
   \   00000410   ........           _BLF     ??_Tidy,??_Tidy??rA
    216                      //	  LocalString +=TabStr2+KeyWord(C_TDU_VALUE_TAB);
    217                      for (int i = 0; i < 3; i++) {
   \   00000414   0090A0E3           MOV      R9,#+0
    218                          LocalString += (AnsiString)CargoWindow->ValueTable[i + 2].ValueId + TabStr1;
   \                     ??SaveSettings_6:
   \   00000418   001098E5           LDR      R1,[R8, #+0]
   \   0000041C   0C00A0E3           MOV      R0,#+12
   \   00000420   7C1091E5           LDR      R1,[R1, #+124]
   \   00000424   901921E0           MLA      R1,R0,R9,R1
   \   00000428   181091E5           LDR      R1,[R1, #+24]
   \   0000042C   54008DE2           ADD      R0,SP,#+84
   \   00000430   ........           _BLF     ??AnsiString_1,??AnsiString??rA_1
   \   00000434   0720A0E1           MOV      R2,R7
   \   00000438   0010A0E1           MOV      R1,R0
   \   0000043C   0D00A0E1           MOV      R0,SP
   \   00000440   ........           _BLF     `??operator+`,`??operator+??rA`
   \   00000444   0630A0E1           MOV      R3,R6
   \   00000448   0020A0E3           MOV      R2,#+0
   \   0000044C   0D10A0E1           MOV      R1,SP
   \   00000450   1C008DE2           ADD      R0,SP,#+28
   \   00000454   ........           _BLF     ??append,??append??rA
   \   00000458   0020A0E3           MOV      R2,#+0
   \   0000045C   0110A0E3           MOV      R1,#+1
   \   00000460   0D00A0E1           MOV      R0,SP
   \   00000464   ........           _BLF     ??_Tidy,??_Tidy??rA
   \   00000468   0020A0E3           MOV      R2,#+0
   \   0000046C   0110A0E3           MOV      R1,#+1
   \   00000470   54008DE2           ADD      R0,SP,#+84
   \   00000474   ........           _BLF     ??_Tidy,??_Tidy??rA
    219                      }
   \   00000478   019089E2           ADD      R9,R9,#+1
   \   0000047C   030059E3           CMP      R9,#+3
   \   00000480   E4FFFFBA           BLT      ??SaveSettings_6
    220                      LocalString += CrLfStr;
   \   00000484   0630A0E1           MOV      R3,R6
   \   00000488   0020A0E3           MOV      R2,#+0
   \   0000048C   0510A0E1           MOV      R1,R5
   \   00000490   1C008DE2           ADD      R0,SP,#+28
   \   00000494   ........           _BLF     ??append,??append??rA
    221                      //     LocalString +=KeyWord(C_TDU_WIN_END)+CrLfStr;
    222                  }
    223                  if (BallastWindow) {
   \                     ??SaveSettings_5:
   \   00000498   ........           LDR      R8,??DataTable11  ;; BallastWindow
   \   0000049C   000098E5           LDR      R0,[R8, #+0]
   \   000004A0   000050E3           CMP      R0,#+0
   \   000004A4   3D00000A           BEQ      ??SaveSettings_7
    224                      LocalString += TabStr1 + KeyWord(C_TDU_BALLAST_WIN) + TabStr1;
   \   000004A8   6D10A0E3           MOV      R1,#+109
   \   000004AC   6C1D81E3           ORR      R1,R1,#0x1B00
   \   000004B0   0D00A0E1           MOV      R0,SP
   \   000004B4   ........           _BLF     ??KeyWord,??KeyWord??rA
   \   000004B8   0D20A0E1           MOV      R2,SP
   \   000004BC   0710A0E1           MOV      R1,R7
   \   000004C0   54008DE2           ADD      R0,SP,#+84
   \   000004C4   ........           _BLF     `??operator+`,`??operator+??rA`
   \   000004C8   0720A0E1           MOV      R2,R7
   \   000004CC   54108DE2           ADD      R1,SP,#+84
   \   000004D0   38008DE2           ADD      R0,SP,#+56
   \   000004D4   ........           _BLF     `??operator+`,`??operator+??rA`
   \   000004D8   0630A0E1           MOV      R3,R6
   \   000004DC   0020A0E3           MOV      R2,#+0
   \   000004E0   38108DE2           ADD      R1,SP,#+56
   \   000004E4   1C008DE2           ADD      R0,SP,#+28
   \   000004E8   ........           _BLF     ??append,??append??rA
   \   000004EC   0020A0E3           MOV      R2,#+0
   \   000004F0   0110A0E3           MOV      R1,#+1
   \   000004F4   38008DE2           ADD      R0,SP,#+56
   \   000004F8   ........           _BLF     ??_Tidy,??_Tidy??rA
   \   000004FC   0020A0E3           MOV      R2,#+0
   \   00000500   0110A0E3           MOV      R1,#+1
   \   00000504   54008DE2           ADD      R0,SP,#+84
   \   00000508   ........           _BLF     ??_Tidy,??_Tidy??rA
   \   0000050C   0020A0E3           MOV      R2,#+0
   \   00000510   0110A0E3           MOV      R1,#+1
   \   00000514   0D00A0E1           MOV      R0,SP
   \   00000518   ........           _BLF     ??_Tidy,??_Tidy??rA
    225                      for (int i = 0; i < 3; i++) {
   \   0000051C   0090A0E3           MOV      R9,#+0
    226                          LocalString += (AnsiString)BallastWindow->ValueTable[i + 2].ValueId + TabStr1;
   \                     ??SaveSettings_8:
   \   00000520   001098E5           LDR      R1,[R8, #+0]
   \   00000524   0C00A0E3           MOV      R0,#+12
   \   00000528   7C1091E5           LDR      R1,[R1, #+124]
   \   0000052C   901921E0           MLA      R1,R0,R9,R1
   \   00000530   181091E5           LDR      R1,[R1, #+24]
   \   00000534   70008DE2           ADD      R0,SP,#+112
   \   00000538   ........           _BLF     ??AnsiString_1,??AnsiString??rA_1
   \   0000053C   0720A0E1           MOV      R2,R7
   \   00000540   0010A0E1           MOV      R1,R0
   \   00000544   8C008DE2           ADD      R0,SP,#+140
   \   00000548   ........           _BLF     `??operator+`,`??operator+??rA`
   \   0000054C   0630A0E1           MOV      R3,R6
   \   00000550   0020A0E3           MOV      R2,#+0
   \   00000554   8C108DE2           ADD      R1,SP,#+140
   \   00000558   1C008DE2           ADD      R0,SP,#+28
   \   0000055C   ........           _BLF     ??append,??append??rA
   \   00000560   0020A0E3           MOV      R2,#+0
   \   00000564   0110A0E3           MOV      R1,#+1
   \   00000568   8C008DE2           ADD      R0,SP,#+140
   \   0000056C   ........           _BLF     ??_Tidy,??_Tidy??rA
   \   00000570   0020A0E3           MOV      R2,#+0
   \   00000574   0110A0E3           MOV      R1,#+1
   \   00000578   70008DE2           ADD      R0,SP,#+112
   \   0000057C   ........           _BLF     ??_Tidy,??_Tidy??rA
    227                      }
   \   00000580   019089E2           ADD      R9,R9,#+1
   \   00000584   030059E3           CMP      R9,#+3
   \   00000588   E4FFFFBA           BLT      ??SaveSettings_8
    228                      LocalString += CrLfStr;
   \   0000058C   0630A0E1           MOV      R3,R6
   \   00000590   0020A0E3           MOV      R2,#+0
   \   00000594   0510A0E1           MOV      R1,R5
   \   00000598   1C008DE2           ADD      R0,SP,#+28
   \   0000059C   ........           _BLF     ??append,??append??rA
    229                      //     LocalString +=KeyWord(C_TDU_WIN_END)+CrLfStr;
    230                  }
    231                  if (ServiceWindow) {
   \                     ??SaveSettings_7:
   \   000005A0   ........           LDR      R8,??DataTable12  ;; ServiceWindow
   \   000005A4   000098E5           LDR      R0,[R8, #+0]
   \   000005A8   000050E3           CMP      R0,#+0
   \   000005AC   3D00000A           BEQ      ??SaveSettings_9
    232                      LocalString += TabStr1 + KeyWord(C_TDU_SERVICE_WIN) + TabStr1;
   \   000005B0   6E10A0E3           MOV      R1,#+110
   \   000005B4   6C1D81E3           ORR      R1,R1,#0x1B00
   \   000005B8   8C008DE2           ADD      R0,SP,#+140
   \   000005BC   ........           _BLF     ??KeyWord,??KeyWord??rA
   \   000005C0   8C208DE2           ADD      R2,SP,#+140
   \   000005C4   0710A0E1           MOV      R1,R7
   \   000005C8   70008DE2           ADD      R0,SP,#+112
   \   000005CC   ........           _BLF     `??operator+`,`??operator+??rA`
   \   000005D0   0720A0E1           MOV      R2,R7
   \   000005D4   70108DE2           ADD      R1,SP,#+112
   \   000005D8   38008DE2           ADD      R0,SP,#+56
   \   000005DC   ........           _BLF     `??operator+`,`??operator+??rA`
   \   000005E0   0630A0E1           MOV      R3,R6
   \   000005E4   0020A0E3           MOV      R2,#+0
   \   000005E8   38108DE2           ADD      R1,SP,#+56
   \   000005EC   1C008DE2           ADD      R0,SP,#+28
   \   000005F0   ........           _BLF     ??append,??append??rA
   \   000005F4   0020A0E3           MOV      R2,#+0
   \   000005F8   0110A0E3           MOV      R1,#+1
   \   000005FC   38008DE2           ADD      R0,SP,#+56
   \   00000600   ........           _BLF     ??_Tidy,??_Tidy??rA
   \   00000604   0020A0E3           MOV      R2,#+0
   \   00000608   0110A0E3           MOV      R1,#+1
   \   0000060C   70008DE2           ADD      R0,SP,#+112
   \   00000610   ........           _BLF     ??_Tidy,??_Tidy??rA
   \   00000614   0020A0E3           MOV      R2,#+0
   \   00000618   0110A0E3           MOV      R1,#+1
   \   0000061C   8C008DE2           ADD      R0,SP,#+140
   \   00000620   ........           _BLF     ??_Tidy,??_Tidy??rA
    233                      for (int i = 0; i < 3; i++) {
   \   00000624   0090A0E3           MOV      R9,#+0
    234                          LocalString += (AnsiString)ServiceWindow->ValueTable[i + 2].ValueId + TabStr1;
   \                     ??SaveSettings_10:
   \   00000628   001098E5           LDR      R1,[R8, #+0]
   \   0000062C   0C00A0E3           MOV      R0,#+12
   \   00000630   7C1091E5           LDR      R1,[R1, #+124]
   \   00000634   901921E0           MLA      R1,R0,R9,R1
   \   00000638   181091E5           LDR      R1,[R1, #+24]
   \   0000063C   54008DE2           ADD      R0,SP,#+84
   \   00000640   ........           _BLF     ??AnsiString_1,??AnsiString??rA_1
   \   00000644   0720A0E1           MOV      R2,R7
   \   00000648   0010A0E1           MOV      R1,R0
   \   0000064C   0D00A0E1           MOV      R0,SP
   \   00000650   ........           _BLF     `??operator+`,`??operator+??rA`
   \   00000654   0630A0E1           MOV      R3,R6
   \   00000658   0020A0E3           MOV      R2,#+0
   \   0000065C   0D10A0E1           MOV      R1,SP
   \   00000660   1C008DE2           ADD      R0,SP,#+28
   \   00000664   ........           _BLF     ??append,??append??rA
   \   00000668   0020A0E3           MOV      R2,#+0
   \   0000066C   0110A0E3           MOV      R1,#+1
   \   00000670   0D00A0E1           MOV      R0,SP
   \   00000674   ........           _BLF     ??_Tidy,??_Tidy??rA
   \   00000678   0020A0E3           MOV      R2,#+0
   \   0000067C   0110A0E3           MOV      R1,#+1
   \   00000680   54008DE2           ADD      R0,SP,#+84
   \   00000684   ........           _BLF     ??_Tidy,??_Tidy??rA
    235                      }
   \   00000688   019089E2           ADD      R9,R9,#+1
   \   0000068C   030059E3           CMP      R9,#+3
   \   00000690   E4FFFFBA           BLT      ??SaveSettings_10
    236                      LocalString += CrLfStr;
   \   00000694   0630A0E1           MOV      R3,R6
   \   00000698   0020A0E3           MOV      R2,#+0
   \   0000069C   0510A0E1           MOV      R1,R5
   \   000006A0   1C008DE2           ADD      R0,SP,#+28
   \   000006A4   ........           _BLF     ??append,??append??rA
    237                      //     LocalString +=KeyWord(C_TDU_WIN_END)+CrLfStr;
    238                  }
    239                  if (TankPressWindow) {
   \                     ??SaveSettings_9:
   \   000006A8   ........           LDR      R8,??DataTable13  ;; TankPressWindow
   \   000006AC   000098E5           LDR      R0,[R8, #+0]
   \   000006B0   000050E3           CMP      R0,#+0
   \   000006B4   3D00000A           BEQ      ??SaveSettings_11
    240                      LocalString += TabStr1 + KeyWord(C_TDU_TANKPRESS_WIN) + TabStr1;
   \   000006B8   6F10A0E3           MOV      R1,#+111
   \   000006BC   6C1D81E3           ORR      R1,R1,#0x1B00
   \   000006C0   0D00A0E1           MOV      R0,SP
   \   000006C4   ........           _BLF     ??KeyWord,??KeyWord??rA
   \   000006C8   0D20A0E1           MOV      R2,SP
   \   000006CC   0710A0E1           MOV      R1,R7
   \   000006D0   54008DE2           ADD      R0,SP,#+84
   \   000006D4   ........           _BLF     `??operator+`,`??operator+??rA`
   \   000006D8   0720A0E1           MOV      R2,R7
   \   000006DC   54108DE2           ADD      R1,SP,#+84
   \   000006E0   38008DE2           ADD      R0,SP,#+56
   \   000006E4   ........           _BLF     `??operator+`,`??operator+??rA`
   \   000006E8   0630A0E1           MOV      R3,R6
   \   000006EC   0020A0E3           MOV      R2,#+0
   \   000006F0   38108DE2           ADD      R1,SP,#+56
   \   000006F4   1C008DE2           ADD      R0,SP,#+28
   \   000006F8   ........           _BLF     ??append,??append??rA
   \   000006FC   0020A0E3           MOV      R2,#+0
   \   00000700   0110A0E3           MOV      R1,#+1
   \   00000704   38008DE2           ADD      R0,SP,#+56
   \   00000708   ........           _BLF     ??_Tidy,??_Tidy??rA
   \   0000070C   0020A0E3           MOV      R2,#+0
   \   00000710   0110A0E3           MOV      R1,#+1
   \   00000714   54008DE2           ADD      R0,SP,#+84
   \   00000718   ........           _BLF     ??_Tidy,??_Tidy??rA
   \   0000071C   0020A0E3           MOV      R2,#+0
   \   00000720   0110A0E3           MOV      R1,#+1
   \   00000724   0D00A0E1           MOV      R0,SP
   \   00000728   ........           _BLF     ??_Tidy,??_Tidy??rA
    241                      for (int i = 0; i < 3; i++) {
   \   0000072C   0090A0E3           MOV      R9,#+0
    242                          LocalString += (AnsiString)TankPressWindow->ValueTable[i + 2].ValueId + TabStr1;
   \                     ??SaveSettings_12:
   \   00000730   001098E5           LDR      R1,[R8, #+0]
   \   00000734   0C00A0E3           MOV      R0,#+12
   \   00000738   7C1091E5           LDR      R1,[R1, #+124]
   \   0000073C   901921E0           MLA      R1,R0,R9,R1
   \   00000740   181091E5           LDR      R1,[R1, #+24]
   \   00000744   70008DE2           ADD      R0,SP,#+112
   \   00000748   ........           _BLF     ??AnsiString_1,??AnsiString??rA_1
   \   0000074C   0720A0E1           MOV      R2,R7
   \   00000750   0010A0E1           MOV      R1,R0
   \   00000754   8C008DE2           ADD      R0,SP,#+140
   \   00000758   ........           _BLF     `??operator+`,`??operator+??rA`
   \   0000075C   0630A0E1           MOV      R3,R6
   \   00000760   0020A0E3           MOV      R2,#+0
   \   00000764   8C108DE2           ADD      R1,SP,#+140
   \   00000768   1C008DE2           ADD      R0,SP,#+28
   \   0000076C   ........           _BLF     ??append,??append??rA
   \   00000770   0020A0E3           MOV      R2,#+0
   \   00000774   0110A0E3           MOV      R1,#+1
   \   00000778   8C008DE2           ADD      R0,SP,#+140
   \   0000077C   ........           _BLF     ??_Tidy,??_Tidy??rA
   \   00000780   0020A0E3           MOV      R2,#+0
   \   00000784   0110A0E3           MOV      R1,#+1
   \   00000788   70008DE2           ADD      R0,SP,#+112
   \   0000078C   ........           _BLF     ??_Tidy,??_Tidy??rA
    243                      }
   \   00000790   019089E2           ADD      R9,R9,#+1
   \   00000794   030059E3           CMP      R9,#+3
   \   00000798   E4FFFFBA           BLT      ??SaveSettings_12
    244                      LocalString += CrLfStr;
   \   0000079C   0630A0E1           MOV      R3,R6
   \   000007A0   0020A0E3           MOV      R2,#+0
   \   000007A4   0510A0E1           MOV      R1,R5
   \   000007A8   1C008DE2           ADD      R0,SP,#+28
   \   000007AC   ........           _BLF     ??append,??append??rA
    245                      //     LocalString +=KeyWord(C_TDU_WIN_END)+CrLfStr;
    246                  }
    247                  if (LinePressWindow) {
   \                     ??SaveSettings_11:
   \   000007B0   ........           LDR      R8,??DataTable14  ;; LinePressWindow
   \   000007B4   000098E5           LDR      R0,[R8, #+0]
   \   000007B8   000050E3           CMP      R0,#+0
   \   000007BC   3D00000A           BEQ      ??SaveSettings_13
    248                      LocalString += TabStr1 + KeyWord(C_TDU_LINEPRESS_WIN) + TabStr1;
   \   000007C0   7010A0E3           MOV      R1,#+112
   \   000007C4   6C1D81E3           ORR      R1,R1,#0x1B00
   \   000007C8   8C008DE2           ADD      R0,SP,#+140
   \   000007CC   ........           _BLF     ??KeyWord,??KeyWord??rA
   \   000007D0   8C208DE2           ADD      R2,SP,#+140
   \   000007D4   0710A0E1           MOV      R1,R7
   \   000007D8   70008DE2           ADD      R0,SP,#+112
   \   000007DC   ........           _BLF     `??operator+`,`??operator+??rA`
   \   000007E0   0720A0E1           MOV      R2,R7
   \   000007E4   70108DE2           ADD      R1,SP,#+112
   \   000007E8   38008DE2           ADD      R0,SP,#+56
   \   000007EC   ........           _BLF     `??operator+`,`??operator+??rA`
   \   000007F0   0630A0E1           MOV      R3,R6
   \   000007F4   0020A0E3           MOV      R2,#+0
   \   000007F8   38108DE2           ADD      R1,SP,#+56
   \   000007FC   1C008DE2           ADD      R0,SP,#+28
   \   00000800   ........           _BLF     ??append,??append??rA
   \   00000804   0020A0E3           MOV      R2,#+0
   \   00000808   0110A0E3           MOV      R1,#+1
   \   0000080C   38008DE2           ADD      R0,SP,#+56
   \   00000810   ........           _BLF     ??_Tidy,??_Tidy??rA
   \   00000814   0020A0E3           MOV      R2,#+0
   \   00000818   0110A0E3           MOV      R1,#+1
   \   0000081C   70008DE2           ADD      R0,SP,#+112
   \   00000820   ........           _BLF     ??_Tidy,??_Tidy??rA
   \   00000824   0020A0E3           MOV      R2,#+0
   \   00000828   0110A0E3           MOV      R1,#+1
   \   0000082C   8C008DE2           ADD      R0,SP,#+140
   \   00000830   ........           _BLF     ??_Tidy,??_Tidy??rA
    249                      for (int i = 0; i < 3; i++) {
   \   00000834   0090A0E3           MOV      R9,#+0
    250                          LocalString += (AnsiString)LinePressWindow->ValueTable[i + 2].ValueId + TabStr1;
   \                     ??SaveSettings_14:
   \   00000838   001098E5           LDR      R1,[R8, #+0]
   \   0000083C   0C00A0E3           MOV      R0,#+12
   \   00000840   7C1091E5           LDR      R1,[R1, #+124]
   \   00000844   901921E0           MLA      R1,R0,R9,R1
   \   00000848   181091E5           LDR      R1,[R1, #+24]
   \   0000084C   54008DE2           ADD      R0,SP,#+84
   \   00000850   ........           _BLF     ??AnsiString_1,??AnsiString??rA_1
   \   00000854   0720A0E1           MOV      R2,R7
   \   00000858   0010A0E1           MOV      R1,R0
   \   0000085C   0D00A0E1           MOV      R0,SP
   \   00000860   ........           _BLF     `??operator+`,`??operator+??rA`
   \   00000864   0630A0E1           MOV      R3,R6
   \   00000868   0020A0E3           MOV      R2,#+0
   \   0000086C   0D10A0E1           MOV      R1,SP
   \   00000870   1C008DE2           ADD      R0,SP,#+28
   \   00000874   ........           _BLF     ??append,??append??rA
   \   00000878   0020A0E3           MOV      R2,#+0
   \   0000087C   0110A0E3           MOV      R1,#+1
   \   00000880   0D00A0E1           MOV      R0,SP
   \   00000884   ........           _BLF     ??_Tidy,??_Tidy??rA
   \   00000888   0020A0E3           MOV      R2,#+0
   \   0000088C   0110A0E3           MOV      R1,#+1
   \   00000890   54008DE2           ADD      R0,SP,#+84
   \   00000894   ........           _BLF     ??_Tidy,??_Tidy??rA
    251                      }
   \   00000898   019089E2           ADD      R9,R9,#+1
   \   0000089C   030059E3           CMP      R9,#+3
   \   000008A0   E4FFFFBA           BLT      ??SaveSettings_14
    252                      LocalString += CrLfStr;
   \   000008A4   0630A0E1           MOV      R3,R6
   \   000008A8   0020A0E3           MOV      R2,#+0
   \   000008AC   0510A0E1           MOV      R1,R5
   \   000008B0   1C008DE2           ADD      R0,SP,#+28
   \   000008B4   ........           _BLF     ??append,??append??rA
    253                      //     LocalString +=KeyWord(C_TDU_WIN_END)+CrLfStr;
    254                  }
    255                  if (TempWindow) {
   \                     ??SaveSettings_13:
   \   000008B8   ........           LDR      R8,??DataTable15  ;; TempWindow
   \   000008BC   000098E5           LDR      R0,[R8, #+0]
   \   000008C0   000050E3           CMP      R0,#+0
   \   000008C4   3D00000A           BEQ      ??SaveSettings_15
    256                      LocalString += TabStr1 + KeyWord(C_TDU_TEMP_WIN) + TabStr1;
   \   000008C8   7210A0E3           MOV      R1,#+114
   \   000008CC   6C1D81E3           ORR      R1,R1,#0x1B00
   \   000008D0   0D00A0E1           MOV      R0,SP
   \   000008D4   ........           _BLF     ??KeyWord,??KeyWord??rA
   \   000008D8   0D20A0E1           MOV      R2,SP
   \   000008DC   0710A0E1           MOV      R1,R7
   \   000008E0   54008DE2           ADD      R0,SP,#+84
   \   000008E4   ........           _BLF     `??operator+`,`??operator+??rA`
   \   000008E8   0720A0E1           MOV      R2,R7
   \   000008EC   54108DE2           ADD      R1,SP,#+84
   \   000008F0   38008DE2           ADD      R0,SP,#+56
   \   000008F4   ........           _BLF     `??operator+`,`??operator+??rA`
   \   000008F8   0630A0E1           MOV      R3,R6
   \   000008FC   0020A0E3           MOV      R2,#+0
   \   00000900   38108DE2           ADD      R1,SP,#+56
   \   00000904   1C008DE2           ADD      R0,SP,#+28
   \   00000908   ........           _BLF     ??append,??append??rA
   \   0000090C   0020A0E3           MOV      R2,#+0
   \   00000910   0110A0E3           MOV      R1,#+1
   \   00000914   38008DE2           ADD      R0,SP,#+56
   \   00000918   ........           _BLF     ??_Tidy,??_Tidy??rA
   \   0000091C   0020A0E3           MOV      R2,#+0
   \   00000920   0110A0E3           MOV      R1,#+1
   \   00000924   54008DE2           ADD      R0,SP,#+84
   \   00000928   ........           _BLF     ??_Tidy,??_Tidy??rA
   \   0000092C   0020A0E3           MOV      R2,#+0
   \   00000930   0110A0E3           MOV      R1,#+1
   \   00000934   0D00A0E1           MOV      R0,SP
   \   00000938   ........           _BLF     ??_Tidy,??_Tidy??rA
    257                      for (int i = 0; i < 3; i++) {
   \   0000093C   0090A0E3           MOV      R9,#+0
    258                          LocalString += (AnsiString)TempWindow->ValueTable[i + 2].ValueId + TabStr1;
   \                     ??SaveSettings_16:
   \   00000940   001098E5           LDR      R1,[R8, #+0]
   \   00000944   0C00A0E3           MOV      R0,#+12
   \   00000948   7C1091E5           LDR      R1,[R1, #+124]
   \   0000094C   901921E0           MLA      R1,R0,R9,R1
   \   00000950   181091E5           LDR      R1,[R1, #+24]
   \   00000954   70008DE2           ADD      R0,SP,#+112
   \   00000958   ........           _BLF     ??AnsiString_1,??AnsiString??rA_1
   \   0000095C   0010A0E1           MOV      R1,R0
   \   00000960   0720A0E1           MOV      R2,R7
   \   00000964   8C008DE2           ADD      R0,SP,#+140
   \   00000968   ........           _BLF     `??operator+`,`??operator+??rA`
   \   0000096C   0630A0E1           MOV      R3,R6
   \   00000970   0020A0E3           MOV      R2,#+0
   \   00000974   8C108DE2           ADD      R1,SP,#+140
   \   00000978   1C008DE2           ADD      R0,SP,#+28
   \   0000097C   ........           _BLF     ??append,??append??rA
   \   00000980   0020A0E3           MOV      R2,#+0
   \   00000984   0110A0E3           MOV      R1,#+1
   \   00000988   8C008DE2           ADD      R0,SP,#+140
   \   0000098C   ........           _BLF     ??_Tidy,??_Tidy??rA
   \   00000990   0020A0E3           MOV      R2,#+0
   \   00000994   0110A0E3           MOV      R1,#+1
   \   00000998   70008DE2           ADD      R0,SP,#+112
   \   0000099C   ........           _BLF     ??_Tidy,??_Tidy??rA
    259                      }
   \   000009A0   019089E2           ADD      R9,R9,#+1
   \   000009A4   030059E3           CMP      R9,#+3
   \   000009A8   E4FFFFBA           BLT      ??SaveSettings_16
    260                      LocalString += CrLfStr;
   \   000009AC   0630A0E1           MOV      R3,R6
   \   000009B0   0020A0E3           MOV      R2,#+0
   \   000009B4   0510A0E1           MOV      R1,R5
   \   000009B8   1C008DE2           ADD      R0,SP,#+28
   \   000009BC   ........           _BLF     ??append,??append??rA
    261                      //     LocalString +=KeyWord(C_TDU_WIN_END)+CrLfStr;
    262                  }
    263                  if (VoidSpaceWindow) {
   \                     ??SaveSettings_15:
   \   000009C0   ........           LDR      R8,??DataTable16  ;; VoidSpaceWindow
   \   000009C4   000098E5           LDR      R0,[R8, #+0]
   \   000009C8   000050E3           CMP      R0,#+0
   \   000009CC   3D00000A           BEQ      ??SaveSettings_17
    264                      LocalString += TabStr1 + KeyWord(C_TDU_VOIDSPACE_WIN) + TabStr1;
   \   000009D0   7910A0E3           MOV      R1,#+121
   \   000009D4   6C1D81E3           ORR      R1,R1,#0x1B00
   \   000009D8   8C008DE2           ADD      R0,SP,#+140
   \   000009DC   ........           _BLF     ??KeyWord,??KeyWord??rA
   \   000009E0   8C208DE2           ADD      R2,SP,#+140
   \   000009E4   0710A0E1           MOV      R1,R7
   \   000009E8   70008DE2           ADD      R0,SP,#+112
   \   000009EC   ........           _BLF     `??operator+`,`??operator+??rA`
   \   000009F0   0720A0E1           MOV      R2,R7
   \   000009F4   70108DE2           ADD      R1,SP,#+112
   \   000009F8   54008DE2           ADD      R0,SP,#+84
   \   000009FC   ........           _BLF     `??operator+`,`??operator+??rA`
   \   00000A00   0630A0E1           MOV      R3,R6
   \   00000A04   0020A0E3           MOV      R2,#+0
   \   00000A08   54108DE2           ADD      R1,SP,#+84
   \   00000A0C   1C008DE2           ADD      R0,SP,#+28
   \   00000A10   ........           _BLF     ??append,??append??rA
   \   00000A14   0020A0E3           MOV      R2,#+0
   \   00000A18   0110A0E3           MOV      R1,#+1
   \   00000A1C   54008DE2           ADD      R0,SP,#+84
   \   00000A20   ........           _BLF     ??_Tidy,??_Tidy??rA
   \   00000A24   0020A0E3           MOV      R2,#+0
   \   00000A28   0110A0E3           MOV      R1,#+1
   \   00000A2C   70008DE2           ADD      R0,SP,#+112
   \   00000A30   ........           _BLF     ??_Tidy,??_Tidy??rA
   \   00000A34   0020A0E3           MOV      R2,#+0
   \   00000A38   0110A0E3           MOV      R1,#+1
   \   00000A3C   8C008DE2           ADD      R0,SP,#+140
   \   00000A40   ........           _BLF     ??_Tidy,??_Tidy??rA
    265                      for (int i = 0; i < 3; i++) {
   \   00000A44   0090A0E3           MOV      R9,#+0
    266                          LocalString += (AnsiString)VoidSpaceWindow->ValueTable[i + 2].ValueId + TabStr1;
   \                     ??SaveSettings_18:
   \   00000A48   001098E5           LDR      R1,[R8, #+0]
   \   00000A4C   0C00A0E3           MOV      R0,#+12
   \   00000A50   7C1091E5           LDR      R1,[R1, #+124]
   \   00000A54   901921E0           MLA      R1,R0,R9,R1
   \   00000A58   181091E5           LDR      R1,[R1, #+24]
   \   00000A5C   38008DE2           ADD      R0,SP,#+56
   \   00000A60   ........           _BLF     ??AnsiString_1,??AnsiString??rA_1
   \   00000A64   0720A0E1           MOV      R2,R7
   \   00000A68   0010A0E1           MOV      R1,R0
   \   00000A6C   0D00A0E1           MOV      R0,SP
   \   00000A70   ........           _BLF     `??operator+`,`??operator+??rA`
   \   00000A74   0630A0E1           MOV      R3,R6
   \   00000A78   0020A0E3           MOV      R2,#+0
   \   00000A7C   0D10A0E1           MOV      R1,SP
   \   00000A80   1C008DE2           ADD      R0,SP,#+28
   \   00000A84   ........           _BLF     ??append,??append??rA
   \   00000A88   0020A0E3           MOV      R2,#+0
   \   00000A8C   0110A0E3           MOV      R1,#+1
   \   00000A90   0D00A0E1           MOV      R0,SP
   \   00000A94   ........           _BLF     ??_Tidy,??_Tidy??rA
   \   00000A98   0020A0E3           MOV      R2,#+0
   \   00000A9C   0110A0E3           MOV      R1,#+1
   \   00000AA0   38008DE2           ADD      R0,SP,#+56
   \   00000AA4   ........           _BLF     ??_Tidy,??_Tidy??rA
    267                      }
   \   00000AA8   019089E2           ADD      R9,R9,#+1
   \   00000AAC   030059E3           CMP      R9,#+3
   \   00000AB0   E4FFFFBA           BLT      ??SaveSettings_18
    268                      LocalString += CrLfStr;
   \   00000AB4   0630A0E1           MOV      R3,R6
   \   00000AB8   0020A0E3           MOV      R2,#+0
   \   00000ABC   0510A0E1           MOV      R1,R5
   \   00000AC0   1C008DE2           ADD      R0,SP,#+28
   \   00000AC4   ........           _BLF     ??append,??append??rA
    269                      //     LocalString +=KeyWord(C_TDU_WIN_END)+CrLfStr;
    270                  }
    271          
    272                  LocalString += KeyWord(C_PRO_END) + CrLfStr; //C_TDU_WIN_END
   \                     ??SaveSettings_17:
   \   00000AC8   FA1FA0E3           MOV      R1,#+1000
   \   00000ACC   930F8DE2           ADD      R0,SP,#+588
   \   00000AD0   ........           _BLF     ??KeyWord,??KeyWord??rA
   \   00000AD4   0520A0E1           MOV      R2,R5
   \   00000AD8   931F8DE2           ADD      R1,SP,#+588
   \   00000ADC   8C0F8DE2           ADD      R0,SP,#+560
   \   00000AE0   ........           _BLF     `??operator+`,`??operator+??rA`
   \   00000AE4   0630A0E1           MOV      R3,R6
   \   00000AE8   0020A0E3           MOV      R2,#+0
   \   00000AEC   8C1F8DE2           ADD      R1,SP,#+560
   \   00000AF0   1C008DE2           ADD      R0,SP,#+28
   \   00000AF4   ........           _BLF     ??append,??append??rA
   \   00000AF8   0020A0E3           MOV      R2,#+0
   \   00000AFC   0110A0E3           MOV      R1,#+1
   \   00000B00   8C0F8DE2           ADD      R0,SP,#+560
   \   00000B04   ........           _BLF     ??_Tidy,??_Tidy??rA
   \   00000B08   0020A0E3           MOV      R2,#+0
   \   00000B0C   0110A0E3           MOV      R1,#+1
   \   00000B10   930F8DE2           ADD      R0,SP,#+588
   \   00000B14   ........           _BLF     ??_Tidy,??_Tidy??rA
    273                  LocalString += CrLfStr;
   \   00000B18   0630A0E1           MOV      R3,R6
   \   00000B1C   0020A0E3           MOV      R2,#+0
   \   00000B20   0510A0E1           MOV      R1,R5
   \   00000B24   1C008DE2           ADD      R0,SP,#+28
   \   00000B28   ........           _BLF     ??append,??append??rA
    274                  SettingsString->AddString(LocalString);
   \   00000B2C   0020A0E3           MOV      R2,#+0
   \   00000B30   0010A0E3           MOV      R1,#+0
   \   00000B34   9A0F8DE2           ADD      R0,SP,#+616
   \   00000B38   ........           _BLF     ??_Tidy,??_Tidy??rA
   \   00000B3C   0630A0E1           MOV      R3,R6
   \   00000B40   0020A0E3           MOV      R2,#+0
   \   00000B44   1C108DE2           ADD      R1,SP,#+28
   \   00000B48   9A0F8DE2           ADD      R0,SP,#+616
   \   00000B4C   ........           _BLF     ??assign,??assign??rA
   \   00000B50   9A1F8DE2           ADD      R1,SP,#+616
   \   00000B54   0400A0E1           MOV      R0,R4
   \   00000B58   ........           _BLF     ??AddString,??AddString??rA
   \   00000B5C   0020A0E3           MOV      R2,#+0
   \   00000B60   0110A0E3           MOV      R1,#+1
   \   00000B64   9A0F8DE2           ADD      R0,SP,#+616
   \   00000B68   ........           _BLF     ??_Tidy,??_Tidy??rA
    275              }
   \   00000B6C   0020A0E3           MOV      R2,#+0
   \   00000B70   0110A0E3           MOV      R1,#+1
   \   00000B74   1C008DE2           ADD      R0,SP,#+28
   \   00000B78   ........           _BLF     ??_Tidy,??_Tidy??rA
    276          }
   \                     ??SaveSettings_3:
   \   00000B7C   B6DF8DE2           ADD      SP,SP,#+728
   \   00000B80   F043BDE8           POP      {R4-R9,LR}
   \   00000B84   1EFF2FE1           BX       LR               ;; return
   \                     ??SaveSettings_2:
   \   00000B88   ........           DC32     ??WriteAll
   \   00000B8C   ........           DC32     CrLfStr
   \   00000B90   ........           DC32     TabStr1
    277          

   \                                 In segment CODE, align 4, keep-with-next
    278          bool TDUSystemWin::RestoreSettings(TSNConfigString *SettingsString) {
   \                     ??RestoreSettings:
   \   00000000   D14F2DE9           PUSH     {R0,R4,R6-R11,LR}
   \   00000004   5CDF4DE2           SUB      SP,SP,#+368
   \   00000008   0140A0E1           MOV      R4,R1
    279              bool NoError = true;
   \   0000000C   0160A0E3           MOV      R6,#+1
    280              int ErrorLine = 0;
   \   00000010   0010A0E3           MOV      R1,#+0
   \   00000014   00108DE5           STR      R1,[SP, #+0]
    281              int Key;
    282              do {
    283                  AnsiString InputKeyWord = SettingsString->NextWord(ErrorLine);
   \                     ??RestoreSettings_2:
   \   00000018   0030A0E3           MOV      R3,#+0
   \   0000001C   0D20A0E1           MOV      R2,SP
   \   00000020   3C108DE2           ADD      R1,SP,#+60
    284                  if (ErrorLine) {
   \   00000024   BC709FE5           LDR      R7,??RestoreSettings_3  ;; NewLineStr
   \   00000028   BC809FE5           LDR      R8,??RestoreSettings_3+0x4  ;; `?<Constant "TDU setting:\\nUnknown ...">`
   \   0000002C   0400A0E1           MOV      R0,R4
   \   00000030   ........           _BLF     ??NextWord,??NextWord??rA
   \   00000034   00009DE5           LDR      R0,[SP, #+0]
   \   00000038   000050E3           CMP      R0,#+0
   \   0000003C   2B00000A           BEQ      ??RestoreSettings_4
    285                      if (ErrorLine != EOF) {
   \   00000040   010070E3           CMN      R0,#+1
   \   00000044   D90C000A           BEQ      ??RestoreSettings_5
    286                          RestoreSettingsWarning((AnsiString)"TDU setting:\nUnknown error started at line:" + (AnsiString)ErrorLine + NewLineStr);
   \   00000048   0010A0E1           MOV      R1,R0
   \   0000004C   AC008DE2           ADD      R0,SP,#+172
   \   00000050   ........           _BLF     ??AnsiString_1,??AnsiString??rA_1
   \   00000054   0090A0E1           MOV      R9,R0
   \   00000058   0810A0E1           MOV      R1,R8
   \   0000005C   90008DE2           ADD      R0,SP,#+144
   \   00000060   ........           _BLF     ??AnsiString_2,??AnsiString??rA_2
   \   00000064   0010A0E1           MOV      R1,R0
   \   00000068   0920A0E1           MOV      R2,R9
   \   0000006C   04008DE2           ADD      R0,SP,#+4
   \   00000070   ........           _BLF     `??operator+`,`??operator+??rA`
   \   00000074   0720A0E1           MOV      R2,R7
   \   00000078   04108DE2           ADD      R1,SP,#+4
   \   0000007C   20008DE2           ADD      R0,SP,#+32
   \   00000080   ........           _BLF     `??operator+`,`??operator+??rA`
   \   00000084   20108DE2           ADD      R1,SP,#+32
   \   00000088   74008DE2           ADD      R0,SP,#+116
   \   0000008C   ........           _BLF     ??AnsiString_3,??AnsiString??rA_3
   \   00000090   ........           _BLF     ??RestoreSettingsWarning,??RestoreSettingsWarning??rA
   \   00000094   0020A0E3           MOV      R2,#+0
   \   00000098   0110A0E3           MOV      R1,#+1
   \   0000009C   74008DE2           ADD      R0,SP,#+116
   \   000000A0   ........           _BLF     ??_Tidy,??_Tidy??rA
   \   000000A4   0020A0E3           MOV      R2,#+0
   \   000000A8   0110A0E3           MOV      R1,#+1
   \   000000AC   20008DE2           ADD      R0,SP,#+32
   \   000000B0   ........           _BLF     ??_Tidy,??_Tidy??rA
   \   000000B4   0020A0E3           MOV      R2,#+0
   \   000000B8   0110A0E3           MOV      R1,#+1
   \   000000BC   04008DE2           ADD      R0,SP,#+4
   \   000000C0   ........           _BLF     ??_Tidy,??_Tidy??rA
   \   000000C4   0020A0E3           MOV      R2,#+0
   \   000000C8   0110A0E3           MOV      R1,#+1
   \   000000CC   AC008DE2           ADD      R0,SP,#+172
   \   000000D0   ........           _BLF     ??_Tidy,??_Tidy??rA
   \   000000D4   0020A0E3           MOV      R2,#+0
   \   000000D8   0110A0E3           MOV      R1,#+1
   \   000000DC   90008DE2           ADD      R0,SP,#+144
   \                     ??RestoreSettings_6:
   \   000000E0   ........           _BLF     ??_Tidy,??_Tidy??rA
   \   000000E4   B10C00EA           B        ??RestoreSettings_5
   \                     ??RestoreSettings_3:
   \   000000E8   ........           DC32     NewLineStr
   \   000000EC   ........           DC32     `?<Constant "TDU setting:\\nUnknown ...">`
    287                      }
    288                  } else {
    289                      Key = FindConfigKey(InputKeyWord);
   \                     ??RestoreSettings_4:
   \   000000F0   0020A0E3           MOV      R2,#+0
   \   000000F4   0010A0E3           MOV      R1,#+0
   \   000000F8   20008DE2           ADD      R0,SP,#+32
   \   000000FC   ........           _BLF     ??_Tidy,??_Tidy??rA
   \   00000100   48009FE5           LDR      R0,??RestoreSettings_7  ;; ??npos
   \   00000104   0020A0E3           MOV      R2,#+0
   \   00000108   009090E5           LDR      R9,[R0, #+0]
   \   0000010C   3C108DE2           ADD      R1,SP,#+60
   \   00000110   0930A0E1           MOV      R3,R9
   \   00000114   20008DE2           ADD      R0,SP,#+32
   \   00000118   ........           _BLF     ??assign,??assign??rA
   \   0000011C   20008DE2           ADD      R0,SP,#+32
   \   00000120   ........           _BLF     ??FindConfigKey,??FindConfigKey??rA
   \   00000124   00A0A0E1           MOV      R10,R0
   \   00000128   0020A0E3           MOV      R2,#+0
   \   0000012C   0110A0E3           MOV      R1,#+1
   \   00000130   20008DE2           ADD      R0,SP,#+32
   \   00000134   ........           _BLF     ??_Tidy,??_Tidy??rA
    290                      switch (Key) {
   \   00000138   FA0F4AE2           SUB      R0,R10,#+1000
   \   0000013C   D710A0E3           MOV      R1,#+215
   \   00000140   5C1D81E3           ORR      R1,R1,#0x1700
   \   00000144   010050E1           CMP      R0,R1
   \   00000148   F10B008A           BHI      ??RestoreSettings_8
   \   0000014C   000000EA           B        ??RestoreSettings_9
   \                     ??RestoreSettings_7:
   \   00000150   ........           DC32     ??npos
   \                     ??RestoreSettings_9:
   \   00000154   021F8FE2           ADR      R1,??RestoreSettings_1
   \   00000158   8000A0E1           MOV      R0,R0, LSL #+1
   \   0000015C   B01091E1           LDRH     R1,[R1, R0]
   \   00000160   01F18FE0           ADD      PC,PC,R1, LSL #+2
   \                     ??RestoreSettings_1:
   \   00000164   920CEB0B920C       DC16     +3218,+3051,+3218,+3051
   \              EB0B        
   \   0000016C   920CEB0BEB0B       DC16     +3218,+3051,+3051,+3051
   \              EB0B        
   \   00000174   EB0BEB0BEB0B       DC16     +3051,+3051,+3051,+3051
   \              EB0B        
   \   0000017C   EB0BEB0BEB0B       DC16     +3051,+3051,+3051,+3051
   \              EB0B        
   \   00000184   EB0BEB0BEB0B       DC16     +3051,+3051,+3051,+3051
   \              EB0B        
   \   0000018C   EB0BEB0BEB0B       DC16     +3051,+3051,+3051,+3051
   \              EB0B        
   \   00000194   EB0BEB0BEB0B       DC16     +3051,+3051,+3051,+3051
   \              EB0B        
   \   0000019C   EB0BEB0BEB0B       DC16     +3051,+3051,+3051,+3051
   \              EB0B        
   \   000001A4   EB0BEB0BEB0B       DC16     +3051,+3051,+3051,+3051
   \              EB0B        
   \   000001AC   EB0BEB0BEB0B       DC16     +3051,+3051,+3051,+3051
   \              EB0B        
   \   000001B4   EB0BEB0BEB0B       DC16     +3051,+3051,+3051,+3051
   \              EB0B        
   \   000001BC   EB0BEB0BEB0B       DC16     +3051,+3051,+3051,+3051
   \              EB0B        
   \   000001C4   EB0BEB0BEB0B       DC16     +3051,+3051,+3051,+3051
   \              EB0B        
   \   000001CC   EB0BEB0BEB0B       DC16     +3051,+3051,+3051,+3051
   \              EB0B        
   \   000001D4   EB0BEB0BEB0B       DC16     +3051,+3051,+3051,+3051
   \              EB0B        
   \   000001DC   EB0BEB0BEB0B       DC16     +3051,+3051,+3051,+3051
   \              EB0B        
   \   000001E4   EB0BEB0BEB0B       DC16     +3051,+3051,+3051,+3051
   \              EB0B        
   \   000001EC   EB0BEB0BEB0B       DC16     +3051,+3051,+3051,+3051
   \              EB0B        
   \   000001F4   EB0BEB0BEB0B       DC16     +3051,+3051,+3051,+3051
   \              EB0B        
   \   000001FC   EB0BEB0BEB0B       DC16     +3051,+3051,+3051,+3051
   \              EB0B        
   \   00000204   EB0BEB0BEB0B       DC16     +3051,+3051,+3051,+3051
   \              EB0B        
   \   0000020C   EB0BEB0BEB0B       DC16     +3051,+3051,+3051,+3051
   \              EB0B        
   \   00000214   EB0BEB0BEB0B       DC16     +3051,+3051,+3051,+3051
   \              EB0B        
   \   0000021C   EB0BEB0BEB0B       DC16     +3051,+3051,+3051,+3051
   \              EB0B        
   \   00000224   EB0BEB0BEB0B       DC16     +3051,+3051,+3051,+3051
   \              EB0B        
   \   0000022C   EB0BEB0BEB0B       DC16     +3051,+3051,+3051,+3051
   \              EB0B        
   \   00000234   EB0BEB0BEB0B       DC16     +3051,+3051,+3051,+3051
   \              EB0B        
   \   0000023C   EB0BEB0BEB0B       DC16     +3051,+3051,+3051,+3051
   \              EB0B        
   \   00000244   EB0BEB0BEB0B       DC16     +3051,+3051,+3051,+3051
   \              EB0B        
   \   0000024C   EB0BEB0BEB0B       DC16     +3051,+3051,+3051,+3051
   \              EB0B        
   \   00000254   EB0BEB0BEB0B       DC16     +3051,+3051,+3051,+3051
   \              EB0B        
   \   0000025C   EB0BEB0BEB0B       DC16     +3051,+3051,+3051,+3051
   \              EB0B        
   \   00000264   EB0BEB0BEB0B       DC16     +3051,+3051,+3051,+3051
   \              EB0B        
   \   0000026C   EB0BEB0BEB0B       DC16     +3051,+3051,+3051,+3051
   \              EB0B        
   \   00000274   EB0BEB0BEB0B       DC16     +3051,+3051,+3051,+3051
   \              EB0B        
   \   0000027C   EB0BEB0BEB0B       DC16     +3051,+3051,+3051,+3051
   \              EB0B        
   \   00000284   EB0BEB0BEB0B       DC16     +3051,+3051,+3051,+3051
   \              EB0B        
   \   0000028C   EB0BEB0BEB0B       DC16     +3051,+3051,+3051,+3051
   \              EB0B        
   \   00000294   EB0BEB0BEB0B       DC16     +3051,+3051,+3051,+3051
   \              EB0B        
   \   0000029C   EB0BEB0BEB0B       DC16     +3051,+3051,+3051,+3051
   \              EB0B        
   \   000002A4   EB0BEB0BEB0B       DC16     +3051,+3051,+3051,+3051
   \              EB0B        
   \   000002AC   EB0BEB0BEB0B       DC16     +3051,+3051,+3051,+3051
   \              EB0B        
   \   000002B4   EB0BEB0BEB0B       DC16     +3051,+3051,+3051,+3051
   \              EB0B        
   \   000002BC   EB0BEB0BEB0B       DC16     +3051,+3051,+3051,+3051
   \              EB0B        
   \   000002C4   EB0BEB0BEB0B       DC16     +3051,+3051,+3051,+3051
   \              EB0B        
   \   000002CC   EB0BEB0BEB0B       DC16     +3051,+3051,+3051,+3051
   \              EB0B        
   \   000002D4   EB0BEB0BEB0B       DC16     +3051,+3051,+3051,+3051
   \              EB0B        
   \   000002DC   EB0BEB0BEB0B       DC16     +3051,+3051,+3051,+3051
   \              EB0B        
   \   000002E4   EB0BEB0BEB0B       DC16     +3051,+3051,+3051,+3051
   \              EB0B        
   \   000002EC   EB0BEB0BEB0B       DC16     +3051,+3051,+3051,+3051
   \              EB0B        
   \   000002F4   EB0BEB0BEB0B       DC16     +3051,+3051,+3051,+3051
   \              EB0B        
   \   000002FC   EB0BEB0BEB0B       DC16     +3051,+3051,+3051,+3051
   \              EB0B        
   \   00000304   EB0BEB0BEB0B       DC16     +3051,+3051,+3051,+3051
   \              EB0B        
   \   0000030C   EB0BEB0BEB0B       DC16     +3051,+3051,+3051,+3051
   \              EB0B        
   \   00000314   EB0BEB0BEB0B       DC16     +3051,+3051,+3051,+3051
   \              EB0B        
   \   0000031C   EB0BEB0BEB0B       DC16     +3051,+3051,+3051,+3051
   \              EB0B        
   \   00000324   EB0BEB0BEB0B       DC16     +3051,+3051,+3051,+3051
   \              EB0B        
   \   0000032C   EB0BEB0BEB0B       DC16     +3051,+3051,+3051,+3051
   \              EB0B        
   \   00000334   EB0BEB0BEB0B       DC16     +3051,+3051,+3051,+3051
   \              EB0B        
   \   0000033C   EB0BEB0BEB0B       DC16     +3051,+3051,+3051,+3051
   \              EB0B        
   \   00000344   EB0BEB0BEB0B       DC16     +3051,+3051,+3051,+3051
   \              EB0B        
   \   0000034C   EB0BEB0BEB0B       DC16     +3051,+3051,+3051,+3051
   \              EB0B        
   \   00000354   EB0BEB0BEB0B       DC16     +3051,+3051,+3051,+3051
   \              EB0B        
   \   0000035C   EB0BEB0BEB0B       DC16     +3051,+3051,+3051,+3051
   \              EB0B        
   \   00000364   EB0BEB0BEB0B       DC16     +3051,+3051,+3051,+3051
   \              EB0B        
   \   0000036C   EB0BEB0BEB0B       DC16     +3051,+3051,+3051,+3051
   \              EB0B        
   \   00000374   EB0BEB0BEB0B       DC16     +3051,+3051,+3051,+3051
   \              EB0B        
   \   0000037C   EB0BEB0BEB0B       DC16     +3051,+3051,+3051,+3051
   \              EB0B        
   \   00000384   EB0BEB0BEB0B       DC16     +3051,+3051,+3051,+3051
   \              EB0B        
   \   0000038C   EB0BEB0BEB0B       DC16     +3051,+3051,+3051,+3051
   \              EB0B        
   \   00000394   EB0BEB0BEB0B       DC16     +3051,+3051,+3051,+3051
   \              EB0B        
   \   0000039C   EB0BEB0BEB0B       DC16     +3051,+3051,+3051,+3051
   \              EB0B        
   \   000003A4   EB0BEB0BEB0B       DC16     +3051,+3051,+3051,+3051
   \              EB0B        
   \   000003AC   EB0BEB0BEB0B       DC16     +3051,+3051,+3051,+3051
   \              EB0B        
   \   000003B4   EB0BEB0BEB0B       DC16     +3051,+3051,+3051,+3051
   \              EB0B        
   \   000003BC   EB0BEB0BEB0B       DC16     +3051,+3051,+3051,+3051
   \              EB0B        
   \   000003C4   EB0BEB0BEB0B       DC16     +3051,+3051,+3051,+3051
   \              EB0B        
   \   000003CC   EB0BEB0BEB0B       DC16     +3051,+3051,+3051,+3051
   \              EB0B        
   \   000003D4   EB0BEB0BEB0B       DC16     +3051,+3051,+3051,+3051
   \              EB0B        
   \   000003DC   EB0BEB0BEB0B       DC16     +3051,+3051,+3051,+3051
   \              EB0B        
   \   000003E4   EB0BEB0BEB0B       DC16     +3051,+3051,+3051,+3051
   \              EB0B        
   \   000003EC   EB0BEB0BEB0B       DC16     +3051,+3051,+3051,+3051
   \              EB0B        
   \   000003F4   EB0BEB0BEB0B       DC16     +3051,+3051,+3051,+3051
   \              EB0B        
   \   000003FC   EB0BEB0BEB0B       DC16     +3051,+3051,+3051,+3051
   \              EB0B        
   \   00000404   EB0BEB0BEB0B       DC16     +3051,+3051,+3051,+3051
   \              EB0B        
   \   0000040C   EB0BEB0BEB0B       DC16     +3051,+3051,+3051,+3051
   \              EB0B        
   \   00000414   EB0BEB0BEB0B       DC16     +3051,+3051,+3051,+3051
   \              EB0B        
   \   0000041C   EB0BEB0BEB0B       DC16     +3051,+3051,+3051,+3051
   \              EB0B        
   \   00000424   EB0BEB0BEB0B       DC16     +3051,+3051,+3051,+3051
   \              EB0B        
   \   0000042C   EB0BEB0BEB0B       DC16     +3051,+3051,+3051,+3051
   \              EB0B        
   \   00000434   EB0BEB0BEB0B       DC16     +3051,+3051,+3051,+3051
   \              EB0B        
   \   0000043C   EB0BEB0BEB0B       DC16     +3051,+3051,+3051,+3051
   \              EB0B        
   \   00000444   EB0BEB0BEB0B       DC16     +3051,+3051,+3051,+3051
   \              EB0B        
   \   0000044C   EB0BEB0BEB0B       DC16     +3051,+3051,+3051,+3051
   \              EB0B        
   \   00000454   EB0BEB0BEB0B       DC16     +3051,+3051,+3051,+3051
   \              EB0B        
   \   0000045C   EB0BEB0BEB0B       DC16     +3051,+3051,+3051,+3051
   \              EB0B        
   \   00000464   EB0BEB0BEB0B       DC16     +3051,+3051,+3051,+3051
   \              EB0B        
   \   0000046C   EB0BEB0BEB0B       DC16     +3051,+3051,+3051,+3051
   \              EB0B        
   \   00000474   EB0BEB0BEB0B       DC16     +3051,+3051,+3051,+3051
   \              EB0B        
   \   0000047C   EB0BEB0BEB0B       DC16     +3051,+3051,+3051,+3051
   \              EB0B        
   \   00000484   EB0BEB0BEB0B       DC16     +3051,+3051,+3051,+3051
   \              EB0B        
   \   0000048C   EB0BEB0BEB0B       DC16     +3051,+3051,+3051,+3051
   \              EB0B        
   \   00000494   EB0BEB0BEB0B       DC16     +3051,+3051,+3051,+3051
   \              EB0B        
   \   0000049C   EB0BEB0BEB0B       DC16     +3051,+3051,+3051,+3051
   \              EB0B        
   \   000004A4   EB0BEB0BEB0B       DC16     +3051,+3051,+3051,+3051
   \              EB0B        
   \   000004AC   EB0BEB0BEB0B       DC16     +3051,+3051,+3051,+3051
   \              EB0B        
   \   000004B4   EB0BEB0BEB0B       DC16     +3051,+3051,+3051,+3051
   \              EB0B        
   \   000004BC   EB0BEB0BEB0B       DC16     +3051,+3051,+3051,+3051
   \              EB0B        
   \   000004C4   EB0BEB0BEB0B       DC16     +3051,+3051,+3051,+3051
   \              EB0B        
   \   000004CC   EB0BEB0BEB0B       DC16     +3051,+3051,+3051,+3051
   \              EB0B        
   \   000004D4   EB0BEB0BEB0B       DC16     +3051,+3051,+3051,+3051
   \              EB0B        
   \   000004DC   EB0BEB0BEB0B       DC16     +3051,+3051,+3051,+3051
   \              EB0B        
   \   000004E4   EB0BEB0BEB0B       DC16     +3051,+3051,+3051,+3051
   \              EB0B        
   \   000004EC   EB0BEB0BEB0B       DC16     +3051,+3051,+3051,+3051
   \              EB0B        
   \   000004F4   EB0BEB0BEB0B       DC16     +3051,+3051,+3051,+3051
   \              EB0B        
   \   000004FC   EB0BEB0BEB0B       DC16     +3051,+3051,+3051,+3051
   \              EB0B        
   \   00000504   EB0BEB0BEB0B       DC16     +3051,+3051,+3051,+3051
   \              EB0B        
   \   0000050C   EB0BEB0BEB0B       DC16     +3051,+3051,+3051,+3051
   \              EB0B        
   \   00000514   EB0BEB0BEB0B       DC16     +3051,+3051,+3051,+3051
   \              EB0B        
   \   0000051C   EB0BEB0BEB0B       DC16     +3051,+3051,+3051,+3051
   \              EB0B        
   \   00000524   EB0BEB0BEB0B       DC16     +3051,+3051,+3051,+3051
   \              EB0B        
   \   0000052C   EB0BEB0BEB0B       DC16     +3051,+3051,+3051,+3051
   \              EB0B        
   \   00000534   EB0BEB0BEB0B       DC16     +3051,+3051,+3051,+3051
   \              EB0B        
   \   0000053C   EB0BEB0BEB0B       DC16     +3051,+3051,+3051,+3051
   \              EB0B        
   \   00000544   EB0BEB0BEB0B       DC16     +3051,+3051,+3051,+3051
   \              EB0B        
   \   0000054C   EB0BEB0BEB0B       DC16     +3051,+3051,+3051,+3051
   \              EB0B        
   \   00000554   EB0BEB0BEB0B       DC16     +3051,+3051,+3051,+3051
   \              EB0B        
   \   0000055C   EB0BEB0BEB0B       DC16     +3051,+3051,+3051,+3051
   \              EB0B        
   \   00000564   EB0BEB0BEB0B       DC16     +3051,+3051,+3051,+3051
   \              EB0B        
   \   0000056C   EB0BEB0BEB0B       DC16     +3051,+3051,+3051,+3051
   \              EB0B        
   \   00000574   EB0BEB0BEB0B       DC16     +3051,+3051,+3051,+3051
   \              EB0B        
   \   0000057C   EB0BEB0BEB0B       DC16     +3051,+3051,+3051,+3051
   \              EB0B        
   \   00000584   EB0BEB0BEB0B       DC16     +3051,+3051,+3051,+3051
   \              EB0B        
   \   0000058C   EB0BEB0BEB0B       DC16     +3051,+3051,+3051,+3051
   \              EB0B        
   \   00000594   EB0BEB0BEB0B       DC16     +3051,+3051,+3051,+3051
   \              EB0B        
   \   0000059C   EB0BEB0BEB0B       DC16     +3051,+3051,+3051,+3051
   \              EB0B        
   \   000005A4   EB0BEB0BEB0B       DC16     +3051,+3051,+3051,+3051
   \              EB0B        
   \   000005AC   EB0BEB0BEB0B       DC16     +3051,+3051,+3051,+3051
   \              EB0B        
   \   000005B4   EB0BEB0BEB0B       DC16     +3051,+3051,+3051,+3051
   \              EB0B        
   \   000005BC   EB0BEB0BEB0B       DC16     +3051,+3051,+3051,+3051
   \              EB0B        
   \   000005C4   EB0BEB0BEB0B       DC16     +3051,+3051,+3051,+3051
   \              EB0B        
   \   000005CC   EB0BEB0BEB0B       DC16     +3051,+3051,+3051,+3051
   \              EB0B        
   \   000005D4   EB0BEB0BEB0B       DC16     +3051,+3051,+3051,+3051
   \              EB0B        
   \   000005DC   EB0BEB0BEB0B       DC16     +3051,+3051,+3051,+3051
   \              EB0B        
   \   000005E4   EB0BEB0BEB0B       DC16     +3051,+3051,+3051,+3051
   \              EB0B        
   \   000005EC   EB0BEB0BEB0B       DC16     +3051,+3051,+3051,+3051
   \              EB0B        
   \   000005F4   EB0BEB0BEB0B       DC16     +3051,+3051,+3051,+3051
   \              EB0B        
   \   000005FC   EB0BEB0BEB0B       DC16     +3051,+3051,+3051,+3051
   \              EB0B        
   \   00000604   EB0BEB0BEB0B       DC16     +3051,+3051,+3051,+3051
   \              EB0B        
   \   0000060C   EB0BEB0BEB0B       DC16     +3051,+3051,+3051,+3051
   \              EB0B        
   \   00000614   EB0BEB0BEB0B       DC16     +3051,+3051,+3051,+3051
   \              EB0B        
   \   0000061C   EB0BEB0BEB0B       DC16     +3051,+3051,+3051,+3051
   \              EB0B        
   \   00000624   EB0BEB0BEB0B       DC16     +3051,+3051,+3051,+3051
   \              EB0B        
   \   0000062C   EB0BEB0BEB0B       DC16     +3051,+3051,+3051,+3051
   \              EB0B        
   \   00000634   EB0BEB0BEB0B       DC16     +3051,+3051,+3051,+3051
   \              EB0B        
   \   0000063C   EB0BEB0BEB0B       DC16     +3051,+3051,+3051,+3051
   \              EB0B        
   \   00000644   EB0BEB0BEB0B       DC16     +3051,+3051,+3051,+3051
   \              EB0B        
   \   0000064C   EB0BEB0BEB0B       DC16     +3051,+3051,+3051,+3051
   \              EB0B        
   \   00000654   EB0BEB0BEB0B       DC16     +3051,+3051,+3051,+3051
   \              EB0B        
   \   0000065C   EB0BEB0BEB0B       DC16     +3051,+3051,+3051,+3051
   \              EB0B        
   \   00000664   EB0BEB0BEB0B       DC16     +3051,+3051,+3051,+3051
   \              EB0B        
   \   0000066C   EB0BEB0BEB0B       DC16     +3051,+3051,+3051,+3051
   \              EB0B        
   \   00000674   EB0BEB0BEB0B       DC16     +3051,+3051,+3051,+3051
   \              EB0B        
   \   0000067C   EB0BEB0BEB0B       DC16     +3051,+3051,+3051,+3051
   \              EB0B        
   \   00000684   EB0BEB0BEB0B       DC16     +3051,+3051,+3051,+3051
   \              EB0B        
   \   0000068C   EB0BEB0BEB0B       DC16     +3051,+3051,+3051,+3051
   \              EB0B        
   \   00000694   EB0BEB0BEB0B       DC16     +3051,+3051,+3051,+3051
   \              EB0B        
   \   0000069C   EB0BEB0BEB0B       DC16     +3051,+3051,+3051,+3051
   \              EB0B        
   \   000006A4   EB0BEB0BEB0B       DC16     +3051,+3051,+3051,+3051
   \              EB0B        
   \   000006AC   EB0BEB0BEB0B       DC16     +3051,+3051,+3051,+3051
   \              EB0B        
   \   000006B4   EB0BEB0BEB0B       DC16     +3051,+3051,+3051,+3051
   \              EB0B        
   \   000006BC   EB0BEB0BEB0B       DC16     +3051,+3051,+3051,+3051
   \              EB0B        
   \   000006C4   EB0BEB0BEB0B       DC16     +3051,+3051,+3051,+3051
   \              EB0B        
   \   000006CC   EB0BEB0BEB0B       DC16     +3051,+3051,+3051,+3051
   \              EB0B        
   \   000006D4   EB0BEB0BEB0B       DC16     +3051,+3051,+3051,+3051
   \              EB0B        
   \   000006DC   EB0BEB0BEB0B       DC16     +3051,+3051,+3051,+3051
   \              EB0B        
   \   000006E4   EB0BEB0BEB0B       DC16     +3051,+3051,+3051,+3051
   \              EB0B        
   \   000006EC   EB0BEB0BEB0B       DC16     +3051,+3051,+3051,+3051
   \              EB0B        
   \   000006F4   EB0BEB0BEB0B       DC16     +3051,+3051,+3051,+3051
   \              EB0B        
   \   000006FC   EB0BEB0BEB0B       DC16     +3051,+3051,+3051,+3051
   \              EB0B        
   \   00000704   EB0BEB0BEB0B       DC16     +3051,+3051,+3051,+3051
   \              EB0B        
   \   0000070C   EB0BEB0BEB0B       DC16     +3051,+3051,+3051,+3051
   \              EB0B        
   \   00000714   EB0BEB0BEB0B       DC16     +3051,+3051,+3051,+3051
   \              EB0B        
   \   0000071C   EB0BEB0BEB0B       DC16     +3051,+3051,+3051,+3051
   \              EB0B        
   \   00000724   EB0BEB0BEB0B       DC16     +3051,+3051,+3051,+3051
   \              EB0B        
   \   0000072C   EB0BEB0BEB0B       DC16     +3051,+3051,+3051,+3051
   \              EB0B        
   \   00000734   EB0BEB0BEB0B       DC16     +3051,+3051,+3051,+3051
   \              EB0B        
   \   0000073C   EB0BEB0BEB0B       DC16     +3051,+3051,+3051,+3051
   \              EB0B        
   \   00000744   EB0BEB0BEB0B       DC16     +3051,+3051,+3051,+3051
   \              EB0B        
   \   0000074C   EB0BEB0BEB0B       DC16     +3051,+3051,+3051,+3051
   \              EB0B        
   \   00000754   EB0BEB0BEB0B       DC16     +3051,+3051,+3051,+3051
   \              EB0B        
   \   0000075C   EB0BEB0BEB0B       DC16     +3051,+3051,+3051,+3051
   \              EB0B        
   \   00000764   EB0BEB0BEB0B       DC16     +3051,+3051,+3051,+3051
   \              EB0B        
   \   0000076C   EB0BEB0BEB0B       DC16     +3051,+3051,+3051,+3051
   \              EB0B        
   \   00000774   EB0BEB0BEB0B       DC16     +3051,+3051,+3051,+3051
   \              EB0B        
   \   0000077C   EB0BEB0BEB0B       DC16     +3051,+3051,+3051,+3051
   \              EB0B        
   \   00000784   EB0BEB0BEB0B       DC16     +3051,+3051,+3051,+3051
   \              EB0B        
   \   0000078C   EB0BEB0BEB0B       DC16     +3051,+3051,+3051,+3051
   \              EB0B        
   \   00000794   EB0BEB0BEB0B       DC16     +3051,+3051,+3051,+3051
   \              EB0B        
   \   0000079C   EB0BEB0BEB0B       DC16     +3051,+3051,+3051,+3051
   \              EB0B        
   \   000007A4   EB0BEB0BEB0B       DC16     +3051,+3051,+3051,+3051
   \              EB0B        
   \   000007AC   EB0BEB0BEB0B       DC16     +3051,+3051,+3051,+3051
   \              EB0B        
   \   000007B4   EB0BEB0BEB0B       DC16     +3051,+3051,+3051,+3051
   \              EB0B        
   \   000007BC   EB0BEB0BEB0B       DC16     +3051,+3051,+3051,+3051
   \              EB0B        
   \   000007C4   EB0BEB0BEB0B       DC16     +3051,+3051,+3051,+3051
   \              EB0B        
   \   000007CC   EB0BEB0BEB0B       DC16     +3051,+3051,+3051,+3051
   \              EB0B        
   \   000007D4   EB0BEB0BEB0B       DC16     +3051,+3051,+3051,+3051
   \              EB0B        
   \   000007DC   EB0BEB0BEB0B       DC16     +3051,+3051,+3051,+3051
   \              EB0B        
   \   000007E4   EB0BEB0BEB0B       DC16     +3051,+3051,+3051,+3051
   \              EB0B        
   \   000007EC   EB0BEB0BEB0B       DC16     +3051,+3051,+3051,+3051
   \              EB0B        
   \   000007F4   EB0BEB0BEB0B       DC16     +3051,+3051,+3051,+3051
   \              EB0B        
   \   000007FC   EB0BEB0BEB0B       DC16     +3051,+3051,+3051,+3051
   \              EB0B        
   \   00000804   EB0BEB0BEB0B       DC16     +3051,+3051,+3051,+3051
   \              EB0B        
   \   0000080C   EB0BEB0BEB0B       DC16     +3051,+3051,+3051,+3051
   \              EB0B        
   \   00000814   EB0BEB0BEB0B       DC16     +3051,+3051,+3051,+3051
   \              EB0B        
   \   0000081C   EB0BEB0BEB0B       DC16     +3051,+3051,+3051,+3051
   \              EB0B        
   \   00000824   EB0BEB0BEB0B       DC16     +3051,+3051,+3051,+3051
   \              EB0B        
   \   0000082C   EB0BEB0BEB0B       DC16     +3051,+3051,+3051,+3051
   \              EB0B        
   \   00000834   EB0BEB0BEB0B       DC16     +3051,+3051,+3051,+3051
   \              EB0B        
   \   0000083C   EB0BEB0BEB0B       DC16     +3051,+3051,+3051,+3051
   \              EB0B        
   \   00000844   EB0BEB0BEB0B       DC16     +3051,+3051,+3051,+3051
   \              EB0B        
   \   0000084C   EB0BEB0BEB0B       DC16     +3051,+3051,+3051,+3051
   \              EB0B        
   \   00000854   EB0BEB0BEB0B       DC16     +3051,+3051,+3051,+3051
   \              EB0B        
   \   0000085C   EB0BEB0BEB0B       DC16     +3051,+3051,+3051,+3051
   \              EB0B        
   \   00000864   EB0BEB0BEB0B       DC16     +3051,+3051,+3051,+3051
   \              EB0B        
   \   0000086C   EB0BEB0BEB0B       DC16     +3051,+3051,+3051,+3051
   \              EB0B        
   \   00000874   EB0BEB0BEB0B       DC16     +3051,+3051,+3051,+3051
   \              EB0B        
   \   0000087C   EB0BEB0BEB0B       DC16     +3051,+3051,+3051,+3051
   \              EB0B        
   \   00000884   EB0BEB0BEB0B       DC16     +3051,+3051,+3051,+3051
   \              EB0B        
   \   0000088C   EB0BEB0BEB0B       DC16     +3051,+3051,+3051,+3051
   \              EB0B        
   \   00000894   EB0BEB0BEB0B       DC16     +3051,+3051,+3051,+3051
   \              EB0B        
   \   0000089C   EB0BEB0BEB0B       DC16     +3051,+3051,+3051,+3051
   \              EB0B        
   \   000008A4   EB0BEB0BEB0B       DC16     +3051,+3051,+3051,+3051
   \              EB0B        
   \   000008AC   EB0BEB0BEB0B       DC16     +3051,+3051,+3051,+3051
   \              EB0B        
   \   000008B4   EB0BEB0BEB0B       DC16     +3051,+3051,+3051,+3051
   \              EB0B        
   \   000008BC   EB0BEB0BEB0B       DC16     +3051,+3051,+3051,+3051
   \              EB0B        
   \   000008C4   EB0BEB0BEB0B       DC16     +3051,+3051,+3051,+3051
   \              EB0B        
   \   000008CC   EB0BEB0BEB0B       DC16     +3051,+3051,+3051,+3051
   \              EB0B        
   \   000008D4   EB0BEB0BEB0B       DC16     +3051,+3051,+3051,+3051
   \              EB0B        
   \   000008DC   EB0BEB0BEB0B       DC16     +3051,+3051,+3051,+3051
   \              EB0B        
   \   000008E4   EB0BEB0BEB0B       DC16     +3051,+3051,+3051,+3051
   \              EB0B        
   \   000008EC   EB0BEB0BEB0B       DC16     +3051,+3051,+3051,+3051
   \              EB0B        
   \   000008F4   EB0BEB0BEB0B       DC16     +3051,+3051,+3051,+3051
   \              EB0B        
   \   000008FC   EB0BEB0BEB0B       DC16     +3051,+3051,+3051,+3051
   \              EB0B        
   \   00000904   EB0BEB0BEB0B       DC16     +3051,+3051,+3051,+3051
   \              EB0B        
   \   0000090C   EB0BEB0BEB0B       DC16     +3051,+3051,+3051,+3051
   \              EB0B        
   \   00000914   EB0BEB0BEB0B       DC16     +3051,+3051,+3051,+3051
   \              EB0B        
   \   0000091C   EB0BEB0BEB0B       DC16     +3051,+3051,+3051,+3051
   \              EB0B        
   \   00000924   EB0BEB0BEB0B       DC16     +3051,+3051,+3051,+3051
   \              EB0B        
   \   0000092C   EB0BEB0BEB0B       DC16     +3051,+3051,+3051,+3051
   \              EB0B        
   \   00000934   EB0BEB0BEB0B       DC16     +3051,+3051,+3051,+3051
   \              EB0B        
   \   0000093C   EB0BEB0BEB0B       DC16     +3051,+3051,+3051,+3051
   \              EB0B        
   \   00000944   EB0BEB0BEB0B       DC16     +3051,+3051,+3051,+3051
   \              EB0B        
   \   0000094C   EB0BEB0BEB0B       DC16     +3051,+3051,+3051,+3051
   \              EB0B        
   \   00000954   EB0BEB0BEB0B       DC16     +3051,+3051,+3051,+3051
   \              EB0B        
   \   0000095C   EB0BEB0BEB0B       DC16     +3051,+3051,+3051,+3051
   \              EB0B        
   \   00000964   EB0BEB0BEB0B       DC16     +3051,+3051,+3051,+3051
   \              EB0B        
   \   0000096C   EB0BEB0BEB0B       DC16     +3051,+3051,+3051,+3051
   \              EB0B        
   \   00000974   EB0BEB0BEB0B       DC16     +3051,+3051,+3051,+3051
   \              EB0B        
   \   0000097C   EB0BEB0BEB0B       DC16     +3051,+3051,+3051,+3051
   \              EB0B        
   \   00000984   EB0BEB0BEB0B       DC16     +3051,+3051,+3051,+3051
   \              EB0B        
   \   0000098C   EB0BEB0BEB0B       DC16     +3051,+3051,+3051,+3051
   \              EB0B        
   \   00000994   EB0BEB0BEB0B       DC16     +3051,+3051,+3051,+3051
   \              EB0B        
   \   0000099C   EB0BEB0BEB0B       DC16     +3051,+3051,+3051,+3051
   \              EB0B        
   \   000009A4   EB0BEB0BEB0B       DC16     +3051,+3051,+3051,+3051
   \              EB0B        
   \   000009AC   EB0BEB0BEB0B       DC16     +3051,+3051,+3051,+3051
   \              EB0B        
   \   000009B4   EB0BEB0BEB0B       DC16     +3051,+3051,+3051,+3051
   \              EB0B        
   \   000009BC   EB0BEB0BEB0B       DC16     +3051,+3051,+3051,+3051
   \              EB0B        
   \   000009C4   EB0BEB0BEB0B       DC16     +3051,+3051,+3051,+3051
   \              EB0B        
   \   000009CC   EB0BEB0BEB0B       DC16     +3051,+3051,+3051,+3051
   \              EB0B        
   \   000009D4   EB0BEB0BEB0B       DC16     +3051,+3051,+3051,+3051
   \              EB0B        
   \   000009DC   EB0BEB0BEB0B       DC16     +3051,+3051,+3051,+3051
   \              EB0B        
   \   000009E4   EB0BEB0BEB0B       DC16     +3051,+3051,+3051,+3051
   \              EB0B        
   \   000009EC   EB0BEB0BEB0B       DC16     +3051,+3051,+3051,+3051
   \              EB0B        
   \   000009F4   EB0BEB0BEB0B       DC16     +3051,+3051,+3051,+3051
   \              EB0B        
   \   000009FC   EB0BEB0BEB0B       DC16     +3051,+3051,+3051,+3051
   \              EB0B        
   \   00000A04   EB0BEB0BEB0B       DC16     +3051,+3051,+3051,+3051
   \              EB0B        
   \   00000A0C   EB0BEB0BEB0B       DC16     +3051,+3051,+3051,+3051
   \              EB0B        
   \   00000A14   EB0BEB0BEB0B       DC16     +3051,+3051,+3051,+3051
   \              EB0B        
   \   00000A1C   EB0BEB0BEB0B       DC16     +3051,+3051,+3051,+3051
   \              EB0B        
   \   00000A24   EB0BEB0BEB0B       DC16     +3051,+3051,+3051,+3051
   \              EB0B        
   \   00000A2C   EB0BEB0BEB0B       DC16     +3051,+3051,+3051,+3051
   \              EB0B        
   \   00000A34   EB0BEB0BEB0B       DC16     +3051,+3051,+3051,+3051
   \              EB0B        
   \   00000A3C   EB0BEB0BEB0B       DC16     +3051,+3051,+3051,+3051
   \              EB0B        
   \   00000A44   EB0BEB0BEB0B       DC16     +3051,+3051,+3051,+3051
   \              EB0B        
   \   00000A4C   EB0BEB0BEB0B       DC16     +3051,+3051,+3051,+3051
   \              EB0B        
   \   00000A54   EB0BEB0BEB0B       DC16     +3051,+3051,+3051,+3051
   \              EB0B        
   \   00000A5C   EB0BEB0BEB0B       DC16     +3051,+3051,+3051,+3051
   \              EB0B        
   \   00000A64   EB0BEB0BEB0B       DC16     +3051,+3051,+3051,+3051
   \              EB0B        
   \   00000A6C   EB0BEB0BEB0B       DC16     +3051,+3051,+3051,+3051
   \              EB0B        
   \   00000A74   EB0BEB0BEB0B       DC16     +3051,+3051,+3051,+3051
   \              EB0B        
   \   00000A7C   EB0BEB0BEB0B       DC16     +3051,+3051,+3051,+3051
   \              EB0B        
   \   00000A84   EB0BEB0BEB0B       DC16     +3051,+3051,+3051,+3051
   \              EB0B        
   \   00000A8C   EB0BEB0BEB0B       DC16     +3051,+3051,+3051,+3051
   \              EB0B        
   \   00000A94   EB0BEB0BEB0B       DC16     +3051,+3051,+3051,+3051
   \              EB0B        
   \   00000A9C   EB0BEB0BEB0B       DC16     +3051,+3051,+3051,+3051
   \              EB0B        
   \   00000AA4   EB0BEB0BEB0B       DC16     +3051,+3051,+3051,+3051
   \              EB0B        
   \   00000AAC   EB0BEB0BEB0B       DC16     +3051,+3051,+3051,+3051
   \              EB0B        
   \   00000AB4   EB0BEB0BEB0B       DC16     +3051,+3051,+3051,+3051
   \              EB0B        
   \   00000ABC   EB0BEB0BEB0B       DC16     +3051,+3051,+3051,+3051
   \              EB0B        
   \   00000AC4   920CEB0BEB0B       DC16     +3218,+3051,+3051,+3051
   \              EB0B        
   \   00000ACC   EB0BEB0BEB0B       DC16     +3051,+3051,+3051,+3051
   \              EB0B        
   \   00000AD4   EB0BEB0BEB0B       DC16     +3051,+3051,+3051,+3051
   \              EB0B        
   \   00000ADC   EB0BEB0BEB0B       DC16     +3051,+3051,+3051,+3051
   \              EB0B        
   \   00000AE4   EB0BEB0BEB0B       DC16     +3051,+3051,+3051,+3051
   \              EB0B        
   \   00000AEC   EB0BEB0BEB0B       DC16     +3051,+3051,+3051,+3051
   \              EB0B        
   \   00000AF4   EB0BEB0BEB0B       DC16     +3051,+3051,+3051,+3051
   \              EB0B        
   \   00000AFC   EB0BEB0BEB0B       DC16     +3051,+3051,+3051,+3051
   \              EB0B        
   \   00000B04   EB0BEB0BEB0B       DC16     +3051,+3051,+3051,+3051
   \              EB0B        
   \   00000B0C   EB0BEB0BEB0B       DC16     +3051,+3051,+3051,+3051
   \              EB0B        
   \   00000B14   EB0BEB0BEB0B       DC16     +3051,+3051,+3051,+3051
   \              EB0B        
   \   00000B1C   EB0BEB0BEB0B       DC16     +3051,+3051,+3051,+3051
   \              EB0B        
   \   00000B24   EB0BEB0BEB0B       DC16     +3051,+3051,+3051,+3051
   \              EB0B        
   \   00000B2C   EB0BEB0BEB0B       DC16     +3051,+3051,+3051,+3051
   \              EB0B        
   \   00000B34   EB0BEB0BEB0B       DC16     +3051,+3051,+3051,+3051
   \              EB0B        
   \   00000B3C   EB0BEB0BEB0B       DC16     +3051,+3051,+3051,+3051
   \              EB0B        
   \   00000B44   EB0BEB0BEB0B       DC16     +3051,+3051,+3051,+3051
   \              EB0B        
   \   00000B4C   EB0BEB0BEB0B       DC16     +3051,+3051,+3051,+3051
   \              EB0B        
   \   00000B54   EB0BEB0BEB0B       DC16     +3051,+3051,+3051,+3051
   \              EB0B        
   \   00000B5C   EB0BEB0BEB0B       DC16     +3051,+3051,+3051,+3051
   \              EB0B        
   \   00000B64   EB0BEB0BEB0B       DC16     +3051,+3051,+3051,+3051
   \              EB0B        
   \   00000B6C   EB0BEB0BEB0B       DC16     +3051,+3051,+3051,+3051
   \              EB0B        
   \   00000B74   EB0BEB0BEB0B       DC16     +3051,+3051,+3051,+3051
   \              EB0B        
   \   00000B7C   EB0BEB0BEB0B       DC16     +3051,+3051,+3051,+3051
   \              EB0B        
   \   00000B84   EB0BEB0BEB0B       DC16     +3051,+3051,+3051,+3051
   \              EB0B        
   \   00000B8C   EB0BEB0BEB0B       DC16     +3051,+3051,+3051,+3051
   \              EB0B        
   \   00000B94   EB0BEB0BEB0B       DC16     +3051,+3051,+3051,+3051
   \              EB0B        
   \   00000B9C   EB0BEB0BEB0B       DC16     +3051,+3051,+3051,+3051
   \              EB0B        
   \   00000BA4   EB0BEB0BEB0B       DC16     +3051,+3051,+3051,+3051
   \              EB0B        
   \   00000BAC   EB0BEB0BEB0B       DC16     +3051,+3051,+3051,+3051
   \              EB0B        
   \   00000BB4   EB0BEB0BEB0B       DC16     +3051,+3051,+3051,+3051
   \              EB0B        
   \   00000BBC   EB0BEB0BEB0B       DC16     +3051,+3051,+3051,+3051
   \              EB0B        
   \   00000BC4   EB0BEB0BEB0B       DC16     +3051,+3051,+3051,+3051
   \              EB0B        
   \   00000BCC   EB0BEB0BEB0B       DC16     +3051,+3051,+3051,+3051
   \              EB0B        
   \   00000BD4   EB0BEB0BEB0B       DC16     +3051,+3051,+3051,+3051
   \              EB0B        
   \   00000BDC   EB0BEB0BEB0B       DC16     +3051,+3051,+3051,+3051
   \              EB0B        
   \   00000BE4   EB0BEB0BEB0B       DC16     +3051,+3051,+3051,+3051
   \              EB0B        
   \   00000BEC   EB0BEB0BEB0B       DC16     +3051,+3051,+3051,+3051
   \              EB0B        
   \   00000BF4   EB0BEB0BEB0B       DC16     +3051,+3051,+3051,+3051
   \              EB0B        
   \   00000BFC   EB0BEB0BEB0B       DC16     +3051,+3051,+3051,+3051
   \              EB0B        
   \   00000C04   EB0BEB0BEB0B       DC16     +3051,+3051,+3051,+3051
   \              EB0B        
   \   00000C0C   EB0BEB0BEB0B       DC16     +3051,+3051,+3051,+3051
   \              EB0B        
   \   00000C14   EB0BEB0BEB0B       DC16     +3051,+3051,+3051,+3051
   \              EB0B        
   \   00000C1C   EB0BEB0BEB0B       DC16     +3051,+3051,+3051,+3051
   \              EB0B        
   \   00000C24   EB0BEB0BEB0B       DC16     +3051,+3051,+3051,+3051
   \              EB0B        
   \   00000C2C   EB0BEB0BEB0B       DC16     +3051,+3051,+3051,+3051
   \              EB0B        
   \   00000C34   EB0BEB0BEB0B       DC16     +3051,+3051,+3051,+3051
   \              EB0B        
   \   00000C3C   EB0BEB0BEB0B       DC16     +3051,+3051,+3051,+3051
   \              EB0B        
   \   00000C44   EB0BEB0BEB0B       DC16     +3051,+3051,+3051,+3051
   \              EB0B        
   \   00000C4C   EB0BEB0BEB0B       DC16     +3051,+3051,+3051,+3051
   \              EB0B        
   \   00000C54   EB0BEB0BEB0B       DC16     +3051,+3051,+3051,+3051
   \              EB0B        
   \   00000C5C   EB0BEB0BEB0B       DC16     +3051,+3051,+3051,+3051
   \              EB0B        
   \   00000C64   EB0BEB0BEB0B       DC16     +3051,+3051,+3051,+3051
   \              EB0B        
   \   00000C6C   EB0BEB0BEB0B       DC16     +3051,+3051,+3051,+3051
   \              EB0B        
   \   00000C74   EB0BEB0BEB0B       DC16     +3051,+3051,+3051,+3051
   \              EB0B        
   \   00000C7C   EB0BEB0BEB0B       DC16     +3051,+3051,+3051,+3051
   \              EB0B        
   \   00000C84   EB0BEB0BEB0B       DC16     +3051,+3051,+3051,+3051
   \              EB0B        
   \   00000C8C   EB0BEB0BEB0B       DC16     +3051,+3051,+3051,+3051
   \              EB0B        
   \   00000C94   EB0BEB0BEB0B       DC16     +3051,+3051,+3051,+3051
   \              EB0B        
   \   00000C9C   EB0BEB0BEB0B       DC16     +3051,+3051,+3051,+3051
   \              EB0B        
   \   00000CA4   EB0BEB0BEB0B       DC16     +3051,+3051,+3051,+3051
   \              EB0B        
   \   00000CAC   EB0BEB0BEB0B       DC16     +3051,+3051,+3051,+3051
   \              EB0B        
   \   00000CB4   EB0BEB0BEB0B       DC16     +3051,+3051,+3051,+3051
   \              EB0B        
   \   00000CBC   EB0BEB0BEB0B       DC16     +3051,+3051,+3051,+3051
   \              EB0B        
   \   00000CC4   EB0BEB0BEB0B       DC16     +3051,+3051,+3051,+3051
   \              EB0B        
   \   00000CCC   EB0BEB0BEB0B       DC16     +3051,+3051,+3051,+3051
   \              EB0B        
   \   00000CD4   EB0BEB0BEB0B       DC16     +3051,+3051,+3051,+3051
   \              EB0B        
   \   00000CDC   EB0BEB0BEB0B       DC16     +3051,+3051,+3051,+3051
   \              EB0B        
   \   00000CE4   EB0BEB0BEB0B       DC16     +3051,+3051,+3051,+3051
   \              EB0B        
   \   00000CEC   EB0BEB0BEB0B       DC16     +3051,+3051,+3051,+3051
   \              EB0B        
   \   00000CF4   EB0BEB0BEB0B       DC16     +3051,+3051,+3051,+3051
   \              EB0B        
   \   00000CFC   EB0BEB0BEB0B       DC16     +3051,+3051,+3051,+3051
   \              EB0B        
   \   00000D04   EB0BEB0BEB0B       DC16     +3051,+3051,+3051,+3051
   \              EB0B        
   \   00000D0C   EB0BEB0BEB0B       DC16     +3051,+3051,+3051,+3051
   \              EB0B        
   \   00000D14   EB0BEB0BEB0B       DC16     +3051,+3051,+3051,+3051
   \              EB0B        
   \   00000D1C   EB0BEB0BEB0B       DC16     +3051,+3051,+3051,+3051
   \              EB0B        
   \   00000D24   EB0BEB0BEB0B       DC16     +3051,+3051,+3051,+3051
   \              EB0B        
   \   00000D2C   EB0BEB0BEB0B       DC16     +3051,+3051,+3051,+3051
   \              EB0B        
   \   00000D34   EB0BEB0BEB0B       DC16     +3051,+3051,+3051,+3051
   \              EB0B        
   \   00000D3C   EB0BEB0BEB0B       DC16     +3051,+3051,+3051,+3051
   \              EB0B        
   \   00000D44   EB0BEB0BEB0B       DC16     +3051,+3051,+3051,+3051
   \              EB0B        
   \   00000D4C   EB0BEB0BEB0B       DC16     +3051,+3051,+3051,+3051
   \              EB0B        
   \   00000D54   EB0BEB0BEB0B       DC16     +3051,+3051,+3051,+3051
   \              EB0B        
   \   00000D5C   EB0BEB0BEB0B       DC16     +3051,+3051,+3051,+3051
   \              EB0B        
   \   00000D64   EB0BEB0BEB0B       DC16     +3051,+3051,+3051,+3051
   \              EB0B        
   \   00000D6C   EB0BEB0BEB0B       DC16     +3051,+3051,+3051,+3051
   \              EB0B        
   \   00000D74   EB0BEB0BEB0B       DC16     +3051,+3051,+3051,+3051
   \              EB0B        
   \   00000D7C   EB0BEB0BEB0B       DC16     +3051,+3051,+3051,+3051
   \              EB0B        
   \   00000D84   EB0BEB0BEB0B       DC16     +3051,+3051,+3051,+3051
   \              EB0B        
   \   00000D8C   EB0BEB0BEB0B       DC16     +3051,+3051,+3051,+3051
   \              EB0B        
   \   00000D94   EB0BEB0BEB0B       DC16     +3051,+3051,+3051,+3051
   \              EB0B        
   \   00000D9C   EB0BEB0BEB0B       DC16     +3051,+3051,+3051,+3051
   \              EB0B        
   \   00000DA4   EB0BEB0BEB0B       DC16     +3051,+3051,+3051,+3051
   \              EB0B        
   \   00000DAC   EB0BEB0BEB0B       DC16     +3051,+3051,+3051,+3051
   \              EB0B        
   \   00000DB4   EB0BEB0BEB0B       DC16     +3051,+3051,+3051,+3051
   \              EB0B        
   \   00000DBC   EB0BEB0BEB0B       DC16     +3051,+3051,+3051,+3051
   \              EB0B        
   \   00000DC4   EB0BEB0BEB0B       DC16     +3051,+3051,+3051,+3051
   \              EB0B        
   \   00000DCC   EB0BEB0BEB0B       DC16     +3051,+3051,+3051,+3051
   \              EB0B        
   \   00000DD4   EB0BEB0BEB0B       DC16     +3051,+3051,+3051,+3051
   \              EB0B        
   \   00000DDC   EB0BEB0BEB0B       DC16     +3051,+3051,+3051,+3051
   \              EB0B        
   \   00000DE4   EB0BEB0BEB0B       DC16     +3051,+3051,+3051,+3051
   \              EB0B        
   \   00000DEC   EB0BEB0BEB0B       DC16     +3051,+3051,+3051,+3051
   \              EB0B        
   \   00000DF4   EB0BEB0BEB0B       DC16     +3051,+3051,+3051,+3051
   \              EB0B        
   \   00000DFC   EB0BEB0BEB0B       DC16     +3051,+3051,+3051,+3051
   \              EB0B        
   \   00000E04   EB0BEB0BEB0B       DC16     +3051,+3051,+3051,+3051
   \              EB0B        
   \   00000E0C   EB0BEB0BEB0B       DC16     +3051,+3051,+3051,+3051
   \              EB0B        
   \   00000E14   EB0BEB0BEB0B       DC16     +3051,+3051,+3051,+3051
   \              EB0B        
   \   00000E1C   EB0BEB0BEB0B       DC16     +3051,+3051,+3051,+3051
   \              EB0B        
   \   00000E24   EB0BEB0BEB0B       DC16     +3051,+3051,+3051,+3051
   \              EB0B        
   \   00000E2C   EB0BEB0BEB0B       DC16     +3051,+3051,+3051,+3051
   \              EB0B        
   \   00000E34   EB0BEB0BEB0B       DC16     +3051,+3051,+3051,+3051
   \              EB0B        
   \   00000E3C   EB0BEB0BEB0B       DC16     +3051,+3051,+3051,+3051
   \              EB0B        
   \   00000E44   EB0BEB0BEB0B       DC16     +3051,+3051,+3051,+3051
   \              EB0B        
   \   00000E4C   EB0BEB0BEB0B       DC16     +3051,+3051,+3051,+3051
   \              EB0B        
   \   00000E54   EB0BEB0BEB0B       DC16     +3051,+3051,+3051,+3051
   \              EB0B        
   \   00000E5C   EB0BEB0BEB0B       DC16     +3051,+3051,+3051,+3051
   \              EB0B        
   \   00000E64   EB0BEB0BEB0B       DC16     +3051,+3051,+3051,+3051
   \              EB0B        
   \   00000E6C   EB0BEB0BEB0B       DC16     +3051,+3051,+3051,+3051
   \              EB0B        
   \   00000E74   EB0BEB0BEB0B       DC16     +3051,+3051,+3051,+3051
   \              EB0B        
   \   00000E7C   EB0BEB0BEB0B       DC16     +3051,+3051,+3051,+3051
   \              EB0B        
   \   00000E84   EB0BEB0BEB0B       DC16     +3051,+3051,+3051,+3051
   \              EB0B        
   \   00000E8C   EB0BEB0BEB0B       DC16     +3051,+3051,+3051,+3051
   \              EB0B        
   \   00000E94   EB0BEB0BEB0B       DC16     +3051,+3051,+3051,+3051
   \              EB0B        
   \   00000E9C   EB0BEB0BEB0B       DC16     +3051,+3051,+3051,+3051
   \              EB0B        
   \   00000EA4   EB0BEB0BEB0B       DC16     +3051,+3051,+3051,+3051
   \              EB0B        
   \   00000EAC   EB0BEB0BEB0B       DC16     +3051,+3051,+3051,+3051
   \              EB0B        
   \   00000EB4   EB0BEB0BEB0B       DC16     +3051,+3051,+3051,+3051
   \              EB0B        
   \   00000EBC   EB0BEB0BEB0B       DC16     +3051,+3051,+3051,+3051
   \              EB0B        
   \   00000EC4   EB0BEB0BEB0B       DC16     +3051,+3051,+3051,+3051
   \              EB0B        
   \   00000ECC   EB0BEB0BEB0B       DC16     +3051,+3051,+3051,+3051
   \              EB0B        
   \   00000ED4   EB0BEB0BEB0B       DC16     +3051,+3051,+3051,+3051
   \              EB0B        
   \   00000EDC   EB0BEB0BEB0B       DC16     +3051,+3051,+3051,+3051
   \              EB0B        
   \   00000EE4   EB0BEB0BEB0B       DC16     +3051,+3051,+3051,+3051
   \              EB0B        
   \   00000EEC   EB0BEB0BEB0B       DC16     +3051,+3051,+3051,+3051
   \              EB0B        
   \   00000EF4   EB0BEB0BEB0B       DC16     +3051,+3051,+3051,+3051
   \              EB0B        
   \   00000EFC   EB0BEB0BEB0B       DC16     +3051,+3051,+3051,+3051
   \              EB0B        
   \   00000F04   EB0BEB0BEB0B       DC16     +3051,+3051,+3051,+3051
   \              EB0B        
   \   00000F0C   EB0BEB0BEB0B       DC16     +3051,+3051,+3051,+3051
   \              EB0B        
   \   00000F14   EB0BEB0BEB0B       DC16     +3051,+3051,+3051,+3051
   \              EB0B        
   \   00000F1C   EB0BEB0BEB0B       DC16     +3051,+3051,+3051,+3051
   \              EB0B        
   \   00000F24   EB0BEB0BEB0B       DC16     +3051,+3051,+3051,+3051
   \              EB0B        
   \   00000F2C   EB0BEB0BEB0B       DC16     +3051,+3051,+3051,+3051
   \              EB0B        
   \   00000F34   EB0BEB0BEB0B       DC16     +3051,+3051,+3051,+3051
   \              EB0B        
   \   00000F3C   EB0BEB0BEB0B       DC16     +3051,+3051,+3051,+3051
   \              EB0B        
   \   00000F44   EB0BEB0BEB0B       DC16     +3051,+3051,+3051,+3051
   \              EB0B        
   \   00000F4C   EB0BEB0BEB0B       DC16     +3051,+3051,+3051,+3051
   \              EB0B        
   \   00000F54   EB0BEB0BEB0B       DC16     +3051,+3051,+3051,+3051
   \              EB0B        
   \   00000F5C   EB0BEB0BEB0B       DC16     +3051,+3051,+3051,+3051
   \              EB0B        
   \   00000F64   EB0BEB0BEB0B       DC16     +3051,+3051,+3051,+3051
   \              EB0B        
   \   00000F6C   EB0BEB0BEB0B       DC16     +3051,+3051,+3051,+3051
   \              EB0B        
   \   00000F74   EB0BEB0BEB0B       DC16     +3051,+3051,+3051,+3051
   \              EB0B        
   \   00000F7C   EB0BEB0BEB0B       DC16     +3051,+3051,+3051,+3051
   \              EB0B        
   \   00000F84   EB0BEB0BEB0B       DC16     +3051,+3051,+3051,+3051
   \              EB0B        
   \   00000F8C   EB0BEB0BEB0B       DC16     +3051,+3051,+3051,+3051
   \              EB0B        
   \   00000F94   EB0BEB0BEB0B       DC16     +3051,+3051,+3051,+3051
   \              EB0B        
   \   00000F9C   EB0BEB0BEB0B       DC16     +3051,+3051,+3051,+3051
   \              EB0B        
   \   00000FA4   EB0BEB0BEB0B       DC16     +3051,+3051,+3051,+3051
   \              EB0B        
   \   00000FAC   EB0BEB0BEB0B       DC16     +3051,+3051,+3051,+3051
   \              EB0B        
   \   00000FB4   EB0BEB0BEB0B       DC16     +3051,+3051,+3051,+3051
   \              EB0B        
   \   00000FBC   EB0BEB0BEB0B       DC16     +3051,+3051,+3051,+3051
   \              EB0B        
   \   00000FC4   EB0BEB0BEB0B       DC16     +3051,+3051,+3051,+3051
   \              EB0B        
   \   00000FCC   EB0BEB0BEB0B       DC16     +3051,+3051,+3051,+3051
   \              EB0B        
   \   00000FD4   EB0BEB0BEB0B       DC16     +3051,+3051,+3051,+3051
   \              EB0B        
   \   00000FDC   EB0BEB0BEB0B       DC16     +3051,+3051,+3051,+3051
   \              EB0B        
   \   00000FE4   EB0BEB0BEB0B       DC16     +3051,+3051,+3051,+3051
   \              EB0B        
   \   00000FEC   EB0BEB0BEB0B       DC16     +3051,+3051,+3051,+3051
   \              EB0B        
   \   00000FF4   EB0BEB0BEB0B       DC16     +3051,+3051,+3051,+3051
   \              EB0B        
   \   00000FFC   EB0BEB0BEB0B       DC16     +3051,+3051,+3051,+3051
   \              EB0B        
   \   00001004   EB0BEB0BEB0B       DC16     +3051,+3051,+3051,+3051
   \              EB0B        
   \   0000100C   EB0BEB0BEB0B       DC16     +3051,+3051,+3051,+3051
   \              EB0B        
   \   00001014   EB0BEB0BEB0B       DC16     +3051,+3051,+3051,+3051
   \              EB0B        
   \   0000101C   EB0BEB0BEB0B       DC16     +3051,+3051,+3051,+3051
   \              EB0B        
   \   00001024   EB0BEB0BEB0B       DC16     +3051,+3051,+3051,+3051
   \              EB0B        
   \   0000102C   EB0BEB0BEB0B       DC16     +3051,+3051,+3051,+3051
   \              EB0B        
   \   00001034   EB0BEB0BEB0B       DC16     +3051,+3051,+3051,+3051
   \              EB0B        
   \   0000103C   EB0BEB0BEB0B       DC16     +3051,+3051,+3051,+3051
   \              EB0B        
   \   00001044   EB0BEB0BEB0B       DC16     +3051,+3051,+3051,+3051
   \              EB0B        
   \   0000104C   EB0BEB0BEB0B       DC16     +3051,+3051,+3051,+3051
   \              EB0B        
   \   00001054   EB0BEB0BEB0B       DC16     +3051,+3051,+3051,+3051
   \              EB0B        
   \   0000105C   EB0BEB0BEB0B       DC16     +3051,+3051,+3051,+3051
   \              EB0B        
   \   00001064   EB0BEB0BEB0B       DC16     +3051,+3051,+3051,+3051
   \              EB0B        
   \   0000106C   EB0BEB0BEB0B       DC16     +3051,+3051,+3051,+3051
   \              EB0B        
   \   00001074   EB0BEB0BEB0B       DC16     +3051,+3051,+3051,+3051
   \              EB0B        
   \   0000107C   EB0BEB0BEB0B       DC16     +3051,+3051,+3051,+3051
   \              EB0B        
   \   00001084   EB0BEB0BEB0B       DC16     +3051,+3051,+3051,+3051
   \              EB0B        
   \   0000108C   EB0BEB0BEB0B       DC16     +3051,+3051,+3051,+3051
   \              EB0B        
   \   00001094   EB0BEB0BEB0B       DC16     +3051,+3051,+3051,+3051
   \              EB0B        
   \   0000109C   EB0BEB0BEB0B       DC16     +3051,+3051,+3051,+3051
   \              EB0B        
   \   000010A4   EB0BEB0BEB0B       DC16     +3051,+3051,+3051,+3051
   \              EB0B        
   \   000010AC   EB0BEB0BEB0B       DC16     +3051,+3051,+3051,+3051
   \              EB0B        
   \   000010B4   EB0BEB0BEB0B       DC16     +3051,+3051,+3051,+3051
   \              EB0B        
   \   000010BC   EB0BEB0BEB0B       DC16     +3051,+3051,+3051,+3051
   \              EB0B        
   \   000010C4   EB0BEB0BEB0B       DC16     +3051,+3051,+3051,+3051
   \              EB0B        
   \   000010CC   EB0BEB0BEB0B       DC16     +3051,+3051,+3051,+3051
   \              EB0B        
   \   000010D4   EB0BEB0BEB0B       DC16     +3051,+3051,+3051,+3051
   \              EB0B        
   \   000010DC   EB0BEB0BEB0B       DC16     +3051,+3051,+3051,+3051
   \              EB0B        
   \   000010E4   EB0BEB0BEB0B       DC16     +3051,+3051,+3051,+3051
   \              EB0B        
   \   000010EC   EB0BEB0BEB0B       DC16     +3051,+3051,+3051,+3051
   \              EB0B        
   \   000010F4   EB0BEB0BEB0B       DC16     +3051,+3051,+3051,+3051
   \              EB0B        
   \   000010FC   EB0BEB0BEB0B       DC16     +3051,+3051,+3051,+3051
   \              EB0B        
   \   00001104   EB0B920CEB0B       DC16     +3051,+3218,+3051,+3051
   \              EB0B        
   \   0000110C   EB0BEB0BEB0B       DC16     +3051,+3051,+3051,+3051
   \              EB0B        
   \   00001114   EB0BEB0BEB0B       DC16     +3051,+3051,+3051,+3051
   \              EB0B        
   \   0000111C   EB0BEB0BEB0B       DC16     +3051,+3051,+3051,+3051
   \              EB0B        
   \   00001124   EB0BEB0BEB0B       DC16     +3051,+3051,+3051,+3051
   \              EB0B        
   \   0000112C   EB0BEB0BEB0B       DC16     +3051,+3051,+3051,+3051
   \              EB0B        
   \   00001134   EB0BEB0BEB0B       DC16     +3051,+3051,+3051,+3051
   \              EB0B        
   \   0000113C   EB0BEB0BEB0B       DC16     +3051,+3051,+3051,+3051
   \              EB0B        
   \   00001144   EB0BEB0BEB0B       DC16     +3051,+3051,+3051,+3051
   \              EB0B        
   \   0000114C   EB0BEB0BEB0B       DC16     +3051,+3051,+3051,+3051
   \              EB0B        
   \   00001154   EB0BEB0BEB0B       DC16     +3051,+3051,+3051,+3051
   \              EB0B        
   \   0000115C   EB0BEB0BEB0B       DC16     +3051,+3051,+3051,+3051
   \              EB0B        
   \   00001164   EB0BEB0BEB0B       DC16     +3051,+3051,+3051,+3051
   \              EB0B        
   \   0000116C   EB0BEB0BEB0B       DC16     +3051,+3051,+3051,+3051
   \              EB0B        
   \   00001174   EB0BEB0BEB0B       DC16     +3051,+3051,+3051,+3051
   \              EB0B        
   \   0000117C   EB0BEB0BEB0B       DC16     +3051,+3051,+3051,+3051
   \              EB0B        
   \   00001184   EB0BEB0BEB0B       DC16     +3051,+3051,+3051,+3051
   \              EB0B        
   \   0000118C   EB0BEB0BEB0B       DC16     +3051,+3051,+3051,+3051
   \              EB0B        
   \   00001194   EB0BEB0BEB0B       DC16     +3051,+3051,+3051,+3051
   \              EB0B        
   \   0000119C   EB0BEB0BEB0B       DC16     +3051,+3051,+3051,+3051
   \              EB0B        
   \   000011A4   EB0BEB0BEB0B       DC16     +3051,+3051,+3051,+3051
   \              EB0B        
   \   000011AC   EB0BEB0BEB0B       DC16     +3051,+3051,+3051,+3051
   \              EB0B        
   \   000011B4   EB0BEB0BEB0B       DC16     +3051,+3051,+3051,+3051
   \              EB0B        
   \   000011BC   EB0BEB0BEB0B       DC16     +3051,+3051,+3051,+3051
   \              EB0B        
   \   000011C4   EB0BEB0BEB0B       DC16     +3051,+3051,+3051,+3051
   \              EB0B        
   \   000011CC   EB0BEB0BEB0B       DC16     +3051,+3051,+3051,+3051
   \              EB0B        
   \   000011D4   EB0BEB0BEB0B       DC16     +3051,+3051,+3051,+3051
   \              EB0B        
   \   000011DC   EB0BEB0BEB0B       DC16     +3051,+3051,+3051,+3051
   \              EB0B        
   \   000011E4   EB0BEB0BEB0B       DC16     +3051,+3051,+3051,+3051
   \              EB0B        
   \   000011EC   EB0BEB0BEB0B       DC16     +3051,+3051,+3051,+3051
   \              EB0B        
   \   000011F4   EB0BEB0BEB0B       DC16     +3051,+3051,+3051,+3051
   \              EB0B        
   \   000011FC   EB0BEB0BEB0B       DC16     +3051,+3051,+3051,+3051
   \              EB0B        
   \   00001204   EB0BEB0BEB0B       DC16     +3051,+3051,+3051,+3051
   \              EB0B        
   \   0000120C   EB0BEB0BEB0B       DC16     +3051,+3051,+3051,+3051
   \              EB0B        
   \   00001214   EB0BEB0BEB0B       DC16     +3051,+3051,+3051,+3051
   \              EB0B        
   \   0000121C   EB0BEB0BEB0B       DC16     +3051,+3051,+3051,+3051
   \              EB0B        
   \   00001224   EB0BEB0BEB0B       DC16     +3051,+3051,+3051,+3051
   \              EB0B        
   \   0000122C   EB0BEB0BEB0B       DC16     +3051,+3051,+3051,+3051
   \              EB0B        
   \   00001234   EB0BEB0BEB0B       DC16     +3051,+3051,+3051,+3051
   \              EB0B        
   \   0000123C   EB0BEB0BEB0B       DC16     +3051,+3051,+3051,+3051
   \              EB0B        
   \   00001244   EB0BEB0BEB0B       DC16     +3051,+3051,+3051,+3051
   \              EB0B        
   \   0000124C   EB0BEB0BEB0B       DC16     +3051,+3051,+3051,+3051
   \              EB0B        
   \   00001254   EB0BEB0BEB0B       DC16     +3051,+3051,+3051,+3051
   \              EB0B        
   \   0000125C   EB0BEB0BEB0B       DC16     +3051,+3051,+3051,+3051
   \              EB0B        
   \   00001264   EB0BEB0BEB0B       DC16     +3051,+3051,+3051,+3051
   \              EB0B        
   \   0000126C   EB0BEB0BEB0B       DC16     +3051,+3051,+3051,+3051
   \              EB0B        
   \   00001274   EB0BEB0BEB0B       DC16     +3051,+3051,+3051,+3051
   \              EB0B        
   \   0000127C   EB0BEB0BEB0B       DC16     +3051,+3051,+3051,+3051
   \              EB0B        
   \   00001284   EB0BEB0BEB0B       DC16     +3051,+3051,+3051,+3051
   \              EB0B        
   \   0000128C   EB0BEB0BEB0B       DC16     +3051,+3051,+3051,+3051
   \              EB0B        
   \   00001294   EB0BEB0BEB0B       DC16     +3051,+3051,+3051,+3051
   \              EB0B        
   \   0000129C   EB0BEB0BEB0B       DC16     +3051,+3051,+3051,+3051
   \              EB0B        
   \   000012A4   EB0BEB0BEB0B       DC16     +3051,+3051,+3051,+3051
   \              EB0B        
   \   000012AC   EB0BEB0BEB0B       DC16     +3051,+3051,+3051,+3051
   \              EB0B        
   \   000012B4   EB0BEB0BEB0B       DC16     +3051,+3051,+3051,+3051
   \              EB0B        
   \   000012BC   EB0BEB0BEB0B       DC16     +3051,+3051,+3051,+3051
   \              EB0B        
   \   000012C4   EB0BEB0BEB0B       DC16     +3051,+3051,+3051,+3051
   \              EB0B        
   \   000012CC   EB0BEB0BEB0B       DC16     +3051,+3051,+3051,+3051
   \              EB0B        
   \   000012D4   EB0BEB0BEB0B       DC16     +3051,+3051,+3051,+3051
   \              EB0B        
   \   000012DC   EB0BEB0BEB0B       DC16     +3051,+3051,+3051,+3051
   \              EB0B        
   \   000012E4   EB0BEB0BEB0B       DC16     +3051,+3051,+3051,+3051
   \              EB0B        
   \   000012EC   EB0BEB0BEB0B       DC16     +3051,+3051,+3051,+3051
   \              EB0B        
   \   000012F4   EB0BEB0BEB0B       DC16     +3051,+3051,+3051,+3051
   \              EB0B        
   \   000012FC   EB0BEB0BEB0B       DC16     +3051,+3051,+3051,+3051
   \              EB0B        
   \   00001304   EB0BEB0BEB0B       DC16     +3051,+3051,+3051,+3051
   \              EB0B        
   \   0000130C   EB0BEB0BEB0B       DC16     +3051,+3051,+3051,+3051
   \              EB0B        
   \   00001314   EB0BEB0BEB0B       DC16     +3051,+3051,+3051,+3051
   \              EB0B        
   \   0000131C   EB0BEB0BEB0B       DC16     +3051,+3051,+3051,+3051
   \              EB0B        
   \   00001324   EB0BEB0BEB0B       DC16     +3051,+3051,+3051,+3051
   \              EB0B        
   \   0000132C   EB0BEB0BEB0B       DC16     +3051,+3051,+3051,+3051
   \              EB0B        
   \   00001334   EB0BEB0BEB0B       DC16     +3051,+3051,+3051,+3051
   \              EB0B        
   \   0000133C   EB0BEB0BEB0B       DC16     +3051,+3051,+3051,+3051
   \              EB0B        
   \   00001344   EB0BEB0BEB0B       DC16     +3051,+3051,+3051,+3051
   \              EB0B        
   \   0000134C   EB0BEB0BEB0B       DC16     +3051,+3051,+3051,+3051
   \              EB0B        
   \   00001354   EB0BEB0BEB0B       DC16     +3051,+3051,+3051,+3051
   \              EB0B        
   \   0000135C   EB0BEB0BEB0B       DC16     +3051,+3051,+3051,+3051
   \              EB0B        
   \   00001364   EB0BEB0BEB0B       DC16     +3051,+3051,+3051,+3051
   \              EB0B        
   \   0000136C   EB0BEB0BEB0B       DC16     +3051,+3051,+3051,+3051
   \              EB0B        
   \   00001374   EB0BEB0BEB0B       DC16     +3051,+3051,+3051,+3051
   \              EB0B        
   \   0000137C   EB0BEB0BEB0B       DC16     +3051,+3051,+3051,+3051
   \              EB0B        
   \   00001384   EB0BEB0BEB0B       DC16     +3051,+3051,+3051,+3051
   \              EB0B        
   \   0000138C   EB0BEB0BEB0B       DC16     +3051,+3051,+3051,+3051
   \              EB0B        
   \   00001394   EB0BEB0BEB0B       DC16     +3051,+3051,+3051,+3051
   \              EB0B        
   \   0000139C   EB0BEB0BEB0B       DC16     +3051,+3051,+3051,+3051
   \              EB0B        
   \   000013A4   EB0BEB0BEB0B       DC16     +3051,+3051,+3051,+3051
   \              EB0B        
   \   000013AC   EB0BEB0BEB0B       DC16     +3051,+3051,+3051,+3051
   \              EB0B        
   \   000013B4   EB0BEB0BEB0B       DC16     +3051,+3051,+3051,+3051
   \              EB0B        
   \   000013BC   EB0BEB0BEB0B       DC16     +3051,+3051,+3051,+3051
   \              EB0B        
   \   000013C4   EB0BEB0BEB0B       DC16     +3051,+3051,+3051,+3051
   \              EB0B        
   \   000013CC   EB0BEB0BEB0B       DC16     +3051,+3051,+3051,+3051
   \              EB0B        
   \   000013D4   EB0BEB0BEB0B       DC16     +3051,+3051,+3051,+3051
   \              EB0B        
   \   000013DC   EB0BEB0BEB0B       DC16     +3051,+3051,+3051,+3051
   \              EB0B        
   \   000013E4   EB0BEB0BEB0B       DC16     +3051,+3051,+3051,+3051
   \              EB0B        
   \   000013EC   EB0BEB0BEB0B       DC16     +3051,+3051,+3051,+3051
   \              EB0B        
   \   000013F4   EB0BEB0BEB0B       DC16     +3051,+3051,+3051,+3051
   \              EB0B        
   \   000013FC   EB0BEB0BEB0B       DC16     +3051,+3051,+3051,+3051
   \              EB0B        
   \   00001404   EB0BEB0BEB0B       DC16     +3051,+3051,+3051,+3051
   \              EB0B        
   \   0000140C   EB0BEB0BEB0B       DC16     +3051,+3051,+3051,+3051
   \              EB0B        
   \   00001414   EB0BEB0BEB0B       DC16     +3051,+3051,+3051,+3051
   \              EB0B        
   \   0000141C   EB0BEB0BEB0B       DC16     +3051,+3051,+3051,+3051
   \              EB0B        
   \   00001424   EB0BEB0BEB0B       DC16     +3051,+3051,+3051,+3051
   \              EB0B        
   \   0000142C   EB0BEB0BEB0B       DC16     +3051,+3051,+3051,+3051
   \              EB0B        
   \   00001434   EB0BEB0BEB0B       DC16     +3051,+3051,+3051,+3051
   \              EB0B        
   \   0000143C   EB0BEB0BEB0B       DC16     +3051,+3051,+3051,+3051
   \              EB0B        
   \   00001444   EB0BEB0BEB0B       DC16     +3051,+3051,+3051,+3051
   \              EB0B        
   \   0000144C   EB0BEB0BEB0B       DC16     +3051,+3051,+3051,+3051
   \              EB0B        
   \   00001454   EB0BEB0BEB0B       DC16     +3051,+3051,+3051,+3051
   \              EB0B        
   \   0000145C   EB0BEB0BEB0B       DC16     +3051,+3051,+3051,+3051
   \              EB0B        
   \   00001464   EB0BEB0BEB0B       DC16     +3051,+3051,+3051,+3051
   \              EB0B        
   \   0000146C   EB0BEB0BEB0B       DC16     +3051,+3051,+3051,+3051
   \              EB0B        
   \   00001474   EB0BEB0BEB0B       DC16     +3051,+3051,+3051,+3051
   \              EB0B        
   \   0000147C   EB0BEB0BEB0B       DC16     +3051,+3051,+3051,+3051
   \              EB0B        
   \   00001484   EB0BEB0BEB0B       DC16     +3051,+3051,+3051,+3051
   \              EB0B        
   \   0000148C   EB0BEB0BEB0B       DC16     +3051,+3051,+3051,+3051
   \              EB0B        
   \   00001494   EB0BEB0BEB0B       DC16     +3051,+3051,+3051,+3051
   \              EB0B        
   \   0000149C   EB0BEB0BEB0B       DC16     +3051,+3051,+3051,+3051
   \              EB0B        
   \   000014A4   EB0BEB0BEB0B       DC16     +3051,+3051,+3051,+3051
   \              EB0B        
   \   000014AC   EB0BEB0BEB0B       DC16     +3051,+3051,+3051,+3051
   \              EB0B        
   \   000014B4   EB0BEB0BEB0B       DC16     +3051,+3051,+3051,+3051
   \              EB0B        
   \   000014BC   EB0BEB0BEB0B       DC16     +3051,+3051,+3051,+3051
   \              EB0B        
   \   000014C4   EB0BEB0BEB0B       DC16     +3051,+3051,+3051,+3051
   \              EB0B        
   \   000014CC   EB0BEB0BEB0B       DC16     +3051,+3051,+3051,+3051
   \              EB0B        
   \   000014D4   EB0BEB0BEB0B       DC16     +3051,+3051,+3051,+3051
   \              EB0B        
   \   000014DC   EB0BEB0BEB0B       DC16     +3051,+3051,+3051,+3051
   \              EB0B        
   \   000014E4   EB0BEB0BEB0B       DC16     +3051,+3051,+3051,+3051
   \              EB0B        
   \   000014EC   EB0BEB0BEB0B       DC16     +3051,+3051,+3051,+3051
   \              EB0B        
   \   000014F4   EB0BEB0BEB0B       DC16     +3051,+3051,+3051,+3051
   \              EB0B        
   \   000014FC   EB0BEB0BEB0B       DC16     +3051,+3051,+3051,+3051
   \              EB0B        
   \   00001504   EB0BEB0BEB0B       DC16     +3051,+3051,+3051,+3051
   \              EB0B        
   \   0000150C   EB0BEB0BEB0B       DC16     +3051,+3051,+3051,+3051
   \              EB0B        
   \   00001514   EB0BEB0BEB0B       DC16     +3051,+3051,+3051,+3051
   \              EB0B        
   \   0000151C   EB0BEB0BEB0B       DC16     +3051,+3051,+3051,+3051
   \              EB0B        
   \   00001524   EB0BEB0BEB0B       DC16     +3051,+3051,+3051,+3051
   \              EB0B        
   \   0000152C   EB0BEB0BEB0B       DC16     +3051,+3051,+3051,+3051
   \              EB0B        
   \   00001534   EB0BEB0BEB0B       DC16     +3051,+3051,+3051,+3051
   \              EB0B        
   \   0000153C   EB0BEB0BEB0B       DC16     +3051,+3051,+3051,+3051
   \              EB0B        
   \   00001544   EB0BEB0BEB0B       DC16     +3051,+3051,+3051,+3051
   \              EB0B        
   \   0000154C   EB0BEB0BEB0B       DC16     +3051,+3051,+3051,+3051
   \              EB0B        
   \   00001554   EB0BEB0BEB0B       DC16     +3051,+3051,+3051,+3051
   \              EB0B        
   \   0000155C   EB0BEB0BEB0B       DC16     +3051,+3051,+3051,+3051
   \              EB0B        
   \   00001564   EB0BEB0BEB0B       DC16     +3051,+3051,+3051,+3051
   \              EB0B        
   \   0000156C   EB0BEB0BEB0B       DC16     +3051,+3051,+3051,+3051
   \              EB0B        
   \   00001574   EB0BEB0BEB0B       DC16     +3051,+3051,+3051,+3051
   \              EB0B        
   \   0000157C   EB0BEB0BEB0B       DC16     +3051,+3051,+3051,+3051
   \              EB0B        
   \   00001584   EB0BEB0BEB0B       DC16     +3051,+3051,+3051,+3051
   \              EB0B        
   \   0000158C   EB0BEB0BEB0B       DC16     +3051,+3051,+3051,+3051
   \              EB0B        
   \   00001594   EB0BEB0BEB0B       DC16     +3051,+3051,+3051,+3051
   \              EB0B        
   \   0000159C   EB0BEB0BEB0B       DC16     +3051,+3051,+3051,+3051
   \              EB0B        
   \   000015A4   EB0BEB0BEB0B       DC16     +3051,+3051,+3051,+3051
   \              EB0B        
   \   000015AC   EB0BEB0BEB0B       DC16     +3051,+3051,+3051,+3051
   \              EB0B        
   \   000015B4   EB0BEB0BEB0B       DC16     +3051,+3051,+3051,+3051
   \              EB0B        
   \   000015BC   EB0BEB0BEB0B       DC16     +3051,+3051,+3051,+3051
   \              EB0B        
   \   000015C4   EB0BEB0BEB0B       DC16     +3051,+3051,+3051,+3051
   \              EB0B        
   \   000015CC   EB0BEB0BEB0B       DC16     +3051,+3051,+3051,+3051
   \              EB0B        
   \   000015D4   EB0BEB0BEB0B       DC16     +3051,+3051,+3051,+3051
   \              EB0B        
   \   000015DC   EB0BEB0BEB0B       DC16     +3051,+3051,+3051,+3051
   \              EB0B        
   \   000015E4   EB0BEB0BEB0B       DC16     +3051,+3051,+3051,+3051
   \              EB0B        
   \   000015EC   EB0BEB0BEB0B       DC16     +3051,+3051,+3051,+3051
   \              EB0B        
   \   000015F4   EB0BEB0BEB0B       DC16     +3051,+3051,+3051,+3051
   \              EB0B        
   \   000015FC   EB0BEB0BEB0B       DC16     +3051,+3051,+3051,+3051
   \              EB0B        
   \   00001604   EB0BEB0BEB0B       DC16     +3051,+3051,+3051,+3051
   \              EB0B        
   \   0000160C   EB0BEB0BEB0B       DC16     +3051,+3051,+3051,+3051
   \              EB0B        
   \   00001614   EB0BEB0BEB0B       DC16     +3051,+3051,+3051,+3051
   \              EB0B        
   \   0000161C   EB0BEB0BEB0B       DC16     +3051,+3051,+3051,+3051
   \              EB0B        
   \   00001624   EB0BEB0BEB0B       DC16     +3051,+3051,+3051,+3051
   \              EB0B        
   \   0000162C   EB0BEB0BEB0B       DC16     +3051,+3051,+3051,+3051
   \              EB0B        
   \   00001634   EB0BEB0BEB0B       DC16     +3051,+3051,+3051,+3051
   \              EB0B        
   \   0000163C   EB0BEB0BEB0B       DC16     +3051,+3051,+3051,+3051
   \              EB0B        
   \   00001644   EB0BEB0BEB0B       DC16     +3051,+3051,+3051,+3051
   \              EB0B        
   \   0000164C   EB0BEB0BEB0B       DC16     +3051,+3051,+3051,+3051
   \              EB0B        
   \   00001654   EB0BEB0BEB0B       DC16     +3051,+3051,+3051,+3051
   \              EB0B        
   \   0000165C   EB0BEB0BEB0B       DC16     +3051,+3051,+3051,+3051
   \              EB0B        
   \   00001664   EB0BEB0BEB0B       DC16     +3051,+3051,+3051,+3051
   \              EB0B        
   \   0000166C   EB0BEB0BEB0B       DC16     +3051,+3051,+3051,+3051
   \              EB0B        
   \   00001674   EB0BEB0BEB0B       DC16     +3051,+3051,+3051,+3051
   \              EB0B        
   \   0000167C   EB0BEB0BEB0B       DC16     +3051,+3051,+3051,+3051
   \              EB0B        
   \   00001684   EB0BEB0BEB0B       DC16     +3051,+3051,+3051,+3051
   \              EB0B        
   \   0000168C   EB0BEB0BEB0B       DC16     +3051,+3051,+3051,+3051
   \              EB0B        
   \   00001694   EB0BEB0BEB0B       DC16     +3051,+3051,+3051,+3051
   \              EB0B        
   \   0000169C   EB0BEB0BEB0B       DC16     +3051,+3051,+3051,+3051
   \              EB0B        
   \   000016A4   EB0BEB0BEB0B       DC16     +3051,+3051,+3051,+3051
   \              EB0B        
   \   000016AC   EB0BEB0BEB0B       DC16     +3051,+3051,+3051,+3051
   \              EB0B        
   \   000016B4   EB0BEB0BEB0B       DC16     +3051,+3051,+3051,+3051
   \              EB0B        
   \   000016BC   EB0BEB0BEB0B       DC16     +3051,+3051,+3051,+3051
   \              EB0B        
   \   000016C4   EB0BEB0BEB0B       DC16     +3051,+3051,+3051,+3051
   \              EB0B        
   \   000016CC   EB0BEB0BEB0B       DC16     +3051,+3051,+3051,+3051
   \              EB0B        
   \   000016D4   EB0BEB0BEB0B       DC16     +3051,+3051,+3051,+3051
   \              EB0B        
   \   000016DC   EB0BEB0BEB0B       DC16     +3051,+3051,+3051,+3051
   \              EB0B        
   \   000016E4   EB0BEB0BEB0B       DC16     +3051,+3051,+3051,+3051
   \              EB0B        
   \   000016EC   EB0BEB0BEB0B       DC16     +3051,+3051,+3051,+3051
   \              EB0B        
   \   000016F4   EB0BEB0BEB0B       DC16     +3051,+3051,+3051,+3051
   \              EB0B        
   \   000016FC   EB0BEB0BEB0B       DC16     +3051,+3051,+3051,+3051
   \              EB0B        
   \   00001704   EB0BEB0BEB0B       DC16     +3051,+3051,+3051,+3051
   \              EB0B        
   \   0000170C   EB0BEB0BEB0B       DC16     +3051,+3051,+3051,+3051
   \              EB0B        
   \   00001714   EB0BEB0BEB0B       DC16     +3051,+3051,+3051,+3051
   \              EB0B        
   \   0000171C   EB0BEB0BEB0B       DC16     +3051,+3051,+3051,+3051
   \              EB0B        
   \   00001724   EB0BEB0BEB0B       DC16     +3051,+3051,+3051,+3051
   \              EB0B        
   \   0000172C   EB0BEB0BEB0B       DC16     +3051,+3051,+3051,+3051
   \              EB0B        
   \   00001734   EB0BEB0BEB0B       DC16     +3051,+3051,+3051,+3051
   \              EB0B        
   \   0000173C   EB0BEB0BEB0B       DC16     +3051,+3051,+3051,+3051
   \              EB0B        
   \   00001744   EB0BEB0BEB0B       DC16     +3051,+3051,+3051,+3051
   \              EB0B        
   \   0000174C   EB0BEB0BEB0B       DC16     +3051,+3051,+3051,+3051
   \              EB0B        
   \   00001754   EB0BEB0BEB0B       DC16     +3051,+3051,+3051,+3051
   \              EB0B        
   \   0000175C   EB0BEB0BEB0B       DC16     +3051,+3051,+3051,+3051
   \              EB0B        
   \   00001764   EB0BEB0BEB0B       DC16     +3051,+3051,+3051,+3051
   \              EB0B        
   \   0000176C   EB0BEB0BEB0B       DC16     +3051,+3051,+3051,+3051
   \              EB0B        
   \   00001774   EB0BEB0BEB0B       DC16     +3051,+3051,+3051,+3051
   \              EB0B        
   \   0000177C   EB0BEB0BEB0B       DC16     +3051,+3051,+3051,+3051
   \              EB0B        
   \   00001784   EB0BEB0BEB0B       DC16     +3051,+3051,+3051,+3051
   \              EB0B        
   \   0000178C   EB0BEB0BEB0B       DC16     +3051,+3051,+3051,+3051
   \              EB0B        
   \   00001794   EB0BEB0BEB0B       DC16     +3051,+3051,+3051,+3051
   \              EB0B        
   \   0000179C   EB0BEB0BEB0B       DC16     +3051,+3051,+3051,+3051
   \              EB0B        
   \   000017A4   EB0BEB0BEB0B       DC16     +3051,+3051,+3051,+3051
   \              EB0B        
   \   000017AC   EB0BEB0BEB0B       DC16     +3051,+3051,+3051,+3051
   \              EB0B        
   \   000017B4   EB0BEB0BEB0B       DC16     +3051,+3051,+3051,+3051
   \              EB0B        
   \   000017BC   EB0BEB0BEB0B       DC16     +3051,+3051,+3051,+3051
   \              EB0B        
   \   000017C4   EB0BEB0BEB0B       DC16     +3051,+3051,+3051,+3051
   \              EB0B        
   \   000017CC   EB0BEB0BEB0B       DC16     +3051,+3051,+3051,+3051
   \              EB0B        
   \   000017D4   EB0BEB0BEB0B       DC16     +3051,+3051,+3051,+3051
   \              EB0B        
   \   000017DC   EB0BEB0BEB0B       DC16     +3051,+3051,+3051,+3051
   \              EB0B        
   \   000017E4   EB0BEB0BEB0B       DC16     +3051,+3051,+3051,+3051
   \              EB0B        
   \   000017EC   EB0BEB0BEB0B       DC16     +3051,+3051,+3051,+3051
   \              EB0B        
   \   000017F4   EB0BEB0BEB0B       DC16     +3051,+3051,+3051,+3051
   \              EB0B        
   \   000017FC   EB0BEB0BEB0B       DC16     +3051,+3051,+3051,+3051
   \              EB0B        
   \   00001804   EB0BEB0BEB0B       DC16     +3051,+3051,+3051,+3051
   \              EB0B        
   \   0000180C   EB0BEB0BEB0B       DC16     +3051,+3051,+3051,+3051
   \              EB0B        
   \   00001814   EB0BEB0BEB0B       DC16     +3051,+3051,+3051,+3051
   \              EB0B        
   \   0000181C   EB0BEB0BEB0B       DC16     +3051,+3051,+3051,+3051
   \              EB0B        
   \   00001824   EB0BEB0BEB0B       DC16     +3051,+3051,+3051,+3051
   \              EB0B        
   \   0000182C   EB0BEB0BEB0B       DC16     +3051,+3051,+3051,+3051
   \              EB0B        
   \   00001834   EB0BEB0BEB0B       DC16     +3051,+3051,+3051,+3051
   \              EB0B        
   \   0000183C   EB0BEB0BEB0B       DC16     +3051,+3051,+3051,+3051
   \              EB0B        
   \   00001844   EB0BEB0BEB0B       DC16     +3051,+3051,+3051,+3051
   \              EB0B        
   \   0000184C   EB0BEB0BEB0B       DC16     +3051,+3051,+3051,+3051
   \              EB0B        
   \   00001854   EB0BEB0BEB0B       DC16     +3051,+3051,+3051,+3051
   \              EB0B        
   \   0000185C   EB0BEB0BEB0B       DC16     +3051,+3051,+3051,+3051
   \              EB0B        
   \   00001864   EB0BEB0BEB0B       DC16     +3051,+3051,+3051,+3051
   \              EB0B        
   \   0000186C   EB0BEB0BEB0B       DC16     +3051,+3051,+3051,+3051
   \              EB0B        
   \   00001874   EB0BEB0BEB0B       DC16     +3051,+3051,+3051,+3051
   \              EB0B        
   \   0000187C   EB0BEB0BEB0B       DC16     +3051,+3051,+3051,+3051
   \              EB0B        
   \   00001884   EB0BEB0BEB0B       DC16     +3051,+3051,+3051,+3051
   \              EB0B        
   \   0000188C   EB0BEB0BEB0B       DC16     +3051,+3051,+3051,+3051
   \              EB0B        
   \   00001894   EB0BEB0BEB0B       DC16     +3051,+3051,+3051,+3051
   \              EB0B        
   \   0000189C   EB0BEB0BEB0B       DC16     +3051,+3051,+3051,+3051
   \              EB0B        
   \   000018A4   EB0BEB0BEB0B       DC16     +3051,+3051,+3051,+3051
   \              EB0B        
   \   000018AC   EB0BEB0BEB0B       DC16     +3051,+3051,+3051,+3051
   \              EB0B        
   \   000018B4   EB0BEB0BEB0B       DC16     +3051,+3051,+3051,+3051
   \              EB0B        
   \   000018BC   EB0BEB0BEB0B       DC16     +3051,+3051,+3051,+3051
   \              EB0B        
   \   000018C4   EB0BEB0BEB0B       DC16     +3051,+3051,+3051,+3051
   \              EB0B        
   \   000018CC   EB0BEB0BEB0B       DC16     +3051,+3051,+3051,+3051
   \              EB0B        
   \   000018D4   EB0BEB0BEB0B       DC16     +3051,+3051,+3051,+3051
   \              EB0B        
   \   000018DC   EB0BEB0BEB0B       DC16     +3051,+3051,+3051,+3051
   \              EB0B        
   \   000018E4   EB0BEB0BEB0B       DC16     +3051,+3051,+3051,+3051
   \              EB0B        
   \   000018EC   EB0BEB0BEB0B       DC16     +3051,+3051,+3051,+3051
   \              EB0B        
   \   000018F4   EB0BEB0BEB0B       DC16     +3051,+3051,+3051,+3051
   \              EB0B        
   \   000018FC   EB0BEB0BEB0B       DC16     +3051,+3051,+3051,+3051
   \              EB0B        
   \   00001904   EB0BEB0BEB0B       DC16     +3051,+3051,+3051,+3051
   \              EB0B        
   \   0000190C   EB0BEB0BEB0B       DC16     +3051,+3051,+3051,+3051
   \              EB0B        
   \   00001914   EB0BEB0BEB0B       DC16     +3051,+3051,+3051,+3051
   \              EB0B        
   \   0000191C   EB0BEB0BEB0B       DC16     +3051,+3051,+3051,+3051
   \              EB0B        
   \   00001924   EB0BEB0BEB0B       DC16     +3051,+3051,+3051,+3051
   \              EB0B        
   \   0000192C   EB0BEB0BEB0B       DC16     +3051,+3051,+3051,+3051
   \              EB0B        
   \   00001934   EB0BEB0BEB0B       DC16     +3051,+3051,+3051,+3051
   \              EB0B        
   \   0000193C   EB0BEB0BEB0B       DC16     +3051,+3051,+3051,+3051
   \              EB0B        
   \   00001944   EB0BEB0BEB0B       DC16     +3051,+3051,+3051,+3051
   \              EB0B        
   \   0000194C   EB0BEB0BEB0B       DC16     +3051,+3051,+3051,+3051
   \              EB0B        
   \   00001954   EB0BEB0BEB0B       DC16     +3051,+3051,+3051,+3051
   \              EB0B        
   \   0000195C   EB0BEB0BEB0B       DC16     +3051,+3051,+3051,+3051
   \              EB0B        
   \   00001964   EB0BEB0BEB0B       DC16     +3051,+3051,+3051,+3051
   \              EB0B        
   \   0000196C   EB0BEB0BEB0B       DC16     +3051,+3051,+3051,+3051
   \              EB0B        
   \   00001974   EB0BEB0BEB0B       DC16     +3051,+3051,+3051,+3051
   \              EB0B        
   \   0000197C   EB0BEB0BEB0B       DC16     +3051,+3051,+3051,+3051
   \              EB0B        
   \   00001984   EB0BEB0BEB0B       DC16     +3051,+3051,+3051,+3051
   \              EB0B        
   \   0000198C   EB0BEB0BEB0B       DC16     +3051,+3051,+3051,+3051
   \              EB0B        
   \   00001994   EB0BEB0BEB0B       DC16     +3051,+3051,+3051,+3051
   \              EB0B        
   \   0000199C   EB0BEB0BEB0B       DC16     +3051,+3051,+3051,+3051
   \              EB0B        
   \   000019A4   EB0BEB0BEB0B       DC16     +3051,+3051,+3051,+3051
   \              EB0B        
   \   000019AC   EB0BEB0BEB0B       DC16     +3051,+3051,+3051,+3051
   \              EB0B        
   \   000019B4   EB0BEB0BEB0B       DC16     +3051,+3051,+3051,+3051
   \              EB0B        
   \   000019BC   EB0BEB0BEB0B       DC16     +3051,+3051,+3051,+3051
   \              EB0B        
   \   000019C4   EB0BEB0BEB0B       DC16     +3051,+3051,+3051,+3051
   \              EB0B        
   \   000019CC   EB0BEB0BEB0B       DC16     +3051,+3051,+3051,+3051
   \              EB0B        
   \   000019D4   EB0BEB0BEB0B       DC16     +3051,+3051,+3051,+3051
   \              EB0B        
   \   000019DC   EB0BEB0BEB0B       DC16     +3051,+3051,+3051,+3051
   \              EB0B        
   \   000019E4   EB0BEB0BEB0B       DC16     +3051,+3051,+3051,+3051
   \              EB0B        
   \   000019EC   EB0BEB0BEB0B       DC16     +3051,+3051,+3051,+3051
   \              EB0B        
   \   000019F4   EB0BEB0BEB0B       DC16     +3051,+3051,+3051,+3051
   \              EB0B        
   \   000019FC   EB0BEB0BEB0B       DC16     +3051,+3051,+3051,+3051
   \              EB0B        
   \   00001A04   EB0BEB0BEB0B       DC16     +3051,+3051,+3051,+3051
   \              EB0B        
   \   00001A0C   EB0BEB0BEB0B       DC16     +3051,+3051,+3051,+3051
   \              EB0B        
   \   00001A14   EB0BEB0BEB0B       DC16     +3051,+3051,+3051,+3051
   \              EB0B        
   \   00001A1C   EB0BEB0BEB0B       DC16     +3051,+3051,+3051,+3051
   \              EB0B        
   \   00001A24   EB0BEB0BEB0B       DC16     +3051,+3051,+3051,+3051
   \              EB0B        
   \   00001A2C   EB0BEB0BEB0B       DC16     +3051,+3051,+3051,+3051
   \              EB0B        
   \   00001A34   EB0BEB0BEB0B       DC16     +3051,+3051,+3051,+3051
   \              EB0B        
   \   00001A3C   EB0BEB0BEB0B       DC16     +3051,+3051,+3051,+3051
   \              EB0B        
   \   00001A44   EB0BEB0BEB0B       DC16     +3051,+3051,+3051,+3051
   \              EB0B        
   \   00001A4C   EB0BEB0BEB0B       DC16     +3051,+3051,+3051,+3051
   \              EB0B        
   \   00001A54   EB0BEB0BEB0B       DC16     +3051,+3051,+3051,+3051
   \              EB0B        
   \   00001A5C   EB0BEB0BEB0B       DC16     +3051,+3051,+3051,+3051
   \              EB0B        
   \   00001A64   EB0BEB0BEB0B       DC16     +3051,+3051,+3051,+3051
   \              EB0B        
   \   00001A6C   EB0BEB0BEB0B       DC16     +3051,+3051,+3051,+3051
   \              EB0B        
   \   00001A74   EB0BEB0BEB0B       DC16     +3051,+3051,+3051,+3051
   \              EB0B        
   \   00001A7C   EB0BEB0BEB0B       DC16     +3051,+3051,+3051,+3051
   \              EB0B        
   \   00001A84   EB0BEB0BEB0B       DC16     +3051,+3051,+3051,+3051
   \              EB0B        
   \   00001A8C   EB0BEB0BEB0B       DC16     +3051,+3051,+3051,+3051
   \              EB0B        
   \   00001A94   EB0BEB0BEB0B       DC16     +3051,+3051,+3051,+3051
   \              EB0B        
   \   00001A9C   EB0BEB0BEB0B       DC16     +3051,+3051,+3051,+3051
   \              EB0B        
   \   00001AA4   EB0BEB0BEB0B       DC16     +3051,+3051,+3051,+3051
   \              EB0B        
   \   00001AAC   EB0BEB0BEB0B       DC16     +3051,+3051,+3051,+3051
   \              EB0B        
   \   00001AB4   EB0BEB0BEB0B       DC16     +3051,+3051,+3051,+3051
   \              EB0B        
   \   00001ABC   EB0BEB0BEB0B       DC16     +3051,+3051,+3051,+3051
   \              EB0B        
   \   00001AC4   EB0BEB0BEB0B       DC16     +3051,+3051,+3051,+3051
   \              EB0B        
   \   00001ACC   EB0BEB0BEB0B       DC16     +3051,+3051,+3051,+3051
   \              EB0B        
   \   00001AD4   EB0BEB0BEB0B       DC16     +3051,+3051,+3051,+3051
   \              EB0B        
   \   00001ADC   EB0BEB0BEB0B       DC16     +3051,+3051,+3051,+3051
   \              EB0B        
   \   00001AE4   EB0BEB0BEB0B       DC16     +3051,+3051,+3051,+3051
   \              EB0B        
   \   00001AEC   EB0BEB0BEB0B       DC16     +3051,+3051,+3051,+3051
   \              EB0B        
   \   00001AF4   EB0BEB0BEB0B       DC16     +3051,+3051,+3051,+3051
   \              EB0B        
   \   00001AFC   EB0BEB0BEB0B       DC16     +3051,+3051,+3051,+3051
   \              EB0B        
   \   00001B04   EB0BEB0BEB0B       DC16     +3051,+3051,+3051,+3051
   \              EB0B        
   \   00001B0C   EB0BEB0BEB0B       DC16     +3051,+3051,+3051,+3051
   \              EB0B        
   \   00001B14   EB0BEB0BEB0B       DC16     +3051,+3051,+3051,+3051
   \              EB0B        
   \   00001B1C   EB0BEB0BEB0B       DC16     +3051,+3051,+3051,+3051
   \              EB0B        
   \   00001B24   EB0BEB0BEB0B       DC16     +3051,+3051,+3051,+3051
   \              EB0B        
   \   00001B2C   EB0BEB0BEB0B       DC16     +3051,+3051,+3051,+3051
   \              EB0B        
   \   00001B34   EB0BEB0BEB0B       DC16     +3051,+3051,+3051,+3051
   \              EB0B        
   \   00001B3C   EB0BEB0BEB0B       DC16     +3051,+3051,+3051,+3051
   \              EB0B        
   \   00001B44   EB0BEB0BEB0B       DC16     +3051,+3051,+3051,+3051
   \              EB0B        
   \   00001B4C   EB0BEB0BEB0B       DC16     +3051,+3051,+3051,+3051
   \              EB0B        
   \   00001B54   EB0BEB0BEB0B       DC16     +3051,+3051,+3051,+3051
   \              EB0B        
   \   00001B5C   EB0BEB0BEB0B       DC16     +3051,+3051,+3051,+3051
   \              EB0B        
   \   00001B64   EB0BEB0BEB0B       DC16     +3051,+3051,+3051,+3051
   \              EB0B        
   \   00001B6C   EB0BEB0BEB0B       DC16     +3051,+3051,+3051,+3051
   \              EB0B        
   \   00001B74   EB0BEB0BEB0B       DC16     +3051,+3051,+3051,+3051
   \              EB0B        
   \   00001B7C   EB0BEB0BEB0B       DC16     +3051,+3051,+3051,+3051
   \              EB0B        
   \   00001B84   EB0BEB0BEB0B       DC16     +3051,+3051,+3051,+3051
   \              EB0B        
   \   00001B8C   EB0BEB0BEB0B       DC16     +3051,+3051,+3051,+3051
   \              EB0B        
   \   00001B94   EB0BEB0BEB0B       DC16     +3051,+3051,+3051,+3051
   \              EB0B        
   \   00001B9C   EB0BEB0BEB0B       DC16     +3051,+3051,+3051,+3051
   \              EB0B        
   \   00001BA4   EB0BEB0BEB0B       DC16     +3051,+3051,+3051,+3051
   \              EB0B        
   \   00001BAC   EB0BEB0BEB0B       DC16     +3051,+3051,+3051,+3051
   \              EB0B        
   \   00001BB4   EB0BEB0BEB0B       DC16     +3051,+3051,+3051,+3051
   \              EB0B        
   \   00001BBC   EB0BEB0BEB0B       DC16     +3051,+3051,+3051,+3051
   \              EB0B        
   \   00001BC4   EB0BEB0BEB0B       DC16     +3051,+3051,+3051,+3051
   \              EB0B        
   \   00001BCC   EB0BEB0BEB0B       DC16     +3051,+3051,+3051,+3051
   \              EB0B        
   \   00001BD4   EB0BEB0BEB0B       DC16     +3051,+3051,+3051,+3051
   \              EB0B        
   \   00001BDC   EB0BEB0BEB0B       DC16     +3051,+3051,+3051,+3051
   \              EB0B        
   \   00001BE4   EB0BEB0BEB0B       DC16     +3051,+3051,+3051,+3051
   \              EB0B        
   \   00001BEC   EB0BEB0BEB0B       DC16     +3051,+3051,+3051,+3051
   \              EB0B        
   \   00001BF4   EB0BEB0BEB0B       DC16     +3051,+3051,+3051,+3051
   \              EB0B        
   \   00001BFC   EB0BEB0BEB0B       DC16     +3051,+3051,+3051,+3051
   \              EB0B        
   \   00001C04   EB0BEB0BEB0B       DC16     +3051,+3051,+3051,+3051
   \              EB0B        
   \   00001C0C   EB0BEB0BEB0B       DC16     +3051,+3051,+3051,+3051
   \              EB0B        
   \   00001C14   EB0BEB0BEB0B       DC16     +3051,+3051,+3051,+3051
   \              EB0B        
   \   00001C1C   EB0BEB0BEB0B       DC16     +3051,+3051,+3051,+3051
   \              EB0B        
   \   00001C24   EB0BEB0BEB0B       DC16     +3051,+3051,+3051,+3051
   \              EB0B        
   \   00001C2C   EB0BEB0BEB0B       DC16     +3051,+3051,+3051,+3051
   \              EB0B        
   \   00001C34   EB0BEB0BEB0B       DC16     +3051,+3051,+3051,+3051
   \              EB0B        
   \   00001C3C   EB0BEB0BEB0B       DC16     +3051,+3051,+3051,+3051
   \              EB0B        
   \   00001C44   EB0BEB0BEB0B       DC16     +3051,+3051,+3051,+3051
   \              EB0B        
   \   00001C4C   EB0BEB0BEB0B       DC16     +3051,+3051,+3051,+3051
   \              EB0B        
   \   00001C54   EB0BEB0BEB0B       DC16     +3051,+3051,+3051,+3051
   \              EB0B        
   \   00001C5C   EB0BEB0BEB0B       DC16     +3051,+3051,+3051,+3051
   \              EB0B        
   \   00001C64   EB0BEB0BEB0B       DC16     +3051,+3051,+3051,+3051
   \              EB0B        
   \   00001C6C   EB0BEB0BEB0B       DC16     +3051,+3051,+3051,+3051
   \              EB0B        
   \   00001C74   EB0BEB0BEB0B       DC16     +3051,+3051,+3051,+3051
   \              EB0B        
   \   00001C7C   EB0BEB0BEB0B       DC16     +3051,+3051,+3051,+3051
   \              EB0B        
   \   00001C84   EB0BEB0BEB0B       DC16     +3051,+3051,+3051,+3051
   \              EB0B        
   \   00001C8C   EB0BEB0BEB0B       DC16     +3051,+3051,+3051,+3051
   \              EB0B        
   \   00001C94   EB0BEB0BEB0B       DC16     +3051,+3051,+3051,+3051
   \              EB0B        
   \   00001C9C   EB0BEB0BEB0B       DC16     +3051,+3051,+3051,+3051
   \              EB0B        
   \   00001CA4   EB0BEB0BEB0B       DC16     +3051,+3051,+3051,+3051
   \              EB0B        
   \   00001CAC   EB0BEB0BEB0B       DC16     +3051,+3051,+3051,+3051
   \              EB0B        
   \   00001CB4   EB0BEB0BEB0B       DC16     +3051,+3051,+3051,+3051
   \              EB0B        
   \   00001CBC   EB0BEB0BEB0B       DC16     +3051,+3051,+3051,+3051
   \              EB0B        
   \   00001CC4   EB0BEB0BEB0B       DC16     +3051,+3051,+3051,+3051
   \              EB0B        
   \   00001CCC   EB0BEB0BEB0B       DC16     +3051,+3051,+3051,+3051
   \              EB0B        
   \   00001CD4   EB0BEB0BEB0B       DC16     +3051,+3051,+3051,+3051
   \              EB0B        
   \   00001CDC   EB0BEB0BEB0B       DC16     +3051,+3051,+3051,+3051
   \              EB0B        
   \   00001CE4   EB0BEB0BEB0B       DC16     +3051,+3051,+3051,+3051
   \              EB0B        
   \   00001CEC   EB0BEB0BEB0B       DC16     +3051,+3051,+3051,+3051
   \              EB0B        
   \   00001CF4   EB0BEB0BEB0B       DC16     +3051,+3051,+3051,+3051
   \              EB0B        
   \   00001CFC   EB0BEB0BEB0B       DC16     +3051,+3051,+3051,+3051
   \              EB0B        
   \   00001D04   EB0BEB0BEB0B       DC16     +3051,+3051,+3051,+3051
   \              EB0B        
   \   00001D0C   EB0BEB0BEB0B       DC16     +3051,+3051,+3051,+3051
   \              EB0B        
   \   00001D14   EB0BEB0BEB0B       DC16     +3051,+3051,+3051,+3051
   \              EB0B        
   \   00001D1C   EB0BEB0BEB0B       DC16     +3051,+3051,+3051,+3051
   \              EB0B        
   \   00001D24   EB0BEB0BEB0B       DC16     +3051,+3051,+3051,+3051
   \              EB0B        
   \   00001D2C   EB0BEB0BEB0B       DC16     +3051,+3051,+3051,+3051
   \              EB0B        
   \   00001D34   EB0BEB0BEB0B       DC16     +3051,+3051,+3051,+3051
   \              EB0B        
   \   00001D3C   EB0BEB0BEB0B       DC16     +3051,+3051,+3051,+3051
   \              EB0B        
   \   00001D44   EB0BEB0BEB0B       DC16     +3051,+3051,+3051,+3051
   \              EB0B        
   \   00001D4C   EB0BEB0BEB0B       DC16     +3051,+3051,+3051,+3051
   \              EB0B        
   \   00001D54   EB0BEB0BEB0B       DC16     +3051,+3051,+3051,+3051
   \              EB0B        
   \   00001D5C   EB0BEB0BEB0B       DC16     +3051,+3051,+3051,+3051
   \              EB0B        
   \   00001D64   EB0BEB0BEB0B       DC16     +3051,+3051,+3051,+3051
   \              EB0B        
   \   00001D6C   EB0BEB0BEB0B       DC16     +3051,+3051,+3051,+3051
   \              EB0B        
   \   00001D74   EB0BEB0BEB0B       DC16     +3051,+3051,+3051,+3051
   \              EB0B        
   \   00001D7C   EB0BEB0BEB0B       DC16     +3051,+3051,+3051,+3051
   \              EB0B        
   \   00001D84   EB0BEB0BEB0B       DC16     +3051,+3051,+3051,+3051
   \              EB0B        
   \   00001D8C   EB0BEB0BEB0B       DC16     +3051,+3051,+3051,+3051
   \              EB0B        
   \   00001D94   EB0BEB0BEB0B       DC16     +3051,+3051,+3051,+3051
   \              EB0B        
   \   00001D9C   EB0BEB0BEB0B       DC16     +3051,+3051,+3051,+3051
   \              EB0B        
   \   00001DA4   EB0BEB0BEB0B       DC16     +3051,+3051,+3051,+3051
   \              EB0B        
   \   00001DAC   EB0BEB0BEB0B       DC16     +3051,+3051,+3051,+3051
   \              EB0B        
   \   00001DB4   EB0BEB0BEB0B       DC16     +3051,+3051,+3051,+3051
   \              EB0B        
   \   00001DBC   EB0BEB0BEB0B       DC16     +3051,+3051,+3051,+3051
   \              EB0B        
   \   00001DC4   EB0BEB0BEB0B       DC16     +3051,+3051,+3051,+3051
   \              EB0B        
   \   00001DCC   EB0BEB0BEB0B       DC16     +3051,+3051,+3051,+3051
   \              EB0B        
   \   00001DD4   EB0BEB0BEB0B       DC16     +3051,+3051,+3051,+3051
   \              EB0B        
   \   00001DDC   EB0BEB0BEB0B       DC16     +3051,+3051,+3051,+3051
   \              EB0B        
   \   00001DE4   EB0BEB0BEB0B       DC16     +3051,+3051,+3051,+3051
   \              EB0B        
   \   00001DEC   EB0BEB0BEB0B       DC16     +3051,+3051,+3051,+3051
   \              EB0B        
   \   00001DF4   EB0BEB0BEB0B       DC16     +3051,+3051,+3051,+3051
   \              EB0B        
   \   00001DFC   EB0BEB0BEB0B       DC16     +3051,+3051,+3051,+3051
   \              EB0B        
   \   00001E04   EB0BEB0BEB0B       DC16     +3051,+3051,+3051,+3051
   \              EB0B        
   \   00001E0C   EB0BEB0BEB0B       DC16     +3051,+3051,+3051,+3051
   \              EB0B        
   \   00001E14   EB0BEB0BEB0B       DC16     +3051,+3051,+3051,+3051
   \              EB0B        
   \   00001E1C   EB0BEB0BEB0B       DC16     +3051,+3051,+3051,+3051
   \              EB0B        
   \   00001E24   EB0BEB0BEB0B       DC16     +3051,+3051,+3051,+3051
   \              EB0B        
   \   00001E2C   EB0BEB0BEB0B       DC16     +3051,+3051,+3051,+3051
   \              EB0B        
   \   00001E34   EB0BEB0BEB0B       DC16     +3051,+3051,+3051,+3051
   \              EB0B        
   \   00001E3C   EB0BEB0BEB0B       DC16     +3051,+3051,+3051,+3051
   \              EB0B        
   \   00001E44   EB0BEB0BEB0B       DC16     +3051,+3051,+3051,+3051
   \              EB0B        
   \   00001E4C   EB0BEB0BEB0B       DC16     +3051,+3051,+3051,+3051
   \              EB0B        
   \   00001E54   EB0BEB0BEB0B       DC16     +3051,+3051,+3051,+3051
   \              EB0B        
   \   00001E5C   EB0BEB0BEB0B       DC16     +3051,+3051,+3051,+3051
   \              EB0B        
   \   00001E64   EB0BEB0BEB0B       DC16     +3051,+3051,+3051,+3051
   \              EB0B        
   \   00001E6C   EB0BEB0BEB0B       DC16     +3051,+3051,+3051,+3051
   \              EB0B        
   \   00001E74   EB0BEB0BEB0B       DC16     +3051,+3051,+3051,+3051
   \              EB0B        
   \   00001E7C   EB0BEB0BEB0B       DC16     +3051,+3051,+3051,+3051
   \              EB0B        
   \   00001E84   EB0BEB0BEB0B       DC16     +3051,+3051,+3051,+3051
   \              EB0B        
   \   00001E8C   EB0BEB0BEB0B       DC16     +3051,+3051,+3051,+3051
   \              EB0B        
   \   00001E94   EB0BEB0BEB0B       DC16     +3051,+3051,+3051,+3051
   \              EB0B        
   \   00001E9C   EB0BEB0BEB0B       DC16     +3051,+3051,+3051,+3051
   \              EB0B        
   \   00001EA4   EB0BEB0BEB0B       DC16     +3051,+3051,+3051,+3051
   \              EB0B        
   \   00001EAC   EB0BEB0BEB0B       DC16     +3051,+3051,+3051,+3051
   \              EB0B        
   \   00001EB4   EB0BEB0BEB0B       DC16     +3051,+3051,+3051,+3051
   \              EB0B        
   \   00001EBC   EB0BEB0BEB0B       DC16     +3051,+3051,+3051,+3051
   \              EB0B        
   \   00001EC4   EB0BEB0BEB0B       DC16     +3051,+3051,+3051,+3051
   \              EB0B        
   \   00001ECC   EB0BEB0BEB0B       DC16     +3051,+3051,+3051,+3051
   \              EB0B        
   \   00001ED4   EB0BEB0BEB0B       DC16     +3051,+3051,+3051,+3051
   \              EB0B        
   \   00001EDC   EB0BEB0BEB0B       DC16     +3051,+3051,+3051,+3051
   \              EB0B        
   \   00001EE4   EB0BEB0BEB0B       DC16     +3051,+3051,+3051,+3051
   \              EB0B        
   \   00001EEC   EB0BEB0BEB0B       DC16     +3051,+3051,+3051,+3051
   \              EB0B        
   \   00001EF4   EB0BEB0BEB0B       DC16     +3051,+3051,+3051,+3051
   \              EB0B        
   \   00001EFC   EB0BEB0BEB0B       DC16     +3051,+3051,+3051,+3051
   \              EB0B        
   \   00001F04   EB0BEB0BEB0B       DC16     +3051,+3051,+3051,+3051
   \              EB0B        
   \   00001F0C   EB0BEB0BEB0B       DC16     +3051,+3051,+3051,+3051
   \              EB0B        
   \   00001F14   EB0BEB0BEB0B       DC16     +3051,+3051,+3051,+3051
   \              EB0B        
   \   00001F1C   EB0BEB0BEB0B       DC16     +3051,+3051,+3051,+3051
   \              EB0B        
   \   00001F24   EB0BEB0BEB0B       DC16     +3051,+3051,+3051,+3051
   \              EB0B        
   \   00001F2C   EB0BEB0BEB0B       DC16     +3051,+3051,+3051,+3051
   \              EB0B        
   \   00001F34   EB0BEB0BEB0B       DC16     +3051,+3051,+3051,+3051
   \              EB0B        
   \   00001F3C   EB0BEB0BEB0B       DC16     +3051,+3051,+3051,+3051
   \              EB0B        
   \   00001F44   EB0BEB0BEB0B       DC16     +3051,+3051,+3051,+3051
   \              EB0B        
   \   00001F4C   EB0BEB0BEB0B       DC16     +3051,+3051,+3051,+3051
   \              EB0B        
   \   00001F54   EB0BEB0BEB0B       DC16     +3051,+3051,+3051,+3051
   \              EB0B        
   \   00001F5C   EB0BEB0BEB0B       DC16     +3051,+3051,+3051,+3051
   \              EB0B        
   \   00001F64   EB0BEB0BEB0B       DC16     +3051,+3051,+3051,+3051
   \              EB0B        
   \   00001F6C   EB0BEB0BEB0B       DC16     +3051,+3051,+3051,+3051
   \              EB0B        
   \   00001F74   EB0BEB0BEB0B       DC16     +3051,+3051,+3051,+3051
   \              EB0B        
   \   00001F7C   EB0BEB0BEB0B       DC16     +3051,+3051,+3051,+3051
   \              EB0B        
   \   00001F84   EB0BEB0BEB0B       DC16     +3051,+3051,+3051,+3051
   \              EB0B        
   \   00001F8C   EB0BEB0BEB0B       DC16     +3051,+3051,+3051,+3051
   \              EB0B        
   \   00001F94   EB0BEB0BEB0B       DC16     +3051,+3051,+3051,+3051
   \              EB0B        
   \   00001F9C   EB0BEB0BEB0B       DC16     +3051,+3051,+3051,+3051
   \              EB0B        
   \   00001FA4   EB0BEB0BEB0B       DC16     +3051,+3051,+3051,+3051
   \              EB0B        
   \   00001FAC   EB0BEB0BEB0B       DC16     +3051,+3051,+3051,+3051
   \              EB0B        
   \   00001FB4   EB0BEB0BEB0B       DC16     +3051,+3051,+3051,+3051
   \              EB0B        
   \   00001FBC   EB0BEB0BEB0B       DC16     +3051,+3051,+3051,+3051
   \              EB0B        
   \   00001FC4   EB0BEB0BEB0B       DC16     +3051,+3051,+3051,+3051
   \              EB0B        
   \   00001FCC   EB0BEB0BEB0B       DC16     +3051,+3051,+3051,+3051
   \              EB0B        
   \   00001FD4   EB0BEB0BEB0B       DC16     +3051,+3051,+3051,+3051
   \              EB0B        
   \   00001FDC   EB0BEB0BEB0B       DC16     +3051,+3051,+3051,+3051
   \              EB0B        
   \   00001FE4   EB0BEB0BEB0B       DC16     +3051,+3051,+3051,+3051
   \              EB0B        
   \   00001FEC   EB0BEB0BEB0B       DC16     +3051,+3051,+3051,+3051
   \              EB0B        
   \   00001FF4   EB0BEB0BEB0B       DC16     +3051,+3051,+3051,+3051
   \              EB0B        
   \   00001FFC   EB0BEB0BEB0B       DC16     +3051,+3051,+3051,+3051
   \              EB0B        
   \   00002004   EB0BEB0BEB0B       DC16     +3051,+3051,+3051,+3051
   \              EB0B        
   \   0000200C   EB0BEB0BEB0B       DC16     +3051,+3051,+3051,+3051
   \              EB0B        
   \   00002014   EB0BEB0BEB0B       DC16     +3051,+3051,+3051,+3051
   \              EB0B        
   \   0000201C   EB0BEB0BEB0B       DC16     +3051,+3051,+3051,+3051
   \              EB0B        
   \   00002024   EB0BEB0BEB0B       DC16     +3051,+3051,+3051,+3051
   \              EB0B        
   \   0000202C   EB0BEB0BEB0B       DC16     +3051,+3051,+3051,+3051
   \              EB0B        
   \   00002034   EB0BEB0BEB0B       DC16     +3051,+3051,+3051,+3051
   \              EB0B        
   \   0000203C   EB0BEB0BEB0B       DC16     +3051,+3051,+3051,+3051
   \              EB0B        
   \   00002044   EB0BEB0BEB0B       DC16     +3051,+3051,+3051,+3051
   \              EB0B        
   \   0000204C   EB0BEB0BEB0B       DC16     +3051,+3051,+3051,+3051
   \              EB0B        
   \   00002054   EB0BEB0BEB0B       DC16     +3051,+3051,+3051,+3051
   \              EB0B        
   \   0000205C   EB0BEB0BEB0B       DC16     +3051,+3051,+3051,+3051
   \              EB0B        
   \   00002064   EB0BEB0BEB0B       DC16     +3051,+3051,+3051,+3051
   \              EB0B        
   \   0000206C   EB0BEB0BEB0B       DC16     +3051,+3051,+3051,+3051
   \              EB0B        
   \   00002074   EB0BEB0BEB0B       DC16     +3051,+3051,+3051,+3051
   \              EB0B        
   \   0000207C   EB0BEB0BEB0B       DC16     +3051,+3051,+3051,+3051
   \              EB0B        
   \   00002084   EB0BEB0BEB0B       DC16     +3051,+3051,+3051,+3051
   \              EB0B        
   \   0000208C   EB0BEB0BEB0B       DC16     +3051,+3051,+3051,+3051
   \              EB0B        
   \   00002094   EB0BEB0BEB0B       DC16     +3051,+3051,+3051,+3051
   \              EB0B        
   \   0000209C   EB0BEB0BEB0B       DC16     +3051,+3051,+3051,+3051
   \              EB0B        
   \   000020A4   EB0BEB0BEB0B       DC16     +3051,+3051,+3051,+3051
   \              EB0B        
   \   000020AC   EB0BEB0BEB0B       DC16     +3051,+3051,+3051,+3051
   \              EB0B        
   \   000020B4   EB0BEB0BEB0B       DC16     +3051,+3051,+3051,+3051
   \              EB0B        
   \   000020BC   EB0BEB0BEB0B       DC16     +3051,+3051,+3051,+3051
   \              EB0B        
   \   000020C4   EB0BEB0BEB0B       DC16     +3051,+3051,+3051,+3051
   \              EB0B        
   \   000020CC   EB0BEB0BEB0B       DC16     +3051,+3051,+3051,+3051
   \              EB0B        
   \   000020D4   EB0BEB0BEB0B       DC16     +3051,+3051,+3051,+3051
   \              EB0B        
   \   000020DC   EB0BEB0BEB0B       DC16     +3051,+3051,+3051,+3051
   \              EB0B        
   \   000020E4   EB0BEB0BEB0B       DC16     +3051,+3051,+3051,+3051
   \              EB0B        
   \   000020EC   EB0BEB0BEB0B       DC16     +3051,+3051,+3051,+3051
   \              EB0B        
   \   000020F4   EB0BEB0BEB0B       DC16     +3051,+3051,+3051,+3051
   \              EB0B        
   \   000020FC   EB0BEB0BEB0B       DC16     +3051,+3051,+3051,+3051
   \              EB0B        
   \   00002104   EB0BEB0BEB0B       DC16     +3051,+3051,+3051,+3051
   \              EB0B        
   \   0000210C   EB0BEB0BEB0B       DC16     +3051,+3051,+3051,+3051
   \              EB0B        
   \   00002114   EB0BEB0BEB0B       DC16     +3051,+3051,+3051,+3051
   \              EB0B        
   \   0000211C   EB0BEB0BEB0B       DC16     +3051,+3051,+3051,+3051
   \              EB0B        
   \   00002124   EB0BEB0BEB0B       DC16     +3051,+3051,+3051,+3051
   \              EB0B        
   \   0000212C   EB0BEB0BEB0B       DC16     +3051,+3051,+3051,+3051
   \              EB0B        
   \   00002134   EB0BEB0BEB0B       DC16     +3051,+3051,+3051,+3051
   \              EB0B        
   \   0000213C   EB0BEB0BEB0B       DC16     +3051,+3051,+3051,+3051
   \              EB0B        
   \   00002144   EB0BEB0BEB0B       DC16     +3051,+3051,+3051,+3051
   \              EB0B        
   \   0000214C   EB0BEB0BEB0B       DC16     +3051,+3051,+3051,+3051
   \              EB0B        
   \   00002154   EB0BEB0BEB0B       DC16     +3051,+3051,+3051,+3051
   \              EB0B        
   \   0000215C   EB0BEB0BEB0B       DC16     +3051,+3051,+3051,+3051
   \              EB0B        
   \   00002164   EB0BEB0BEB0B       DC16     +3051,+3051,+3051,+3051
   \              EB0B        
   \   0000216C   EB0BEB0BEB0B       DC16     +3051,+3051,+3051,+3051
   \              EB0B        
   \   00002174   EB0BEB0BEB0B       DC16     +3051,+3051,+3051,+3051
   \              EB0B        
   \   0000217C   EB0BEB0BEB0B       DC16     +3051,+3051,+3051,+3051
   \              EB0B        
   \   00002184   EB0BEB0BEB0B       DC16     +3051,+3051,+3051,+3051
   \              EB0B        
   \   0000218C   EB0BEB0BEB0B       DC16     +3051,+3051,+3051,+3051
   \              EB0B        
   \   00002194   EB0BEB0BEB0B       DC16     +3051,+3051,+3051,+3051
   \              EB0B        
   \   0000219C   EB0BEB0BEB0B       DC16     +3051,+3051,+3051,+3051
   \              EB0B        
   \   000021A4   EB0BEB0BEB0B       DC16     +3051,+3051,+3051,+3051
   \              EB0B        
   \   000021AC   EB0BEB0BEB0B       DC16     +3051,+3051,+3051,+3051
   \              EB0B        
   \   000021B4   EB0BEB0BEB0B       DC16     +3051,+3051,+3051,+3051
   \              EB0B        
   \   000021BC   EB0BEB0BEB0B       DC16     +3051,+3051,+3051,+3051
   \              EB0B        
   \   000021C4   EB0BEB0BEB0B       DC16     +3051,+3051,+3051,+3051
   \              EB0B        
   \   000021CC   EB0BEB0BEB0B       DC16     +3051,+3051,+3051,+3051
   \              EB0B        
   \   000021D4   EB0BEB0BEB0B       DC16     +3051,+3051,+3051,+3051
   \              EB0B        
   \   000021DC   EB0BEB0BEB0B       DC16     +3051,+3051,+3051,+3051
   \              EB0B        
   \   000021E4   EB0BEB0BEB0B       DC16     +3051,+3051,+3051,+3051
   \              EB0B        
   \   000021EC   EB0BEB0BEB0B       DC16     +3051,+3051,+3051,+3051
   \              EB0B        
   \   000021F4   EB0BEB0BEB0B       DC16     +3051,+3051,+3051,+3051
   \              EB0B        
   \   000021FC   EB0BEB0BEB0B       DC16     +3051,+3051,+3051,+3051
   \              EB0B        
   \   00002204   EB0BEB0BEB0B       DC16     +3051,+3051,+3051,+3051
   \              EB0B        
   \   0000220C   EB0BEB0BEB0B       DC16     +3051,+3051,+3051,+3051
   \              EB0B        
   \   00002214   EB0BEB0BEB0B       DC16     +3051,+3051,+3051,+3051
   \              EB0B        
   \   0000221C   EB0BEB0BEB0B       DC16     +3051,+3051,+3051,+3051
   \              EB0B        
   \   00002224   EB0BEB0BEB0B       DC16     +3051,+3051,+3051,+3051
   \              EB0B        
   \   0000222C   EB0BEB0BEB0B       DC16     +3051,+3051,+3051,+3051
   \              EB0B        
   \   00002234   EB0BEB0BEB0B       DC16     +3051,+3051,+3051,+3051
   \              EB0B        
   \   0000223C   EB0BEB0BEB0B       DC16     +3051,+3051,+3051,+3051
   \              EB0B        
   \   00002244   EB0BEB0BEB0B       DC16     +3051,+3051,+3051,+3051
   \              EB0B        
   \   0000224C   EB0BEB0BEB0B       DC16     +3051,+3051,+3051,+3051
   \              EB0B        
   \   00002254   EB0BEB0BEB0B       DC16     +3051,+3051,+3051,+3051
   \              EB0B        
   \   0000225C   EB0BEB0BEB0B       DC16     +3051,+3051,+3051,+3051
   \              EB0B        
   \   00002264   EB0BEB0BEB0B       DC16     +3051,+3051,+3051,+3051
   \              EB0B        
   \   0000226C   EB0BEB0BEB0B       DC16     +3051,+3051,+3051,+3051
   \              EB0B        
   \   00002274   EB0BEB0BEB0B       DC16     +3051,+3051,+3051,+3051
   \              EB0B        
   \   0000227C   EB0BEB0BEB0B       DC16     +3051,+3051,+3051,+3051
   \              EB0B        
   \   00002284   EB0BEB0BEB0B       DC16     +3051,+3051,+3051,+3051
   \              EB0B        
   \   0000228C   EB0BEB0BEB0B       DC16     +3051,+3051,+3051,+3051
   \              EB0B        
   \   00002294   EB0BEB0BEB0B       DC16     +3051,+3051,+3051,+3051
   \              EB0B        
   \   0000229C   EB0BEB0BEB0B       DC16     +3051,+3051,+3051,+3051
   \              EB0B        
   \   000022A4   EB0BEB0BEB0B       DC16     +3051,+3051,+3051,+3051
   \              EB0B        
   \   000022AC   EB0BEB0BEB0B       DC16     +3051,+3051,+3051,+3051
   \              EB0B        
   \   000022B4   EB0BEB0BEB0B       DC16     +3051,+3051,+3051,+3051
   \              EB0B        
   \   000022BC   EB0BEB0BEB0B       DC16     +3051,+3051,+3051,+3051
   \              EB0B        
   \   000022C4   EB0BEB0BEB0B       DC16     +3051,+3051,+3051,+3051
   \              EB0B        
   \   000022CC   EB0BEB0BEB0B       DC16     +3051,+3051,+3051,+3051
   \              EB0B        
   \   000022D4   EB0BEB0BEB0B       DC16     +3051,+3051,+3051,+3051
   \              EB0B        
   \   000022DC   EB0BEB0BEB0B       DC16     +3051,+3051,+3051,+3051
   \              EB0B        
   \   000022E4   EB0BEB0BEB0B       DC16     +3051,+3051,+3051,+3051
   \              EB0B        
   \   000022EC   EB0BEB0BEB0B       DC16     +3051,+3051,+3051,+3051
   \              EB0B        
   \   000022F4   EB0BEB0BEB0B       DC16     +3051,+3051,+3051,+3051
   \              EB0B        
   \   000022FC   EB0BEB0BEB0B       DC16     +3051,+3051,+3051,+3051
   \              EB0B        
   \   00002304   EB0BEB0BEB0B       DC16     +3051,+3051,+3051,+3051
   \              EB0B        
   \   0000230C   EB0BEB0BEB0B       DC16     +3051,+3051,+3051,+3051
   \              EB0B        
   \   00002314   EB0BEB0BEB0B       DC16     +3051,+3051,+3051,+3051
   \              EB0B        
   \   0000231C   EB0BEB0BEB0B       DC16     +3051,+3051,+3051,+3051
   \              EB0B        
   \   00002324   EB0BEB0BEB0B       DC16     +3051,+3051,+3051,+3051
   \              EB0B        
   \   0000232C   EB0BEB0BEB0B       DC16     +3051,+3051,+3051,+3051
   \              EB0B        
   \   00002334   EB0BEB0BEB0B       DC16     +3051,+3051,+3051,+3051
   \              EB0B        
   \   0000233C   EB0BEB0BEB0B       DC16     +3051,+3051,+3051,+3051
   \              EB0B        
   \   00002344   EB0BEB0BEB0B       DC16     +3051,+3051,+3051,+3051
   \              EB0B        
   \   0000234C   EB0BEB0BEB0B       DC16     +3051,+3051,+3051,+3051
   \              EB0B        
   \   00002354   EB0BEB0BEB0B       DC16     +3051,+3051,+3051,+3051
   \              EB0B        
   \   0000235C   EB0BEB0BEB0B       DC16     +3051,+3051,+3051,+3051
   \              EB0B        
   \   00002364   EB0BEB0BEB0B       DC16     +3051,+3051,+3051,+3051
   \              EB0B        
   \   0000236C   EB0BEB0BEB0B       DC16     +3051,+3051,+3051,+3051
   \              EB0B        
   \   00002374   EB0BEB0BEB0B       DC16     +3051,+3051,+3051,+3051
   \              EB0B        
   \   0000237C   EB0BEB0BEB0B       DC16     +3051,+3051,+3051,+3051
   \              EB0B        
   \   00002384   EB0BEB0BEB0B       DC16     +3051,+3051,+3051,+3051
   \              EB0B        
   \   0000238C   EB0BEB0BEB0B       DC16     +3051,+3051,+3051,+3051
   \              EB0B        
   \   00002394   EB0BEB0BEB0B       DC16     +3051,+3051,+3051,+3051
   \              EB0B        
   \   0000239C   EB0BEB0BEB0B       DC16     +3051,+3051,+3051,+3051
   \              EB0B        
   \   000023A4   EB0BEB0BEB0B       DC16     +3051,+3051,+3051,+3051
   \              EB0B        
   \   000023AC   EB0BEB0BEB0B       DC16     +3051,+3051,+3051,+3051
   \              EB0B        
   \   000023B4   EB0BEB0BEB0B       DC16     +3051,+3051,+3051,+3051
   \              EB0B        
   \   000023BC   EB0BEB0BEB0B       DC16     +3051,+3051,+3051,+3051
   \              EB0B        
   \   000023C4   EB0BEB0BEB0B       DC16     +3051,+3051,+3051,+3051
   \              EB0B        
   \   000023CC   EB0BEB0BEB0B       DC16     +3051,+3051,+3051,+3051
   \              EB0B        
   \   000023D4   EB0BEB0BEB0B       DC16     +3051,+3051,+3051,+3051
   \              EB0B        
   \   000023DC   EB0BEB0BEB0B       DC16     +3051,+3051,+3051,+3051
   \              EB0B        
   \   000023E4   EB0BEB0BEB0B       DC16     +3051,+3051,+3051,+3051
   \              EB0B        
   \   000023EC   EB0BEB0BEB0B       DC16     +3051,+3051,+3051,+3051
   \              EB0B        
   \   000023F4   EB0BEB0BEB0B       DC16     +3051,+3051,+3051,+3051
   \              EB0B        
   \   000023FC   EB0BEB0BEB0B       DC16     +3051,+3051,+3051,+3051
   \              EB0B        
   \   00002404   EB0BEB0BEB0B       DC16     +3051,+3051,+3051,+3051
   \              EB0B        
   \   0000240C   EB0BEB0BEB0B       DC16     +3051,+3051,+3051,+3051
   \              EB0B        
   \   00002414   EB0BEB0BEB0B       DC16     +3051,+3051,+3051,+3051
   \              EB0B        
   \   0000241C   EB0BEB0BEB0B       DC16     +3051,+3051,+3051,+3051
   \              EB0B        
   \   00002424   EB0BEB0BEB0B       DC16     +3051,+3051,+3051,+3051
   \              EB0B        
   \   0000242C   EB0BEB0BEB0B       DC16     +3051,+3051,+3051,+3051
   \              EB0B        
   \   00002434   EB0BEB0BEB0B       DC16     +3051,+3051,+3051,+3051
   \              EB0B        
   \   0000243C   EB0BEB0BEB0B       DC16     +3051,+3051,+3051,+3051
   \              EB0B        
   \   00002444   EB0BEB0BEB0B       DC16     +3051,+3051,+3051,+3051
   \              EB0B        
   \   0000244C   EB0BEB0BEB0B       DC16     +3051,+3051,+3051,+3051
   \              EB0B        
   \   00002454   EB0BEB0BEB0B       DC16     +3051,+3051,+3051,+3051
   \              EB0B        
   \   0000245C   EB0BEB0BEB0B       DC16     +3051,+3051,+3051,+3051
   \              EB0B        
   \   00002464   EB0BEB0BEB0B       DC16     +3051,+3051,+3051,+3051
   \              EB0B        
   \   0000246C   EB0BEB0BEB0B       DC16     +3051,+3051,+3051,+3051
   \              EB0B        
   \   00002474   EB0BEB0BEB0B       DC16     +3051,+3051,+3051,+3051
   \              EB0B        
   \   0000247C   EB0BEB0BEB0B       DC16     +3051,+3051,+3051,+3051
   \              EB0B        
   \   00002484   EB0BEB0BEB0B       DC16     +3051,+3051,+3051,+3051
   \              EB0B        
   \   0000248C   EB0BEB0BEB0B       DC16     +3051,+3051,+3051,+3051
   \              EB0B        
   \   00002494   EB0BEB0BEB0B       DC16     +3051,+3051,+3051,+3051
   \              EB0B        
   \   0000249C   EB0BEB0BEB0B       DC16     +3051,+3051,+3051,+3051
   \              EB0B        
   \   000024A4   EB0BEB0BEB0B       DC16     +3051,+3051,+3051,+3051
   \              EB0B        
   \   000024AC   EB0BEB0BEB0B       DC16     +3051,+3051,+3051,+3051
   \              EB0B        
   \   000024B4   EB0BEB0BEB0B       DC16     +3051,+3051,+3051,+3051
   \              EB0B        
   \   000024BC   EB0BEB0BEB0B       DC16     +3051,+3051,+3051,+3051
   \              EB0B        
   \   000024C4   EB0BEB0BEB0B       DC16     +3051,+3051,+3051,+3051
   \              EB0B        
   \   000024CC   EB0BEB0BEB0B       DC16     +3051,+3051,+3051,+3051
   \              EB0B        
   \   000024D4   EB0BEB0BEB0B       DC16     +3051,+3051,+3051,+3051
   \              EB0B        
   \   000024DC   EB0BEB0BEB0B       DC16     +3051,+3051,+3051,+3051
   \              EB0B        
   \   000024E4   EB0BEB0BEB0B       DC16     +3051,+3051,+3051,+3051
   \              EB0B        
   \   000024EC   EB0BEB0BEB0B       DC16     +3051,+3051,+3051,+3051
   \              EB0B        
   \   000024F4   EB0BEB0BEB0B       DC16     +3051,+3051,+3051,+3051
   \              EB0B        
   \   000024FC   EB0BEB0BEB0B       DC16     +3051,+3051,+3051,+3051
   \              EB0B        
   \   00002504   EB0BEB0BEB0B       DC16     +3051,+3051,+3051,+3051
   \              EB0B        
   \   0000250C   EB0BEB0BEB0B       DC16     +3051,+3051,+3051,+3051
   \              EB0B        
   \   00002514   EB0BEB0BEB0B       DC16     +3051,+3051,+3051,+3051
   \              EB0B        
   \   0000251C   EB0BEB0BEB0B       DC16     +3051,+3051,+3051,+3051
   \              EB0B        
   \   00002524   EB0BEB0BEB0B       DC16     +3051,+3051,+3051,+3051
   \              EB0B        
   \   0000252C   EB0BEB0BEB0B       DC16     +3051,+3051,+3051,+3051
   \              EB0B        
   \   00002534   EB0BEB0BEB0B       DC16     +3051,+3051,+3051,+3051
   \              EB0B        
   \   0000253C   EB0BEB0BEB0B       DC16     +3051,+3051,+3051,+3051
   \              EB0B        
   \   00002544   EB0BEB0BEB0B       DC16     +3051,+3051,+3051,+3051
   \              EB0B        
   \   0000254C   EB0BEB0BEB0B       DC16     +3051,+3051,+3051,+3051
   \              EB0B        
   \   00002554   EB0BEB0BEB0B       DC16     +3051,+3051,+3051,+3051
   \              EB0B        
   \   0000255C   EB0BEB0BEB0B       DC16     +3051,+3051,+3051,+3051
   \              EB0B        
   \   00002564   EB0BEB0BEB0B       DC16     +3051,+3051,+3051,+3051
   \              EB0B        
   \   0000256C   EB0BEB0BEB0B       DC16     +3051,+3051,+3051,+3051
   \              EB0B        
   \   00002574   EB0BEB0BEB0B       DC16     +3051,+3051,+3051,+3051
   \              EB0B        
   \   0000257C   EB0BEB0BEB0B       DC16     +3051,+3051,+3051,+3051
   \              EB0B        
   \   00002584   EB0BEB0BEB0B       DC16     +3051,+3051,+3051,+3051
   \              EB0B        
   \   0000258C   EB0BEB0BEB0B       DC16     +3051,+3051,+3051,+3051
   \              EB0B        
   \   00002594   EB0BEB0BEB0B       DC16     +3051,+3051,+3051,+3051
   \              EB0B        
   \   0000259C   EB0BEB0BEB0B       DC16     +3051,+3051,+3051,+3051
   \              EB0B        
   \   000025A4   EB0BEB0BEB0B       DC16     +3051,+3051,+3051,+3051
   \              EB0B        
   \   000025AC   EB0BEB0BEB0B       DC16     +3051,+3051,+3051,+3051
   \              EB0B        
   \   000025B4   EB0BEB0BEB0B       DC16     +3051,+3051,+3051,+3051
   \              EB0B        
   \   000025BC   EB0BEB0BEB0B       DC16     +3051,+3051,+3051,+3051
   \              EB0B        
   \   000025C4   EB0BEB0BEB0B       DC16     +3051,+3051,+3051,+3051
   \              EB0B        
   \   000025CC   EB0BEB0BEB0B       DC16     +3051,+3051,+3051,+3051
   \              EB0B        
   \   000025D4   EB0BEB0BEB0B       DC16     +3051,+3051,+3051,+3051
   \              EB0B        
   \   000025DC   EB0BEB0BEB0B       DC16     +3051,+3051,+3051,+3051
   \              EB0B        
   \   000025E4   EB0BEB0BEB0B       DC16     +3051,+3051,+3051,+3051
   \              EB0B        
   \   000025EC   EB0BEB0BEB0B       DC16     +3051,+3051,+3051,+3051
   \              EB0B        
   \   000025F4   EB0BEB0BEB0B       DC16     +3051,+3051,+3051,+3051
   \              EB0B        
   \   000025FC   EB0BEB0BEB0B       DC16     +3051,+3051,+3051,+3051
   \              EB0B        
   \   00002604   EB0BEB0BEB0B       DC16     +3051,+3051,+3051,+3051
   \              EB0B        
   \   0000260C   EB0BEB0BEB0B       DC16     +3051,+3051,+3051,+3051
   \              EB0B        
   \   00002614   EB0BEB0BEB0B       DC16     +3051,+3051,+3051,+3051
   \              EB0B        
   \   0000261C   EB0BEB0BEB0B       DC16     +3051,+3051,+3051,+3051
   \              EB0B        
   \   00002624   EB0BEB0BEB0B       DC16     +3051,+3051,+3051,+3051
   \              EB0B        
   \   0000262C   EB0BEB0BEB0B       DC16     +3051,+3051,+3051,+3051
   \              EB0B        
   \   00002634   EB0BEB0BEB0B       DC16     +3051,+3051,+3051,+3051
   \              EB0B        
   \   0000263C   EB0BEB0BEB0B       DC16     +3051,+3051,+3051,+3051
   \              EB0B        
   \   00002644   EB0BEB0BEB0B       DC16     +3051,+3051,+3051,+3051
   \              EB0B        
   \   0000264C   EB0BEB0BEB0B       DC16     +3051,+3051,+3051,+3051
   \              EB0B        
   \   00002654   EB0BEB0BEB0B       DC16     +3051,+3051,+3051,+3051
   \              EB0B        
   \   0000265C   EB0BEB0BEB0B       DC16     +3051,+3051,+3051,+3051
   \              EB0B        
   \   00002664   EB0BEB0BEB0B       DC16     +3051,+3051,+3051,+3051
   \              EB0B        
   \   0000266C   EB0BEB0BEB0B       DC16     +3051,+3051,+3051,+3051
   \              EB0B        
   \   00002674   EB0BEB0BEB0B       DC16     +3051,+3051,+3051,+3051
   \              EB0B        
   \   0000267C   EB0BEB0BEB0B       DC16     +3051,+3051,+3051,+3051
   \              EB0B        
   \   00002684   EB0BEB0BEB0B       DC16     +3051,+3051,+3051,+3051
   \              EB0B        
   \   0000268C   EB0BEB0BEB0B       DC16     +3051,+3051,+3051,+3051
   \              EB0B        
   \   00002694   EB0BEB0BEB0B       DC16     +3051,+3051,+3051,+3051
   \              EB0B        
   \   0000269C   EB0BEB0BEB0B       DC16     +3051,+3051,+3051,+3051
   \              EB0B        
   \   000026A4   EB0BEB0BEB0B       DC16     +3051,+3051,+3051,+3051
   \              EB0B        
   \   000026AC   EB0BEB0BEB0B       DC16     +3051,+3051,+3051,+3051
   \              EB0B        
   \   000026B4   EB0BEB0BEB0B       DC16     +3051,+3051,+3051,+3051
   \              EB0B        
   \   000026BC   EB0BEB0BEB0B       DC16     +3051,+3051,+3051,+3051
   \              EB0B        
   \   000026C4   EB0BEB0BEB0B       DC16     +3051,+3051,+3051,+3051
   \              EB0B        
   \   000026CC   EB0BEB0BEB0B       DC16     +3051,+3051,+3051,+3051
   \              EB0B        
   \   000026D4   EB0BEB0BEB0B       DC16     +3051,+3051,+3051,+3051
   \              EB0B        
   \   000026DC   EB0BEB0BEB0B       DC16     +3051,+3051,+3051,+3051
   \              EB0B        
   \   000026E4   EB0BEB0BEB0B       DC16     +3051,+3051,+3051,+3051
   \              EB0B        
   \   000026EC   EB0BEB0BEB0B       DC16     +3051,+3051,+3051,+3051
   \              EB0B        
   \   000026F4   EB0BEB0BEB0B       DC16     +3051,+3051,+3051,+3051
   \              EB0B        
   \   000026FC   EB0BEB0BEB0B       DC16     +3051,+3051,+3051,+3051
   \              EB0B        
   \   00002704   EB0BEB0BEB0B       DC16     +3051,+3051,+3051,+3051
   \              EB0B        
   \   0000270C   EB0BEB0BEB0B       DC16     +3051,+3051,+3051,+3051
   \              EB0B        
   \   00002714   EB0BEB0BEB0B       DC16     +3051,+3051,+3051,+3051
   \              EB0B        
   \   0000271C   EB0BEB0BEB0B       DC16     +3051,+3051,+3051,+3051
   \              EB0B        
   \   00002724   EB0BEB0BEB0B       DC16     +3051,+3051,+3051,+3051
   \              EB0B        
   \   0000272C   EB0BEB0BEB0B       DC16     +3051,+3051,+3051,+3051
   \              EB0B        
   \   00002734   EB0BEB0BEB0B       DC16     +3051,+3051,+3051,+3051
   \              EB0B        
   \   0000273C   EB0BEB0BEB0B       DC16     +3051,+3051,+3051,+3051
   \              EB0B        
   \   00002744   EB0BEB0BEB0B       DC16     +3051,+3051,+3051,+3051
   \              EB0B        
   \   0000274C   EB0BEB0BEB0B       DC16     +3051,+3051,+3051,+3051
   \              EB0B        
   \   00002754   EB0BEB0BEB0B       DC16     +3051,+3051,+3051,+3051
   \              EB0B        
   \   0000275C   EB0BEB0BEB0B       DC16     +3051,+3051,+3051,+3051
   \              EB0B        
   \   00002764   EB0BEB0BEB0B       DC16     +3051,+3051,+3051,+3051
   \              EB0B        
   \   0000276C   EB0BEB0BEB0B       DC16     +3051,+3051,+3051,+3051
   \              EB0B        
   \   00002774   EB0BEB0BEB0B       DC16     +3051,+3051,+3051,+3051
   \              EB0B        
   \   0000277C   EB0BEB0BEB0B       DC16     +3051,+3051,+3051,+3051
   \              EB0B        
   \   00002784   EB0BEB0BEB0B       DC16     +3051,+3051,+3051,+3051
   \              EB0B        
   \   0000278C   EB0BEB0BEB0B       DC16     +3051,+3051,+3051,+3051
   \              EB0B        
   \   00002794   EB0BEB0BEB0B       DC16     +3051,+3051,+3051,+3051
   \              EB0B        
   \   0000279C   EB0BEB0BEB0B       DC16     +3051,+3051,+3051,+3051
   \              EB0B        
   \   000027A4   EB0BEB0BEB0B       DC16     +3051,+3051,+3051,+3051
   \              EB0B        
   \   000027AC   EB0BEB0BEB0B       DC16     +3051,+3051,+3051,+3051
   \              EB0B        
   \   000027B4   EB0BEB0BEB0B       DC16     +3051,+3051,+3051,+3051
   \              EB0B        
   \   000027BC   EB0BEB0BEB0B       DC16     +3051,+3051,+3051,+3051
   \              EB0B        
   \   000027C4   EB0BEB0BEB0B       DC16     +3051,+3051,+3051,+3051
   \              EB0B        
   \   000027CC   EB0BEB0BEB0B       DC16     +3051,+3051,+3051,+3051
   \              EB0B        
   \   000027D4   EB0BEB0BEB0B       DC16     +3051,+3051,+3051,+3051
   \              EB0B        
   \   000027DC   EB0BEB0BEB0B       DC16     +3051,+3051,+3051,+3051
   \              EB0B        
   \   000027E4   EB0BEB0BEB0B       DC16     +3051,+3051,+3051,+3051
   \              EB0B        
   \   000027EC   EB0BEB0BEB0B       DC16     +3051,+3051,+3051,+3051
   \              EB0B        
   \   000027F4   EB0BEB0BEB0B       DC16     +3051,+3051,+3051,+3051
   \              EB0B        
   \   000027FC   EB0BEB0BEB0B       DC16     +3051,+3051,+3051,+3051
   \              EB0B        
   \   00002804   EB0BEB0BEB0B       DC16     +3051,+3051,+3051,+3051
   \              EB0B        
   \   0000280C   EB0BEB0BEB0B       DC16     +3051,+3051,+3051,+3051
   \              EB0B        
   \   00002814   EB0BEB0BEB0B       DC16     +3051,+3051,+3051,+3051
   \              EB0B        
   \   0000281C   EB0BEB0BEB0B       DC16     +3051,+3051,+3051,+3051
   \              EB0B        
   \   00002824   EB0BEB0BEB0B       DC16     +3051,+3051,+3051,+3051
   \              EB0B        
   \   0000282C   EB0BEB0BEB0B       DC16     +3051,+3051,+3051,+3051
   \              EB0B        
   \   00002834   EB0BEB0BEB0B       DC16     +3051,+3051,+3051,+3051
   \              EB0B        
   \   0000283C   EB0BEB0BEB0B       DC16     +3051,+3051,+3051,+3051
   \              EB0B        
   \   00002844   EB0BEB0BEB0B       DC16     +3051,+3051,+3051,+3051
   \              EB0B        
   \   0000284C   EB0BEB0BEB0B       DC16     +3051,+3051,+3051,+3051
   \              EB0B        
   \   00002854   EB0BEB0BEB0B       DC16     +3051,+3051,+3051,+3051
   \              EB0B        
   \   0000285C   EB0BEB0BEB0B       DC16     +3051,+3051,+3051,+3051
   \              EB0B        
   \   00002864   EB0BEB0BEB0B       DC16     +3051,+3051,+3051,+3051
   \              EB0B        
   \   0000286C   EB0BEB0BEB0B       DC16     +3051,+3051,+3051,+3051
   \              EB0B        
   \   00002874   EB0BEB0BEB0B       DC16     +3051,+3051,+3051,+3051
   \              EB0B        
   \   0000287C   EB0BEB0BEB0B       DC16     +3051,+3051,+3051,+3051
   \              EB0B        
   \   00002884   EB0BEB0BEB0B       DC16     +3051,+3051,+3051,+3051
   \              EB0B        
   \   0000288C   EB0BEB0BEB0B       DC16     +3051,+3051,+3051,+3051
   \              EB0B        
   \   00002894   EB0BEB0BEB0B       DC16     +3051,+3051,+3051,+3051
   \              EB0B        
   \   0000289C   EB0BEB0BEB0B       DC16     +3051,+3051,+3051,+3051
   \              EB0B        
   \   000028A4   EB0BEB0BEB0B       DC16     +3051,+3051,+3051,+3051
   \              EB0B        
   \   000028AC   EB0BEB0BEB0B       DC16     +3051,+3051,+3051,+3051
   \              EB0B        
   \   000028B4   EB0BEB0BEB0B       DC16     +3051,+3051,+3051,+3051
   \              EB0B        
   \   000028BC   EB0BEB0BEB0B       DC16     +3051,+3051,+3051,+3051
   \              EB0B        
   \   000028C4   EB0BEB0BEB0B       DC16     +3051,+3051,+3051,+3051
   \              EB0B        
   \   000028CC   EB0BEB0BEB0B       DC16     +3051,+3051,+3051,+3051
   \              EB0B        
   \   000028D4   EB0BEB0BEB0B       DC16     +3051,+3051,+3051,+3051
   \              EB0B        
   \   000028DC   EB0BEB0BEB0B       DC16     +3051,+3051,+3051,+3051
   \              EB0B        
   \   000028E4   EB0BEB0BEB0B       DC16     +3051,+3051,+3051,+3051
   \              EB0B        
   \   000028EC   EB0BEB0BEB0B       DC16     +3051,+3051,+3051,+3051
   \              EB0B        
   \   000028F4   EB0BEB0BEB0B       DC16     +3051,+3051,+3051,+3051
   \              EB0B        
   \   000028FC   EB0BEB0BEB0B       DC16     +3051,+3051,+3051,+3051
   \              EB0B        
   \   00002904   EB0BEB0BEB0B       DC16     +3051,+3051,+3051,+3051
   \              EB0B        
   \   0000290C   EB0BEB0BEB0B       DC16     +3051,+3051,+3051,+3051
   \              EB0B        
   \   00002914   EB0BEB0BEB0B       DC16     +3051,+3051,+3051,+3051
   \              EB0B        
   \   0000291C   EB0BEB0BEB0B       DC16     +3051,+3051,+3051,+3051
   \              EB0B        
   \   00002924   EB0BEB0BEB0B       DC16     +3051,+3051,+3051,+3051
   \              EB0B        
   \   0000292C   EB0BEB0BEB0B       DC16     +3051,+3051,+3051,+3051
   \              EB0B        
   \   00002934   EB0BEB0BEB0B       DC16     +3051,+3051,+3051,+3051
   \              EB0B        
   \   0000293C   EB0BEB0BEB0B       DC16     +3051,+3051,+3051,+3051
   \              EB0B        
   \   00002944   EB0BEB0BEB0B       DC16     +3051,+3051,+3051,+3051
   \              EB0B        
   \   0000294C   EB0BEB0BEB0B       DC16     +3051,+3051,+3051,+3051
   \              EB0B        
   \   00002954   EB0BEB0BEB0B       DC16     +3051,+3051,+3051,+3051
   \              EB0B        
   \   0000295C   EB0BEB0BEB0B       DC16     +3051,+3051,+3051,+3051
   \              EB0B        
   \   00002964   EB0BEB0BEB0B       DC16     +3051,+3051,+3051,+3051
   \              EB0B        
   \   0000296C   EB0BEB0BEB0B       DC16     +3051,+3051,+3051,+3051
   \              EB0B        
   \   00002974   EB0BEB0BEB0B       DC16     +3051,+3051,+3051,+3051
   \              EB0B        
   \   0000297C   EB0BEB0BEB0B       DC16     +3051,+3051,+3051,+3051
   \              EB0B        
   \   00002984   EB0BEB0BEB0B       DC16     +3051,+3051,+3051,+3051
   \              EB0B        
   \   0000298C   EB0BEB0BEB0B       DC16     +3051,+3051,+3051,+3051
   \              EB0B        
   \   00002994   EB0BEB0BEB0B       DC16     +3051,+3051,+3051,+3051
   \              EB0B        
   \   0000299C   EB0BEB0BEB0B       DC16     +3051,+3051,+3051,+3051
   \              EB0B        
   \   000029A4   EB0BEB0BEB0B       DC16     +3051,+3051,+3051,+3051
   \              EB0B        
   \   000029AC   EB0BEB0BEB0B       DC16     +3051,+3051,+3051,+3051
   \              EB0B        
   \   000029B4   EB0BEB0BEB0B       DC16     +3051,+3051,+3051,+3051
   \              EB0B        
   \   000029BC   EB0BEB0BEB0B       DC16     +3051,+3051,+3051,+3051
   \              EB0B        
   \   000029C4   EB0BEB0BEB0B       DC16     +3051,+3051,+3051,+3051
   \              EB0B        
   \   000029CC   EB0BEB0BEB0B       DC16     +3051,+3051,+3051,+3051
   \              EB0B        
   \   000029D4   EB0BEB0BEB0B       DC16     +3051,+3051,+3051,+3051
   \              EB0B        
   \   000029DC   EB0BEB0BEB0B       DC16     +3051,+3051,+3051,+3051
   \              EB0B        
   \   000029E4   EB0BEB0BEB0B       DC16     +3051,+3051,+3051,+3051
   \              EB0B        
   \   000029EC   EB0BEB0BEB0B       DC16     +3051,+3051,+3051,+3051
   \              EB0B        
   \   000029F4   EB0BEB0BEB0B       DC16     +3051,+3051,+3051,+3051
   \              EB0B        
   \   000029FC   EB0BEB0BEB0B       DC16     +3051,+3051,+3051,+3051
   \              EB0B        
   \   00002A04   EB0BEB0BEB0B       DC16     +3051,+3051,+3051,+3051
   \              EB0B        
   \   00002A0C   EB0BEB0BEB0B       DC16     +3051,+3051,+3051,+3051
   \              EB0B        
   \   00002A14   EB0BEB0BEB0B       DC16     +3051,+3051,+3051,+3051
   \              EB0B        
   \   00002A1C   EB0BEB0BEB0B       DC16     +3051,+3051,+3051,+3051
   \              EB0B        
   \   00002A24   EB0BEB0BEB0B       DC16     +3051,+3051,+3051,+3051
   \              EB0B        
   \   00002A2C   EB0BEB0BEB0B       DC16     +3051,+3051,+3051,+3051
   \              EB0B        
   \   00002A34   EB0BEB0BEB0B       DC16     +3051,+3051,+3051,+3051
   \              EB0B        
   \   00002A3C   EB0BEB0BEB0B       DC16     +3051,+3051,+3051,+3051
   \              EB0B        
   \   00002A44   EB0BEB0BEB0B       DC16     +3051,+3051,+3051,+3051
   \              EB0B        
   \   00002A4C   EB0BEB0BEB0B       DC16     +3051,+3051,+3051,+3051
   \              EB0B        
   \   00002A54   EB0BEB0BEB0B       DC16     +3051,+3051,+3051,+3051
   \              EB0B        
   \   00002A5C   EB0BEB0BEB0B       DC16     +3051,+3051,+3051,+3051
   \              EB0B        
   \   00002A64   EB0BEB0BEB0B       DC16     +3051,+3051,+3051,+3051
   \              EB0B        
   \   00002A6C   EB0BEB0BEB0B       DC16     +3051,+3051,+3051,+3051
   \              EB0B        
   \   00002A74   EB0BEB0BEB0B       DC16     +3051,+3051,+3051,+3051
   \              EB0B        
   \   00002A7C   EB0BEB0BEB0B       DC16     +3051,+3051,+3051,+3051
   \              EB0B        
   \   00002A84   EB0BEB0BEB0B       DC16     +3051,+3051,+3051,+3051
   \              EB0B        
   \   00002A8C   EB0BEB0BEB0B       DC16     +3051,+3051,+3051,+3051
   \              EB0B        
   \   00002A94   EB0BEB0BEB0B       DC16     +3051,+3051,+3051,+3051
   \              EB0B        
   \   00002A9C   EB0BEB0BEB0B       DC16     +3051,+3051,+3051,+3051
   \              EB0B        
   \   00002AA4   EB0BEB0BEB0B       DC16     +3051,+3051,+3051,+3051
   \              EB0B        
   \   00002AAC   EB0BEB0BEB0B       DC16     +3051,+3051,+3051,+3051
   \              EB0B        
   \   00002AB4   EB0BEB0BEB0B       DC16     +3051,+3051,+3051,+3051
   \              EB0B        
   \   00002ABC   EB0BEB0BEB0B       DC16     +3051,+3051,+3051,+3051
   \              EB0B        
   \   00002AC4   EB0BEB0BEB0B       DC16     +3051,+3051,+3051,+3051
   \              EB0B        
   \   00002ACC   EB0BEB0BEB0B       DC16     +3051,+3051,+3051,+3051
   \              EB0B        
   \   00002AD4   EB0BEB0BEB0B       DC16     +3051,+3051,+3051,+3051
   \              EB0B        
   \   00002ADC   EB0BEB0BEB0B       DC16     +3051,+3051,+3051,+3051
   \              EB0B        
   \   00002AE4   EB0BEB0BEB0B       DC16     +3051,+3051,+3051,+3051
   \              EB0B        
   \   00002AEC   EB0BEB0BEB0B       DC16     +3051,+3051,+3051,+3051
   \              EB0B        
   \   00002AF4   EB0BEB0BEB0B       DC16     +3051,+3051,+3051,+3051
   \              EB0B        
   \   00002AFC   EB0BEB0BEB0B       DC16     +3051,+3051,+3051,+3051
   \              EB0B        
   \   00002B04   EB0BEB0BEB0B       DC16     +3051,+3051,+3051,+3051
   \              EB0B        
   \   00002B0C   EB0BEB0BEB0B       DC16     +3051,+3051,+3051,+3051
   \              EB0B        
   \   00002B14   EB0BEB0BEB0B       DC16     +3051,+3051,+3051,+3051
   \              EB0B        
   \   00002B1C   EB0BEB0BEB0B       DC16     +3051,+3051,+3051,+3051
   \              EB0B        
   \   00002B24   EB0BEB0BEB0B       DC16     +3051,+3051,+3051,+3051
   \              EB0B        
   \   00002B2C   EB0BEB0BEB0B       DC16     +3051,+3051,+3051,+3051
   \              EB0B        
   \   00002B34   EB0BEB0BEB0B       DC16     +3051,+3051,+3051,+3051
   \              EB0B        
   \   00002B3C   EB0BEB0BEB0B       DC16     +3051,+3051,+3051,+3051
   \              EB0B        
   \   00002B44   EB0BEB0BEB0B       DC16     +3051,+3051,+3051,+3051
   \              EB0B        
   \   00002B4C   EB0BEB0BEB0B       DC16     +3051,+3051,+3051,+3051
   \              EB0B        
   \   00002B54   EB0BEB0BEB0B       DC16     +3051,+3051,+3051,+3051
   \              EB0B        
   \   00002B5C   EB0BEB0BEB0B       DC16     +3051,+3051,+3051,+3051
   \              EB0B        
   \   00002B64   EB0BEB0BEB0B       DC16     +3051,+3051,+3051,+3051
   \              EB0B        
   \   00002B6C   EB0BEB0BEB0B       DC16     +3051,+3051,+3051,+3051
   \              EB0B        
   \   00002B74   EB0BEB0BEB0B       DC16     +3051,+3051,+3051,+3051
   \              EB0B        
   \   00002B7C   EB0BEB0BEB0B       DC16     +3051,+3051,+3051,+3051
   \              EB0B        
   \   00002B84   EB0BEB0BEB0B       DC16     +3051,+3051,+3051,+3051
   \              EB0B        
   \   00002B8C   EB0BEB0BEB0B       DC16     +3051,+3051,+3051,+3051
   \              EB0B        
   \   00002B94   EB0BEB0BEB0B       DC16     +3051,+3051,+3051,+3051
   \              EB0B        
   \   00002B9C   EB0BEB0BEB0B       DC16     +3051,+3051,+3051,+3051
   \              EB0B        
   \   00002BA4   EB0BEB0BEB0B       DC16     +3051,+3051,+3051,+3051
   \              EB0B        
   \   00002BAC   EB0BEB0BEB0B       DC16     +3051,+3051,+3051,+3051
   \              EB0B        
   \   00002BB4   EB0BEB0BEB0B       DC16     +3051,+3051,+3051,+3051
   \              EB0B        
   \   00002BBC   EB0BEB0BEB0B       DC16     +3051,+3051,+3051,+3051
   \              EB0B        
   \   00002BC4   EB0BEB0BEB0B       DC16     +3051,+3051,+3051,+3051
   \              EB0B        
   \   00002BCC   EB0BEB0BEB0B       DC16     +3051,+3051,+3051,+3051
   \              EB0B        
   \   00002BD4   EB0BEB0BEB0B       DC16     +3051,+3051,+3051,+3051
   \              EB0B        
   \   00002BDC   EB0BEB0BEB0B       DC16     +3051,+3051,+3051,+3051
   \              EB0B        
   \   00002BE4   EB0BEB0BEB0B       DC16     +3051,+3051,+3051,+3051
   \              EB0B        
   \   00002BEC   EB0BEB0BEB0B       DC16     +3051,+3051,+3051,+3051
   \              EB0B        
   \   00002BF4   EB0BEB0BEB0B       DC16     +3051,+3051,+3051,+3051
   \              EB0B        
   \   00002BFC   EB0BEB0BEB0B       DC16     +3051,+3051,+3051,+3051
   \              EB0B        
   \   00002C04   EB0BEB0BEB0B       DC16     +3051,+3051,+3051,+3051
   \              EB0B        
   \   00002C0C   EB0BEB0BEB0B       DC16     +3051,+3051,+3051,+3051
   \              EB0B        
   \   00002C14   EB0BEB0BEB0B       DC16     +3051,+3051,+3051,+3051
   \              EB0B        
   \   00002C1C   EB0BEB0BEB0B       DC16     +3051,+3051,+3051,+3051
   \              EB0B        
   \   00002C24   EB0BEB0BEB0B       DC16     +3051,+3051,+3051,+3051
   \              EB0B        
   \   00002C2C   EB0BEB0BEB0B       DC16     +3051,+3051,+3051,+3051
   \              EB0B        
   \   00002C34   EB0BEB0BEB0B       DC16     +3051,+3051,+3051,+3051
   \              EB0B        
   \   00002C3C   EB0BEB0BEB0B       DC16     +3051,+3051,+3051,+3051
   \              EB0B        
   \   00002C44   EB0BEB0BEB0B       DC16     +3051,+3051,+3051,+3051
   \              EB0B        
   \   00002C4C   EB0BEB0BEB0B       DC16     +3051,+3051,+3051,+3051
   \              EB0B        
   \   00002C54   EB0BEB0BEB0B       DC16     +3051,+3051,+3051,+3051
   \              EB0B        
   \   00002C5C   EB0BEB0BEB0B       DC16     +3051,+3051,+3051,+3051
   \              EB0B        
   \   00002C64   EB0BEB0BEB0B       DC16     +3051,+3051,+3051,+3051
   \              EB0B        
   \   00002C6C   EB0BEB0BEB0B       DC16     +3051,+3051,+3051,+3051
   \              EB0B        
   \   00002C74   EB0BEB0BEB0B       DC16     +3051,+3051,+3051,+3051
   \              EB0B        
   \   00002C7C   EB0BEB0BEB0B       DC16     +3051,+3051,+3051,+3051
   \              EB0B        
   \   00002C84   EB0BEB0BEB0B       DC16     +3051,+3051,+3051,+3051
   \              EB0B        
   \   00002C8C   EB0BEB0BEB0B       DC16     +3051,+3051,+3051,+3051
   \              EB0B        
   \   00002C94   EB0BEB0BEB0B       DC16     +3051,+3051,+3051,+3051
   \              EB0B        
   \   00002C9C   EB0BEB0BEB0B       DC16     +3051,+3051,+3051,+3051
   \              EB0B        
   \   00002CA4   EB0BEB0BEB0B       DC16     +3051,+3051,+3051,+3051
   \              EB0B        
   \   00002CAC   EB0BEB0BEB0B       DC16     +3051,+3051,+3051,+3051
   \              EB0B        
   \   00002CB4   EB0BEB0BEB0B       DC16     +3051,+3051,+3051,+3051
   \              EB0B        
   \   00002CBC   EB0BEB0BEB0B       DC16     +3051,+3051,+3051,+3051
   \              EB0B        
   \   00002CC4   EB0BEB0BEB0B       DC16     +3051,+3051,+3051,+3051
   \              EB0B        
   \   00002CCC   EB0BEB0BEB0B       DC16     +3051,+3051,+3051,+3051
   \              EB0B        
   \   00002CD4   EB0BEB0BEB0B       DC16     +3051,+3051,+3051,+3051
   \              EB0B        
   \   00002CDC   EB0BEB0BEB0B       DC16     +3051,+3051,+3051,+3051
   \              EB0B        
   \   00002CE4   EB0BEB0BEB0B       DC16     +3051,+3051,+3051,+3051
   \              EB0B        
   \   00002CEC   EB0BEB0BEB0B       DC16     +3051,+3051,+3051,+3051
   \              EB0B        
   \   00002CF4   EB0BEB0BEB0B       DC16     +3051,+3051,+3051,+3051
   \              EB0B        
   \   00002CFC   EB0BEB0BEB0B       DC16     +3051,+3051,+3051,+3051
   \              EB0B        
   \   00002D04   EB0BEB0BEB0B       DC16     +3051,+3051,+3051,+3051
   \              EB0B        
   \   00002D0C   EB0BEB0BEB0B       DC16     +3051,+3051,+3051,+3051
   \              EB0B        
   \   00002D14   EB0BEB0BEB0B       DC16     +3051,+3051,+3051,+3051
   \              EB0B        
   \   00002D1C   EB0BEB0BEB0B       DC16     +3051,+3051,+3051,+3051
   \              EB0B        
   \   00002D24   EB0BEB0BEB0B       DC16     +3051,+3051,+3051,+3051
   \              EB0B        
   \   00002D2C   EB0BEB0BEB0B       DC16     +3051,+3051,+3051,+3051
   \              EB0B        
   \   00002D34   EB0BEB0BEB0B       DC16     +3051,+3051,+3051,+3051
   \              EB0B        
   \   00002D3C   EB0BEB0BEB0B       DC16     +3051,+3051,+3051,+3051
   \              EB0B        
   \   00002D44   EB0BEB0BEB0B       DC16     +3051,+3051,+3051,+3051
   \              EB0B        
   \   00002D4C   EB0BEB0BEB0B       DC16     +3051,+3051,+3051,+3051
   \              EB0B        
   \   00002D54   EB0BEB0BEB0B       DC16     +3051,+3051,+3051,+3051
   \              EB0B        
   \   00002D5C   EB0BEB0BEB0B       DC16     +3051,+3051,+3051,+3051
   \              EB0B        
   \   00002D64   EB0BEB0BEB0B       DC16     +3051,+3051,+3051,+3051
   \              EB0B        
   \   00002D6C   EB0BEB0BEB0B       DC16     +3051,+3051,+3051,+3051
   \              EB0B        
   \   00002D74   EB0BEB0BEB0B       DC16     +3051,+3051,+3051,+3051
   \              EB0B        
   \   00002D7C   EB0BEB0BEB0B       DC16     +3051,+3051,+3051,+3051
   \              EB0B        
   \   00002D84   EB0BEB0BEB0B       DC16     +3051,+3051,+3051,+3051
   \              EB0B        
   \   00002D8C   EB0BEB0BEB0B       DC16     +3051,+3051,+3051,+3051
   \              EB0B        
   \   00002D94   EB0BEB0BEB0B       DC16     +3051,+3051,+3051,+3051
   \              EB0B        
   \   00002D9C   EB0BEB0BEB0B       DC16     +3051,+3051,+3051,+3051
   \              EB0B        
   \   00002DA4   EB0BEB0BEB0B       DC16     +3051,+3051,+3051,+3051
   \              EB0B        
   \   00002DAC   EB0BEB0BEB0B       DC16     +3051,+3051,+3051,+3051
   \              EB0B        
   \   00002DB4   EB0BEB0BEB0B       DC16     +3051,+3051,+3051,+3051
   \              EB0B        
   \   00002DBC   EB0BEB0BEB0B       DC16     +3051,+3051,+3051,+3051
   \              EB0B        
   \   00002DC4   EB0BEB0BEB0B       DC16     +3051,+3051,+3051,+3051
   \              EB0B        
   \   00002DCC   EB0BEB0BEB0B       DC16     +3051,+3051,+3051,+3051
   \              EB0B        
   \   00002DD4   EB0BEB0BEB0B       DC16     +3051,+3051,+3051,+3051
   \              EB0B        
   \   00002DDC   EB0BEB0BEB0B       DC16     +3051,+3051,+3051,+3051
   \              EB0B        
   \   00002DE4   EB0BEB0BEB0B       DC16     +3051,+3051,+3051,+3051
   \              EB0B        
   \   00002DEC   EB0BEB0BEB0B       DC16     +3051,+3051,+3051,+3051
   \              EB0B        
   \   00002DF4   EB0BEB0BEB0B       DC16     +3051,+3051,+3051,+3051
   \              EB0B        
   \   00002DFC   EB0BEB0BEB0B       DC16     +3051,+3051,+3051,+3051
   \              EB0B        
   \   00002E04   EB0BEB0BEB0B       DC16     +3051,+3051,+3051,+3051
   \              EB0B        
   \   00002E0C   EB0BEB0BEB0B       DC16     +3051,+3051,+3051,+3051
   \              EB0B        
   \   00002E14   EB0BEB0BEB0B       DC16     +3051,+3051,+3051,+3051
   \              EB0B        
   \   00002E1C   EB0BEB0BEB0B       DC16     +3051,+3051,+3051,+3051
   \              EB0B        
   \   00002E24   EB0BEB0BEB0B       DC16     +3051,+3051,+3051,+3051
   \              EB0B        
   \   00002E2C   EB0BEB0BEB0B       DC16     +3051,+3051,+3051,+3051
   \              EB0B        
   \   00002E34   EB0BEB0BEB0B       DC16     +3051,+3051,+3051,+3051
   \              EB0B        
   \   00002E3C   EB0BEB0BEB0B       DC16     +3051,+3051,+3051,+3051
   \              EB0B        
   \   00002E44   EB0BEB0BEB0B       DC16     +3051,+3051,+3051,+3051
   \              EB0B        
   \   00002E4C   EB0BEB0BEB0B       DC16     +3051,+3051,+3051,+3051
   \              EB0B        
   \   00002E54   EB0BEB0BEB0B       DC16     +3051,+3051,+3051,+3051
   \              EB0B        
   \   00002E5C   EB0BEB0BEB0B       DC16     +3051,+3051,+3051,+3051
   \              EB0B        
   \   00002E64   EB0BEB0BEB0B       DC16     +3051,+3051,+3051,+3051
   \              EB0B        
   \   00002E6C   EB0BEB0BEB0B       DC16     +3051,+3051,+3051,+3051
   \              EB0B        
   \   00002E74   EB0BEB0BEB0B       DC16     +3051,+3051,+3051,+3051
   \              EB0B        
   \   00002E7C   EB0BEB0BEB0B       DC16     +3051,+3051,+3051,+3051
   \              EB0B        
   \   00002E84   EB0BEB0BEB0B       DC16     +3051,+3051,+3051,+3051
   \              EB0B        
   \   00002E8C   EB0BEB0BEB0B       DC16     +3051,+3051,+3051,+3051
   \              EB0B        
   \   00002E94   EB0BEB0BEB0B       DC16     +3051,+3051,+3051,+3051
   \              EB0B        
   \   00002E9C   EB0BEB0BEB0B       DC16     +3051,+3051,+3051,+3051
   \              EB0B        
   \   00002EA4   EB0BEB0BEB0B       DC16     +3051,+3051,+3051,+3051
   \              EB0B        
   \   00002EAC   EB0BEB0BEB0B       DC16     +3051,+3051,+3051,+3051
   \              EB0B        
   \   00002EB4   EB0BEB0BEB0B       DC16     +3051,+3051,+3051,+3051
   \              EB0B        
   \   00002EBC   EB0BEB0BEB0B       DC16     +3051,+3051,+3051,+3051
   \              EB0B        
   \   00002EC4   EB0BEB0BEB0B       DC16     +3051,+3051,+3051,+3051
   \              EB0B        
   \   00002ECC   EB0BEB0BEB0B       DC16     +3051,+3051,+3051,+3051
   \              EB0B        
   \   00002ED4   EB0BEB0BEB0B       DC16     +3051,+3051,+3051,+3051
   \              EB0B        
   \   00002EDC   EB0BEB0BEB0B       DC16     +3051,+3051,+3051,+3051
   \              EB0B        
   \   00002EE4   EB0BEB0BEB0B       DC16     +3051,+3051,+3051,+3051
   \              EB0B        
   \   00002EEC   EB0BEB0BEB0B       DC16     +3051,+3051,+3051,+3051
   \              EB0B        
   \   00002EF4   EB0BEB0BEB0B       DC16     +3051,+3051,+3051,+3051
   \              EB0B        
   \   00002EFC   EB0BEB0BEB0B       DC16     +3051,+3051,+3051,+3051
   \              EB0B        
   \   00002F04   EB0BEB0BEB0B       DC16     +3051,+3051,+3051,+3051
   \              EB0B        
   \   00002F0C   EB0BEB0BEB0B       DC16     +3051,+3051,+3051,+3051
   \              EB0B        
   \   00002F14   EB0BEB0BEB0B       DC16     +3051,+3051,+3051,+3051
   \              EB0B        
   \   00002F1C   EB0BEB0BEB0B       DC16     +3051,+3051,+3051,+3051
   \              EB0B        
   \   00002F24   EB0BEB0BEB0B       DC16     +3051,+3051,+3051,+3051
   \              EB0B        
   \   00002F2C   EB0BEB0BEB0B       DC16     +3051,+3051,+3051,+3051
   \              EB0B        
   \   00002F34   EB0BEB0BEB0B       DC16     +3051,+3051,+3051,+3051
   \              EB0B        
   \   00002F3C   EB0BEB0BEB0B       DC16     +3051,+3051,+3051,+3051
   \              EB0B        
   \   00002F44   EB0BEB0BEB0B       DC16     +3051,+3051,+3051,+3051
   \              EB0B        
   \   00002F4C   EB0BEB0BEB0B       DC16     +3051,+3051,+3051,+3051
   \              EB0B        
   \   00002F54   EB0BEB0BEB0B       DC16     +3051,+3051,+3051,+3051
   \              EB0B        
   \   00002F5C   EB0BEB0BEB0B       DC16     +3051,+3051,+3051,+3051
   \              EB0B        
   \   00002F64   EB0BEB0BEB0B       DC16     +3051,+3051,+3051,+3051
   \              EB0B        
   \   00002F6C   EB0BEB0BEB0B       DC16     +3051,+3051,+3051,+3051
   \              EB0B        
   \   00002F74   EB0BEB0BEB0B       DC16     +3051,+3051,+3051,+3051
   \              EB0B        
   \   00002F7C   EB0BEB0BEB0B       DC16     +3051,+3051,+3051,+3051
   \              EB0B        
   \   00002F84   EB0BEB0BEB0B       DC16     +3051,+3051,+3051,+3051
   \              EB0B        
   \   00002F8C   EB0BEB0BEB0B       DC16     +3051,+3051,+3051,+3051
   \              EB0B        
   \   00002F94   EB0BEB0BEB0B       DC16     +3051,+3051,+3051,+3051
   \              EB0B        
   \   00002F9C   EB0BEB0BEB0B       DC16     +3051,+3051,+3051,+3051
   \              EB0B        
   \   00002FA4   EB0BEB0BEB0B       DC16     +3051,+3051,+3051,+3051
   \              EB0B        
   \   00002FAC   EB0BEB0BEB0B       DC16     +3051,+3051,+3051,+3051
   \              EB0B        
   \   00002FB4   EB0BEB0BEB0B       DC16     +3051,+3051,+3051,+3051
   \              EB0B        
   \   00002FBC   EB0BEB0BEB0B       DC16     +3051,+3051,+3051,+3051
   \              EB0B        
   \   00002FC4   EB0BEB0BEB0B       DC16     +3051,+3051,+3051,+3051
   \              EB0B        
   \   00002FCC   EB0BEB0BEB0B       DC16     +3051,+3051,+3051,+3051
   \              EB0B        
   \   00002FD4   EB0BEB0BEB0B       DC16     +3051,+3051,+3051,+3051
   \              EB0B        
   \   00002FDC   EB0BEB0BEB0B       DC16     +3051,+3051,+3051,+3051
   \              EB0B        
   \   00002FE4   EB0BEB0BEB0B       DC16     +3051,+3051,+3051,+3051
   \              EB0B        
   \   00002FEC   EB0BEB0BEB0B       DC16     +3051,+3051,+3051,+3051
   \              EB0B        
   \   00002FF4   EB0BEB0BEB0B       DC16     +3051,+3051,+3051,+3051
   \              EB0B        
   \   00002FFC   EB0BEB0BEB0B       DC16     +3051,+3051,+3051,+3051
   \              EB0B        
   \   00003004   EB0BEB0BEB0B       DC16     +3051,+3051,+3051,+3051
   \              EB0B        
   \   0000300C   EB0BEB0BEB0B       DC16     +3051,+3051,+3051,+3051
   \              EB0B        
   \   00003014   EB0BEB0BEB0B       DC16     +3051,+3051,+3051,+3051
   \              EB0B        
   \   0000301C   EB0BEB0BEB0B       DC16     +3051,+3051,+3051,+3051
   \              EB0B        
   \   00003024   EB0BEB0BEB0B       DC16     +3051,+3051,+3051,+3051
   \              EB0B        
   \   0000302C   EB0BEB0BEB0B       DC16     +3051,+3051,+3051,+3051
   \              EB0B        
   \   00003034   EB0BEB0BEB0B       DC16     +3051,+3051,+3051,+3051
   \              EB0B        
   \   0000303C   EB0BEB0BEB0B       DC16     +3051,+3051,+3051,+3051
   \              EB0B        
   \   00003044   EB0B3B0C4A0C       DC16     +3051,+3131,+3146,+3051
   \              EB0B        
   \   0000304C   EB0BEB0BEB0B       DC16     +3051,+3051,+3051,+3051
   \              EB0B        
   \   00003054   EB0BEB0BEB0B       DC16     +3051,+3051,+3051,+3051
   \              EB0B        
   \   0000305C   EB0BEB0BEB0B       DC16     +3051,+3051,+3051,+3051
   \              EB0B        
   \   00003064   EB0BEB0BEB0B       DC16     +3051,+3051,+3051,+3051
   \              EB0B        
   \   0000306C   6B0C6D0C6F0C       DC16     +3179,+3181,+3183,+3185
   \              710C        
   \   00003074   730CEB0B750C       DC16     +3187,+3051,+3189,+3051
   \              EB0B        
   \   0000307C   EB0BEB0BEB0B       DC16     +3051,+3051,+3051,+3051
   \              EB0B        
   \   00003084   EB0B770CEB0B       DC16     +3051,+3191,+3051,+3051
   \              EB0B        
   \   0000308C   EB0BEB0BEB0B       DC16     +3051,+3051,+3051,+3051
   \              EB0B        
   \   00003094   EB0BEB0BEB0B       DC16     +3051,+3051,+3051,+3051
   \              EB0B        
   \   0000309C   EB0BEB0BEB0B       DC16     +3051,+3051,+3051,+3051
   \              EB0B        
   \   000030A4   EB0BEB0BEB0B       DC16     +3051,+3051,+3051,+3051
   \              EB0B        
   \   000030AC   EB0BEB0BEB0B       DC16     +3051,+3051,+3051,+3051
   \              EB0B        
   \   000030B4   EB0BEB0BEB0B       DC16     +3051,+3051,+3051,+3051
   \              EB0B        
   \   000030BC   EB0BEB0BEB0B       DC16     +3051,+3051,+3051,+3051
   \              EB0B        
   \   000030C4   EB0BEB0BEB0B       DC16     +3051,+3051,+3051,+3051
   \              EB0B        
   \   000030CC   EB0BEB0BEB0B       DC16     +3051,+3051,+3051,+3051
   \              EB0B        
   \   000030D4   EB0BEB0BEB0B       DC16     +3051,+3051,+3051,+3051
   \              EB0B        
   \   000030DC   EB0BEB0BEB0B       DC16     +3051,+3051,+3051,+3051
   \              EB0B        
   \   000030E4   EB0BEB0BEB0B       DC16     +3051,+3051,+3051,+3051
   \              EB0B        
   \   000030EC   EB0BEB0BEB0B       DC16     +3051,+3051,+3051,+3051
   \              EB0B        
   \   000030F4   EB0BEB0BEB0B       DC16     +3051,+3051,+3051,+3051
   \              EB0B        
   \   000030FC   EB0BEB0BEB0B       DC16     +3051,+3051,+3051,+3051
   \              EB0B        
   \   00003104   EB0BEB0BEB0B       DC16     +3051,+3051,+3051,+3051
   \              EB0B        
   \   0000310C   EB0BEB0B570C       DC16     +3051,+3051,+3159,+3169
   \              610C        
    291                      default:
    292                          RestoreSettingsWarning((AnsiString)"TDU setting:\nThe keyword " + InputKeyWord + " is not allowed here!! Line:" + (AnsiString)SettingsString->LineCount + NewLineStr);
   \                     ??RestoreSettings_8:
   \   00003114   1C1094E5           LDR      R1,[R4, #+28]
   \   00003118   550F8DE2           ADD      R0,SP,#+340
   \   0000311C   ........           _BLF     ??AnsiString_1,??AnsiString??rA_1
   \   00003120   00B0A0E1           MOV      R11,R0
   \   00003124   2C1088E2           ADD      R1,R8,#+44
   \   00003128   4E0F8DE2           ADD      R0,SP,#+312
   \   0000312C   ........           _BLF     ??AnsiString_2,??AnsiString??rA_2
   \   00003130   3C208DE2           ADD      R2,SP,#+60
   \   00003134   0010A0E1           MOV      R1,R0
   \   00003138   470F8DE2           ADD      R0,SP,#+284
   \   0000313C   ........           _BLF     `??operator+`,`??operator+??rA`
   \   00003140   0020A0E3           MOV      R2,#+0
   \   00003144   0010A0E3           MOV      R1,#+0
   \   00003148   04008DE2           ADD      R0,SP,#+4
   \   0000314C   ........           _BLF     ??_Tidy,??_Tidy??rA
   \   00003150   0930A0E1           MOV      R3,R9
   \   00003154   0020A0E3           MOV      R2,#+0
   \   00003158   471F8DE2           ADD      R1,SP,#+284
   \   0000315C   04008DE2           ADD      R0,SP,#+4
   \   00003160   ........           _BLF     ??assign,??assign??rA
   \   00003164   480088E2           ADD      R0,R8,#+72
   \   00003168   ........           _BLF     strlen,??strlen??rA
   \   0000316C   0020A0E1           MOV      R2,R0
   \   00003170   481088E2           ADD      R1,R8,#+72
   \   00003174   04008DE2           ADD      R0,SP,#+4
   \   00003178   ........           _BLF     ??append_1,??append??rA_1
   \   0000317C   0080A0E1           MOV      R8,R0
   \   00003180   0020A0E3           MOV      R2,#+0
   \   00003184   0210A0E1           MOV      R1,R2
   \   00003188   58008DE2           ADD      R0,SP,#+88
   \   0000318C   ........           _BLF     ??_Tidy,??_Tidy??rA
   \   00003190   0930A0E1           MOV      R3,R9
   \   00003194   0020A0E3           MOV      R2,#+0
   \   00003198   0810A0E1           MOV      R1,R8
   \   0000319C   58008DE2           ADD      R0,SP,#+88
   \   000031A0   ........           _BLF     ??assign,??assign??rA
   \   000031A4   0020A0E3           MOV      R2,#+0
   \   000031A8   0110A0E3           MOV      R1,#+1
   \   000031AC   04008DE2           ADD      R0,SP,#+4
   \   000031B0   ........           _BLF     ??_Tidy,??_Tidy??rA
   \   000031B4   0B20A0E1           MOV      R2,R11
   \   000031B8   58108DE2           ADD      R1,SP,#+88
   \   000031BC   400F8DE2           ADD      R0,SP,#+256
   \   000031C0   ........           _BLF     `??operator+`,`??operator+??rA`
   \   000031C4   0720A0E1           MOV      R2,R7
   \   000031C8   401F8DE2           ADD      R1,SP,#+256
   \   000031CC   E4008DE2           ADD      R0,SP,#+228
   \   000031D0   ........           _BLF     `??operator+`,`??operator+??rA`
   \   000031D4   E4108DE2           ADD      R1,SP,#+228
   \   000031D8   C8008DE2           ADD      R0,SP,#+200
   \   000031DC   ........           _BLF     ??AnsiString_3,??AnsiString??rA_3
   \   000031E0   ........           _BLF     ??RestoreSettingsWarning,??RestoreSettingsWarning??rA
   \   000031E4   0020A0E3           MOV      R2,#+0
   \   000031E8   0110A0E3           MOV      R1,#+1
   \   000031EC   C8008DE2           ADD      R0,SP,#+200
   \   000031F0   ........           _BLF     ??_Tidy,??_Tidy??rA
   \   000031F4   0020A0E3           MOV      R2,#+0
   \   000031F8   0110A0E3           MOV      R1,#+1
   \   000031FC   E4008DE2           ADD      R0,SP,#+228
   \   00003200   ........           _BLF     ??_Tidy,??_Tidy??rA
   \   00003204   0020A0E3           MOV      R2,#+0
   \   00003208   0110A0E3           MOV      R1,#+1
   \   0000320C   400F8DE2           ADD      R0,SP,#+256
   \   00003210   ........           _BLF     ??_Tidy,??_Tidy??rA
   \   00003214   0020A0E3           MOV      R2,#+0
   \   00003218   0110A0E3           MOV      R1,#+1
   \   0000321C   550F8DE2           ADD      R0,SP,#+340
   \   00003220   ........           _BLF     ??_Tidy,??_Tidy??rA
   \   00003224   0020A0E3           MOV      R2,#+0
   \   00003228   0110A0E3           MOV      R1,#+1
   \   0000322C   58008DE2           ADD      R0,SP,#+88
   \   00003230   ........           _BLF     ??_Tidy,??_Tidy??rA
   \   00003234   0020A0E3           MOV      R2,#+0
   \   00003238   0110A0E3           MOV      R1,#+1
   \   0000323C   470F8DE2           ADD      R0,SP,#+284
   \   00003240   ........           _BLF     ??_Tidy,??_Tidy??rA
   \   00003244   0020A0E3           MOV      R2,#+0
   \   00003248   0110A0E3           MOV      R1,#+1
   \   0000324C   4E0F8DE2           ADD      R0,SP,#+312
   \   00003250   A2F3FFEA           B        ??RestoreSettings_6
    293                          break;
    294                      case C_AI_END:      // If AI type not found can continue with this
    295                      case C_AL_END:
    296                      case C_PRO_END:
    297                      case C_PRO_END_COMMON:
    298                      case C_PRO_END_PRO:
    299                          break;
    300                      case C_TDU_CURRENT_WIN:
    301                          {
    302                              int tmpCurrentWinID = SettingsString->ReadLong(ErrorLine);
   \                     ??RestoreSettings_10:
   \   00003254   0020A0E3           MOV      R2,#+0
   \   00003258   0D10A0E1           MOV      R1,SP
   \   0000325C   0400A0E1           MOV      R0,R4
   \   00003260   ........           _BLF     ??ReadLong,??ReadLong??rA
    303                              NoError = !ErrorLine;
   \   00003264   00109DE5           LDR      R1,[SP, #+0]
   \   00003268   000051E3           CMP      R1,#+0
   \   0000326C   0160A003           MOVEQ    R6,#+1
   \   00003270   0060A013           MOVNE    R6,#+0
    304                              if (tmpCurrentWinID != TDU_WARNING_WIN  ) {
   \   00003274   9C10A0E3           MOV      R1,#+156
   \   00003278   801E81E3           ORR      R1,R1,#0x800
   \   0000327C   010050E1           CMP      R0,R1
   \   00003280   4A00000A           BEQ      ??RestoreSettings_5
    305                                  CurrentWinID = tmpCurrentWinID;
   \   00003284   ........           LDR      R1,??DataTable17  ;; CurrentWinID
   \   00003288   000081E5           STR      R0,[R1, #+0]
   \   0000328C   470000EA           B        ??RestoreSettings_5
    306                              }
    307                          }
    308                          break;
    309                      case C_TDU_CURRENT_SYSWIN:
    310                          CurrentSysWin = SettingsString->ReadLong(ErrorLine);
   \                     ??RestoreSettings_11:
   \   00003290   0020A0E3           MOV      R2,#+0
   \   00003294   0D10A0E1           MOV      R1,SP
   \   00003298   0400A0E1           MOV      R0,R4
   \   0000329C   ........           _BLF     ??ReadLong,??ReadLong??rA
   \   000032A0   70119DE5           LDR      R1,[SP, #+368]
   \   000032A4   6C0081E5           STR      R0,[R1, #+108]
    311                          NoError = !ErrorLine;
   \   000032A8   00009DE5           LDR      R0,[SP, #+0]
   \   000032AC   000050E3           CMP      R0,#+0
   \   000032B0   0100001A           BNE      ??RestoreSettings_12
   \                     ??RestoreSettings_13:
   \   000032B4   0160A0E3           MOV      R6,#+1
   \   000032B8   3C0000EA           B        ??RestoreSettings_5
   \                     ??RestoreSettings_12:
   \   000032BC   0060A0E3           MOV      R6,#+0
   \   000032C0   3A0000EA           B        ??RestoreSettings_5
    312                          break;
    313                      case C_TDU_BACK_COLOR:
    314                          BackColor = SettingsString->ReadLong(ErrorLine);
   \                     ??RestoreSettings_14:
   \   000032C4   0020A0E3           MOV      R2,#+0
   \   000032C8   0D10A0E1           MOV      R1,SP
   \   000032CC   0400A0E1           MOV      R0,R4
   \   000032D0   ........           _BLF     ??ReadLong,??ReadLong??rA
   \   000032D4   ........           LDR      R1,??DataTable18  ;; BackColor
   \   000032D8   000081E5           STR      R0,[R1, #+0]
    315                          NoError = !ErrorLine;
   \   000032DC   00009DE5           LDR      R0,[SP, #+0]
   \   000032E0   000050E3           CMP      R0,#+0
   \   000032E4   F4FFFF1A           BNE      ??RestoreSettings_12
   \   000032E8   F1FFFFEA           B        ??RestoreSettings_13
    316                          break;
    317                      case C_TDU_TEXT_COLOR:
    318                          TextColor = SettingsString->ReadLong(ErrorLine);
   \                     ??RestoreSettings_15:
   \   000032EC   0020A0E3           MOV      R2,#+0
   \   000032F0   0D10A0E1           MOV      R1,SP
   \   000032F4   0400A0E1           MOV      R0,R4
   \   000032F8   ........           _BLF     ??ReadLong,??ReadLong??rA
   \   000032FC   ........           LDR      R1,??DataTable19  ;; TextColor
   \   00003300   000081E5           STR      R0,[R1, #+0]
    319                          NoError = !ErrorLine;
   \   00003304   00009DE5           LDR      R0,[SP, #+0]
   \   00003308   000050E3           CMP      R0,#+0
   \   0000330C   E8FFFF0A           BEQ      ??RestoreSettings_13
   \   00003310   E9FFFFEA           B        ??RestoreSettings_12
    320                          break;
    321                      case C_TDU_CARGO_WIN:
    322                          if (CargoWindow) {
   \                     ??RestoreSettings_16:
   \   00003314   ........           LDR      R7,??DataTable20  ;; CargoWindow
   \   00003318   0A0000EA           B        ??RestoreSettings_17
    323                              for (int i = 0; i < 3 && NoError; i++) {
    324                                  int value = SettingsString->ReadLong(ErrorLine);
    325                                  NoError = !ErrorLine;
    326                                  if (NoError) {
    327                                      CargoWindow->ValueTable[i + 2].ValueId = value;
    328                                  }
    329                              }
    330                              CargoWindow->PaintnewHeading();
    331                          }
    332                          break;
    333                      case C_TDU_BALLAST_WIN:
    334                          if (BallastWindow) {
   \                     ??RestoreSettings_18:
   \   0000331C   ........           LDR      R7,??DataTable21  ;; BallastWindow
   \   00003320   080000EA           B        ??RestoreSettings_17
    335                              for (int i = 0; i < 3 && NoError; i++) {
    336                                  int value = SettingsString->ReadLong(ErrorLine);
    337                                  NoError = !ErrorLine;
    338                                  if (NoError) {
    339                                      BallastWindow->ValueTable[i + 2].ValueId = value;
    340                                  }
    341                              }
    342                              BallastWindow->PaintnewHeading();
    343                          }
    344                          break;
    345                      case C_TDU_SERVICE_WIN:
    346                          if (ServiceWindow) {
   \                     ??RestoreSettings_19:
   \   00003324   ........           LDR      R7,??DataTable22  ;; ServiceWindow
   \   00003328   060000EA           B        ??RestoreSettings_17
    347                              for (int i = 0; i < 3 && NoError; i++) {
    348                                  int value = SettingsString->ReadLong(ErrorLine);
    349                                  NoError = !ErrorLine;
    350                                  if (NoError) {
    351                                      ServiceWindow->ValueTable[i + 2].ValueId = value;
    352                                  }
    353                              }
    354                              ServiceWindow->PaintnewHeading();
    355                          }
    356                          break;
    357                      case C_TDU_TANKPRESS_WIN:
    358                          if (TankPressWindow) {
   \                     ??RestoreSettings_20:
   \   0000332C   ........           LDR      R7,??DataTable23  ;; TankPressWindow
   \   00003330   040000EA           B        ??RestoreSettings_17
    359                              for (int i = 0; i < 3 && NoError; i++) {
    360                                  int value = SettingsString->ReadLong(ErrorLine);
    361                                  NoError = !ErrorLine;
    362                                  if (NoError) {
    363                                      TankPressWindow->ValueTable[i + 2].ValueId = value;
    364                                  }
    365                              }
    366                              TankPressWindow->PaintnewHeading();
    367                          }
    368                          break;
    369                      case C_TDU_LINEPRESS_WIN:
    370                          if (LinePressWindow) {
   \                     ??RestoreSettings_21:
   \   00003334   ........           LDR      R7,??DataTable24  ;; LinePressWindow
   \   00003338   020000EA           B        ??RestoreSettings_17
    371                              for (int i = 0; i < 3 && NoError; i++) {
    372                                  int value = SettingsString->ReadLong(ErrorLine);
    373                                  NoError = !ErrorLine;
    374                                  if (NoError) {
    375                                      LinePressWindow->ValueTable[i + 2].ValueId = value;
    376                                  }
    377                              }
    378                              LinePressWindow->PaintnewHeading();
    379                          }
    380                          break;
    381                      case C_TDU_TEMP_WIN:
    382                          if (TempWindow) {
   \                     ??RestoreSettings_22:
   \   0000333C   ........           LDR      R7,??DataTable25  ;; TempWindow
   \   00003340   000000EA           B        ??RestoreSettings_17
    383                              for (int i = 0; i < 3 && NoError; i++) {
    384                                  int value = SettingsString->ReadLong(ErrorLine);
    385                                  NoError = !ErrorLine;
    386                                  if (NoError) {
    387                                      TempWindow->ValueTable[i + 2].ValueId = value;
    388                                  }
    389                              }
    390                              TempWindow->PaintnewHeading();
    391                          }
    392                          break;
    393                      case C_TDU_VOIDSPACE_WIN:
    394                          if (VoidSpaceWindow) {
   \                     ??RestoreSettings_23:
   \   00003344   ........           LDR      R7,??DataTable26  ;; VoidSpaceWindow
   \                     ??RestoreSettings_17:
   \   00003348   000097E5           LDR      R0,[R7, #+0]
   \   0000334C   000050E3           CMP      R0,#+0
   \   00003350   1600000A           BEQ      ??RestoreSettings_5
    395                              for (int i = 0; i < 3 && NoError; i++) {
   \   00003354   0080A0E3           MOV      R8,#+0
   \                     ??RestoreSettings_24:
   \   00003358   000056E3           CMP      R6,#+0
   \   0000335C   1100000A           BEQ      ??RestoreSettings_25
    396                                  int value = SettingsString->ReadLong(ErrorLine);
   \   00003360   0020A0E3           MOV      R2,#+0
   \   00003364   0D10A0E1           MOV      R1,SP
   \   00003368   0400A0E1           MOV      R0,R4
   \   0000336C   ........           _BLF     ??ReadLong,??ReadLong??rA
    397                                  NoError = !ErrorLine;
   \   00003370   00109DE5           LDR      R1,[SP, #+0]
   \   00003374   000051E3           CMP      R1,#+0
   \   00003378   0600001A           BNE      ??RestoreSettings_26
    398                                  if (NoError) {
    399                                      VoidSpaceWindow->ValueTable[i + 2].ValueId = value;
   \   0000337C   002097E5           LDR      R2,[R7, #+0]
   \   00003380   0160A0E3           MOV      R6,#+1
   \   00003384   7C2092E5           LDR      R2,[R2, #+124]
   \   00003388   0C10A0E3           MOV      R1,#+12
   \   0000338C   912822E0           MLA      R2,R1,R8,R2
   \   00003390   180082E5           STR      R0,[R2, #+24]
   \   00003394   000000EA           B        ??RestoreSettings_27
    400                                  }
   \                     ??RestoreSettings_26:
   \   00003398   0060A0E3           MOV      R6,#+0
    401                              }
   \                     ??RestoreSettings_27:
   \   0000339C   018088E2           ADD      R8,R8,#+1
   \   000033A0   030058E3           CMP      R8,#+3
   \   000033A4   EBFFFFBA           BLT      ??RestoreSettings_24
    402                              VoidSpaceWindow->PaintnewHeading();
   \                     ??RestoreSettings_25:
   \   000033A8   000097E5           LDR      R0,[R7, #+0]
   \   000033AC   ........           _BLF     ??PaintnewHeading,??PaintnewHeading??rA
    403                          }
    404                          break;
    405                      }
    406                  }
    407              }while (NoError && (ErrorLine != EOF) && (Key != C_PRO_END));
   \                     ??RestoreSettings_5:
   \   000033B0   0020A0E3           MOV      R2,#+0
   \   000033B4   0110A0E3           MOV      R1,#+1
   \   000033B8   3C008DE2           ADD      R0,SP,#+60
   \   000033BC   ........           _BLF     ??_Tidy,??_Tidy??rA
   \   000033C0   000056E3           CMP      R6,#+0
   \   000033C4   00009D15           LDRNE    R0,[SP, #+0]
   \   000033C8   01007013           CMNNE    R0,#+1
   \   000033CC   FA0F5A13           CMPNE    R10,#+1000
   \   000033D0   10F3FF1A           BNE      ??RestoreSettings_2
    408          // Refresh window:
    409              //MainWindow->SetWindow(CurrentWinID);
    410              TSN_Delay(500);
   \   000033D4   7D0FA0E3           MOV      R0,#+500
   \   000033D8   ........           _BLF     OS_Delay,??OS_Delay??rA
    411              return (NoError);
   \   000033DC   0600A0E1           MOV      R0,R6
   \   000033E0   5DDF8DE2           ADD      SP,SP,#+372
   \   000033E4   D04FBDE8           POP      {R4,R6-R11,LR}
   \   000033E8   1EFF2FE1           BX       LR               ;; return
    412          }

   \                                 In segment CODE, align 4, keep-with-next
    413          void TDUSystemWin::SetModifiedFlag(void) {
   \                     ??SetModifiedFlag:
   \   00000000   00402DE9           PUSH     {LR}
    414              IsModified = true;
   \   00000004   0110A0E3           MOV      R1,#+1
   \   00000008   7510C0E5           STRB     R1,[R0, #+117]
    415              SignalSaveSettings(FLASH_SAVE_SETTINGS);
   \   0000000C   0100A0E3           MOV      R0,#+1
   \   00000010   ........           _BLF     ??SignalSaveSettings,??SignalSaveSettings??rA
    416          }
   \   00000014   0040BDE8           POP      {LR}
   \   00000018   1EFF2FE1           BX       LR               ;; return
    417          

   \                                 In segment CODE, align 4, keep-with-next
    418          void TDUSystemWin::Protect(void) {
   \                     ??Protect:
   \   00000000   00402DE9           PUSH     {LR}
    419              if (this) {
   \   00000004   000050E3           CMP      R0,#+0
   \   00000008   0100000A           BEQ      ??Protect_1
    420          #ifdef S2TXU
    421                  OS_Use(&SysWinSema);
   \   0000000C   480080E2           ADD      R0,R0,#+72
   \   00000010   ........           _BLF     OS_Use,??OS_Use??rA
    422          #else
    423                  //if ( !AcquireCnt ) {
    424                  AcquireCnt++;
    425                  SysWinSema->Acquire();
    426                  //}
    427          #endif
    428              }
    429          }
   \                     ??Protect_1:
   \   00000014   0040BDE8           POP      {LR}
   \   00000018   1EFF2FE1           BX       LR               ;; return
    430          

   \                                 In segment CODE, align 4, keep-with-next
    431          void TDUSystemWin::UnProtect(void) {
   \                     ??UnProtect:
   \   00000000   00402DE9           PUSH     {LR}
    432              if (this) {
   \   00000004   000050E3           CMP      R0,#+0
   \   00000008   0100000A           BEQ      ??UnProtect_1
    433          #ifdef S2TXU
    434                  OS_Unuse(&SysWinSema);
   \   0000000C   480080E2           ADD      R0,R0,#+72
   \   00000010   ........           _BLF     OS_Unuse,??OS_Unuse??rA
    435          #else
    436                  //if ( AcquireCnt ) {
    437                  AcquireCnt--;
    438                  //}else{
    439                  SysWinSema->Release();
    440                  //}
    441          #endif
    442              }
    443          }
   \                     ??UnProtect_1:
   \   00000014   0040BDE8           POP      {LR}
   \   00000018   1EFF2FE1           BX       LR               ;; return
    444          
    445          

   \                                 In segment CODE, align 4, keep-with-next
    446          void TDUSystemWin::ChangeSystemWindow(int NewWindow) {
   \                     ??ChangeSystemWindow:
   \   00000000   30402DE9           PUSH     {R4,R5,LR}
   \   00000004   0040A0E1           MOV      R4,R0
   \   00000008   0150A0E1           MOV      R5,R1
    447              Protect();
   \   0000000C   ........           BL       ??Protect
    448              CurrentSysWin = NewWindow;
   \   00000010   6C5084E5           STR      R5,[R4, #+108]
    449              UnProtect();
   \   00000014   0400A0E1           MOV      R0,R4
   \   00000018   ........           BL       ??UnProtect
    450          }
   \   0000001C   3040BDE8           POP      {R4,R5,LR}
   \   00000020   1EFF2FE1           BX       LR               ;; return

   \                                 In segment DIFUNCT, align 4, keep-with-next, root
   \   00000000                      REQUIRE ?call_ctors
   \   00000000   ........           DC32    ??__sti__routine

   \                                 In segment DATA_C, align 4, align-sorted
   \                     `?<Constant "TDU setting:\\nUnknown ...">`:
   \   00000000   544455207365       DC8 "TDU setting:\012Unknown error started at line:"
   \              7474696E673A
   \              0A556E6B6E6F
   \              776E20657272
   \              6F7220737461
   \              727465642061
   \              74206C696E65
   \              3A00        
   \   0000002C   544455207365       DC8 "TDU setting:\012The keyword "
   \              7474696E673A
   \              0A546865206B
   \              6579776F7264
   \              2000        
   \   00000046   0000               DC8 0, 0
   \   00000048   206973206E6F       DC8 " is not allowed here!! Line:"
   \              7420616C6C6F
   \              776564206865
   \              72652121204C
   \              696E653A00  
   \   00000065   000000             DC8 0, 0, 0

   \                                 In segment CODE, align 4, keep-with-next
   \   __??Code32?? __code __interwork __atpcs TDUSystemWin &TDUSystemWin::new TDUSystemWin()
   \                     `??new TDUSystemWin`:
   \   00000000   00402DE9           PUSH     {LR}
   \   00000004   7800A0E3           MOV      R0,#+120
   \   00000008   ........           _BLF     `??operator new`,`??operator new??rA`
   \   0000000C   000050E3           CMP      R0,#+0
   \   00000010   0000000A           BEQ      `??new TDUSystemWin_1`
   \   00000014   ........           BL       ??TDUSystemWin
   \                     `??new TDUSystemWin_1`:
   \   00000018   0040BDE8           POP      {LR}
   \   0000001C   1EFF2FE1           BX       LR               ;; return

   \                                 In segment CODE, align 4, keep-with-next
   \   __??Code32?? __code __interwork __atpcs void TDUSystemWin::delete ~TDUSystemWin(TDUSystemWin *)
   \                     `??delete ~TDUSystemWin`:
   \   00000000   10402DE9           PUSH     {R4,LR}
   \   00000004   0040B0E1           MOVS     R4,R0
   \   00000008   0200000A           BEQ      `??delete ~TDUSystemWin_1`
   \   0000000C   ........           BL       `?~TDUSystemWin`
   \   00000010   0400A0E1           MOV      R0,R4
   \   00000014   ........           _BLF     `??operator delete`,`??operator delete??rA`
   \                     `??delete ~TDUSystemWin_1`:
   \   00000018   1040BDE8           POP      {R4,LR}
   \   0000001C   1EFF2FE1           BX       LR               ;; return

   \                                 In segment CODE, align 4, keep-with-next
   \   static __??Code32?? __intrinsic __code __interwork __atpcs void __sti__routine()
   \                     ??__sti__routine:
   \   00000000   1EFF2FE1           BX       LR               ;; return

   \                                 In segment CODE, align 4, keep-with-next
   \                     ??DataTable1:
   \   00000000   ........           DC32     ??__vtbl

   \                                 In segment CODE, align 4, keep-with-next
   \                     ??DataTable4:
   \   00000000   ........           DC32     ButWindow

   \                                 In segment CODE, align 4, keep-with-next
   \                     ??DataTable5:
   \   00000000   ........           DC32     SensorDetails

   \                                 In segment CODE, align 4, keep-with-next
   \                     ??DataTable6:
   \   00000000   ........           DC32     ??npos

   \                                 In segment CODE, align 4, keep-with-next
   \                     ??DataTable7:
   \   00000000   ........           DC32     BackColor

   \                                 In segment CODE, align 4, keep-with-next
   \                     ??DataTable8:
   \   00000000   ........           DC32     TextColor

   \                                 In segment CODE, align 4, keep-with-next
   \                     ??DataTable9:
   \   00000000   ........           DC32     CurrentWinID

   \                                 In segment CODE, align 4, keep-with-next
   \                     ??DataTable10:
   \   00000000   ........           DC32     CargoWindow

   \                                 In segment CODE, align 4, keep-with-next
   \                     ??DataTable11:
   \   00000000   ........           DC32     BallastWindow

   \                                 In segment CODE, align 4, keep-with-next
   \                     ??DataTable12:
   \   00000000   ........           DC32     ServiceWindow

   \                                 In segment CODE, align 4, keep-with-next
   \                     ??DataTable13:
   \   00000000   ........           DC32     TankPressWindow

   \                                 In segment CODE, align 4, keep-with-next
   \                     ??DataTable14:
   \   00000000   ........           DC32     LinePressWindow

   \                                 In segment CODE, align 4, keep-with-next
   \                     ??DataTable15:
   \   00000000   ........           DC32     TempWindow

   \                                 In segment CODE, align 4, keep-with-next
   \                     ??DataTable16:
   \   00000000   ........           DC32     VoidSpaceWindow

   \                                 In segment CODE, align 4, keep-with-next
   \                     ??DataTable17:
   \   00000000   ........           DC32     CurrentWinID

   \                                 In segment CODE, align 4, keep-with-next
   \                     ??DataTable18:
   \   00000000   ........           DC32     BackColor

   \                                 In segment CODE, align 4, keep-with-next
   \                     ??DataTable19:
   \   00000000   ........           DC32     TextColor

   \                                 In segment CODE, align 4, keep-with-next
   \                     ??DataTable20:
   \   00000000   ........           DC32     CargoWindow

   \                                 In segment CODE, align 4, keep-with-next
   \                     ??DataTable21:
   \   00000000   ........           DC32     BallastWindow

   \                                 In segment CODE, align 4, keep-with-next
   \                     ??DataTable22:
   \   00000000   ........           DC32     ServiceWindow

   \                                 In segment CODE, align 4, keep-with-next
   \                     ??DataTable23:
   \   00000000   ........           DC32     TankPressWindow

   \                                 In segment CODE, align 4, keep-with-next
   \                     ??DataTable24:
   \   00000000   ........           DC32     LinePressWindow

   \                                 In segment CODE, align 4, keep-with-next
   \                     ??DataTable25:
   \   00000000   ........           DC32     TempWindow

   \                                 In segment CODE, align 4, keep-with-next
   \                     ??DataTable26:
   \   00000000   ........           DC32     VoidSpaceWindow

   Maximum stack usage in bytes:

     Function                       CSTACK
     --------                       ------
     TDUSystemWin::ButtonClicked(int)
                                       16
     TDUSystemWin::ChangeSystemWindow(int)
                                       12
     TDUSystemWin::CloseSystemWin()    12
     TDUSystemWin::Protect()            4
     TDUSystemWin::RestoreSettings(TSNConfigString *)
                                      408
     TDUSystemWin::SaveSettings(TSNConfigString *)
                                      756
     TDUSystemWin::SetButton()         32
     TDUSystemWin::SetModifiedFlag()
                                        4
     TDUSystemWin::TDUSystemWin()       8
     TDUSystemWin::UnProtect()          4
     TDUSystemWin::cbEventHandler(WM_MESSAGE *)
                                        8
     TDUSystemWin::delete ~TDUSystemWin(TDUSystemWin *)
                                        8
     TDUSystemWin::new TDUSystemWin()
                                        4
     TDUSystemWin::~TDUSystemWin()      8
     __sti__routine()                   0
     operator+(string const &, string const &)
                                       48


   Segment part sizes:

     Function/Label                 Bytes
     --------------                 -----
     operator+(string const &, string const &)
                                      156
     TDUSystemWin::~TDUSystemWin()     40
     TDUSystemWin::TDUSystemWin()     116
     TDUSystemWin::CloseSystemWin()   364
     TDUSystemWin::SetButton()        228
     TDUSystemWin::ButtonClicked(int)
                                      408
     TDUSystemWin::cbEventHandler(WM_MESSAGE *)
                                       84
     TDUSystemWin::SaveSettings(TSNConfigString *)
                                     2964
     TDUSystemWin::RestoreSettings(TSNConfigString *)
                                    13292
     TDUSystemWin::SetModifiedFlag()
                                       28
     TDUSystemWin::Protect()           28
     TDUSystemWin::UnProtect()         28
     TDUSystemWin::ChangeSystemWindow(int)
                                       36
     ?<Constant "TDU setting:\nUnknown ...">
                                      104
     TDUSystemWin::new TDUSystemWin()
                                       32
     TDUSystemWin::delete ~TDUSystemWin(TDUSystemWin *)
                                       32
     __sti__routine()                   4
     ??DataTable1                       4
     ??DataTable4                       4
     ??DataTable5                       4
     ??DataTable6                       4
     ??DataTable7                       4
     ??DataTable8                       4
     ??DataTable9                       4
     ??DataTable10                      4
     ??DataTable11                      4
     ??DataTable12                      4
     ??DataTable13                      4
     ??DataTable14                      4
     ??DataTable15                      4
     ??DataTable16                      4
     ??DataTable17                      4
     ??DataTable18                      4
     ??DataTable19                      4
     ??DataTable20                      4
     ??DataTable21                      4
     ??DataTable22                      4
     ??DataTable23                      4
     ??DataTable24                      4
     ??DataTable25                      4
     ??DataTable26                      4
      Others                          664

 
 18 584 bytes in segment CODE
    116 bytes in segment DATA_C
      4 bytes in segment DIFUNCT
 
 17 784 bytes of CODE  memory (+ 804 bytes shared)
    116 bytes of CONST memory

Errors: none
Warnings: none
