##############################################################################
#                                                                            #
# IAR ARM ANSI C/C++ Compiler V4.42A/W32               14/Sep/2022  15:19:13 #
# Copyright 1999-2005 IAR Systems. All rights reserved.                      #
#                                                                            #
#    Cpu mode        =  interwork                                            #
#    Endian          =  little                                               #
#    Stack alignment =  4                                                    #
#    Source file     =  D:\S2Prog\Shared\Src\TPCWindow140.cpp                #
#    Command line    =  D:\S2Prog\Shared\Src\TPCWindow140.cpp --fpu None -D  #
#                       OS_LIBMODE_SP -D CPU_S3C2410 -D OS_RAMVECT=0 -D      #
#                       OS_UART=-1 -D S2TXU -D USE_LZO=1 -D __ARM_LIBRARY__  #
#                       -D WATCHDOG=1 -D NETWORK=1 -lCN                      #
#                       D:\S2Prog\TXU\Debug\List\ -o                         #
#                       D:\S2Prog\TXU\Debug\Obj\ -z9 --debug --cpu_mode arm  #
#                       --endian little --cpu ARM920T --stack_align 4        #
#                       --interwork -e --enable_multibytes --eec++           #
#                       --dlib_config "C:\Program Files (x86)\IAR            #
#                       Systems\Embedded Workbench                           #
#                       4.0\arm\LIB\dl4tpainl8n.h" -I                        #
#                       D:\S2Prog\TXU\GUI\CORE\ -I D:\S2Prog\TXU\GUI\WM\ -I  #
#                       D:\S2Prog\TXU\GUI\WIDGET\ -I D:\S2Prog\TXU\CONFIG\   #
#                       -I D:\S2Prog\TXU\INC\ -I D:\S2Prog\TXU\..\SHARED\INC #
#                       \ -I D:\S2Prog\TXU\..\SHARED\SRC\ -I                 #
#                       D:\S2Prog\TXU\..\SHARED\LZO\minilzo.210\ -I          #
#                       D:\S2Prog\TXU\lwip-1.4.1\src\include\ -I             #
#                       D:\S2Prog\TXU\lwip-1.4.1\src\include\ipv4\ -I        #
#                       D:\S2Prog\TXU\lwip-1.4.1\src\ -I                     #
#                       D:\S2Prog\TXU\..\SHARED\Database\ -I                 #
#                       D:\S2Prog\TXU\src\ -I "C:\Program Files (x86)\IAR    #
#                       Systems\Embedded Workbench 4.0\arm\INC\"             #
#                       --inline_threshold=2                                 #
#    List file       =  D:\S2Prog\TXU\Debug\List\TPCWindow140.lst            #
#    Object file     =  D:\S2Prog\TXU\Debug\Obj\TPCWindow140.r79             #
#                                                                            #
#                                                                            #
##############################################################################

D:\S2Prog\Shared\Src\TPCWindow140.cpp
      1          #include "TSNIncludes.h"

   \                                 In segment CODE, align 4, keep-with-next
   \   __??Code32?? __code __interwork __atpcs void operator+(string const &, string const &)
   \                     `??operator+`:
   \   00000000   F0402DE9           PUSH     {R4-R7,LR}
   \   00000004   1CD04DE2           SUB      SP,SP,#+28
   \   00000008   0040A0E1           MOV      R4,R0
   \   0000000C   0150A0E1           MOV      R5,R1
   \   00000010   0260A0E1           MOV      R6,R2
   \   00000014   0020A0E3           MOV      R2,#+0
   \   00000018   0010A0E3           MOV      R1,#+0
   \   0000001C   0D00A0E1           MOV      R0,SP
   \   00000020   ........           _BLF     ??_Tidy,??_Tidy??rA
   \   00000024   6C009FE5           LDR      R0,`??operator+_1`  ;; ??npos
   \   00000028   0020A0E3           MOV      R2,#+0
   \   0000002C   007090E5           LDR      R7,[R0, #+0]
   \   00000030   0510A0E1           MOV      R1,R5
   \   00000034   0730A0E1           MOV      R3,R7
   \   00000038   0D00A0E1           MOV      R0,SP
   \   0000003C   ........           _BLF     ??assign,??assign??rA
   \   00000040   0730A0E1           MOV      R3,R7
   \   00000044   0020A0E3           MOV      R2,#+0
   \   00000048   0610A0E1           MOV      R1,R6
   \   0000004C   0D00A0E1           MOV      R0,SP
   \   00000050   ........           _BLF     ??append,??append??rA
   \   00000054   0050A0E1           MOV      R5,R0
   \   00000058   0020A0E3           MOV      R2,#+0
   \   0000005C   0210A0E1           MOV      R1,R2
   \   00000060   0400A0E1           MOV      R0,R4
   \   00000064   ........           _BLF     ??_Tidy,??_Tidy??rA
   \   00000068   0730A0E1           MOV      R3,R7
   \   0000006C   0020A0E3           MOV      R2,#+0
   \   00000070   0510A0E1           MOV      R1,R5
   \   00000074   0400A0E1           MOV      R0,R4
   \   00000078   ........           _BLF     ??assign,??assign??rA
   \   0000007C   0020A0E3           MOV      R2,#+0
   \   00000080   0110A0E3           MOV      R1,#+1
   \   00000084   0D00A0E1           MOV      R0,SP
   \   00000088   ........           _BLF     ??_Tidy,??_Tidy??rA
   \   0000008C   1CD08DE2           ADD      SP,SP,#+28
   \   00000090   F040BDE8           POP      {R4-R7,LR}
   \   00000094   1EFF2FE1           BX       LR               ;; return
   \                     `??operator+_1`:
   \   00000098   ........           DC32     ??npos

   \                                 In segment CODE, align 4, keep-with-next
   \   __??Code32?? __code __interwork __atpcs AnsiString::AnsiString(AnsiString const &)
   \                     ??AnsiString:
   \   00000000   30402DE9           PUSH     {R4,R5,LR}
   \   00000004   0040A0E1           MOV      R4,R0
   \   00000008   0150A0E1           MOV      R5,R1
   \   0000000C   0020A0E3           MOV      R2,#+0
   \   00000010   0010A0E3           MOV      R1,#+0
   \   00000014   ........           _BLF     ??_Tidy,??_Tidy??rA
   \   00000018   1C009FE5           LDR      R0,??AnsiString_3  ;; ??npos
   \   0000001C   0020A0E3           MOV      R2,#+0
   \   00000020   003090E5           LDR      R3,[R0, #+0]
   \   00000024   0510A0E1           MOV      R1,R5
   \   00000028   0400A0E1           MOV      R0,R4
   \   0000002C   ........           _BLF     ??assign,??assign??rA
   \   00000030   0400A0E1           MOV      R0,R4
   \   00000034   3040BDE8           POP      {R4,R5,LR}
   \   00000038   1EFF2FE1           BX       LR               ;; return
   \                     ??AnsiString_3:
   \   0000003C   ........           DC32     ??npos
      2          #pragma hdrstop
      3          #ifdef BORLAND
      4          #pragma package(smart_init)
      5          #endif
      6          
      7          //---------------------------------------------------------------------------
      8          
      9          

   \                                 In segment CODE, align 4, keep-with-next
     10          TPCWindow140::TPCWindow140(void)
   \                     ??TPCWindow140:
   \   00000000   10402DE9           PUSH     {R4,LR}
   \   00000004   0040A0E1           MOV      R4,R0
     11          {
   \   00000008   ........           _BLF     ??TPCWindow,??TPCWindow??rA
   \   0000000C   ........           LDR      R0,??DataTable1  ;; ??__vtbl
   \   00000010   100084E5           STR      R0,[R4, #+16]
     12          }
   \   00000014   0400A0E1           MOV      R0,R4
   \   00000018                      REQUIRE ?Subroutine11
   \   00000018                      ;; // Fall through to label ?Subroutine11

   \                                 In segment CODE, align 4, keep-with-next
   \                     ?Subroutine11:
   \   00000000   1040BDE8           POP      {R4,LR}
   \   00000004   1EFF2FE1           BX       LR               ;; return

   \                                 In segment CODE, align 4, keep-with-next
     13          TPCWindow140::TPCWindow140(PRogramObject *PRO, int Lower, int Upper, int Main):
   \                     ??TPCWindow140_1:
   \   00000000   10402DE9           PUSH     {R4,LR}
   \   00000004   0040A0E1           MOV      R4,R0
   \   00000008   08009DE5           LDR      R0,[SP, #+8]
     14          TPCWindow(PRO, Lower, Upper, Main)
     15          {
   \   0000000C   01002DE9           PUSH     {R0}
   \   00000010   0400A0E1           MOV      R0,R4
   \   00000014   ........           _BLF     ??TPCWindow_1,??TPCWindow??rA_1
   \   00000018   ........           LDR      R0,??DataTable1  ;; ??__vtbl
   \   0000001C   100084E5           STR      R0,[R4, #+16]
     16          }
   \   00000020   0400A0E1           MOV      R0,R4
   \   00000024   1240BDE8           POP      {R1,R4,LR}
   \   00000028   1EFF2FE1           BX       LR               ;; return
     17          

   \                                 In segment CODE, align 4, keep-with-next
     18          TPCWindow140::~TPCWindow140(void)
     19          {
   \                     `?~TPCWindow140`:
   \   00000000   00402DE9           PUSH     {LR}
     20          }
   \   00000004   ........           _BLF     `?~TPCWindow`,`?~TPCWindow??rA`
   \   00000008                      REQUIRE ?Subroutine10
   \   00000008                      ;; // Fall through to label ?Subroutine10

   \                                 In segment CODE, align 4, keep-with-next
   \                     ?Subroutine10:
   \   00000000   0040BDE8           POP      {LR}
   \   00000004   1EFF2FE1           BX       LR               ;; return
     21          //---------------------------------------------------------------------------

   \                                 In segment CODE, align 4, keep-with-next
     22          AnsiString TPCWindow140::MakeConfigString(int ExtraTabs)
     23          {
   \                     ??MakeConfigString:
   \   00000000   F0432DE9           PUSH     {R4-R9,LR}
     24          	AnsiString LocalString;
     25          	AnsiString IdNumStr;
     26          	IdNumStr.cat_sprintf("0x%0x",PROIDNumber);
     27          	LocalString +=TabStr2+KeyWord(C_TPC_WINDOW)+CrLfStr;
   \   00000004   C4629FE5           LDR      R6,??MakeConfigString_1  ;; TabStr2
   \   00000008   C4729FE5           LDR      R7,??MakeConfigString_1+0x4  ;; CrLfStr
   \   0000000C   7EDF4DE2           SUB      SP,SP,#+504
   \   00000010   0040A0E1           MOV      R4,R0
     28          	LocalString +=TabStr3+KeyWord(C_TPC_WINDOW_PRO_ID)+IdNumStr+CrLfStr;
   \   00000014   BC929FE5           LDR      R9,??MakeConfigString_1+0x8  ;; TabStr3
   \   00000018   0150A0E1           MOV      R5,R1
   \   0000001C   0500A0E1           MOV      R0,R5
   \   00000020   ........           _BLF     ??AnsiString_1,??AnsiString??rA
   \   00000024   690F8DE2           ADD      R0,SP,#+420
   \   00000028   ........           _BLF     ??AnsiString_1,??AnsiString??rA
   \   0000002C   083094E5           LDR      R3,[R4, #+8]
   \   00000030   A4229FE5           LDR      R2,??MakeConfigString_1+0xC  ;; `?<Constant "0x%0x">`
   \   00000034   701F8DE2           ADD      R1,SP,#+448
   \   00000038   690F8DE2           ADD      R0,SP,#+420
   \   0000003C   ........           _BLF     ??cat_sprintf,??cat_sprintf??rA
   \   00000040   0020A0E3           MOV      R2,#+0
   \   00000044   0110A0E3           MOV      R1,#+1
   \   00000048   700F8DE2           ADD      R0,SP,#+448
   \   0000004C   ........           _BLF     ??_Tidy,??_Tidy??rA
   \   00000050   C210A0E3           MOV      R1,#+194
   \   00000054   601E81E3           ORR      R1,R1,#0x600
   \   00000058   38008DE2           ADD      R0,SP,#+56
   \   0000005C   ........           _BLF     ??KeyWord,??KeyWord??rA
   \   00000060   38208DE2           ADD      R2,SP,#+56
   \   00000064   0610A0E1           MOV      R1,R6
   \   00000068   1C008DE2           ADD      R0,SP,#+28
   \   0000006C   ........           _BLF     `??operator+`,`??operator+??rA`
   \   00000070   0720A0E1           MOV      R2,R7
   \   00000074   1C108DE2           ADD      R1,SP,#+28
   \   00000078   0D00A0E1           MOV      R0,SP
   \   0000007C   ........           _BLF     `??operator+`,`??operator+??rA`
   \   00000080   58029FE5           LDR      R0,??MakeConfigString_1+0x10  ;; ??npos
   \   00000084   0020A0E3           MOV      R2,#+0
   \   00000088   008090E5           LDR      R8,[R0, #+0]
   \   0000008C   0D10A0E1           MOV      R1,SP
   \   00000090   0830A0E1           MOV      R3,R8
   \   00000094   0500A0E1           MOV      R0,R5
   \   00000098   ........           _BLF     ??append,??append??rA
   \   0000009C   0020A0E3           MOV      R2,#+0
   \   000000A0   0110A0E3           MOV      R1,#+1
   \   000000A4   0D00A0E1           MOV      R0,SP
   \   000000A8   ........           _BLF     ??_Tidy,??_Tidy??rA
   \   000000AC   0020A0E3           MOV      R2,#+0
   \   000000B0   0110A0E3           MOV      R1,#+1
   \   000000B4   1C008DE2           ADD      R0,SP,#+28
   \   000000B8   ........           _BLF     ??_Tidy,??_Tidy??rA
   \   000000BC   0020A0E3           MOV      R2,#+0
   \   000000C0   0110A0E3           MOV      R1,#+1
   \   000000C4   38008DE2           ADD      R0,SP,#+56
   \   000000C8   ........           _BLF     ??_Tidy,??_Tidy??rA
   \   000000CC   CC10A0E3           MOV      R1,#+204
   \   000000D0   601E81E3           ORR      R1,R1,#0x600
   \   000000D4   A8008DE2           ADD      R0,SP,#+168
   \   000000D8   ........           _BLF     ??KeyWord,??KeyWord??rA
   \   000000DC   A8208DE2           ADD      R2,SP,#+168
   \   000000E0   0910A0E1           MOV      R1,R9
   \   000000E4   8C008DE2           ADD      R0,SP,#+140
   \   000000E8   ........           _BLF     `??operator+`,`??operator+??rA`
   \   000000EC   692F8DE2           ADD      R2,SP,#+420
   \   000000F0   8C108DE2           ADD      R1,SP,#+140
   \   000000F4   70008DE2           ADD      R0,SP,#+112
   \   000000F8   ........           _BLF     `??operator+`,`??operator+??rA`
   \   000000FC   0720A0E1           MOV      R2,R7
   \   00000100   70108DE2           ADD      R1,SP,#+112
   \   00000104   54008DE2           ADD      R0,SP,#+84
   \   00000108   ........           _BLF     `??operator+`,`??operator+??rA`
   \   0000010C   0830A0E1           MOV      R3,R8
   \   00000110   0020A0E3           MOV      R2,#+0
   \   00000114   54108DE2           ADD      R1,SP,#+84
   \   00000118   0500A0E1           MOV      R0,R5
   \   0000011C   ........           _BLF     ??append,??append??rA
   \   00000120   0020A0E3           MOV      R2,#+0
   \   00000124   0110A0E3           MOV      R1,#+1
   \   00000128   54008DE2           ADD      R0,SP,#+84
   \   0000012C   ........           _BLF     ??_Tidy,??_Tidy??rA
   \   00000130   0020A0E3           MOV      R2,#+0
   \   00000134   0110A0E3           MOV      R1,#+1
   \   00000138   70008DE2           ADD      R0,SP,#+112
   \   0000013C   ........           _BLF     ??_Tidy,??_Tidy??rA
   \   00000140   0020A0E3           MOV      R2,#+0
   \   00000144   0110A0E3           MOV      R1,#+1
   \   00000148   8C008DE2           ADD      R0,SP,#+140
   \   0000014C   ........           _BLF     ??_Tidy,??_Tidy??rA
   \   00000150   0020A0E3           MOV      R2,#+0
   \   00000154   0110A0E3           MOV      R1,#+1
   \   00000158   A8008DE2           ADD      R0,SP,#+168
   \   0000015C   ........           _BLF     ??_Tidy,??_Tidy??rA
     29          	LocalString +=TabStr3+KeyWord(C_TPC_MAIN_DISP)+ValueKeyWord(MainDisplay)+CrLfStr;
   \   00000160   F010D4E1           LDRSH    R1,[R4, #+0]
   \   00000164   4D0F8DE2           ADD      R0,SP,#+308
   \   00000168   ........           _BLF     ??ValueKeyWord,??ValueKeyWord??rA
   \   0000016C   C510A0E3           MOV      R1,#+197
   \   00000170   601E81E3           ORR      R1,R1,#0x600
   \   00000174   460F8DE2           ADD      R0,SP,#+280
   \   00000178   ........           _BLF     ??KeyWord,??KeyWord??rA
   \   0000017C   462F8DE2           ADD      R2,SP,#+280
   \   00000180   0910A0E1           MOV      R1,R9
   \   00000184   FC008DE2           ADD      R0,SP,#+252
   \   00000188   ........           _BLF     `??operator+`,`??operator+??rA`
   \   0000018C   4D2F8DE2           ADD      R2,SP,#+308
   \   00000190   FC108DE2           ADD      R1,SP,#+252
   \   00000194   E0008DE2           ADD      R0,SP,#+224
   \   00000198   ........           _BLF     `??operator+`,`??operator+??rA`
   \   0000019C   0720A0E1           MOV      R2,R7
   \   000001A0   E0108DE2           ADD      R1,SP,#+224
   \   000001A4   C4008DE2           ADD      R0,SP,#+196
   \   000001A8   ........           _BLF     `??operator+`,`??operator+??rA`
   \   000001AC   0830A0E1           MOV      R3,R8
   \   000001B0   0020A0E3           MOV      R2,#+0
   \   000001B4   C4108DE2           ADD      R1,SP,#+196
   \   000001B8   0500A0E1           MOV      R0,R5
   \   000001BC   ........           _BLF     ??append,??append??rA
   \   000001C0   0020A0E3           MOV      R2,#+0
   \   000001C4   0110A0E3           MOV      R1,#+1
   \   000001C8   C4008DE2           ADD      R0,SP,#+196
   \   000001CC   ........           _BLF     ??_Tidy,??_Tidy??rA
   \   000001D0   0020A0E3           MOV      R2,#+0
   \   000001D4   0110A0E3           MOV      R1,#+1
   \   000001D8   E0008DE2           ADD      R0,SP,#+224
   \   000001DC   ........           _BLF     ??_Tidy,??_Tidy??rA
   \   000001E0   0020A0E3           MOV      R2,#+0
   \   000001E4   0110A0E3           MOV      R1,#+1
   \   000001E8   4D0F8DE2           ADD      R0,SP,#+308
   \   000001EC   ........           _BLF     ??_Tidy,??_Tidy??rA
   \   000001F0   0020A0E3           MOV      R2,#+0
   \   000001F4   0110A0E3           MOV      R1,#+1
   \   000001F8   FC008DE2           ADD      R0,SP,#+252
   \   000001FC   ........           _BLF     ??_Tidy,??_Tidy??rA
   \   00000200   0020A0E3           MOV      R2,#+0
   \   00000204   0110A0E3           MOV      R1,#+1
   \   00000208   460F8DE2           ADD      R0,SP,#+280
   \   0000020C   ........           _BLF     ??_Tidy,??_Tidy??rA
     30          	LocalString +=TabStr2+KeyWord(C_TPC_END_WINDOW)+CrLfStr;
   \   00000210   C310A0E3           MOV      R1,#+195
   \   00000214   601E81E3           ORR      R1,R1,#0x600
   \   00000218   620F8DE2           ADD      R0,SP,#+392
   \   0000021C   ........           _BLF     ??KeyWord,??KeyWord??rA
   \   00000220   622F8DE2           ADD      R2,SP,#+392
   \   00000224   0610A0E1           MOV      R1,R6
   \   00000228   5B0F8DE2           ADD      R0,SP,#+364
   \   0000022C   ........           _BLF     `??operator+`,`??operator+??rA`
   \   00000230   0720A0E1           MOV      R2,R7
   \   00000234   5B1F8DE2           ADD      R1,SP,#+364
   \   00000238   540F8DE2           ADD      R0,SP,#+336
   \   0000023C   ........           _BLF     `??operator+`,`??operator+??rA`
   \   00000240   0830A0E1           MOV      R3,R8
   \   00000244   0020A0E3           MOV      R2,#+0
   \   00000248   541F8DE2           ADD      R1,SP,#+336
   \   0000024C   0500A0E1           MOV      R0,R5
   \   00000250   ........           _BLF     ??append,??append??rA
   \   00000254   0020A0E3           MOV      R2,#+0
   \   00000258   0110A0E3           MOV      R1,#+1
   \   0000025C   540F8DE2           ADD      R0,SP,#+336
   \   00000260   ........           _BLF     ??_Tidy,??_Tidy??rA
   \   00000264   0020A0E3           MOV      R2,#+0
   \   00000268   0110A0E3           MOV      R1,#+1
   \   0000026C   5B0F8DE2           ADD      R0,SP,#+364
   \   00000270   ........           _BLF     ??_Tidy,??_Tidy??rA
   \   00000274   0020A0E3           MOV      R2,#+0
   \   00000278   0110A0E3           MOV      R1,#+1
   \   0000027C   620F8DE2           ADD      R0,SP,#+392
   \   00000280   ........           _BLF     ??_Tidy,??_Tidy??rA
     31          	LocalString +=(AnsiString) NewLineStr;
   \   00000284   58109FE5           LDR      R1,??MakeConfigString_1+0x14  ;; NewLineStr
   \   00000288   770F8DE2           ADD      R0,SP,#+476
   \   0000028C   ........           _BLF     ??AnsiString,??AnsiString??rA_1
   \   00000290   0830A0E1           MOV      R3,R8
   \   00000294   0020A0E3           MOV      R2,#+0
   \   00000298   0010A0E1           MOV      R1,R0
   \   0000029C   0500A0E1           MOV      R0,R5
   \   000002A0   ........           _BLF     ??append,??append??rA
   \   000002A4   0020A0E3           MOV      R2,#+0
   \   000002A8   0110A0E3           MOV      R1,#+1
   \   000002AC   770F8DE2           ADD      R0,SP,#+476
   \   000002B0   ........           _BLF     ??_Tidy,??_Tidy??rA
     32          	return (LocalString);
   \   000002B4   0020A0E3           MOV      R2,#+0
   \   000002B8   0110A0E3           MOV      R1,#+1
   \   000002BC   690F8DE2           ADD      R0,SP,#+420
   \   000002C0   ........           _BLF     ??_Tidy,??_Tidy??rA
   \   000002C4   7EDF8DE2           ADD      SP,SP,#+504
   \   000002C8   F043BDE8           POP      {R4-R9,LR}
   \   000002CC   1EFF2FE1           BX       LR               ;; return
   \                     ??MakeConfigString_1:
   \   000002D0   ........           DC32     TabStr2
   \   000002D4   ........           DC32     CrLfStr
   \   000002D8   ........           DC32     TabStr3
   \   000002DC   ........           DC32     `?<Constant "0x%0x">`
   \   000002E0   ........           DC32     ??npos
   \   000002E4   ........           DC32     NewLineStr
     33          }
     34          
     35          //---------------------------------------------------------------------------
     36          

   \                                 In segment CODE, align 4, keep-with-next
     37          bool TPCWindow140::LoadConfigString(TSNConfigString &ConfigString)
     38          {
   \                     ??LoadConfigString:
   \   00000000   F0472DE9           PUSH     {R4-R10,LR}
     39          	bool NoError = true;
     40          	int ErrorLine=0;
   \   00000004   C0919FE5           LDR      R9,??LoadConfigString_2  ;; `?<Constant "TPC Window">`
   \   00000008   ACD04DE2           SUB      SP,SP,#+172
   \   0000000C   0040A0E1           MOV      R4,R0
   \   00000010   0150A0E1           MOV      R5,R1
   \   00000014   0170A0E3           MOV      R7,#+1
   \   00000018   0010A0E3           MOV      R1,#+0
   \   0000001C   00108DE5           STR      R1,[SP, #+0]
   \   00000020   0160E0E1           MVN      R6,R1
     41          	int Key;
     42          	do {
     43          		AnsiString InputKeyWord= ConfigString.NextWord(ErrorLine);
   \                     ??LoadConfigString_3:
   \   00000024   0030A0E3           MOV      R3,#+0
   \   00000028   0D20A0E1           MOV      R2,SP
   \   0000002C   3C108DE2           ADD      R1,SP,#+60
   \   00000030   0500A0E1           MOV      R0,R5
   \   00000034   ........           _BLF     ??NextWord,??NextWord??rA
     44          		if ( ErrorLine ) {
   \   00000038   00009DE5           LDR      R0,[SP, #+0]
   \   0000003C   000050E3           CMP      R0,#+0
   \   00000040   0A00000A           BEQ      ??LoadConfigString_4
     45          			if ( ErrorLine != EOF ) {
   \   00000044   060050E1           CMP      R0,R6
   \   00000048   5000000A           BEQ      ??LoadConfigString_5
     46          				GiveConfigWarning((AnsiString)"TPC Window",ErrorLine);
   \   0000004C   0910A0E1           MOV      R1,R9
   \   00000050   04008DE2           ADD      R0,SP,#+4
   \   00000054   ........           _BLF     ??AnsiString_2,??AnsiString??rA_2
   \   00000058   00109DE5           LDR      R1,[SP, #+0]
   \   0000005C   ........           _BLF     ??GiveConfigWarning,??GiveConfigWarning??rA
   \   00000060   0020A0E3           MOV      R2,#+0
   \   00000064   0110A0E3           MOV      R1,#+1
   \   00000068   04008DE2           ADD      R0,SP,#+4
   \   0000006C   460000EA           B        ??LoadConfigString_6
     47          			}
     48          		} else {
     49          			Key = FindConfigKey(InputKeyWord);
   \                     ??LoadConfigString_4:
   \   00000070   3C108DE2           ADD      R1,SP,#+60
   \   00000074   04008DE2           ADD      R0,SP,#+4
   \   00000078   ........           _BLF     ??AnsiString,??AnsiString??rA_1
   \   0000007C   ........           _BLF     ??FindConfigKey,??FindConfigKey??rA
   \   00000080   0080A0E1           MOV      R8,R0
   \   00000084   0020A0E3           MOV      R2,#+0
   \   00000088   0110A0E3           MOV      R1,#+1
   \   0000008C   04008DE2           ADD      R0,SP,#+4
   \   00000090   ........           _BLF     ??_Tidy,??_Tidy??rA
     50          			switch ( Key ) {
   \   00000094   C30048E2           SUB      R0,R8,#+195
   \   00000098   600E40E2           SUB      R0,R0,#+1536
   \   0000009C   090050E3           CMP      R0,#+9
   \   000000A0   0500008A           BHI      ??LoadConfigString_7
   \   000000A4   011F8FE2           ADR      R1,??LoadConfigString_1
   \   000000A8   0010D1E7           LDRB     R1,[R1, R0]
   \   000000AC   01F18FE0           ADD      PC,PC,R1, LSL #+2
   \                     ??LoadConfigString_1:
   \   000000B0   37022102           DC8      +55,+2,+33,+2
   \   000000B4   02020202           DC8      +2,+2,+2,+2
   \   000000B8   02140000           DC8      +2,+20,+0,+0
     51          				default:
     52          					GiveConfigWarning((AnsiString)"TPC Window",InputKeyWord,ConfigString.LineCount);
   \                     ??LoadConfigString_7:
   \   000000BC   3C108DE2           ADD      R1,SP,#+60
   \   000000C0   74008DE2           ADD      R0,SP,#+116
   \   000000C4   ........           _BLF     ??AnsiString,??AnsiString??rA_1
   \   000000C8   00A0A0E1           MOV      R10,R0
   \   000000CC   0910A0E1           MOV      R1,R9
   \   000000D0   90008DE2           ADD      R0,SP,#+144
   \   000000D4   ........           _BLF     ??AnsiString_2,??AnsiString??rA_2
   \   000000D8   1C2095E5           LDR      R2,[R5, #+28]
   \   000000DC   0A10A0E1           MOV      R1,R10
   \   000000E0   ........           _BLF     ??GiveConfigWarning_1,??GiveConfigWarning??rA_1
   \   000000E4   0020A0E3           MOV      R2,#+0
   \   000000E8   0110A0E3           MOV      R1,#+1
   \   000000EC   74008DE2           ADD      R0,SP,#+116
   \   000000F0   ........           _BLF     ??_Tidy,??_Tidy??rA
   \   000000F4   0020A0E3           MOV      R2,#+0
   \   000000F8   0110A0E3           MOV      R1,#+1
   \   000000FC   90008DE2           ADD      R0,SP,#+144
   \   00000100   210000EA           B        ??LoadConfigString_6
     53          					break;
     54          				case C_TPC_END_WINDOW:
     55          					break;
     56          				case C_TPC_WINDOW_PRO_ID:
     57          					{
     58          						PROIDNumber = ConfigString.ReadInteger(ErrorLine);
   \                     ??LoadConfigString_8:
   \   00000104   0020A0E3           MOV      R2,#+0
   \   00000108   0D10A0E1           MOV      R1,SP
   \   0000010C   0500A0E1           MOV      R0,R5
   \   00000110   ........           _BLF     ??ReadInteger,??ReadInteger??rA
   \   00000114   080084E5           STR      R0,[R4, #+8]
     59          						PROPtr = (PRogramObject*)FindPROFromIDNumber(PROIDNumber);
   \   00000118   0010A0E3           MOV      R1,#+0
   \   0000011C   ........           _BLF     ??FindPROFromIDNumber,??FindPROFromIDNumber??rA
   \   00000120   0C0084E5           STR      R0,[R4, #+12]
     60          						NoError = !ErrorLine;
   \   00000124   00009DE5           LDR      R0,[SP, #+0]
   \   00000128   000050E3           CMP      R0,#+0
   \   0000012C   0070A013           MOVNE    R7,#+0
   \   00000130   0170A003           MOVEQ    R7,#+1
   \   00000134   150000EA           B        ??LoadConfigString_5
     61          					}
     62          					break;
     63          				case C_TPC_MAIN_DISP:
     64          					{
     65          						AnsiString tempStr = ConfigString.NextWord(ErrorLine);
   \                     ??LoadConfigString_9:
   \   00000138   0030A0E3           MOV      R3,#+0
   \   0000013C   0D20A0E1           MOV      R2,SP
   \   00000140   20108DE2           ADD      R1,SP,#+32
   \   00000144   0500A0E1           MOV      R0,R5
   \   00000148   ........           _BLF     ??NextWord,??NextWord??rA
     66          						MainDisplay = FindConfigKey(tempStr);
   \   0000014C   20108DE2           ADD      R1,SP,#+32
   \   00000150   58008DE2           ADD      R0,SP,#+88
   \   00000154   ........           _BLF     ??AnsiString,??AnsiString??rA_1
   \   00000158   ........           _BLF     ??FindConfigKey,??FindConfigKey??rA
   \   0000015C   B000C4E1           STRH     R0,[R4, #+0]
   \   00000160   0020A0E3           MOV      R2,#+0
   \   00000164   0110A0E3           MOV      R1,#+1
   \   00000168   58008DE2           ADD      R0,SP,#+88
   \   0000016C   ........           _BLF     ??_Tidy,??_Tidy??rA
     67          						NoError = !ErrorLine;
   \   00000170   00009DE5           LDR      R0,[SP, #+0]
     68          					}
   \   00000174   0020A0E3           MOV      R2,#+0
   \   00000178   000050E3           CMP      R0,#+0
   \   0000017C   0170A003           MOVEQ    R7,#+1
   \   00000180   0070A013           MOVNE    R7,#+0
   \   00000184   0110A0E3           MOV      R1,#+1
   \   00000188   20008DE2           ADD      R0,SP,#+32
   \                     ??LoadConfigString_6:
   \   0000018C   ........           _BLF     ??_Tidy,??_Tidy??rA
     69          					break;
     70          			}
     71          		}
     72          	}while ( NoError && ( ErrorLine != EOF )&& ( Key != C_TPC_END_WINDOW ) );
   \                     ??LoadConfigString_5:
   \   00000190   0020A0E3           MOV      R2,#+0
   \   00000194   0110A0E3           MOV      R1,#+1
   \   00000198   3C008DE2           ADD      R0,SP,#+60
   \   0000019C   ........           _BLF     ??_Tidy,??_Tidy??rA
   \   000001A0   000057E3           CMP      R7,#+0
   \   000001A4   00009D15           LDRNE    R0,[SP, #+0]
   \   000001A8   06005011           CMPNE    R0,R6
   \   000001AC   C300A013           MOVNE    R0,#+195
   \   000001B0   600E8013           ORRNE    R0,R0,#0x600
   \   000001B4   00005811           CMPNE    R8,R0
   \   000001B8   99FFFF1A           BNE      ??LoadConfigString_3
     73          	return (NoError);
   \   000001BC   0700A0E1           MOV      R0,R7
   \   000001C0   ACD08DE2           ADD      SP,SP,#+172
   \   000001C4   F047BDE8           POP      {R4-R10,LR}
   \   000001C8   1EFF2FE1           BX       LR               ;; return
   \                     ??LoadConfigString_2:
   \   000001CC   ........           DC32     `?<Constant "TPC Window">`
     74          }
     75          //---------------------------------------------------------------------------

   \                                 In segment CODE, align 4, keep-with-next
     76          U16 TPCWindow140::MakeWindow(U8 *TxBuf,U16 Ptr, bool Update)
     77          {
   \                     ??MakeWindow:
   \   00000000   0200A0E1           MOV      R0,R2
     78            return Ptr;
   \   00000004   1EFF2FE1           BX       LR               ;; return
     79          
     80          }

   \                                 In segment DIFUNCT, align 4, keep-with-next, root
   \   00000000                      REQUIRE ?call_ctors
   \   00000000   ........           DC32    ??__sti__routine

   \                                 In segment DATA_C, align 4, align-sorted
   \                     `?<Constant "0x%0x">`:
   \   00000000   307825307800       DC8 "0x%0x"
   \   00000006   0000               DC8 0, 0

   \                                 In segment DATA_C, align 4, align-sorted
   \                     `?<Constant "TPC Window">`:
   \   00000000   545043205769       DC8 "TPC Window"
   \              6E646F7700  
   \   0000000B   00                 DC8 0

   \                                 In segment CODE, align 4, keep-with-next
   \   __??Code32?? __code __interwork __atpcs TPCWindow140 &TPCWindow140::new TPCWindow140()
   \                     `??new TPCWindow140`:
   \   00000000   00402DE9           PUSH     {LR}
   \   00000004   1400A0E3           MOV      R0,#+20
   \   00000008   ........           _BLF     `??operator new`,`??operator new??rA`
   \   0000000C   000050E3           CMP      R0,#+0
   \   00000010   0000000A           BEQ      `??new TPCWindow140_2`
   \   00000014   ........           BL       ??TPCWindow140
   \                     `??new TPCWindow140_2`:
   \   00000018   ........           B        ?Subroutine10

   \                                 In segment CODE, align 4, keep-with-next
   \   __??Code32?? __code __interwork __atpcs TPCWindow140 &TPCWindow140::new TPCWindow140(PRogramObject *, int, int, int)
   \                     `??new TPCWindow140_1`:
   \   00000000   F0402DE9           PUSH     {R4-R7,LR}
   \   00000004   0040A0E1           MOV      R4,R0
   \   00000008   0150A0E1           MOV      R5,R1
   \   0000000C   0260A0E1           MOV      R6,R2
   \   00000010   0370A0E1           MOV      R7,R3
   \   00000014   1400A0E3           MOV      R0,#+20
   \   00000018   ........           _BLF     `??operator new`,`??operator new??rA`
   \   0000001C   000050E3           CMP      R0,#+0
   \   00000020   0500000A           BEQ      `??new TPCWindow140_3`
   \   00000024   80002DE9           PUSH     {R7}
   \   00000028   0630A0E1           MOV      R3,R6
   \   0000002C   0520A0E1           MOV      R2,R5
   \   00000030   0410A0E1           MOV      R1,R4
   \   00000034   ........           BL       ??TPCWindow140_1
   \   00000038   04D08DE2           ADD      SP,SP,#+4
   \                     `??new TPCWindow140_3`:
   \   0000003C   F040BDE8           POP      {R4-R7,LR}
   \   00000040   1EFF2FE1           BX       LR               ;; return

   \                                 In segment CODE, align 4, keep-with-next
   \   __??Code32?? __code __interwork __atpcs void TPCWindow140::delete ~TPCWindow140(TPCWindow140 *)
   \                     `??delete ~TPCWindow140`:
   \   00000000   10402DE9           PUSH     {R4,LR}
   \   00000004   0040B0E1           MOVS     R4,R0
   \   00000008   0200000A           BEQ      `??delete ~TPCWindow140_1`
   \   0000000C   ........           _BLF     `?~TPCWindow`,`?~TPCWindow??rA`
   \   00000010   0400A0E1           MOV      R0,R4
   \   00000014   ........           _BLF     `??operator delete`,`??operator delete??rA`
   \                     `??delete ~TPCWindow140_1`:
   \   00000018   ........           B        ?Subroutine11

   \                                 In segment CODE, align 4, keep-with-next
   \   static __??Code32?? __intrinsic __code __interwork __atpcs void __sti__routine()
   \                     ??__sti__routine:
   \   00000000   1EFF2FE1           BX       LR               ;; return

   \                                 In segment CODE, align 4, keep-with-next
   \                     ??DataTable1:
   \   00000000   ........           DC32     ??__vtbl
     81          

   Maximum stack usage in bytes:

     Function                       CSTACK
     --------                       ------
     AnsiString::AnsiString(AnsiString const &)
                                       12
     TPCWindow140::LoadConfigString(TSNConfigString &)
                                      204
     TPCWindow140::MakeConfigString(int)
                                      532
     TPCWindow140::MakeWindow(unsigned char *, unsigned short, bool)
                                        0
     TPCWindow140::TPCWindow140()       8
     TPCWindow140::TPCWindow140(PRogramObject *, int, int, int)
                                       12
     TPCWindow140::delete ~TPCWindow140(TPCWindow140 *)
                                        8
     TPCWindow140::new TPCWindow140()
                                        4
     TPCWindow140::new TPCWindow140(PRogramObject *, int, int, int)
                                       24
     TPCWindow140::~TPCWindow140()      4
     __sti__routine()                   0
     operator+(string const &, string const &)
                                       48


   Segment part sizes:

     Function/Label                 Bytes
     --------------                 -----
     operator+(string const &, string const &)
                                     156
     AnsiString::AnsiString(AnsiString const &)
                                      64
     TPCWindow140::TPCWindow140()     24
     ?Subroutine11                     8
     TPCWindow140::TPCWindow140(PRogramObject *, int, int, int)
                                      44
     TPCWindow140::~TPCWindow140()     8
     ?Subroutine10                     8
     TPCWindow140::MakeConfigString(int)
                                     744
     TPCWindow140::LoadConfigString(TSNConfigString &)
                                     464
     TPCWindow140::MakeWindow(unsigned char *, unsigned short, bool)
                                       8
     ?<Constant "0x%0x">               8
     ?<Constant "TPC Window">         12
     TPCWindow140::new TPCWindow140()
                                      28
     TPCWindow140::new TPCWindow140(PRogramObject *, int, int, int)
                                      68
     TPCWindow140::delete ~TPCWindow140(TPCWindow140 *)
                                      28
     __sti__routine()                  4
     ??DataTable1                      4
      Others                         308

 
 1 952 bytes in segment CODE
    32 bytes in segment DATA_C
     4 bytes in segment DIFUNCT
 
 1 444 bytes of CODE  memory (+ 512 bytes shared)
    32 bytes of CONST memory

Errors: none
Warnings: none
