##############################################################################
#                                                                            #
# IAR ARM ANSI C/C++ Compiler V4.42A/W32               14/Sep/2022  15:19:12 #
# Copyright 1999-2005 IAR Systems. All rights reserved.                      #
#                                                                            #
#    Cpu mode        =  interwork                                            #
#    Endian          =  little                                               #
#    Stack alignment =  4                                                    #
#    Source file     =  D:\S2Prog\Shared\Src\TPCWindow.cpp                   #
#    Command line    =  D:\S2Prog\Shared\Src\TPCWindow.cpp --fpu None -D     #
#                       OS_LIBMODE_SP -D CPU_S3C2410 -D OS_RAMVECT=0 -D      #
#                       OS_UART=-1 -D S2TXU -D USE_LZO=1 -D __ARM_LIBRARY__  #
#                       -D WATCHDOG=1 -D NETWORK=1 -lCN                      #
#                       D:\S2Prog\TXU\Debug\List\ -o                         #
#                       D:\S2Prog\TXU\Debug\Obj\ -z9 --debug --cpu_mode arm  #
#                       --endian little --cpu ARM920T --stack_align 4        #
#                       --interwork -e --enable_multibytes --eec++           #
#                       --dlib_config "C:\Program Files (x86)\IAR            #
#                       Systems\Embedded Workbench                           #
#                       4.0\arm\LIB\dl4tpainl8n.h" -I                        #
#                       D:\S2Prog\TXU\GUI\CORE\ -I D:\S2Prog\TXU\GUI\WM\ -I  #
#                       D:\S2Prog\TXU\GUI\WIDGET\ -I D:\S2Prog\TXU\CONFIG\   #
#                       -I D:\S2Prog\TXU\INC\ -I D:\S2Prog\TXU\..\SHARED\INC #
#                       \ -I D:\S2Prog\TXU\..\SHARED\SRC\ -I                 #
#                       D:\S2Prog\TXU\..\SHARED\LZO\minilzo.210\ -I          #
#                       D:\S2Prog\TXU\lwip-1.4.1\src\include\ -I             #
#                       D:\S2Prog\TXU\lwip-1.4.1\src\include\ipv4\ -I        #
#                       D:\S2Prog\TXU\lwip-1.4.1\src\ -I                     #
#                       D:\S2Prog\TXU\..\SHARED\Database\ -I                 #
#                       D:\S2Prog\TXU\src\ -I "C:\Program Files (x86)\IAR    #
#                       Systems\Embedded Workbench 4.0\arm\INC\"             #
#                       --inline_threshold=2                                 #
#    List file       =  D:\S2Prog\TXU\Debug\List\TPCWindow.lst               #
#    Object file     =  D:\S2Prog\TXU\Debug\Obj\TPCWindow.r79                #
#                                                                            #
#                                                                            #
##############################################################################

D:\S2Prog\Shared\Src\TPCWindow.cpp
      1          #include "TSNIncludes.h"

   \                                 In segment CODE, align 4, keep-with-next
   \   __??Code32?? __code __interwork __atpcs void operator+(string const &, string const &)
   \                     `??operator+`:
   \   00000000   F0402DE9           PUSH     {R4-R7,LR}
   \   00000004   1CD04DE2           SUB      SP,SP,#+28
   \   00000008   0040A0E1           MOV      R4,R0
   \   0000000C   0150A0E1           MOV      R5,R1
   \   00000010   0260A0E1           MOV      R6,R2
   \   00000014   0020A0E3           MOV      R2,#+0
   \   00000018   0010A0E3           MOV      R1,#+0
   \   0000001C   0D00A0E1           MOV      R0,SP
   \   00000020   ........           _BLF     ??_Tidy,??_Tidy??rA
   \   00000024   6C009FE5           LDR      R0,`??operator+_1`  ;; ??npos
   \   00000028   0020A0E3           MOV      R2,#+0
   \   0000002C   007090E5           LDR      R7,[R0, #+0]
   \   00000030   0510A0E1           MOV      R1,R5
   \   00000034   0730A0E1           MOV      R3,R7
   \   00000038   0D00A0E1           MOV      R0,SP
   \   0000003C   ........           _BLF     ??assign,??assign??rA
   \   00000040   0730A0E1           MOV      R3,R7
   \   00000044   0020A0E3           MOV      R2,#+0
   \   00000048   0610A0E1           MOV      R1,R6
   \   0000004C   0D00A0E1           MOV      R0,SP
   \   00000050   ........           _BLF     ??append,??append??rA
   \   00000054   0050A0E1           MOV      R5,R0
   \   00000058   0020A0E3           MOV      R2,#+0
   \   0000005C   0210A0E1           MOV      R1,R2
   \   00000060   0400A0E1           MOV      R0,R4
   \   00000064   ........           _BLF     ??_Tidy,??_Tidy??rA
   \   00000068   0730A0E1           MOV      R3,R7
   \   0000006C   0020A0E3           MOV      R2,#+0
   \   00000070   0510A0E1           MOV      R1,R5
   \   00000074   0400A0E1           MOV      R0,R4
   \   00000078   ........           _BLF     ??assign,??assign??rA
   \   0000007C   0020A0E3           MOV      R2,#+0
   \   00000080   0110A0E3           MOV      R1,#+1
   \   00000084   0D00A0E1           MOV      R0,SP
   \   00000088   ........           _BLF     ??_Tidy,??_Tidy??rA
   \   0000008C   1CD08DE2           ADD      SP,SP,#+28
   \   00000090   F040BDE8           POP      {R4-R7,LR}
   \   00000094   1EFF2FE1           BX       LR               ;; return
   \                     `??operator+_1`:
   \   00000098   ........           DC32     ??npos

   \                                 In segment CODE, align 4, keep-with-next
   \   __??Code32?? __code __interwork __atpcs AnsiString::AnsiString(AnsiString const &)
   \                     ??AnsiString:
   \   00000000   30402DE9           PUSH     {R4,R5,LR}
   \   00000004   0040A0E1           MOV      R4,R0
   \   00000008   0150A0E1           MOV      R5,R1
   \   0000000C   0020A0E3           MOV      R2,#+0
   \   00000010   0010A0E3           MOV      R1,#+0
   \   00000014   ........           _BLF     ??_Tidy,??_Tidy??rA
   \   00000018   1C009FE5           LDR      R0,??AnsiString_3  ;; ??npos
   \   0000001C   0020A0E3           MOV      R2,#+0
   \   00000020   003090E5           LDR      R3,[R0, #+0]
   \   00000024   0510A0E1           MOV      R1,R5
   \   00000028   0400A0E1           MOV      R0,R4
   \   0000002C   ........           _BLF     ??assign,??assign??rA
   \   00000030   0400A0E1           MOV      R0,R4
   \   00000034   3040BDE8           POP      {R4,R5,LR}
   \   00000038   1EFF2FE1           BX       LR               ;; return
   \                     ??AnsiString_3:
   \   0000003C   ........           DC32     ??npos
      2          #pragma hdrstop
      3          #ifdef BORLAND
      4          #pragma package(smart_init)
      5          #endif
      6          
      7          //---------------------------------------------------------------------------
      8          

   \                                 In segment CODE, align 4, keep-with-next
      9          TPCWindow::TPCWindow(void)
     10          {
   \                     ??TPCWindow:
   \   00000000   ........           LDR      R1,??DataTable1  ;; ??__vtbl
     11          //  LocationType;
     12          //	Index = 0;
     13          	MainDisplay = SVT_NOT_DEFINED;
     14          	UpperDisplay = SVT_NOT_DEFINED;
     15          	MainGraph    = SVT_NOT_DEFINED;
     16          	//	Graph[TPC_MAX_GRAPHS];
     17          //	BottomDisplay = 0;
     18          //	TopDisplay = 0;
     19          //	ValName = "";
     20          //	LocName = "";
     21          //	MsgPtr = "";
     22          //	DispUVal = 0.0;
     23          //	DispLVal = 0.0;
     24          	// GraphVal[TPC_MAX_GRAPHS];
     25          	PROIDNumber = C_NONE;
   \   00000004   6A20A0E3           MOV      R2,#+106
   \   00000008   101080E5           STR      R1,[R0, #+16]
   \   0000000C   0010A0E3           MOV      R1,#+0
   \   00000010   B010C0E1           STRH     R1,[R0, #+0]
   \   00000014   B210C0E1           STRH     R1,[R0, #+2]
   \   00000018   B410C0E1           STRH     R1,[R0, #+4]
   \   0000001C   082080E5           STR      R2,[R0, #+8]
     26          	PROPtr = NULL;
   \   00000020   0C1080E5           STR      R1,[R0, #+12]
     27          }
   \   00000024   1EFF2FE1           BX       LR               ;; return
     28          

   \                                 In segment CODE, align 4, keep-with-next
     29          TPCWindow::TPCWindow(PRogramObject *PRO, int Lower, int Upper, int Main)
     30          {
   \                     ??TPCWindow_1:
   \   00000000   10002DE9           PUSH     {R4}
   \   00000004   04C09DE5           LDR      R12,[SP, #+4]
   \   00000008   ........           LDR      R4,??DataTable1  ;; ??__vtbl
   \   0000000C   104080E5           STR      R4,[R0, #+16]
     31          //  LocationType;
     32          //	Index = 0;
     33          	MainDisplay = Lower;
   \   00000010   B020C0E1           STRH     R2,[R0, #+0]
     34          	UpperDisplay = Upper;
   \   00000014   B230C0E1           STRH     R3,[R0, #+2]
     35          	MainGraph    = Main;
   \   00000018   B4C0C0E1           STRH     R12,[R0, #+4]
     36          	//	Graph[TPC_MAX_GRAPHS];
     37          //	BottomDisplay = 0;
     38          //	TopDisplay = 0;
     39          //	ValName = "";
     40          //	LocName = "";
     41          //	MsgPtr = "";
     42          //	DispUVal = 0.0;
     43          //	DispLVal = 0.0;
     44          	// GraphVal[TPC_MAX_GRAPHS];
     45          	PROIDNumber = PRO->IDNumber;
   \   0000001C   9C2091E5           LDR      R2,[R1, #+156]
   \   00000020   082080E5           STR      R2,[R0, #+8]
     46          	PROPtr = PRO;
   \   00000024   0C1080E5           STR      R1,[R0, #+12]
     47          }
   \   00000028   1000BDE8           POP      {R4}
   \   0000002C   1EFF2FE1           BX       LR               ;; return
     48          

   \                                 In segment CODE, align 4, keep-with-next
     49          TPCWindow::~TPCWindow(void)
     50          {
     51          }
   \                     `?~TPCWindow`:
   \   00000000   1EFF2FE1           BX       LR               ;; return
     52          //---------------------------------------------------------------------------
     53          
     54          ///////////////////////////////////////////////////////////////
     55          //
     56          // Routines for the Configuration
     57          //
     58          ///////////////////////////////////////////////////////////////
     59          

   \                                 In segment CODE, align 4, keep-with-next
     60          AnsiString TPCWindow::MakeConfigString(int ExtraTabs)
     61          {
   \                     ??MakeConfigString:
   \   00000000   F0432DE9           PUSH     {R4-R9,LR}
     62          	AnsiString LocalString;
     63          	AnsiString IdNumStr;
     64          	IdNumStr.cat_sprintf("0x%0x",PROIDNumber);
     65          	LocalString +=TabStr2+KeyWord(C_TPC_WINDOW)+CrLfStr;
   \   00000004   24649FE5           LDR      R6,??MakeConfigString_1  ;; TabStr2
   \   00000008   24749FE5           LDR      R7,??MakeConfigString_1+0x4  ;; CrLfStr
   \   0000000C   C4DF4DE2           SUB      SP,SP,#+784
   \   00000010   0040A0E1           MOV      R4,R0
     66          	LocalString +=TabStr3+KeyWord(C_TPC_WINDOW_PRO_ID)+IdNumStr+CrLfStr;
   \   00000014   1C949FE5           LDR      R9,??MakeConfigString_1+0x8  ;; TabStr3
   \   00000018   0150A0E1           MOV      R5,R1
   \   0000001C   0500A0E1           MOV      R0,R5
   \   00000020   ........           _BLF     ??AnsiString_1,??AnsiString??rA
   \   00000024   AF0F8DE2           ADD      R0,SP,#+700
   \   00000028   ........           _BLF     ??AnsiString_1,??AnsiString??rA
   \   0000002C   083094E5           LDR      R3,[R4, #+8]
   \   00000030   04249FE5           LDR      R2,??MakeConfigString_1+0xC  ;; `?<Constant "0x%0x">`
   \   00000034   B61F8DE2           ADD      R1,SP,#+728
   \   00000038   AF0F8DE2           ADD      R0,SP,#+700
   \   0000003C   ........           _BLF     ??cat_sprintf,??cat_sprintf??rA
   \   00000040   0020A0E3           MOV      R2,#+0
   \   00000044   0110A0E3           MOV      R1,#+1
   \   00000048   B60F8DE2           ADD      R0,SP,#+728
   \   0000004C   ........           _BLF     ??_Tidy,??_Tidy??rA
   \   00000050   C210A0E3           MOV      R1,#+194
   \   00000054   601E81E3           ORR      R1,R1,#0x600
   \   00000058   38008DE2           ADD      R0,SP,#+56
   \   0000005C   ........           _BLF     ??KeyWord,??KeyWord??rA
   \   00000060   38208DE2           ADD      R2,SP,#+56
   \   00000064   0610A0E1           MOV      R1,R6
   \   00000068   1C008DE2           ADD      R0,SP,#+28
   \   0000006C   ........           _BLF     `??operator+`,`??operator+??rA`
   \   00000070   0720A0E1           MOV      R2,R7
   \   00000074   1C108DE2           ADD      R1,SP,#+28
   \   00000078   0D00A0E1           MOV      R0,SP
   \   0000007C   ........           _BLF     `??operator+`,`??operator+??rA`
   \   00000080   B8039FE5           LDR      R0,??MakeConfigString_1+0x10  ;; ??npos
   \   00000084   0020A0E3           MOV      R2,#+0
   \   00000088   008090E5           LDR      R8,[R0, #+0]
   \   0000008C   0D10A0E1           MOV      R1,SP
   \   00000090   0830A0E1           MOV      R3,R8
   \   00000094   0500A0E1           MOV      R0,R5
   \   00000098   ........           _BLF     ??append,??append??rA
   \   0000009C   0020A0E3           MOV      R2,#+0
   \   000000A0   0110A0E3           MOV      R1,#+1
   \   000000A4   0D00A0E1           MOV      R0,SP
   \   000000A8   ........           _BLF     ??_Tidy,??_Tidy??rA
   \   000000AC   0020A0E3           MOV      R2,#+0
   \   000000B0   0110A0E3           MOV      R1,#+1
   \   000000B4   1C008DE2           ADD      R0,SP,#+28
   \   000000B8   ........           _BLF     ??_Tidy,??_Tidy??rA
   \   000000BC   0020A0E3           MOV      R2,#+0
   \   000000C0   0110A0E3           MOV      R1,#+1
   \   000000C4   38008DE2           ADD      R0,SP,#+56
   \   000000C8   ........           _BLF     ??_Tidy,??_Tidy??rA
   \   000000CC   CC10A0E3           MOV      R1,#+204
   \   000000D0   601E81E3           ORR      R1,R1,#0x600
   \   000000D4   A8008DE2           ADD      R0,SP,#+168
   \   000000D8   ........           _BLF     ??KeyWord,??KeyWord??rA
   \   000000DC   A8208DE2           ADD      R2,SP,#+168
   \   000000E0   0910A0E1           MOV      R1,R9
   \   000000E4   8C008DE2           ADD      R0,SP,#+140
   \   000000E8   ........           _BLF     `??operator+`,`??operator+??rA`
   \   000000EC   AF2F8DE2           ADD      R2,SP,#+700
   \   000000F0   8C108DE2           ADD      R1,SP,#+140
   \   000000F4   70008DE2           ADD      R0,SP,#+112
   \   000000F8   ........           _BLF     `??operator+`,`??operator+??rA`
   \   000000FC   0720A0E1           MOV      R2,R7
   \   00000100   70108DE2           ADD      R1,SP,#+112
   \   00000104   54008DE2           ADD      R0,SP,#+84
   \   00000108   ........           _BLF     `??operator+`,`??operator+??rA`
   \   0000010C   0830A0E1           MOV      R3,R8
   \   00000110   0020A0E3           MOV      R2,#+0
   \   00000114   54108DE2           ADD      R1,SP,#+84
   \   00000118   0500A0E1           MOV      R0,R5
   \   0000011C   ........           _BLF     ??append,??append??rA
   \   00000120   0020A0E3           MOV      R2,#+0
   \   00000124   0110A0E3           MOV      R1,#+1
   \   00000128   54008DE2           ADD      R0,SP,#+84
   \   0000012C   ........           _BLF     ??_Tidy,??_Tidy??rA
   \   00000130   0020A0E3           MOV      R2,#+0
   \   00000134   0110A0E3           MOV      R1,#+1
   \   00000138   70008DE2           ADD      R0,SP,#+112
   \   0000013C   ........           _BLF     ??_Tidy,??_Tidy??rA
   \   00000140   0020A0E3           MOV      R2,#+0
   \   00000144   0110A0E3           MOV      R1,#+1
   \   00000148   8C008DE2           ADD      R0,SP,#+140
   \   0000014C   ........           _BLF     ??_Tidy,??_Tidy??rA
   \   00000150   0020A0E3           MOV      R2,#+0
   \   00000154   0110A0E3           MOV      R1,#+1
   \   00000158   A8008DE2           ADD      R0,SP,#+168
   \   0000015C   ........           _BLF     ??_Tidy,??_Tidy??rA
     67          	LocalString +=TabStr3+KeyWord(C_TPC_UPPER_DISP)+ValueKeyWord(UpperDisplay)+CrLfStr;
   \   00000160   F210D4E1           LDRSH    R1,[R4, #+2]
   \   00000164   4D0F8DE2           ADD      R0,SP,#+308
   \   00000168   ........           _BLF     ??ValueKeyWord,??ValueKeyWord??rA
   \   0000016C   C410A0E3           MOV      R1,#+196
   \   00000170   601E81E3           ORR      R1,R1,#0x600
   \   00000174   460F8DE2           ADD      R0,SP,#+280
   \   00000178   ........           _BLF     ??KeyWord,??KeyWord??rA
   \   0000017C   462F8DE2           ADD      R2,SP,#+280
   \   00000180   0910A0E1           MOV      R1,R9
   \   00000184   FC008DE2           ADD      R0,SP,#+252
   \   00000188   ........           _BLF     `??operator+`,`??operator+??rA`
   \   0000018C   4D2F8DE2           ADD      R2,SP,#+308
   \   00000190   FC108DE2           ADD      R1,SP,#+252
   \   00000194   E0008DE2           ADD      R0,SP,#+224
   \   00000198   ........           _BLF     `??operator+`,`??operator+??rA`
   \   0000019C   0720A0E1           MOV      R2,R7
   \   000001A0   E0108DE2           ADD      R1,SP,#+224
   \   000001A4   C4008DE2           ADD      R0,SP,#+196
   \   000001A8   ........           _BLF     `??operator+`,`??operator+??rA`
   \   000001AC   0830A0E1           MOV      R3,R8
   \   000001B0   0020A0E3           MOV      R2,#+0
   \   000001B4   C4108DE2           ADD      R1,SP,#+196
   \   000001B8   0500A0E1           MOV      R0,R5
   \   000001BC   ........           _BLF     ??append,??append??rA
   \   000001C0   0020A0E3           MOV      R2,#+0
   \   000001C4   0110A0E3           MOV      R1,#+1
   \   000001C8   C4008DE2           ADD      R0,SP,#+196
   \   000001CC   ........           _BLF     ??_Tidy,??_Tidy??rA
   \   000001D0   0020A0E3           MOV      R2,#+0
   \   000001D4   0110A0E3           MOV      R1,#+1
   \   000001D8   E0008DE2           ADD      R0,SP,#+224
   \   000001DC   ........           _BLF     ??_Tidy,??_Tidy??rA
   \   000001E0   0020A0E3           MOV      R2,#+0
   \   000001E4   0110A0E3           MOV      R1,#+1
   \   000001E8   4D0F8DE2           ADD      R0,SP,#+308
   \   000001EC   ........           _BLF     ??_Tidy,??_Tidy??rA
   \   000001F0   0020A0E3           MOV      R2,#+0
   \   000001F4   0110A0E3           MOV      R1,#+1
   \   000001F8   FC008DE2           ADD      R0,SP,#+252
   \   000001FC   ........           _BLF     ??_Tidy,??_Tidy??rA
   \   00000200   0020A0E3           MOV      R2,#+0
   \   00000204   0110A0E3           MOV      R1,#+1
   \   00000208   460F8DE2           ADD      R0,SP,#+280
   \   0000020C   ........           _BLF     ??_Tidy,??_Tidy??rA
     68          	LocalString +=TabStr3+KeyWord(C_TPC_MAIN_DISP)+ValueKeyWord(MainDisplay)+CrLfStr;
   \   00000210   F010D4E1           LDRSH    R1,[R4, #+0]
   \   00000214   700F8DE2           ADD      R0,SP,#+448
   \   00000218   ........           _BLF     ??ValueKeyWord,??ValueKeyWord??rA
   \   0000021C   C510A0E3           MOV      R1,#+197
   \   00000220   601E81E3           ORR      R1,R1,#0x600
   \   00000224   690F8DE2           ADD      R0,SP,#+420
   \   00000228   ........           _BLF     ??KeyWord,??KeyWord??rA
   \   0000022C   692F8DE2           ADD      R2,SP,#+420
   \   00000230   0910A0E1           MOV      R1,R9
   \   00000234   620F8DE2           ADD      R0,SP,#+392
   \   00000238   ........           _BLF     `??operator+`,`??operator+??rA`
   \   0000023C   702F8DE2           ADD      R2,SP,#+448
   \   00000240   621F8DE2           ADD      R1,SP,#+392
   \   00000244   5B0F8DE2           ADD      R0,SP,#+364
   \   00000248   ........           _BLF     `??operator+`,`??operator+??rA`
   \   0000024C   0720A0E1           MOV      R2,R7
   \   00000250   5B1F8DE2           ADD      R1,SP,#+364
   \   00000254   540F8DE2           ADD      R0,SP,#+336
   \   00000258   ........           _BLF     `??operator+`,`??operator+??rA`
   \   0000025C   0830A0E1           MOV      R3,R8
   \   00000260   0020A0E3           MOV      R2,#+0
   \   00000264   541F8DE2           ADD      R1,SP,#+336
   \   00000268   0500A0E1           MOV      R0,R5
   \   0000026C   ........           _BLF     ??append,??append??rA
   \   00000270   0020A0E3           MOV      R2,#+0
   \   00000274   0110A0E3           MOV      R1,#+1
   \   00000278   540F8DE2           ADD      R0,SP,#+336
   \   0000027C   ........           _BLF     ??_Tidy,??_Tidy??rA
   \   00000280   0020A0E3           MOV      R2,#+0
   \   00000284   0110A0E3           MOV      R1,#+1
   \   00000288   5B0F8DE2           ADD      R0,SP,#+364
   \   0000028C   ........           _BLF     ??_Tidy,??_Tidy??rA
   \   00000290   0020A0E3           MOV      R2,#+0
   \   00000294   0110A0E3           MOV      R1,#+1
   \   00000298   700F8DE2           ADD      R0,SP,#+448
   \   0000029C   ........           _BLF     ??_Tidy,??_Tidy??rA
   \   000002A0   0020A0E3           MOV      R2,#+0
   \   000002A4   0110A0E3           MOV      R1,#+1
   \   000002A8   620F8DE2           ADD      R0,SP,#+392
   \   000002AC   ........           _BLF     ??_Tidy,??_Tidy??rA
   \   000002B0   0020A0E3           MOV      R2,#+0
   \   000002B4   0110A0E3           MOV      R1,#+1
   \   000002B8   690F8DE2           ADD      R0,SP,#+420
   \   000002BC   ........           _BLF     ??_Tidy,??_Tidy??rA
     69          	LocalString +=TabStr3+KeyWord(C_TPC_MAIN_GRAPH)+ValueKeyWord(MainGraph)+CrLfStr;
   \   000002C0   F410D4E1           LDRSH    R1,[R4, #+4]
   \   000002C4   930F8DE2           ADD      R0,SP,#+588
   \   000002C8   ........           _BLF     ??ValueKeyWord,??ValueKeyWord??rA
   \   000002CC   C610A0E3           MOV      R1,#+198
   \   000002D0   601E81E3           ORR      R1,R1,#0x600
   \   000002D4   8C0F8DE2           ADD      R0,SP,#+560
   \   000002D8   ........           _BLF     ??KeyWord,??KeyWord??rA
   \   000002DC   8C2F8DE2           ADD      R2,SP,#+560
   \   000002E0   0910A0E1           MOV      R1,R9
   \   000002E4   850F8DE2           ADD      R0,SP,#+532
   \   000002E8   ........           _BLF     `??operator+`,`??operator+??rA`
   \   000002EC   932F8DE2           ADD      R2,SP,#+588
   \   000002F0   851F8DE2           ADD      R1,SP,#+532
   \   000002F4   7E0F8DE2           ADD      R0,SP,#+504
   \   000002F8   ........           _BLF     `??operator+`,`??operator+??rA`
   \   000002FC   0720A0E1           MOV      R2,R7
   \   00000300   7E1F8DE2           ADD      R1,SP,#+504
   \   00000304   770F8DE2           ADD      R0,SP,#+476
   \   00000308   ........           _BLF     `??operator+`,`??operator+??rA`
   \   0000030C   0830A0E1           MOV      R3,R8
   \   00000310   0020A0E3           MOV      R2,#+0
   \   00000314   771F8DE2           ADD      R1,SP,#+476
   \   00000318   0500A0E1           MOV      R0,R5
   \   0000031C   ........           _BLF     ??append,??append??rA
   \   00000320   0020A0E3           MOV      R2,#+0
   \   00000324   0110A0E3           MOV      R1,#+1
   \   00000328   770F8DE2           ADD      R0,SP,#+476
   \   0000032C   ........           _BLF     ??_Tidy,??_Tidy??rA
   \   00000330   0020A0E3           MOV      R2,#+0
   \   00000334   0110A0E3           MOV      R1,#+1
   \   00000338   7E0F8DE2           ADD      R0,SP,#+504
   \   0000033C   ........           _BLF     ??_Tidy,??_Tidy??rA
   \   00000340   0020A0E3           MOV      R2,#+0
   \   00000344   0110A0E3           MOV      R1,#+1
   \   00000348   930F8DE2           ADD      R0,SP,#+588
   \   0000034C   ........           _BLF     ??_Tidy,??_Tidy??rA
   \   00000350   0020A0E3           MOV      R2,#+0
   \   00000354   0110A0E3           MOV      R1,#+1
   \   00000358   850F8DE2           ADD      R0,SP,#+532
   \   0000035C   ........           _BLF     ??_Tidy,??_Tidy??rA
   \   00000360   0020A0E3           MOV      R2,#+0
   \   00000364   0110A0E3           MOV      R1,#+1
   \   00000368   8C0F8DE2           ADD      R0,SP,#+560
   \   0000036C   ........           _BLF     ??_Tidy,??_Tidy??rA
     70          	LocalString +=TabStr2+KeyWord(C_TPC_END_WINDOW)+CrLfStr;
   \   00000370   C310A0E3           MOV      R1,#+195
   \   00000374   601E81E3           ORR      R1,R1,#0x600
   \   00000378   A80F8DE2           ADD      R0,SP,#+672
   \   0000037C   ........           _BLF     ??KeyWord,??KeyWord??rA
   \   00000380   A82F8DE2           ADD      R2,SP,#+672
   \   00000384   0610A0E1           MOV      R1,R6
   \   00000388   A10F8DE2           ADD      R0,SP,#+644
   \   0000038C   ........           _BLF     `??operator+`,`??operator+??rA`
   \   00000390   0720A0E1           MOV      R2,R7
   \   00000394   A11F8DE2           ADD      R1,SP,#+644
   \   00000398   9A0F8DE2           ADD      R0,SP,#+616
   \   0000039C   ........           _BLF     `??operator+`,`??operator+??rA`
   \   000003A0   0830A0E1           MOV      R3,R8
   \   000003A4   0020A0E3           MOV      R2,#+0
   \   000003A8   9A1F8DE2           ADD      R1,SP,#+616
   \   000003AC   0500A0E1           MOV      R0,R5
   \   000003B0   ........           _BLF     ??append,??append??rA
   \   000003B4   0020A0E3           MOV      R2,#+0
   \   000003B8   0110A0E3           MOV      R1,#+1
   \   000003BC   9A0F8DE2           ADD      R0,SP,#+616
   \   000003C0   ........           _BLF     ??_Tidy,??_Tidy??rA
   \   000003C4   0020A0E3           MOV      R2,#+0
   \   000003C8   0110A0E3           MOV      R1,#+1
   \   000003CC   A10F8DE2           ADD      R0,SP,#+644
   \   000003D0   ........           _BLF     ??_Tidy,??_Tidy??rA
   \   000003D4   0020A0E3           MOV      R2,#+0
   \   000003D8   0110A0E3           MOV      R1,#+1
   \   000003DC   A80F8DE2           ADD      R0,SP,#+672
   \   000003E0   ........           _BLF     ??_Tidy,??_Tidy??rA
     71          	LocalString +=(AnsiString) NewLineStr;
   \   000003E4   58109FE5           LDR      R1,??MakeConfigString_1+0x14  ;; NewLineStr
   \   000003E8   BD0F8DE2           ADD      R0,SP,#+756
   \   000003EC   ........           _BLF     ??AnsiString,??AnsiString??rA_1
   \   000003F0   0830A0E1           MOV      R3,R8
   \   000003F4   0020A0E3           MOV      R2,#+0
   \   000003F8   0010A0E1           MOV      R1,R0
   \   000003FC   0500A0E1           MOV      R0,R5
   \   00000400   ........           _BLF     ??append,??append??rA
   \   00000404   0020A0E3           MOV      R2,#+0
   \   00000408   0110A0E3           MOV      R1,#+1
   \   0000040C   BD0F8DE2           ADD      R0,SP,#+756
   \   00000410   ........           _BLF     ??_Tidy,??_Tidy??rA
     72          	return (LocalString);
   \   00000414   0020A0E3           MOV      R2,#+0
   \   00000418   0110A0E3           MOV      R1,#+1
   \   0000041C   AF0F8DE2           ADD      R0,SP,#+700
   \   00000420   ........           _BLF     ??_Tidy,??_Tidy??rA
   \   00000424   C4DF8DE2           ADD      SP,SP,#+784
   \   00000428   F043BDE8           POP      {R4-R9,LR}
   \   0000042C   1EFF2FE1           BX       LR               ;; return
   \                     ??MakeConfigString_1:
   \   00000430   ........           DC32     TabStr2
   \   00000434   ........           DC32     CrLfStr
   \   00000438   ........           DC32     TabStr3
   \   0000043C   ........           DC32     `?<Constant "0x%0x">`
   \   00000440   ........           DC32     ??npos
   \   00000444   ........           DC32     NewLineStr
     73          }
     74          //---------------------------------------------------------------------------
     75          

   \                                 In segment CODE, align 4, keep-with-next
     76          bool TPCWindow::LoadConfigString(TSNConfigString &ConfigString)
     77          {
   \                     ??LoadConfigString:
   \   00000000   F0472DE9           PUSH     {R4-R10,LR}
     78          	bool NoError = true;
     79          	int ErrorLine=0;
   \   00000004   3CA29FE5           LDR      R10,??LoadConfigString_2  ;; `?<Constant "TPC Window">`
   \   00000008   ACD04DE2           SUB      SP,SP,#+172
   \   0000000C   0040A0E1           MOV      R4,R0
   \   00000010   0150A0E1           MOV      R5,R1
   \   00000014   0190A0E3           MOV      R9,#+1
   \   00000018   0010A0E3           MOV      R1,#+0
   \   0000001C   00108DE5           STR      R1,[SP, #+0]
   \   00000020   0160E0E1           MVN      R6,R1
     80          	int Key;
     81          	do {
     82          		AnsiString InputKeyWord= ConfigString.NextWord(ErrorLine);
   \                     ??LoadConfigString_3:
   \   00000024   0030A0E3           MOV      R3,#+0
   \   00000028   0D20A0E1           MOV      R2,SP
   \   0000002C   3C108DE2           ADD      R1,SP,#+60
   \   00000030   0500A0E1           MOV      R0,R5
   \   00000034   ........           _BLF     ??NextWord,??NextWord??rA
     83          		if ( ErrorLine ) {
   \   00000038   00009DE5           LDR      R0,[SP, #+0]
   \   0000003C   000050E3           CMP      R0,#+0
   \   00000040   0A00000A           BEQ      ??LoadConfigString_4
     84          			if ( ErrorLine != EOF ) {
   \   00000044   060050E1           CMP      R0,R6
   \   00000048   6F00000A           BEQ      ??LoadConfigString_5
     85          				GiveConfigWarning((AnsiString)"TPC Window",ErrorLine);
   \   0000004C   0A10A0E1           MOV      R1,R10
   \   00000050   04008DE2           ADD      R0,SP,#+4
   \   00000054   ........           _BLF     ??AnsiString_2,??AnsiString??rA_2
   \   00000058   00109DE5           LDR      R1,[SP, #+0]
   \   0000005C   ........           _BLF     ??GiveConfigWarning,??GiveConfigWarning??rA
   \   00000060   0020A0E3           MOV      R2,#+0
   \                     ??LoadConfigString_6:
   \   00000064   0110A0E3           MOV      R1,#+1
   \   00000068   04008DE2           ADD      R0,SP,#+4
   \   0000006C   650000EA           B        ??LoadConfigString_7
     86          			}
     87          		} else {
     88          			Key = FindConfigKey(InputKeyWord);
   \                     ??LoadConfigString_4:
   \   00000070   3C108DE2           ADD      R1,SP,#+60
   \   00000074   58008DE2           ADD      R0,SP,#+88
   \   00000078   ........           _BLF     ??AnsiString,??AnsiString??rA_1
   \   0000007C   ........           _BLF     ??FindConfigKey,??FindConfigKey??rA
   \   00000080   0070A0E1           MOV      R7,R0
   \   00000084   0020A0E3           MOV      R2,#+0
   \   00000088   0110A0E3           MOV      R1,#+1
   \   0000008C   58008DE2           ADD      R0,SP,#+88
   \   00000090   ........           _BLF     ??_Tidy,??_Tidy??rA
     89          			switch ( Key ) {
   \   00000094   C30047E2           SUB      R0,R7,#+195
   \   00000098   600E40E2           SUB      R0,R0,#+1536
   \   0000009C   090050E3           CMP      R0,#+9
   \   000000A0   0500008A           BHI      ??LoadConfigString_8
   \   000000A4   011F8FE2           ADR      R1,??LoadConfigString_1
   \   000000A8   0010D1E7           LDRB     R1,[R1, R0]
   \   000000AC   01F18FE0           ADD      PC,PC,R1, LSL #+2
   \                     ??LoadConfigString_1:
   \   000000B0   56212C40           DC8      +86,+33,+44,+64
   \   000000B4   02020202           DC8      +2,+2,+2,+2
   \   000000B8   02140000           DC8      +2,+20,+0,+0
     90          				default:
     91          					GiveConfigWarning((AnsiString)"TPC Window",InputKeyWord,ConfigString.LineCount);
   \                     ??LoadConfigString_8:
   \   000000BC   3C108DE2           ADD      R1,SP,#+60
   \   000000C0   74008DE2           ADD      R0,SP,#+116
   \   000000C4   ........           _BLF     ??AnsiString,??AnsiString??rA_1
   \   000000C8   0080A0E1           MOV      R8,R0
   \   000000CC   0A10A0E1           MOV      R1,R10
   \   000000D0   90008DE2           ADD      R0,SP,#+144
   \   000000D4   ........           _BLF     ??AnsiString_2,??AnsiString??rA_2
   \   000000D8   1C2095E5           LDR      R2,[R5, #+28]
   \   000000DC   0810A0E1           MOV      R1,R8
   \   000000E0   ........           _BLF     ??GiveConfigWarning_1,??GiveConfigWarning??rA_1
   \   000000E4   0020A0E3           MOV      R2,#+0
   \   000000E8   0110A0E3           MOV      R1,#+1
   \   000000EC   74008DE2           ADD      R0,SP,#+116
   \   000000F0   ........           _BLF     ??_Tidy,??_Tidy??rA
   \   000000F4   0020A0E3           MOV      R2,#+0
   \   000000F8   0110A0E3           MOV      R1,#+1
   \   000000FC   90008DE2           ADD      R0,SP,#+144
   \   00000100   400000EA           B        ??LoadConfigString_7
     92          					break;
     93          				case C_TPC_END_WINDOW:
     94          					break;
     95          				case C_TPC_WINDOW_PRO_ID:
     96          					{
     97          						PROIDNumber = ConfigString.ReadInteger(ErrorLine);
   \                     ??LoadConfigString_9:
   \   00000104   0020A0E3           MOV      R2,#+0
   \   00000108   0D10A0E1           MOV      R1,SP
   \   0000010C   0500A0E1           MOV      R0,R5
   \   00000110   ........           _BLF     ??ReadInteger,??ReadInteger??rA
   \   00000114   080084E5           STR      R0,[R4, #+8]
     98          						PROPtr = (PRogramObject*)FindPROFromIDNumber(PROIDNumber);
   \   00000118   0010A0E3           MOV      R1,#+0
   \   0000011C   ........           _BLF     ??FindPROFromIDNumber,??FindPROFromIDNumber??rA
   \   00000120   0C0084E5           STR      R0,[R4, #+12]
     99          						NoError = !ErrorLine;
   \   00000124   00009DE5           LDR      R0,[SP, #+0]
   \   00000128   000050E3           CMP      R0,#+0
   \   0000012C   0090A013           MOVNE    R9,#+0
   \   00000130   0190A003           MOVEQ    R9,#+1
   \   00000134   340000EA           B        ??LoadConfigString_5
    100          					}
    101          					break;
    102          				case C_TPC_UPPER_DISP:
    103          					{
    104          						AnsiString tempStr = ConfigString.NextWord(ErrorLine);
   \                     ??LoadConfigString_10:
   \   00000138   0030A0E3           MOV      R3,#+0
   \   0000013C   0D20A0E1           MOV      R2,SP
   \   00000140   20108DE2           ADD      R1,SP,#+32
   \   00000144   0500A0E1           MOV      R0,R5
   \   00000148   ........           _BLF     ??NextWord,??NextWord??rA
    105          						UpperDisplay = FindValueConfigKey(tempStr);
   \   0000014C   20108DE2           ADD      R1,SP,#+32
   \   00000150   04008DE2           ADD      R0,SP,#+4
   \   00000154   ........           _BLF     ??AnsiString,??AnsiString??rA_1
   \   00000158   ........           _BLF     ??FindValueConfigKey,??FindValueConfigKey??rA
   \   0000015C   B200C4E1           STRH     R0,[R4, #+2]
   \   00000160   1D0000EA           B        ??LoadConfigString_11
    106          						NoError = !ErrorLine;
    107          					}
    108          					break;
    109          				case C_TPC_MAIN_DISP:
    110          					{
    111          						AnsiString tempStr = ConfigString.NextWord(ErrorLine);
   \                     ??LoadConfigString_12:
   \   00000164   0030A0E3           MOV      R3,#+0
   \   00000168   0D20A0E1           MOV      R2,SP
   \   0000016C   04108DE2           ADD      R1,SP,#+4
   \   00000170   0500A0E1           MOV      R0,R5
   \   00000174   ........           _BLF     ??NextWord,??NextWord??rA
    112          						MainDisplay = FindValueConfigKey(tempStr);
   \   00000178   04108DE2           ADD      R1,SP,#+4
   \   0000017C   20008DE2           ADD      R0,SP,#+32
   \   00000180   ........           _BLF     ??AnsiString,??AnsiString??rA_1
   \   00000184   ........           _BLF     ??FindValueConfigKey,??FindValueConfigKey??rA
   \   00000188   B000C4E1           STRH     R0,[R4, #+0]
   \   0000018C   0020A0E3           MOV      R2,#+0
   \   00000190   0110A0E3           MOV      R1,#+1
   \   00000194   20008DE2           ADD      R0,SP,#+32
   \   00000198   ........           _BLF     ??_Tidy,??_Tidy??rA
    113          						NoError = !ErrorLine;
   \   0000019C   00009DE5           LDR      R0,[SP, #+0]
    114          					}
   \   000001A0   0020A0E3           MOV      R2,#+0
   \   000001A4   000050E3           CMP      R0,#+0
   \   000001A8   0190A003           MOVEQ    R9,#+1
   \   000001AC   0090A013           MOVNE    R9,#+0
   \   000001B0   ABFFFFEA           B        ??LoadConfigString_6
    115          					break;
    116          				case C_TPC_MAIN_GRAPH:
    117          					{
    118          						AnsiString tempStr = ConfigString.NextWord(ErrorLine);
   \                     ??LoadConfigString_13:
   \   000001B4   0030A0E3           MOV      R3,#+0
   \   000001B8   0D20A0E1           MOV      R2,SP
   \   000001BC   20108DE2           ADD      R1,SP,#+32
   \   000001C0   0500A0E1           MOV      R0,R5
   \   000001C4   ........           _BLF     ??NextWord,??NextWord??rA
    119          						MainGraph = FindValueConfigKey(tempStr);
   \   000001C8   20108DE2           ADD      R1,SP,#+32
   \   000001CC   04008DE2           ADD      R0,SP,#+4
   \   000001D0   ........           _BLF     ??AnsiString,??AnsiString??rA_1
   \   000001D4   ........           _BLF     ??FindValueConfigKey,??FindValueConfigKey??rA
   \   000001D8   B400C4E1           STRH     R0,[R4, #+4]
   \                     ??LoadConfigString_11:
   \   000001DC   0020A0E3           MOV      R2,#+0
   \   000001E0   0110A0E3           MOV      R1,#+1
   \   000001E4   04008DE2           ADD      R0,SP,#+4
   \   000001E8   ........           _BLF     ??_Tidy,??_Tidy??rA
    120          						NoError = !ErrorLine;
   \   000001EC   00009DE5           LDR      R0,[SP, #+0]
    121          					}
   \   000001F0   0020A0E3           MOV      R2,#+0
   \   000001F4   000050E3           CMP      R0,#+0
   \   000001F8   0190A003           MOVEQ    R9,#+1
   \   000001FC   0090A013           MOVNE    R9,#+0
   \   00000200   0110A0E3           MOV      R1,#+1
   \   00000204   20008DE2           ADD      R0,SP,#+32
   \                     ??LoadConfigString_7:
   \   00000208   ........           _BLF     ??_Tidy,??_Tidy??rA
    122          					break;
    123          			}
    124          		}
    125          	}while ( NoError && ( ErrorLine != EOF )&& ( Key != C_TPC_END_WINDOW ) );
   \                     ??LoadConfigString_5:
   \   0000020C   0020A0E3           MOV      R2,#+0
   \   00000210   0110A0E3           MOV      R1,#+1
   \   00000214   3C008DE2           ADD      R0,SP,#+60
   \   00000218   ........           _BLF     ??_Tidy,??_Tidy??rA
   \   0000021C   000059E3           CMP      R9,#+0
   \   00000220   00009D15           LDRNE    R0,[SP, #+0]
   \   00000224   06005011           CMPNE    R0,R6
   \   00000228   C300A013           MOVNE    R0,#+195
   \   0000022C   600E8013           ORRNE    R0,R0,#0x600
   \   00000230   00005711           CMPNE    R7,R0
   \   00000234   7AFFFF1A           BNE      ??LoadConfigString_3
    126          	return (NoError);
   \   00000238   0900A0E1           MOV      R0,R9
   \   0000023C   ACD08DE2           ADD      SP,SP,#+172
   \   00000240   F047BDE8           POP      {R4-R10,LR}
   \   00000244   1EFF2FE1           BX       LR               ;; return
   \                     ??LoadConfigString_2:
   \   00000248   ........           DC32     `?<Constant "TPC Window">`
    127          }
    128          //---------------------------------------------------------------------------
    129          

   \                                 In segment CODE, align 4, keep-with-next
    130          U16 TPCWindow::MakeWindow(U8 *TxBuf,U16 Ptr, bool Update)
    131          {
    132          	return 0;
   \                     ??MakeWindow:
   \   00000000   0000A0E3           MOV      R0,#+0
   \   00000004   1EFF2FE1           BX       LR               ;; return
    133          }

   \                                 In segment DIFUNCT, align 4, keep-with-next, root
   \   00000000                      REQUIRE ?call_ctors
   \   00000000   ........           DC32    ??__sti__routine

   \                                 In segment DATA_C, align 4, align-sorted
   \                     `?<Constant "0x%0x">`:
   \   00000000   307825307800       DC8 "0x%0x"
   \   00000006   0000               DC8 0, 0

   \                                 In segment DATA_C, align 4, align-sorted
   \                     `?<Constant "TPC Window">`:
   \   00000000   545043205769       DC8 "TPC Window"
   \              6E646F7700  
   \   0000000B   00                 DC8 0

   \                                 In segment CODE, align 4, keep-with-next
   \   __??Code32?? __code __interwork __atpcs TPCWindow &TPCWindow::new TPCWindow()
   \                     `??new TPCWindow`:
   \   00000000   00402DE9           PUSH     {LR}
   \   00000004   1400A0E3           MOV      R0,#+20
   \   00000008   ........           _BLF     `??operator new`,`??operator new??rA`
   \   0000000C   000050E3           CMP      R0,#+0
   \   00000010   0000000A           BEQ      `??new TPCWindow_2`
   \   00000014   ........           BL       ??TPCWindow
   \                     `??new TPCWindow_2`:
   \   00000018   ........           B        ?Subroutine10

   \                                 In segment CODE, align 4, keep-with-next
   \   __??Code32?? __code __interwork __atpcs TPCWindow &TPCWindow::new TPCWindow(PRogramObject *, int, int, int)
   \                     `??new TPCWindow_1`:
   \   00000000   F0402DE9           PUSH     {R4-R7,LR}
   \   00000004   0040A0E1           MOV      R4,R0
   \   00000008   0150A0E1           MOV      R5,R1
   \   0000000C   0260A0E1           MOV      R6,R2
   \   00000010   0370A0E1           MOV      R7,R3
   \   00000014   1400A0E3           MOV      R0,#+20
   \   00000018   ........           _BLF     `??operator new`,`??operator new??rA`
   \   0000001C   000050E3           CMP      R0,#+0
   \   00000020   0500000A           BEQ      `??new TPCWindow_3`
   \   00000024   80002DE9           PUSH     {R7}
   \   00000028   0630A0E1           MOV      R3,R6
   \   0000002C   0520A0E1           MOV      R2,R5
   \   00000030   0410A0E1           MOV      R1,R4
   \   00000034   ........           BL       ??TPCWindow_1
   \   00000038   04D08DE2           ADD      SP,SP,#+4
   \                     `??new TPCWindow_3`:
   \   0000003C   F040BDE8           POP      {R4-R7,LR}
   \   00000040   1EFF2FE1           BX       LR               ;; return

   \                                 In segment CODE, align 4, keep-with-next
   \   __??Code32?? __code __interwork __atpcs void TPCWindow::delete ~TPCWindow(TPCWindow *)
   \                     `??delete ~TPCWindow`:
   \   00000000   00402DE9           PUSH     {LR}
   \   00000004   000050E3           CMP      R0,#+0
   \   00000008   0000000A           BEQ      `??delete ~TPCWindow_1`
   \   0000000C   ........           _BLF     `??operator delete`,`??operator delete??rA`
   \                     `??delete ~TPCWindow_1`:
   \   00000010                      REQUIRE ?Subroutine10
   \   00000010                      ;; // Fall through to label ?Subroutine10

   \                                 In segment CODE, align 4, keep-with-next
   \                     ?Subroutine10:
   \   00000000   0040BDE8           POP      {LR}
   \   00000004   1EFF2FE1           BX       LR               ;; return

   \                                 In segment CODE, align 4, keep-with-next
   \   static __??Code32?? __intrinsic __code __interwork __atpcs void __sti__routine()
   \                     ??__sti__routine:
   \   00000000   1EFF2FE1           BX       LR               ;; return

   \                                 In segment CODE, align 4, keep-with-next
   \                     ??DataTable1:
   \   00000000   ........           DC32     ??__vtbl
    134          

   Maximum stack usage in bytes:

     Function                       CSTACK
     --------                       ------
     AnsiString::AnsiString(AnsiString const &)
                                       12
     TPCWindow::LoadConfigString(TSNConfigString &)
                                      204
     TPCWindow::MakeConfigString(int)
                                      812
     TPCWindow::MakeWindow(unsigned char *, unsigned short, bool)
                                        0
     TPCWindow::TPCWindow()             0
     TPCWindow::TPCWindow(PRogramObject *, int, int, int)
                                        4
     TPCWindow::delete ~TPCWindow(TPCWindow *)
                                        4
     TPCWindow::new TPCWindow()         4
     TPCWindow::new TPCWindow(PRogramObject *, int, int, int)
                                       24
     TPCWindow::~TPCWindow()            0
     __sti__routine()                   0
     operator+(string const &, string const &)
                                       48


   Segment part sizes:

     Function/Label                 Bytes
     --------------                 -----
     operator+(string const &, string const &)
                                     156
     AnsiString::AnsiString(AnsiString const &)
                                      64
     TPCWindow::TPCWindow()           40
     TPCWindow::TPCWindow(PRogramObject *, int, int, int)
                                      48
     TPCWindow::~TPCWindow()           4
     TPCWindow::MakeConfigString(int)
                                    1096
     TPCWindow::LoadConfigString(TSNConfigString &)
                                     588
     TPCWindow::MakeWindow(unsigned char *, unsigned short, bool)
                                       8
     ?<Constant "0x%0x">               8
     ?<Constant "TPC Window">         12
     TPCWindow::new TPCWindow()       28
     TPCWindow::new TPCWindow(PRogramObject *, int, int, int)
                                      68
     TPCWindow::delete ~TPCWindow(TPCWindow *)
                                      16
     ?Subroutine10                     8
     __sti__routine()                  4
     ??DataTable1                      4
      Others                         284

 
 2 400 bytes in segment CODE
    32 bytes in segment DATA_C
     4 bytes in segment DIFUNCT
 
 1 916 bytes of CODE  memory (+ 488 bytes shared)
    32 bytes of CONST memory

Errors: none
Warnings: none
