##############################################################################
#                                                                            #
# IAR ARM ANSI C/C++ Compiler V4.42A/W32               14/Sep/2022  15:19:19 #
# Copyright 1999-2005 IAR Systems. All rights reserved.                      #
#                                                                            #
#    Cpu mode        =  interwork                                            #
#    Endian          =  little                                               #
#    Stack alignment =  4                                                    #
#    Source file     =  D:\S2Prog\Shared\Src\TPCxObject.cpp                  #
#    Command line    =  D:\S2Prog\Shared\Src\TPCxObject.cpp --fpu None -D    #
#                       OS_LIBMODE_SP -D CPU_S3C2410 -D OS_RAMVECT=0 -D      #
#                       OS_UART=-1 -D S2TXU -D USE_LZO=1 -D __ARM_LIBRARY__  #
#                       -D WATCHDOG=1 -D NETWORK=1 -lCN                      #
#                       D:\S2Prog\TXU\Debug\List\ -o                         #
#                       D:\S2Prog\TXU\Debug\Obj\ -z9 --debug --cpu_mode arm  #
#                       --endian little --cpu ARM920T --stack_align 4        #
#                       --interwork -e --enable_multibytes --eec++           #
#                       --dlib_config "C:\Program Files (x86)\IAR            #
#                       Systems\Embedded Workbench                           #
#                       4.0\arm\LIB\dl4tpainl8n.h" -I                        #
#                       D:\S2Prog\TXU\GUI\CORE\ -I D:\S2Prog\TXU\GUI\WM\ -I  #
#                       D:\S2Prog\TXU\GUI\WIDGET\ -I D:\S2Prog\TXU\CONFIG\   #
#                       -I D:\S2Prog\TXU\INC\ -I D:\S2Prog\TXU\..\SHARED\INC #
#                       \ -I D:\S2Prog\TXU\..\SHARED\SRC\ -I                 #
#                       D:\S2Prog\TXU\..\SHARED\LZO\minilzo.210\ -I          #
#                       D:\S2Prog\TXU\lwip-1.4.1\src\include\ -I             #
#                       D:\S2Prog\TXU\lwip-1.4.1\src\include\ipv4\ -I        #
#                       D:\S2Prog\TXU\lwip-1.4.1\src\ -I                     #
#                       D:\S2Prog\TXU\..\SHARED\Database\ -I                 #
#                       D:\S2Prog\TXU\src\ -I "C:\Program Files (x86)\IAR    #
#                       Systems\Embedded Workbench 4.0\arm\INC\"             #
#                       --inline_threshold=2                                 #
#    List file       =  D:\S2Prog\TXU\Debug\List\TPCxObject.lst              #
#    Object file     =  D:\S2Prog\TXU\Debug\Obj\TPCxObject.r79               #
#                                                                            #
#                                                                            #
##############################################################################

D:\S2Prog\Shared\Src\TPCxObject.cpp
      1          #include "TSNIncludes.h"

   \                                 In segment CODE, align 4, keep-with-next
   \   __??Code32?? __code __interwork __atpcs string::string(string const &)
   \                     ??string:
   \   00000000   30402DE9           PUSH     {R4,R5,LR}
   \   00000004   0040A0E1           MOV      R4,R0
   \   00000008   0150A0E1           MOV      R5,R1
   \   0000000C   0020A0E3           MOV      R2,#+0
   \   00000010   0010A0E3           MOV      R1,#+0
   \   00000014   ........           _BLF     ??_Tidy,??_Tidy??rA
   \   00000018   1C009FE5           LDR      R0,??string_1    ;; ??npos
   \   0000001C   0020A0E3           MOV      R2,#+0
   \   00000020   003090E5           LDR      R3,[R0, #+0]
   \   00000024   0510A0E1           MOV      R1,R5
   \   00000028   0400A0E1           MOV      R0,R4
   \   0000002C   ........           _BLF     ??assign,??assign??rA
   \   00000030   0400A0E1           MOV      R0,R4
   \   00000034   3040BDE8           POP      {R4,R5,LR}
   \   00000038   1EFF2FE1           BX       LR               ;; return
   \                     ??string_1:
   \   0000003C   ........           DC32     ??npos

   \                                 In segment CODE, align 4, keep-with-next
   \   __??Code32?? __code __interwork __atpcs char const *string::c_str() const
   \                     ??c_str:
   \   00000000   181090E5           LDR      R1,[R0, #+24]
   \   00000004   100051E3           CMP      R1,#+16
   \   00000008   04009025           LDRCS    R0,[R0, #+4]
   \   0000000C   1EFF2F21           BXCS     LR
   \   00000010   040080E2           ADD      R0,R0,#+4
   \   00000014   1EFF2FE1           BX       LR               ;; return

   \                                 In segment CODE, align 4, keep-with-next
   \   __??Code32?? __code __interwork __atpcs _Tree_algobase<allocator<void>>::_Genptr _Tree_algobase<allocator<void>>::_Max(_Tree_algobase<allocator<void>>::_Genptr)
   \                     ??_Max:
   \   00000000   000000EA           B        ??_Max_1
   \                     ??_Max_2:
   \   00000004   080090E5           LDR      R0,[R0, #+8]
   \                     ??_Max_1:
   \   00000008   081090E5           LDR      R1,[R0, #+8]
   \   0000000C   0D10D1E5           LDRB     R1,[R1, #+13]
   \   00000010   000051E3           CMP      R1,#+0
   \   00000014   FAFFFF0A           BEQ      ??_Max_2
   \   00000018   1EFF2FE1           BX       LR               ;; return

   \                                 In segment CODE, align 4, keep-with-next
   \   __??Code32?? __code __interwork __atpcs _Tree_algobase<allocator<void>>::_Genptr _Tree_algobase<allocator<void>>::_DecP(_Tree_algobase<allocator<void>>::_Genptr)
   \                     ??_DecP:
   \   00000000   00402DE9           PUSH     {LR}
   \   00000004   0D10D0E5           LDRB     R1,[R0, #+13]
   \   00000008   000051E3           CMP      R1,#+0
   \   0000000C   08009015           LDRNE    R0,[R0, #+8]
   \   00000010   0E00001A           BNE      ??_DecP_1
   \   00000014   001090E5           LDR      R1,[R0, #+0]
   \   00000018   0D20D1E5           LDRB     R2,[R1, #+13]
   \   0000001C   000052E3           CMP      R2,#+0
   \   00000020   0200001A           BNE      ??_DecP_2
   \   00000024   0100A0E1           MOV      R0,R1
   \   00000028   ........           _BLF     ??_Max,??_Max??rA
   \   0000002C   070000EA           B        ??_DecP_1
   \                     ??_DecP_2:
   \   00000030   041090E5           LDR      R1,[R0, #+4]
   \   00000034   0D20D1E5           LDRB     R2,[R1, #+13]
   \   00000038   000052E3           CMP      R2,#+0
   \   0000003C   0300001A           BNE      ??_DecP_1
   \   00000040   002091E5           LDR      R2,[R1, #+0]
   \   00000044   020050E1           CMP      R0,R2
   \   00000048   0100A0E1           MOV      R0,R1
   \   0000004C   F7FFFF0A           BEQ      ??_DecP_2
   \                     ??_DecP_1:
   \   00000050   0040BDE8           POP      {LR}
   \   00000054   1EFF2FE1           BX       LR               ;; return

   \                                 In segment CODE, align 4, keep-with-next
   \   __??Code32?? __code __interwork __atpcs _Tree_algobase<allocator<void>>::_Genptr _Tree_algobase<allocator<void>>::_IncP(_Tree_algobase<allocator<void>>::_Genptr)
   \                     ??_IncP:
   \   00000000   0D10D0E5           LDRB     R1,[R0, #+13]
   \   00000004   000051E3           CMP      R1,#+0
   \   00000008   1EFF2F11           BXNE     LR
   \   0000000C   081090E5           LDR      R1,[R0, #+8]
   \   00000010   0D20D1E5           LDRB     R2,[R1, #+13]
   \   00000014   000052E3           CMP      R2,#+0
   \   00000018   0700001A           BNE      ??_IncP_1
   \   0000001C   000000EA           B        ??_IncP_2
   \                     ??_IncP_3:
   \   00000020   0010A0E1           MOV      R1,R0
   \                     ??_IncP_2:
   \   00000024   000091E5           LDR      R0,[R1, #+0]
   \   00000028   0D20D0E5           LDRB     R2,[R0, #+13]
   \   0000002C   000052E3           CMP      R2,#+0
   \   00000030   FAFFFF0A           BEQ      ??_IncP_3
   \   00000034   060000EA           B        ??_IncP_4
   \                     ??_IncP_5:
   \   00000038   0100A0E1           MOV      R0,R1
   \                     ??_IncP_1:
   \   0000003C   041090E5           LDR      R1,[R0, #+4]
   \   00000040   0D20D1E5           LDRB     R2,[R1, #+13]
   \   00000044   000052E3           CMP      R2,#+0
   \   00000048   08209105           LDREQ    R2,[R1, #+8]
   \   0000004C   02005001           CMPEQ    R0,R2
   \   00000050   F8FFFF0A           BEQ      ??_IncP_5
   \                     ??_IncP_4:
   \   00000054   0100A0E1           MOV      R0,R1
   \   00000058   1EFF2FE1           BX       LR               ;; return

   \                                 In segment CODE, align 4, keep-with-next
   \   __??Code32?? __code __interwork __atpcs void _Tree_algobase<allocator<void>>::_Clear()
   \                     ??_Clear:
   \   00000000   040080E5           STR      R0,[R0, #+4]
   \   00000004   000080E5           STR      R0,[R0, #+0]
   \   00000008   080080E5           STR      R0,[R0, #+8]
   \   0000000C   0110A0E3           MOV      R1,#+1
   \   00000010   0D10C0E5           STRB     R1,[R0, #+13]
   \   00000014   0C10C0E5           STRB     R1,[R0, #+12]
   \   00000018   0010A0E3           MOV      R1,#+0
   \   0000001C   101080E5           STR      R1,[R0, #+16]
   \   00000020   1EFF2FE1           BX       LR               ;; return

   \                                 In segment CODE, align 4, keep-with-next
   \   __??Code32?? __code __interwork __atpcs void _Tree_algobase<allocator<void>>::_Rrotate(_Tree_algobase<allocator<void>>::_Genptr)
   \                     ??_Rrotate:
   \   00000000   002091E5           LDR      R2,[R1, #+0]
   \   00000004   083092E5           LDR      R3,[R2, #+8]
   \   00000008   003081E5           STR      R3,[R1, #+0]
   \   0000000C   083092E5           LDR      R3,[R2, #+8]
   \   00000010   0DC0D3E5           LDRB     R12,[R3, #+13]
   \   00000014   00005CE3           CMP      R12,#+0
   \   00000018   04108305           STREQ    R1,[R3, #+4]
   \   0000001C   043091E5           LDR      R3,[R1, #+4]
   \   00000020   043082E5           STR      R3,[R2, #+4]
   \   00000024   043090E5           LDR      R3,[R0, #+4]
   \   00000028   030051E1           CMP      R1,R3
   \   0000002C   04208005           STREQ    R2,[R0, #+4]
   \   00000030   0400000A           BEQ      ??_Rrotate_1
   \   00000034   040091E5           LDR      R0,[R1, #+4]
   \   00000038   083090E5           LDR      R3,[R0, #+8]
   \   0000003C   030051E1           CMP      R1,R3
   \   00000040   08208005           STREQ    R2,[R0, #+8]
   \   00000044   00208015           STRNE    R2,[R0, #+0]
   \                     ??_Rrotate_1:
   \   00000048   081082E5           STR      R1,[R2, #+8]
   \   0000004C   042081E5           STR      R2,[R1, #+4]
   \   00000050   1EFF2FE1           BX       LR               ;; return

   \                                 In segment CODE, align 4, keep-with-next
   \   __??Code32?? __code __interwork __atpcs void _Tree_algobase<allocator<void>>::_Lrotate(_Tree_algobase<allocator<void>>::_Genptr)
   \                     ??_Lrotate:
   \   00000000   082091E5           LDR      R2,[R1, #+8]
   \   00000004   003092E5           LDR      R3,[R2, #+0]
   \   00000008   083081E5           STR      R3,[R1, #+8]
   \   0000000C   003092E5           LDR      R3,[R2, #+0]
   \   00000010   0DC0D3E5           LDRB     R12,[R3, #+13]
   \   00000014   00005CE3           CMP      R12,#+0
   \   00000018   04108305           STREQ    R1,[R3, #+4]
   \   0000001C   043091E5           LDR      R3,[R1, #+4]
   \   00000020   043082E5           STR      R3,[R2, #+4]
   \   00000024   043090E5           LDR      R3,[R0, #+4]
   \   00000028   030051E1           CMP      R1,R3
   \   0000002C   04208005           STREQ    R2,[R0, #+4]
   \   00000030   0400000A           BEQ      ??_Lrotate_1
   \   00000034   040091E5           LDR      R0,[R1, #+4]
   \   00000038   003090E5           LDR      R3,[R0, #+0]
   \   0000003C   030051E1           CMP      R1,R3
   \   00000040   00208005           STREQ    R2,[R0, #+0]
   \   00000044   08208015           STRNE    R2,[R0, #+8]
   \                     ??_Lrotate_1:
   \   00000048   001082E5           STR      R1,[R2, #+0]
   \   0000004C   042081E5           STR      R2,[R1, #+4]
   \   00000050   1EFF2FE1           BX       LR               ;; return

   \                                 In segment CODE, align 4, keep-with-next
   \   __??Code32?? __code __interwork __atpcs _Tree_algobase<allocator<void>>::_Genptr _Tree_algobase<allocator<void>>::_Erase(_Tree_algobase<allocator<void>>::_Genptr)
   \                     ??_Erase:
   \   00000000   F0472DE9           PUSH     {R4-R10,LR}
   \   00000004   0040A0E1           MOV      R4,R0
   \   00000008   0160A0E1           MOV      R6,R1
   \   0000000C   0680A0E1           MOV      R8,R6
   \   00000010   0600A0E1           MOV      R0,R6
   \   00000014   ........           _BLF     ??_IncP,??_IncP??rA
   \   00000018   007098E5           LDR      R7,[R8, #+0]
   \   0000001C   0D10D7E5           LDRB     R1,[R7, #+13]
   \   00000020   000051E3           CMP      R1,#+0
   \   00000024   0400001A           BNE      ??_Erase_3
   \   00000028   081098E5           LDR      R1,[R8, #+8]
   \   0000002C   0D10D1E5           LDRB     R1,[R1, #+13]
   \   00000030   000051E3           CMP      R1,#+0
   \   00000034   0100001A           BNE      ??_Erase_4
   \   00000038   0080A0E1           MOV      R8,R0
   \                     ??_Erase_3:
   \   0000003C   087098E5           LDR      R7,[R8, #+8]
   \                     ??_Erase_4:
   \   00000040   060058E1           CMP      R8,R6
   \   00000044   2500001A           BNE      ??_Erase_5
   \   00000048   0D00D7E5           LDRB     R0,[R7, #+13]
   \   0000004C   045096E5           LDR      R5,[R6, #+4]
   \   00000050   000050E3           CMP      R0,#+0
   \   00000054   04508705           STREQ    R5,[R7, #+4]
   \   00000058   040094E5           LDR      R0,[R4, #+4]
   \   0000005C   060050E1           CMP      R0,R6
   \   00000060   04708405           STREQ    R7,[R4, #+4]
   \   00000064   0300000A           BEQ      ??_Erase_6
   \   00000068   000095E5           LDR      R0,[R5, #+0]
   \   0000006C   060050E1           CMP      R0,R6
   \   00000070   00708505           STREQ    R7,[R5, #+0]
   \   00000074   08708515           STRNE    R7,[R5, #+8]
   \                     ??_Erase_6:
   \   00000078   000094E5           LDR      R0,[R4, #+0]
   \   0000007C   060050E1           CMP      R0,R6
   \   00000080   0B00001A           BNE      ??_Erase_7
   \   00000084   0D00D7E5           LDRB     R0,[R7, #+13]
   \   00000088   000050E3           CMP      R0,#+0
   \   0000008C   0500A011           MOVNE    R0,R5
   \   00000090   0600001A           BNE      ??_Erase_8
   \   00000094   0700A0E1           MOV      R0,R7
   \   00000098   000000EA           B        ??_Erase_9
   \                     ??_Erase_10:
   \   0000009C   0100A0E1           MOV      R0,R1
   \                     ??_Erase_9:
   \   000000A0   001090E5           LDR      R1,[R0, #+0]
   \   000000A4   0D20D1E5           LDRB     R2,[R1, #+13]
   \   000000A8   000052E3           CMP      R2,#+0
   \   000000AC   FAFFFF0A           BEQ      ??_Erase_10
   \                     ??_Erase_8:
   \   000000B0   000084E5           STR      R0,[R4, #+0]
   \                     ??_Erase_7:
   \   000000B4   080094E5           LDR      R0,[R4, #+8]
   \   000000B8   060050E1           CMP      R0,R6
   \   000000BC   2900001A           BNE      ??_Erase_11
   \   000000C0   0D00D7E5           LDRB     R0,[R7, #+13]
   \   000000C4   000050E3           CMP      R0,#+0
   \   000000C8   0500A011           MOVNE    R0,R5
   \   000000CC   0100001A           BNE      ??_Erase_12
   \   000000D0   0700A0E1           MOV      R0,R7
   \   000000D4   ........           _BLF     ??_Max,??_Max??rA
   \                     ??_Erase_12:
   \   000000D8   080084E5           STR      R0,[R4, #+8]
   \   000000DC   210000EA           B        ??_Erase_11
   \                     ??_Erase_5:
   \   000000E0   000096E5           LDR      R0,[R6, #+0]
   \   000000E4   048080E5           STR      R8,[R0, #+4]
   \   000000E8   000096E5           LDR      R0,[R6, #+0]
   \   000000EC   000088E5           STR      R0,[R8, #+0]
   \   000000F0   080096E5           LDR      R0,[R6, #+8]
   \   000000F4   000058E1           CMP      R8,R0
   \   000000F8   0850A001           MOVEQ    R5,R8
   \   000000FC   0800000A           BEQ      ??_Erase_13
   \   00000100   0D00D7E5           LDRB     R0,[R7, #+13]
   \   00000104   045098E5           LDR      R5,[R8, #+4]
   \   00000108   000050E3           CMP      R0,#+0
   \   0000010C   04508705           STREQ    R5,[R7, #+4]
   \   00000110   007085E5           STR      R7,[R5, #+0]
   \   00000114   080096E5           LDR      R0,[R6, #+8]
   \   00000118   080088E5           STR      R0,[R8, #+8]
   \   0000011C   080096E5           LDR      R0,[R6, #+8]
   \   00000120   048080E5           STR      R8,[R0, #+4]
   \                     ??_Erase_13:
   \   00000124   040094E5           LDR      R0,[R4, #+4]
   \   00000128   060050E1           CMP      R0,R6
   \   0000012C   04808405           STREQ    R8,[R4, #+4]
   \   00000130   0400000A           BEQ      ??_Erase_14
   \   00000134   040096E5           LDR      R0,[R6, #+4]
   \   00000138   001090E5           LDR      R1,[R0, #+0]
   \   0000013C   060051E1           CMP      R1,R6
   \   00000140   00808005           STREQ    R8,[R0, #+0]
   \   00000144   08808015           STRNE    R8,[R0, #+8]
   \                     ??_Erase_14:
   \   00000148   040096E5           LDR      R0,[R6, #+4]
   \   0000014C   0C1088E2           ADD      R1,R8,#+12
   \   00000150   040088E5           STR      R0,[R8, #+4]
   \   00000154   0020D1E5           LDRB     R2,[R1, #+0]
   \   00000158   0C0086E2           ADD      R0,R6,#+12
   \   0000015C   0030D0E5           LDRB     R3,[R0, #+0]
   \   00000160   0030C1E5           STRB     R3,[R1, #+0]
   \   00000164   0020C0E5           STRB     R2,[R0, #+0]
   \                     ??_Erase_11:
   \   00000168   0C00D6E5           LDRB     R0,[R6, #+12]
   \   0000016C   010050E3           CMP      R0,#+1
   \   00000170   5E00001A           BNE      ??_Erase_15
   \   00000174   0090A0E3           MOV      R9,#+0
   \   00000178   01A0A0E3           MOV      R10,#+1
   \   0000017C   060000EA           B        ??_Erase_16
   \                     ??_Erase_17:
   \   00000180   080098E5           LDR      R0,[R8, #+8]
   \   00000184   0C00D0E5           LDRB     R0,[R0, #+12]
   \   00000188   010050E3           CMP      R0,#+1
   \   0000018C   1C00001A           BNE      ??_Erase_18
   \                     ??_Erase_19:
   \   00000190   0C90C8E5           STRB     R9,[R8, #+12]
   \                     ??_Erase_20:
   \   00000194   0570A0E1           MOV      R7,R5
   \   00000198   045097E5           LDR      R5,[R7, #+4]
   \                     ??_Erase_16:
   \   0000019C   040094E5           LDR      R0,[R4, #+4]
   \   000001A0   000057E1           CMP      R7,R0
   \   000001A4   5000000A           BEQ      ??_Erase_21
   \   000001A8   0C00D7E5           LDRB     R0,[R7, #+12]
   \   000001AC   010050E3           CMP      R0,#+1
   \   000001B0   4D00001A           BNE      ??_Erase_21
   \   000001B4   008095E5           LDR      R8,[R5, #+0]
   \   000001B8   080057E1           CMP      R7,R8
   \   000001BC   2400001A           BNE      ??_Erase_22
   \   000001C0   088095E5           LDR      R8,[R5, #+8]
   \   000001C4   0C00D8E5           LDRB     R0,[R8, #+12]
   \   000001C8   000050E3           CMP      R0,#+0
   \   000001CC   0500001A           BNE      ??_Erase_23
   \   000001D0   0CA0C8E5           STRB     R10,[R8, #+12]
   \   000001D4   0C90C5E5           STRB     R9,[R5, #+12]
   \   000001D8   0510A0E1           MOV      R1,R5
   \   000001DC   0400A0E1           MOV      R0,R4
   \   000001E0   ........           _BLF     ??_Lrotate,??_Lrotate??rA
   \   000001E4   088095E5           LDR      R8,[R5, #+8]
   \                     ??_Erase_23:
   \   000001E8   0D00D8E5           LDRB     R0,[R8, #+13]
   \   000001EC   000050E3           CMP      R0,#+0
   \   000001F0   E7FFFF1A           BNE      ??_Erase_20
   \   000001F4   000098E5           LDR      R0,[R8, #+0]
   \   000001F8   0C00D0E5           LDRB     R0,[R0, #+12]
   \   000001FC   010050E3           CMP      R0,#+1
   \   00000200   DEFFFF0A           BEQ      ??_Erase_17
   \                     ??_Erase_18:
   \   00000204   080098E5           LDR      R0,[R8, #+8]
   \   00000208   0C00D0E5           LDRB     R0,[R0, #+12]
   \   0000020C   010050E3           CMP      R0,#+1
   \   00000210   0600001A           BNE      ??_Erase_24
   \   00000214   000098E5           LDR      R0,[R8, #+0]
   \   00000218   0810A0E1           MOV      R1,R8
   \   0000021C   0CA0C0E5           STRB     R10,[R0, #+12]
   \   00000220   0C90C8E5           STRB     R9,[R8, #+12]
   \   00000224   0400A0E1           MOV      R0,R4
   \   00000228   ........           _BLF     ??_Rrotate,??_Rrotate??rA
   \   0000022C   088095E5           LDR      R8,[R5, #+8]
   \                     ??_Erase_24:
   \   00000230   0C00D5E5           LDRB     R0,[R5, #+12]
   \   00000234   0510A0E1           MOV      R1,R5
   \   00000238   0C00C8E5           STRB     R0,[R8, #+12]
   \   0000023C   0CA0C5E5           STRB     R10,[R5, #+12]
   \   00000240   080098E5           LDR      R0,[R8, #+8]
   \   00000244   0CA0C0E5           STRB     R10,[R0, #+12]
   \   00000248   0400A0E1           MOV      R0,R4
   \   0000024C   ........           _BLF     ??_Lrotate,??_Lrotate??rA
   \   00000250   250000EA           B        ??_Erase_21
   \                     ??_Erase_22:
   \   00000254   0C00D8E5           LDRB     R0,[R8, #+12]
   \   00000258   000050E3           CMP      R0,#+0
   \   0000025C   0500001A           BNE      ??_Erase_25
   \   00000260   0CA0C8E5           STRB     R10,[R8, #+12]
   \   00000264   0C90C5E5           STRB     R9,[R5, #+12]
   \   00000268   0510A0E1           MOV      R1,R5
   \   0000026C   0400A0E1           MOV      R0,R4
   \   00000270   ........           _BLF     ??_Rrotate,??_Rrotate??rA
   \   00000274   008095E5           LDR      R8,[R5, #+0]
   \                     ??_Erase_25:
   \   00000278   0D00D8E5           LDRB     R0,[R8, #+13]
   \   0000027C   000050E3           CMP      R0,#+0
   \   00000280   C3FFFF1A           BNE      ??_Erase_20
   \   00000284   080098E5           LDR      R0,[R8, #+8]
   \   00000288   0C00D0E5           LDRB     R0,[R0, #+12]
   \   0000028C   010050E3           CMP      R0,#+1
   \   00000290   00009805           LDREQ    R0,[R8, #+0]
   \   00000294   0C00D005           LDRBEQ   R0,[R0, #+12]
   \   00000298   01005003           CMPEQ    R0,#+1
   \   0000029C   BBFFFF0A           BEQ      ??_Erase_19
   \   000002A0   000098E5           LDR      R0,[R8, #+0]
   \   000002A4   0C00D0E5           LDRB     R0,[R0, #+12]
   \   000002A8   010050E3           CMP      R0,#+1
   \   000002AC   0600001A           BNE      ??_Erase_26
   \   000002B0   080098E5           LDR      R0,[R8, #+8]
   \   000002B4   0810A0E1           MOV      R1,R8
   \   000002B8   0CA0C0E5           STRB     R10,[R0, #+12]
   \   000002BC   0C90C8E5           STRB     R9,[R8, #+12]
   \   000002C0   0400A0E1           MOV      R0,R4
   \   000002C4   ........           _BLF     ??_Lrotate,??_Lrotate??rA
   \   000002C8   008095E5           LDR      R8,[R5, #+0]
   \                     ??_Erase_26:
   \   000002CC   0C00D5E5           LDRB     R0,[R5, #+12]
   \   000002D0   0510A0E1           MOV      R1,R5
   \   000002D4   0C00C8E5           STRB     R0,[R8, #+12]
   \   000002D8   0CA0C5E5           STRB     R10,[R5, #+12]
   \   000002DC   000098E5           LDR      R0,[R8, #+0]
   \   000002E0   0CA0C0E5           STRB     R10,[R0, #+12]
   \   000002E4   0400A0E1           MOV      R0,R4
   \   000002E8   ........           _BLF     ??_Rrotate,??_Rrotate??rA
   \                     ??_Erase_21:
   \   000002EC   0CA0C7E5           STRB     R10,[R7, #+12]
   \                     ??_Erase_15:
   \   000002F0   100094E5           LDR      R0,[R4, #+16]
   \   000002F4   000050E3           CMP      R0,#+0
   \   000002F8   01004012           SUBNE    R0,R0,#+1
   \   000002FC   10008415           STRNE    R0,[R4, #+16]
   \   00000300   0600A0E1           MOV      R0,R6
   \   00000304   F047BDE8           POP      {R4-R10,LR}
   \   00000308   1EFF2FE1           BX       LR               ;; return

   \                                 In segment CODE, align 4, keep-with-next
   \   __??Code32?? __code __interwork __atpcs void _Tree_algobase<allocator<void>>::_Insert(bool, _Tree_algobase<allocator<void>>::_Genptr, _Tree_algobase<allocator<void>>::_Genptr)
   \                     ??_Insert:
   \   00000000   F0402DE9           PUSH     {R4-R7,LR}
   \   00000004   0040A0E1           MOV      R4,R0
   \   00000008   100094E5           LDR      R0,[R4, #+16]
   \   0000000C   0350A0E1           MOV      R5,R3
   \   00000010   010080E2           ADD      R0,R0,#+1
   \   00000014   100084E5           STR      R0,[R4, #+16]
   \   00000018   040052E1           CMP      R2,R4
   \   0000001C   0300001A           BNE      ??_Insert_4
   \   00000020   045084E5           STR      R5,[R4, #+4]
   \   00000024   005084E5           STR      R5,[R4, #+0]
   \                     ??_Insert_5:
   \   00000028   085084E5           STR      R5,[R4, #+8]
   \   0000002C   130000EA           B        ??_Insert_6
   \                     ??_Insert_4:
   \   00000030   000051E3           CMP      R1,#+0
   \   00000034   0500000A           BEQ      ??_Insert_7
   \   00000038   005082E5           STR      R5,[R2, #+0]
   \   0000003C   000094E5           LDR      R0,[R4, #+0]
   \   00000040   000052E1           CMP      R2,R0
   \   00000044   0D00001A           BNE      ??_Insert_6
   \   00000048   005084E5           STR      R5,[R4, #+0]
   \   0000004C   0B0000EA           B        ??_Insert_6
   \                     ??_Insert_7:
   \   00000050   085082E5           STR      R5,[R2, #+8]
   \   00000054   080094E5           LDR      R0,[R4, #+8]
   \   00000058   000052E1           CMP      R2,R0
   \   0000005C   0700001A           BNE      ??_Insert_6
   \   00000060   F0FFFFEA           B        ??_Insert_5
   \                     ??_Insert_8:
   \   00000064   0C70C0E5           STRB     R7,[R0, #+12]
   \   00000068   0C70C2E5           STRB     R7,[R2, #+12]
   \   0000006C   040095E5           LDR      R0,[R5, #+4]
   \   00000070   040090E5           LDR      R0,[R0, #+4]
   \   00000074   0C60C0E5           STRB     R6,[R0, #+12]
   \   00000078   040095E5           LDR      R0,[R5, #+4]
   \   0000007C   045090E5           LDR      R5,[R0, #+4]
   \                     ??_Insert_6:
   \   00000080   0170A0E3           MOV      R7,#+1
   \   00000084   040095E5           LDR      R0,[R5, #+4]
   \   00000088   0C10D0E5           LDRB     R1,[R0, #+12]
   \   0000008C   000051E3           CMP      R1,#+0
   \   00000090   2F00001A           BNE      ??_Insert_9
   \   00000094   041090E5           LDR      R1,[R0, #+4]
   \   00000098   0060A0E3           MOV      R6,#+0
   \   0000009C   001091E5           LDR      R1,[R1, #+0]
   \   000000A0   010050E1           CMP      R0,R1
   \   000000A4   041090E5           LDR      R1,[R0, #+4]
   \   000000A8   1400001A           BNE      ??_Insert_10
   \   000000AC   082091E5           LDR      R2,[R1, #+8]
   \   000000B0   0C10D2E5           LDRB     R1,[R2, #+12]
   \   000000B4   000051E3           CMP      R1,#+0
   \   000000B8   E9FFFF0A           BEQ      ??_Insert_8
   \   000000BC   081090E5           LDR      R1,[R0, #+8]
   \   000000C0   010055E1           CMP      R5,R1
   \   000000C4   0300001A           BNE      ??_Insert_11
   \   000000C8   0050A0E1           MOV      R5,R0
   \   000000CC   0510A0E1           MOV      R1,R5
   \   000000D0   0400A0E1           MOV      R0,R4
   \   000000D4   ........           _BLF     ??_Lrotate,??_Lrotate??rA
   \                     ??_Insert_11:
   \   000000D8   040095E5           LDR      R0,[R5, #+4]
   \   000000DC   0C70C0E5           STRB     R7,[R0, #+12]
   \   000000E0   040095E5           LDR      R0,[R5, #+4]
   \   000000E4   040090E5           LDR      R0,[R0, #+4]
   \   000000E8   0C60C0E5           STRB     R6,[R0, #+12]
   \   000000EC   040095E5           LDR      R0,[R5, #+4]
   \   000000F0   041090E5           LDR      R1,[R0, #+4]
   \   000000F4   0400A0E1           MOV      R0,R4
   \   000000F8   ........           _BLF     ??_Rrotate,??_Rrotate??rA
   \   000000FC   DFFFFFEA           B        ??_Insert_6
   \                     ??_Insert_10:
   \   00000100   002091E5           LDR      R2,[R1, #+0]
   \   00000104   0C10D2E5           LDRB     R1,[R2, #+12]
   \   00000108   000051E3           CMP      R1,#+0
   \   0000010C   D4FFFF0A           BEQ      ??_Insert_8
   \   00000110   001090E5           LDR      R1,[R0, #+0]
   \   00000114   010055E1           CMP      R5,R1
   \   00000118   0300001A           BNE      ??_Insert_12
   \   0000011C   0050A0E1           MOV      R5,R0
   \   00000120   0510A0E1           MOV      R1,R5
   \   00000124   0400A0E1           MOV      R0,R4
   \   00000128   ........           _BLF     ??_Rrotate,??_Rrotate??rA
   \                     ??_Insert_12:
   \   0000012C   040095E5           LDR      R0,[R5, #+4]
   \   00000130   0C70C0E5           STRB     R7,[R0, #+12]
   \   00000134   040095E5           LDR      R0,[R5, #+4]
   \   00000138   040090E5           LDR      R0,[R0, #+4]
   \   0000013C   0C60C0E5           STRB     R6,[R0, #+12]
   \   00000140   040095E5           LDR      R0,[R5, #+4]
   \   00000144   041090E5           LDR      R1,[R0, #+4]
   \   00000148   0400A0E1           MOV      R0,R4
   \   0000014C   ........           _BLF     ??_Lrotate,??_Lrotate??rA
   \   00000150   CAFFFFEA           B        ??_Insert_6
   \                     ??_Insert_9:
   \   00000154   040094E5           LDR      R0,[R4, #+4]
   \   00000158   0C70C0E5           STRB     R7,[R0, #+12]
   \   0000015C   F040BDE8           POP      {R4-R7,LR}
   \   00000160   1EFF2FE1           BX       LR               ;; return

   \                                 In segment CODE, align 4, keep-with-next
   \   __??Code32?? __code __interwork __atpcs _Tree<_Tset_traits<AlarmBasic *, less<AlarmBasic *>, allocator<AlarmBasic *>, false>>::_Pairib _Tree<_Tset_traits<AlarmBasic *, less<AlarmBasic *>, allocator<AlarmBasic *>, false>>::insert(AlarmBasic *)
   \                     ??insert:
   \   00000000   F34C2DE9           PUSH     {R0,R1,R4-R7,R10,R11,LR}
   \   00000004   0040A0E1           MOV      R4,R0
   \   00000008   0150A0E1           MOV      R5,R1
   \   0000000C   040095E5           LDR      R0,[R5, #+4]
   \   00000010   0260A0E1           MOV      R6,R2
   \   00000014   05B0A0E1           MOV      R11,R5
   \   00000018   0170A0E3           MOV      R7,#+1
   \                     ??insert_2:
   \   0000001C   0D10D0E5           LDRB     R1,[R0, #+13]
   \   00000020   000051E3           CMP      R1,#+0
   \   00000024   0700001A           BNE      ??insert_3
   \   00000028   101090E5           LDR      R1,[R0, #+16]
   \   0000002C   00B0A0E1           MOV      R11,R0
   \   00000030   010056E1           CMP      R6,R1
   \   00000034   00009035           LDRCC    R0,[R0, #+0]
   \   00000038   0170A033           MOVCC    R7,#+1
   \   0000003C   08009025           LDRCS    R0,[R0, #+8]
   \   00000040   0070A023           MOVCS    R7,#+0
   \   00000044   F4FFFFEA           B        ??insert_2
   \                     ??insert_3:
   \   00000048   0B00A0E1           MOV      R0,R11
   \   0000004C   01A0A0E3           MOV      R10,#+1
   \   00000050   000057E3           CMP      R7,#+0
   \   00000054   0B00000A           BEQ      ??insert_4
   \   00000058   001095E5           LDR      R1,[R5, #+0]
   \   0000005C   010050E1           CMP      R0,R1
   \   00000060   0700001A           BNE      ??insert_5
   \   00000064   0630A0E1           MOV      R3,R6
   \   00000068   0B20A0E1           MOV      R2,R11
   \   0000006C   0110A0E3           MOV      R1,#+1
   \                     ??insert_6:
   \   00000070   0500A0E1           MOV      R0,R5
   \   00000074   ........           _BLF     ??_Insert_1,??_Insert??rA
   \   00000078   00008DE5           STR      R0,[SP, #+0]
   \   0000007C   04A0CDE5           STRB     R10,[SP, #+4]
   \   00000080   0A0000EA           B        ??insert_7
   \                     ??insert_5:
   \   00000084   ........           _BLF     ??_DecP,??_DecP??rA
   \                     ??insert_4:
   \   00000088   101090E5           LDR      R1,[R0, #+16]
   \   0000008C   060051E1           CMP      R1,R6
   \   00000090   0300002A           BCS      ??insert_8
   \   00000094   0630A0E1           MOV      R3,R6
   \   00000098   0B20A0E1           MOV      R2,R11
   \   0000009C   0710A0E1           MOV      R1,R7
   \   000000A0   F2FFFFEA           B        ??insert_6
   \                     ??insert_8:
   \   000000A4   00008DE5           STR      R0,[SP, #+0]
   \   000000A8   0010A0E3           MOV      R1,#+0
   \   000000AC   0410CDE5           STRB     R1,[SP, #+4]
   \                     ??insert_7:
   \   000000B0   0D00A0E1           MOV      R0,SP
   \   000000B4   030090E8           LDM      R0,{R0,R1}
   \   000000B8   030084E8           STM      R4,{R0,R1}
   \   000000BC   0400A0E1           MOV      R0,R4
   \   000000C0   F64CBDE8           POP      {R1,R2,R4-R7,R10,R11,LR}
   \   000000C4   1EFF2FE1           BX       LR               ;; return

   \                                 In segment CODE, align 4, keep-with-next
   \   __??Code32?? __code __interwork __atpcs _Tree<_Tset_traits<PRogramObjectBase *, less<PRogramObjectBase *>, allocator<PRogramObjectBase *>, false>>::_Pairib _Tree<_Tset_traits<PRogramObjectBase *, less<PRogramObjectBase *>, allocator<PRogramObjectBase *>, false>>::insert(PRogramObjectBase *)
   \                     ??insert_1:
   \   00000000   F34C2DE9           PUSH     {R0,R1,R4-R7,R10,R11,LR}
   \   00000004   0040A0E1           MOV      R4,R0
   \   00000008   0150A0E1           MOV      R5,R1
   \   0000000C   040095E5           LDR      R0,[R5, #+4]
   \   00000010   0260A0E1           MOV      R6,R2
   \   00000014   05B0A0E1           MOV      R11,R5
   \   00000018   0170A0E3           MOV      R7,#+1
   \                     ??insert_9:
   \   0000001C   0D10D0E5           LDRB     R1,[R0, #+13]
   \   00000020   000051E3           CMP      R1,#+0
   \   00000024   0700001A           BNE      ??insert_10
   \   00000028   101090E5           LDR      R1,[R0, #+16]
   \   0000002C   00B0A0E1           MOV      R11,R0
   \   00000030   010056E1           CMP      R6,R1
   \   00000034   00009035           LDRCC    R0,[R0, #+0]
   \   00000038   0170A033           MOVCC    R7,#+1
   \   0000003C   08009025           LDRCS    R0,[R0, #+8]
   \   00000040   0070A023           MOVCS    R7,#+0
   \   00000044   F4FFFFEA           B        ??insert_9
   \                     ??insert_10:
   \   00000048   0B00A0E1           MOV      R0,R11
   \   0000004C   01A0A0E3           MOV      R10,#+1
   \   00000050   000057E3           CMP      R7,#+0
   \   00000054   0B00000A           BEQ      ??insert_11
   \   00000058   001095E5           LDR      R1,[R5, #+0]
   \   0000005C   010050E1           CMP      R0,R1
   \   00000060   0700001A           BNE      ??insert_12
   \   00000064   0630A0E1           MOV      R3,R6
   \   00000068   0B20A0E1           MOV      R2,R11
   \   0000006C   0110A0E3           MOV      R1,#+1
   \                     ??insert_13:
   \   00000070   0500A0E1           MOV      R0,R5
   \   00000074   ........           _BLF     ??_Insert_2,??_Insert??rA_1
   \   00000078   00008DE5           STR      R0,[SP, #+0]
   \   0000007C   04A0CDE5           STRB     R10,[SP, #+4]
   \   00000080   0A0000EA           B        ??insert_14
   \                     ??insert_12:
   \   00000084   ........           _BLF     ??_DecP,??_DecP??rA
   \                     ??insert_11:
   \   00000088   101090E5           LDR      R1,[R0, #+16]
   \   0000008C   060051E1           CMP      R1,R6
   \   00000090   0300002A           BCS      ??insert_15
   \   00000094   0630A0E1           MOV      R3,R6
   \   00000098   0B20A0E1           MOV      R2,R11
   \   0000009C   0710A0E1           MOV      R1,R7
   \   000000A0   F2FFFFEA           B        ??insert_13
   \                     ??insert_15:
   \   000000A4   00008DE5           STR      R0,[SP, #+0]
   \   000000A8   0010A0E3           MOV      R1,#+0
   \   000000AC   0410CDE5           STRB     R1,[SP, #+4]
   \                     ??insert_14:
   \   000000B0   0D00A0E1           MOV      R0,SP
   \   000000B4   030090E8           LDM      R0,{R0,R1}
   \   000000B8   030084E8           STM      R4,{R0,R1}
   \   000000BC   0400A0E1           MOV      R0,R4
   \   000000C0   F64CBDE8           POP      {R1,R2,R4-R7,R10,R11,LR}
   \   000000C4   1EFF2FE1           BX       LR               ;; return

   \                                 In segment CODE, align 4, keep-with-next
   \   __??Code32?? __code __interwork __atpcs _Tree<_Tset_traits<PRogramObjectBase *, less<PRogramObjectBase *>, allocator<PRogramObjectBase *>, false>>::iterator _Tree<_Tset_traits<PRogramObjectBase *, less<PRogramObjectBase *>, allocator<PRogramObjectBase *>, false>>::erase(_Tree<_Tset_traits<PRogramObjectBase *, less<PRogramObjectBase *>, allocator<PRogramObjectBase *>, false>>::iterator, _Tree<_Tset_traits<PRogramObjectBase *, less<PRogramObjectBase *>, allocator<PRogramObjectBase *>, false>>::iterator)
   \                     ??erase:
   \   00000000   F0402DE9           PUSH     {R4-R7,LR}
   \   00000004   0040A0E1           MOV      R4,R0
   \   00000008   000094E5           LDR      R0,[R4, #+0]
   \   0000000C   0150A0E1           MOV      R5,R1
   \   00000010   0260A0E1           MOV      R6,R2
   \   00000014   000055E1           CMP      R5,R0
   \   00000018   04005601           CMPEQ    R6,R4
   \   0000001C   0D00001A           BNE      ??erase_3
   \   00000020   0400A0E1           MOV      R0,R4
   \   00000024   ........           _BLF     ??clear,??clear??rA
   \   00000028   000094E5           LDR      R0,[R4, #+0]
   \   0000002C   0C0000EA           B        ??erase_4
   \                     ??erase_5:
   \   00000030   0570A0E1           MOV      R7,R5
   \   00000034   0500A0E1           MOV      R0,R5
   \   00000038   ........           _BLF     ??_IncP,??_IncP??rA
   \   0000003C   0050A0E1           MOV      R5,R0
   \   00000040   0700A0E1           MOV      R0,R7
   \   00000044   ........           _BLF     ??_IncP,??_IncP??rA
   \   00000048   0710A0E1           MOV      R1,R7
   \   0000004C   0400A0E1           MOV      R0,R4
   \   00000050   ........           _BLF     ??_Erase,??_Erase??rA
   \   00000054   ........           _BLF     `??operator delete`,`??operator delete??rA`
   \                     ??erase_3:
   \   00000058   060055E1           CMP      R5,R6
   \   0000005C   F3FFFF1A           BNE      ??erase_5
   \   00000060   0500A0E1           MOV      R0,R5
   \                     ??erase_4:
   \   00000064   F040BDE8           POP      {R4-R7,LR}
   \   00000068   1EFF2FE1           BX       LR               ;; return

   \                                 In segment CODE, align 4, keep-with-next
   \   __??Code32?? __code __interwork __atpcs _Tree<_Tset_traits<AlarmBasic *, less<AlarmBasic *>, allocator<AlarmBasic *>, false>>::iterator _Tree<_Tset_traits<AlarmBasic *, less<AlarmBasic *>, allocator<AlarmBasic *>, false>>::erase(_Tree<_Tset_traits<AlarmBasic *, less<AlarmBasic *>, allocator<AlarmBasic *>, false>>::iterator, _Tree<_Tset_traits<AlarmBasic *, less<AlarmBasic *>, allocator<AlarmBasic *>, false>>::iterator)
   \                     ??erase_1:
   \   00000000   F0402DE9           PUSH     {R4-R7,LR}
   \   00000004   0040A0E1           MOV      R4,R0
   \   00000008   000094E5           LDR      R0,[R4, #+0]
   \   0000000C   0150A0E1           MOV      R5,R1
   \   00000010   0260A0E1           MOV      R6,R2
   \   00000014   000055E1           CMP      R5,R0
   \   00000018   04005601           CMPEQ    R6,R4
   \   0000001C   1000001A           BNE      ??erase_6
   \   00000020   041094E5           LDR      R1,[R4, #+4]
   \   00000024   0400A0E1           MOV      R0,R4
   \   00000028   ........           _BLF     ??_Erase_1,??_Erase??rA_1
   \   0000002C   0400A0E1           MOV      R0,R4
   \   00000030   ........           _BLF     ??_Clear,??_Clear??rA
   \   00000034   000094E5           LDR      R0,[R4, #+0]
   \   00000038   0C0000EA           B        ??erase_7
   \                     ??erase_8:
   \   0000003C   0570A0E1           MOV      R7,R5
   \   00000040   0500A0E1           MOV      R0,R5
   \   00000044   ........           _BLF     ??_IncP,??_IncP??rA
   \   00000048   0050A0E1           MOV      R5,R0
   \   0000004C   0700A0E1           MOV      R0,R7
   \   00000050   ........           _BLF     ??_IncP,??_IncP??rA
   \   00000054   0710A0E1           MOV      R1,R7
   \   00000058   0400A0E1           MOV      R0,R4
   \   0000005C   ........           _BLF     ??_Erase,??_Erase??rA
   \   00000060   ........           _BLF     `??operator delete`,`??operator delete??rA`
   \                     ??erase_6:
   \   00000064   060055E1           CMP      R5,R6
   \   00000068   F3FFFF1A           BNE      ??erase_8
   \   0000006C   0500A0E1           MOV      R0,R5
   \                     ??erase_7:
   \   00000070   F040BDE8           POP      {R4-R7,LR}
   \   00000074   1EFF2FE1           BX       LR               ;; return

   \                                 In segment CODE, align 4, keep-with-next
   \   __??Code32?? __code __interwork __atpcs unsigned int _Tree<_Tset_traits<AlarmBasic *, less<AlarmBasic *>, allocator<AlarmBasic *>, false>>::erase(AlarmBasic *)
   \                     ??erase_2:
   \   00000000   73402DE9           PUSH     {R0,R1,R4-R6,LR}
   \   00000004   0040A0E1           MOV      R4,R0
   \   00000008   0120A0E1           MOV      R2,R1
   \   0000000C   0410A0E1           MOV      R1,R4
   \   00000010   0D00A0E1           MOV      R0,SP
   \   00000014   ........           _BLF     ??equal_range,??equal_range??rA
   \   00000018   04509DE5           LDR      R5,[SP, #+4]
   \   0000001C   00009DE5           LDR      R0,[SP, #+0]
   \   00000020   0060A0E3           MOV      R6,#+0
   \   00000024   010000EA           B        ??erase_9
   \                     ??erase_10:
   \   00000028   016086E2           ADD      R6,R6,#+1
   \   0000002C   ........           _BLF     ??_IncP,??_IncP??rA
   \                     ??erase_9:
   \   00000030   050050E1           CMP      R0,R5
   \   00000034   FBFFFF1A           BNE      ??erase_10
   \   00000038   04209DE5           LDR      R2,[SP, #+4]
   \   0000003C   00109DE5           LDR      R1,[SP, #+0]
   \   00000040   0400A0E1           MOV      R0,R4
   \   00000044   ........           _BLF     ??erase_1,??erase??rA
   \   00000048   0600A0E1           MOV      R0,R6
   \   0000004C   7640BDE8           POP      {R1,R2,R4-R6,LR}
   \   00000050   1EFF2FE1           BX       LR               ;; return

   \                                 In segment CODE, align 4, keep-with-next
   \   __??Code32?? __code __interwork __atpcs void _Tree<_Tset_traits<PRogramObjectBase *, less<PRogramObjectBase *>, allocator<PRogramObjectBase *>, false>>::clear()
   \                     ??clear:
   \   00000000   10402DE9           PUSH     {R4,LR}
   \   00000004   0040A0E1           MOV      R4,R0
   \   00000008   041094E5           LDR      R1,[R4, #+4]
   \   0000000C   ........           _BLF     ??_Erase_2,??_Erase??rA_2
   \   00000010   0400A0E1           MOV      R0,R4
   \   00000014   ........           _BLF     ??_Clear,??_Clear??rA
   \   00000018   1040BDE8           POP      {R4,LR}
   \   0000001C   1EFF2FE1           BX       LR               ;; return

   \                                 In segment CODE, align 4, keep-with-next
   \   __??Code32?? __code __interwork __atpcs _Tree<_Tset_traits<AlarmBasic *, less<AlarmBasic *>, allocator<AlarmBasic *>, false>>::_Pairii _Tree<_Tset_traits<AlarmBasic *, less<AlarmBasic *>, allocator<AlarmBasic *>, false>>::equal_range(AlarmBasic *)
   \                     ??equal_range:
   \   00000000   F3402DE9           PUSH     {R0,R1,R4-R7,LR}
   \   00000004   0040A0E1           MOV      R4,R0
   \   00000008   0150A0E1           MOV      R5,R1
   \   0000000C   0260A0E1           MOV      R6,R2
   \   00000010   0610A0E1           MOV      R1,R6
   \   00000014   0500A0E1           MOV      R0,R5
   \   00000018   ........           _BLF     ??_Ubound,??_Ubound??rA
   \   0000001C   0070A0E1           MOV      R7,R0
   \   00000020   0610A0E1           MOV      R1,R6
   \   00000024   0500A0E1           MOV      R0,R5
   \   00000028   ........           _BLF     ??_Lbound,??_Lbound??rA
   \   0000002C   00008DE5           STR      R0,[SP, #+0]
   \   00000030   04708DE5           STR      R7,[SP, #+4]
   \   00000034   0D00A0E1           MOV      R0,SP
   \   00000038   030090E8           LDM      R0,{R0,R1}
   \   0000003C   030084E8           STM      R4,{R0,R1}
   \   00000040   0400A0E1           MOV      R0,R4
   \   00000044   F640BDE8           POP      {R1,R2,R4-R7,LR}
   \   00000048   1EFF2FE1           BX       LR               ;; return

   \                                 In segment CODE, align 4, keep-with-next
   \   __??Code32?? __code __interwork __atpcs void _Tree<_Tset_traits<PRogramObjectBase *, less<PRogramObjectBase *>, allocator<PRogramObjectBase *>, false>>::_Copy(_Tree<_Tset_traits<PRogramObjectBase *, less<PRogramObjectBase *>, allocator<PRogramObjectBase *>, false>> const &)
   \                     ??_Copy:
   \   00000000   30402DE9           PUSH     {R4,R5,LR}
   \   00000004   0150A0E1           MOV      R5,R1
   \   00000008   041095E5           LDR      R1,[R5, #+4]
   \   0000000C   0040A0E1           MOV      R4,R0
   \   00000010   0420A0E1           MOV      R2,R4
   \   00000014   ........           _BLF     ??_Copy_1,??_Copy??rA
   \   00000018   040084E5           STR      R0,[R4, #+4]
   \   0000001C   100095E5           LDR      R0,[R5, #+16]
   \   00000020   100084E5           STR      R0,[R4, #+16]
   \   00000024   040094E5           LDR      R0,[R4, #+4]
   \   00000028   0D10D0E5           LDRB     R1,[R0, #+13]
   \   0000002C   000051E3           CMP      R1,#+0
   \   00000030   0900001A           BNE      ??_Copy_2
   \   00000034   0010A0E1           MOV      R1,R0
   \   00000038   000000EA           B        ??_Copy_3
   \                     ??_Copy_4:
   \   0000003C   0210A0E1           MOV      R1,R2
   \                     ??_Copy_3:
   \   00000040   002091E5           LDR      R2,[R1, #+0]
   \   00000044   0D30D2E5           LDRB     R3,[R2, #+13]
   \   00000048   000053E3           CMP      R3,#+0
   \   0000004C   FAFFFF0A           BEQ      ??_Copy_4
   \   00000050   001084E5           STR      R1,[R4, #+0]
   \   00000054   ........           _BLF     ??_Max,??_Max??rA
   \   00000058   010000EA           B        ??_Copy_5
   \                     ??_Copy_2:
   \   0000005C   004084E5           STR      R4,[R4, #+0]
   \   00000060   0400A0E1           MOV      R0,R4
   \                     ??_Copy_5:
   \   00000064   080084E5           STR      R0,[R4, #+8]
   \   00000068   3040BDE8           POP      {R4,R5,LR}
   \   0000006C   1EFF2FE1           BX       LR               ;; return

   \                                 In segment CODE, align 4, keep-with-next
   \   __??Code32?? __code __interwork __atpcs _Tree<_Tset_traits<PRogramObjectBase *, less<PRogramObjectBase *>, allocator<PRogramObjectBase *>, false>>::_Nodeptr _Tree<_Tset_traits<PRogramObjectBase *, less<PRogramObjectBase *>, allocator<PRogramObjectBase *>, false>>::_Copy(_Tree<_Tset_traits<PRogramObjectBase *, less<PRogramObjectBase *>, allocator<PRogramObjectBase *>, false>>::_Nodeptr, _Tree<_Tset_traits<PRogramObjectBase *, less<PRogramObjectBase *>, allocator<PRogramObjectBase *>, false>>::_Nodeptr)
   \                     ??_Copy_1:
   \   00000000   F0472DE9           PUSH     {R4-R10,LR}
   \   00000004   0040A0E1           MOV      R4,R0
   \   00000008   0150A0E1           MOV      R5,R1
   \   0000000C   0D00D5E5           LDRB     R0,[R5, #+13]
   \   00000010   0280A0E1           MOV      R8,R2
   \   00000014   0460A0E1           MOV      R6,R4
   \   00000018   000050E3           CMP      R0,#+0
   \   0000001C   1900001A           BNE      ??_Copy_6
   \   00000020   0C90D5E5           LDRB     R9,[R5, #+12]
   \   00000024   10A095E5           LDR      R10,[R5, #+16]
   \   00000028   1400A0E3           MOV      R0,#+20
   \   0000002C   ........           _BLF     `??operator new`,`??operator new??rA`
   \   00000030   0070B0E1           MOVS     R7,R0
   \   00000034   0600000A           BEQ      ??_Copy_7
   \   00000038   004087E5           STR      R4,[R7, #+0]
   \   0000003C   048087E5           STR      R8,[R7, #+4]
   \   00000040   084087E5           STR      R4,[R7, #+8]
   \   00000044   0C90C7E5           STRB     R9,[R7, #+12]
   \   00000048   0000A0E3           MOV      R0,#+0
   \   0000004C   0D00C7E5           STRB     R0,[R7, #+13]
   \   00000050   10A087E5           STR      R10,[R7, #+16]
   \                     ??_Copy_7:
   \   00000054   0D00D6E5           LDRB     R0,[R6, #+13]
   \   00000058   001095E5           LDR      R1,[R5, #+0]
   \   0000005C   0720A0E1           MOV      R2,R7
   \   00000060   000050E3           CMP      R0,#+0
   \   00000064   0760A011           MOVNE    R6,R7
   \   00000068   0400A0E1           MOV      R0,R4
   \   0000006C   E3FFFFEB           BL       ??_Copy_1
   \   00000070   000087E5           STR      R0,[R7, #+0]
   \   00000074   081095E5           LDR      R1,[R5, #+8]
   \   00000078   0720A0E1           MOV      R2,R7
   \   0000007C   0400A0E1           MOV      R0,R4
   \   00000080   DEFFFFEB           BL       ??_Copy_1
   \   00000084   080087E5           STR      R0,[R7, #+8]
   \                     ??_Copy_6:
   \   00000088   0600A0E1           MOV      R0,R6
   \   0000008C   F047BDE8           POP      {R4-R10,LR}
   \   00000090   1EFF2FE1           BX       LR               ;; return

   \                                 In segment CODE, align 4, keep-with-next
   \   __??Code32?? __code __interwork __atpcs void _Tree<_Tset_traits<AlarmBasic *, less<AlarmBasic *>, allocator<AlarmBasic *>, false>>::_Erase(_Tree<_Tset_traits<AlarmBasic *, less<AlarmBasic *>, allocator<AlarmBasic *>, false>>::_Nodeptr)
   \                     ??_Erase_1:
   \   00000000   70402DE9           PUSH     {R4-R6,LR}
   \   00000004   0040A0E1           MOV      R4,R0
   \   00000008   0150A0E1           MOV      R5,R1
   \   0000000C   0560A0E1           MOV      R6,R5
   \   00000010   060000EA           B        ??_Erase_27
   \                     ??_Erase_28:
   \   00000014   081096E5           LDR      R1,[R6, #+8]
   \   00000018   0400A0E1           MOV      R0,R4
   \   0000001C   F7FFFFEB           BL       ??_Erase_1
   \   00000020   006096E5           LDR      R6,[R6, #+0]
   \   00000024   0500A0E1           MOV      R0,R5
   \   00000028   ........           _BLF     `??operator delete`,`??operator delete??rA`
   \   0000002C   0650A0E1           MOV      R5,R6
   \                     ??_Erase_27:
   \   00000030   0D00D6E5           LDRB     R0,[R6, #+13]
   \   00000034   000050E3           CMP      R0,#+0
   \   00000038   F5FFFF0A           BEQ      ??_Erase_28
   \   0000003C   7040BDE8           POP      {R4-R6,LR}
   \   00000040   1EFF2FE1           BX       LR               ;; return

   \                                 In segment CODE, align 4, keep-with-next
   \   __??Code32?? __code __interwork __atpcs void _Tree<_Tset_traits<PRogramObjectBase *, less<PRogramObjectBase *>, allocator<PRogramObjectBase *>, false>>::_Erase(_Tree<_Tset_traits<PRogramObjectBase *, less<PRogramObjectBase *>, allocator<PRogramObjectBase *>, false>>::_Nodeptr)
   \                     ??_Erase_2:
   \   00000000   70402DE9           PUSH     {R4-R6,LR}
   \   00000004   0040A0E1           MOV      R4,R0
   \   00000008   0150A0E1           MOV      R5,R1
   \   0000000C   0560A0E1           MOV      R6,R5
   \   00000010   060000EA           B        ??_Erase_29
   \                     ??_Erase_30:
   \   00000014   081096E5           LDR      R1,[R6, #+8]
   \   00000018   0400A0E1           MOV      R0,R4
   \   0000001C   F7FFFFEB           BL       ??_Erase_2
   \   00000020   006096E5           LDR      R6,[R6, #+0]
   \   00000024   0500A0E1           MOV      R0,R5
   \   00000028   ........           _BLF     `??operator delete`,`??operator delete??rA`
   \   0000002C   0650A0E1           MOV      R5,R6
   \                     ??_Erase_29:
   \   00000030   0D00D6E5           LDRB     R0,[R6, #+13]
   \   00000034   000050E3           CMP      R0,#+0
   \   00000038   F5FFFF0A           BEQ      ??_Erase_30
   \   0000003C   7040BDE8           POP      {R4-R6,LR}
   \   00000040   1EFF2FE1           BX       LR               ;; return

   \                                 In segment CODE, align 4, keep-with-next
   \   __??Code32?? __code __interwork __atpcs _Tree<_Tset_traits<AlarmBasic *, less<AlarmBasic *>, allocator<AlarmBasic *>, false>>::iterator _Tree<_Tset_traits<AlarmBasic *, less<AlarmBasic *>, allocator<AlarmBasic *>, false>>::_Insert(bool, _Tree<_Tset_traits<AlarmBasic *, less<AlarmBasic *>, allocator<AlarmBasic *>, false>>::_Nodeptr, AlarmBasic *)
   \                     ??_Insert_1:
   \   00000000   F0412DE9           PUSH     {R4-R8,LR}
   \   00000004   0040A0E1           MOV      R4,R0
   \   00000008   0150A0E1           MOV      R5,R1
   \   0000000C   0260A0E1           MOV      R6,R2
   \   00000010   0370A0E1           MOV      R7,R3
   \   00000014   1400A0E3           MOV      R0,#+20
   \   00000018   ........           _BLF     `??operator new`,`??operator new??rA`
   \   0000001C   0080B0E1           MOVS     R8,R0
   \   00000020   0600000A           BEQ      ??_Insert_13
   \   00000024   004088E5           STR      R4,[R8, #+0]
   \   00000028   046088E5           STR      R6,[R8, #+4]
   \   0000002C   084088E5           STR      R4,[R8, #+8]
   \   00000030   0000A0E3           MOV      R0,#+0
   \   00000034   0C00C8E5           STRB     R0,[R8, #+12]
   \   00000038   0D00C8E5           STRB     R0,[R8, #+13]
   \   0000003C   107088E5           STR      R7,[R8, #+16]
   \                     ??_Insert_13:
   \   00000040   0830A0E1           MOV      R3,R8
   \   00000044   0620A0E1           MOV      R2,R6
   \   00000048   0510A0E1           MOV      R1,R5
   \   0000004C   0400A0E1           MOV      R0,R4
   \   00000050   ........           _BLF     ??_Insert,??_Insert??rA_2
   \   00000054   0800A0E1           MOV      R0,R8
   \   00000058   F041BDE8           POP      {R4-R8,LR}
   \   0000005C   1EFF2FE1           BX       LR               ;; return

   \                                 In segment CODE, align 4, keep-with-next
   \   __??Code32?? __code __interwork __atpcs _Tree<_Tset_traits<PRogramObjectBase *, less<PRogramObjectBase *>, allocator<PRogramObjectBase *>, false>>::iterator _Tree<_Tset_traits<PRogramObjectBase *, less<PRogramObjectBase *>, allocator<PRogramObjectBase *>, false>>::_Insert(bool, _Tree<_Tset_traits<PRogramObjectBase *, less<PRogramObjectBase *>, allocator<PRogramObjectBase *>, false>>::_Nodeptr, PRogramObjectBase *)
   \                     ??_Insert_2:
   \   00000000   F0412DE9           PUSH     {R4-R8,LR}
   \   00000004   0040A0E1           MOV      R4,R0
   \   00000008   0150A0E1           MOV      R5,R1
   \   0000000C   0260A0E1           MOV      R6,R2
   \   00000010   0370A0E1           MOV      R7,R3
   \   00000014   1400A0E3           MOV      R0,#+20
   \   00000018   ........           _BLF     `??operator new`,`??operator new??rA`
   \   0000001C   0080B0E1           MOVS     R8,R0
   \   00000020   0600000A           BEQ      ??_Insert_14
   \   00000024   004088E5           STR      R4,[R8, #+0]
   \   00000028   046088E5           STR      R6,[R8, #+4]
   \   0000002C   084088E5           STR      R4,[R8, #+8]
   \   00000030   0000A0E3           MOV      R0,#+0
   \   00000034   0C00C8E5           STRB     R0,[R8, #+12]
   \   00000038   0D00C8E5           STRB     R0,[R8, #+13]
   \   0000003C   107088E5           STR      R7,[R8, #+16]
   \                     ??_Insert_14:
   \   00000040   0830A0E1           MOV      R3,R8
   \   00000044   0620A0E1           MOV      R2,R6
   \   00000048   0510A0E1           MOV      R1,R5
   \   0000004C   0400A0E1           MOV      R0,R4
   \   00000050   ........           _BLF     ??_Insert,??_Insert??rA_2
   \   00000054   0800A0E1           MOV      R0,R8
   \   00000058   F041BDE8           POP      {R4-R8,LR}
   \   0000005C   1EFF2FE1           BX       LR               ;; return

   \                                 In segment CODE, align 4, keep-with-next
   \   __??Code32?? __code __interwork __atpcs _Tree<_Tset_traits<AlarmBasic *, less<AlarmBasic *>, allocator<AlarmBasic *>, false>>::_Nodeptr _Tree<_Tset_traits<AlarmBasic *, less<AlarmBasic *>, allocator<AlarmBasic *>, false>>::_Lbound(AlarmBasic *) const
   \                     ??_Lbound:
   \   00000000   042090E5           LDR      R2,[R0, #+4]
   \                     ??_Lbound_1:
   \   00000004   0D30D2E5           LDRB     R3,[R2, #+13]
   \   00000008   000053E3           CMP      R3,#+0
   \   0000000C   1EFF2F11           BXNE     LR
   \   00000010   103092E5           LDR      R3,[R2, #+16]
   \   00000014   010053E1           CMP      R3,R1
   \   00000018   08209235           LDRCC    R2,[R2, #+8]
   \   0000001C   0200A021           MOVCS    R0,R2
   \   00000020   00209225           LDRCS    R2,[R2, #+0]
   \   00000024   F6FFFFEA           B        ??_Lbound_1

   \                                 In segment CODE, align 4, keep-with-next
   \   __??Code32?? __code __interwork __atpcs _Tree<_Tset_traits<AlarmBasic *, less<AlarmBasic *>, allocator<AlarmBasic *>, false>>::_Nodeptr _Tree<_Tset_traits<AlarmBasic *, less<AlarmBasic *>, allocator<AlarmBasic *>, false>>::_Ubound(AlarmBasic *) const
   \                     ??_Ubound:
   \   00000000   042090E5           LDR      R2,[R0, #+4]
   \                     ??_Ubound_1:
   \   00000004   0D30D2E5           LDRB     R3,[R2, #+13]
   \   00000008   000053E3           CMP      R3,#+0
   \   0000000C   1EFF2F11           BXNE     LR
   \   00000010   103092E5           LDR      R3,[R2, #+16]
   \   00000014   030051E1           CMP      R1,R3
   \   00000018   08209225           LDRCS    R2,[R2, #+8]
   \   0000001C   0200A031           MOVCC    R0,R2
   \   00000020   00209235           LDRCC    R2,[R2, #+0]
   \   00000024   F6FFFFEA           B        ??_Ubound_1

   \                                 In segment CODE, align 4, keep-with-next
   \   __??Code32?? __code __interwork __atpcs set<PRogramObjectBase *>::set(set<PRogramObjectBase *> const &)
   \                     ??set:
   \   00000000   70402DE9           PUSH     {R4-R6,LR}
   \   00000004   0150A0E1           MOV      R5,R1
   \   00000008   1460D5E5           LDRB     R6,[R5, #+20]
   \   0000000C   0040A0E1           MOV      R4,R0
   \   00000010   ........           _BLF     ??_Clear,??_Clear??rA
   \   00000014   1460C4E5           STRB     R6,[R4, #+20]
   \   00000018   0510A0E1           MOV      R1,R5
   \   0000001C   0400A0E1           MOV      R0,R4
   \   00000020   ........           _BLF     ??_Copy,??_Copy??rA_1
   \   00000024   0400A0E1           MOV      R0,R4
   \   00000028   7040BDE8           POP      {R4-R6,LR}
   \   0000002C   1EFF2FE1           BX       LR               ;; return

   \                                 In segment CODE, align 4, keep-with-next
   \   __??Code32?? __code __interwork __atpcs set<PRogramObjectBase *>::~set()
   \                     `?~set`:
   \   00000000   00402DE9           PUSH     {LR}
   \   00000004   ........           _BLF     ??clear,??clear??rA
   \   00000008   0040BDE8           POP      {LR}
   \   0000000C   1EFF2FE1           BX       LR               ;; return

   \                                 In segment CODE, align 4, keep-with-next
   \   __??Code32?? __code __interwork __atpcs set<PRogramObjectBase *>::set()
   \                     ??set_1:
   \   00000000   11402DE9           PUSH     {R0,R4,LR}
   \   00000004   0040A0E1           MOV      R4,R0
   \   00000008   0110A0E3           MOV      R1,#+1
   \   0000000C   0D00A0E1           MOV      R0,SP
   \   00000010   ........           _BLF     __data_memzero,??__data_memzero??rA
   \   00000014   0400A0E1           MOV      R0,R4
   \   00000018   ........           _BLF     ??_Clear,??_Clear??rA
   \   0000001C   0000DDE5           LDRB     R0,[SP, #+0]
   \   00000020   1400C4E5           STRB     R0,[R4, #+20]
   \   00000024   0400A0E1           MOV      R0,R4
   \   00000028   1240BDE8           POP      {R1,R4,LR}
   \   0000002C   1EFF2FE1           BX       LR               ;; return

   \                                 In segment CODE, align 4, keep-with-next
   \   __??Code32?? __code __interwork __atpcs void _Vector_impl<int, allocator<int>>::_Tidy0()
   \                     ??_Tidy0:
   \   00000000   00402DE9           PUSH     {LR}
   \   00000004   001090E5           LDR      R1,[R0, #+0]
   \   00000008   000051E3           CMP      R1,#+0
   \   0000000C   0200000A           BEQ      ??_Tidy0_1
   \   00000010   041080E5           STR      R1,[R0, #+4]
   \   00000014   0100A0E1           MOV      R0,R1
   \   00000018   ........           _BLF     `??operator delete`,`??operator delete??rA`
   \                     ??_Tidy0_1:
   \   0000001C   0040BDE8           POP      {LR}
   \   00000020   1EFF2FE1           BX       LR               ;; return

   \                                 In segment CODE, align 4, keep-with-next
   \   __??Code32?? __code __interwork __atpcs int * _Vector_impl<int, allocator<int>>::_Insert(int *, int const &)
   \                     ??_Insert_3:
   \   00000000   70402DE9           PUSH     {R4-R6,LR}
   \   00000004   005092E5           LDR      R5,[R2, #+0]
   \   00000008   0040A0E1           MOV      R4,R0
   \   0000000C   000094E5           LDR      R0,[R4, #+0]
   \   00000010   0120A0E3           MOV      R2,#+1
   \   00000014   000050E3           CMP      R0,#+0
   \   00000018   0060A003           MOVEQ    R6,#+0
   \   0000001C   00604110           SUBNE    R6,R1,R0
   \   00000020   0400A0E1           MOV      R0,R4
   \   00000024   ........           _BLF     ??_Make_room,??_Make_room??rA
   \   00000028   0110A0E3           MOV      R1,#+1
   \                     ??_Insert_15:
   \   0000002C   ........           STR      R5,[R0], #+4
   \   00000030   011051E2           SUBS     R1,R1,#+1
   \   00000034   FCFFFF1A           BNE      ??_Insert_15
   \   00000038   000094E5           LDR      R0,[R4, #+0]
   \   0000003C   000086E0           ADD      R0,R6,R0
   \   00000040   7040BDE8           POP      {R4-R6,LR}
   \   00000044   1EFF2FE1           BX       LR               ;; return

   \                                 In segment CODE, align 4, keep-with-next
   \   __??Code32?? __code __interwork __atpcs int * _Vector_impl<int, allocator<int>>::_Make_room(int *, unsigned int)
   \                     ??_Make_room:
   \   00000000   F0472DE9           PUSH     {R4-R10,LR}
   \   00000004   0040A0E1           MOV      R4,R0
   \   00000008   000094E5           LDR      R0,[R4, #+0]
   \   0000000C   0150A0E1           MOV      R5,R1
   \   00000010   081094E5           LDR      R1,[R4, #+8]
   \   00000014   0260A0E1           MOV      R6,R2
   \   00000018   001041E0           SUB      R1,R1,R0
   \   0000001C   2171A0E1           LSR      R7,R1,#+2
   \   00000020   041094E5           LDR      R1,[R4, #+4]
   \   00000024   000056E3           CMP      R6,#+0
   \   00000028   000041E0           SUB      R0,R1,R0
   \   0000002C   2001A0E1           LSR      R0,R0,#+2
   \   00000030   2900000A           BEQ      ??_Make_room_1
   \   00000034   C024E0E3           MVN      R2,#-1073741824
   \   00000038   002042E0           SUB      R2,R2,R0
   \   0000003C   060052E1           CMP      R2,R6
   \   00000040   2500003A           BCC      ??_Make_room_1
   \   00000044   008086E0           ADD      R8,R6,R0
   \   00000048   080057E1           CMP      R7,R8
   \   0000004C   1C00002A           BCS      ??_Make_room_2
   \   00000050   A700A0E1           LSR      R0,R7,#+1
   \   00000054   C014E0E3           MVN      R1,#-1073741824
   \   00000058   001041E0           SUB      R1,R1,R0
   \   0000005C   070051E1           CMP      R1,R7
   \   00000060   0070A033           MOVCC    R7,#+0
   \   00000064   07708020           ADDCS    R7,R0,R7
   \   00000068   080057E1           CMP      R7,R8
   \   0000006C   0870A031           MOVCC    R7,R8
   \   00000070   0701A0E1           LSL      R0,R7,#+2
   \   00000074   ........           _BLF     `??operator new`,`??operator new??rA`
   \   00000078   0090A0E1           MOV      R9,R0
   \   0000007C   000094E5           LDR      R0,[R4, #+0]
   \   00000080   0920A0E1           MOV      R2,R9
   \   00000084   0510A0E1           MOV      R1,R5
   \   00000088   ........           _BLF     _Copy_a4,??_Copy_a4??rA
   \   0000008C   041094E5           LDR      R1,[R4, #+4]
   \   00000090   00A0A0E1           MOV      R10,R0
   \   00000094   06218AE0           ADD      R2,R10,R6, LSL #+2
   \   00000098   0500A0E1           MOV      R0,R5
   \   0000009C   ........           _BLF     _Copy_a4,??_Copy_a4??rA
   \   000000A0   0400A0E1           MOV      R0,R4
   \   000000A4   ........           _BLF     ??_Tidy0,??_Tidy0??rA
   \   000000A8   070189E0           ADD      R0,R9,R7, LSL #+2
   \   000000AC   080084E5           STR      R0,[R4, #+8]
   \   000000B0   080189E0           ADD      R0,R9,R8, LSL #+2
   \   000000B4   040084E5           STR      R0,[R4, #+4]
   \   000000B8   009084E5           STR      R9,[R4, #+0]
   \   000000BC   0A50A0E1           MOV      R5,R10
   \   000000C0   050000EA           B        ??_Make_room_1
   \                     ??_Make_room_2:
   \   000000C4   062181E0           ADD      R2,R1,R6, LSL #+2
   \   000000C8   0500A0E1           MOV      R0,R5
   \   000000CC   ........           _BLF     _Copy_backward_a4,??_Copy_backward_a4??rA
   \   000000D0   040094E5           LDR      R0,[R4, #+4]
   \   000000D4   060180E0           ADD      R0,R0,R6, LSL #+2
   \   000000D8   040084E5           STR      R0,[R4, #+4]
   \                     ??_Make_room_1:
   \   000000DC   0500A0E1           MOV      R0,R5
   \   000000E0   F047BDE8           POP      {R4-R10,LR}
   \   000000E4   1EFF2FE1           BX       LR               ;; return

   \                                 In segment CODE, align 4, keep-with-next
   \   __??Code32?? __code __interwork __atpcs void _Vector_impl<int, allocator<int>>::_Push_back0(int)
   \                     ??_Push_back0:
   \   00000000   02402DE9           PUSH     {R1,LR}
   \   00000004   041090E5           LDR      R1,[R0, #+4]
   \   00000008   082090E5           LDR      R2,[R0, #+8]
   \   0000000C   020051E1           CMP      R1,R2
   \   00000010   0800002A           BCS      ??_Push_back0_1
   \   00000014   00209DE5           LDR      R2,[SP, #+0]
   \   00000018   0130A0E3           MOV      R3,#+1
   \   0000001C   01C0A0E1           MOV      R12,R1
   \                     ??_Push_back0_2:
   \   00000020   ........           STR      R2,[R12], #+4
   \   00000024   013053E2           SUBS     R3,R3,#+1
   \   00000028   FCFFFF1A           BNE      ??_Push_back0_2
   \   0000002C   041081E2           ADD      R1,R1,#+4
   \   00000030   041080E5           STR      R1,[R0, #+4]
   \   00000034   010000EA           B        ??_Push_back0_3
   \                     ??_Push_back0_1:
   \   00000038   0D20A0E1           MOV      R2,SP
   \   0000003C   ........           _BLF     ??_Insert_3,??_Insert??rA_3
   \                     ??_Push_back0_3:
   \   00000040   0140BDE8           POP      {R0,LR}
   \   00000044   1EFF2FE1           BX       LR               ;; return

   \                                 In segment CODE, align 4, keep-with-next
   \   __??Code32?? __code __interwork __atpcs vector<int>::~vector()
   \                     `?~vector`:
   \   00000000   10402DE9           PUSH     {R4,LR}
   \   00000004   0040A0E1           MOV      R4,R0
   \   00000008   ........           _BLF     ??_Tidy0,??_Tidy0??rA
   \   0000000C   0000A0E3           MOV      R0,#+0
   \   00000010   000084E5           STR      R0,[R4, #+0]
   \   00000014   040084E5           STR      R0,[R4, #+4]
   \   00000018   080084E5           STR      R0,[R4, #+8]
   \   0000001C   1040BDE8           POP      {R4,LR}
   \   00000020   1EFF2FE1           BX       LR               ;; return

   \                                 In segment CODE, align 4, keep-with-next
   \   __??Code32?? __code __interwork __atpcs void operator+(string const &, string const &)
   \                     `??operator+`:
   \   00000000   30402DE9           PUSH     {R4,R5,LR}
   \   00000004   1CD04DE2           SUB      SP,SP,#+28
   \   00000008   0040A0E1           MOV      R4,R0
   \   0000000C   0250A0E1           MOV      R5,R2
   \   00000010   0D00A0E1           MOV      R0,SP
   \   00000014   ........           _BLF     ??string,??string??rA
   \   00000018   34109FE5           LDR      R1,`??operator+_2`  ;; ??npos
   \   0000001C   0020A0E3           MOV      R2,#+0
   \   00000020   003091E5           LDR      R3,[R1, #+0]
   \   00000024   0510A0E1           MOV      R1,R5
   \   00000028   ........           _BLF     ??append,??append??rA
   \   0000002C   0010A0E1           MOV      R1,R0
   \   00000030   0400A0E1           MOV      R0,R4
   \   00000034   ........           _BLF     ??string,??string??rA
   \   00000038   0020A0E3           MOV      R2,#+0
   \   0000003C   0110A0E3           MOV      R1,#+1
   \   00000040   0D00A0E1           MOV      R0,SP
   \   00000044   ........           _BLF     ??_Tidy,??_Tidy??rA
   \   00000048   1CD08DE2           ADD      SP,SP,#+28
   \   0000004C   3040BDE8           POP      {R4,R5,LR}
   \   00000050   1EFF2FE1           BX       LR               ;; return
   \                     `??operator+_2`:
   \   00000054   ........           DC32     ??npos

   \                                 In segment CODE, align 4, keep-with-next
   \   __??Code32?? __code __interwork __atpcs void operator+(string const &, char const *)
   \                     `??operator+_1`:
   \   00000000   70402DE9           PUSH     {R4-R6,LR}
   \   00000004   1CD04DE2           SUB      SP,SP,#+28
   \   00000008   0040A0E1           MOV      R4,R0
   \   0000000C   0250A0E1           MOV      R5,R2
   \   00000010   0D00A0E1           MOV      R0,SP
   \   00000014   ........           _BLF     ??string,??string??rA
   \   00000018   0060A0E1           MOV      R6,R0
   \   0000001C   0500A0E1           MOV      R0,R5
   \   00000020   ........           _BLF     strlen,??strlen??rA
   \   00000024   0020A0E1           MOV      R2,R0
   \   00000028   0510A0E1           MOV      R1,R5
   \   0000002C   0600A0E1           MOV      R0,R6
   \   00000030   ........           _BLF     ??append_1,??append??rA_1
   \   00000034   0010A0E1           MOV      R1,R0
   \   00000038   0400A0E1           MOV      R0,R4
   \   0000003C   ........           _BLF     ??string,??string??rA
   \   00000040   0020A0E3           MOV      R2,#+0
   \   00000044   0110A0E3           MOV      R1,#+1
   \   00000048   0D00A0E1           MOV      R0,SP
   \   0000004C   ........           _BLF     ??_Tidy,??_Tidy??rA
   \   00000050   1CD08DE2           ADD      SP,SP,#+28
   \   00000054   7040BDE8           POP      {R4-R6,LR}
   \   00000058   1EFF2FE1           BX       LR               ;; return
      2          #pragma hdrstop
      3          #ifdef BORLAND
      4          #pragma package(smart_init)
      5          #endif
      6          
      7          //---------------------------------------------------------------------------

   \                                 In segment CODE, align 4, keep-with-next
   \   static __??Code32?? __intrinsic __code __interwork __atpcs void __sti__routine()
   \                     ??__sti__routine:
   \   00000000   30402DE9           PUSH     {R4,R5,LR}
      8          set<PRogramObjectBase *>TPCxObject::ObjectSet;
   \   00000004   ........           LDR      R4,??DataTable4  ;; ??ObjectSet
   \   00000008   44509FE5           LDR      R5,??__sti__routine_1  ;; ?_0
   \   0000000C   0400A0E1           MOV      R0,R4
   \   00000010   ........           _BLF     ??set_1,??set??rA
   \   00000014   0500A0E1           MOV      R0,R5
   \   00000018   ........           _BLF     __record_needed_destruction,??__record_needed_destruction??rA
      9          bool TPCxObject::ShowAlarmMsg      = false;
     10          
     11          set<PRogramObjectBase *>TPCxObject::tPCLists[TPC_MAX_PRIM_ADRESSES];
   \   0000001C   ........           LDR      R3,??DataTable1  ;; ??set_1
   \   00000020   1820A0E3           MOV      R2,#+24
   \   00000024   1010A0E3           MOV      R1,#+16
   \   00000028   180084E2           ADD      R0,R4,#+24
   \   0000002C   ........           _BLF     __data_vec_construct,??__data_vec_construct??rA
   \   00000030   0C0085E2           ADD      R0,R5,#+12
   \   00000034   ........           _BLF     __record_needed_destruction,??__record_needed_destruction??rA
     12          vector<int> TPCxObject::PrimaryAddressTable;
   \   00000038   0000A0E3           MOV      R0,#+0
   \   0000003C   980184E5           STR      R0,[R4, #+408]
   \   00000040   9C0184E5           STR      R0,[R4, #+412]
   \   00000044   A00184E5           STR      R0,[R4, #+416]
   \   00000048   180085E2           ADD      R0,R5,#+24
   \   0000004C   ........           _BLF     __record_needed_destruction,??__record_needed_destruction??rA
   \   00000050   ........           B        ?Subroutine29
   \                     ??__sti__routine_1:
   \   00000054   ........           DC32     ?_0

   \                                 In segment DATA_C, align 4, align-sorted
   \                     ?_0:
   \   00000000   ............       DC32 ?_1, ??ObjectSet, `?~set`
   \              ............
   \   0000000C   ........0000       DC32 ?_3, 0H, `?<Unnamed 0>`
   \              0000........
   \   00000018   ............       DC32 ?_5, ??PrimaryAddressTable, `?~vector`
   \              ............

   \                                 In segment DATA_Z, align 4, align-sorted
   \                     ??ObjectSet:
   \   00000000                      DS8 24
   \                     ??tPCLists:
   \   00000018                      DS8 384
   \                     ??PrimaryAddressTable:
   \   00000198                      DS8 12
   \                     ??ShowAlarmMsg:
   \   000001A4                      DS8 1
     13          
     14          
     15          

   \                                 In segment CODE, align 4, keep-with-next
     16          TPCxObject::TPCxObject(void) : PRogramObject(false)
   \                     ??TPCxObject:
   \   00000000   33402DE9           PUSH     {R0,R1,R4,R5,LR}
     17          {
     18             ObjectSet.insert(this);
   \   00000004   ........           LDR      R5,??DataTable4  ;; ??ObjectSet
   \   00000008   0040A0E1           MOV      R4,R0
   \   0000000C   0010A0E3           MOV      R1,#+0
   \   00000010   ........           _BLF     ??PRogramObject,??PRogramObject??rA
   \   00000014   ........           LDR      R0,??DataTable5  ;; ??__vtbl
   \   00000018   A40084E5           STR      R0,[R4, #+164]
   \   0000001C   590F84E2           ADD      R0,R4,#+356
   \   00000020   ........           _BLF     ??AnsiString,??AnsiString??rA
   \   00000024   600F84E2           ADD      R0,R4,#+384
   \   00000028   ........           _BLF     ??AnsiString,??AnsiString??rA
   \   0000002C   0420A0E1           MOV      R2,R4
   \   00000030   0510A0E1           MOV      R1,R5
   \   00000034   0D00A0E1           MOV      R0,SP
   \   00000038   ........           _BLF     ??insert_1,??insert??rA
     19             IDNumber = (C_PRO_T_PANEL_CONTR << 16) + ObjectSet.size();
   \   0000003C   100095E5           LDR      R0,[R5, #+16]
   \   00000040   4016A0E3           MOV      R1,#+67108864
   \   00000044   881881E3           ORR      R1,R1,#0x880000
   \   00000048   000081E0           ADD      R0,R1,R0
   \   0000004C   9C0084E5           STR      R0,[R4, #+156]
     20             Initiate();
   \   00000050   0400A0E1           MOV      R0,R4
   \   00000054   ........           BL       ??Initiate
     21          }
   \   00000058   0400A0E1           MOV      R0,R4
   \   0000005C   3640BDE8           POP      {R1,R2,R4,R5,LR}
   \   00000060   1EFF2FE1           BX       LR               ;; return
     22          //---------------------------------------------------------------------------
     23          

   \                                 In segment CODE, align 4, keep-with-next
     24          TPCxObject::TPCxObject(int number): PRogramObject(false)
   \                     ??TPCxObject_1:
   \   00000000   73402DE9           PUSH     {R0,R1,R4-R6,LR}
     25          {
     26             ObjectSet.insert(this);
   \   00000004   ........           LDR      R6,??DataTable4  ;; ??ObjectSet
   \   00000008   0040A0E1           MOV      R4,R0
   \   0000000C   0150A0E1           MOV      R5,R1
   \   00000010   0010A0E3           MOV      R1,#+0
   \   00000014   ........           _BLF     ??PRogramObject,??PRogramObject??rA
   \   00000018   ........           LDR      R0,??DataTable5  ;; ??__vtbl
   \   0000001C   A40084E5           STR      R0,[R4, #+164]
   \   00000020   590F84E2           ADD      R0,R4,#+356
   \   00000024   ........           _BLF     ??AnsiString,??AnsiString??rA
   \   00000028   600F84E2           ADD      R0,R4,#+384
   \   0000002C   ........           _BLF     ??AnsiString,??AnsiString??rA
   \   00000030   0420A0E1           MOV      R2,R4
   \   00000034   0610A0E1           MOV      R1,R6
   \   00000038   0D00A0E1           MOV      R0,SP
   \   0000003C   ........           _BLF     ??insert_1,??insert??rA
     27             if (number == 0)
   \   00000040   000055E3           CMP      R5,#+0
     28             {
     29                IDNumber = (C_PRO_T_PANEL_CONTR << 16) + ObjectSet.size();
   \   00000044   10009605           LDREQ    R0,[R6, #+16]
   \   00000048   4016A003           MOVEQ    R1,#+67108864
   \   0000004C   88188103           ORREQ    R1,R1,#0x880000
   \   00000050   00508100           ADDEQ    R5,R1,R0
     30             }
     31             else
     32             {
     33                IDNumber = number;
   \   00000054   9C5084E5           STR      R5,[R4, #+156]
     34             }
     35             Initiate();
   \   00000058   0400A0E1           MOV      R0,R4
   \   0000005C   ........           BL       ??Initiate
     36          }
   \   00000060   0400A0E1           MOV      R0,R4
   \   00000064   7640BDE8           POP      {R1,R2,R4-R6,LR}
   \   00000068   1EFF2FE1           BX       LR               ;; return
     37          //---------------------------------------------------------------------------
     38          

   \                                 In segment CODE, align 4, keep-with-next
     39          void TPCxObject::Initiate(void)
     40          {
     41             Type              = C_PRO_T_PANEL_CONTR;
   \                     ??Initiate:
   \   00000000   8810A0E3           MOV      R1,#+136
   \   00000004   401E81E3           ORR      R1,R1,#0x400
   \   00000008   A01080E5           STR      R1,[R0, #+160]
     42             TCUAddress        = 0;
   \   0000000C   0020A0E3           MOV      R2,#+0
   \   00000010   542180E5           STR      R2,[R0, #+340]
     43             //TCUPort               = C_TCU_COM_485_TPC;
     44             //TCUPortNo         = 0;
     45             TPCType           = C_PRO_T_PANEL_CONTR;
   \   00000014   581180E5           STR      R1,[R0, #+344]
     46             PrimaryAddress    = 0;
   \   00000018   5C2180E5           STR      R2,[R0, #+348]
     47             SecondaryAddress  = 0;
   \   0000001C   602180E5           STR      R2,[R0, #+352]
     48             TPCAlarmWinPtr    = NULL;
   \   00000020   A82180E5           STR      R2,[R0, #+424]
     49             for (int ind = 0; ind < TPC_MAX_DISPLAY_WINDOWS; ind++)
   \   00000024   0010A0E3           MOV      R1,#+0
     50             {
     51                TPCWindows[ind] = NULL;
   \                     ??Initiate_1:
   \   00000028   013180E0           ADD      R3,R0,R1, LSL #+2
   \   0000002C   AC2183E5           STR      R2,[R3, #+428]
     52             }
   \   00000030   011081E2           ADD      R1,R1,#+1
   \   00000034   070051E3           CMP      R1,#+7
   \   00000038   FAFFFFBA           BLT      ??Initiate_1
     53             TPCWindowCount    = 0;
   \   0000003C   C82180E5           STR      R2,[R0, #+456]
     54             OnePROPtrOnly     = true;
   \   00000040   0110A0E3           MOV      R1,#+1
   \   00000044   A411C0E5           STRB     R1,[R0, #+420]
     55             FirstTime         = 0;
   \   00000048   482180E5           STR      R2,[R0, #+328]
     56             CurrentAlarmPtr   = NULL;
   \   0000004C   A02180E5           STR      R2,[R0, #+416]
     57          
     58          //  CurrentComponentType = 0;
     59          }
   \   00000050   1EFF2FE1           BX       LR               ;; return
     60          //---------------------------------------------------------------------------
     61          

   \                                 In segment CODE, align 4, keep-with-next
     62          TPCxObject::~TPCxObject(void)
     63          {
   \                     `?~TPCxObject`:
   \   00000000   F0412DE9           PUSH     {R4-R8,LR}
   \   00000004   0040A0E1           MOV      R4,R0
   \   00000008   0150A0E1           MOV      R5,R1
   \   0000000C   000054E3           CMP      R4,#+0
   \   00000010   2000000A           BEQ      `?~TPCxObject_1`
     64             if (TPCAlarmWinPtr)
   \   00000014   A80194E5           LDR      R0,[R4, #+424]
   \   00000018   0060A0E3           MOV      R6,#+0
   \   0000001C   000050E3           CMP      R0,#+0
   \   00000020   0100000A           BEQ      `?~TPCxObject_2`
     65             {
     66                delete TPCAlarmWinPtr;
   \   00000024   ........           _BLF     `??delete ~TPCAlarmWindow`,`??delete ~TPCAlarmWindow??rA`
     67                TPCAlarmWinPtr = NULL;
   \   00000028   A86184E5           STR      R6,[R4, #+424]
     68             }
     69             for (int ind = 0; ind < TPCWindowCount; ind++)
   \                     `?~TPCxObject_2`:
   \   0000002C   0070A0E3           MOV      R7,#+0
   \   00000030   060000EA           B        `?~TPCxObject_3`
     70             {
     71                if (TPCWindows[ind])
   \                     `?~TPCxObject_4`:
   \   00000034   078184E0           ADD      R8,R4,R7, LSL #+2
   \   00000038   AC0198E5           LDR      R0,[R8, #+428]
   \   0000003C   000050E3           CMP      R0,#+0
   \   00000040   0100000A           BEQ      `?~TPCxObject_5`
     72                {
     73                   delete TPCWindows[ind];
   \   00000044   ........           _BLF     `??delete ~TPCWindow`,`??delete ~TPCWindow??rA`
     74                   TPCWindows[ind] = NULL;
   \   00000048   AC6188E5           STR      R6,[R8, #+428]
     75                }
     76             }
   \                     `?~TPCxObject_5`:
   \   0000004C   017087E2           ADD      R7,R7,#+1
   \                     `?~TPCxObject_3`:
   \   00000050   C80194E5           LDR      R0,[R4, #+456]
   \   00000054   000057E1           CMP      R7,R0
   \   00000058   F5FFFFBA           BLT      `?~TPCxObject_4`
     77          }
   \   0000005C   0020A0E3           MOV      R2,#+0
   \   00000060   0110A0E3           MOV      R1,#+1
   \   00000064   600F84E2           ADD      R0,R4,#+384
   \   00000068   ........           _BLF     ??_Tidy,??_Tidy??rA
   \   0000006C   0620A0E1           MOV      R2,R6
   \   00000070   0110A0E3           MOV      R1,#+1
   \   00000074   590F84E2           ADD      R0,R4,#+356
   \   00000078   ........           _BLF     ??_Tidy,??_Tidy??rA
   \   0000007C   0610A0E1           MOV      R1,R6
   \   00000080   0400A0E1           MOV      R0,R4
   \   00000084   ........           _BLF     `?~PRogramObject`,`?~PRogramObject??rA`
   \   00000088   010015E3           TST      R5,#0x1
   \   0000008C   0100000A           BEQ      `?~TPCxObject_1`
   \   00000090   0400A0E1           MOV      R0,R4
   \   00000094   ........           _BLF     `??operator delete`,`??operator delete??rA`
   \                     `?~TPCxObject_1`:
   \   00000098   F041BDE8           POP      {R4-R8,LR}
   \   0000009C   1EFF2FE1           BX       LR               ;; return
     78          //---------------------------------------------------------------------------
     79          
     80          ///////////////////////////////////////////////////////////////
     81          //
     82          // Routines for the Configuration
     83          //
     84          ///////////////////////////////////////////////////////////////

   \                                 In segment CODE, align 4, keep-with-next
     85          AnsiString TPCxObject::MakeConfigString(int ExtraTabs)
     86          {
   \                     ??MakeConfigString:
   \   00000000   F0472DE9           PUSH     {R4-R10,LR}
     87             AnsiString LocalString;
     88             LocalString += TabStr2 + KeyWord(C_TPC_START_COMMON) + CrLfStr;
   \   00000004   38759FE5           LDR      R7,??MakeConfigString_2  ;; TabStr2
   \   00000008   ........           LDR      R8,??DataTable10  ;; CrLfStr
   \   0000000C   E0DF4DE2           SUB      SP,SP,#+896
   \   00000010   0040A0E1           MOV      R4,R0
     89             LocalString += TabStr3 + KeyWord(C_TPC_TYPE) + KeyWord(TPCType) + CrLfStr;
   \   00000014   2C959FE5           LDR      R9,??MakeConfigString_2+0x4  ;; TabStr3
   \   00000018   0150A0E1           MOV      R5,R1
   \   0000001C   0500A0E1           MOV      R0,R5
   \   00000020   ........           _BLF     ??AnsiString,??AnsiString??rA
   \   00000024   A510A0E3           MOV      R1,#+165
   \   00000028   601E81E3           ORR      R1,R1,#0x600
   \   0000002C   54008DE2           ADD      R0,SP,#+84
   \   00000030   ........           _BLF     ??KeyWord,??KeyWord??rA
   \   00000034   54208DE2           ADD      R2,SP,#+84
   \   00000038   0710A0E1           MOV      R1,R7
   \   0000003C   38008DE2           ADD      R0,SP,#+56
   \   00000040   ........           _BLF     `??operator+`,`??operator+??rA`
   \   00000044   0820A0E1           MOV      R2,R8
   \   00000048   38108DE2           ADD      R1,SP,#+56
   \   0000004C   1C008DE2           ADD      R0,SP,#+28
   \   00000050   ........           _BLF     `??operator+`,`??operator+??rA`
   \   00000054   ........           LDR      R0,??DataTable11  ;; ??npos
   \   00000058   0020A0E3           MOV      R2,#+0
   \   0000005C   006090E5           LDR      R6,[R0, #+0]
   \   00000060   1C108DE2           ADD      R1,SP,#+28
   \   00000064   0630A0E1           MOV      R3,R6
   \   00000068   0500A0E1           MOV      R0,R5
   \   0000006C   ........           _BLF     ??append,??append??rA
   \   00000070   0020A0E3           MOV      R2,#+0
   \   00000074   0110A0E3           MOV      R1,#+1
   \   00000078   1C008DE2           ADD      R0,SP,#+28
   \   0000007C   ........           _BLF     ??_Tidy,??_Tidy??rA
   \   00000080   0020A0E3           MOV      R2,#+0
   \   00000084   0110A0E3           MOV      R1,#+1
   \   00000088   38008DE2           ADD      R0,SP,#+56
   \   0000008C   ........           _BLF     ??_Tidy,??_Tidy??rA
   \   00000090   0020A0E3           MOV      R2,#+0
   \   00000094   0110A0E3           MOV      R1,#+1
   \   00000098   54008DE2           ADD      R0,SP,#+84
   \   0000009C   ........           _BLF     ??_Tidy,??_Tidy??rA
   \   000000A0   581194E5           LDR      R1,[R4, #+344]
   \   000000A4   E0008DE2           ADD      R0,SP,#+224
   \   000000A8   ........           _BLF     ??KeyWord,??KeyWord??rA
   \   000000AC   AE10A0E3           MOV      R1,#+174
   \   000000B0   601E81E3           ORR      R1,R1,#0x600
   \   000000B4   C4008DE2           ADD      R0,SP,#+196
   \   000000B8   ........           _BLF     ??KeyWord,??KeyWord??rA
   \   000000BC   C4208DE2           ADD      R2,SP,#+196
   \   000000C0   0910A0E1           MOV      R1,R9
   \   000000C4   A8008DE2           ADD      R0,SP,#+168
   \   000000C8   ........           _BLF     `??operator+`,`??operator+??rA`
   \   000000CC   E0208DE2           ADD      R2,SP,#+224
   \   000000D0   A8108DE2           ADD      R1,SP,#+168
   \   000000D4   8C008DE2           ADD      R0,SP,#+140
   \   000000D8   ........           _BLF     `??operator+`,`??operator+??rA`
   \   000000DC   0820A0E1           MOV      R2,R8
   \   000000E0   8C108DE2           ADD      R1,SP,#+140
   \   000000E4   70008DE2           ADD      R0,SP,#+112
   \   000000E8   ........           _BLF     `??operator+`,`??operator+??rA`
   \   000000EC   0630A0E1           MOV      R3,R6
   \   000000F0   0020A0E3           MOV      R2,#+0
   \   000000F4   70108DE2           ADD      R1,SP,#+112
   \   000000F8   0500A0E1           MOV      R0,R5
   \   000000FC   ........           _BLF     ??append,??append??rA
   \   00000100   0020A0E3           MOV      R2,#+0
   \   00000104   0110A0E3           MOV      R1,#+1
   \   00000108   70008DE2           ADD      R0,SP,#+112
   \   0000010C   ........           _BLF     ??_Tidy,??_Tidy??rA
   \   00000110   0020A0E3           MOV      R2,#+0
   \   00000114   0110A0E3           MOV      R1,#+1
   \   00000118   8C008DE2           ADD      R0,SP,#+140
   \   0000011C   ........           _BLF     ??_Tidy,??_Tidy??rA
   \   00000120   0020A0E3           MOV      R2,#+0
   \   00000124   0110A0E3           MOV      R1,#+1
   \   00000128   E0008DE2           ADD      R0,SP,#+224
   \   0000012C   ........           _BLF     ??_Tidy,??_Tidy??rA
   \   00000130   0020A0E3           MOV      R2,#+0
   \   00000134   0110A0E3           MOV      R1,#+1
   \   00000138   A8008DE2           ADD      R0,SP,#+168
   \   0000013C   ........           _BLF     ??_Tidy,??_Tidy??rA
   \   00000140   0020A0E3           MOV      R2,#+0
   \   00000144   0110A0E3           MOV      R1,#+1
   \   00000148   C4008DE2           ADD      R0,SP,#+196
   \   0000014C   ........           _BLF     ??_Tidy,??_Tidy??rA
     90             LocalString += TabStr3 + KeyWord(C_TPC_PRI_ADDR) + (AnsiString)PrimaryAddress + CrLfStr;
   \   00000150   5C1194E5           LDR      R1,[R4, #+348]
   \   00000154   C40F8DE2           ADD      R0,SP,#+784
   \   00000158   ........           _BLF     ??AnsiString_1,??AnsiString??rA_1
   \   0000015C   00A0A0E1           MOV      R10,R0
   \   00000160   B810A0E3           MOV      R1,#+184
   \   00000164   601E81E3           ORR      R1,R1,#0x600
   \   00000168   540F8DE2           ADD      R0,SP,#+336
   \   0000016C   ........           _BLF     ??KeyWord,??KeyWord??rA
   \   00000170   542F8DE2           ADD      R2,SP,#+336
   \   00000174   0910A0E1           MOV      R1,R9
   \   00000178   4D0F8DE2           ADD      R0,SP,#+308
   \   0000017C   ........           _BLF     `??operator+`,`??operator+??rA`
   \   00000180   0A20A0E1           MOV      R2,R10
   \   00000184   4D1F8DE2           ADD      R1,SP,#+308
   \   00000188   460F8DE2           ADD      R0,SP,#+280
   \   0000018C   ........           _BLF     `??operator+`,`??operator+??rA`
   \   00000190   0820A0E1           MOV      R2,R8
   \   00000194   461F8DE2           ADD      R1,SP,#+280
   \   00000198   FC008DE2           ADD      R0,SP,#+252
   \   0000019C   ........           _BLF     `??operator+`,`??operator+??rA`
   \   000001A0   0630A0E1           MOV      R3,R6
   \   000001A4   0020A0E3           MOV      R2,#+0
   \   000001A8   FC108DE2           ADD      R1,SP,#+252
   \   000001AC   0500A0E1           MOV      R0,R5
   \   000001B0   ........           _BLF     ??append,??append??rA
   \   000001B4   0020A0E3           MOV      R2,#+0
   \   000001B8   0110A0E3           MOV      R1,#+1
   \   000001BC   FC008DE2           ADD      R0,SP,#+252
   \   000001C0   ........           _BLF     ??_Tidy,??_Tidy??rA
   \   000001C4   0020A0E3           MOV      R2,#+0
   \   000001C8   0110A0E3           MOV      R1,#+1
   \   000001CC   460F8DE2           ADD      R0,SP,#+280
   \   000001D0   ........           _BLF     ??_Tidy,??_Tidy??rA
   \   000001D4   0020A0E3           MOV      R2,#+0
   \   000001D8   0110A0E3           MOV      R1,#+1
   \   000001DC   C40F8DE2           ADD      R0,SP,#+784
   \   000001E0   ........           _BLF     ??_Tidy,??_Tidy??rA
   \   000001E4   0020A0E3           MOV      R2,#+0
   \   000001E8   0110A0E3           MOV      R1,#+1
   \   000001EC   4D0F8DE2           ADD      R0,SP,#+308
   \   000001F0   ........           _BLF     ??_Tidy,??_Tidy??rA
   \   000001F4   0020A0E3           MOV      R2,#+0
   \   000001F8   0110A0E3           MOV      R1,#+1
   \   000001FC   540F8DE2           ADD      R0,SP,#+336
   \   00000200   ........           _BLF     ??_Tidy,??_Tidy??rA
     91             LocalString += TabStr3 + KeyWord(C_TPC_SEC_ADDR) + (AnsiString)SecondaryAddress + CrLfStr;
   \   00000204   601194E5           LDR      R1,[R4, #+352]
   \   00000208   CB0F8DE2           ADD      R0,SP,#+812
   \   0000020C   ........           _BLF     ??AnsiString_1,??AnsiString??rA_1
   \   00000210   00A0A0E1           MOV      R10,R0
   \   00000214   B910A0E3           MOV      R1,#+185
   \   00000218   601E81E3           ORR      R1,R1,#0x600
   \   0000021C   700F8DE2           ADD      R0,SP,#+448
   \   00000220   ........           _BLF     ??KeyWord,??KeyWord??rA
   \   00000224   702F8DE2           ADD      R2,SP,#+448
   \   00000228   0910A0E1           MOV      R1,R9
   \   0000022C   690F8DE2           ADD      R0,SP,#+420
   \   00000230   ........           _BLF     `??operator+`,`??operator+??rA`
   \   00000234   0A20A0E1           MOV      R2,R10
   \   00000238   691F8DE2           ADD      R1,SP,#+420
   \   0000023C   620F8DE2           ADD      R0,SP,#+392
   \   00000240   ........           _BLF     `??operator+`,`??operator+??rA`
   \   00000244   0820A0E1           MOV      R2,R8
   \   00000248   621F8DE2           ADD      R1,SP,#+392
   \   0000024C   5B0F8DE2           ADD      R0,SP,#+364
   \   00000250   ........           _BLF     `??operator+`,`??operator+??rA`
   \   00000254   0630A0E1           MOV      R3,R6
   \   00000258   0020A0E3           MOV      R2,#+0
   \   0000025C   5B1F8DE2           ADD      R1,SP,#+364
   \   00000260   0500A0E1           MOV      R0,R5
   \   00000264   ........           _BLF     ??append,??append??rA
   \   00000268   0020A0E3           MOV      R2,#+0
   \   0000026C   0110A0E3           MOV      R1,#+1
   \   00000270   5B0F8DE2           ADD      R0,SP,#+364
   \   00000274   ........           _BLF     ??_Tidy,??_Tidy??rA
   \   00000278   0020A0E3           MOV      R2,#+0
   \   0000027C   0110A0E3           MOV      R1,#+1
   \   00000280   620F8DE2           ADD      R0,SP,#+392
   \   00000284   ........           _BLF     ??_Tidy,??_Tidy??rA
   \   00000288   0020A0E3           MOV      R2,#+0
   \   0000028C   0110A0E3           MOV      R1,#+1
   \   00000290   CB0F8DE2           ADD      R0,SP,#+812
   \   00000294   ........           _BLF     ??_Tidy,??_Tidy??rA
   \   00000298   0020A0E3           MOV      R2,#+0
   \   0000029C   0110A0E3           MOV      R1,#+1
   \   000002A0   690F8DE2           ADD      R0,SP,#+420
   \   000002A4   ........           _BLF     ??_Tidy,??_Tidy??rA
   \   000002A8   0020A0E3           MOV      R2,#+0
   \   000002AC   0110A0E3           MOV      R1,#+1
   \   000002B0   700F8DE2           ADD      R0,SP,#+448
   \   000002B4   ........           _BLF     ??_Tidy,??_Tidy??rA
     92             LocalString += TabStr3 + KeyWord(C_TCU_ADDRESS) + (AnsiString)TCUAddress + CrLfStr;
   \   000002B8   541194E5           LDR      R1,[R4, #+340]
   \   000002BC   D20F8DE2           ADD      R0,SP,#+840
   \   000002C0   ........           _BLF     ??AnsiString_1,??AnsiString??rA_1
   \   000002C4   00A0A0E1           MOV      R10,R0
   \   000002C8   0510A0E3           MOV      R1,#+5
   \   000002CC   801E81E3           ORR      R1,R1,#0x800
   \   000002D0   8C0F8DE2           ADD      R0,SP,#+560
   \   000002D4   ........           _BLF     ??KeyWord,??KeyWord??rA
   \   000002D8   8C2F8DE2           ADD      R2,SP,#+560
   \   000002DC   0910A0E1           MOV      R1,R9
   \   000002E0   850F8DE2           ADD      R0,SP,#+532
   \   000002E4   ........           _BLF     `??operator+`,`??operator+??rA`
   \   000002E8   0A20A0E1           MOV      R2,R10
   \   000002EC   851F8DE2           ADD      R1,SP,#+532
   \   000002F0   7E0F8DE2           ADD      R0,SP,#+504
   \   000002F4   ........           _BLF     `??operator+`,`??operator+??rA`
   \   000002F8   0820A0E1           MOV      R2,R8
   \   000002FC   7E1F8DE2           ADD      R1,SP,#+504
   \   00000300   770F8DE2           ADD      R0,SP,#+476
   \   00000304   ........           _BLF     `??operator+`,`??operator+??rA`
   \   00000308   0630A0E1           MOV      R3,R6
   \   0000030C   0020A0E3           MOV      R2,#+0
   \   00000310   771F8DE2           ADD      R1,SP,#+476
   \   00000314   0500A0E1           MOV      R0,R5
   \   00000318   ........           _BLF     ??append,??append??rA
   \   0000031C   0020A0E3           MOV      R2,#+0
   \   00000320   0110A0E3           MOV      R1,#+1
   \   00000324   770F8DE2           ADD      R0,SP,#+476
   \   00000328   ........           _BLF     ??_Tidy,??_Tidy??rA
   \   0000032C   0020A0E3           MOV      R2,#+0
   \   00000330   0110A0E3           MOV      R1,#+1
   \   00000334   7E0F8DE2           ADD      R0,SP,#+504
   \   00000338   ........           _BLF     ??_Tidy,??_Tidy??rA
   \   0000033C   0020A0E3           MOV      R2,#+0
   \   00000340   0110A0E3           MOV      R1,#+1
   \   00000344   D20F8DE2           ADD      R0,SP,#+840
   \   00000348   ........           _BLF     ??_Tidy,??_Tidy??rA
   \   0000034C   0020A0E3           MOV      R2,#+0
   \   00000350   0110A0E3           MOV      R1,#+1
   \   00000354   850F8DE2           ADD      R0,SP,#+532
   \   00000358   ........           _BLF     ??_Tidy,??_Tidy??rA
   \   0000035C   0020A0E3           MOV      R2,#+0
   \   00000360   0110A0E3           MOV      R1,#+1
   \   00000364   8C0F8DE2           ADD      R0,SP,#+560
   \   00000368   ........           _BLF     ??_Tidy,??_Tidy??rA
     93             int OneProPtr = 0;
     94             if (OnePROPtrOnly) OneProPtr = 1;
   \   0000036C   A401D4E5           LDRB     R0,[R4, #+420]
   \   00000370   0010A0E3           MOV      R1,#+0
   \   00000374   000050E3           CMP      R0,#+0
   \   00000378   0110A013           MOVNE    R1,#+1
     95             LocalString += TabStr3 + KeyWord(C_TCU_ONE_PROPTR) + (AnsiString)OneProPtr + CrLfStr;
   \   0000037C   D90F8DE2           ADD      R0,SP,#+868
   \   00000380   ........           _BLF     ??AnsiString_1,??AnsiString??rA_1
   \   00000384   00A0A0E1           MOV      R10,R0
   \   00000388   BA10A0E3           MOV      R1,#+186
   \   0000038C   601E81E3           ORR      R1,R1,#0x600
   \   00000390   A80F8DE2           ADD      R0,SP,#+672
   \   00000394   ........           _BLF     ??KeyWord,??KeyWord??rA
   \   00000398   A82F8DE2           ADD      R2,SP,#+672
   \   0000039C   0910A0E1           MOV      R1,R9
   \   000003A0   A10F8DE2           ADD      R0,SP,#+644
   \   000003A4   ........           _BLF     `??operator+`,`??operator+??rA`
   \   000003A8   0A20A0E1           MOV      R2,R10
   \   000003AC   A11F8DE2           ADD      R1,SP,#+644
   \   000003B0   9A0F8DE2           ADD      R0,SP,#+616
   \   000003B4   ........           _BLF     `??operator+`,`??operator+??rA`
   \   000003B8   0820A0E1           MOV      R2,R8
   \   000003BC   9A1F8DE2           ADD      R1,SP,#+616
   \   000003C0   930F8DE2           ADD      R0,SP,#+588
   \   000003C4   ........           _BLF     `??operator+`,`??operator+??rA`
   \   000003C8   0630A0E1           MOV      R3,R6
   \   000003CC   0020A0E3           MOV      R2,#+0
   \   000003D0   931F8DE2           ADD      R1,SP,#+588
   \   000003D4   0500A0E1           MOV      R0,R5
   \   000003D8   ........           _BLF     ??append,??append??rA
   \   000003DC   0020A0E3           MOV      R2,#+0
   \   000003E0   0110A0E3           MOV      R1,#+1
   \   000003E4   930F8DE2           ADD      R0,SP,#+588
   \   000003E8   ........           _BLF     ??_Tidy,??_Tidy??rA
   \   000003EC   0020A0E3           MOV      R2,#+0
   \   000003F0   0110A0E3           MOV      R1,#+1
   \   000003F4   9A0F8DE2           ADD      R0,SP,#+616
   \   000003F8   ........           _BLF     ??_Tidy,??_Tidy??rA
   \   000003FC   0020A0E3           MOV      R2,#+0
   \   00000400   0110A0E3           MOV      R1,#+1
   \   00000404   D90F8DE2           ADD      R0,SP,#+868
   \   00000408   ........           _BLF     ??_Tidy,??_Tidy??rA
   \   0000040C   0020A0E3           MOV      R2,#+0
   \   00000410   0110A0E3           MOV      R1,#+1
   \   00000414   A10F8DE2           ADD      R0,SP,#+644
   \   00000418   ........           _BLF     ??_Tidy,??_Tidy??rA
   \   0000041C   0020A0E3           MOV      R2,#+0
   \   00000420   0110A0E3           MOV      R1,#+1
   \   00000424   A80F8DE2           ADD      R0,SP,#+672
   \   00000428   ........           _BLF     ??_Tidy,??_Tidy??rA
     96             LocalString += TabStr2 + KeyWord(C_TPC_END_COMMON) + CrLfStr;
   \   0000042C   A610A0E3           MOV      R1,#+166
   \   00000430   601E81E3           ORR      R1,R1,#0x600
   \   00000434   BD0F8DE2           ADD      R0,SP,#+756
   \   00000438   ........           _BLF     ??KeyWord,??KeyWord??rA
   \   0000043C   BD2F8DE2           ADD      R2,SP,#+756
   \   00000440   0710A0E1           MOV      R1,R7
   \   00000444   B60F8DE2           ADD      R0,SP,#+728
   \   00000448   ........           _BLF     `??operator+`,`??operator+??rA`
   \   0000044C   0820A0E1           MOV      R2,R8
   \   00000450   B61F8DE2           ADD      R1,SP,#+728
   \   00000454   AF0F8DE2           ADD      R0,SP,#+700
   \   00000458   ........           _BLF     `??operator+`,`??operator+??rA`
   \   0000045C   0630A0E1           MOV      R3,R6
   \   00000460   0020A0E3           MOV      R2,#+0
   \   00000464   AF1F8DE2           ADD      R1,SP,#+700
   \   00000468   0500A0E1           MOV      R0,R5
   \   0000046C   ........           _BLF     ??append,??append??rA
   \   00000470   0020A0E3           MOV      R2,#+0
   \   00000474   0110A0E3           MOV      R1,#+1
   \   00000478   AF0F8DE2           ADD      R0,SP,#+700
   \   0000047C   ........           _BLF     ??_Tidy,??_Tidy??rA
   \   00000480   0020A0E3           MOV      R2,#+0
   \   00000484   0110A0E3           MOV      R1,#+1
   \   00000488   B60F8DE2           ADD      R0,SP,#+728
   \   0000048C   ........           _BLF     ??_Tidy,??_Tidy??rA
   \   00000490   0020A0E3           MOV      R2,#+0
   \   00000494   0110A0E3           MOV      R1,#+1
   \   00000498   BD0F8DE2           ADD      R0,SP,#+756
   \   0000049C   ........           _BLF     ??_Tidy,??_Tidy??rA
     97          
     98             if (TPCAlarmWinPtr)
   \   000004A0   A80194E5           LDR      R0,[R4, #+424]
   \   000004A4   000050E3           CMP      R0,#+0
   \   000004A8   0B00000A           BEQ      ??MakeConfigString_3
     99             {
    100                LocalString += TPCAlarmWinPtr->MakeConfigString();
   \   000004AC   0020A0E3           MOV      R2,#+0
   \   000004B0   0D10A0E1           MOV      R1,SP
   \   000004B4   ........           _BLF     ??MakeConfigString_1,??MakeConfigString??rA
   \   000004B8   0630A0E1           MOV      R3,R6
   \   000004BC   0020A0E3           MOV      R2,#+0
   \   000004C0   0D10A0E1           MOV      R1,SP
   \   000004C4   0500A0E1           MOV      R0,R5
   \   000004C8   ........           _BLF     ??append,??append??rA
   \   000004CC   0020A0E3           MOV      R2,#+0
   \   000004D0   0110A0E3           MOV      R1,#+1
   \   000004D4   0D00A0E1           MOV      R0,SP
   \   000004D8   ........           _BLF     ??_Tidy,??_Tidy??rA
    101             }
    102             for (int ind = 0; ind < TPC_MAX_DISPLAY_WINDOWS; ind++)
   \                     ??MakeConfigString_3:
   \   000004DC   0070A0E3           MOV      R7,#+0
    103             {
    104                if (TPCWindows[ind]) LocalString += TPCWindows[ind]->MakeConfigString();
   \                     ??MakeConfigString_4:
   \   000004E0   073184E0           ADD      R3,R4,R7, LSL #+2
   \   000004E4   AC0193E5           LDR      R0,[R3, #+428]
   \   000004E8   000050E3           CMP      R0,#+0
   \   000004EC   0E00000A           BEQ      ??MakeConfigString_5
   \   000004F0   103090E5           LDR      R3,[R0, #+16]
   \   000004F4   0020A0E3           MOV      R2,#+0
   \   000004F8   003093E5           LDR      R3,[R3, #+0]
   \   000004FC   0D10A0E1           MOV      R1,SP
   \   00000500   0FE0A0E1           MOV      LR,PC
   \   00000504   13FF2FE1           BX       R3
   \   00000508   0630A0E1           MOV      R3,R6
   \   0000050C   0020A0E3           MOV      R2,#+0
   \   00000510   0D10A0E1           MOV      R1,SP
   \   00000514   0500A0E1           MOV      R0,R5
   \   00000518   ........           _BLF     ??append,??append??rA
   \   0000051C   0020A0E3           MOV      R2,#+0
   \   00000520   0110A0E3           MOV      R1,#+1
   \   00000524   0D00A0E1           MOV      R0,SP
   \   00000528   ........           _BLF     ??_Tidy,??_Tidy??rA
    105             }
   \                     ??MakeConfigString_5:
   \   0000052C   017087E2           ADD      R7,R7,#+1
   \   00000530   070057E3           CMP      R7,#+7
   \   00000534   E9FFFFBA           BLT      ??MakeConfigString_4
    106          
    107             // LocalString += PogramObjectBase::MakeConfigString();
    108             return (LocalString);
   \   00000538   E0DF8DE2           ADD      SP,SP,#+896
   \   0000053C   F047BDE8           POP      {R4-R10,LR}
   \   00000540   1EFF2FE1           BX       LR               ;; return
   \                     ??MakeConfigString_2:
   \   00000544   ........           DC32     TabStr2
   \   00000548   ........           DC32     TabStr3
    109          }
    110          //---------------------------------------------------------------------------
    111          

   \                                 In segment CODE, align 4, keep-with-next
    112          bool TPCxObject::LoadConfigString(TSNConfigString& ConfigString)
    113          {
   \                     ??LoadConfigString:
   \   00000000   F04F2DE9           PUSH     {R4-R11,LR}
    114             bool NoError = true;
    115             int ErrorLine = 0;
   \   00000004   ........           LDR      R10,??DataTable12  ;; `?<Constant "TPC ">`
   \   00000008   72DF4DE2           SUB      SP,SP,#+456
   \   0000000C   0040A0E1           MOV      R4,R0
   \   00000010   0150A0E1           MOV      R5,R1
   \   00000014   0170A0E3           MOV      R7,#+1
   \   00000018   0010A0E3           MOV      R1,#+0
   \   0000001C   00108DE5           STR      R1,[SP, #+0]
   \   00000020   F09F8FE2           ADR      R9,??LoadConfigString_2  ;; "-"
    116             int Key;
    117             do
    118             {
    119                AnsiString InputKeyWord = ConfigString.NextWord(ErrorLine);
   \                     ??LoadConfigString_3:
   \   00000024   0030A0E3           MOV      R3,#+0
   \   00000028   0D20A0E1           MOV      R2,SP
   \   0000002C   B0108DE2           ADD      R1,SP,#+176
   \   00000030   0500A0E1           MOV      R0,R5
   \   00000034   ........           _BLF     ??NextWord,??NextWord??rA
    120                if (ErrorLine)
   \   00000038   00009DE5           LDR      R0,[SP, #+0]
   \   0000003C   000050E3           CMP      R0,#+0
   \   00000040   3A00000A           BEQ      ??LoadConfigString_4
    121                {
    122                   if (ErrorLine != EOF)
   \   00000044   010070E3           CMN      R0,#+1
   \   00000048   F800000A           BEQ      ??LoadConfigString_5
    123                   {
    124                      GiveConfigWarning((AnsiString)"TPC " + (AnsiString)PrimaryAddress + "-" + (AnsiString)SecondaryAddress, ErrorLine);
   \   0000004C   601194E5           LDR      R1,[R4, #+352]
   \   00000050   78008DE2           ADD      R0,SP,#+120
   \   00000054   ........           _BLF     ??AnsiString_1,??AnsiString??rA_1
   \   00000058   5C1194E5           LDR      R1,[R4, #+348]
   \   0000005C   0080A0E1           MOV      R8,R0
   \   00000060   94008DE2           ADD      R0,SP,#+148
   \   00000064   ........           _BLF     ??AnsiString_1,??AnsiString??rA_1
   \   00000068   00B0A0E1           MOV      R11,R0
   \   0000006C   0A10A0E1           MOV      R1,R10
   \   00000070   5C008DE2           ADD      R0,SP,#+92
   \   00000074   ........           _BLF     ??AnsiString_2,??AnsiString??rA_2
   \   00000078   0B20A0E1           MOV      R2,R11
   \   0000007C   0010A0E1           MOV      R1,R0
   \   00000080   24008DE2           ADD      R0,SP,#+36
   \   00000084   ........           _BLF     `??operator+`,`??operator+??rA`
   \   00000088   0920A0E1           MOV      R2,R9
   \   0000008C   24108DE2           ADD      R1,SP,#+36
   \   00000090   08008DE2           ADD      R0,SP,#+8
   \   00000094   ........           _BLF     `??operator+_1`,`??operator+??rA_1`
   \   00000098   0820A0E1           MOV      R2,R8
   \   0000009C   08108DE2           ADD      R1,SP,#+8
   \   000000A0   40008DE2           ADD      R0,SP,#+64
   \   000000A4   ........           _BLF     `??operator+`,`??operator+??rA`
   \   000000A8   40108DE2           ADD      R1,SP,#+64
   \   000000AC   CC008DE2           ADD      R0,SP,#+204
   \   000000B0   ........           _BLF     ??AnsiString_3,??AnsiString??rA_3
   \   000000B4   00109DE5           LDR      R1,[SP, #+0]
   \   000000B8   ........           _BLF     ??GiveConfigWarning,??GiveConfigWarning??rA
   \   000000BC   0020A0E3           MOV      R2,#+0
   \   000000C0   0110A0E3           MOV      R1,#+1
   \   000000C4   CC008DE2           ADD      R0,SP,#+204
   \   000000C8   ........           _BLF     ??_Tidy,??_Tidy??rA
   \   000000CC   0020A0E3           MOV      R2,#+0
   \   000000D0   0110A0E3           MOV      R1,#+1
   \   000000D4   40008DE2           ADD      R0,SP,#+64
   \   000000D8   ........           _BLF     ??_Tidy,??_Tidy??rA
   \   000000DC   0020A0E3           MOV      R2,#+0
   \   000000E0   0110A0E3           MOV      R1,#+1
   \   000000E4   78008DE2           ADD      R0,SP,#+120
   \   000000E8   ........           _BLF     ??_Tidy,??_Tidy??rA
   \   000000EC   0020A0E3           MOV      R2,#+0
   \   000000F0   0110A0E3           MOV      R1,#+1
   \   000000F4   08008DE2           ADD      R0,SP,#+8
   \   000000F8   ........           _BLF     ??_Tidy,??_Tidy??rA
   \   000000FC   0020A0E3           MOV      R2,#+0
   \   00000100   0110A0E3           MOV      R1,#+1
   \   00000104   24008DE2           ADD      R0,SP,#+36
   \   00000108   ........           _BLF     ??_Tidy,??_Tidy??rA
   \   0000010C   0020A0E3           MOV      R2,#+0
   \   00000110   0110A0E3           MOV      R1,#+1
   \   00000114   94008DE2           ADD      R0,SP,#+148
   \   00000118   ........           _BLF     ??_Tidy,??_Tidy??rA
   \   0000011C   0020A0E3           MOV      R2,#+0
   \   00000120   0110A0E3           MOV      R1,#+1
   \   00000124   5C008DE2           ADD      R0,SP,#+92
   \                     ??LoadConfigString_6:
   \   00000128   ........           _BLF     ??_Tidy,??_Tidy??rA
   \   0000012C   BF0000EA           B        ??LoadConfigString_5
    125                   }
    126                }
    127                else
    128                {
    129                   Key = FindConfigKey(InputKeyWord);
   \                     ??LoadConfigString_4:
   \   00000130   B0108DE2           ADD      R1,SP,#+176
   \   00000134   5C008DE2           ADD      R0,SP,#+92
   \   00000138   ........           _BLF     ??string,??string??rA
   \   0000013C   5C008DE2           ADD      R0,SP,#+92
   \   00000140   ........           _BLF     ??FindConfigKey,??FindConfigKey??rA
   \   00000144   04008DE5           STR      R0,[SP, #+4]
   \   00000148   0020A0E3           MOV      R2,#+0
   \   0000014C   0110A0E3           MOV      R1,#+1
   \   00000150   5C008DE2           ADD      R0,SP,#+92
   \   00000154   ........           _BLF     ??_Tidy,??_Tidy??rA
    130                   switch (Key)
   \   00000158   04009DE5           LDR      R0,[SP, #+4]
   \   0000015C   A610A0E3           MOV      R1,#+166
   \   00000160   601E81E3           ORR      R1,R1,#0x600
   \   00000164   010050E1           CMP      R0,R1
   \   00000168   B000000A           BEQ      ??LoadConfigString_5
   \   0000016C   081081E3           ORR      R1,R1,#0x8
   \   00000170   010050E1           CMP      R0,R1
   \   00000174   4C00000A           BEQ      ??LoadConfigString_7
   \   00000178   0A1081E2           ADD      R1,R1,#+10
   \   0000017C   010050E1           CMP      R0,R1
   \   00000180   6000000A           BEQ      ??LoadConfigString_8
   \   00000184   011081E3           ORR      R1,R1,#0x1
   \   00000188   010050E1           CMP      R0,R1
   \   0000018C   6300000A           BEQ      ??LoadConfigString_9
   \   00000190   011081E2           ADD      R1,R1,#+1
   \   00000194   010050E1           CMP      R0,R1
   \   00000198   9300000A           BEQ      ??LoadConfigString_10
   \   0000019C   0510A0E3           MOV      R1,#+5
   \   000001A0   801E81E3           ORR      R1,R1,#0x800
   \   000001A4   010050E1           CMP      R0,R1
   \   000001A8   9700000A           BEQ      ??LoadConfigString_11
    131                   {
    132                   default:
    133                      GiveConfigWarning((AnsiString)"TPC " + (AnsiString)PrimaryAddress + "-" + (AnsiString)SecondaryAddress, InputKeyWord, ConfigString.LineCount);
   \   000001AC   B0108DE2           ADD      R1,SP,#+176
   \   000001B0   E8008DE2           ADD      R0,SP,#+232
   \   000001B4   ........           _BLF     ??string,??string??rA
   \   000001B8   601194E5           LDR      R1,[R4, #+352]
   \   000001BC   6B0F8DE2           ADD      R0,SP,#+428
   \   000001C0   ........           _BLF     ??AnsiString_1,??AnsiString??rA_1
   \   000001C4   5C1194E5           LDR      R1,[R4, #+348]
   \   000001C8   0080A0E1           MOV      R8,R0
   \   000001CC   640F8DE2           ADD      R0,SP,#+400
   \   000001D0   ........           _BLF     ??AnsiString_1,??AnsiString??rA_1
   \   000001D4   00B0A0E1           MOV      R11,R0
   \   000001D8   0A10A0E1           MOV      R1,R10
   \   000001DC   5D0F8DE2           ADD      R0,SP,#+372
   \   000001E0   ........           _BLF     ??AnsiString_2,??AnsiString??rA_2
   \   000001E4   0010A0E1           MOV      R1,R0
   \   000001E8   0B20A0E1           MOV      R2,R11
   \   000001EC   560F8DE2           ADD      R0,SP,#+344
   \   000001F0   ........           _BLF     `??operator+`,`??operator+??rA`
   \   000001F4   0920A0E1           MOV      R2,R9
   \   000001F8   561F8DE2           ADD      R1,SP,#+344
   \   000001FC   4F0F8DE2           ADD      R0,SP,#+316
   \   00000200   ........           _BLF     `??operator+_1`,`??operator+??rA_1`
   \   00000204   0820A0E1           MOV      R2,R8
   \   00000208   4F1F8DE2           ADD      R1,SP,#+316
   \   0000020C   480F8DE2           ADD      R0,SP,#+288
   \   00000210   ........           _BLF     `??operator+`,`??operator+??rA`
   \   00000214   481F8DE2           ADD      R1,SP,#+288
   \   00000218   410F8DE2           ADD      R0,SP,#+260
   \   0000021C   ........           _BLF     ??AnsiString_3,??AnsiString??rA_3
   \   00000220   1C2095E5           LDR      R2,[R5, #+28]
   \   00000224   E8108DE2           ADD      R1,SP,#+232
   \   00000228   ........           _BLF     ??GiveConfigWarning_1,??GiveConfigWarning??rA_1
   \   0000022C   0020A0E3           MOV      R2,#+0
   \   00000230   0110A0E3           MOV      R1,#+1
   \   00000234   E8008DE2           ADD      R0,SP,#+232
   \   00000238   ........           _BLF     ??_Tidy,??_Tidy??rA
   \   0000023C   0020A0E3           MOV      R2,#+0
   \   00000240   0110A0E3           MOV      R1,#+1
   \   00000244   410F8DE2           ADD      R0,SP,#+260
   \   00000248   ........           _BLF     ??_Tidy,??_Tidy??rA
   \   0000024C   0020A0E3           MOV      R2,#+0
   \   00000250   0110A0E3           MOV      R1,#+1
   \   00000254   480F8DE2           ADD      R0,SP,#+288
   \   00000258   ........           _BLF     ??_Tidy,??_Tidy??rA
   \   0000025C   0020A0E3           MOV      R2,#+0
   \   00000260   0110A0E3           MOV      R1,#+1
   \   00000264   6B0F8DE2           ADD      R0,SP,#+428
   \   00000268   ........           _BLF     ??_Tidy,??_Tidy??rA
   \   0000026C   0020A0E3           MOV      R2,#+0
   \   00000270   0110A0E3           MOV      R1,#+1
   \   00000274   4F0F8DE2           ADD      R0,SP,#+316
   \   00000278   ........           _BLF     ??_Tidy,??_Tidy??rA
   \   0000027C   0020A0E3           MOV      R2,#+0
   \   00000280   0110A0E3           MOV      R1,#+1
   \   00000284   560F8DE2           ADD      R0,SP,#+344
   \   00000288   ........           _BLF     ??_Tidy,??_Tidy??rA
   \   0000028C   0020A0E3           MOV      R2,#+0
   \   00000290   0110A0E3           MOV      R1,#+1
   \   00000294   640F8DE2           ADD      R0,SP,#+400
   \   00000298   ........           _BLF     ??_Tidy,??_Tidy??rA
   \   0000029C   0020A0E3           MOV      R2,#+0
   \   000002A0   0110A0E3           MOV      R1,#+1
   \   000002A4   5D0F8DE2           ADD      R0,SP,#+372
   \   000002A8   9EFFFFEA           B        ??LoadConfigString_6
    134                      break;
    135                   case C_TPC_END_COMMON:
    136                      break;
    137                   case C_TPC_TYPE:
    138                      {
    139                         AnsiString temp = ConfigString.NextWord(ErrorLine);
   \                     ??LoadConfigString_7:
   \   000002AC   0030A0E3           MOV      R3,#+0
   \   000002B0   0D20A0E1           MOV      R2,SP
   \   000002B4   08108DE2           ADD      R1,SP,#+8
   \   000002B8   0500A0E1           MOV      R0,R5
   \   000002BC   ........           _BLF     ??NextWord,??NextWord??rA
    140                         TPCType = FindConfigKey(temp);
   \   000002C0   08108DE2           ADD      R1,SP,#+8
   \   000002C4   24008DE2           ADD      R0,SP,#+36
   \   000002C8   ........           _BLF     ??string,??string??rA
   \   000002CC   24008DE2           ADD      R0,SP,#+36
   \   000002D0   ........           _BLF     ??FindConfigKey,??FindConfigKey??rA
   \   000002D4   580184E5           STR      R0,[R4, #+344]
   \   000002D8   0020A0E3           MOV      R2,#+0
   \   000002DC   0110A0E3           MOV      R1,#+1
   \   000002E0   24008DE2           ADD      R0,SP,#+36
   \   000002E4   ........           _BLF     ??_Tidy,??_Tidy??rA
    141                         NoError = !ErrorLine;
   \   000002E8   00009DE5           LDR      R0,[SP, #+0]
    142                      }
   \   000002EC   0020A0E3           MOV      R2,#+0
   \   000002F0   000050E3           CMP      R0,#+0
   \   000002F4   0170A003           MOVEQ    R7,#+1
   \   000002F8   0070A013           MOVNE    R7,#+0
   \   000002FC   0110A0E3           MOV      R1,#+1
   \   00000300   08008DE2           ADD      R0,SP,#+8
   \   00000304   87FFFFEA           B        ??LoadConfigString_6
    143                      break;
    144                   case C_TPC_PRI_ADDR:
    145                      {
    146                         PrimaryAddress = ConfigString.ReadLong(ErrorLine);
   \                     ??LoadConfigString_8:
   \   00000308   0020A0E3           MOV      R2,#+0
   \   0000030C   0D10A0E1           MOV      R1,SP
   \   00000310   0500A0E1           MOV      R0,R5
   \   00000314   ........           _BLF     ??ReadLong,??ReadLong??rA
   \   00000318   5C0184E5           STR      R0,[R4, #+348]
    147                         NoError = !ErrorLine;
   \   0000031C   3F0000EA           B        ??LoadConfigString_12
    148                      }
    149                      break;
    150                   case C_TPC_SEC_ADDR:
    151                      {
    152                         SecondaryAddress = ConfigString.ReadLong(ErrorLine);
   \                     ??LoadConfigString_9:
   \   00000320   0020A0E3           MOV      R2,#+0
   \   00000324   0D10A0E1           MOV      R1,SP
   \   00000328   0500A0E1           MOV      R0,R5
   \   0000032C   ........           _BLF     ??ReadLong,??ReadLong??rA
   \   00000330   600184E5           STR      R0,[R4, #+352]
    153                         Name = (AnsiString)PrimaryAddress + "_" + (AnsiString)SecondaryAddress;
   \   00000334   0010A0E1           MOV      R1,R0
   \   00000338   94008DE2           ADD      R0,SP,#+148
   \   0000033C   ........           _BLF     ??AnsiString_1,??AnsiString??rA_1
   \   00000340   5C1194E5           LDR      R1,[R4, #+348]
   \   00000344   0070A0E1           MOV      R7,R0
   \   00000348   78008DE2           ADD      R0,SP,#+120
   \   0000034C   ........           _BLF     ??AnsiString_1,??AnsiString??rA_1
   \   00000350   452F8FE2           ADR      R2,??LoadConfigString_13  ;; "_"
   \   00000354   0010A0E1           MOV      R1,R0
   \   00000358   40008DE2           ADD      R0,SP,#+64
   \   0000035C   ........           _BLF     `??operator+_1`,`??operator+??rA_1`
   \   00000360   0720A0E1           MOV      R2,R7
   \   00000364   40108DE2           ADD      R1,SP,#+64
   \   00000368   24008DE2           ADD      R0,SP,#+36
   \   0000036C   ........           _BLF     `??operator+`,`??operator+??rA`
   \   00000370   24108DE2           ADD      R1,SP,#+36
   \   00000374   08008DE2           ADD      R0,SP,#+8
   \   00000378   ........           _BLF     ??AnsiString_3,??AnsiString??rA_3
   \   0000037C   ........           LDR      R1,??DataTable11  ;; ??npos
   \   00000380   0020A0E3           MOV      R2,#+0
   \   00000384   003091E5           LDR      R3,[R1, #+0]
   \   00000388   0010A0E1           MOV      R1,R0
   \   0000038C   440084E2           ADD      R0,R4,#+68
   \   00000390   ........           _BLF     ??assign,??assign??rA
   \   00000394   0020A0E3           MOV      R2,#+0
   \   00000398   0110A0E3           MOV      R1,#+1
   \   0000039C   08008DE2           ADD      R0,SP,#+8
   \   000003A0   ........           _BLF     ??_Tidy,??_Tidy??rA
   \   000003A4   0020A0E3           MOV      R2,#+0
   \   000003A8   0110A0E3           MOV      R1,#+1
   \   000003AC   24008DE2           ADD      R0,SP,#+36
   \   000003B0   ........           _BLF     ??_Tidy,??_Tidy??rA
   \   000003B4   0020A0E3           MOV      R2,#+0
   \   000003B8   0110A0E3           MOV      R1,#+1
   \   000003BC   94008DE2           ADD      R0,SP,#+148
   \   000003C0   ........           _BLF     ??_Tidy,??_Tidy??rA
   \   000003C4   0020A0E3           MOV      R2,#+0
   \   000003C8   0110A0E3           MOV      R1,#+1
   \   000003CC   40008DE2           ADD      R0,SP,#+64
   \   000003D0   ........           _BLF     ??_Tidy,??_Tidy??rA
   \   000003D4   0020A0E3           MOV      R2,#+0
   \   000003D8   0110A0E3           MOV      R1,#+1
   \   000003DC   78008DE2           ADD      R0,SP,#+120
   \   000003E0   ........           _BLF     ??_Tidy,??_Tidy??rA
    154                         NoError = !ErrorLine;
   \   000003E4   0D0000EA           B        ??LoadConfigString_12
   \                     ??LoadConfigString_2:
   \   000003E8   2D000000           DC8      "-",+0,+0
    155                      }
    156                      break;
    157                   case C_TCU_ONE_PROPTR:
    158                      {
    159                         int OneProPtr = ConfigString.ReadLong(ErrorLine);
    160                         if (OneProPtr == 1) OnePROPtrOnly = true;
   \                     ??LoadConfigString_10:
   \   000003EC   0020A0E3           MOV      R2,#+0
   \   000003F0   0D10A0E1           MOV      R1,SP
   \   000003F4   0500A0E1           MOV      R0,R5
   \   000003F8   ........           _BLF     ??ReadLong,??ReadLong??rA
   \   000003FC   010050E3           CMP      R0,#+1
    161                         else OnePROPtrOnly = false;
   \   00000400   0000A013           MOVNE    R0,#+0
   \   00000404   A401C4E5           STRB     R0,[R4, #+420]
    162                         NoError = !ErrorLine;
   \   00000408   040000EA           B        ??LoadConfigString_12
    163                      }
    164                      break;
    165                   case C_TCU_ADDRESS:
    166                      {
    167                         TCUAddress = ConfigString.ReadLong(ErrorLine);
   \                     ??LoadConfigString_11:
   \   0000040C   0020A0E3           MOV      R2,#+0
   \   00000410   0D10A0E1           MOV      R1,SP
   \   00000414   0500A0E1           MOV      R0,R5
   \   00000418   ........           _BLF     ??ReadLong,??ReadLong??rA
   \   0000041C   540184E5           STR      R0,[R4, #+340]
    168                         NoError = !ErrorLine;
   \                     ??LoadConfigString_12:
   \   00000420   00009DE5           LDR      R0,[SP, #+0]
   \   00000424   000050E3           CMP      R0,#+0
   \   00000428   0170A003           MOVEQ    R7,#+1
   \   0000042C   0070A013           MOVNE    R7,#+0
    169                      }
    170                      break;
    171                   }
    172                }
    173             }
   \                     ??LoadConfigString_5:
   \   00000430   0020A0E3           MOV      R2,#+0
   \   00000434   0110A0E3           MOV      R1,#+1
   \   00000438   B0008DE2           ADD      R0,SP,#+176
   \   0000043C   ........           _BLF     ??_Tidy,??_Tidy??rA
    174             while (NoError && (ErrorLine != EOF) && (Key != C_TPC_END_COMMON));
   \   00000440   000057E3           CMP      R7,#+0
   \   00000444   00009D15           LDRNE    R0,[SP, #+0]
   \   00000448   01007013           CMNNE    R0,#+1
   \   0000044C   04009D15           LDRNE    R0,[SP, #+4]
   \   00000450   A610A013           MOVNE    R1,#+166
   \   00000454   601E8113           ORRNE    R1,R1,#0x600
   \   00000458   01005011           CMPNE    R0,R1
   \   0000045C   F0FEFF1A           BNE      ??LoadConfigString_3
    175             return (NoError);
   \   00000460   0700A0E1           MOV      R0,R7
   \   00000464   72DF8DE2           ADD      SP,SP,#+456
   \   00000468   ........           B        ?Subroutine31
   \                     ??LoadConfigString_13:
   \   0000046C   5F000000           DC8      "_",+0,+0
    176          }

   \                                 In segment CODE, align 4, keep-with-next
   \                     ?Subroutine31:
   \   00000000   F04FBDE8           POP      {R4-R11,LR}
   \   00000004   1EFF2FE1           BX       LR               ;; return
    177          //---------------------------------------------------------------------------
    178          

   \                                 In segment CODE, align 4, keep-with-next
    179          void TPCxObject::WriteConfigToFile(TSNConfigString& ConfigString)
    180          {
   \                     ??WriteConfigToFile:
   \   00000000   F0402DE9           PUSH     {R4-R7,LR}
    181             AnsiString LocalString;
    182             AnsiString IdNumStr;
    183             IdNumStr.cat_sprintf("0x%0x", IDNumber);
    184             LocalString += KeyWord(C_PRO_T_PANEL_CONTR) + IdNumStr + CrLfStr;
   \   00000004   ........           LDR      R6,??DataTable10  ;; CrLfStr
   \   00000008   46DF4DE2           SUB      SP,SP,#+280
   \   0000000C   0040A0E1           MOV      R4,R0
   \   00000010   0150A0E1           MOV      R5,R1
   \   00000014   0D00A0E1           MOV      R0,SP
   \   00000018   ........           _BLF     ??AnsiString,??AnsiString??rA
   \   0000001C   E0008DE2           ADD      R0,SP,#+224
   \   00000020   ........           _BLF     ??AnsiString,??AnsiString??rA
   \   00000024   9C3094E5           LDR      R3,[R4, #+156]
   \   00000028   88219FE5           LDR      R2,??WriteConfigToFile_1  ;; `?<Constant "0x%0x">`
   \   0000002C   FC108DE2           ADD      R1,SP,#+252
   \   00000030   E0008DE2           ADD      R0,SP,#+224
   \   00000034   ........           _BLF     ??cat_sprintf,??cat_sprintf??rA
   \   00000038   0020A0E3           MOV      R2,#+0
   \   0000003C   0110A0E3           MOV      R1,#+1
   \   00000040   FC008DE2           ADD      R0,SP,#+252
   \   00000044   ........           _BLF     ??_Tidy,??_Tidy??rA
   \   00000048   8810A0E3           MOV      R1,#+136
   \   0000004C   401E81E3           ORR      R1,R1,#0x400
   \   00000050   54008DE2           ADD      R0,SP,#+84
   \   00000054   ........           _BLF     ??KeyWord,??KeyWord??rA
   \   00000058   E0208DE2           ADD      R2,SP,#+224
   \   0000005C   54108DE2           ADD      R1,SP,#+84
   \   00000060   38008DE2           ADD      R0,SP,#+56
   \   00000064   ........           _BLF     `??operator+`,`??operator+??rA`
   \   00000068   0620A0E1           MOV      R2,R6
   \   0000006C   38108DE2           ADD      R1,SP,#+56
   \   00000070   1C008DE2           ADD      R0,SP,#+28
   \   00000074   ........           _BLF     `??operator+`,`??operator+??rA`
   \   00000078   ........           LDR      R0,??DataTable11  ;; ??npos
   \   0000007C   0020A0E3           MOV      R2,#+0
   \   00000080   007090E5           LDR      R7,[R0, #+0]
   \   00000084   1C108DE2           ADD      R1,SP,#+28
   \   00000088   0730A0E1           MOV      R3,R7
   \   0000008C   0D00A0E1           MOV      R0,SP
   \   00000090   ........           _BLF     ??append,??append??rA
   \   00000094   0020A0E3           MOV      R2,#+0
   \   00000098   0110A0E3           MOV      R1,#+1
   \   0000009C   1C008DE2           ADD      R0,SP,#+28
   \   000000A0   ........           _BLF     ??_Tidy,??_Tidy??rA
   \   000000A4   0020A0E3           MOV      R2,#+0
   \   000000A8   0110A0E3           MOV      R1,#+1
   \   000000AC   38008DE2           ADD      R0,SP,#+56
   \   000000B0   ........           _BLF     ??_Tidy,??_Tidy??rA
   \   000000B4   0020A0E3           MOV      R2,#+0
   \   000000B8   0110A0E3           MOV      R1,#+1
   \   000000BC   54008DE2           ADD      R0,SP,#+84
   \   000000C0   ........           _BLF     ??_Tidy,??_Tidy??rA
    185          
    186             LocalString += MakeConfigString();   //common
   \   000000C4   A43094E5           LDR      R3,[R4, #+164]
   \   000000C8   0020A0E3           MOV      R2,#+0
   \   000000CC   0C3093E5           LDR      R3,[R3, #+12]
   \   000000D0   70108DE2           ADD      R1,SP,#+112
   \   000000D4   0400A0E1           MOV      R0,R4
   \   000000D8   0FE0A0E1           MOV      LR,PC
   \   000000DC   13FF2FE1           BX       R3
   \   000000E0   0730A0E1           MOV      R3,R7
   \   000000E4   0020A0E3           MOV      R2,#+0
   \   000000E8   70108DE2           ADD      R1,SP,#+112
   \   000000EC   0D00A0E1           MOV      R0,SP
   \   000000F0   ........           _BLF     ??append,??append??rA
   \   000000F4   0020A0E3           MOV      R2,#+0
   \   000000F8   0110A0E3           MOV      R1,#+1
   \   000000FC   70008DE2           ADD      R0,SP,#+112
   \   00000100   ........           _BLF     ??_Tidy,??_Tidy??rA
    187          
    188             LocalString += KeyWord(C_PRO_END) + CrLfStr;
   \   00000104   FA1FA0E3           MOV      R1,#+1000
   \   00000108   A8008DE2           ADD      R0,SP,#+168
   \   0000010C   ........           _BLF     ??KeyWord,??KeyWord??rA
   \   00000110   0620A0E1           MOV      R2,R6
   \   00000114   A8108DE2           ADD      R1,SP,#+168
   \   00000118   8C008DE2           ADD      R0,SP,#+140
   \   0000011C   ........           _BLF     `??operator+`,`??operator+??rA`
   \   00000120   0730A0E1           MOV      R3,R7
   \   00000124   0020A0E3           MOV      R2,#+0
   \   00000128   8C108DE2           ADD      R1,SP,#+140
   \   0000012C   0D00A0E1           MOV      R0,SP
   \   00000130   ........           _BLF     ??append,??append??rA
   \   00000134   0020A0E3           MOV      R2,#+0
   \   00000138   0110A0E3           MOV      R1,#+1
   \   0000013C   8C008DE2           ADD      R0,SP,#+140
   \   00000140   ........           _BLF     ??_Tidy,??_Tidy??rA
   \   00000144   0020A0E3           MOV      R2,#+0
   \   00000148   0110A0E3           MOV      R1,#+1
   \   0000014C   A8008DE2           ADD      R0,SP,#+168
   \   00000150   ........           _BLF     ??_Tidy,??_Tidy??rA
    189             LocalString += CrLfStr;
   \   00000154   0730A0E1           MOV      R3,R7
   \   00000158   0020A0E3           MOV      R2,#+0
   \   0000015C   0610A0E1           MOV      R1,R6
   \   00000160   0D00A0E1           MOV      R0,SP
   \   00000164   ........           _BLF     ??append,??append??rA
    190          
    191             ConfigString.AddString(LocalString);
   \   00000168   0D10A0E1           MOV      R1,SP
   \   0000016C   C4008DE2           ADD      R0,SP,#+196
   \   00000170   ........           _BLF     ??string,??string??rA
   \   00000174   C4108DE2           ADD      R1,SP,#+196
   \   00000178   0500A0E1           MOV      R0,R5
   \   0000017C   ........           _BLF     ??AddString,??AddString??rA
   \   00000180   0020A0E3           MOV      R2,#+0
   \   00000184   0110A0E3           MOV      R1,#+1
   \   00000188   C4008DE2           ADD      R0,SP,#+196
   \   0000018C   ........           _BLF     ??_Tidy,??_Tidy??rA
    192          }
   \   00000190   0020A0E3           MOV      R2,#+0
   \   00000194   0110A0E3           MOV      R1,#+1
   \   00000198   E0008DE2           ADD      R0,SP,#+224
   \   0000019C   ........           _BLF     ??_Tidy,??_Tidy??rA
   \   000001A0   0020A0E3           MOV      R2,#+0
   \   000001A4   0110A0E3           MOV      R1,#+1
   \   000001A8   0D00A0E1           MOV      R0,SP
   \   000001AC   ........           _BLF     ??_Tidy,??_Tidy??rA
   \   000001B0   46DF8DE2           ADD      SP,SP,#+280
   \   000001B4   ........           B        ?Subroutine32
   \                     ??WriteConfigToFile_1:
   \   000001B8   ........           DC32     `?<Constant "0x%0x">`

   \                                 In segment CODE, align 4, keep-with-next
   \                     ?Subroutine32:
   \   00000000   F040BDE8           POP      {R4-R7,LR}
   \   00000004   1EFF2FE1           BX       LR               ;; return
    193          //---------------------------------------------------------------------------
    194          

   \                                 In segment CODE, align 4, keep-with-next
    195          int TPCxObject::LoadConfigFromFile(TSNConfigString& ConfigString)
    196          {
   \                     ??LoadConfigFromFile:
   \   00000000   F04F2DE9           PUSH     {R4-R11,LR}
   \   00000004   71DF4DE2           SUB      SP,SP,#+452
    197             SetLineNumber(ConfigString.LineCount);
    198             bool NoError = true;
    199             int ErrorLine = 0;
   \   00000008   ........           LDR      R11,??DataTable12  ;; `?<Constant "TPC ">`
   \   0000000C   0150A0E1           MOV      R5,R1
   \   00000010   1C1095E5           LDR      R1,[R5, #+28]
   \   00000014   0040A0E1           MOV      R4,R0
   \   00000018   ........           _BLF     ??SetLineNumber,??SetLineNumber??rA
   \   0000001C   0170A0E3           MOV      R7,#+1
   \   00000020   0010A0E3           MOV      R1,#+0
   \   00000024   00108DE5           STR      R1,[SP, #+0]
   \   00000028   E18F8FE2           ADR      R8,??LoadConfigFromFile_2  ;; "-"
    200             int Key;
    201             do
    202             {
    203                AnsiString InputKeyWord = ConfigString.NextWord(ErrorLine);
   \                     ??LoadConfigFromFile_3:
   \   0000002C   0030A0E3           MOV      R3,#+0
   \   00000030   0D20A0E1           MOV      R2,SP
   \   00000034   58108DE2           ADD      R1,SP,#+88
   \   00000038   0500A0E1           MOV      R0,R5
   \   0000003C   ........           _BLF     ??NextWord,??NextWord??rA
    204                if (ErrorLine)
   \   00000040   00009DE5           LDR      R0,[SP, #+0]
   \   00000044   000050E3           CMP      R0,#+0
   \   00000048   3A00000A           BEQ      ??LoadConfigFromFile_4
    205                {
    206                   if (ErrorLine != EOF)
   \   0000004C   010070E3           CMN      R0,#+1
   \   00000050   E100000A           BEQ      ??LoadConfigFromFile_5
    207                   {
    208                      GiveConfigWarning((AnsiString)"TPC " + (AnsiString)PrimaryAddress + "-" + (AnsiString)SecondaryAddress, ErrorLine);
   \   00000054   601194E5           LDR      R1,[R4, #+352]
   \   00000058   C8008DE2           ADD      R0,SP,#+200
   \   0000005C   ........           _BLF     ??AnsiString_1,??AnsiString??rA_1
   \   00000060   5C1194E5           LDR      R1,[R4, #+348]
   \   00000064   0090A0E1           MOV      R9,R0
   \   00000068   AC008DE2           ADD      R0,SP,#+172
   \   0000006C   ........           _BLF     ??AnsiString_1,??AnsiString??rA_1
   \   00000070   00A0A0E1           MOV      R10,R0
   \   00000074   0B10A0E1           MOV      R1,R11
   \   00000078   90008DE2           ADD      R0,SP,#+144
   \   0000007C   ........           _BLF     ??AnsiString_2,??AnsiString??rA_2
   \   00000080   0A20A0E1           MOV      R2,R10
   \   00000084   0010A0E1           MOV      R1,R0
   \   00000088   04008DE2           ADD      R0,SP,#+4
   \   0000008C   ........           _BLF     `??operator+`,`??operator+??rA`
   \   00000090   0820A0E1           MOV      R2,R8
   \   00000094   04108DE2           ADD      R1,SP,#+4
   \   00000098   3C008DE2           ADD      R0,SP,#+60
   \   0000009C   ........           _BLF     `??operator+_1`,`??operator+??rA_1`
   \   000000A0   0920A0E1           MOV      R2,R9
   \   000000A4   3C108DE2           ADD      R1,SP,#+60
   \   000000A8   20008DE2           ADD      R0,SP,#+32
   \   000000AC   ........           _BLF     `??operator+`,`??operator+??rA`
   \   000000B0   20108DE2           ADD      R1,SP,#+32
   \   000000B4   74008DE2           ADD      R0,SP,#+116
   \   000000B8   ........           _BLF     ??AnsiString_3,??AnsiString??rA_3
   \   000000BC   00109DE5           LDR      R1,[SP, #+0]
   \   000000C0   ........           _BLF     ??GiveConfigWarning,??GiveConfigWarning??rA
   \   000000C4   0020A0E3           MOV      R2,#+0
   \   000000C8   0110A0E3           MOV      R1,#+1
   \   000000CC   74008DE2           ADD      R0,SP,#+116
   \   000000D0   ........           _BLF     ??_Tidy,??_Tidy??rA
   \   000000D4   0020A0E3           MOV      R2,#+0
   \   000000D8   0110A0E3           MOV      R1,#+1
   \   000000DC   20008DE2           ADD      R0,SP,#+32
   \   000000E0   ........           _BLF     ??_Tidy,??_Tidy??rA
   \   000000E4   0020A0E3           MOV      R2,#+0
   \   000000E8   0110A0E3           MOV      R1,#+1
   \   000000EC   C8008DE2           ADD      R0,SP,#+200
   \   000000F0   ........           _BLF     ??_Tidy,??_Tidy??rA
   \   000000F4   0020A0E3           MOV      R2,#+0
   \   000000F8   0110A0E3           MOV      R1,#+1
   \   000000FC   3C008DE2           ADD      R0,SP,#+60
   \   00000100   ........           _BLF     ??_Tidy,??_Tidy??rA
   \   00000104   0020A0E3           MOV      R2,#+0
   \   00000108   0110A0E3           MOV      R1,#+1
   \   0000010C   04008DE2           ADD      R0,SP,#+4
   \   00000110   ........           _BLF     ??_Tidy,??_Tidy??rA
   \   00000114   0020A0E3           MOV      R2,#+0
   \   00000118   0110A0E3           MOV      R1,#+1
   \   0000011C   AC008DE2           ADD      R0,SP,#+172
   \   00000120   ........           _BLF     ??_Tidy,??_Tidy??rA
   \   00000124   0020A0E3           MOV      R2,#+0
   \   00000128   0110A0E3           MOV      R1,#+1
   \   0000012C   90008DE2           ADD      R0,SP,#+144
   \                     ??LoadConfigFromFile_6:
   \   00000130   ........           _BLF     ??_Tidy,??_Tidy??rA
   \   00000134   A80000EA           B        ??LoadConfigFromFile_5
    209                   }
    210                }
    211                else
    212                {
    213                   Key = FindConfigKey(InputKeyWord);
   \                     ??LoadConfigFromFile_4:
   \   00000138   58108DE2           ADD      R1,SP,#+88
   \   0000013C   04008DE2           ADD      R0,SP,#+4
   \   00000140   ........           _BLF     ??string,??string??rA
   \   00000144   04008DE2           ADD      R0,SP,#+4
   \   00000148   ........           _BLF     ??FindConfigKey,??FindConfigKey??rA
   \   0000014C   0060A0E1           MOV      R6,R0
   \   00000150   0020A0E3           MOV      R2,#+0
   \   00000154   0110A0E3           MOV      R1,#+1
   \   00000158   04008DE2           ADD      R0,SP,#+4
   \   0000015C   ........           _BLF     ??_Tidy,??_Tidy??rA
    214                   switch (Key)
   \   00000160   FA0F56E3           CMP      R6,#+1000
   \   00000164   EA10A013           MOVNE    R1,#+234
   \   00000168   C01F8113           ORRNE    R1,R1,#0x300
   \   0000016C   01005611           CMPNE    R6,R1
   \   00000170   FB0F5613           CMPNE    R6,#+1004
   \   00000174   9800000A           BEQ      ??LoadConfigFromFile_5
   \   00000178   A510A0E3           MOV      R1,#+165
   \   0000017C   601E81E3           ORR      R1,R1,#0x600
   \   00000180   010056E1           CMP      R6,R1
   \   00000184   4F00000A           BEQ      ??LoadConfigFromFile_7
   \   00000188   1D1081E2           ADD      R1,R1,#+29
   \   0000018C   010056E1           CMP      R6,R1
   \   00000190   5300000A           BEQ      ??LoadConfigFromFile_8
   \   00000194   011081E3           ORR      R1,R1,#0x1
   \   00000198   010056E1           CMP      R6,R1
   \   0000019C   8E00000A           BEQ      ??LoadConfigFromFile_5
   \   000001A0   131081E2           ADD      R1,R1,#+19
   \   000001A4   010056E1           CMP      R6,R1
   \   000001A8   7B00000A           BEQ      ??LoadConfigFromFile_9
   \   000001AC   9810A0E3           MOV      R1,#+152
   \   000001B0   801E81E3           ORR      R1,R1,#0x800
   \   000001B4   010056E1           CMP      R6,R1
   \   000001B8   B910A013           MOVNE    R1,#+185
   \   000001BC   B01E8113           ORRNE    R1,R1,#0xB00
   \   000001C0   01005611           CMPNE    R6,R1
   \   000001C4   8400000A           BEQ      ??LoadConfigFromFile_5
    215                   {
    216                   default:
    217                      GiveConfigWarning((AnsiString)"TPC " + (AnsiString)PrimaryAddress + "-" + (AnsiString)SecondaryAddress, InputKeyWord, ConfigString.LineCount);
   \   000001C8   58108DE2           ADD      R1,SP,#+88
   \   000001CC   E4008DE2           ADD      R0,SP,#+228
   \   000001D0   ........           _BLF     ??string,??string??rA
   \   000001D4   601194E5           LDR      R1,[R4, #+352]
   \   000001D8   6A0F8DE2           ADD      R0,SP,#+424
   \   000001DC   ........           _BLF     ??AnsiString_1,??AnsiString??rA_1
   \   000001E0   5C1194E5           LDR      R1,[R4, #+348]
   \   000001E4   0090A0E1           MOV      R9,R0
   \   000001E8   630F8DE2           ADD      R0,SP,#+396
   \   000001EC   ........           _BLF     ??AnsiString_1,??AnsiString??rA_1
   \   000001F0   00A0A0E1           MOV      R10,R0
   \   000001F4   0B10A0E1           MOV      R1,R11
   \   000001F8   5C0F8DE2           ADD      R0,SP,#+368
   \   000001FC   ........           _BLF     ??AnsiString_2,??AnsiString??rA_2
   \   00000200   0010A0E1           MOV      R1,R0
   \   00000204   0A20A0E1           MOV      R2,R10
   \   00000208   550F8DE2           ADD      R0,SP,#+340
   \   0000020C   ........           _BLF     `??operator+`,`??operator+??rA`
   \   00000210   0820A0E1           MOV      R2,R8
   \   00000214   551F8DE2           ADD      R1,SP,#+340
   \   00000218   4E0F8DE2           ADD      R0,SP,#+312
   \   0000021C   ........           _BLF     `??operator+_1`,`??operator+??rA_1`
   \   00000220   0920A0E1           MOV      R2,R9
   \   00000224   4E1F8DE2           ADD      R1,SP,#+312
   \   00000228   470F8DE2           ADD      R0,SP,#+284
   \   0000022C   ........           _BLF     `??operator+`,`??operator+??rA`
   \   00000230   471F8DE2           ADD      R1,SP,#+284
   \   00000234   400F8DE2           ADD      R0,SP,#+256
   \   00000238   ........           _BLF     ??AnsiString_3,??AnsiString??rA_3
   \   0000023C   1C2095E5           LDR      R2,[R5, #+28]
   \   00000240   E4108DE2           ADD      R1,SP,#+228
   \   00000244   ........           _BLF     ??GiveConfigWarning_1,??GiveConfigWarning??rA_1
   \   00000248   0020A0E3           MOV      R2,#+0
   \   0000024C   0110A0E3           MOV      R1,#+1
   \   00000250   E4008DE2           ADD      R0,SP,#+228
   \   00000254   ........           _BLF     ??_Tidy,??_Tidy??rA
   \   00000258   0020A0E3           MOV      R2,#+0
   \   0000025C   0110A0E3           MOV      R1,#+1
   \   00000260   400F8DE2           ADD      R0,SP,#+256
   \   00000264   ........           _BLF     ??_Tidy,??_Tidy??rA
   \   00000268   0020A0E3           MOV      R2,#+0
   \   0000026C   0110A0E3           MOV      R1,#+1
   \   00000270   470F8DE2           ADD      R0,SP,#+284
   \   00000274   ........           _BLF     ??_Tidy,??_Tidy??rA
   \   00000278   0020A0E3           MOV      R2,#+0
   \   0000027C   0110A0E3           MOV      R1,#+1
   \   00000280   6A0F8DE2           ADD      R0,SP,#+424
   \   00000284   ........           _BLF     ??_Tidy,??_Tidy??rA
   \   00000288   0020A0E3           MOV      R2,#+0
   \   0000028C   0110A0E3           MOV      R1,#+1
   \   00000290   4E0F8DE2           ADD      R0,SP,#+312
   \   00000294   ........           _BLF     ??_Tidy,??_Tidy??rA
   \   00000298   0020A0E3           MOV      R2,#+0
   \   0000029C   0110A0E3           MOV      R1,#+1
   \   000002A0   550F8DE2           ADD      R0,SP,#+340
   \   000002A4   ........           _BLF     ??_Tidy,??_Tidy??rA
   \   000002A8   0020A0E3           MOV      R2,#+0
   \   000002AC   0110A0E3           MOV      R1,#+1
   \   000002B0   630F8DE2           ADD      R0,SP,#+396
   \   000002B4   ........           _BLF     ??_Tidy,??_Tidy??rA
   \   000002B8   0020A0E3           MOV      R2,#+0
   \   000002BC   0110A0E3           MOV      R1,#+1
   \   000002C0   5C0F8DE2           ADD      R0,SP,#+368
   \   000002C4   99FFFFEA           B        ??LoadConfigFromFile_6
    218                      break;
    219                   case C_TPC_END_WINDOW: //fault in config
    220                   case C_AI_END:      // If AI type not found can continue with this
    221                   case C_AL_END:
    222                   case C_PRO_END:
    223                   case C_PRO_END_COMMON:
    224                   case C_PRO_END_PRO:
    225                      break;
    226                   case C_TPC_START_COMMON:
    227                      LoadConfigString(ConfigString);
   \                     ??LoadConfigFromFile_7:
   \   000002C8   A42094E5           LDR      R2,[R4, #+164]
   \   000002CC   0510A0E1           MOV      R1,R5
   \   000002D0   102092E5           LDR      R2,[R2, #+16]
   \   000002D4   0400A0E1           MOV      R0,R4
   \   000002D8   0FE0A0E1           MOV      LR,PC
   \   000002DC   12FF2FE1           BX       R2
   \   000002E0   3D0000EA           B        ??LoadConfigFromFile_5
    228                      break;
    229                   case C_TPC_WINDOW:
    230                      {
    231                         TPCWindow *WindowPtr;
    232                         switch (TPCType)
   \                     ??LoadConfigFromFile_8:
   \   000002E4   580194E5           LDR      R0,[R4, #+344]
   \   000002E8   AF0040E2           SUB      R0,R0,#+175
   \   000002EC   600E40E2           SUB      R0,R0,#+1536
   \   000002F0   020050E3           CMP      R0,#+2
   \   000002F4   1500008A           BHI      ??LoadConfigFromFile_10
   \   000002F8   011F8FE2           ADR      R1,??LoadConfigFromFile_1
   \   000002FC   0010D1E7           LDRB     R1,[R1, R0]
   \   00000300   01F18FE0           ADD      PC,PC,R1, LSL #+2
   \                     ??LoadConfigFromFile_1:
   \   00000304   00060C00           DC8      +0,+6,+12,+0
    233                         {
    234                         case C_TPC_140:
    235                            WindowPtr = (TPCWindow *)new TPCWindow140();
   \                     ??LoadConfigFromFile_11:
   \   00000308   1400A0E3           MOV      R0,#+20
   \   0000030C   ........           _BLF     `??operator new`,`??operator new??rA`
   \   00000310   0070B0E1           MOVS     R7,R0
   \   00000314   1300000A           BEQ      ??LoadConfigFromFile_12
   \   00000318   ........           _BLF     ??TPCWindow140,??TPCWindow140??rA
   \   0000031C   120000EA           B        ??LoadConfigFromFile_13
    236                            break;
    237                         case C_TPC_350:
    238                            WindowPtr = (TPCWindow *)new TPCWindow350();
   \                     ??LoadConfigFromFile_14:
   \   00000320   1400A0E3           MOV      R0,#+20
   \   00000324   ........           _BLF     `??operator new`,`??operator new??rA`
   \   00000328   0070B0E1           MOVS     R7,R0
   \   0000032C   0D00000A           BEQ      ??LoadConfigFromFile_12
   \   00000330   ........           _BLF     ??TPCWindow350,??TPCWindow350??rA
   \   00000334   0C0000EA           B        ??LoadConfigFromFile_13
    239                            break;
    240                         case C_TPC_196:
    241                            WindowPtr = (TPCWindow *)new TPCWindow196();
   \                     ??LoadConfigFromFile_15:
   \   00000338   1400A0E3           MOV      R0,#+20
   \   0000033C   ........           _BLF     `??operator new`,`??operator new??rA`
   \   00000340   0070B0E1           MOVS     R7,R0
   \   00000344   0700000A           BEQ      ??LoadConfigFromFile_12
   \   00000348   ........           _BLF     ??TPCWindow196,??TPCWindow196??rA
   \   0000034C   060000EA           B        ??LoadConfigFromFile_13
    242                            break;
    243                         default:
    244                            WindowPtr = new TPCWindow();
   \                     ??LoadConfigFromFile_10:
   \   00000350   1400A0E3           MOV      R0,#+20
   \   00000354   ........           _BLF     `??operator new`,`??operator new??rA`
   \   00000358   0070B0E1           MOVS     R7,R0
   \   0000035C   0100000A           BEQ      ??LoadConfigFromFile_12
   \   00000360   ........           _BLF     ??TPCWindow,??TPCWindow??rA
   \   00000364   000000EA           B        ??LoadConfigFromFile_13
   \                     ??LoadConfigFromFile_12:
   \   00000368   0070A0E3           MOV      R7,#+0
    245                         }
    246                         WindowPtr->LoadConfigString(ConfigString);
   \                     ??LoadConfigFromFile_13:
   \   0000036C   102097E5           LDR      R2,[R7, #+16]
   \   00000370   0510A0E1           MOV      R1,R5
   \   00000374   042092E5           LDR      R2,[R2, #+4]
   \   00000378   0700A0E1           MOV      R0,R7
   \   0000037C   0FE0A0E1           MOV      LR,PC
   \   00000380   12FF2FE1           BX       R2
    247                         TPCWindows[TPCWindowCount++] = WindowPtr;
   \   00000384   C80194E5           LDR      R0,[R4, #+456]
   \   00000388   011080E2           ADD      R1,R0,#+1
   \   0000038C   C81184E5           STR      R1,[R4, #+456]
   \   00000390   000184E0           ADD      R0,R4,R0, LSL #+2
   \   00000394   AC7180E5           STR      R7,[R0, #+428]
    248                         NoError = !ErrorLine;
   \   00000398   0B0000EA           B        ??LoadConfigFromFile_16
    249                      }
    250                      break;
    251                   case C_TPC_ALARM_WINDOW:
    252                      {
    253                         TPCAlarmWindow *WindowPtr = new TPCAlarmWindow();
   \                     ??LoadConfigFromFile_9:
   \   0000039C   0600A0E3           MOV      R0,#+6
   \   000003A0   ........           _BLF     `??operator new`,`??operator new??rA`
   \   000003A4   0070B0E1           MOVS     R7,R0
   \   000003A8   0200000A           BEQ      ??LoadConfigFromFile_17
   \   000003AC   ........           _BLF     ??TPCAlarmWindow,??TPCAlarmWindow??rA
   \   000003B0   010000EA           B        ??LoadConfigFromFile_18
   \                     ??LoadConfigFromFile_2:
   \   000003B4   2D000000           DC8      "-",+0,+0
   \                     ??LoadConfigFromFile_17:
   \   000003B8   0070A0E3           MOV      R7,#+0
    254                         WindowPtr->LoadConfigString(ConfigString);
   \                     ??LoadConfigFromFile_18:
   \   000003BC   0510A0E1           MOV      R1,R5
   \   000003C0   0700A0E1           MOV      R0,R7
   \   000003C4   ........           _BLF     ??LoadConfigString_1,??LoadConfigString??rA
    255                         TPCAlarmWinPtr = WindowPtr;
   \   000003C8   A87184E5           STR      R7,[R4, #+424]
    256                         NoError = !ErrorLine;
   \                     ??LoadConfigFromFile_16:
   \   000003CC   00009DE5           LDR      R0,[SP, #+0]
   \   000003D0   000050E3           CMP      R0,#+0
   \   000003D4   0170A003           MOVEQ    R7,#+1
   \   000003D8   0070A013           MOVNE    R7,#+0
    257                      }
    258                      break;
    259                   }
    260                }
    261             }
   \                     ??LoadConfigFromFile_5:
   \   000003DC   0020A0E3           MOV      R2,#+0
   \   000003E0   0110A0E3           MOV      R1,#+1
   \   000003E4   58008DE2           ADD      R0,SP,#+88
   \   000003E8   ........           _BLF     ??_Tidy,??_Tidy??rA
    262             while (NoError && (ErrorLine != EOF) && (Key != C_PRO_END));
   \   000003EC   000057E3           CMP      R7,#+0
   \   000003F0   00009D15           LDRNE    R0,[SP, #+0]
   \   000003F4   01007013           CMNNE    R0,#+1
   \   000003F8   FA0F5613           CMPNE    R6,#+1000
   \   000003FC   0AFFFF1A           BNE      ??LoadConfigFromFile_3
    263             return ErrorLine;
   \   00000400   00009DE5           LDR      R0,[SP, #+0]
   \   00000404   71DF8DE2           ADD      SP,SP,#+452
   \   00000408                      REQUIRE ?Subroutine31
   \   00000408                      ;; // Fall through to label ?Subroutine31
    264          }
    265          //--------------------------------------------------------------------------- '
    266          ///////////////////////////////////////////////////////////////
    267          //
    268          // Routines for Saving of Settings
    269          //
    270          ///////////////////////////////////////////////////////////////
    271          

   \                                 In segment CODE, align 4, keep-with-next
    272          void TPCxObject::SaveSettings(TSNConfigString *SettingsString)
    273          {
    274          
    275          }
   \                     ??SaveSettings:
   \   00000000   1EFF2FE1           BX       LR               ;; return
    276          
    277          
    278          //--------------------------------------------------------------------------- '
    279          
    280          ///////////////////////////////////////////////////////////////////////////////
    281          //
    282          //  Other tPCx routines
    283          //
    284          ///////////////////////////////////////////////////////////////////////////////
    285          
    286          

   \                                 In segment CODE, align 4, keep-with-next
    287          TPCxObject* FindtPCx(U8 SecAddress, set<PRogramObjectBase *>CurentTPCxList)
    288          {
   \                     ??FindtPCx:
   \   00000000   30402DE9           PUSH     {R4,R5,LR}
   \   00000004   0040A0E1           MOV      R4,R0
   \   00000008   0150A0E1           MOV      R5,R1
    289             set<PRogramObjectBase *>::iterator pBIt;
    290             for (pBIt = CurentTPCxList.begin(); pBIt != CurentTPCxList.end(); pBIt++)
   \   0000000C   000095E5           LDR      R0,[R5, #+0]
   \   00000010   000000EA           B        ??FindtPCx_1
   \                     ??FindtPCx_2:
   \   00000014   ........           _BLF     ??_IncP,??_IncP??rA
   \                     ??FindtPCx_1:
   \   00000018   050050E1           CMP      R0,R5
    291             {
    292                if (((TPCxObject *)(*pBIt))->SecondaryAddress == SecAddress) return ((TPCxObject *)(*pBIt));
    293             }
    294             return (NULL);
   \   0000001C   0000A003           MOVEQ    R0,#+0
   \   00000020   0400000A           BEQ      ??FindtPCx_3
   \   00000024   101090E5           LDR      R1,[R0, #+16]
   \   00000028   601191E5           LDR      R1,[R1, #+352]
   \   0000002C   040051E1           CMP      R1,R4
   \   00000030   F7FFFF1A           BNE      ??FindtPCx_2
   \   00000034   100090E5           LDR      R0,[R0, #+16]
   \                     ??FindtPCx_3:
   \   00000038                      REQUIRE ?Subroutine29
   \   00000038                      ;; // Fall through to label ?Subroutine29
    295          }

   \                                 In segment CODE, align 4, keep-with-next
   \                     ?Subroutine29:
   \   00000000   3040BDE8           POP      {R4,R5,LR}
   \   00000004   1EFF2FE1           BX       LR               ;; return
    296          

   \                                 In segment CODE, align 4, keep-with-next
    297          void TPCxObject::InitializetPCxSystem(void)
    298          {
   \                     ??InitializetPCxSystem:
   \   00000000   F0402DE9           PUSH     {R4-R7,LR}
    299             for (int PrimAddress = TPC_FIRST_ADDRESS; PrimAddress <= TPC_LAST_ADDRESS; PrimAddress++)
   \   00000004   ........           LDR      R5,??DataTable13  ;; ??ObjectSet
   \   00000008   20D04DE2           SUB      SP,SP,#+32
   \   0000000C   1E40A0E3           MOV      R4,#+30
    300             {
    301                set<PRogramObjectBase *>CurrentPROSet;
   \                     ??InitializetPCxSystem_1:
   \   00000010   0D00A0E1           MOV      R0,SP
   \   00000014   ........           _BLF     ??set_1,??set??rA
    302                set<PRogramObjectBase *>::iterator pBIt;
    303                for (pBIt = ObjectSet.begin(); pBIt != ObjectSet.end(); pBIt++)
   \   00000018   006095E5           LDR      R6,[R5, #+0]
   \   0000001C   090000EA           B        ??InitializetPCxSystem_2
    304                {
    305                   TPCxObject *tPCx = (TPCxObject *)(*pBIt);
   \                     ??InitializetPCxSystem_3:
   \   00000020   102096E5           LDR      R2,[R6, #+16]
    306                   if (tPCx->PrimaryAddress == PrimAddress)
   \   00000024   5C0192E5           LDR      R0,[R2, #+348]
   \   00000028   040050E1           CMP      R0,R4
   \   0000002C   0200001A           BNE      ??InitializetPCxSystem_4
    307                   {
    308                      CurrentPROSet.insert(tPCx);
   \   00000030   0D10A0E1           MOV      R1,SP
   \   00000034   18008DE2           ADD      R0,SP,#+24
   \   00000038   ........           _BLF     ??insert_1,??insert??rA
    309                   }
    310                }
   \                     ??InitializetPCxSystem_4:
   \   0000003C   0600A0E1           MOV      R0,R6
   \   00000040   ........           _BLF     ??_IncP,??_IncP??rA
   \   00000044   0060A0E1           MOV      R6,R0
   \                     ??InitializetPCxSystem_2:
   \   00000048   050056E1           CMP      R6,R5
   \   0000004C   F3FFFF1A           BNE      ??InitializetPCxSystem_3
    311                if (!CurrentPROSet.empty())
   \   00000050   10009DE5           LDR      R0,[SP, #+16]
   \   00000054   000050E3           CMP      R0,#+0
   \   00000058   1400000A           BEQ      ??InitializetPCxSystem_5
    312                {
    313                   tPCLists[PrimaryAddressTable.size()] = CurrentPROSet;
   \   0000005C   9C0195E5           LDR      R0,[R5, #+412]
   \   00000060   666FA0E3           MOV      R6,#+408
   \   00000064   051096E7           LDR      R1,[R6, +R5]
   \   00000068   010040E0           SUB      R0,R0,R1
   \   0000006C   2001A0E1           LSR      R0,R0,#+2
   \   00000070   1810A0E3           MOV      R1,#+24
   \   00000074   915020E0           MLA      R0,R1,R0,R5
   \   00000078   187080E2           ADD      R7,R0,#+24
   \   0000007C   0D00A0E1           MOV      R0,SP
   \   00000080   000057E1           CMP      R7,R0
   \   00000084   0600000A           BEQ      ??InitializetPCxSystem_6
   \   00000088   001097E5           LDR      R1,[R7, #+0]
   \   0000008C   0720A0E1           MOV      R2,R7
   \   00000090   0700A0E1           MOV      R0,R7
   \   00000094   ........           _BLF     ??erase,??erase??rA_1
   \   00000098   0D10A0E1           MOV      R1,SP
   \   0000009C   0700A0E1           MOV      R0,R7
   \   000000A0   ........           _BLF     ??_Copy,??_Copy??rA_1
    314                   PrimaryAddressTable.push_back(PrimAddress);
   \                     ??InitializetPCxSystem_6:
   \   000000A4   0410A0E1           MOV      R1,R4
   \   000000A8   050086E0           ADD      R0,R6,R5
   \   000000AC   ........           _BLF     ??_Push_back0,??_Push_back0??rA
    315                }
    316             }
   \                     ??InitializetPCxSystem_5:
   \   000000B0   0D00A0E1           MOV      R0,SP
   \   000000B4   ........           _BLF     ??clear,??clear??rA
   \   000000B8   014084E2           ADD      R4,R4,#+1
   \   000000BC   2E0054E3           CMP      R4,#+46
   \   000000C0   D2FFFFBA           BLT      ??InitializetPCxSystem_1
    317          
    318          }
   \   000000C4   20D08DE2           ADD      SP,SP,#+32
   \   000000C8                      REQUIRE ?Subroutine32
   \   000000C8                      ;; // Fall through to label ?Subroutine32
    319          

   \                                 In segment CODE, align 4, keep-with-next
    320          U16 TPCxObject::AddAlarmWindow(U8 *TxBuf, U16 Ptr, bool Update, bool ShowAlarm)
    321          {
   \                     ??AddAlarmWindow:
   \   00000000   F24F2DE9           PUSH     {R1,R4-R11,LR}
   \   00000004   C4D04DE2           SUB      SP,SP,#+196
   \   00000008   0040A0E1           MOV      R4,R0
   \   0000000C   0260A0E1           MOV      R6,R2
   \   00000010   0010A0E3           MOV      R1,#+0
   \   00000014   14108DE5           STR      R1,[SP, #+20]
    322             PRogramObject *LastProPtr = NULL;
    323             CurrentAlMessage  = "";
   \   00000018   D37F8FE2           ADR      R7,??AddAlarmWindow_3  ;; ""
   \   0000001C   0710A0E1           MOV      R1,R7
   \   00000020   8C008DE2           ADD      R0,SP,#+140
   \   00000024   ........           _BLF     ??AnsiString_2,??AnsiString??rA_2
   \   00000028   ........           LDR      R1,??DataTable21  ;; ??npos
   \   0000002C   595FA0E3           MOV      R5,#+356
   \   00000030   008091E5           LDR      R8,[R1, #+0]
   \   00000034   0020A0E3           MOV      R2,#+0
   \   00000038   0830A0E1           MOV      R3,R8
   \   0000003C   0010A0E1           MOV      R1,R0
   \   00000040   040085E0           ADD      R0,R5,R4
   \   00000044   ........           _BLF     ??assign,??assign??rA
   \   00000048   0020A0E3           MOV      R2,#+0
   \   0000004C   0110A0E3           MOV      R1,#+1
   \   00000050   8C008DE2           ADD      R0,SP,#+140
   \   00000054   ........           _BLF     ??_Tidy,??_Tidy??rA
    324             CurrentAlLocName  = "";
   \   00000058   0710A0E1           MOV      R1,R7
   \   0000005C   A8008DE2           ADD      R0,SP,#+168
   \   00000060   ........           _BLF     ??AnsiString_2,??AnsiString??rA_2
   \   00000064   0010A0E1           MOV      R1,R0
   \   00000068   0830A0E1           MOV      R3,R8
   \   0000006C   0020A0E3           MOV      R2,#+0
   \   00000070   600F84E2           ADD      R0,R4,#+384
   \   00000074   ........           _BLF     ??assign,??assign??rA
   \   00000078   0020A0E3           MOV      R2,#+0
   \   0000007C   0110A0E3           MOV      R1,#+1
   \   00000080   A8008DE2           ADD      R0,SP,#+168
   \   00000084   ........           _BLF     ??_Tidy,??_Tidy??rA
    325             CurrentLEDStatus  = TPC_LED_OFF;
   \   00000088   0000A0E3           MOV      R0,#+0
   \   0000008C   9C01C4E5           STRB     R0,[R4, #+412]
    326             int NumberOfWin;
    327             if (OnePROPtrOnly)
   \   00000090   A401D4E5           LDRB     R0,[R4, #+420]
   \   00000094   000050E3           CMP      R0,#+0
   \   00000098   0400000A           BEQ      ??AddAlarmWindow_4
    328             {
    329                NumberOfWin = min(1, TPCWindowCount); // To prevent any mistakes
   \   0000009C   C80194E5           LDR      R0,[R4, #+456]
   \   000000A0   020050E3           CMP      R0,#+2
   \   000000A4   0010A0B1           MOVLT    R1,R0
   \   000000A8   0110A0A3           MOVGE    R1,#+1
   \   000000AC   000000EA           B        ??AddAlarmWindow_5
    330             }
    331             else
    332             {
    333                NumberOfWin = TPCWindowCount;
   \                     ??AddAlarmWindow_4:
   \   000000B0   C81194E5           LDR      R1,[R4, #+456]
    334             }
    335             for (int WinIndex = 0; WinIndex < NumberOfWin; WinIndex++)
   \                     ??AddAlarmWindow_5:
   \   000000B4   0190A0E3           MOV      R9,#+1
   \   000000B8   04108DE5           STR      R1,[SP, #+4]
   \   000000BC   0010A0E3           MOV      R1,#+0
   \   000000C0   010000EA           B        ??AddAlarmWindow_6
   \                     ??AddAlarmWindow_7:
   \   000000C4   00109DE5           LDR      R1,[SP, #+0]
   \   000000C8   011081E2           ADD      R1,R1,#+1
   \                     ??AddAlarmWindow_6:
   \   000000CC   00108DE5           STR      R1,[SP, #+0]
   \   000000D0   00009DE5           LDR      R0,[SP, #+0]
   \   000000D4   04109DE5           LDR      R1,[SP, #+4]
   \   000000D8   010050E1           CMP      R0,R1
   \   000000DC   5C0000AA           BGE      ??AddAlarmWindow_8
    336             {
    337                TPCWindow *Win = TPCWindows[WinIndex];
    338                PRogramObject *PROPtr = Win->PROPtr;
   \   000000E0   000184E0           ADD      R0,R4,R0, LSL #+2
   \   000000E4   AC0190E5           LDR      R0,[R0, #+428]
   \   000000E8   0C7090E5           LDR      R7,[R0, #+12]
    339                if (PROPtr)
   \   000000EC   000057E3           CMP      R7,#+0
   \   000000F0   F3FFFF0A           BEQ      ??AddAlarmWindow_7
    340                {
    341                   LastProPtr              = PROPtr;
   \   000000F4   14708DE5           STR      R7,[SP, #+20]
    342                   bool ActiveAlarm        = false;
   \   000000F8   0010A0E3           MOV      R1,#+0
   \   000000FC   0810CDE5           STRB     R1,[SP, #+8]
    343                   time_t NewestAlarmAct   = 0;
   \   00000100   0C108DE5           STR      R1,[SP, #+12]
    344                   time_t NewestAlarmAck   = 0;
   \   00000104   10108DE5           STR      R1,[SP, #+16]
    345                   set<AlarmBasic *>::iterator pBIt;
    346                   for (pBIt = PROPtr->CompleteAlarmInfoList.begin(); pBIt != PROPtr->CompleteAlarmInfoList.end(); pBIt++)
   \   00000108   FCA097E5           LDR      R10,[R7, #+252]
   \   0000010C   220000EA           B        ??AddAlarmWindow_9
    347                   {
    348                      AlarmBasic *TempElement = *pBIt;
    349                      if (TempElement)
    350                      {
    351                         switch (TempElement->State)
    352                         {
    353                         case AlarmBasic::AlIdle    :
    354                            AlarmSet.erase(TempElement);
    355                            break;
    356                         case AlarmBasic::AlActive  :
    357                            if (TempElement->Time_Rised > NewestAlarmAct)
    358                            {
    359                               NewestAlarmAct    = TempElement->Time_Rised;
    360                               ActiveAlarm       = true;
    361                               CurrentAlMessage  = TempElement->Get_TPCMessage();
    362                               CurrentAlLocName  = PROPtr->Name;
    363                               CurrentLEDStatus  = TPC_LED_FLASH;
    364                               CurrentAlarmPtr   = TempElement;
    365                            }
    366                            AlarmSet.insert(TempElement);
    367                            break;
    368                         case AlarmBasic::AlAknowledged :
    369                            if (!ActiveAlarm && (TempElement->Time_Acknowledged > NewestAlarmAck))
   \                     ??AddAlarmWindow_10:
   \   00000110   0800DDE5           LDRB     R0,[SP, #+8]
   \   00000114   000050E3           CMP      R0,#+0
   \   00000118   1900001A           BNE      ??AddAlarmWindow_11
   \   0000011C   D40098E5           LDR      R0,[R8, #+212]
   \   00000120   10109DE5           LDR      R1,[SP, #+16]
   \   00000124   000051E1           CMP      R1,R0
   \   00000128   150000AA           BGE      ??AddAlarmWindow_11
    370                            {
    371                               NewestAlarmAck    = TempElement->Time_Acknowledged;
   \   0000012C   10008DE5           STR      R0,[SP, #+16]
    372                               CurrentAlMessage  = TempElement->Get_TPCMessage();
   \   00000130   18108DE2           ADD      R1,SP,#+24
   \   00000134   0800A0E1           MOV      R0,R8
   \   00000138   ........           _BLF     ??Get_TPCMessage,??Get_TPCMessage??rA
   \   0000013C   ........           LDR      R0,??DataTable21  ;; ??npos
   \   00000140   0020A0E3           MOV      R2,#+0
   \   00000144   00B090E5           LDR      R11,[R0, #+0]
   \   00000148   18108DE2           ADD      R1,SP,#+24
   \   0000014C   0B30A0E1           MOV      R3,R11
   \   00000150   040085E0           ADD      R0,R5,R4
   \   00000154   ........           _BLF     ??assign,??assign??rA
   \   00000158   0020A0E3           MOV      R2,#+0
   \   0000015C   0110A0E3           MOV      R1,#+1
   \   00000160   18008DE2           ADD      R0,SP,#+24
   \   00000164   ........           _BLF     ??_Tidy,??_Tidy??rA
    373                               CurrentAlLocName  = PROPtr->Name;
   \   00000168   0B30A0E1           MOV      R3,R11
   \   0000016C   0020A0E3           MOV      R2,#+0
   \   00000170   441087E2           ADD      R1,R7,#+68
   \   00000174   600F84E2           ADD      R0,R4,#+384
   \   00000178   ........           _BLF     ??assign,??assign??rA
    374                               CurrentLEDStatus  = TPC_LED_ON;
   \   0000017C   9C91C4E5           STRB     R9,[R4, #+412]
    375                               CurrentAlarmPtr   = TempElement;
   \   00000180   A08184E5           STR      R8,[R4, #+416]
    376                            }
   \                     ??AddAlarmWindow_11:
   \   00000184   0810A0E1           MOV      R1,R8
   \   00000188   E40084E2           ADD      R0,R4,#+228
   \   0000018C   ........           _BLF     ??erase_2,??erase??rA_2
   \                     ??AddAlarmWindow_12:
   \   00000190   0A00A0E1           MOV      R0,R10
   \   00000194   ........           _BLF     ??_IncP,??_IncP??rA
   \   00000198   00A0A0E1           MOV      R10,R0
   \                     ??AddAlarmWindow_9:
   \   0000019C   FC0087E2           ADD      R0,R7,#+252
   \   000001A0   00005AE1           CMP      R10,R0
   \   000001A4   C6FFFF0A           BEQ      ??AddAlarmWindow_7
   \   000001A8   10809AE5           LDR      R8,[R10, #+16]
   \   000001AC   000058E3           CMP      R8,#+0
   \   000001B0   F6FFFF0A           BEQ      ??AddAlarmWindow_12
   \   000001B4   E000D8E5           LDRB     R0,[R8, #+224]
   \   000001B8   020050E3           CMP      R0,#+2
   \   000001BC   F3FFFF8A           BHI      ??AddAlarmWindow_12
   \   000001C0   011F8FE2           ADR      R1,??AddAlarmWindow_1
   \   000001C4   D01091E1           LDRSB    R1,[R1, R0]
   \   000001C8   01F18FE0           ADD      PC,PC,R1, LSL #+2
   \                     ??AddAlarmWindow_1:
   \   000001CC   ED00D000           DC8      +237,+0,+208,+0
   \                     ??AddAlarmWindow_13:
   \   000001D0   D00098E5           LDR      R0,[R8, #+208]
   \   000001D4   0C109DE5           LDR      R1,[SP, #+12]
   \   000001D8   000051E1           CMP      R1,R0
   \   000001DC   170000AA           BGE      ??AddAlarmWindow_14
   \   000001E0   0C008DE5           STR      R0,[SP, #+12]
   \   000001E4   0890CDE5           STRB     R9,[SP, #+8]
   \   000001E8   18108DE2           ADD      R1,SP,#+24
   \   000001EC   0800A0E1           MOV      R0,R8
   \   000001F0   ........           _BLF     ??Get_TPCMessage,??Get_TPCMessage??rA
   \   000001F4   ........           LDR      R0,??DataTable21  ;; ??npos
   \   000001F8   0020A0E3           MOV      R2,#+0
   \   000001FC   00B090E5           LDR      R11,[R0, #+0]
   \   00000200   18108DE2           ADD      R1,SP,#+24
   \   00000204   0B30A0E1           MOV      R3,R11
   \   00000208   040085E0           ADD      R0,R5,R4
   \   0000020C   ........           _BLF     ??assign,??assign??rA
   \   00000210   0020A0E3           MOV      R2,#+0
   \   00000214   0110A0E3           MOV      R1,#+1
   \   00000218   18008DE2           ADD      R0,SP,#+24
   \   0000021C   ........           _BLF     ??_Tidy,??_Tidy??rA
   \   00000220   0B30A0E1           MOV      R3,R11
   \   00000224   0020A0E3           MOV      R2,#+0
   \   00000228   441087E2           ADD      R1,R7,#+68
   \   0000022C   600F84E2           ADD      R0,R4,#+384
   \   00000230   ........           _BLF     ??assign,??assign??rA
   \   00000234   0200A0E3           MOV      R0,#+2
   \   00000238   9C01C4E5           STRB     R0,[R4, #+412]
   \   0000023C   A08184E5           STR      R8,[R4, #+416]
   \                     ??AddAlarmWindow_14:
   \   00000240   0820A0E1           MOV      R2,R8
   \   00000244   E41084E2           ADD      R1,R4,#+228
   \   00000248   84008DE2           ADD      R0,SP,#+132
   \   0000024C   ........           _BLF     ??insert,??insert??rA_1
   \   00000250   CEFFFFEA           B        ??AddAlarmWindow_12
    377                            AlarmSet.erase(TempElement);
    378                            break;
    379                         }
    380                      }
    381                   }
    382                }
    383             }
    384          
    385             if (ShowAlarm)
   \                     ??AddAlarmWindow_8:
   \   00000254   EC00DDE5           LDRB     R0,[SP, #+236]
   \   00000258   000050E3           CMP      R0,#+0
   \   0000025C   8A00000A           BEQ      ??AddAlarmWindow_15
    386             {
    387                bool IsAlarm = !CurrentAlMessage.IsEmpty();
   \   00000260   040085E0           ADD      R0,R5,R4
   \   00000264   ........           _BLF     ??IsEmpty,??IsEmpty??rA
   \   00000268   010000E2           AND      R0,R0,#0x1
   \   0000026C   017030E2           EORS     R7,R0,#0x1
    388                // See if we have an alarm message
    389                if (!IsAlarm)
   \   00000270   0C00001A           BNE      ??AddAlarmWindow_16
    390                {
    391                   CurrentAlMessage  = "OK";
   \   00000274   951F8FE2           ADR      R1,??AddAlarmWindow_17  ;; "OK"
   \   00000278   18008DE2           ADD      R0,SP,#+24
   \   0000027C   ........           _BLF     ??AnsiString_2,??AnsiString??rA_2
   \   00000280   ........           LDR      R1,??DataTable21  ;; ??npos
   \   00000284   0020A0E3           MOV      R2,#+0
   \   00000288   003091E5           LDR      R3,[R1, #+0]
   \   0000028C   0010A0E1           MOV      R1,R0
   \   00000290   040085E0           ADD      R0,R5,R4
   \   00000294   ........           _BLF     ??assign,??assign??rA
   \   00000298   0020A0E3           MOV      R2,#+0
   \   0000029C   0110A0E3           MOV      R1,#+1
   \   000002A0   18008DE2           ADD      R0,SP,#+24
   \   000002A4   ........           _BLF     ??_Tidy,??_Tidy??rA
    392                }
    393                if (OnePROPtrOnly)
   \                     ??AddAlarmWindow_16:
   \   000002A8   ........           LDR      R0,??DataTable21  ;; ??npos
   \   000002AC   008090E5           LDR      R8,[R0, #+0]
   \   000002B0   A401D4E5           LDRB     R0,[R4, #+420]
   \   000002B4   000050E3           CMP      R0,#+0
   \   000002B8   0600000A           BEQ      ??AddAlarmWindow_18
    394                {
    395                   CurrentAlLocName = LastProPtr->Name;
   \   000002BC   14009DE5           LDR      R0,[SP, #+20]
   \   000002C0   0830A0E1           MOV      R3,R8
   \   000002C4   0020A0E3           MOV      R2,#+0
   \   000002C8   441080E2           ADD      R1,R0,#+68
   \   000002CC   600F84E2           ADD      R0,R4,#+384
   \   000002D0   ........           _BLF     ??assign,??assign??rA
   \   000002D4   0B0000EA           B        ??AddAlarmWindow_19
    396                }
    397                else
    398                {
    399                   CurrentAlLocName = "***";
   \                     ??AddAlarmWindow_18:
   \   000002D8   7D1F8FE2           ADR      R1,??AddAlarmWindow_17+0x4  ;; "***"
   \   000002DC   18008DE2           ADD      R0,SP,#+24
   \   000002E0   ........           _BLF     ??AnsiString_2,??AnsiString??rA_2
   \   000002E4   0830A0E1           MOV      R3,R8
   \   000002E8   0020A0E3           MOV      R2,#+0
   \   000002EC   0010A0E1           MOV      R1,R0
   \   000002F0   600F84E2           ADD      R0,R4,#+384
   \   000002F4   ........           _BLF     ??assign,??assign??rA
   \   000002F8   0020A0E3           MOV      R2,#+0
   \   000002FC   0110A0E3           MOV      R1,#+1
   \   00000300   18008DE2           ADD      R0,SP,#+24
   \   00000304   ........           _BLF     ??_Tidy,??_Tidy??rA
    400                }
    401          
    402                switch (TPCType)
   \                     ??AddAlarmWindow_19:
   \   00000308   580194E5           LDR      R0,[R4, #+344]
   \   0000030C   AF0040E2           SUB      R0,R0,#+175
   \   00000310   600E40E2           SUB      R0,R0,#+1536
   \   00000314   020050E3           CMP      R0,#+2
   \   00000318   5B00008A           BHI      ??AddAlarmWindow_15
   \   0000031C   011F8FE2           ADR      R1,??AddAlarmWindow_2
   \   00000320   0010D1E7           LDRB     R1,[R1, R0]
   \   00000324   01F18FE0           ADD      PC,PC,R1, LSL #+2
   \                     ??AddAlarmWindow_2:
   \   00000328   3F003A00           DC8      +63,+0,+58,+0
    403                {
    404                case C_TPC_140:
    405                   {
    406                      U8 tPCData[BUF_SIZE] = { SecondaryAddress, 0 };
    407                      U8 *AsciiVal        = &tPCData[2];
    408                      strcpy((char *)AsciiVal, CurrentAlMessage.c_str());
    409                      Ptr += AddCommand(TxBuf, Ptr, ANP1_SND_LOTXT, tPCData, (CurrentAlMessage.Length() + 2));
    410                   }
    411                   break;
    412                case C_TPC_350:
    413                   {
    414                      U8 tPCData[BUF_SIZE] = { SecondaryAddress, 0 };
   \                     ??AddAlarmWindow_20:
   \   0000032C   34008DE2           ADD      R0,SP,#+52
   \   00000330   0010A0E3           MOV      R1,#+0
   \   00000334   5020A0E3           MOV      R2,#+80
   \                     ??AddAlarmWindow_21:
   \   00000338   042052E2           SUBS     R2,R2,#+4
   \   0000033C   021080E7           STR      R1,[R0, R2]
   \   00000340   FCFFFF1A           BNE      ??AddAlarmWindow_21
   \   00000344   601194E5           LDR      R1,[R4, #+352]
    415                      U8 *AsciiVal        = &tPCData[2];
   \   00000348   36708DE2           ADD      R7,SP,#+54
   \   0000034C   3410CDE5           STRB     R1,[SP, #+52]
    416                      strncpy((char *)AsciiVal, CurrentAlLocName.c_str(), TPC_UPPER_DISP_WIDTH + 1);
   \   00000350   600F84E2           ADD      R0,R4,#+384
   \   00000354   ........           _BLF     ??c_str,??c_str??rA
   \   00000358   0520A0E3           MOV      R2,#+5
   \   0000035C   0010A0E1           MOV      R1,R0
   \   00000360   36008DE2           ADD      R0,SP,#+54
   \   00000364   ........           _BLF     strncpy,??strncpy??rA
   \   00000368   010000EA           B        ??AddAlarmWindow_22
   \                     ??AddAlarmWindow_3:
   \   0000036C   00000000           DC8      "",+0,+0,+0
    417                      while (*AsciiVal == ' ') AsciiVal++;
   \                     ??AddAlarmWindow_23:
   \   00000370   017087E2           ADD      R7,R7,#+1
   \                     ??AddAlarmWindow_22:
   \   00000374   0000D7E5           LDRB     R0,[R7, #+0]
   \   00000378   200050E3           CMP      R0,#+32
   \   0000037C   FBFFFF0A           BEQ      ??AddAlarmWindow_23
    418                      int Length = strlen((char *)AsciiVal);
   \   00000380   0700A0E1           MOV      R0,R7
   \   00000384   ........           _BLF     strlen,??strlen??rA
   \   00000388   0080A0E1           MOV      R8,R0
    419                      if (AsciiVal != &tPCData[2])
   \   0000038C   36008DE2           ADD      R0,SP,#+54
   \   00000390   000057E1           CMP      R7,R0
   \   00000394   0200000A           BEQ      ??AddAlarmWindow_24
    420                      {
    421                         memmove(&tPCData[2], AsciiVal, Length);
   \   00000398   0820A0E1           MOV      R2,R8
   \   0000039C   0710A0E1           MOV      R1,R7
   \   000003A0   ........           _BLF     memmove,??memmove??rA
    422          
    423                      }
    424                      Ptr += AddCommand(TxBuf, Ptr, ANP1_SND_HITXT, tPCData, Length + 2);
   \                     ??AddAlarmWindow_24:
   \   000003A4   020088E2           ADD      R0,R8,#+2
   \   000003A8   FF0000E2           AND      R0,R0,#0xFF
   \   000003AC   01002DE9           PUSH     {R0}
   \   000003B0   C8009DE5           LDR      R0,[SP, #+200]
   \   000003B4   38308DE2           ADD      R3,SP,#+56
   \   000003B8   3320A0E3           MOV      R2,#+51
   \   000003BC   0610A0E1           MOV      R1,R6
   \   000003C0   ........           _BLF     ??AddCommand,??AddCommand??rA
   \   000003C4   066080E0           ADD      R6,R0,R6
    425          
    426                      strcpy((char *)AsciiVal, CurrentAlMessage.c_str());
   \   000003C8   040085E0           ADD      R0,R5,R4
   \   000003CC   ........           _BLF     ??c_str,??c_str??rA
   \   000003D0   0010A0E1           MOV      R1,R0
   \   000003D4   0700A0E1           MOV      R0,R7
   \   000003D8   ........           _BLF     strcpy,??strcpy??rA
    427                      Ptr += AddCommand(TxBuf, Ptr, ANP1_SND_LOTXT, tPCData, (CurrentAlMessage.Length() + 2));
   \   000003DC   040085E0           ADD      R0,R5,R4
   \   000003E0   ........           _BLF     ??Length,??Length??rA
   \   000003E4   020080E2           ADD      R0,R0,#+2
   \   000003E8   FF0000E2           AND      R0,R0,#0xFF
   \   000003EC   01002DE9           PUSH     {R0}
   \   000003F0   CC009DE5           LDR      R0,[SP, #+204]
   \   000003F4   3C308DE2           ADD      R3,SP,#+60
   \   000003F8   3220A0E3           MOV      R2,#+50
   \   000003FC   0618A0E1           MOV      R1,R6, LSL #+16
   \   00000400   2118A0E1           MOV      R1,R1, LSR #+16
   \   00000404   ........           _BLF     ??AddCommand,??AddCommand??rA
   \   00000408   066080E0           ADD      R6,R0,R6
   \   0000040C   08D08DE2           ADD      SP,SP,#+8
   \   00000410   1D0000EA           B        ??AddAlarmWindow_15
    428                   }
    429                   break;
    430                case C_TPC_196:
    431                   // Only add text if alarm and not aknowledge
    432                   if (IsAlarm && (CurrentLEDStatus  == TPC_LED_FLASH))
   \                     ??AddAlarmWindow_25:
   \   00000414   077CB0E1           LSLS     R7,R7,#+24
   \   00000418   1B00000A           BEQ      ??AddAlarmWindow_15
   \   0000041C   9C01D4E5           LDRB     R0,[R4, #+412]
   \   00000420   020050E3           CMP      R0,#+2
   \   00000424   1800001A           BNE      ??AddAlarmWindow_15
    433                   {
    434                      U8 tPCData[BUF_SIZE] = { SecondaryAddress, 0 };
   \                     ??AddAlarmWindow_26:
   \   00000428   34008DE2           ADD      R0,SP,#+52
   \   0000042C   0010A0E3           MOV      R1,#+0
   \   00000430   5020A0E3           MOV      R2,#+80
   \                     ??AddAlarmWindow_27:
   \   00000434   042052E2           SUBS     R2,R2,#+4
   \   00000438   021080E7           STR      R1,[R0, R2]
   \   0000043C   FCFFFF1A           BNE      ??AddAlarmWindow_27
   \   00000440   601194E5           LDR      R1,[R4, #+352]
    435                      U8 *AsciiVal        = &tPCData[2];
    436                      strcpy((char *)AsciiVal, CurrentAlMessage.c_str());
   \   00000444   040085E0           ADD      R0,R5,R4
   \   00000448   3410CDE5           STRB     R1,[SP, #+52]
   \   0000044C   ........           _BLF     ??c_str,??c_str??rA
   \   00000450   0010A0E1           MOV      R1,R0
   \   00000454   36008DE2           ADD      R0,SP,#+54
   \   00000458   ........           _BLF     strcpy,??strcpy??rA
    437                      Ptr += AddCommand(TxBuf, Ptr, ANP1_SND_LOTXT, tPCData, (CurrentAlMessage.Length() + 2));
   \   0000045C   040085E0           ADD      R0,R5,R4
   \   00000460   ........           _BLF     ??Length,??Length??rA
   \   00000464   020080E2           ADD      R0,R0,#+2
   \   00000468   FF0000E2           AND      R0,R0,#0xFF
   \   0000046C   01002DE9           PUSH     {R0}
   \   00000470   C8009DE5           LDR      R0,[SP, #+200]
   \   00000474   38308DE2           ADD      R3,SP,#+56
   \   00000478   3220A0E3           MOV      R2,#+50
   \   0000047C   0610A0E1           MOV      R1,R6
   \   00000480   ........           _BLF     ??AddCommand,??AddCommand??rA
   \   00000484   066080E0           ADD      R6,R0,R6
   \   00000488   04D08DE2           ADD      SP,SP,#+4
    438                   }
    439                   break;
    440                }
    441             }
    442             // Always add LED status
    443             {
    444                U8 tPCData[BUF_SIZE] = { SecondaryAddress, CurrentLEDStatus };
   \                     ??AddAlarmWindow_15:
   \   0000048C   601194E5           LDR      R1,[R4, #+352]
    445                Ptr += AddCommand(TxBuf, Ptr, ANP1_SND_ALSTA, tPCData, 2);
   \   00000490   0200A0E3           MOV      R0,#+2
   \   00000494   3410CDE5           STRB     R1,[SP, #+52]
   \   00000498   9C11D4E5           LDRB     R1,[R4, #+412]
   \   0000049C   3620A0E3           MOV      R2,#+54
   \   000004A0   3510CDE5           STRB     R1,[SP, #+53]
   \   000004A4   01002DE9           PUSH     {R0}
   \   000004A8   C8009DE5           LDR      R0,[SP, #+200]
   \   000004AC   38308DE2           ADD      R3,SP,#+56
   \   000004B0   0618A0E1           MOV      R1,R6, LSL #+16
   \   000004B4   2118A0E1           MOV      R1,R1, LSR #+16
   \   000004B8   ........           _BLF     ??AddCommand,??AddCommand??rA
   \   000004BC   060080E0           ADD      R0,R0,R6
    446             }
    447             return (Ptr);
   \   000004C0   CCD08DE2           ADD      SP,SP,#+204
   \   000004C4   F04FBDE8           POP      {R4-R11,LR}
   \   000004C8   0008A0E1           MOV      R0,R0, LSL #+16
   \   000004CC   ........           B        ?Subroutine33
   \                     ??AddAlarmWindow_17:
   \   000004D0   4F4B0000           DC8      "OK",+0
   \   000004D4   2A2A2A00           DC8      "***"
    448          
    449          }

   \                                 In segment CODE, align 4, keep-with-next
   \                     ?Subroutine33:
   \   00000000   2008A0E1           MOV      R0,R0, LSR #+16
   \   00000004   1EFF2FE1           BX       LR               ;; return
    450          
    451          
    452          

   \                                 In segment CODE, align 4, keep-with-next
    453          U16 TPCxObject::AddExtraWindows(U8 *TxBuf, U16 Ptr, bool Update)
    454          {
   \                     ??AddExtraWindows:
   \   00000000   F0472DE9           PUSH     {R4-R10,LR}
   \   00000004   74D04DE2           SUB      SP,SP,#+116
   \   00000008   0040A0E1           MOV      R4,R0
    455             TPCWindow *Win = TPCWindows[0]; // Allways 0
   \   0000000C   AC7194E5           LDR      R7,[R4, #+428]
   \   00000010   0150A0E1           MOV      R5,R1
   \   00000014   0260A0E1           MOV      R6,R2
    456             if (Win)
   \   00000018   000057E3           CMP      R7,#+0
   \   0000001C   3D00000A           BEQ      ??AddExtraWindows_1
    457             {
    458                int ValKeyTable[] = { Win->TopDisplay, Win->BottomDisplay };
   \   00000020   F210D7E1           LDRSH    R1,[R7, #+2]
    459          
    460                for (int WinIndex = 0; WinIndex < 2; WinIndex++)
   \   00000024   0080A0E3           MOV      R8,#+0
   \   00000028   00108DE5           STR      R1,[SP, #+0]
   \   0000002C   F410D7E1           LDRSH    R1,[R7, #+4]
   \   00000030   04108DE5           STR      R1,[SP, #+4]
    461                {
    462                   U8 tPCData[BUF_SIZE] = { SecondaryAddress, WinIndex };  // Not in alarm window
   \                     ??AddExtraWindows_2:
   \   00000034   601194E5           LDR      R1,[R4, #+352]
    463                   if (ValKeyTable[WinIndex] != SVT_NOT_DEFINED)
   \   00000038   0D00A0E1           MOV      R0,SP
   \   0000003C   2410CDE5           STRB     R1,[SP, #+36]
   \   00000040   2580CDE5           STRB     R8,[SP, #+37]
   \   00000044   082190E7           LDR      R2,[R0, +R8, LSL #+2]
   \   00000048   000052E3           CMP      R2,#+0
   \   0000004C   2E00000A           BEQ      ??AddExtraWindows_3
    464                   {
    465                      AnsiString MyVal = GetLibValueTPCx(ValKeyTable[WinIndex], 0, Win->PROPtr, TPC_EXTRA_DISP_WIDTH);
   \   00000050   0000A0E3           MOV      R0,#+0
   \   00000054   01002DE9           PUSH     {R0}
   \   00000058   01002DE9           PUSH     {R0}
   \   0000005C   0400A0E3           MOV      R0,#+4
   \   00000060   01002DE9           PUSH     {R0}
   \   00000064   0C0097E5           LDR      R0,[R7, #+12]
   \   00000068   0030A0E3           MOV      R3,#+0
   \   0000006C   01002DE9           PUSH     {R0}
   \   00000070   18108DE2           ADD      R1,SP,#+24
   \   00000074   0400A0E1           MOV      R0,R4
   \   00000078   ........           BL       ??GetLibValueTPCx
    466                      U8 *AsciiVal = &tPCData[2];
   \   0000007C   36908DE2           ADD      R9,SP,#+54
    467                      strcpy((char *)AsciiVal, MyVal.c_str());
   \   00000080   18008DE2           ADD      R0,SP,#+24
   \   00000084   ........           _BLF     ??c_str,??c_str??rA
   \   00000088   0010A0E1           MOV      R1,R0
   \   0000008C   36008DE2           ADD      R0,SP,#+54
   \   00000090   ........           _BLF     strcpy,??strcpy??rA
   \   00000094   10D08DE2           ADD      SP,SP,#+16
   \   00000098   000000EA           B        ??AddExtraWindows_4
    468                      while (*AsciiVal == ' ') AsciiVal++;
   \                     ??AddExtraWindows_5:
   \   0000009C   019089E2           ADD      R9,R9,#+1
   \                     ??AddExtraWindows_4:
   \   000000A0   0000D9E5           LDRB     R0,[R9, #+0]
   \   000000A4   200050E3           CMP      R0,#+32
   \   000000A8   FBFFFF0A           BEQ      ??AddExtraWindows_5
    469                      int Length = strlen((char *)AsciiVal);
   \   000000AC   0900A0E1           MOV      R0,R9
   \   000000B0   ........           _BLF     strlen,??strlen??rA
   \   000000B4   00A0A0E1           MOV      R10,R0
    470                      if (AsciiVal != &tPCData[2])
   \   000000B8   26008DE2           ADD      R0,SP,#+38
   \   000000BC   000059E1           CMP      R9,R0
   \   000000C0   0200000A           BEQ      ??AddExtraWindows_6
    471                      {
    472                         memmove(&tPCData[2], AsciiVal, Length);
   \   000000C4   0A20A0E1           MOV      R2,R10
   \   000000C8   0910A0E1           MOV      R1,R9
   \   000000CC   ........           _BLF     memmove,??memmove??rA
    473                      }
    474                      Ptr += AddCommand(TxBuf, Ptr, ANP1_SND_XTXT, tPCData, Length + 2);
   \                     ??AddExtraWindows_6:
   \   000000D0   02008AE2           ADD      R0,R10,#+2
   \   000000D4   FF0000E2           AND      R0,R0,#0xFF
   \   000000D8   01002DE9           PUSH     {R0}
   \   000000DC   28308DE2           ADD      R3,SP,#+40
   \   000000E0   3D20A0E3           MOV      R2,#+61
   \   000000E4   0618A0E1           MOV      R1,R6, LSL #+16
   \   000000E8   2118A0E1           MOV      R1,R1, LSR #+16
   \   000000EC   0500A0E1           MOV      R0,R5
   \   000000F0   ........           _BLF     ??AddCommand,??AddCommand??rA
   \   000000F4   066080E0           ADD      R6,R0,R6
    475                   }
   \   000000F8   0020A0E3           MOV      R2,#+0
   \   000000FC   0110A0E3           MOV      R1,#+1
   \   00000100   0C008DE2           ADD      R0,SP,#+12
   \   00000104   ........           _BLF     ??_Tidy,??_Tidy??rA
   \   00000108   04D08DE2           ADD      SP,SP,#+4
    476                }
   \                     ??AddExtraWindows_3:
   \   0000010C   018088E2           ADD      R8,R8,#+1
   \   00000110   020058E3           CMP      R8,#+2
   \   00000114   C6FFFFBA           BLT      ??AddExtraWindows_2
    477             }
    478             return (Ptr);
   \                     ??AddExtraWindows_1:
   \   00000118   0608A0E1           MOV      R0,R6, LSL #+16
   \   0000011C   74D08DE2           ADD      SP,SP,#+116
   \   00000120   F047BDE8           POP      {R4-R10,LR}
   \   00000124                      REQUIRE ?Subroutine33
   \   00000124                      ;; // Fall through to label ?Subroutine33
    479          }
    480          

   \                                 In segment CODE, align 4, keep-with-next
    481          U16 TPCxObject::AddLowerWindow(U8 *TxBuf, U16 Ptr, bool Update, int WinOffset)
    482          {
   \                     ??AddLowerWindow:
   \   00000000   F04F2DE9           PUSH     {R4-R11,LR}
   \   00000004   6CD04DE2           SUB      SP,SP,#+108
   \   00000008   90609DE5           LDR      R6,[SP, #+144]
   \   0000000C   0040A0E1           MOV      R4,R0
   \   00000010   0150A0E1           MOV      R5,R1
   \   00000014   0270A0E1           MOV      R7,R2
    483          #ifdef S2TXU
    484             for (int WinIndex = 0; WinIndex < TPCWindowCount; WinIndex++)
   \   00000018   0080A0E3           MOV      R8,#+0
   \   0000001C   190000EA           B        ??AddLowerWindow_1
    485             {
    486                U8 tPCData[BUF_SIZE] = { SecondaryAddress, WinIndex + WinOffset }; // Not in alarm window
    487                TPCWindow *Win = TPCWindows[WinIndex];
    488                OS_Use(&UnitSema);
    489                SetUserUnits();
    490                AnsiString MyVal = GetLibValueTPCx(Win->MainDisplay, 0, Win->PROPtr, TPC_LOWER_DISP_WIDTH);
    491          
    492                OS_Unuse(&UnitSema);
    493                U8 *AsciiVal  = &tPCData[2];
    494                strcpy((char *)AsciiVal, MyVal.c_str());
    495                while (*AsciiVal == ' ') AsciiVal++;
    496                int Length = strlen((char *)AsciiVal);
    497                // Start by removing space chars.
    498                if (Length < TPC_LOWER_DISP_WIDTH)
    499                {
    500                   switch (Win->MainDisplay)
    501                   {
    502                   case SVT_VOLPERCENT:
    503                      AsciiVal[Length++] = '%';
    504                      AsciiVal[Length] = 0;
    505                      break;
    506                   case SVT_TEMP:
    507                      AsciiVal[Length++] = 0x5e;      // ^
   \                     ??AddLowerWindow_2:
   \   00000020   5E20A0E3           MOV      R2,#+94
   \                     ??AddLowerWindow_3:
   \   00000024   0A20CBE7           STRB     R2,[R11, +R10]
   \   00000028   00B0A0E1           MOV      R11,R0
    508                      AsciiVal[Length] = 0;
   \   0000002C   0A10CBE7           STRB     R1,[R11, +R10]
    509                      break;
    510                   }
    511                }
    512                if (AsciiVal != &tPCData[2])
   \                     ??AddLowerWindow_4:
   \   00000030   1E008DE2           ADD      R0,SP,#+30
   \   00000034   00005AE1           CMP      R10,R0
   \   00000038   0200000A           BEQ      ??AddLowerWindow_5
    513                {
    514                   memmove(&tPCData[2], AsciiVal, Length);
   \   0000003C   0B20A0E1           MOV      R2,R11
   \   00000040   0A10A0E1           MOV      R1,R10
   \   00000044   ........           _BLF     memmove,??memmove??rA
    515          
    516                }
    517                U8  Size = Length + 2;
    518                Ptr += AddCommand(TxBuf, Ptr, ANP1_SND_LOTXT, tPCData, Size);
   \                     ??AddLowerWindow_5:
   \   00000048   02008BE2           ADD      R0,R11,#+2
   \   0000004C   FF0000E2           AND      R0,R0,#0xFF
   \   00000050   01002DE9           PUSH     {R0}
   \   00000054   20308DE2           ADD      R3,SP,#+32
   \   00000058   3220A0E3           MOV      R2,#+50
   \   0000005C   0718A0E1           MOV      R1,R7, LSL #+16
   \   00000060   2118A0E1           MOV      R1,R1, LSR #+16
   \   00000064   0500A0E1           MOV      R0,R5
   \   00000068   ........           _BLF     ??AddCommand,??AddCommand??rA
   \   0000006C   077080E0           ADD      R7,R0,R7
    519             }
   \   00000070   0020A0E3           MOV      R2,#+0
   \   00000074   0110A0E3           MOV      R1,#+1
   \   00000078   04008DE2           ADD      R0,SP,#+4
   \   0000007C   ........           _BLF     ??_Tidy,??_Tidy??rA
   \   00000080   018088E2           ADD      R8,R8,#+1
   \   00000084   04D08DE2           ADD      SP,SP,#+4
   \                     ??AddLowerWindow_1:
   \   00000088   C80194E5           LDR      R0,[R4, #+456]
   \   0000008C   000058E1           CMP      R8,R0
   \   00000090   310000AA           BGE      ??AddLowerWindow_6
   \   00000094   601194E5           LDR      R1,[R4, #+352]
   \   00000098   ........           LDR      R10,??DataTable22  ;; UnitSema
   \   0000009C   1C10CDE5           STRB     R1,[SP, #+28]
   \   000000A0   081086E0           ADD      R1,R6,R8
   \   000000A4   1D10CDE5           STRB     R1,[SP, #+29]
   \   000000A8   080184E0           ADD      R0,R4,R8, LSL #+2
   \   000000AC   AC9190E5           LDR      R9,[R0, #+428]
   \   000000B0   0A00A0E1           MOV      R0,R10
   \   000000B4   ........           _BLF     OS_Use,??OS_Use??rA
   \   000000B8   ........           _BLF     ??SetUserUnits,??SetUserUnits??rA
   \   000000BC   0000A0E3           MOV      R0,#+0
   \   000000C0   01002DE9           PUSH     {R0}
   \   000000C4   01002DE9           PUSH     {R0}
   \   000000C8   0500A0E3           MOV      R0,#+5
   \   000000CC   01002DE9           PUSH     {R0}
   \   000000D0   0C0099E5           LDR      R0,[R9, #+12]
   \   000000D4   0030A0E3           MOV      R3,#+0
   \   000000D8   01002DE9           PUSH     {R0}
   \   000000DC   F020D9E1           LDRSH    R2,[R9, #+0]
   \   000000E0   10108DE2           ADD      R1,SP,#+16
   \   000000E4   0400A0E1           MOV      R0,R4
   \   000000E8   ........           BL       ??GetLibValueTPCx
   \   000000EC   0A00A0E1           MOV      R0,R10
   \   000000F0   ........           _BLF     OS_Unuse,??OS_Unuse??rA
   \   000000F4   2EA08DE2           ADD      R10,SP,#+46
   \   000000F8   10008DE2           ADD      R0,SP,#+16
   \   000000FC   ........           _BLF     ??c_str,??c_str??rA
   \   00000100   0010A0E1           MOV      R1,R0
   \   00000104   2E008DE2           ADD      R0,SP,#+46
   \   00000108   ........           _BLF     strcpy,??strcpy??rA
   \   0000010C   10D08DE2           ADD      SP,SP,#+16
   \   00000110   000000EA           B        ??AddLowerWindow_7
   \                     ??AddLowerWindow_8:
   \   00000114   01A08AE2           ADD      R10,R10,#+1
   \                     ??AddLowerWindow_7:
   \   00000118   0000DAE5           LDRB     R0,[R10, #+0]
   \   0000011C   200050E3           CMP      R0,#+32
   \   00000120   FBFFFF0A           BEQ      ??AddLowerWindow_8
   \   00000124   0A00A0E1           MOV      R0,R10
   \   00000128   ........           _BLF     strlen,??strlen??rA
   \   0000012C   00B0A0E1           MOV      R11,R0
   \   00000130   05005BE3           CMP      R11,#+5
   \   00000134   BDFFFFAA           BGE      ??AddLowerWindow_4
   \   00000138   F020D9E1           LDRSH    R2,[R9, #+0]
   \   0000013C   01008BE2           ADD      R0,R11,#+1
   \   00000140   0010A0E3           MOV      R1,#+0
   \   00000144   FB2F52E2           SUBS     R2,R2,#+1004
   \   00000148   B4FFFF0A           BEQ      ??AddLowerWindow_2
   \   0000014C   122052E2           SUBS     R2,R2,#+18
   \   00000150   B6FFFF1A           BNE      ??AddLowerWindow_4
   \   00000154   2520A0E3           MOV      R2,#+37
   \   00000158   B1FFFFEA           B        ??AddLowerWindow_3
    520          #endif
    521             return (Ptr);
   \                     ??AddLowerWindow_6:
   \   0000015C   0708A0E1           MOV      R0,R7, LSL #+16
   \   00000160   6CD08DE2           ADD      SP,SP,#+108
   \   00000164   F04FBDE8           POP      {R4-R11,LR}
   \   00000168   ........           B        ?Subroutine33
    522          }
    523          
    524          
    525          
    526          

   \                                 In segment CODE, align 4, keep-with-next
    527          U16 TPCxObject::AddUpperWindow(U8 *TxBuf, U16 Ptr, bool Update)
    528          {
   \                     ??AddUpperWindow:
   \   00000000   F0432DE9           PUSH     {R4-R9,LR}
   \   00000004   C0D04DE2           SUB      SP,SP,#+192
   \   00000008   0040A0E1           MOV      R4,R0
   \   0000000C   0150A0E1           MOV      R5,R1
   \   00000010   0260A0E1           MOV      R6,R2
    529             for (int WinIndex = 0; WinIndex < TPCWindowCount; WinIndex++)
   \   00000014   0070A0E3           MOV      R7,#+0
   \   00000018   1C0000EA           B        ??AddUpperWindow_1
    530             {
    531                U8 tPCData[BUF_SIZE] = { SecondaryAddress, WinIndex + 1 }; // Not in alarm window
    532                TPCWindow *Win  = TPCWindows[WinIndex];
    533                AnsiString MyVal;
    534                switch (Win->UpperDisplay)
    535                {
    536                case SVT_UNIT       :
    537                   GetLibValueTPCx(SVT_UNIT, Win->MainDisplay, Win->PROPtr, TPC_UPPER_DISP_WIDTH, SVT_FLAG_NORMAL, &MyVal);
    538                   break;
    539                case SVT_VALUE_NAME       :
    540                case SVT_VALUE_SHORT_NAME :
    541                   MyVal = GetLibValueTPCx(SVT_VALUE_SHORT_NAME, Win->MainDisplay,Win->PROPtr, TPC_UPPER_DISP_WIDTH);
    542                   break;
    543                default             :
    544                   MyVal = GetLibValueTPCx(Win->UpperDisplay, 0,Win->PROPtr, TPC_UPPER_DISP_WIDTH);
    545                   break;
    546                }
    547                U8 *AsciiVal    = &tPCData[2];
    548                strncpy((char *)AsciiVal, MyVal.c_str(), TPC_UPPER_DISP_WIDTH + 1);
    549                while (*AsciiVal == ' ') AsciiVal++;
   \                     ??AddUpperWindow_2:
   \   0000001C   018088E2           ADD      R8,R8,#+1
   \                     ??AddUpperWindow_3:
   \   00000020   0000D8E5           LDRB     R0,[R8, #+0]
   \   00000024   200050E3           CMP      R0,#+32
   \   00000028   FBFFFF0A           BEQ      ??AddUpperWindow_2
    550                int Length = strlen((char *)AsciiVal);
   \   0000002C   0800A0E1           MOV      R0,R8
   \   00000030   ........           _BLF     strlen,??strlen??rA
   \   00000034   0090A0E1           MOV      R9,R0
    551                if (AsciiVal != &tPCData[2])
   \   00000038   1E008DE2           ADD      R0,SP,#+30
   \   0000003C   000058E1           CMP      R8,R0
   \   00000040   0200000A           BEQ      ??AddUpperWindow_4
    552                {
    553                   memmove(&tPCData[2], AsciiVal, Length);
   \   00000044   0920A0E1           MOV      R2,R9
   \   00000048   0810A0E1           MOV      R1,R8
   \   0000004C   ........           _BLF     memmove,??memmove??rA
    554          
    555                }
    556                Ptr += AddCommand(TxBuf, Ptr, ANP1_SND_HITXT, tPCData, Length + 2);
   \                     ??AddUpperWindow_4:
   \   00000050   020089E2           ADD      R0,R9,#+2
   \   00000054   FF0000E2           AND      R0,R0,#0xFF
   \   00000058   01002DE9           PUSH     {R0}
   \   0000005C   20308DE2           ADD      R3,SP,#+32
   \   00000060   3320A0E3           MOV      R2,#+51
   \   00000064   0618A0E1           MOV      R1,R6, LSL #+16
   \   00000068   2118A0E1           MOV      R1,R1, LSR #+16
   \   0000006C   0500A0E1           MOV      R0,R5
   \   00000070   ........           _BLF     ??AddCommand,??AddCommand??rA
   \   00000074   066080E0           ADD      R6,R0,R6
    557             }
   \   00000078   0020A0E3           MOV      R2,#+0
   \   0000007C   0110A0E3           MOV      R1,#+1
   \   00000080   04008DE2           ADD      R0,SP,#+4
   \   00000084   ........           _BLF     ??_Tidy,??_Tidy??rA
   \   00000088   017087E2           ADD      R7,R7,#+1
   \   0000008C   04D08DE2           ADD      SP,SP,#+4
   \                     ??AddUpperWindow_1:
   \   00000090   C80194E5           LDR      R0,[R4, #+456]
   \   00000094   000057E1           CMP      R7,R0
   \   00000098   560000AA           BGE      ??AddUpperWindow_5
   \   0000009C   601194E5           LDR      R1,[R4, #+352]
   \   000000A0   070184E0           ADD      R0,R4,R7, LSL #+2
   \   000000A4   1C10CDE5           STRB     R1,[SP, #+28]
   \   000000A8   011087E2           ADD      R1,R7,#+1
   \   000000AC   1D10CDE5           STRB     R1,[SP, #+29]
   \   000000B0   AC8190E5           LDR      R8,[R0, #+428]
   \   000000B4   0D00A0E1           MOV      R0,SP
   \   000000B8   ........           _BLF     ??AnsiString,??AnsiString??rA
   \   000000BC   F220D8E1           LDRSH    R2,[R8, #+2]
   \   000000C0   FD0F52E3           CMP      R2,#+1012
   \   000000C4   0600000A           BEQ      ??AddUpperWindow_6
   \   000000C8   B910A0E3           MOV      R1,#+185
   \   000000CC   B01E81E3           ORR      R1,R1,#0xB00
   \   000000D0   010052E1           CMP      R2,R1
   \   000000D4   02108113           ORRNE    R1,R1,#0x2
   \   000000D8   01005211           CMPNE    R2,R1
   \   000000DC   1000000A           BEQ      ??AddUpperWindow_7
   \   000000E0   260000EA           B        ??AddUpperWindow_8
   \                     ??AddUpperWindow_6:
   \   000000E4   0D00A0E1           MOV      R0,SP
   \   000000E8   01002DE9           PUSH     {R0}
   \   000000EC   0000A0E3           MOV      R0,#+0
   \   000000F0   01002DE9           PUSH     {R0}
   \   000000F4   0400A0E3           MOV      R0,#+4
   \   000000F8   01002DE9           PUSH     {R0}
   \   000000FC   0C0098E5           LDR      R0,[R8, #+12]
   \   00000100   01002DE9           PUSH     {R0}
   \   00000104   F030D8E1           LDRSH    R3,[R8, #+0]
   \   00000108   7C108DE2           ADD      R1,SP,#+124
   \   0000010C   0400A0E1           MOV      R0,R4
   \   00000110   ........           BL       ??GetLibValueTPCx
   \   00000114   0020A0E3           MOV      R2,#+0
   \   00000118   0110A0E3           MOV      R1,#+1
   \   0000011C   7C008DE2           ADD      R0,SP,#+124
   \   00000120   2A0000EA           B        ??AddUpperWindow_9
   \                     ??AddUpperWindow_7:
   \   00000124   0000A0E3           MOV      R0,#+0
   \   00000128   01002DE9           PUSH     {R0}
   \   0000012C   01002DE9           PUSH     {R0}
   \   00000130   0400A0E3           MOV      R0,#+4
   \   00000134   01002DE9           PUSH     {R0}
   \   00000138   0C0098E5           LDR      R0,[R8, #+12]
   \   0000013C   BB20A0E3           MOV      R2,#+187
   \   00000140   01002DE9           PUSH     {R0}
   \   00000144   F030D8E1           LDRSH    R3,[R8, #+0]
   \   00000148   B02E82E3           ORR      R2,R2,#0xB00
   \   0000014C   98108DE2           ADD      R1,SP,#+152
   \   00000150   0400A0E1           MOV      R0,R4
   \   00000154   ........           BL       ??GetLibValueTPCx
   \   00000158   ........           LDR      R0,??DataTable21  ;; ??npos
   \   0000015C   0020A0E3           MOV      R2,#+0
   \   00000160   003090E5           LDR      R3,[R0, #+0]
   \   00000164   98108DE2           ADD      R1,SP,#+152
   \   00000168   10008DE2           ADD      R0,SP,#+16
   \   0000016C   ........           _BLF     ??assign,??assign??rA
   \   00000170   0020A0E3           MOV      R2,#+0
   \   00000174   0110A0E3           MOV      R1,#+1
   \   00000178   98008DE2           ADD      R0,SP,#+152
   \   0000017C   130000EA           B        ??AddUpperWindow_9
   \                     ??AddUpperWindow_8:
   \   00000180   0000A0E3           MOV      R0,#+0
   \   00000184   01002DE9           PUSH     {R0}
   \   00000188   01002DE9           PUSH     {R0}
   \   0000018C   0400A0E3           MOV      R0,#+4
   \   00000190   01002DE9           PUSH     {R0}
   \   00000194   0C0098E5           LDR      R0,[R8, #+12]
   \   00000198   0030A0E3           MOV      R3,#+0
   \   0000019C   01002DE9           PUSH     {R0}
   \   000001A0   B4108DE2           ADD      R1,SP,#+180
   \   000001A4   0400A0E1           MOV      R0,R4
   \   000001A8   ........           BL       ??GetLibValueTPCx
   \   000001AC   ........           LDR      R0,??DataTable21  ;; ??npos
   \   000001B0   0020A0E3           MOV      R2,#+0
   \   000001B4   003090E5           LDR      R3,[R0, #+0]
   \   000001B8   B4108DE2           ADD      R1,SP,#+180
   \   000001BC   10008DE2           ADD      R0,SP,#+16
   \   000001C0   ........           _BLF     ??assign,??assign??rA
   \   000001C4   0020A0E3           MOV      R2,#+0
   \   000001C8   0110A0E3           MOV      R1,#+1
   \   000001CC   B4008DE2           ADD      R0,SP,#+180
   \                     ??AddUpperWindow_9:
   \   000001D0   ........           _BLF     ??_Tidy,??_Tidy??rA
   \   000001D4   10D08DE2           ADD      SP,SP,#+16
   \   000001D8   1E808DE2           ADD      R8,SP,#+30
   \   000001DC   0D00A0E1           MOV      R0,SP
   \   000001E0   ........           _BLF     ??c_str,??c_str??rA
   \   000001E4   0520A0E3           MOV      R2,#+5
   \   000001E8   0010A0E1           MOV      R1,R0
   \   000001EC   1E008DE2           ADD      R0,SP,#+30
   \   000001F0   ........           _BLF     strncpy,??strncpy??rA
   \   000001F4   89FFFFEA           B        ??AddUpperWindow_3
    558             return (Ptr);
   \                     ??AddUpperWindow_5:
   \   000001F8   0608A0E1           MOV      R0,R6, LSL #+16
   \   000001FC   C0D08DE2           ADD      SP,SP,#+192
   \   00000200   F043BDE8           POP      {R4-R9,LR}
   \   00000204   ........           B        ?Subroutine33
    559          }
    560          

   \                                 In segment CODE, align 4, keep-with-next
    561          U16 TPCxObject::AddGraphs(U8 *TxBuf, U16 Ptr, bool Update)
    562          {
   \                     ??AddGraphs:
   \   00000000   F0412DE9           PUSH     {R4-R8,LR}
   \   00000004   20D04DE2           SUB      SP,SP,#+32
   \   00000008   0040A0E1           MOV      R4,R0
   \   0000000C   0150A0E1           MOV      R5,R1
   \   00000010   0270A0E1           MOV      R7,R2
    563             for (int WinIndex = 0; WinIndex < TPCWindowCount; WinIndex++)
   \   00000014   0060A0E3           MOV      R6,#+0
   \   00000018   0E0000EA           B        ??AddGraphs_1
    564             {
    565                TPCWindow *Win  = TPCWindows[WinIndex];
    566                switch (Win->MainGraph)
    567                {
    568                case SVT_DS           :
    569                case SVT_DP           :
    570                case SVT_DA           :
    571                case SVT_DF           :
    572                   {
    573                      float MyVal;
    574                      int DecPnt, Unit;
    575                      int Status = Win->PROPtr->GetValue(Win->MainGraph, 0, MyVal, DecPnt, Unit);
    576                      U8 Percent;
    577                      if (Status == GETVAL_NO_ERR)
    578                      {
    579                         Percent = (U8)(MyVal / PRODraftSystem::MaxSummerDraft * 100.0 + 0.5);
    580                      }
    581                      else
    582                      {
    583                         Percent = 0;
    584                      }
    585                      U8 tPCData[TPC_GRAPH_SIZE] = { SecondaryAddress, WinIndex, Percent };
    586                      Ptr += AddCommand(TxBuf, Ptr, ANP1_SND_BAVAL, tPCData, TPC_GRAPH_SIZE);
    587          
    588                   }
    589                   break;
    590                case SVT_VOLPERCENT   :
    591                   {
    592                      float MyVal;
    593                      int DecPnt, Unit;
    594                      int Status = Win->PROPtr->GetValue(SVT_VOLPERCENT, 0, MyVal, DecPnt, Unit);
    595                      U8 Percent;
    596                      if (Status == GETVAL_NO_ERR)
    597                      {
    598                         Percent = (U8)(MyVal + 0.5);
    599                      }
    600                      else
    601                      {
    602                         Percent = 0;
    603                      }
    604                      U8 tPCData[TPC_GRAPH_SIZE] = { SecondaryAddress, WinIndex, Percent };
   \                     ??AddGraphs_2:
   \   0000001C   601194E5           LDR      R1,[R4, #+352]
    605                      Ptr += AddCommand(TxBuf, Ptr, ANP1_SND_BAVAL, tPCData, TPC_GRAPH_SIZE);
   \   00000020   0300A0E3           MOV      R0,#+3
   \   00000024   0310CDE5           STRB     R1,[SP, #+3]
   \   00000028   0460CDE5           STRB     R6,[SP, #+4]
   \   0000002C   0580CDE5           STRB     R8,[SP, #+5]
   \   00000030   01002DE9           PUSH     {R0}
   \   00000034   07308DE2           ADD      R3,SP,#+7
   \                     ??AddGraphs_3:
   \   00000038   3420A0E3           MOV      R2,#+52
   \   0000003C   0718A0E1           MOV      R1,R7, LSL #+16
   \   00000040   2118A0E1           MOV      R1,R1, LSR #+16
   \   00000044   0500A0E1           MOV      R0,R5
   \   00000048   ........           _BLF     ??AddCommand,??AddCommand??rA
   \   0000004C   077080E0           ADD      R7,R0,R7
   \   00000050   04D08DE2           ADD      SP,SP,#+4
   \                     ??AddGraphs_4:
   \   00000054   016086E2           ADD      R6,R6,#+1
   \                     ??AddGraphs_1:
   \   00000058   C80194E5           LDR      R0,[R4, #+456]
   \   0000005C   000056E1           CMP      R6,R0
   \   00000060   500000AA           BGE      ??AddGraphs_5
   \   00000064   060184E0           ADD      R0,R4,R6, LSL #+2
   \   00000068   AC0190E5           LDR      R0,[R0, #+428]
   \   0000006C   0080A0E3           MOV      R8,#+0
   \   00000070   F410D0E1           LDRSH    R1,[R0, #+4]
   \   00000074   FE30A0E3           MOV      R3,#+254
   \   00000078   C03F83E3           ORR      R3,R3,#0x300
   \   0000007C   030051E1           CMP      R1,R3
   \   00000080   2E00000A           BEQ      ??AddGraphs_6
   \   00000084   5E0E51E3           CMP      R1,#+1504
   \   00000088   E330A013           MOVNE    R3,#+227
   \   0000008C   503E8313           ORRNE    R3,R3,#0x500
   \   00000090   03005111           CMPNE    R1,R3
   \   00000094   03308312           ADDNE    R3,R3,#+3
   \   00000098   03005111           CMPNE    R1,R3
   \   0000009C   01308313           ORRNE    R3,R3,#0x1
   \   000000A0   03005111           CMPNE    R1,R3
   \   000000A4   EAFFFF1A           BNE      ??AddGraphs_4
   \   000000A8   0CC090E5           LDR      R12,[R0, #+12]
   \   000000AC   14008DE2           ADD      R0,SP,#+20
   \   000000B0   01002DE9           PUSH     {R0}
   \   000000B4   14008DE2           ADD      R0,SP,#+20
   \   000000B8   01002DE9           PUSH     {R0}
   \   000000BC   0C00A0E1           MOV      R0,R12
   \   000000C0   A4C09CE5           LDR      R12,[R12, #+164]
   \   000000C4   10308DE2           ADD      R3,SP,#+16
   \   000000C8   24C09CE5           LDR      R12,[R12, #+36]
   \   000000CC   0020A0E3           MOV      R2,#+0
   \   000000D0   0FE0A0E1           MOV      LR,PC
   \   000000D4   1CFF2FE1           BX       R12
   \   000000D8   000050E3           CMP      R0,#+0
   \   000000DC   08D08DE2           ADD      SP,SP,#+8
   \   000000E0   0E00001A           BNE      ??AddGraphs_7
   \   000000E4   CC109FE5           LDR      R1,??AddGraphs_8  ;; ??MaxSummerDraft
   \   000000E8   08009DE5           LDR      R0,[SP, #+8]
   \   000000EC   001091E5           LDR      R1,[R1, #+0]
   \   000000F0   ........           _BLF     __fDiv,??__fDiv??rA
   \   000000F4   ........           _BLF     __floatToDouble,??__floatToDouble??rA
   \   000000F8   0020A0E3           MOV      R2,#+0
   \   000000FC   4034A0E3           MOV      R3,#+1073741824
   \   00000100   593883E3           ORR      R3,R3,#0x590000
   \   00000104   ........           _BLF     __dMul,??__dMul??rA
   \   00000108   0820A0E1           MOV      R2,R8
   \   0000010C   C035A0E3           MOV      R3,#+805306368
   \   00000110   FE3683E3           ORR      R3,R3,#0xFE00000
   \   00000114   ........           _BLF     __dAdd,??__dAdd??rA
   \   00000118   ........           _BLF     __doubleToLong,??__doubleToLong??rA
   \   0000011C   0080A0E1           MOV      R8,R0
   \                     ??AddGraphs_7:
   \   00000120   601194E5           LDR      R1,[R4, #+352]
   \   00000124   0300A0E3           MOV      R0,#+3
   \   00000128   0010CDE5           STRB     R1,[SP, #+0]
   \   0000012C   0160CDE5           STRB     R6,[SP, #+1]
   \   00000130   0280CDE5           STRB     R8,[SP, #+2]
   \   00000134   01002DE9           PUSH     {R0}
   \   00000138   04308DE2           ADD      R3,SP,#+4
   \   0000013C   BDFFFFEA           B        ??AddGraphs_3
   \                     ??AddGraphs_6:
   \   00000140   0CC090E5           LDR      R12,[R0, #+12]
   \   00000144   1C008DE2           ADD      R0,SP,#+28
   \   00000148   01002DE9           PUSH     {R0}
   \   0000014C   1C008DE2           ADD      R0,SP,#+28
   \   00000150   01002DE9           PUSH     {R0}
   \   00000154   0C00A0E1           MOV      R0,R12
   \   00000158   A4C09CE5           LDR      R12,[R12, #+164]
   \   0000015C   14308DE2           ADD      R3,SP,#+20
   \   00000160   24C09CE5           LDR      R12,[R12, #+36]
   \   00000164   0020A0E3           MOV      R2,#+0
   \   00000168   FE10A0E3           MOV      R1,#+254
   \   0000016C   C01F81E3           ORR      R1,R1,#0x300
   \   00000170   0FE0A0E1           MOV      LR,PC
   \   00000174   1CFF2FE1           BX       R12
   \   00000178   000050E3           CMP      R0,#+0
   \   0000017C   08D08DE2           ADD      SP,SP,#+8
   \   00000180   A5FFFF1A           BNE      ??AddGraphs_2
   \   00000184   0C009DE5           LDR      R0,[SP, #+12]
   \   00000188   ........           _BLF     __floatToDouble,??__floatToDouble??rA
   \   0000018C   0020A0E3           MOV      R2,#+0
   \   00000190   C035A0E3           MOV      R3,#+805306368
   \   00000194   FE3683E3           ORR      R3,R3,#0xFE00000
   \   00000198   ........           _BLF     __dAdd,??__dAdd??rA
   \   0000019C   ........           _BLF     __doubleToLong,??__doubleToLong??rA
   \   000001A0   0080A0E1           MOV      R8,R0
   \   000001A4   9CFFFFEA           B        ??AddGraphs_2
    606                   }
    607                   break;
    608                }
    609             }
    610             return (Ptr);
   \                     ??AddGraphs_5:
   \   000001A8   0708A0E1           MOV      R0,R7, LSL #+16
   \   000001AC   20D08DE2           ADD      SP,SP,#+32
   \   000001B0   F041BDE8           POP      {R4-R8,LR}
   \   000001B4   ........           B        ?Subroutine33
   \                     ??AddGraphs_8:
   \   000001B8   ........           DC32     ??MaxSummerDraft
    611          }
    612          
    613          
    614          

   \                                 In segment CODE, align 4, keep-with-next
    615          U16 TPCxObject::AddWindows(U8 *TxBuf, U16 Ptr, bool Update, bool ShowAlarm)
    616          {
   \                     ??AddWindows:
   \   00000000   F0402DE9           PUSH     {R4-R7,LR}
   \   00000004   0040A0E1           MOV      R4,R0
   \   00000008   1470DDE5           LDRB     R7,[SP, #+20]
   \   0000000C   0150A0E1           MOV      R5,R1
    617             switch (FirstTime)
   \   00000010   481194E5           LDR      R1,[R4, #+328]
   \   00000014   0200A0E1           MOV      R0,R2
   \   00000018   0360A0E1           MOV      R6,R3
   \   0000001C   012081E2           ADD      R2,R1,#+1
   \   00000020   020051E3           CMP      R1,#+2
   \   00000024   6400008A           BHI      ??AddWindows_5
   \   00000028   013F8FE2           ADR      R3,??AddWindows_1
   \   0000002C   0130D3E7           LDRB     R3,[R3, R1]
   \   00000030   03F18FE0           ADD      PC,PC,R3, LSL #+2
   \                     ??AddWindows_1:
   \   00000034   10001100           DC8      +16,+0,+17,+0
    618             {
    619             case 1:
    620                FirstTime++;
   \                     ??AddWindows_6:
   \   00000038   482184E5           STR      R2,[R4, #+328]
    621                switch (TPCType)
   \   0000003C   581194E5           LDR      R1,[R4, #+344]
   \   00000040   AF1041E2           SUB      R1,R1,#+175
   \   00000044   601E41E2           SUB      R1,R1,#+1536
   \   00000048   020051E3           CMP      R1,#+2
   \   0000004C   5A00008A           BHI      ??AddWindows_5
   \   00000050   012F8FE2           ADR      R2,??AddWindows_2
   \   00000054   0120D2E7           LDRB     R2,[R2, R1]
   \   00000058   02F18FE0           ADD      PC,PC,R2, LSL #+2
   \                     ??AddWindows_2:
   \   0000005C   00000000           DC8      +0,+0,+0,+0
    622                {
    623                case C_TPC_140:
    624                case C_TPC_350:
    625                   Ptr = SetWindow(TxBuf, Ptr, 1);
   \                     ??AddWindows_7:
   \   00000060   0130A0E3           MOV      R3,#+1
   \   00000064   0020A0E1           MOV      R2,R0
   \   00000068   0510A0E1           MOV      R1,R5
   \   0000006C   0400A0E1           MOV      R0,R4
   \   00000070   ........           BL       ??SetWindow
   \   00000074   500000EA           B        ??AddWindows_5
    626                   break;
    627                case C_TPC_196:
    628                   Ptr = SetWindow(TxBuf, Ptr, 1);
    629                   break;
    630                }
    631                break;
    632             case 0:
    633                FirstTime++;
   \                     ??AddWindows_8:
   \   00000078   482184E5           STR      R2,[R4, #+328]
    634             case 2:
    635                switch (TPCType)
   \                     ??AddWindows_9:
   \   0000007C   581194E5           LDR      R1,[R4, #+344]
   \   00000080   AF1041E2           SUB      R1,R1,#+175
   \   00000084   601E41E2           SUB      R1,R1,#+1536
   \   00000088   020051E3           CMP      R1,#+2
   \   0000008C   4A00008A           BHI      ??AddWindows_5
   \   00000090   012F8FE2           ADR      R2,??AddWindows_3
   \   00000094   0120D2E7           LDRB     R2,[R2, R1]
   \   00000098   02F18FE0           ADD      PC,PC,R2, LSL #+2
   \                     ??AddWindows_3:
   \   0000009C   00102900           DC8      +0,+16,+41,+0
    636                {
    637                case C_TPC_140:
    638                   Ptr = AddAlarmWindow(TxBuf, Ptr, Update);
   \                     ??AddWindows_10:
   \   000000A0   0110A0E3           MOV      R1,#+1
   \   000000A4   02002DE9           PUSH     {R1}
   \   000000A8   0630A0E1           MOV      R3,R6
   \   000000AC   0020A0E1           MOV      R2,R0
   \   000000B0   0510A0E1           MOV      R1,R5
   \   000000B4   0400A0E1           MOV      R0,R4
   \   000000B8   ........           BL       ??AddAlarmWindow
   \   000000BC   0020A0E1           MOV      R2,R0
    639                   Ptr = AddLowerWindow(TxBuf, Ptr, Update);
   \   000000C0   0100A0E3           MOV      R0,#+1
   \   000000C4   01002DE9           PUSH     {R0}
   \   000000C8   0630A0E1           MOV      R3,R6
   \   000000CC   0510A0E1           MOV      R1,R5
   \   000000D0   0400A0E1           MOV      R0,R4
   \   000000D4   ........           BL       ??AddLowerWindow
   \                     ??AddWindows_11:
   \   000000D8   08D08DE2           ADD      SP,SP,#+8        ;; stack cleaning
   \   000000DC   360000EA           B        ??AddWindows_5
    640                   break;
    641                case C_TPC_350:
    642                   Ptr = AddAlarmWindow(TxBuf, Ptr, Update);
   \                     ??AddWindows_12:
   \   000000E0   0110A0E3           MOV      R1,#+1
   \   000000E4   02002DE9           PUSH     {R1}
   \   000000E8   0630A0E1           MOV      R3,R6
   \   000000EC   0020A0E1           MOV      R2,R0
   \   000000F0   0510A0E1           MOV      R1,R5
   \   000000F4   0400A0E1           MOV      R0,R4
   \   000000F8   ........           BL       ??AddAlarmWindow
    643                   Ptr = AddLowerWindow(TxBuf, Ptr, Update);
   \   000000FC   0110A0E3           MOV      R1,#+1
   \   00000100   02002DE9           PUSH     {R1}
   \   00000104   0630A0E1           MOV      R3,R6
   \   00000108   0020A0E1           MOV      R2,R0
   \   0000010C   0510A0E1           MOV      R1,R5
   \   00000110   0400A0E1           MOV      R0,R4
   \   00000114   ........           BL       ??AddLowerWindow
    644                   Ptr = AddUpperWindow(TxBuf, Ptr, Update);
   \   00000118   0630A0E1           MOV      R3,R6
   \   0000011C   0020A0E1           MOV      R2,R0
   \   00000120   0510A0E1           MOV      R1,R5
   \   00000124   0400A0E1           MOV      R0,R4
   \   00000128   ........           BL       ??AddUpperWindow
    645                   Ptr = AddGraphs(TxBuf, Ptr, Update);
   \   0000012C   0630A0E1           MOV      R3,R6
   \   00000130   0020A0E1           MOV      R2,R0
   \   00000134   0510A0E1           MOV      R1,R5
   \   00000138   0400A0E1           MOV      R0,R4
   \   0000013C   ........           BL       ??AddGraphs
   \   00000140   E4FFFFEA           B        ??AddWindows_11
    646                   break;
    647                case C_TPC_196:
    648                   {
    649                      // First call AddAlarmWindow.
    650                      // The CurrentLEDStatus will be set
    651                      // Alarm message only added if TPC_LED_FLASH and ShowAlarm are true
    652                      Ptr = AddAlarmWindow(TxBuf, Ptr, Update, ShowAlarm);   // M signalisere om Message skal inkluderes
   \                     ??AddWindows_13:
   \   00000144   0710A0E1           MOV      R1,R7
   \   00000148   02002DE9           PUSH     {R1}
   \   0000014C   0630A0E1           MOV      R3,R6
   \   00000150   0020A0E1           MOV      R2,R0
   \   00000154   0510A0E1           MOV      R1,R5
   \   00000158   0400A0E1           MOV      R0,R4
   \   0000015C   ........           BL       ??AddAlarmWindow
    653                      switch (CurrentLEDStatus)
   \   00000160   9C11D4E5           LDRB     R1,[R4, #+412]
   \   00000164   04D08DE2           ADD      SP,SP,#+4
   \   00000168   020051E3           CMP      R1,#+2
   \   0000016C   0D00008A           BHI      ??AddWindows_14
   \   00000170   012F8FE2           ADR      R2,??AddWindows_4
   \   00000174   0120D2E7           LDRB     R2,[R2, R1]
   \   00000178   02F18FE0           ADD      PC,PC,R2, LSL #+2
   \                     ??AddWindows_4:
   \   0000017C   02020000           DC8      +2,+2,+0,+0
    654                      {
    655                      case TPC_LED_OFF    :
    656                      case TPC_LED_ON     :
    657                         Ptr = AddLowerWindow(TxBuf, Ptr, Update, 0);
    658                         break;
    659                      case TPC_LED_FLASH  :
    660                         if (!ShowAlarm)
   \                     ??AddWindows_15:
   \   00000180   000057E3           CMP      R7,#+0
   \   00000184   0700001A           BNE      ??AddWindows_14
    661                         {
    662                            Ptr = AddLowerWindow(TxBuf, Ptr, Update, 0);
   \                     ??AddWindows_16:
   \   00000188   0010A0E3           MOV      R1,#+0
   \   0000018C   02002DE9           PUSH     {R1}
   \   00000190   0630A0E1           MOV      R3,R6
   \   00000194   0020A0E1           MOV      R2,R0
   \   00000198   0510A0E1           MOV      R1,R5
   \   0000019C   0400A0E1           MOV      R0,R4
   \   000001A0   ........           BL       ??AddLowerWindow
   \   000001A4   04D08DE2           ADD      SP,SP,#+4
    663                         }
    664                      }
    665                   }
    666                   Ptr = AddExtraWindows(TxBuf, Ptr, Update);
   \                     ??AddWindows_14:
   \   000001A8   0630A0E1           MOV      R3,R6
   \   000001AC   0020A0E1           MOV      R2,R0
   \   000001B0   0510A0E1           MOV      R1,R5
   \   000001B4   0400A0E1           MOV      R0,R4
   \   000001B8   ........           BL       ??AddExtraWindows
    667                   break;
    668                }
    669             }
    670          
    671             return (Ptr);
   \                     ??AddWindows_5:
   \   000001BC   ........           B        ?Subroutine32
    672          }
    673          

   \                                 In segment CODE, align 4, keep-with-next
   \                     ?Subroutine30:
   \   00000000   0040BDE8           POP      {LR}
   \   00000004   1EFF2FE1           BX       LR               ;; return

   \                                 In segment CODE, align 4, keep-with-next
    674          U16 TPCxObject::SetWindow(U8 *TxBuf, U16 Ptr, U8 WinIndex)
    675          {
   \                     ??SetWindow:
   \   00000000   00402DE9           PUSH     {LR}
   \   00000004   50D04DE2           SUB      SP,SP,#+80
   \   00000008   00C0A0E1           MOV      R12,R0
    676             U8 Data[BUF_SIZE] = { SecondaryAddress, WinIndex };
   \   0000000C   60C19CE5           LDR      R12,[R12, #+352]
   \   00000010   0100A0E1           MOV      R0,R1
   \   00000014   0210A0E1           MOV      R1,R2
   \   00000018   00C0CDE5           STRB     R12,[SP, #+0]
   \   0000001C   0130CDE5           STRB     R3,[SP, #+1]
    677             return (AddCommand(TxBuf, Ptr, ANP1_SND_DVAL, Data, 2));
   \   00000020   0220A0E3           MOV      R2,#+2
   \   00000024   04002DE9           PUSH     {R2}
   \   00000028   04308DE2           ADD      R3,SP,#+4
   \   0000002C   4220A0E3           MOV      R2,#+66
   \   00000030   ........           _BLF     ??AddCommand,??AddCommand??rA
   \   00000034   54D08DE2           ADD      SP,SP,#+84
   \   00000038   ........           B        ?Subroutine30
    678          }

   \                                 In segment CODE, align 4, keep-with-next
    679          void TPCxObject::AckAlarms(void)
    680          {
   \                     ??AckAlarms:
   \   00000000   30402DE9           PUSH     {R4,R5,LR}
   \   00000004   0040A0E1           MOV      R4,R0
    681             set<AlarmBasic *>::iterator pBIt;
    682             for (pBIt = AlarmSet.begin(); pBIt != AlarmSet.end(); pBIt++)
   \   00000008   E45094E5           LDR      R5,[R4, #+228]
   \   0000000C   090000EA           B        ??AckAlarms_1
    683             {
    684                AlarmBasic *Element = *pBIt;
    685                if (Element->State == AlarmBasic::AlActive)
    686                {
    687                   if (Master) Element->MoveAlarmToAknowledge();
    688                   else Element->SendData(CMD_PRO_ALARM_ACK);
   \                     ??AckAlarms_2:
   \   00000010   0200A0E1           MOV      R0,R2
   \   00000014   A42092E5           LDR      R2,[R2, #+164]
   \   00000018   B910A0E3           MOV      R1,#+185
   \   0000001C   402092E5           LDR      R2,[R2, #+64]
   \   00000020   B01E81E3           ORR      R1,R1,#0xB00
   \   00000024   0FE0A0E1           MOV      LR,PC
   \   00000028   12FF2FE1           BX       R2
   \                     ??AckAlarms_3:
   \   0000002C   0500A0E1           MOV      R0,R5
   \   00000030   ........           _BLF     ??_IncP,??_IncP??rA
   \   00000034   0050A0E1           MOV      R5,R0
   \                     ??AckAlarms_1:
   \   00000038   E40084E2           ADD      R0,R4,#+228
   \   0000003C   000055E1           CMP      R5,R0
   \   00000040   0000001A           BNE      ??AckAlarms_4
    689                }
    690             }
    691          
    692          }
   \   00000044   ........           B        ?Subroutine29
   \                     ??AckAlarms_4:
   \   00000048   102095E5           LDR      R2,[R5, #+16]
   \   0000004C   E000D2E5           LDRB     R0,[R2, #+224]
   \   00000050   010050E3           CMP      R0,#+1
   \   00000054   F4FFFF1A           BNE      ??AckAlarms_3
   \   00000058   14009FE5           LDR      R0,??AckAlarms_5  ;; Master
   \   0000005C   0000D0E5           LDRB     R0,[R0, #+0]
   \   00000060   000050E3           CMP      R0,#+0
   \   00000064   E9FFFF0A           BEQ      ??AckAlarms_2
   \   00000068   0200A0E1           MOV      R0,R2
   \   0000006C   ........           _BLF     ??MoveAlarmToAknowledge,??MoveAlarmToAknowledge??rA
   \   00000070   EDFFFFEA           B        ??AckAlarms_3
   \                     ??AckAlarms_5:
   \   00000074   ........           DC32     Master
    693          

   \                                 In segment CODE, align 4, keep-with-next
    694          bool TPCxObject::UnpackPacket(TSNUart *PortPtr, U8 *Buf, int Size, set<PRogramObjectBase *>CurrenttpPCxList)
    695          {
   \                     ??UnpackPacket:
   \   00000000   F0472DE9           PUSH     {R4-R10,LR}
   \   00000004   18D04DE2           SUB      SP,SP,#+24
   \   00000008   0040A0E1           MOV      R4,R0
   \   0000000C   0150A0E1           MOV      R5,R1
   \   00000010   0360A0E1           MOV      R6,R3
    696             U8 *MaxPtr    = &Buf[Size];
   \   00000014   057082E0           ADD      R7,R2,R5
    697             bool MoreData = true;
   \   00000018   0180A0E3           MOV      R8,#+1
    698             do
    699             {
    700                U8 Command = Buf[0];
   \                     ??UnpackPacket_1:
   \   0000001C   ........           LDRB     R0,[R5], #+1
    701                U8 Size    = Buf[1];
   \   00000020   ........           LDRB     R9,[R5], #+1
    702                Buf += 2;
    703                switch (Command)
   \   00000024   010050E3           CMP      R0,#+1
   \   00000028   2F00009A           BLS      ??UnpackPacket_2
   \   0000002C   4B0050E2           SUBS     R0,R0,#+75
   \   00000030   0200000A           BEQ      ??UnpackPacket_3
   \   00000034   040050E2           SUBS     R0,R0,#+4
   \   00000038   1200000A           BEQ      ??UnpackPacket_4
   \   0000003C   2B0000EA           B        ??UnpackPacket_5
    704                {
    705                case ANP1_REP_DATA :
    706                   {
    707                      int SecAddress = Buf[0];
   \                     ??UnpackPacket_3:
   \   00000040   00A0D5E5           LDRB     R10,[R5, #+0]
    708                      TPCxObject *Display = FindtPCx(SecAddress, CurrenttpPCxList);
   \   00000044   0610A0E1           MOV      R1,R6
   \   00000048   0D00A0E1           MOV      R0,SP
   \   0000004C   ........           _BLF     ??set,??set??rA_1
   \   00000050   0010A0E1           MOV      R1,R0
   \   00000054   0A00A0E1           MOV      R0,R10
   \   00000058   ........           BL       ??FindtPCx
   \   0000005C   00A0A0E1           MOV      R10,R0
   \   00000060   0D00A0E1           MOV      R0,SP
   \   00000064   ........           _BLF     ??clear,??clear??rA
    709                      if (Display)
   \   00000068   00005AE3           CMP      R10,#+0
   \   0000006C   1F00000A           BEQ      ??UnpackPacket_5
    710                      {
    711                         Display->AckAlarms();
   \   00000070   0A00A0E1           MOV      R0,R10
   \   00000074   ........           BL       ??AckAlarms
    712                         Display->SendtPCxAcknowledge(PortPtr);
   \   00000078   0410A0E1           MOV      R1,R4
   \   0000007C   0A00A0E1           MOV      R0,R10
   \   00000080   ........           BL       ??SendtPCxAcknowledge
   \   00000084   190000EA           B        ??UnpackPacket_5
    713                      }
    714                   }
    715                   break;
    716                case ANP1_REP_STAT  :
    717                   {
    718                      int SecAddress = Buf[0];
   \                     ??UnpackPacket_4:
   \   00000088   00A0D5E5           LDRB     R10,[R5, #+0]
    719                      TPCxObject *Display = FindtPCx(SecAddress, CurrenttpPCxList);
   \   0000008C   0610A0E1           MOV      R1,R6
   \   00000090   0D00A0E1           MOV      R0,SP
   \   00000094   ........           _BLF     ??set,??set??rA_1
   \   00000098   0010A0E1           MOV      R1,R0
   \   0000009C   0A00A0E1           MOV      R0,R10
   \   000000A0   ........           BL       ??FindtPCx
   \   000000A4   00A0A0E1           MOV      R10,R0
   \   000000A8   0D00A0E1           MOV      R0,SP
   \   000000AC   ........           _BLF     ??clear,??clear??rA
    720                      if (Display)
   \   000000B0   00005AE3           CMP      R10,#+0
   \   000000B4   0D00000A           BEQ      ??UnpackPacket_5
    721                      {
    722                         Display->Version     = Buf[1];
   \   000000B8   0100D5E5           LDRB     R0,[R5, #+1]
   \   000000BC   4C01CAE5           STRB     R0,[R10, #+332]
    723                         Display->PCB_Type    = Buf[2];
   \   000000C0   0200D5E5           LDRB     R0,[R5, #+2]
   \   000000C4   4D01CAE5           STRB     R0,[R10, #+333]
    724                         Display->RxBufSize   = (Buf[4] << 8) | Buf[3];
   \   000000C8   0300D5E5           LDRB     R0,[R5, #+3]
   \   000000CC   4E01CAE5           STRB     R0,[R10, #+334]
    725                         Display->TxBufSize   = (Buf[6] << 8) | Buf[5];
   \   000000D0   0500D5E5           LDRB     R0,[R5, #+5]
   \   000000D4   4F01CAE5           STRB     R0,[R10, #+335]
    726                         Display->Restart     = Buf[7];
   \   000000D8   0700D5E5           LDRB     R0,[R5, #+7]
   \   000000DC   5001CAE5           STRB     R0,[R10, #+336]
    727                         Display->SerialNumber = (Buf[11] << 24) | (Buf[10] << 16) | (Buf[9] << 8) | Buf[8];
   \   000000E0   0800D5E5           LDRB     R0,[R5, #+8]
   \   000000E4   5101CAE5           STRB     R0,[R10, #+337]
   \   000000E8   000000EA           B        ??UnpackPacket_5
    728                      }
    729                   }
    730                   break;
    731                case ANP1_REP_EEPSER:
    732                   break;
    733                case ANP1_ECMD_NMDWOACK:
    734                case ANP1_ECMD_NMDRQACK:
    735                   MoreData = false;
   \                     ??UnpackPacket_2:
   \   000000EC   0080A0E3           MOV      R8,#+0
    736                default:
    737                   break;
    738                }
    739                Buf += Size;
   \                     ??UnpackPacket_5:
   \   000000F0   055089E0           ADD      R5,R9,R5
    740             }
    741             while (MoreData && (Buf < MaxPtr));
   \   000000F4   000058E3           CMP      R8,#+0
   \   000000F8   0100000A           BEQ      ??UnpackPacket_6
   \   000000FC   070055E1           CMP      R5,R7
   \   00000100   C5FFFF3A           BCC      ??UnpackPacket_1
    742             return (true);
   \                     ??UnpackPacket_6:
   \   00000104   18D08DE2           ADD      SP,SP,#+24
   \   00000108   F047BDE8           POP      {R4-R10,LR}
   \   0000010C   0100A0E3           MOV      R0,#+1
   \   00000110   1EFF2FE1           BX       LR               ;; return
    743          }
    744          

   \                                 In segment CODE, align 4, keep-with-next
    745          U16 TPCxObject::MakeAcknowledge(U8 *TxBuf, U16 Ptr)
    746          {
    747             U8 Data[BUF_SIZE] = { SecondaryAddress, true };
   \                     ??MakeAcknowledge:
   \   00000000   4CC09FE5           LDR      R12,??MakeAcknowledge_1  ;; `?<Constant {(unsigned char __data)'\\000', (uns_3`
   \   00000004   30402DE9           PUSH     {R4,R5,LR}
   \   00000008   50D04DE2           SUB      SP,SP,#+80
   \   0000000C   0030A0E1           MOV      R3,R0
   \   00000010   0100A0E1           MOV      R0,R1
   \   00000014   0210A0E1           MOV      R1,R2
   \   00000018   0D20A0E1           MOV      R2,SP
   \   0000001C   5050A0E3           MOV      R5,#+80
   \                     ??MakeAcknowledge_2:
   \   00000020   045055E2           SUBS     R5,R5,#+4
   \   00000024   05409CE7           LDR      R4,[R12, R5]
   \   00000028   054082E7           STR      R4,[R2, R5]
   \   0000002C   FBFFFF1A           BNE      ??MakeAcknowledge_2
   \   00000030   603193E5           LDR      R3,[R3, #+352]
    748             return (AddCommand(TxBuf, Ptr, ANP1_REQ_ACKSTAT, Data, 2));
   \   00000034   0220A0E3           MOV      R2,#+2
   \   00000038   0030CDE5           STRB     R3,[SP, #+0]
   \   0000003C   04002DE9           PUSH     {R2}
   \   00000040   04308DE2           ADD      R3,SP,#+4
   \   00000044   3720A0E3           MOV      R2,#+55
   \   00000048   ........           _BLF     ??AddCommand,??AddCommand??rA
   \   0000004C   54D08DE2           ADD      SP,SP,#+84
   \   00000050   ........           B        ?Subroutine29
   \                     ??MakeAcknowledge_1:
   \   00000054   ........           DC32     `?<Constant {(unsigned char __data)'\\000', (uns_3`
    749          }
    750          

   \                                 In segment CODE, align 4, keep-with-next
    751          void TPCxObject::SendtPCxAcknowledge(TSNUart *PortPtr)
    752          {
   \                     ??SendtPCxAcknowledge:
   \   00000000   70402DE9           PUSH     {R4-R6,LR}
   \   00000004   50D04DE2           SUB      SP,SP,#+80
   \   00000008   0040A0E1           MOV      R4,R0
   \   0000000C   0150A0E1           MOV      R5,R1
    753             U8 TxBuf[BUF_SIZE];
    754             U16 Ptr = AddPacketHeading(TxBuf, PrimaryAddress);
   \   00000010   5C1194E5           LDR      R1,[R4, #+348]
   \   00000014   0D00A0E1           MOV      R0,SP
   \   00000018   FF1001E2           AND      R1,R1,#0xFF
   \   0000001C   ........           _BLF     ??AddPacketHeading,??AddPacketHeading??rA
    755             Ptr += MakeAcknowledge(TxBuf, Ptr);
   \   00000020   0060A0E1           MOV      R6,R0
   \   00000024   0020A0E1           MOV      R2,R0
   \   00000028   0D10A0E1           MOV      R1,SP
   \   0000002C   0400A0E1           MOV      R0,R4
   \   00000030   ........           BL       ??MakeAcknowledge
   \   00000034   061080E0           ADD      R1,R0,R6
   \   00000038   0118A0E1           MOV      R1,R1, LSL #+16
   \   0000003C   2118A0E1           MOV      R1,R1, LSR #+16
    756             Ptr += AddPacketTail(TxBuf, Ptr, ANP1_ECMD_NMDWOACK);
   \   00000040   0140A0E1           MOV      R4,R1
   \   00000044   0020A0E3           MOV      R2,#+0
   \   00000048   0D00A0E1           MOV      R0,SP
   \   0000004C   ........           _BLF     ??AddPacketTail,??AddPacketTail??rA
   \   00000050   042080E0           ADD      R2,R0,R4
    757             PortPtr->Send(TxBuf, Ptr, SEND_COMPLETE_EVENT);
   \   00000054   0100A0E3           MOV      R0,#+1
   \   00000058   01002DE9           PUSH     {R0}
   \   0000005C   DC4095E5           LDR      R4,[R5, #+220]
   \   00000060   0228A0E1           MOV      R2,R2, LSL #+16
   \   00000064   044094E5           LDR      R4,[R4, #+4]
   \   00000068   2228A0E1           MOV      R2,R2, LSR #+16
   \   0000006C   0130A0E3           MOV      R3,#+1
   \   00000070   04108DE2           ADD      R1,SP,#+4
   \   00000074   0500A0E1           MOV      R0,R5
   \   00000078   0FE0A0E1           MOV      LR,PC
   \   0000007C   14FF2FE1           BX       R4
    758          }
   \   00000080   54D08DE2           ADD      SP,SP,#+84
   \   00000084   7040BDE8           POP      {R4-R6,LR}
   \   00000088   1EFF2FE1           BX       LR               ;; return
    759          

   \                                 In segment CODE, align 4, keep-with-next
    760          void TPCxObject::Handle(TSNUart *PortPtr)
    761          {
   \                     ??Handle:
   \   00000000   F14F2DE9           PUSH     {R0,R4-R11,LR}
    762             U8 TxBuf[2 * TPC_DISPLAY_BUF_SIZE];
    763             bool Update  = true;
    764             ShowAlarmMsg = !ShowAlarmMsg;
   \   00000004   F8419FE5           LDR      R4,??Handle_1    ;; ??ObjectSet
   \   00000008   F8A19FE5           LDR      R10,??Handle_1+0x4  ;; ??UnpackPacket
   \   0000000C   94DF4DE2           SUB      SP,SP,#+592
   \   00000010   A401D4E5           LDRB     R0,[R4, #+420]
   \   00000014   0050A0E3           MOV      R5,#+0
   \   00000018   010020E2           EOR      R0,R0,#0x1
   \   0000001C   A401C4E5           STRB     R0,[R4, #+420]
   \   00000020   610000EA           B        ??Handle_2
    765             for (unsigned i = 0; i < PrimaryAddressTable.size(); i++)
    766             {
    767                if (!tPCLists[i].empty())
    768                {
    769                   U16 Ptr = AddPacketHeading(TxBuf, PrimaryAddressTable[i]);
    770                   set<PRogramObjectBase *>::iterator pBIt;
    771                   unsigned j = 0;
    772                   for (pBIt = tPCLists[i].begin(); pBIt != tPCLists[i].end(); j++, pBIt++)
    773                   {
    774                      TPCxObject *tPCx = (TPCxObject *)(*pBIt);
    775                      U8 TmpBuf[TPCX_MAX_PACKET_SIZE];
    776                      int NewPtr = tPCx->AddWindows(TmpBuf, 0, Update, ShowAlarmMsg);
   \                     ??Handle_3:
   \   00000024   A401D4E5           LDRB     R0,[R4, #+420]
   \   00000028   0130A0E3           MOV      R3,#+1
   \   0000002C   0020A0E3           MOV      R2,#+0
   \   00000030   01002DE9           PUSH     {R0}
   \   00000034   100096E5           LDR      R0,[R6, #+16]
   \   00000038   661F8DE2           ADD      R1,SP,#+408
   \   0000003C   ........           BL       ??AddWindows
   \   00000040   00B0B0E1           MOVS     R11,R0
    777                      if (NewPtr)
   \   00000044   04D08DE2           ADD      SP,SP,#+4
   \   00000048   3200000A           BEQ      ??Handle_4
    778                      {
    779                         if ((unsigned(Ptr + NewPtr) >= TPCX_MAX_PACKET_SIZE) && (j < tPCLists[i].size() - 1))
   \   0000004C   07008BE0           ADD      R0,R11,R7
   \   00000050   BB0050E3           CMP      R0,#+187
   \   00000054   2700003A           BCC      ??Handle_5
   \   00000058   280099E5           LDR      R0,[R9, #+40]
   \   0000005C   010040E2           SUB      R0,R0,#+1
   \   00000060   000058E1           CMP      R8,R0
   \   00000064   2300002A           BCS      ??Handle_5
    780                         {
    781                            Ptr += AddPacketTail(TxBuf, Ptr, ANP1_ECMD_NMDWOACK);
   \   00000068   0700A0E1           MOV      R0,R7
   \   0000006C   01002DE9           PUSH     {R0}
   \   00000070   0020A0E3           MOV      R2,#+0
   \   00000074   0710A0E1           MOV      R1,R7
   \   00000078   08008DE2           ADD      R0,SP,#+8
   \   0000007C   ........           _BLF     ??AddPacketTail,??AddPacketTail??rA
   \   00000080   0200BDE8           POP      {R1}
    782                            PortPtr->Send(TxBuf, Ptr, SEND_COMPLETE_EVENT);
   \   00000084   0130A0E3           MOV      R3,#+1
   \   00000088   012080E0           ADD      R2,R0,R1
   \   0000008C   0100A0E3           MOV      R0,#+1
   \   00000090   01002DE9           PUSH     {R0}
   \   00000094   54029DE5           LDR      R0,[SP, #+596]
   \   00000098   0228A0E1           MOV      R2,R2, LSL #+16
   \   0000009C   DC7090E5           LDR      R7,[R0, #+220]
   \   000000A0   2228A0E1           MOV      R2,R2, LSR #+16
   \   000000A4   047097E5           LDR      R7,[R7, #+4]
   \   000000A8   08108DE2           ADD      R1,SP,#+8
   \   000000AC   0FE0A0E1           MOV      LR,PC
   \   000000B0   17FF2FE1           BX       R7
    783                            ANPRO1Receive(PortPtr, 1000, (U8)PrimaryAddressTable[i], tPCLists[i], UnpackPacket);
   \   000000B4   00042DE9           PUSH     {R10}
   \   000000B8   980194E5           LDR      R0,[R4, #+408]
   \   000000BC   183089E2           ADD      R3,R9,#+24
   \   000000C0   052190E7           LDR      R2,[R0, +R5, LSL #+2]
   \   000000C4   58029DE5           LDR      R0,[SP, #+600]
   \   000000C8   FF2002E2           AND      R2,R2,#0xFF
   \   000000CC   FA1FA0E3           MOV      R1,#+1000
   \   000000D0   ........           _BLF     ??ANPRO1Receive,??ANPRO1Receive??rA
    784                            TSN_Delay(500);
   \   000000D4   7D0FA0E3           MOV      R0,#+500
   \   000000D8   ........           _BLF     OS_Delay,??OS_Delay??rA
    785                            Ptr = AddPacketHeading(TxBuf, PrimaryAddressTable[i]);
   \   000000DC   980194E5           LDR      R0,[R4, #+408]
   \   000000E0   051190E7           LDR      R1,[R0, +R5, LSL #+2]
   \   000000E4   0C008DE2           ADD      R0,SP,#+12
   \   000000E8   FF1001E2           AND      R1,R1,#0xFF
   \   000000EC   ........           _BLF     ??AddPacketHeading,??AddPacketHeading??rA
   \   000000F0   0070A0E1           MOV      R7,R0
   \   000000F4   08D08DE2           ADD      SP,SP,#+8
    786                         }
    787                         memcpy(&TxBuf[Ptr], TmpBuf, NewPtr);
   \                     ??Handle_5:
   \   000000F8   0B20A0E1           MOV      R2,R11
   \   000000FC   651F8DE2           ADD      R1,SP,#+404
   \   00000100   04308DE2           ADD      R3,SP,#+4
   \   00000104   030087E0           ADD      R0,R7,R3
   \   00000108   ........           _BLF     memcpy,??memcpy??rA
    788                         Ptr += NewPtr;
   \   0000010C   07708BE0           ADD      R7,R11,R7
   \   00000110   0778A0E1           MOV      R7,R7, LSL #+16
   \   00000114   2778A0E1           MOV      R7,R7, LSR #+16
    789                      }
    790                   }
   \                     ??Handle_4:
   \   00000118   018088E2           ADD      R8,R8,#+1
   \   0000011C   0600A0E1           MOV      R0,R6
   \   00000120   ........           _BLF     ??_IncP,??_IncP??rA
   \   00000124   0060A0E1           MOV      R6,R0
   \                     ??Handle_6:
   \   00000128   00009DE5           LDR      R0,[SP, #+0]
   \   0000012C   181084E2           ADD      R1,R4,#+24
   \   00000130   010080E0           ADD      R0,R0,R1
   \   00000134   000056E1           CMP      R6,R0
   \   00000138   B9FFFF1A           BNE      ??Handle_3
    791                   // Always send a packet to enable a reply from any tPCx
    792                   Ptr += AddPacketTail(TxBuf, Ptr, ANP1_ECMD_SNDOK);
   \   0000013C   0220A0E3           MOV      R2,#+2
   \   00000140   0710A0E1           MOV      R1,R7
   \   00000144   04008DE2           ADD      R0,SP,#+4
   \   00000148   ........           _BLF     ??AddPacketTail,??AddPacketTail??rA
   \   0000014C   072080E0           ADD      R2,R0,R7
    793                   PortPtr->Send(TxBuf, Ptr, SEND_COMPLETE_EVENT);
   \   00000150   0100A0E3           MOV      R0,#+1
   \   00000154   01002DE9           PUSH     {R0}
   \   00000158   54029DE5           LDR      R0,[SP, #+596]
   \   0000015C   0228A0E1           MOV      R2,R2, LSL #+16
   \   00000160   DC6090E5           LDR      R6,[R0, #+220]
   \   00000164   2228A0E1           MOV      R2,R2, LSR #+16
   \   00000168   046096E5           LDR      R6,[R6, #+4]
   \   0000016C   0130A0E3           MOV      R3,#+1
   \   00000170   08108DE2           ADD      R1,SP,#+8
   \   00000174   0FE0A0E1           MOV      LR,PC
   \   00000178   16FF2FE1           BX       R6
    794                   ANPRO1Receive(PortPtr, 1000, PrimaryAddressTable[i], tPCLists[i], UnpackPacket);
   \   0000017C   00042DE9           PUSH     {R10}
   \   00000180   980194E5           LDR      R0,[R4, #+408]
   \   00000184   183089E2           ADD      R3,R9,#+24
   \   00000188   052190E7           LDR      R2,[R0, +R5, LSL #+2]
   \   0000018C   58029DE5           LDR      R0,[SP, #+600]
   \   00000190   FF2002E2           AND      R2,R2,#0xFF
   \   00000194   FA1FA0E3           MOV      R1,#+1000
   \   00000198   ........           _BLF     ??ANPRO1Receive,??ANPRO1Receive??rA
    795                   TSN_Delay(500);
   \   0000019C   7D0FA0E3           MOV      R0,#+500
   \   000001A0   ........           _BLF     OS_Delay,??OS_Delay??rA
   \   000001A4   08D08DE2           ADD      SP,SP,#+8
   \                     ??Handle_7:
   \   000001A8   015085E2           ADD      R5,R5,#+1
   \                     ??Handle_2:
   \   000001AC   980194E5           LDR      R0,[R4, #+408]
   \   000001B0   9C1194E5           LDR      R1,[R4, #+412]
   \   000001B4   001041E0           SUB      R1,R1,R0
   \   000001B8   210155E1           CMP      R5,R1, LSR #+2
   \   000001BC   0E00002A           BCS      ??Handle_8
   \   000001C0   1820A0E3           MOV      R2,#+24
   \   000001C4   920503E0           MUL      R3,R2,R5
   \   000001C8   00308DE5           STR      R3,[SP, #+0]
   \   000001CC   049083E0           ADD      R9,R3,R4
   \   000001D0   281099E5           LDR      R1,[R9, #+40]
   \   000001D4   000051E3           CMP      R1,#+0
   \   000001D8   F2FFFF0A           BEQ      ??Handle_7
   \   000001DC   051190E7           LDR      R1,[R0, +R5, LSL #+2]
   \   000001E0   04008DE2           ADD      R0,SP,#+4
   \   000001E4   FF1001E2           AND      R1,R1,#0xFF
   \   000001E8   ........           _BLF     ??AddPacketHeading,??AddPacketHeading??rA
   \   000001EC   186099E5           LDR      R6,[R9, #+24]
   \   000001F0   0070A0E1           MOV      R7,R0
   \   000001F4   0080A0E3           MOV      R8,#+0
   \   000001F8   CAFFFFEA           B        ??Handle_6
    796                }
    797                // Here we can listen and see if we have any messages for us
    798             }
    799          }
   \                     ??Handle_8:
   \   000001FC   95DF8DE2           ADD      SP,SP,#+596
   \   00000200   ........           B        ?Subroutine31
   \                     ??Handle_1:
   \   00000204   ........           DC32     ??ObjectSet
   \   00000208   ........           DC32     ??UnpackPacket
    800          

   \                                 In segment CODE, align 4, keep-with-next
    801          void TPCxObject::TPCxTask(TSNUart *PortPtr)
    802          {
   \                     ??TPCxTask:
   \   00000000   10402DE9           PUSH     {R4,LR}
   \   00000004   0040A0E1           MOV      R4,R0
    803          #ifdef S2TXU
    804             InitializetPCxSystem();
   \   00000008   ........           BL       ??InitializetPCxSystem
    805          
    806             OS_TASK *TxTaskPtr = OS_GetpCurrentTask();
    807             OS_SetPriority(TxTaskPtr, TPCX_TASK_PRIORITY);
   \   0000000C   1C009FE5           LDR      R0,??TPCxTask_1  ;; OS_pCurrentTask
   \   00000010   3210A0E3           MOV      R1,#+50
   \   00000014   000090E5           LDR      R0,[R0, #+0]
   \   00000018   ........           _BLF     OS_SetPriority,??OS_SetPriority??rA
    808             while (true)
    809             {
    810                TPCxObject::Handle(PortPtr);
   \                     ??TPCxTask_2:
   \   0000001C   0400A0E1           MOV      R0,R4
   \   00000020   ........           BL       ??Handle
    811                TSN_Delay(1000);
   \   00000024   FA0FA0E3           MOV      R0,#+1000
   \   00000028   ........           _BLF     OS_Delay,??OS_Delay??rA
   \   0000002C   FAFFFFEA           B        ??TPCxTask_2
   \                     ??TPCxTask_1:
   \   00000030   ........           DC32     OS_pCurrentTask
    812             }
    813          #endif
    814          }
    815          
    816          

   \                                 In segment CODE, align 4, keep-with-next
    817          AnsiString TPCxObject::GetLibValueTPCx(int ValueId, int ValueId2, PRogramObjectBase *ObjPtr, int Width, int Flag, AnsiString *UnitStr)
    818          {
   \                     ??GetLibValueTPCx:
   \   00000000   F04F2DE9           PUSH     {R4-R11,LR}
   \   00000004   24709DE5           LDR      R7,[SP, #+36]
   \   00000008   28809DE5           LDR      R8,[SP, #+40]
   \   0000000C   2C909DE5           LDR      R9,[SP, #+44]
   \   00000010   30A09DE5           LDR      R10,[SP, #+48]
    819          #ifdef S2TXU
    820             OS_Use(&UnitSema);
   \   00000014   ........           LDR      R11,??DataTable22  ;; UnitSema
   \   00000018   0140A0E1           MOV      R4,R1
   \   0000001C   0250A0E1           MOV      R5,R2
   \   00000020   0360A0E1           MOV      R6,R3
   \   00000024   0B00A0E1           MOV      R0,R11
   \   00000028   ........           _BLF     OS_Use,??OS_Use??rA
    821             SetUserUnits();
   \   0000002C   ........           _BLF     ??SetUserUnits,??SetUserUnits??rA
    822             AnsiString MyVal = LibGetValue(ValueId, ValueId2, 0, ObjPtr, Width, Flag, UnitStr);
   \   00000030   0000A0E3           MOV      R0,#+0
   \   00000034   01002DE9           PUSH     {R0}
   \   00000038   00042DE9           PUSH     {R10}
   \   0000003C   00022DE9           PUSH     {R9}
   \   00000040   00012DE9           PUSH     {R8}
   \   00000044   80002DE9           PUSH     {R7}
   \   00000048   0030A0E3           MOV      R3,#+0
   \   0000004C   0620A0E1           MOV      R2,R6
   \   00000050   0510A0E1           MOV      R1,R5
   \   00000054   0400A0E1           MOV      R0,R4
   \   00000058   ........           _BLF     ??LibGetValue,??LibGetValue??rA
    823             switch (PROSystemData::TXUSystemData->CurrentUnitSystem)
   \   0000005C   30009FE5           LDR      R0,??GetLibValueTPCx_1  ;; ??CurrentUnitSystem
   \   00000060   000090E5           LDR      R0,[R0, #+0]
   \   00000064   14D08DE2           ADD      SP,SP,#+20
   \   00000068   000050E3           CMP      R0,#+0
   \   0000006C   0200000A           BEQ      ??GetLibValueTPCx_2
   \   00000070   010050E2           SUBS     R0,R0,#+1
   \   00000074   0200000A           BEQ      ??GetLibValueTPCx_3
   \   00000078   020000EA           B        ??GetLibValueTPCx_4
    824             {
    825             case 0:
    826          	  SetStdSIUnits();
   \                     ??GetLibValueTPCx_2:
   \   0000007C   ........           _BLF     ??SetStdSIUnits,??SetStdSIUnits??rA
   \   00000080   000000EA           B        ??GetLibValueTPCx_4
    827          	  break;
    828             case 1:
    829          	  SetStdUSUnits();
   \                     ??GetLibValueTPCx_3:
   \   00000084   ........           _BLF     ??SetStdUSUnits,??SetStdUSUnits??rA
    830          	  break;
    831             case 2:
    832          	   // Not required as User units already selected
    833          	  //SetUserUnits();
    834          	  break;
    835             }
    836             OS_Unuse(&UnitSema);
   \                     ??GetLibValueTPCx_4:
   \   00000088   0B00A0E1           MOV      R0,R11
   \   0000008C   ........           _BLF     OS_Unuse,??OS_Unuse??rA
    837          
    838             return MyVal;
   \   00000090   ........           B        ?Subroutine31
   \                     ??GetLibValueTPCx_1:
   \   00000094   ........           DC32     ??CurrentUnitSystem
    839          #else
    840              return "";
    841          #endif
    842          }

   \                                 In segment CODE, align 4, keep-with-next
   \                     ??DataTable1:
   \   00000000   ........           DC32     ??set_1

   \                                 In segment DIFUNCT, align 4, keep-with-next, root
   \   00000000                      REQUIRE ?call_ctors
   \   00000000   ........           DC32    ??__sti__routine

   \                                 In segment CODE, align 4, keep-with-next
   \                     `?<Unnamed 0>`:
   \   00000000   14309FE5           LDR      R3,`?<Unnamed 0>_1`  ;; `?~set`
   \   00000004   14009FE5           LDR      R0,`?<Unnamed 0>_1`+0x4  ;; ??ObjectSet + 24
   \   00000008   00402DE9           PUSH     {LR}
   \   0000000C   1820A0E3           MOV      R2,#+24
   \   00000010   1010A0E3           MOV      R1,#+16
   \   00000014   ........           _BLF     __data_vec_destroy,??__data_vec_destroy??rA
   \   00000018   ........           B        ?Subroutine30
   \                     `?<Unnamed 0>_1`:
   \   0000001C   ........           DC32     `?~set`
   \   00000020   ........           DC32     ??ObjectSet + 24

   \                                 In segment DATA_C, align 4, align-sorted
   \                     `?<Constant "TPC ">`:
   \   00000000   5450432000         DC8 "TPC "
   \   00000005   000000             DC8 0, 0, 0

   \                                 In segment DATA_C, align 1, align-sorted
   \   00000000   2D00               DC8 "-"

   \                                 In segment DATA_C, align 1, align-sorted
   \   00000000   5F00               DC8 "_"

   \                                 In segment DATA_C, align 4, align-sorted
   \                     `?<Constant "0x%0x">`:
   \   00000000   307825307800       DC8 "0x%0x"
   \   00000006   0000               DC8 0, 0

   \                                 In segment DATA_C, align 1, align-sorted
   \   00000000   00                 DC8 ""

   \                                 In segment DATA_C, align 1, align-sorted
   \   00000000   4F4B00             DC8 "OK"

   \                                 In segment DATA_C, align 4, align-sorted
   \   00000000   2A2A2A00           DC8 "***"

   \                                 In segment DATA_C, align 4, align-sorted
   \   00000000   000000000000       DC8 0, 0, 0, 0, 0, 0, 0, 0, 0, 0, 0, 0, 0, 0, 0, 0, 0, 0
   \              000000000000
   \              000000000000
   \   00000012   000000000000       DC8 0, 0, 0, 0, 0, 0, 0, 0, 0, 0, 0, 0, 0, 0, 0, 0
   \              000000000000
   \              00000000    
   \   00000022   000000000000       DC8 0, 0, 0, 0, 0, 0, 0, 0, 0, 0, 0, 0, 0, 0, 0, 0
   \              000000000000
   \              00000000    
   \   00000032   000000000000       DC8 0, 0, 0, 0, 0, 0, 0, 0, 0, 0, 0, 0, 0, 0, 0, 0
   \              000000000000
   \              00000000    
   \   00000042   000000000000       DC8 0, 0, 0, 0, 0, 0, 0, 0, 0, 0, 0, 0, 0, 0
   \              000000000000
   \              0000        

   \                                 In segment DATA_C, align 4, align-sorted
   \   00000000   000000000000       DC8 0, 0, 0, 0, 0, 0, 0, 0, 0, 0, 0, 0, 0, 0, 0, 0, 0, 0
   \              000000000000
   \              000000000000
   \   00000012   000000000000       DC8 0, 0, 0, 0, 0, 0, 0, 0, 0, 0, 0, 0, 0, 0, 0, 0
   \              000000000000
   \              00000000    
   \   00000022   000000000000       DC8 0, 0, 0, 0, 0, 0, 0, 0, 0, 0, 0, 0, 0, 0, 0, 0
   \              000000000000
   \              00000000    
   \   00000032   000000000000       DC8 0, 0, 0, 0, 0, 0, 0, 0, 0, 0, 0, 0, 0, 0, 0, 0
   \              000000000000
   \              00000000    
   \   00000042   000000000000       DC8 0, 0, 0, 0, 0, 0, 0, 0, 0, 0, 0, 0, 0, 0
   \              000000000000
   \              0000        

   \                                 In segment DATA_C, align 4, align-sorted
   \   00000000   000000000000       DC8 0, 0, 0, 0, 0, 0, 0, 0, 0, 0, 0, 0, 0, 0, 0, 0, 0, 0
   \              000000000000
   \              000000000000
   \   00000012   000000000000       DC8 0, 0, 0, 0, 0, 0, 0, 0, 0, 0, 0, 0, 0, 0, 0, 0
   \              000000000000
   \              00000000    
   \   00000022   000000000000       DC8 0, 0, 0, 0, 0, 0, 0, 0, 0, 0, 0, 0, 0, 0, 0, 0
   \              000000000000
   \              00000000    
   \   00000032   000000000000       DC8 0, 0, 0, 0, 0, 0, 0, 0, 0, 0, 0, 0, 0, 0, 0, 0
   \              000000000000
   \              00000000    
   \   00000042   000000000000       DC8 0, 0, 0, 0, 0, 0, 0, 0, 0, 0, 0, 0, 0, 0
   \              000000000000
   \              0000        

   \                                 In segment DATA_C, align 4, align-sorted
   \                     `?<Constant {(unsigned char __data)'\\000', (uns_3`:
   \   00000000   000100000000       DC8 0, 1, 0, 0, 0, 0, 0, 0, 0, 0, 0, 0, 0, 0, 0, 0, 0, 0
   \              000000000000
   \              000000000000
   \   00000012   000000000000       DC8 0, 0, 0, 0, 0, 0, 0, 0, 0, 0, 0, 0, 0, 0, 0, 0
   \              000000000000
   \              00000000    
   \   00000022   000000000000       DC8 0, 0, 0, 0, 0, 0, 0, 0, 0, 0, 0, 0, 0, 0, 0, 0
   \              000000000000
   \              00000000    
   \   00000032   000000000000       DC8 0, 0, 0, 0, 0, 0, 0, 0, 0, 0, 0, 0, 0, 0, 0, 0
   \              000000000000
   \              00000000    
   \   00000042   000000000000       DC8 0, 0, 0, 0, 0, 0, 0, 0, 0, 0, 0, 0, 0, 0
   \              000000000000
   \              0000        

   \                                 In segment CODE, align 4, keep-with-next
   \   __??Code32?? __code __interwork __atpcs TPCxObject &TPCxObject::new TPCxObject()
   \                     `??new TPCxObject`:
   \   00000000   00402DE9           PUSH     {LR}
   \   00000004   730FA0E3           MOV      R0,#+460
   \   00000008   ........           _BLF     `??operator new`,`??operator new??rA`
   \   0000000C   000050E3           CMP      R0,#+0
   \   00000010   0000000A           BEQ      `??new TPCxObject_2`
   \   00000014   ........           BL       ??TPCxObject
   \                     `??new TPCxObject_2`:
   \   00000018                      REQUIRE ?Subroutine30
   \   00000018                      ;; // Fall through to label ?Subroutine30

   \                                 In segment CODE, align 4, keep-with-next
   \   __??Code32?? __code __interwork __atpcs TPCxObject &TPCxObject::new TPCxObject(int)
   \                     `??new TPCxObject_1`:
   \   00000000   10402DE9           PUSH     {R4,LR}
   \   00000004   0040A0E1           MOV      R4,R0
   \   00000008   730FA0E3           MOV      R0,#+460
   \   0000000C   ........           _BLF     `??operator new`,`??operator new??rA`
   \   00000010   000050E3           CMP      R0,#+0
   \   00000014   0100000A           BEQ      `??new TPCxObject_3`
   \   00000018   0410A0E1           MOV      R1,R4
   \   0000001C   ........           BL       ??TPCxObject_1
   \                     `??new TPCxObject_3`:
   \   00000020   1040BDE8           POP      {R4,LR}
   \   00000024   1EFF2FE1           BX       LR               ;; return

   \                                 In segment CODE, align 4, keep-with-next
   \                     ??DataTable4:
   \   00000000   ........           DC32     ??ObjectSet

   \                                 In segment CODE, align 4, keep-with-next
   \                     ??DataTable5:
   \   00000000   ........           DC32     ??__vtbl

   \                                 In segment CODE, align 4, keep-with-next
   \                     ??DataTable10:
   \   00000000   ........           DC32     CrLfStr

   \                                 In segment CODE, align 4, keep-with-next
   \                     ??DataTable11:
   \   00000000   ........           DC32     ??npos

   \                                 In segment CODE, align 4, keep-with-next
   \                     ??DataTable12:
   \   00000000   ........           DC32     `?<Constant "TPC ">`

   \                                 In segment CODE, align 4, keep-with-next
   \                     ??DataTable13:
   \   00000000   ........           DC32     ??ObjectSet

   \                                 In segment CODE, align 4, keep-with-next
   \                     ??DataTable21:
   \   00000000   ........           DC32     ??npos

   \                                 In segment CODE, align 4, keep-with-next
   \                     ??DataTable22:
   \   00000000   ........           DC32     UnitSema

   \                                 In segment CODE, align 4, keep-with-next
   \                     ??DataTable23:
   \   00000000   ........           DC32     ??set_1
    843          
    844          

   Maximum stack usage in bytes:

     Function                       CSTACK
     --------                       ------
     <Unnamed 0>                        4
     FindtPCx(unsigned char, set<PRogramObjectBase *>)
                                       12
     TPCxObject::AckAlarms()           12
     TPCxObject::AddAlarmWindow(unsigned char *, unsigned short, bool, bool)
                                      244
     TPCxObject::AddExtraWindows(unsigned char *, unsigned short, bool)
                                      164
     TPCxObject::AddGraphs(unsigned char *, unsigned short, bool)
                                       64
     TPCxObject::AddLowerWindow(unsigned char *, unsigned short, bool, int)
                                      160
     TPCxObject::AddUpperWindow(unsigned char *, unsigned short, bool)
                                      236
     TPCxObject::AddWindows(unsigned char *, unsigned short, bool, bool)
                                       28
     TPCxObject::GetLibValueTPCx(int, int, PRogramObjectBase *, int, int, AnsiString *)
                                       56
     TPCxObject::Handle(TSNUart *)    640
     TPCxObject::InitializetPCxSystem()
                                       52
     TPCxObject::Initiate()             0
     TPCxObject::LoadConfigFromFile(TSNConfigString &)
                                      488
     TPCxObject::LoadConfigString(TSNConfigString &)
                                      492
     TPCxObject::MakeAcknowledge(unsigned char *, unsigned short)
                                       96
     TPCxObject::MakeConfigString(int)
                                      928
     TPCxObject::SaveSettings(TSNConfigString *)
                                        0
     TPCxObject::SendtPCxAcknowledge(TSNUart *)
                                      100
     TPCxObject::SetWindow(unsigned char *, unsigned short, unsigned char)
                                       88
     TPCxObject::TPCxObject()          20
     TPCxObject::TPCxObject(int)       24
     TPCxObject::TPCxTask(TSNUart *)
                                        8
     TPCxObject::UnpackPacket(TSNUart *, unsigned char *, int, set<PRogramObjectBase *>)
                                       56
     TPCxObject::WriteConfigToFile(TSNConfigString &)
                                      300
     TPCxObject::new TPCxObject()       4
     TPCxObject::new TPCxObject(int)
                                        8
     TPCxObject::~TPCxObject()         24
     _Tree<_Tset_traits<AlarmBasic *, less<AlarmBasic *>, allocator<AlarmBasic *>, false>>::_Erase(_Tree<_Tset_traits<AlarmBasic *, less<AlarmBasic *>, allocator<AlarmBasic *>, false>>::_Nodeptr)
                                       16
     _Tree<_Tset_traits<AlarmBasic *, less<AlarmBasic *>, allocator<AlarmBasic *>, false>>::_Insert(bool, _Tree<_Tset_traits<AlarmBasic *, less<AlarmBasic *>, allocator<AlarmBasic *>, false>>::_Nodeptr, AlarmBasic *)
                                       24
     _Tree<_Tset_traits<AlarmBasic *, less<AlarmBasic *>, allocator<AlarmBasic *>, false>>::_Lbound(AlarmBasic *) const
                                        0
     _Tree<_Tset_traits<AlarmBasic *, less<AlarmBasic *>, allocator<AlarmBasic *>, false>>::_Ubound(AlarmBasic *) const
                                        0
     _Tree<_Tset_traits<AlarmBasic *, less<AlarmBasic *>, allocator<AlarmBasic *>, false>>::equal_range(AlarmBasic *)
                                       28
     _Tree<_Tset_traits<AlarmBasic *, less<AlarmBasic *>, allocator<AlarmBasic *>, false>>::erase(AlarmBasic *)
                                       24
     _Tree<_Tset_traits<AlarmBasic *, less<AlarmBasic *>, allocator<AlarmBasic *>, false>>::erase(_Tree<_Tset_traits<AlarmBasic *, less<AlarmBasic *>, allocator<AlarmBasic *>, false>>::iterator, _Tree<_Tset_traits<AlarmBasic *, less<AlarmBasic *>, allocator<AlarmBasic *>, false>>::iterator)
                                       20
     _Tree<_Tset_traits<AlarmBasic *, less<AlarmBasic *>, allocator<AlarmBasic *>, false>>::insert(AlarmBasic *)
                                       44
     _Tree<_Tset_traits<PRogramObjectBase *, less<PRogramObjectBase *>, allocator<PRogramObjectBase *>, false>>::_Copy(_Tree<_Tset_traits<PRogramObjectBase *, less<PRogramObjectBase *>, allocator<PRogramObjectBase *>, false>> const &)
                                       12
     _Tree<_Tset_traits<PRogramObjectBase *, less<PRogramObjectBase *>, allocator<PRogramObjectBase *>, false>>::_Copy(_Tree<_Tset_traits<PRogramObjectBase *, less<PRogramObjectBase *>, allocator<PRogramObjectBase *>, false>>::_Nodeptr, _Tree<_Tset_traits<PRogramObjectBase *, less<PRogramObjectBase *>, allocator<PRogramObjectBase *>, false>>::_Nodeptr)
                                       32
     _Tree<_Tset_traits<PRogramObjectBase *, less<PRogramObjectBase *>, allocator<PRogramObjectBase *>, false>>::_Erase(_Tree<_Tset_traits<PRogramObjectBase *, less<PRogramObjectBase *>, allocator<PRogramObjectBase *>, false>>::_Nodeptr)
                                       16
     _Tree<_Tset_traits<PRogramObjectBase *, less<PRogramObjectBase *>, allocator<PRogramObjectBase *>, false>>::_Insert(bool, _Tree<_Tset_traits<PRogramObjectBase *, less<PRogramObjectBase *>, allocator<PRogramObjectBase *>, false>>::_Nodeptr, PRogramObjectBase *)
                                       24
     _Tree<_Tset_traits<PRogramObjectBase *, less<PRogramObjectBase *>, allocator<PRogramObjectBase *>, false>>::clear()
                                        8
     _Tree<_Tset_traits<PRogramObjectBase *, less<PRogramObjectBase *>, allocator<PRogramObjectBase *>, false>>::erase(_Tree<_Tset_traits<PRogramObjectBase *, less<PRogramObjectBase *>, allocator<PRogramObjectBase *>, false>>::iterator, _Tree<_Tset_traits<PRogramObjectBase *, less<PRogramObjectBase *>, allocator<PRogramObjectBase *>, false>>::iterator)
                                       20
     _Tree<_Tset_traits<PRogramObjectBase *, less<PRogramObjectBase *>, allocator<PRogramObjectBase *>, false>>::insert(PRogramObjectBase *)
                                       44
     _Tree_algobase<allocator<void>>::_Clear()
                                        0
     _Tree_algobase<allocator<void>>::_DecP(_Tree_algobase<allocator<void>>::_Genptr)
                                        4
     _Tree_algobase<allocator<void>>::_Erase(_Tree_algobase<allocator<void>>::_Genptr)
                                       32
     _Tree_algobase<allocator<void>>::_IncP(_Tree_algobase<allocator<void>>::_Genptr)
                                        0
     _Tree_algobase<allocator<void>>::_Insert(bool, _Tree_algobase<allocator<void>>::_Genptr, _Tree_algobase<allocator<void>>::_Genptr)
                                       20
     _Tree_algobase<allocator<void>>::_Lrotate(_Tree_algobase<allocator<void>>::_Genptr)
                                        0
     _Tree_algobase<allocator<void>>::_Max(_Tree_algobase<allocator<void>>::_Genptr)
                                        0
     _Tree_algobase<allocator<void>>::_Rrotate(_Tree_algobase<allocator<void>>::_Genptr)
                                        0
     _Vector_impl<int, allocator<int>>::_Insert(int *, int const &)
                                       16
     _Vector_impl<int, allocator<int>>::_Make_room(int *, unsigned int)
                                       32
     _Vector_impl<int, allocator<int>>::_Push_back0(int)
                                        8
     _Vector_impl<int, allocator<int>>::_Tidy0()
                                        4
     __sti__routine()                  12
     operator+(string const &, char const *)
                                       44
     operator+(string const &, string const &)
                                       40
     set<PRogramObjectBase *>::set()
                                       12
     set<PRogramObjectBase *>::set(set<PRogramObjectBase *> const &)
                                       16
     set<PRogramObjectBase *>::~set()
                                        4
     string::c_str() const              0
     string::string(string const &)    12
     vector<int>::~vector()             8


   Segment part sizes:

     Function/Label                 Bytes
     --------------                 -----
     string::string(string const &)   64
     string::c_str() const            24
     _Tree_algobase<allocator<void>>::_Max(_Tree_algobase<allocator<void>>::_Genptr)
                                      28
     _Tree_algobase<allocator<void>>::_DecP(_Tree_algobase<allocator<void>>::_Genptr)
                                      88
     _Tree_algobase<allocator<void>>::_IncP(_Tree_algobase<allocator<void>>::_Genptr)
                                      92
     _Tree_algobase<allocator<void>>::_Clear()
                                      36
     _Tree_algobase<allocator<void>>::_Rrotate(_Tree_algobase<allocator<void>>::_Genptr)
                                      84
     _Tree_algobase<allocator<void>>::_Lrotate(_Tree_algobase<allocator<void>>::_Genptr)
                                      84
     _Tree_algobase<allocator<void>>::_Erase(_Tree_algobase<allocator<void>>::_Genptr)
                                     780
     _Tree_algobase<allocator<void>>::_Insert(bool, _Tree_algobase<allocator<void>>::_Genptr, _Tree_algobase<allocator<void>>::_Genptr)
                                     356
     _Tree<_Tset_traits<AlarmBasic *, less<AlarmBasic *>, allocator<AlarmBasic *>, false>>::insert(AlarmBasic *)
                                     200
     _Tree<_Tset_traits<PRogramObjectBase *, less<PRogramObjectBase *>, allocator<PRogramObjectBase *>, false>>::insert(PRogramObjectBase *)
                                     200
     _Tree<_Tset_traits<PRogramObjectBase *, less<PRogramObjectBase *>, allocator<PRogramObjectBase *>, false>>::erase(_Tree<_Tset_traits<PRogramObjectBase *, less<PRogramObjectBase *>, allocator<PRogramObjectBase *>, false>>::iterator, _Tree<_Tset_traits<PRogramObjectBase *, less<PRogramObjectBase *>, allocator<PRogramObjectBase *>, false>>::iterator)
                                     108
     _Tree<_Tset_traits<AlarmBasic *, less<AlarmBasic *>, allocator<AlarmBasic *>, false>>::erase(_Tree<_Tset_traits<AlarmBasic *, less<AlarmBasic *>, allocator<AlarmBasic *>, false>>::iterator, _Tree<_Tset_traits<AlarmBasic *, less<AlarmBasic *>, allocator<AlarmBasic *>, false>>::iterator)
                                     120
     _Tree<_Tset_traits<AlarmBasic *, less<AlarmBasic *>, allocator<AlarmBasic *>, false>>::erase(AlarmBasic *)
                                      84
     _Tree<_Tset_traits<PRogramObjectBase *, less<PRogramObjectBase *>, allocator<PRogramObjectBase *>, false>>::clear()
                                      32
     _Tree<_Tset_traits<AlarmBasic *, less<AlarmBasic *>, allocator<AlarmBasic *>, false>>::equal_range(AlarmBasic *)
                                      76
     _Tree<_Tset_traits<PRogramObjectBase *, less<PRogramObjectBase *>, allocator<PRogramObjectBase *>, false>>::_Copy(_Tree<_Tset_traits<PRogramObjectBase *, less<PRogramObjectBase *>, allocator<PRogramObjectBase *>, false>> const &)
                                     112
     _Tree<_Tset_traits<PRogramObjectBase *, less<PRogramObjectBase *>, allocator<PRogramObjectBase *>, false>>::_Copy(_Tree<_Tset_traits<PRogramObjectBase *, less<PRogramObjectBase *>, allocator<PRogramObjectBase *>, false>>::_Nodeptr, _Tree<_Tset_traits<PRogramObjectBase *, less<PRogramObjectBase *>, allocator<PRogramObjectBase *>, false>>::_Nodeptr)
                                     148
     _Tree<_Tset_traits<AlarmBasic *, less<AlarmBasic *>, allocator<AlarmBasic *>, false>>::_Erase(_Tree<_Tset_traits<AlarmBasic *, less<AlarmBasic *>, allocator<AlarmBasic *>, false>>::_Nodeptr)
                                      68
     _Tree<_Tset_traits<PRogramObjectBase *, less<PRogramObjectBase *>, allocator<PRogramObjectBase *>, false>>::_Erase(_Tree<_Tset_traits<PRogramObjectBase *, less<PRogramObjectBase *>, allocator<PRogramObjectBase *>, false>>::_Nodeptr)
                                      68
     _Tree<_Tset_traits<AlarmBasic *, less<AlarmBasic *>, allocator<AlarmBasic *>, false>>::_Insert(bool, _Tree<_Tset_traits<AlarmBasic *, less<AlarmBasic *>, allocator<AlarmBasic *>, false>>::_Nodeptr, AlarmBasic *)
                                      96
     _Tree<_Tset_traits<PRogramObjectBase *, less<PRogramObjectBase *>, allocator<PRogramObjectBase *>, false>>::_Insert(bool, _Tree<_Tset_traits<PRogramObjectBase *, less<PRogramObjectBase *>, allocator<PRogramObjectBase *>, false>>::_Nodeptr, PRogramObjectBase *)
                                      96
     _Tree<_Tset_traits<AlarmBasic *, less<AlarmBasic *>, allocator<AlarmBasic *>, false>>::_Lbound(AlarmBasic *) const
                                      40
     _Tree<_Tset_traits<AlarmBasic *, less<AlarmBasic *>, allocator<AlarmBasic *>, false>>::_Ubound(AlarmBasic *) const
                                      40
     set<PRogramObjectBase *>::set(set<PRogramObjectBase *> const &)
                                      48
     set<PRogramObjectBase *>::~set()
                                      16
     set<PRogramObjectBase *>::set()
                                      48
     _Vector_impl<int, allocator<int>>::_Tidy0()
                                      36
     _Vector_impl<int, allocator<int>>::_Insert(int *, int const &)
                                      72
     _Vector_impl<int, allocator<int>>::_Make_room(int *, unsigned int)
                                     232
     _Vector_impl<int, allocator<int>>::_Push_back0(int)
                                      72
     vector<int>::~vector()           36
     operator+(string const &, string const &)
                                      88
     operator+(string const &, char const *)
                                      92
     __sti__routine()                 88
     ?_0                              36
     TPCxObject::ObjectSet           421
     TPCxObject::TPCxObject()        100
     TPCxObject::TPCxObject(int)     108
     TPCxObject::Initiate()           84
     TPCxObject::~TPCxObject()       160
     TPCxObject::MakeConfigString(int)
                                    1356
     TPCxObject::LoadConfigString(TSNConfigString &)
                                    1136
     ?Subroutine31                     8
     TPCxObject::WriteConfigToFile(TSNConfigString &)
                                     444
     ?Subroutine32                     8
     TPCxObject::LoadConfigFromFile(TSNConfigString &)
                                    1032
     TPCxObject::SaveSettings(TSNConfigString *)
                                       4
     FindtPCx(unsigned char, set<PRogramObjectBase *>)
                                      56
     ?Subroutine29                     8
     TPCxObject::InitializetPCxSystem()
                                     200
     TPCxObject::AddAlarmWindow(unsigned char *, unsigned short, bool, bool)
                                    1240
     ?Subroutine33                     8
     TPCxObject::AddExtraWindows(unsigned char *, unsigned short, bool)
                                     292
     TPCxObject::AddLowerWindow(unsigned char *, unsigned short, bool, int)
                                     364
     TPCxObject::AddUpperWindow(unsigned char *, unsigned short, bool)
                                     520
     TPCxObject::AddGraphs(unsigned char *, unsigned short, bool)
                                     444
     TPCxObject::AddWindows(unsigned char *, unsigned short, bool, bool)
                                     448
     ?Subroutine30                     8
     TPCxObject::SetWindow(unsigned char *, unsigned short, unsigned char)
                                      60
     TPCxObject::AckAlarms()         120
     TPCxObject::UnpackPacket(TSNUart *, unsigned char *, int, set<PRogramObjectBase *>)
                                     276
     TPCxObject::MakeAcknowledge(unsigned char *, unsigned short)
                                      88
     TPCxObject::SendtPCxAcknowledge(TSNUart *)
                                     140
     TPCxObject::Handle(TSNUart *)   524
     TPCxObject::TPCxTask(TSNUart *)
                                      52
     TPCxObject::GetLibValueTPCx(int, int, PRogramObjectBase *, int, int, AnsiString *)
                                     152
     ??DataTable1                      4
     ?<Unnamed 0>                     36
     ?<Constant "TPC ">                8
     ?<Constant "-">                   2
     ?<Constant "_">                   2
     ?<Constant "0x%0x">               8
     ?<Constant "">                    1
     ?<Constant "OK">                  3
     ?<Constant "***">                 4
     ?<Constant {(unsigned char __data)'\000', (uns
                                      80
     ?<Constant {(unsigned char __data)'\000', (uns_1
                                      80
     ?<Constant {(unsigned char __data)'\000', (uns_2
                                      80
     ?<Constant {(unsigned char __data)'\000', (uns_3
                                      80
     TPCxObject::new TPCxObject()     24
     TPCxObject::new TPCxObject(int)
                                      40
     ??DataTable4                      4
     ??DataTable5                      4
     ??DataTable10                     4
     ??DataTable11                     4
     ??DataTable12                     4
     ??DataTable13                     4
     ??DataTable21                     4
     ??DataTable22                     4
     ??DataTable23                     4
      Others                        1404

 
 14 784 bytes in segment CODE
    508 bytes in segment DATA_C
    433 bytes in segment DATA_Z
      4 bytes in segment DIFUNCT
     12 bytes in segment INITTAB
 
 9 672 bytes of CODE  memory (+ 5 128 bytes shared)
   508 bytes of CONST memory
   433 bytes of DATA  memory

Errors: none
Warnings: none
