##############################################################################
#                                                                            #
# IAR ARM ANSI C/C++ Compiler V4.42A/W32               14/Sep/2022  15:19:24 #
# Copyright 1999-2005 IAR Systems. All rights reserved.                      #
#                                                                            #
#    Cpu mode        =  interwork                                            #
#    Endian          =  little                                               #
#    Stack alignment =  4                                                    #
#    Source file     =  D:\S2Prog\Shared\Src\TSNConfigInfo.cpp               #
#    Command line    =  D:\S2Prog\Shared\Src\TSNConfigInfo.cpp --fpu None    #
#                       -D OS_LIBMODE_SP -D CPU_S3C2410 -D OS_RAMVECT=0 -D   #
#                       OS_UART=-1 -D S2TXU -D USE_LZO=1 -D __ARM_LIBRARY__  #
#                       -D WATCHDOG=1 -D NETWORK=1 -lCN                      #
#                       D:\S2Prog\TXU\Debug\List\ -o                         #
#                       D:\S2Prog\TXU\Debug\Obj\ -z9 --debug --cpu_mode arm  #
#                       --endian little --cpu ARM920T --stack_align 4        #
#                       --interwork -e --enable_multibytes --eec++           #
#                       --dlib_config "C:\Program Files (x86)\IAR            #
#                       Systems\Embedded Workbench                           #
#                       4.0\arm\LIB\dl4tpainl8n.h" -I                        #
#                       D:\S2Prog\TXU\GUI\CORE\ -I D:\S2Prog\TXU\GUI\WM\ -I  #
#                       D:\S2Prog\TXU\GUI\WIDGET\ -I D:\S2Prog\TXU\CONFIG\   #
#                       -I D:\S2Prog\TXU\INC\ -I D:\S2Prog\TXU\..\SHARED\INC #
#                       \ -I D:\S2Prog\TXU\..\SHARED\SRC\ -I                 #
#                       D:\S2Prog\TXU\..\SHARED\LZO\minilzo.210\ -I          #
#                       D:\S2Prog\TXU\lwip-1.4.1\src\include\ -I             #
#                       D:\S2Prog\TXU\lwip-1.4.1\src\include\ipv4\ -I        #
#                       D:\S2Prog\TXU\lwip-1.4.1\src\ -I                     #
#                       D:\S2Prog\TXU\..\SHARED\Database\ -I                 #
#                       D:\S2Prog\TXU\src\ -I "C:\Program Files (x86)\IAR    #
#                       Systems\Embedded Workbench 4.0\arm\INC\"             #
#                       --inline_threshold=2                                 #
#    List file       =  D:\S2Prog\TXU\Debug\List\TSNConfigInfo.lst           #
#    Object file     =  D:\S2Prog\TXU\Debug\Obj\TSNConfigInfo.r79            #
#                                                                            #
#                                                                            #
##############################################################################

D:\S2Prog\Shared\Src\TSNConfigInfo.cpp
      1          #include "TSNIncludes.h"

   \                                 In segment CODE, align 4, keep-with-next
   \   __??Code32?? __code __interwork __atpcs string::string(string const &)
   \                     ??string:
   \   00000000   30402DE9           PUSH     {R4,R5,LR}
   \   00000004   0040A0E1           MOV      R4,R0
   \   00000008   0150A0E1           MOV      R5,R1
   \   0000000C   0020A0E3           MOV      R2,#+0
   \   00000010   0010A0E3           MOV      R1,#+0
   \   00000014   ........           _BLF     ??_Tidy,??_Tidy??rA
   \   00000018   1C009FE5           LDR      R0,??string_1    ;; ??npos
   \   0000001C   0020A0E3           MOV      R2,#+0
   \   00000020   003090E5           LDR      R3,[R0, #+0]
   \   00000024   0510A0E1           MOV      R1,R5
   \   00000028   0400A0E1           MOV      R0,R4
   \   0000002C   ........           _BLF     ??assign,??assign??rA
   \   00000030   0400A0E1           MOV      R0,R4
   \   00000034   3040BDE8           POP      {R4,R5,LR}
   \   00000038   1EFF2FE1           BX       LR               ;; return
   \                     ??string_1:
   \   0000003C   ........           DC32     ??npos

   \                                 In segment CODE, align 4, keep-with-next
   \   __??Code32?? __code __interwork __atpcs void operator+(string const &, string const &)
   \                     `??operator+`:
   \   00000000   30402DE9           PUSH     {R4,R5,LR}
   \   00000004   1CD04DE2           SUB      SP,SP,#+28
   \   00000008   0040A0E1           MOV      R4,R0
   \   0000000C   0250A0E1           MOV      R5,R2
   \   00000010   0D00A0E1           MOV      R0,SP
   \   00000014   ........           _BLF     ??string,??string??rA
   \   00000018   34109FE5           LDR      R1,`??operator+_2`  ;; ??npos
   \   0000001C   0020A0E3           MOV      R2,#+0
   \   00000020   003091E5           LDR      R3,[R1, #+0]
   \   00000024   0510A0E1           MOV      R1,R5
   \   00000028   ........           _BLF     ??append,??append??rA
   \   0000002C   0010A0E1           MOV      R1,R0
   \   00000030   0400A0E1           MOV      R0,R4
   \   00000034   ........           _BLF     ??string,??string??rA
   \   00000038   0020A0E3           MOV      R2,#+0
   \   0000003C   0110A0E3           MOV      R1,#+1
   \   00000040   0D00A0E1           MOV      R0,SP
   \   00000044   ........           _BLF     ??_Tidy,??_Tidy??rA
   \   00000048   1CD08DE2           ADD      SP,SP,#+28
   \   0000004C   3040BDE8           POP      {R4,R5,LR}
   \   00000050   1EFF2FE1           BX       LR               ;; return
   \                     `??operator+_2`:
   \   00000054   ........           DC32     ??npos

   \                                 In segment CODE, align 4, keep-with-next
   \   __??Code32?? __code __interwork __atpcs void operator+(string const &, char const *)
   \                     `??operator+_1`:
   \   00000000   70402DE9           PUSH     {R4-R6,LR}
   \   00000004   1CD04DE2           SUB      SP,SP,#+28
   \   00000008   0040A0E1           MOV      R4,R0
   \   0000000C   0250A0E1           MOV      R5,R2
   \   00000010   0D00A0E1           MOV      R0,SP
   \   00000014   ........           _BLF     ??string,??string??rA
   \   00000018   0060A0E1           MOV      R6,R0
   \   0000001C   0500A0E1           MOV      R0,R5
   \   00000020   ........           _BLF     strlen,??strlen??rA
   \   00000024   0020A0E1           MOV      R2,R0
   \   00000028   0510A0E1           MOV      R1,R5
   \   0000002C   0600A0E1           MOV      R0,R6
   \   00000030   ........           _BLF     ??append_1,??append??rA_1
   \   00000034   0010A0E1           MOV      R1,R0
   \   00000038   0400A0E1           MOV      R0,R4
   \   0000003C   ........           _BLF     ??string,??string??rA
   \   00000040   0020A0E3           MOV      R2,#+0
   \   00000044   0110A0E3           MOV      R1,#+1
   \   00000048   0D00A0E1           MOV      R0,SP
   \   0000004C   ........           _BLF     ??_Tidy,??_Tidy??rA
   \   00000050   1CD08DE2           ADD      SP,SP,#+28
   \   00000054   7040BDE8           POP      {R4-R6,LR}
   \   00000058   1EFF2FE1           BX       LR               ;; return
      2          #pragma hdrstop
      3          #include "TSNVersion.h"

   \                                 In segment DATA_Z, align 4, align-sorted
      4          TSNConfigInfo   *TSNConfigInfo::ConfigInfoPtr=NULL;
   \                     ??ConfigInfoPtr:
   \   00000000                      DS8 4

   \                                 In segment DATA_Z, align 1, align-sorted
      5          volatile bool TSNConfigInfo::HasConfigWritePermission = false;
   \                     ??HasConfigWritePermission:
   \   00000000                      DS8 1
      6          
      7          //---------------------------------------------------------------------------

   \                                 In segment CODE, align 4, keep-with-next
      8          TSNConfigInfo::TSNConfigInfo(void)
   \                     ??TSNConfigInfo:
   \   00000000   F0402DE9           PUSH     {R4-R7,LR}
   \   00000004   70D04DE2           SUB      SP,SP,#+112
   \   00000008   0040A0E1           MOV      R4,R0
      9          {
   \   0000000C   140084E2           ADD      R0,R4,#+20
   \   00000010   ........           _BLF     ??AnsiString,??AnsiString??rA
   \   00000014   300084E2           ADD      R0,R4,#+48
   \   00000018   ........           _BLF     ??AnsiString,??AnsiString??rA
   \   0000001C   505FA0E3           MOV      R5,#+320
   \   00000020   040085E0           ADD      R0,R5,R4
   \   00000024   ........           _BLF     ??AnsiString,??AnsiString??rA
   \   00000028   576FA0E3           MOV      R6,#+348
   \   0000002C   040086E0           ADD      R0,R6,R4
   \   00000030   ........           _BLF     ??AnsiString,??AnsiString??rA
   \   00000034   5E0F84E2           ADD      R0,R4,#+376
   \   00000038   ........           _BLF     ??AnsiString,??AnsiString??rA
   \   0000003C   650F84E2           ADD      R0,R4,#+404
   \   00000040   ........           _BLF     ??AnsiString,??AnsiString??rA
     10              ConfigInfoPtr           = this;
   \   00000044   ........           LDR      R0,??DataTable2  ;; ??ConfigInfoPtr
     11              PrevProdNo              = 0;
     12              PrevPacket              = 0;
     13              PrevConfigNewFunc       = 0;
     14              PrevConfigBugFix        = 0;
     15              ConfigCompatibilityNo   = 0;
     16              PrevConfigDataRevision  = 0;
     17              PrevConfigRevisePerson  = "NN";
   \   00000048   3C1F8FE2           ADR      R1,??TSNConfigInfo_1  ;; "NN"
   \   0000004C   004080E5           STR      R4,[R0, #+0]
   \   00000050   0000A0E3           MOV      R0,#+0
   \   00000054   000084E5           STR      R0,[R4, #+0]
   \   00000058   040084E5           STR      R0,[R4, #+4]
   \   0000005C   080084E5           STR      R0,[R4, #+8]
   \   00000060   0C0084E5           STR      R0,[R4, #+12]
   \   00000064   100084E5           STR      R0,[R4, #+16]
   \   00000068   3C0184E5           STR      R0,[R4, #+316]
   \   0000006C   1C008DE2           ADD      R0,SP,#+28
   \   00000070   ........           _BLF     ??AnsiString_1,??AnsiString??rA_1
   \   00000074   ........           LDR      R1,??DataTable8  ;; ??npos
   \   00000078   0020A0E3           MOV      R2,#+0
   \   0000007C   007091E5           LDR      R7,[R1, #+0]
   \   00000080   0010A0E1           MOV      R1,R0
   \   00000084   040085E0           ADD      R0,R5,R4
     18              PrevConfigRevisionText  = "Comments for previous changes of congfiguration.";
   \   00000088   B4509FE5           LDR      R5,??TSNConfigInfo_1+0x4  ;; `?<Constant "Comments for previous...">`
   \   0000008C   0730A0E1           MOV      R3,R7
   \   00000090   ........           _BLF     ??assign,??assign??rA
   \   00000094   0020A0E3           MOV      R2,#+0
   \   00000098   0110A0E3           MOV      R1,#+1
   \   0000009C   1C008DE2           ADD      R0,SP,#+28
   \   000000A0   ........           _BLF     ??_Tidy,??_Tidy??rA
   \   000000A4   0510A0E1           MOV      R1,R5
   \   000000A8   38008DE2           ADD      R0,SP,#+56
   \   000000AC   ........           _BLF     ??AnsiString_1,??AnsiString??rA_1
   \   000000B0   0010A0E1           MOV      R1,R0
   \   000000B4   0730A0E1           MOV      R3,R7
   \   000000B8   0020A0E3           MOV      R2,#+0
   \   000000BC   040086E0           ADD      R0,R6,R4
   \   000000C0   ........           _BLF     ??assign,??assign??rA
   \   000000C4   0020A0E3           MOV      R2,#+0
   \   000000C8   0110A0E3           MOV      R1,#+1
   \   000000CC   38008DE2           ADD      R0,SP,#+56
   \   000000D0   ........           _BLF     ??_Tidy,??_Tidy??rA
     19              CurrentDate             = TSNDate();
   \   000000D4   0D00A0E1           MOV      R0,SP
   \   000000D8   ........           _BLF     ??TSNDate,??TSNDate??rA
   \   000000DC   0730A0E1           MOV      R3,R7
   \   000000E0   0020A0E3           MOV      R2,#+0
   \   000000E4   0D10A0E1           MOV      R1,SP
   \   000000E8   300084E2           ADD      R0,R4,#+48
   \   000000EC   ........           _BLF     ??assign,??assign??rA
   \   000000F0   0020A0E3           MOV      R2,#+0
   \   000000F4   0110A0E3           MOV      R1,#+1
   \   000000F8   0D00A0E1           MOV      R0,SP
   \   000000FC   ........           _BLF     ??_Tidy,??_Tidy??rA
     20              PrevDate                = "00.00.0000";
   \   00000100   341085E2           ADD      R1,R5,#+52
   \   00000104   54008DE2           ADD      R0,SP,#+84
   \   00000108   ........           _BLF     ??AnsiString_1,??AnsiString??rA_1
   \   0000010C   0730A0E1           MOV      R3,R7
   \   00000110   0020A0E3           MOV      R2,#+0
   \   00000114   0010A0E1           MOV      R1,R0
   \   00000118   140084E2           ADD      R0,R4,#+20
   \   0000011C   ........           _BLF     ??assign,??assign??rA
   \   00000120   0020A0E3           MOV      R2,#+0
   \   00000124   0110A0E3           MOV      R1,#+1
   \   00000128   54008DE2           ADD      R0,SP,#+84
   \   0000012C   ........           _BLF     ??_Tidy,??_Tidy??rA
     21          }
   \   00000130   0400A0E1           MOV      R0,R4
   \   00000134   70D08DE2           ADD      SP,SP,#+112
   \   00000138   F040BDE8           POP      {R4-R7,LR}
   \   0000013C   1EFF2FE1           BX       LR               ;; return
   \                     ??TSNConfigInfo_1:
   \   00000140   4E4E0000           DC8      "NN",+0
   \   00000144   ........           DC32     `?<Constant "Comments for previous...">`
     22          

   \                                 In segment CODE, align 4, keep-with-next
     23          TSNConfigInfo::~TSNConfigInfo(void)
     24          {
   \                     `?~TSNConfigInfo`:
   \   00000000   10402DE9           PUSH     {R4,LR}
   \   00000004   0040A0E1           MOV      R4,R0
     25              ConfigInfoPtr = NULL;
   \   00000008   ........           LDR      R0,??DataTable2  ;; ??ConfigInfoPtr
   \   0000000C   0010A0E3           MOV      R1,#+0
   \   00000010   001080E5           STR      R1,[R0, #+0]
     26          }
   \   00000014   0020A0E3           MOV      R2,#+0
   \   00000018   0110A0E3           MOV      R1,#+1
   \   0000001C   650F84E2           ADD      R0,R4,#+404
   \   00000020   ........           _BLF     ??_Tidy,??_Tidy??rA
   \   00000024   0020A0E3           MOV      R2,#+0
   \   00000028   0110A0E3           MOV      R1,#+1
   \   0000002C   5E0F84E2           ADD      R0,R4,#+376
   \   00000030   ........           _BLF     ??_Tidy,??_Tidy??rA
   \   00000034   0020A0E3           MOV      R2,#+0
   \   00000038   0110A0E3           MOV      R1,#+1
   \   0000003C   570F84E2           ADD      R0,R4,#+348
   \   00000040   ........           _BLF     ??_Tidy,??_Tidy??rA
   \   00000044   0020A0E3           MOV      R2,#+0
   \   00000048   0110A0E3           MOV      R1,#+1
   \   0000004C   500F84E2           ADD      R0,R4,#+320
   \   00000050   ........           _BLF     ??_Tidy,??_Tidy??rA
   \   00000054   0020A0E3           MOV      R2,#+0
   \   00000058   0110A0E3           MOV      R1,#+1
   \   0000005C   300084E2           ADD      R0,R4,#+48
   \   00000060   ........           _BLF     ??_Tidy,??_Tidy??rA
   \   00000064   0020A0E3           MOV      R2,#+0
   \   00000068   0110A0E3           MOV      R1,#+1
   \   0000006C   140084E2           ADD      R0,R4,#+20
   \   00000070   ........           _BLF     ??_Tidy,??_Tidy??rA
   \   00000074                      REQUIRE ?Subroutine7
   \   00000074                      ;; // Fall through to label ?Subroutine7

   \                                 In segment CODE, align 4, keep-with-next
   \                     ?Subroutine7:
   \   00000000   1040BDE8           POP      {R4,LR}
   \   00000004   1EFF2FE1           BX       LR               ;; return
     27          //---------------------------------------------------------------------------
     28          

   \                                 In segment CODE, align 4, keep-with-next
     29          void TSNConfigInfo::WriteConfigToFile(TSNConfigString &ConfigString)
     30          {
   \                     ??WriteConfigToFile:
   \   00000000   F0472DE9           PUSH     {R4-R10,LR}
     31          
     32              AnsiString LocalString;
     33              LocalString +=KeyWord(C_CONFIG_INFO)+CrLfStr;
   \   00000004   10679FE5           LDR      R6,??WriteConfigToFile_1  ;; CrLfStr
   \   00000008   4DDE4DE2           SUB      SP,SP,#+1232
   \   0000000C   0040A0E1           MOV      R4,R0
   \   00000010   0150A0E1           MOV      R5,R1
     34              if ( HasConfigWritePermission ) {
   \   00000014   04879FE5           LDR      R8,??WriteConfigToFile_1+0x4  ;; TabStr1
   \   00000018   0D00A0E1           MOV      R0,SP
   \   0000001C   ........           _BLF     ??AnsiString,??AnsiString??rA
   \   00000020   F110A0E3           MOV      R1,#+241
   \   00000024   C01F81E3           ORR      R1,R1,#0x300
   \   00000028   70008DE2           ADD      R0,SP,#+112
   \   0000002C   ........           _BLF     ??KeyWord,??KeyWord??rA
   \   00000030   0620A0E1           MOV      R2,R6
   \   00000034   70108DE2           ADD      R1,SP,#+112
   \   00000038   54008DE2           ADD      R0,SP,#+84
   \   0000003C   ........           _BLF     `??operator+`,`??operator+??rA`
   \   00000040   ........           LDR      R0,??DataTable8  ;; ??npos
   \   00000044   0020A0E3           MOV      R2,#+0
   \   00000048   007090E5           LDR      R7,[R0, #+0]
   \   0000004C   54108DE2           ADD      R1,SP,#+84
   \   00000050   0730A0E1           MOV      R3,R7
   \   00000054   0D00A0E1           MOV      R0,SP
   \   00000058   ........           _BLF     ??append,??append??rA
   \   0000005C   0020A0E3           MOV      R2,#+0
   \   00000060   0110A0E3           MOV      R1,#+1
   \   00000064   54008DE2           ADD      R0,SP,#+84
   \   00000068   ........           _BLF     ??_Tidy,??_Tidy??rA
   \   0000006C   0020A0E3           MOV      R2,#+0
   \   00000070   0110A0E3           MOV      R1,#+1
   \   00000074   70008DE2           ADD      R0,SP,#+112
   \   00000078   ........           _BLF     ??_Tidy,??_Tidy??rA
   \   0000007C   ........           LDR      R0,??DataTable5  ;; ??HasConfigWritePermission
   \   00000080   0000D0E5           LDRB     R0,[R0, #+0]
   \   00000084   000050E3           CMP      R0,#+0
   \   00000088   1400000A           BEQ      ??WriteConfigToFile_2
     35                  LocalString +=TabStr1+KeyWord(C_CONFIG_CAN_WRITE);
   \   0000008C   1F10A0E3           MOV      R1,#+31
   \   00000090   701E81E3           ORR      R1,R1,#0x700
   \   00000094   38008DE2           ADD      R0,SP,#+56
   \   00000098   ........           _BLF     ??KeyWord,??KeyWord??rA
   \   0000009C   38208DE2           ADD      R2,SP,#+56
   \   000000A0   0810A0E1           MOV      R1,R8
   \   000000A4   1C008DE2           ADD      R0,SP,#+28
   \   000000A8   ........           _BLF     `??operator+`,`??operator+??rA`
   \   000000AC   0730A0E1           MOV      R3,R7
   \   000000B0   0020A0E3           MOV      R2,#+0
   \   000000B4   1C108DE2           ADD      R1,SP,#+28
   \   000000B8   0D00A0E1           MOV      R0,SP
   \   000000BC   ........           _BLF     ??append,??append??rA
   \   000000C0   0020A0E3           MOV      R2,#+0
   \   000000C4   0110A0E3           MOV      R1,#+1
   \   000000C8   1C008DE2           ADD      R0,SP,#+28
   \   000000CC   ........           _BLF     ??_Tidy,??_Tidy??rA
   \   000000D0   0020A0E3           MOV      R2,#+0
   \   000000D4   0110A0E3           MOV      R1,#+1
   \   000000D8   38008DE2           ADD      R0,SP,#+56
   \   000000DC   ........           _BLF     ??_Tidy,??_Tidy??rA
     36              }
     37              LocalString +=TabStr1+KeyWord(C_CONFIG_VERSION);
   \                     ??WriteConfigToFile_2:
   \   000000E0   0910A0E3           MOV      R1,#+9
   \   000000E4   701E81E3           ORR      R1,R1,#0x700
   \   000000E8   A8008DE2           ADD      R0,SP,#+168
   \   000000EC   ........           _BLF     ??KeyWord,??KeyWord??rA
   \   000000F0   A8208DE2           ADD      R2,SP,#+168
   \   000000F4   0810A0E1           MOV      R1,R8
   \   000000F8   8C008DE2           ADD      R0,SP,#+140
   \   000000FC   ........           _BLF     `??operator+`,`??operator+??rA`
   \   00000100   0730A0E1           MOV      R3,R7
   \   00000104   0020A0E3           MOV      R2,#+0
   \   00000108   8C108DE2           ADD      R1,SP,#+140
   \   0000010C   0D00A0E1           MOV      R0,SP
   \   00000110   ........           _BLF     ??append,??append??rA
   \   00000114   0020A0E3           MOV      R2,#+0
   \   00000118   0110A0E3           MOV      R1,#+1
   \   0000011C   8C008DE2           ADD      R0,SP,#+140
   \   00000120   ........           _BLF     ??_Tidy,??_Tidy??rA
   \   00000124   0020A0E3           MOV      R2,#+0
   \   00000128   0110A0E3           MOV      R1,#+1
   \   0000012C   A8008DE2           ADD      R0,SP,#+168
   \   00000130   ........           _BLF     ??_Tidy,??_Tidy??rA
     38              LocalString +=TabStr1+(AnsiString)VERSION_PROD_NO;
   \   00000134   0210A0E3           MOV      R1,#+2
   \   00000138   0C008DE2           ADD      R0,SP,#+12
   \   0000013C   400E80E2           ADD      R0,R0,#+1024
   \   00000140   ........           _BLF     ??AnsiString_2,??AnsiString??rA_2
   \   00000144   0020A0E1           MOV      R2,R0
   \   00000148   0810A0E1           MOV      R1,R8
   \   0000014C   C4008DE2           ADD      R0,SP,#+196
   \   00000150   ........           _BLF     `??operator+`,`??operator+??rA`
   \   00000154   0730A0E1           MOV      R3,R7
   \   00000158   0020A0E3           MOV      R2,#+0
   \   0000015C   C4108DE2           ADD      R1,SP,#+196
   \   00000160   0D00A0E1           MOV      R0,SP
   \   00000164   ........           _BLF     ??append,??append??rA
   \   00000168   0020A0E3           MOV      R2,#+0
   \   0000016C   0110A0E3           MOV      R1,#+1
   \   00000170   C4008DE2           ADD      R0,SP,#+196
   \   00000174   ........           _BLF     ??_Tidy,??_Tidy??rA
   \   00000178   0020A0E3           MOV      R2,#+0
   \   0000017C   0110A0E3           MOV      R1,#+1
   \   00000180   0C008DE2           ADD      R0,SP,#+12
   \   00000184   400E80E2           ADD      R0,R0,#+1024
   \   00000188   ........           _BLF     ??_Tidy,??_Tidy??rA
     39              LocalString +=TabStr1+(AnsiString)VERSION_PACKET;
   \   0000018C   0E10A0E3           MOV      R1,#+14
   \   00000190   28008DE2           ADD      R0,SP,#+40
   \   00000194   400E80E2           ADD      R0,R0,#+1024
   \   00000198   ........           _BLF     ??AnsiString_2,??AnsiString??rA_2
   \   0000019C   0020A0E1           MOV      R2,R0
   \   000001A0   0810A0E1           MOV      R1,R8
   \   000001A4   E0008DE2           ADD      R0,SP,#+224
   \   000001A8   ........           _BLF     `??operator+`,`??operator+??rA`
   \   000001AC   0730A0E1           MOV      R3,R7
   \   000001B0   0020A0E3           MOV      R2,#+0
   \   000001B4   E0108DE2           ADD      R1,SP,#+224
   \   000001B8   0D00A0E1           MOV      R0,SP
   \   000001BC   ........           _BLF     ??append,??append??rA
   \   000001C0   0020A0E3           MOV      R2,#+0
   \   000001C4   0110A0E3           MOV      R1,#+1
   \   000001C8   E0008DE2           ADD      R0,SP,#+224
   \   000001CC   ........           _BLF     ??_Tidy,??_Tidy??rA
   \   000001D0   0020A0E3           MOV      R2,#+0
   \   000001D4   0110A0E3           MOV      R1,#+1
   \   000001D8   28008DE2           ADD      R0,SP,#+40
   \   000001DC   400E80E2           ADD      R0,R0,#+1024
   \   000001E0   ........           _BLF     ??_Tidy,??_Tidy??rA
     40              LocalString +=TabStr1+(AnsiString)VERSION_CONFIG_NEW_FUNC;
   \   000001E4   0310A0E3           MOV      R1,#+3
   \   000001E8   44008DE2           ADD      R0,SP,#+68
   \   000001EC   400E80E2           ADD      R0,R0,#+1024
   \   000001F0   ........           _BLF     ??AnsiString_2,??AnsiString??rA_2
   \   000001F4   0020A0E1           MOV      R2,R0
   \   000001F8   0810A0E1           MOV      R1,R8
   \   000001FC   FC008DE2           ADD      R0,SP,#+252
   \   00000200   ........           _BLF     `??operator+`,`??operator+??rA`
   \   00000204   0730A0E1           MOV      R3,R7
   \   00000208   0020A0E3           MOV      R2,#+0
   \   0000020C   FC108DE2           ADD      R1,SP,#+252
   \   00000210   0D00A0E1           MOV      R0,SP
   \   00000214   ........           _BLF     ??append,??append??rA
   \   00000218   0020A0E3           MOV      R2,#+0
   \   0000021C   0110A0E3           MOV      R1,#+1
   \   00000220   FC008DE2           ADD      R0,SP,#+252
   \   00000224   ........           _BLF     ??_Tidy,??_Tidy??rA
   \   00000228   0020A0E3           MOV      R2,#+0
   \   0000022C   0110A0E3           MOV      R1,#+1
   \   00000230   44008DE2           ADD      R0,SP,#+68
   \   00000234   400E80E2           ADD      R0,R0,#+1024
   \   00000238   ........           _BLF     ??_Tidy,??_Tidy??rA
     41              LocalString +=TabStr1+(AnsiString)VERSION_CONFIG_BUG_FIX;
   \   0000023C   0010A0E3           MOV      R1,#+0
   \   00000240   460E8DE2           ADD      R0,SP,#+1120
   \   00000244   ........           _BLF     ??AnsiString_2,??AnsiString??rA_2
   \   00000248   0020A0E1           MOV      R2,R0
   \   0000024C   0810A0E1           MOV      R1,R8
   \   00000250   460F8DE2           ADD      R0,SP,#+280
   \   00000254   ........           _BLF     `??operator+`,`??operator+??rA`
   \   00000258   0730A0E1           MOV      R3,R7
   \   0000025C   0020A0E3           MOV      R2,#+0
   \   00000260   461F8DE2           ADD      R1,SP,#+280
   \   00000264   0D00A0E1           MOV      R0,SP
   \   00000268   ........           _BLF     ??append,??append??rA
   \   0000026C   0020A0E3           MOV      R2,#+0
   \   00000270   0110A0E3           MOV      R1,#+1
   \   00000274   460F8DE2           ADD      R0,SP,#+280
   \   00000278   ........           _BLF     ??_Tidy,??_Tidy??rA
   \   0000027C   0020A0E3           MOV      R2,#+0
   \   00000280   0110A0E3           MOV      R1,#+1
   \   00000284   460E8DE2           ADD      R0,SP,#+1120
   \   00000288   ........           _BLF     ??_Tidy,??_Tidy??rA
     42              LocalString += CrLfStr;
   \   0000028C   0730A0E1           MOV      R3,R7
   \   00000290   0020A0E3           MOV      R2,#+0
   \   00000294   0610A0E1           MOV      R1,R6
   \   00000298   0D00A0E1           MOV      R0,SP
   \   0000029C   ........           _BLF     ??append,??append??rA
     43              LocalString +=TabStr2+KeyWord(C_CONFIG_DATE) + " "+(AnsiString)CurrentDate+CrLfStr;;
   \   000002A0   301084E2           ADD      R1,R4,#+48
   \   000002A4   700F8DE2           ADD      R0,SP,#+448
   \   000002A8   ........           _BLF     ??string,??string??rA
   \   000002AC   1210A0E3           MOV      R1,#+18
   \   000002B0   701E81E3           ORR      R1,R1,#0x700
   \   000002B4   690F8DE2           ADD      R0,SP,#+420
   \   000002B8   ........           _BLF     ??KeyWord,??KeyWord??rA
   \   000002BC   60149FE5           LDR      R1,??WriteConfigToFile_1+0x8  ;; TabStr2
   \   000002C0   692F8DE2           ADD      R2,SP,#+420
   \   000002C4   620F8DE2           ADD      R0,SP,#+392
   \   000002C8   ........           _BLF     `??operator+`,`??operator+??rA`
   \   000002CC   F29F8FE2           ADR      R9,??WriteConfigToFile_3  ;; " "
   \   000002D0   0920A0E1           MOV      R2,R9
   \   000002D4   621F8DE2           ADD      R1,SP,#+392
   \   000002D8   5B0F8DE2           ADD      R0,SP,#+364
   \   000002DC   ........           _BLF     `??operator+_1`,`??operator+??rA_1`
   \   000002E0   702F8DE2           ADD      R2,SP,#+448
   \   000002E4   5B1F8DE2           ADD      R1,SP,#+364
   \   000002E8   540F8DE2           ADD      R0,SP,#+336
   \   000002EC   ........           _BLF     `??operator+`,`??operator+??rA`
   \   000002F0   0620A0E1           MOV      R2,R6
   \   000002F4   541F8DE2           ADD      R1,SP,#+336
   \   000002F8   4D0F8DE2           ADD      R0,SP,#+308
   \   000002FC   ........           _BLF     `??operator+`,`??operator+??rA`
   \   00000300   0730A0E1           MOV      R3,R7
   \   00000304   0020A0E3           MOV      R2,#+0
   \   00000308   4D1F8DE2           ADD      R1,SP,#+308
   \   0000030C   0D00A0E1           MOV      R0,SP
   \   00000310   ........           _BLF     ??append,??append??rA
   \   00000314   0020A0E3           MOV      R2,#+0
   \   00000318   0110A0E3           MOV      R1,#+1
   \   0000031C   4D0F8DE2           ADD      R0,SP,#+308
   \   00000320   ........           _BLF     ??_Tidy,??_Tidy??rA
   \   00000324   0020A0E3           MOV      R2,#+0
   \   00000328   0110A0E3           MOV      R1,#+1
   \   0000032C   540F8DE2           ADD      R0,SP,#+336
   \   00000330   ........           _BLF     ??_Tidy,??_Tidy??rA
   \   00000334   0020A0E3           MOV      R2,#+0
   \   00000338   0110A0E3           MOV      R1,#+1
   \   0000033C   700F8DE2           ADD      R0,SP,#+448
   \   00000340   ........           _BLF     ??_Tidy,??_Tidy??rA
   \   00000344   0020A0E3           MOV      R2,#+0
   \   00000348   0110A0E3           MOV      R1,#+1
   \   0000034C   5B0F8DE2           ADD      R0,SP,#+364
   \   00000350   ........           _BLF     ??_Tidy,??_Tidy??rA
   \   00000354   0020A0E3           MOV      R2,#+0
   \   00000358   0110A0E3           MOV      R1,#+1
   \   0000035C   620F8DE2           ADD      R0,SP,#+392
   \   00000360   ........           _BLF     ??_Tidy,??_Tidy??rA
   \   00000364   0020A0E3           MOV      R2,#+0
   \   00000368   0110A0E3           MOV      R1,#+1
   \   0000036C   690F8DE2           ADD      R0,SP,#+420
   \   00000370   ........           _BLF     ??_Tidy,??_Tidy??rA
     44              LocalString +=TabStr1+KeyWord(C_CONFIG_COMPATI_NO) + " "+(AnsiString)ConfigCompatibilityNo+CrLfStr;;
   \   00000374   101094E5           LDR      R1,[R4, #+16]
   \   00000378   7C008DE2           ADD      R0,SP,#+124
   \   0000037C   400E80E2           ADD      R0,R0,#+1024
   \   00000380   ........           _BLF     ??AnsiString_2,??AnsiString??rA_2
   \   00000384   00A0A0E1           MOV      R10,R0
   \   00000388   0D10A0E3           MOV      R1,#+13
   \   0000038C   701E81E3           ORR      R1,R1,#0x700
   \   00000390   930F8DE2           ADD      R0,SP,#+588
   \   00000394   ........           _BLF     ??KeyWord,??KeyWord??rA
   \   00000398   932F8DE2           ADD      R2,SP,#+588
   \   0000039C   0810A0E1           MOV      R1,R8
   \   000003A0   8C0F8DE2           ADD      R0,SP,#+560
   \   000003A4   ........           _BLF     `??operator+`,`??operator+??rA`
   \   000003A8   0920A0E1           MOV      R2,R9
   \   000003AC   8C1F8DE2           ADD      R1,SP,#+560
   \   000003B0   850F8DE2           ADD      R0,SP,#+532
   \   000003B4   ........           _BLF     `??operator+_1`,`??operator+??rA_1`
   \   000003B8   0A20A0E1           MOV      R2,R10
   \   000003BC   851F8DE2           ADD      R1,SP,#+532
   \   000003C0   7E0F8DE2           ADD      R0,SP,#+504
   \   000003C4   ........           _BLF     `??operator+`,`??operator+??rA`
   \   000003C8   0620A0E1           MOV      R2,R6
   \   000003CC   7E1F8DE2           ADD      R1,SP,#+504
   \   000003D0   770F8DE2           ADD      R0,SP,#+476
   \   000003D4   ........           _BLF     `??operator+`,`??operator+??rA`
   \   000003D8   0730A0E1           MOV      R3,R7
   \   000003DC   0020A0E3           MOV      R2,#+0
   \   000003E0   771F8DE2           ADD      R1,SP,#+476
   \   000003E4   0D00A0E1           MOV      R0,SP
   \   000003E8   ........           _BLF     ??append,??append??rA
   \   000003EC   0020A0E3           MOV      R2,#+0
   \   000003F0   0110A0E3           MOV      R1,#+1
   \   000003F4   770F8DE2           ADD      R0,SP,#+476
   \   000003F8   ........           _BLF     ??_Tidy,??_Tidy??rA
   \   000003FC   0020A0E3           MOV      R2,#+0
   \   00000400   0110A0E3           MOV      R1,#+1
   \   00000404   7E0F8DE2           ADD      R0,SP,#+504
   \   00000408   ........           _BLF     ??_Tidy,??_Tidy??rA
   \   0000040C   0020A0E3           MOV      R2,#+0
   \   00000410   0110A0E3           MOV      R1,#+1
   \   00000414   7C008DE2           ADD      R0,SP,#+124
   \   00000418   400E80E2           ADD      R0,R0,#+1024
   \   0000041C   ........           _BLF     ??_Tidy,??_Tidy??rA
   \   00000420   0020A0E3           MOV      R2,#+0
   \   00000424   0110A0E3           MOV      R1,#+1
   \   00000428   850F8DE2           ADD      R0,SP,#+532
   \   0000042C   ........           _BLF     ??_Tidy,??_Tidy??rA
   \   00000430   0020A0E3           MOV      R2,#+0
   \   00000434   0110A0E3           MOV      R1,#+1
   \   00000438   8C0F8DE2           ADD      R0,SP,#+560
   \   0000043C   ........           _BLF     ??_Tidy,??_Tidy??rA
   \   00000440   0020A0E3           MOV      R2,#+0
   \   00000444   0110A0E3           MOV      R1,#+1
   \   00000448   930F8DE2           ADD      R0,SP,#+588
   \   0000044C   ........           _BLF     ??_Tidy,??_Tidy??rA
     45              LocalString +=TabStr1+KeyWord(C_CONFIG_DATA_REV)+(AnsiString)(PrevConfigDataRevision+1)+CrLfStr;
   \   00000450   3C0194E5           LDR      R0,[R4, #+316]
   \   00000454   011080E2           ADD      R1,R0,#+1
   \   00000458   98008DE2           ADD      R0,SP,#+152
   \   0000045C   400E80E2           ADD      R0,R0,#+1024
   \   00000460   ........           _BLF     ??AnsiString_2,??AnsiString??rA_2
   \   00000464   0090A0E1           MOV      R9,R0
   \   00000468   1C10A0E3           MOV      R1,#+28
   \   0000046C   701E81E3           ORR      R1,R1,#0x700
   \   00000470   AF0F8DE2           ADD      R0,SP,#+700
   \   00000474   ........           _BLF     ??KeyWord,??KeyWord??rA
   \   00000478   AF2F8DE2           ADD      R2,SP,#+700
   \   0000047C   0810A0E1           MOV      R1,R8
   \   00000480   A80F8DE2           ADD      R0,SP,#+672
   \   00000484   ........           _BLF     `??operator+`,`??operator+??rA`
   \   00000488   0920A0E1           MOV      R2,R9
   \   0000048C   A81F8DE2           ADD      R1,SP,#+672
   \   00000490   A10F8DE2           ADD      R0,SP,#+644
   \   00000494   ........           _BLF     `??operator+`,`??operator+??rA`
   \   00000498   0620A0E1           MOV      R2,R6
   \   0000049C   A11F8DE2           ADD      R1,SP,#+644
   \   000004A0   9A0F8DE2           ADD      R0,SP,#+616
   \   000004A4   ........           _BLF     `??operator+`,`??operator+??rA`
   \   000004A8   0730A0E1           MOV      R3,R7
   \   000004AC   0020A0E3           MOV      R2,#+0
   \   000004B0   9A1F8DE2           ADD      R1,SP,#+616
   \   000004B4   0D00A0E1           MOV      R0,SP
   \   000004B8   ........           _BLF     ??append,??append??rA
   \   000004BC   0020A0E3           MOV      R2,#+0
   \   000004C0   0110A0E3           MOV      R1,#+1
   \   000004C4   9A0F8DE2           ADD      R0,SP,#+616
   \   000004C8   ........           _BLF     ??_Tidy,??_Tidy??rA
   \   000004CC   0020A0E3           MOV      R2,#+0
   \   000004D0   0110A0E3           MOV      R1,#+1
   \   000004D4   A10F8DE2           ADD      R0,SP,#+644
   \   000004D8   ........           _BLF     ??_Tidy,??_Tidy??rA
   \   000004DC   0020A0E3           MOV      R2,#+0
   \   000004E0   0110A0E3           MOV      R1,#+1
   \   000004E4   98008DE2           ADD      R0,SP,#+152
   \   000004E8   400E80E2           ADD      R0,R0,#+1024
   \   000004EC   ........           _BLF     ??_Tidy,??_Tidy??rA
   \   000004F0   0020A0E3           MOV      R2,#+0
   \   000004F4   0110A0E3           MOV      R1,#+1
   \   000004F8   A80F8DE2           ADD      R0,SP,#+672
   \   000004FC   ........           _BLF     ??_Tidy,??_Tidy??rA
   \   00000500   0020A0E3           MOV      R2,#+0
   \   00000504   0110A0E3           MOV      R1,#+1
   \   00000508   AF0F8DE2           ADD      R0,SP,#+700
   \   0000050C   ........           _BLF     ??_Tidy,??_Tidy??rA
     46              LocalString +=TabStr1+KeyWord(C_CONFIG_REV_PERSON)+ConfigRevisePerson+CrLfStr;
   \   00000510   1D10A0E3           MOV      R1,#+29
   \   00000514   701E81E3           ORR      R1,R1,#0x700
   \   00000518   CB0F8DE2           ADD      R0,SP,#+812
   \   0000051C   ........           _BLF     ??KeyWord,??KeyWord??rA
   \   00000520   CB2F8DE2           ADD      R2,SP,#+812
   \   00000524   0810A0E1           MOV      R1,R8
   \   00000528   C40F8DE2           ADD      R0,SP,#+784
   \   0000052C   ........           _BLF     `??operator+`,`??operator+??rA`
   \   00000530   5E2F84E2           ADD      R2,R4,#+376
   \   00000534   C41F8DE2           ADD      R1,SP,#+784
   \   00000538   BD0F8DE2           ADD      R0,SP,#+756
   \   0000053C   ........           _BLF     `??operator+`,`??operator+??rA`
   \   00000540   0620A0E1           MOV      R2,R6
   \   00000544   BD1F8DE2           ADD      R1,SP,#+756
   \   00000548   B60F8DE2           ADD      R0,SP,#+728
   \   0000054C   ........           _BLF     `??operator+`,`??operator+??rA`
   \   00000550   0730A0E1           MOV      R3,R7
   \   00000554   0020A0E3           MOV      R2,#+0
   \   00000558   B61F8DE2           ADD      R1,SP,#+728
   \   0000055C   0D00A0E1           MOV      R0,SP
   \   00000560   ........           _BLF     ??append,??append??rA
   \   00000564   0020A0E3           MOV      R2,#+0
   \   00000568   0110A0E3           MOV      R1,#+1
   \   0000056C   B60F8DE2           ADD      R0,SP,#+728
   \   00000570   ........           _BLF     ??_Tidy,??_Tidy??rA
   \   00000574   0020A0E3           MOV      R2,#+0
   \   00000578   0110A0E3           MOV      R1,#+1
   \   0000057C   BD0F8DE2           ADD      R0,SP,#+756
   \   00000580   ........           _BLF     ??_Tidy,??_Tidy??rA
   \   00000584   0020A0E3           MOV      R2,#+0
   \   00000588   0110A0E3           MOV      R1,#+1
   \   0000058C   C40F8DE2           ADD      R0,SP,#+784
   \   00000590   ........           _BLF     ??_Tidy,??_Tidy??rA
   \   00000594   0020A0E3           MOV      R2,#+0
   \   00000598   0110A0E3           MOV      R1,#+1
   \   0000059C   CB0F8DE2           ADD      R0,SP,#+812
   \   000005A0   ........           _BLF     ??_Tidy,??_Tidy??rA
     47              LocalString +=TabStr1+KeyWord(C_CONFIG_REV_TEXT)+ConfigRevisionText;
   \   000005A4   1E10A0E3           MOV      R1,#+30
   \   000005A8   701E81E3           ORR      R1,R1,#0x700
   \   000005AC   E00F8DE2           ADD      R0,SP,#+896
   \   000005B0   ........           _BLF     ??KeyWord,??KeyWord??rA
   \   000005B4   E02F8DE2           ADD      R2,SP,#+896
   \   000005B8   0810A0E1           MOV      R1,R8
   \   000005BC   D90F8DE2           ADD      R0,SP,#+868
   \   000005C0   ........           _BLF     `??operator+`,`??operator+??rA`
   \   000005C4   652F84E2           ADD      R2,R4,#+404
   \   000005C8   D91F8DE2           ADD      R1,SP,#+868
   \   000005CC   D20F8DE2           ADD      R0,SP,#+840
   \   000005D0   ........           _BLF     `??operator+`,`??operator+??rA`
   \   000005D4   0730A0E1           MOV      R3,R7
   \   000005D8   0020A0E3           MOV      R2,#+0
   \   000005DC   D21F8DE2           ADD      R1,SP,#+840
   \   000005E0   0D00A0E1           MOV      R0,SP
   \   000005E4   ........           _BLF     ??append,??append??rA
   \   000005E8   0020A0E3           MOV      R2,#+0
   \   000005EC   0110A0E3           MOV      R1,#+1
   \   000005F0   D20F8DE2           ADD      R0,SP,#+840
   \   000005F4   ........           _BLF     ??_Tidy,??_Tidy??rA
   \   000005F8   0020A0E3           MOV      R2,#+0
   \   000005FC   0110A0E3           MOV      R1,#+1
   \   00000600   D90F8DE2           ADD      R0,SP,#+868
   \   00000604   ........           _BLF     ??_Tidy,??_Tidy??rA
   \   00000608   0020A0E3           MOV      R2,#+0
   \   0000060C   0110A0E3           MOV      R1,#+1
   \   00000610   E00F8DE2           ADD      R0,SP,#+896
   \   00000614   ........           _BLF     ??_Tidy,??_Tidy??rA
     48          #ifdef S2TXU
     49              LocalString +=(AnsiString)"ENDCONFIGREVTEXT"+CrLfStr;
   \   00000618   08119FE5           LDR      R1,??WriteConfigToFile_1+0xC  ;; `?<Constant "ENDCONFIGREVTEXT">`
   \   0000061C   B4008DE2           ADD      R0,SP,#+180
   \   00000620   400E80E2           ADD      R0,R0,#+1024
   \   00000624   ........           _BLF     ??AnsiString_1,??AnsiString??rA_1
   \   00000628   0010A0E1           MOV      R1,R0
   \   0000062C   0620A0E1           MOV      R2,R6
   \   00000630   E70F8DE2           ADD      R0,SP,#+924
   \   00000634   ........           _BLF     `??operator+`,`??operator+??rA`
   \   00000638   0730A0E1           MOV      R3,R7
   \   0000063C   0020A0E3           MOV      R2,#+0
   \   00000640   E71F8DE2           ADD      R1,SP,#+924
   \   00000644   0D00A0E1           MOV      R0,SP
   \   00000648   ........           _BLF     ??append,??append??rA
   \   0000064C   0020A0E3           MOV      R2,#+0
   \   00000650   0110A0E3           MOV      R1,#+1
   \   00000654   E70F8DE2           ADD      R0,SP,#+924
   \   00000658   ........           _BLF     ??_Tidy,??_Tidy??rA
   \   0000065C   0020A0E3           MOV      R2,#+0
   \   00000660   0110A0E3           MOV      R1,#+1
   \   00000664   B4008DE2           ADD      R0,SP,#+180
   \   00000668   400E80E2           ADD      R0,R0,#+1024
   \   0000066C   ........           _BLF     ??_Tidy,??_Tidy??rA
     50          #endif
     51          
     52          
     53          
     54              LocalString +=KeyWord(C_PRO_END)+CrLfStr;
   \   00000670   FA1FA0E3           MOV      R1,#+1000
   \   00000674   F50F8DE2           ADD      R0,SP,#+980
   \   00000678   ........           _BLF     ??KeyWord,??KeyWord??rA
   \   0000067C   0620A0E1           MOV      R2,R6
   \   00000680   F51F8DE2           ADD      R1,SP,#+980
   \   00000684   EE0F8DE2           ADD      R0,SP,#+952
   \   00000688   ........           _BLF     `??operator+`,`??operator+??rA`
   \   0000068C   0730A0E1           MOV      R3,R7
   \   00000690   0020A0E3           MOV      R2,#+0
   \   00000694   EE1F8DE2           ADD      R1,SP,#+952
   \   00000698   000000EA           B        ??WriteConfigToFile_4
   \                     ??WriteConfigToFile_3:
   \   0000069C   20000000           DC8      " ",+0,+0
   \                     ??WriteConfigToFile_4:
   \   000006A0   0D00A0E1           MOV      R0,SP
   \   000006A4   ........           _BLF     ??append,??append??rA
   \   000006A8   0020A0E3           MOV      R2,#+0
   \   000006AC   0110A0E3           MOV      R1,#+1
   \   000006B0   EE0F8DE2           ADD      R0,SP,#+952
   \   000006B4   ........           _BLF     ??_Tidy,??_Tidy??rA
   \   000006B8   0020A0E3           MOV      R2,#+0
   \   000006BC   0110A0E3           MOV      R1,#+1
   \   000006C0   F50F8DE2           ADD      R0,SP,#+980
   \   000006C4   ........           _BLF     ??_Tidy,??_Tidy??rA
     55              LocalString += CrLfStr;
   \   000006C8   0730A0E1           MOV      R3,R7
   \   000006CC   0020A0E3           MOV      R2,#+0
   \   000006D0   0610A0E1           MOV      R1,R6
   \   000006D4   0D00A0E1           MOV      R0,SP
   \   000006D8   ........           _BLF     ??append,??append??rA
     56          
     57              ConfigString.AddString(LocalString);
   \   000006DC   0D10A0E1           MOV      R1,SP
   \   000006E0   FC0F8DE2           ADD      R0,SP,#+1008
   \   000006E4   ........           _BLF     ??string,??string??rA
   \   000006E8   FC1F8DE2           ADD      R1,SP,#+1008
   \   000006EC   0500A0E1           MOV      R0,R5
   \   000006F0   ........           _BLF     ??AddString,??AddString??rA
   \   000006F4   0020A0E3           MOV      R2,#+0
   \   000006F8   0110A0E3           MOV      R1,#+1
   \   000006FC   FC0F8DE2           ADD      R0,SP,#+1008
   \   00000700   ........           _BLF     ??_Tidy,??_Tidy??rA
     58          }
   \   00000704   0020A0E3           MOV      R2,#+0
   \   00000708   0110A0E3           MOV      R1,#+1
   \   0000070C   0D00A0E1           MOV      R0,SP
   \   00000710   ........           _BLF     ??_Tidy,??_Tidy??rA
   \   00000714   4DDE8DE2           ADD      SP,SP,#+1232
   \   00000718   ........           B        ?Subroutine8
   \                     ??WriteConfigToFile_1:
   \   0000071C   ........           DC32     CrLfStr
   \   00000720   ........           DC32     TabStr1
   \   00000724   ........           DC32     TabStr2
   \   00000728   ........           DC32     `?<Constant "ENDCONFIGREVTEXT">`

   \                                 In segment CODE, align 4, keep-with-next
   \                     ?Subroutine8:
   \   00000000   F047BDE8           POP      {R4-R10,LR}
   \   00000004   1EFF2FE1           BX       LR               ;; return
   \                     ??Subroutine8_0:
   \   00000008   ........           DC32     `?<Constant "Configuration info">`
     59          //---------------------------------------------------------------------------
     60          

   \                                 In segment CODE, align 4, keep-with-next
     61          int TSNConfigInfo::LoadConfigFromFile(TSNConfigString &ConfigString)
     62          {
   \                     ??LoadConfigFromFile:
   \   00000000   F0472DE9           PUSH     {R4-R10,LR}
   \   00000004   90D04DE2           SUB      SP,SP,#+144
   \   00000008   0040A0E1           MOV      R4,R0
   \   0000000C   0150A0E1           MOV      R5,R1
     63          
     64              bool NoError = true;
   \   00000010   0190A0E3           MOV      R9,#+1
     65              int ErrorLine=0;
   \   00000014   0010A0E3           MOV      R1,#+0
   \   00000018   00108DE5           STR      R1,[SP, #+0]
   \   0000001C   0160E0E1           MVN      R6,R1
     66              int Key;
     67              do {
     68                  AnsiString InputKeyWord= ConfigString.NextWord(ErrorLine);
   \                     ??LoadConfigFromFile_1:
   \   00000020   0030A0E3           MOV      R3,#+0
   \   00000024   0D20A0E1           MOV      R2,SP
   \   00000028   3C108DE2           ADD      R1,SP,#+60
     69                  if ( ErrorLine ) {
   \   0000002C   ........           LDR      R10,??Subroutine8_0  ;; `?<Constant "Configuration info">`
   \   00000030   0500A0E1           MOV      R0,R5
   \   00000034   ........           _BLF     ??NextWord,??NextWord??rA
   \   00000038   00009DE5           LDR      R0,[SP, #+0]
   \   0000003C   000050E3           CMP      R0,#+0
   \   00000040   0B00000A           BEQ      ??LoadConfigFromFile_2
     70                      if ( ErrorLine != EOF ) {
   \   00000044   060050E1           CMP      R0,R6
   \   00000048   BD00000A           BEQ      ??LoadConfigFromFile_3
     71                          GiveConfigWarning("Configuration info",ErrorLine);
   \   0000004C   0A10A0E1           MOV      R1,R10
   \   00000050   04008DE2           ADD      R0,SP,#+4
   \   00000054   ........           _BLF     ??AnsiString_1,??AnsiString??rA_1
   \   00000058   00109DE5           LDR      R1,[SP, #+0]
   \   0000005C   ........           _BLF     ??GiveConfigWarning,??GiveConfigWarning??rA
   \   00000060   0020A0E3           MOV      R2,#+0
   \   00000064   0110A0E3           MOV      R1,#+1
   \   00000068   04008DE2           ADD      R0,SP,#+4
   \                     ??LoadConfigFromFile_4:
   \   0000006C   ........           _BLF     ??_Tidy,??_Tidy??rA
   \   00000070   B30000EA           B        ??LoadConfigFromFile_3
     72                      }
     73                  } else {
     74                      Key = FindConfigKey(InputKeyWord);
   \                     ??LoadConfigFromFile_2:
   \   00000074   3C108DE2           ADD      R1,SP,#+60
   \   00000078   20008DE2           ADD      R0,SP,#+32
   \   0000007C   ........           _BLF     ??string,??string??rA
   \   00000080   20008DE2           ADD      R0,SP,#+32
   \   00000084   ........           _BLF     ??FindConfigKey,??FindConfigKey??rA
   \   00000088   0070A0E1           MOV      R7,R0
   \   0000008C   0020A0E3           MOV      R2,#+0
   \   00000090   0110A0E3           MOV      R1,#+1
   \   00000094   20008DE2           ADD      R0,SP,#+32
   \   00000098   ........           _BLF     ??_Tidy,??_Tidy??rA
     75                      switch ( Key ) {
   \   0000009C   FA0F57E3           CMP      R7,#+1000
   \   000000A0   EA10A013           MOVNE    R1,#+234
   \   000000A4   C01F8113           ORRNE    R1,R1,#0x300
   \   000000A8   01005711           CMPNE    R7,R1
   \   000000AC   FB0F5713           CMPNE    R7,#+1004
   \   000000B0   A300000A           BEQ      ??LoadConfigFromFile_3
   \   000000B4   0910A0E3           MOV      R1,#+9
   \   000000B8   701E81E3           ORR      R1,R1,#0x700
   \   000000BC   010057E1           CMP      R7,R1
   \   000000C0   3C00000A           BEQ      ??LoadConfigFromFile_5
   \   000000C4   041081E3           ORR      R1,R1,#0x4
   \   000000C8   010057E1           CMP      R7,R1
   \   000000CC   5D00000A           BEQ      ??LoadConfigFromFile_6
   \   000000D0   051081E2           ADD      R1,R1,#+5
   \   000000D4   010057E1           CMP      R7,R1
   \   000000D8   4B00000A           BEQ      ??LoadConfigFromFile_7
   \   000000DC   0A1081E2           ADD      R1,R1,#+10
   \   000000E0   010057E1           CMP      R7,R1
   \   000000E4   5D00000A           BEQ      ??LoadConfigFromFile_8
   \   000000E8   011081E3           ORR      R1,R1,#0x1
   \   000000EC   010057E1           CMP      R7,R1
   \   000000F0   6000000A           BEQ      ??LoadConfigFromFile_9
   \   000000F4   011081E2           ADD      R1,R1,#+1
   \   000000F8   010057E1           CMP      R7,R1
   \   000000FC   7300000A           BEQ      ??LoadConfigFromFile_10
   \   00000100   011081E3           ORR      R1,R1,#0x1
   \   00000104   010057E1           CMP      R7,R1
   \   00000108   2600000A           BEQ      ??LoadConfigFromFile_11
   \   0000010C   1B1081E2           ADD      R1,R1,#+27
   \   00000110   010057E1           CMP      R7,R1
   \   00000114   8200000A           BEQ      ??LoadConfigFromFile_12
   \   00000118   011081E3           ORR      R1,R1,#0x1
   \   0000011C   010057E1           CMP      R7,R1
   \   00000120   7F00000A           BEQ      ??LoadConfigFromFile_12
   \   00000124   011081E2           ADD      R1,R1,#+1
   \   00000128   010057E1           CMP      R7,R1
   \   0000012C   7C00000A           BEQ      ??LoadConfigFromFile_12
   \   00000130   011081E3           ORR      R1,R1,#0x1
   \   00000134   010057E1           CMP      R7,R1
   \   00000138   7900000A           BEQ      ??LoadConfigFromFile_12
   \   0000013C   011081E2           ADD      R1,R1,#+1
   \   00000140   010057E1           CMP      R7,R1
   \   00000144   7600000A           BEQ      ??LoadConfigFromFile_12
   \   00000148   9810A0E3           MOV      R1,#+152
   \   0000014C   801E81E3           ORR      R1,R1,#0x800
   \   00000150   010057E1           CMP      R7,R1
   \   00000154   B910A013           MOVNE    R1,#+185
   \   00000158   B01E8113           ORRNE    R1,R1,#0xB00
   \   0000015C   01005711           CMPNE    R7,R1
   \   00000160   7700000A           BEQ      ??LoadConfigFromFile_3
     76                      default:
     77                          GiveConfigWarning("Configuration info",InputKeyWord,ConfigString.LineCount);
   \   00000164   3C108DE2           ADD      R1,SP,#+60
   \   00000168   58008DE2           ADD      R0,SP,#+88
   \   0000016C   ........           _BLF     ??string,??string??rA
   \   00000170   0A10A0E1           MOV      R1,R10
   \   00000174   74008DE2           ADD      R0,SP,#+116
   \   00000178   ........           _BLF     ??AnsiString_1,??AnsiString??rA_1
   \   0000017C   1C2095E5           LDR      R2,[R5, #+28]
   \   00000180   58108DE2           ADD      R1,SP,#+88
   \   00000184   ........           _BLF     ??GiveConfigWarning_1,??GiveConfigWarning??rA_1
   \   00000188   0020A0E3           MOV      R2,#+0
   \   0000018C   0110A0E3           MOV      R1,#+1
   \   00000190   58008DE2           ADD      R0,SP,#+88
   \   00000194   ........           _BLF     ??_Tidy,??_Tidy??rA
   \   00000198   0020A0E3           MOV      R2,#+0
   \   0000019C   0110A0E3           MOV      R1,#+1
   \   000001A0   74008DE2           ADD      R0,SP,#+116
   \   000001A4   B0FFFFEA           B        ??LoadConfigFromFile_4
     78                          break;
     79                      case C_AI_END:      // If AI type not found can continue with this
     80                      case C_AL_END:
     81                      case C_PRO_END:
     82                      case C_PRO_END_COMMON:
     83                      case C_PRO_END_PRO:
     84                          break;
     85                      case C_CONFIG_CAN_WRITE:
     86                          HasConfigWritePermission = true;
   \                     ??LoadConfigFromFile_11:
   \   000001A8   ........           LDR      R0,??DataTable5  ;; ??HasConfigWritePermission
   \   000001AC   0110A0E3           MOV      R1,#+1
   \   000001B0   0010C0E5           STRB     R1,[R0, #+0]
   \   000001B4   620000EA           B        ??LoadConfigFromFile_3
     87                          break;
     88                      case C_CONFIG_VERSION:
     89                          {
     90                              PrevProdNo = ConfigString.ReadLong(ErrorLine);
   \                     ??LoadConfigFromFile_5:
   \   000001B8   0020A0E3           MOV      R2,#+0
   \   000001BC   0D10A0E1           MOV      R1,SP
   \   000001C0   0500A0E1           MOV      R0,R5
   \   000001C4   ........           _BLF     ??ReadLong,??ReadLong??rA
   \   000001C8   000084E5           STR      R0,[R4, #+0]
     91                              PrevPacket = ConfigString.ReadLong(ErrorLine);
   \   000001CC   0020A0E3           MOV      R2,#+0
   \   000001D0   0D10A0E1           MOV      R1,SP
   \   000001D4   0500A0E1           MOV      R0,R5
   \   000001D8   ........           _BLF     ??ReadLong,??ReadLong??rA
   \   000001DC   040084E5           STR      R0,[R4, #+4]
     92                              PrevConfigNewFunc = ConfigString.ReadLong(ErrorLine);
   \   000001E0   0020A0E3           MOV      R2,#+0
   \   000001E4   0D10A0E1           MOV      R1,SP
   \   000001E8   0500A0E1           MOV      R0,R5
   \   000001EC   ........           _BLF     ??ReadLong,??ReadLong??rA
   \   000001F0   080084E5           STR      R0,[R4, #+8]
     93                              PrevConfigBugFix = ConfigString.ReadLong(ErrorLine);
   \   000001F4   0020A0E3           MOV      R2,#+0
   \   000001F8   0D10A0E1           MOV      R1,SP
   \   000001FC   0500A0E1           MOV      R0,R5
   \   00000200   ........           _BLF     ??ReadLong,??ReadLong??rA
   \   00000204   0C0084E5           STR      R0,[R4, #+12]
     94                              NoError = !ErrorLine;
   \   00000208   490000EA           B        ??LoadConfigFromFile_13
     95                          }
     96                          break;
     97                      case C_CONFIG_DATE:
     98                          {
     99                              PrevDate = ConfigString.GetRemainingLine(ErrorLine);
   \                     ??LoadConfigFromFile_7:
   \   0000020C   0D20A0E1           MOV      R2,SP
   \   00000210   04108DE2           ADD      R1,SP,#+4
   \   00000214   0500A0E1           MOV      R0,R5
   \   00000218   ........           _BLF     ??GetRemainingLine,??GetRemainingLine??rA
   \   0000021C   ........           LDR      R0,??DataTable8  ;; ??npos
   \   00000220   0020A0E3           MOV      R2,#+0
   \   00000224   003090E5           LDR      R3,[R0, #+0]
   \   00000228   04108DE2           ADD      R1,SP,#+4
   \   0000022C   140084E2           ADD      R0,R4,#+20
   \   00000230   ........           _BLF     ??assign,??assign??rA
   \   00000234   0020A0E3           MOV      R2,#+0
   \   00000238   0110A0E3           MOV      R1,#+1
   \   0000023C   04008DE2           ADD      R0,SP,#+4
   \   00000240   ........           _BLF     ??_Tidy,??_Tidy??rA
    100                              NoError = !ErrorLine;
   \   00000244   3A0000EA           B        ??LoadConfigFromFile_13
    101                          }
    102                          break;
    103                      case C_CONFIG_COMPATI_NO:
    104                          {
    105                              ConfigCompatibilityNo = ConfigString.ReadLong(ErrorLine);
   \                     ??LoadConfigFromFile_6:
   \   00000248   0020A0E3           MOV      R2,#+0
   \   0000024C   0D10A0E1           MOV      R1,SP
   \   00000250   0500A0E1           MOV      R0,R5
   \   00000254   ........           _BLF     ??ReadLong,??ReadLong??rA
   \   00000258   100084E5           STR      R0,[R4, #+16]
    106                              NoError = !ErrorLine;
   \   0000025C   340000EA           B        ??LoadConfigFromFile_13
    107                          }
    108                          break;
    109                      case C_CONFIG_DATA_REV:
    110                          {
    111                              PrevConfigDataRevision = ConfigString.ReadLong(ErrorLine);
   \                     ??LoadConfigFromFile_8:
   \   00000260   0020A0E3           MOV      R2,#+0
   \   00000264   0D10A0E1           MOV      R1,SP
   \   00000268   0500A0E1           MOV      R0,R5
   \   0000026C   ........           _BLF     ??ReadLong,??ReadLong??rA
   \   00000270   3C0184E5           STR      R0,[R4, #+316]
    112                              NoError = !ErrorLine;
   \   00000274   2E0000EA           B        ??LoadConfigFromFile_13
    113                          }
    114                          break;
    115                      case C_CONFIG_REV_PERSON:
    116                          {
    117                              PrevConfigRevisePerson  = ConfigString.GetRemainingLine(ErrorLine);
   \                     ??LoadConfigFromFile_9:
   \   00000278   0D20A0E1           MOV      R2,SP
   \   0000027C   04108DE2           ADD      R1,SP,#+4
   \   00000280   0500A0E1           MOV      R0,R5
   \   00000284   ........           _BLF     ??GetRemainingLine,??GetRemainingLine??rA
   \   00000288   ........           LDR      R0,??DataTable8  ;; ??npos
   \   0000028C   50AFA0E3           MOV      R10,#+320
   \   00000290   009090E5           LDR      R9,[R0, #+0]
   \   00000294   0020A0E3           MOV      R2,#+0
   \   00000298   0930A0E1           MOV      R3,R9
   \   0000029C   04108DE2           ADD      R1,SP,#+4
   \   000002A0   04008AE0           ADD      R0,R10,R4
   \   000002A4   ........           _BLF     ??assign,??assign??rA
   \   000002A8   0020A0E3           MOV      R2,#+0
   \   000002AC   0110A0E3           MOV      R1,#+1
   \   000002B0   04008DE2           ADD      R0,SP,#+4
   \   000002B4   ........           _BLF     ??_Tidy,??_Tidy??rA
    118                              ConfigRevisePerson      = PrevConfigRevisePerson;
   \   000002B8   0930A0E1           MOV      R3,R9
   \   000002BC   0020A0E3           MOV      R2,#+0
   \   000002C0   04108AE0           ADD      R1,R10,R4
   \   000002C4   5E0F84E2           ADD      R0,R4,#+376
   \                     ??LoadConfigFromFile_14:
   \   000002C8   ........           _BLF     ??assign,??assign??rA
    119                              NoError = !ErrorLine;
   \   000002CC   180000EA           B        ??LoadConfigFromFile_13
    120                          }
    121                          break;
    122                      case C_CONFIG_REV_TEXT:
    123                          {
    124                              PrevConfigRevisionText = ConfigString.GetConfigRevisionText(ErrorLine);
   \                     ??LoadConfigFromFile_10:
   \   000002D0   0D20A0E1           MOV      R2,SP
   \   000002D4   04108DE2           ADD      R1,SP,#+4
   \   000002D8   0500A0E1           MOV      R0,R5
   \   000002DC   ........           _BLF     ??GetConfigRevisionText,??GetConfigRevisionText??rA
   \   000002E0   ........           LDR      R0,??DataTable8  ;; ??npos
   \   000002E4   57AFA0E3           MOV      R10,#+348
   \   000002E8   009090E5           LDR      R9,[R0, #+0]
   \   000002EC   0020A0E3           MOV      R2,#+0
   \   000002F0   0930A0E1           MOV      R3,R9
   \   000002F4   04108DE2           ADD      R1,SP,#+4
   \   000002F8   04008AE0           ADD      R0,R10,R4
   \   000002FC   ........           _BLF     ??assign,??assign??rA
   \   00000300   0020A0E3           MOV      R2,#+0
   \   00000304   0110A0E3           MOV      R1,#+1
   \   00000308   04008DE2           ADD      R0,SP,#+4
   \   0000030C   ........           _BLF     ??_Tidy,??_Tidy??rA
    125                              ConfigRevisionText     = PrevConfigRevisionText;
   \   00000310   0930A0E1           MOV      R3,R9
   \   00000314   0020A0E3           MOV      R2,#+0
   \   00000318   04108AE0           ADD      R1,R10,R4
   \   0000031C   650F84E2           ADD      R0,R4,#+404
   \   00000320   E8FFFFEA           B        ??LoadConfigFromFile_14
    126                              NoError = !ErrorLine;
    127                          }
    128                          break;
    129                      case C_HIGH_CARGO_NO:
    130                          {
    131                              int HighestCargoNumber = ConfigString.ReadLong(ErrorLine);
    132                              NoError = !ErrorLine;
    133                          }
    134                          break;
    135                      case C_HIGH_TANK_NO:
    136                          {
    137                              int HighestTankNumber = ConfigString.ReadLong(ErrorLine);
    138                              NoError = !ErrorLine;
    139                          }
    140                          break;
    141                      case C_HIGH_TEMP_NO:
    142                          {
    143                              int HighestTempNumber = ConfigString.ReadLong(ErrorLine);
    144                              NoError = !ErrorLine;
    145                          }
    146                          break;
    147                      case C_HIGH_TPRESS_NO:
    148                          {
    149                              int HighestTPressNumber = ConfigString.ReadLong(ErrorLine);
    150                              NoError = !ErrorLine;
    151                          }
    152                          break;
    153                      case C_HIGH_WINGRESS_NO:
    154                          {
    155                              int HighestWIngressNumber = ConfigString.ReadLong(ErrorLine);
   \                     ??LoadConfigFromFile_12:
   \   00000324   0020A0E3           MOV      R2,#+0
   \   00000328   0D10A0E1           MOV      R1,SP
   \   0000032C   0500A0E1           MOV      R0,R5
   \   00000330   ........           _BLF     ??ReadLong,??ReadLong??rA
    156                              NoError = !ErrorLine;
   \                     ??LoadConfigFromFile_13:
   \   00000334   00009DE5           LDR      R0,[SP, #+0]
   \   00000338   000050E3           CMP      R0,#+0
   \   0000033C   0190A003           MOVEQ    R9,#+1
   \   00000340   0090A013           MOVNE    R9,#+0
    157                          }
    158                          break;
    159                      }
    160                  }
    161              }while ( NoError && ( ErrorLine != EOF )&& ( Key != C_PRO_END ) );
   \                     ??LoadConfigFromFile_3:
   \   00000344   0020A0E3           MOV      R2,#+0
   \   00000348   0110A0E3           MOV      R1,#+1
   \   0000034C   3C008DE2           ADD      R0,SP,#+60
   \   00000350   ........           _BLF     ??_Tidy,??_Tidy??rA
   \   00000354   000059E3           CMP      R9,#+0
   \   00000358   00009D15           LDRNE    R0,[SP, #+0]
   \   0000035C   06005011           CMPNE    R0,R6
   \   00000360   FA0F5713           CMPNE    R7,#+1000
   \   00000364   2DFFFF1A           BNE      ??LoadConfigFromFile_1
    162              return ErrorLine;
   \   00000368   00009DE5           LDR      R0,[SP, #+0]
   \   0000036C   90D08DE2           ADD      SP,SP,#+144
   \   00000370                      REQUIRE ?Subroutine8
   \   00000370                      ;; // Fall through to label ?Subroutine8
    163          }

   \                                 In segment DIFUNCT, align 4, keep-with-next, root
   \   00000000                      REQUIRE ?call_ctors
   \   00000000   ........           DC32    ??__sti__routine

   \                                 In segment DATA_C, align 1, align-sorted
   \   00000000   4E4E00             DC8 "NN"

   \                                 In segment DATA_C, align 4, align-sorted
   \                     `?<Constant "Comments for previous...">`:
   \   00000000   436F6D6D656E       DC8 "Comments for previous changes of congfiguration."
   \              747320666F72
   \              207072657669
   \              6F7573206368
   \              616E67657320
   \              6F6620636F6E
   \              676669677572
   \              6174696F6E2E
   \              00          
   \   00000031   000000             DC8 0, 0, 0
   \   00000034   30302E30302E       DC8 "00.00.0000"
   \              3030303000  
   \   0000003F   00                 DC8 0

   \                                 In segment DATA_C, align 1, align-sorted
   \   00000000   2000               DC8 " "

   \                                 In segment DATA_C, align 4, align-sorted
   \                     `?<Constant "ENDCONFIGREVTEXT">`:
   \   00000000   454E44434F4E       DC8 "ENDCONFIGREVTEXT"
   \              464947524556
   \              5445585400  
   \   00000011   000000             DC8 0, 0, 0

   \                                 In segment DATA_C, align 4, align-sorted
   \                     `?<Constant "Configuration info">`:
   \   00000000   436F6E666967       DC8 "Configuration info"
   \              75726174696F
   \              6E20696E666F
   \              00          
   \   00000013   00                 DC8 0

   \                                 In segment CODE, align 4, keep-with-next
   \   __??Code32?? __code __interwork __atpcs TSNConfigInfo &TSNConfigInfo::new TSNConfigInfo()
   \                     `??new TSNConfigInfo`:
   \   00000000   00402DE9           PUSH     {LR}
   \   00000004   6C0FA0E3           MOV      R0,#+432
   \   00000008   ........           _BLF     `??operator new`,`??operator new??rA`
   \   0000000C   000050E3           CMP      R0,#+0
   \   00000010   0000000A           BEQ      `??new TSNConfigInfo_1`
   \   00000014   ........           BL       ??TSNConfigInfo
   \                     `??new TSNConfigInfo_1`:
   \   00000018   0040BDE8           POP      {LR}
   \   0000001C   1EFF2FE1           BX       LR               ;; return

   \                                 In segment CODE, align 4, keep-with-next
   \   __??Code32?? __code __interwork __atpcs void TSNConfigInfo::delete ~TSNConfigInfo(TSNConfigInfo *)
   \                     `??delete ~TSNConfigInfo`:
   \   00000000   10402DE9           PUSH     {R4,LR}
   \   00000004   0040B0E1           MOVS     R4,R0
   \   00000008   0200000A           BEQ      `??delete ~TSNConfigInfo_1`
   \   0000000C   ........           BL       `?~TSNConfigInfo`
   \   00000010   0400A0E1           MOV      R0,R4
   \   00000014   ........           _BLF     `??operator delete`,`??operator delete??rA`
   \                     `??delete ~TSNConfigInfo_1`:
   \   00000018   ........           B        ?Subroutine7

   \                                 In segment CODE, align 4, keep-with-next
   \   static __??Code32?? __intrinsic __code __interwork __atpcs void __sti__routine()
   \                     ??__sti__routine:
   \   00000000   1EFF2FE1           BX       LR               ;; return

   \                                 In segment CODE, align 4, keep-with-next
   \                     ??DataTable2:
   \   00000000   ........           DC32     ??ConfigInfoPtr

   \                                 In segment CODE, align 4, keep-with-next
   \                     ??DataTable5:
   \   00000000   ........           DC32     ??HasConfigWritePermission

   \                                 In segment CODE, align 4, keep-with-next
   \                     ??DataTable8:
   \   00000000   ........           DC32     ??npos
    164          //---------------------------------------------------------------------------
    165          

   Maximum stack usage in bytes:

     Function                       CSTACK
     --------                       ------
     TSNConfigInfo::LoadConfigFromFile(TSNConfigString &)
                                      176
     TSNConfigInfo::TSNConfigInfo()   132
     TSNConfigInfo::WriteConfigToFile(TSNConfigString &)
                                     1264
     TSNConfigInfo::delete ~TSNConfigInfo(TSNConfigInfo *)
                                        8
     TSNConfigInfo::new TSNConfigInfo()
                                        4
     TSNConfigInfo::~TSNConfigInfo()
                                        8
     __sti__routine()                   0
     operator+(string const &, char const *)
                                       44
     operator+(string const &, string const &)
                                       40
     string::string(string const &)    12


   Segment part sizes:

     Function/Label                 Bytes
     --------------                 -----
     string::string(string const &)   64
     operator+(string const &, string const &)
                                      88
     operator+(string const &, char const *)
                                      92
     TSNConfigInfo::ConfigInfoPtr      4
     TSNConfigInfo::HasConfigWritePermission
                                       1
     TSNConfigInfo::TSNConfigInfo()  328
     TSNConfigInfo::~TSNConfigInfo()
                                     116
     ?Subroutine7                      8
     TSNConfigInfo::WriteConfigToFile(TSNConfigString &)
                                    1836
     ?Subroutine8                     12
     TSNConfigInfo::LoadConfigFromFile(TSNConfigString &)
                                     880
     ?<Constant "NN">                  3
     ?<Constant "Comments for previous...">
                                      64
     ?<Constant " ">                   2
     ?<Constant "ENDCONFIGREVTEXT">   20
     ?<Constant "Configuration info">
                                      20
     TSNConfigInfo::new TSNConfigInfo()
                                      32
     TSNConfigInfo::delete ~TSNConfigInfo(TSNConfigInfo *)
                                      28
     __sti__routine()                  4
     ??DataTable2                      4
     ??DataTable5                      4
     ??DataTable8                      4
      Others                         320

 
 3 804 bytes in segment CODE
   109 bytes in segment DATA_C
     5 bytes in segment DATA_Z
     4 bytes in segment DIFUNCT
    12 bytes in segment INITTAB
 
 3 260 bytes of CODE  memory (+ 560 bytes shared)
   109 bytes of CONST memory
     5 bytes of DATA  memory

Errors: none
Warnings: none
