##############################################################################
#                                                                            #
# IAR ARM ANSI C/C++ Compiler V4.42A/W32               14/Sep/2022  15:19:56 #
# Copyright 1999-2005 IAR Systems. All rights reserved.                      #
#                                                                            #
#    Cpu mode        =  interwork                                            #
#    Endian          =  little                                               #
#    Stack alignment =  4                                                    #
#    Source file     =  D:\S2Prog\Shared\Src\TSNUtilities.cpp                #
#    Command line    =  D:\S2Prog\Shared\Src\TSNUtilities.cpp --fpu None -D  #
#                       OS_LIBMODE_SP -D CPU_S3C2410 -D OS_RAMVECT=0 -D      #
#                       OS_UART=-1 -D S2TXU -D USE_LZO=1 -D __ARM_LIBRARY__  #
#                       -D WATCHDOG=1 -D NETWORK=1 -lCN                      #
#                       D:\S2Prog\TXU\Debug\List\ -o                         #
#                       D:\S2Prog\TXU\Debug\Obj\ -z9 --debug --cpu_mode arm  #
#                       --endian little --cpu ARM920T --stack_align 4        #
#                       --interwork -e --enable_multibytes --eec++           #
#                       --dlib_config "C:\Program Files (x86)\IAR            #
#                       Systems\Embedded Workbench                           #
#                       4.0\arm\LIB\dl4tpainl8n.h" -I                        #
#                       D:\S2Prog\TXU\GUI\CORE\ -I D:\S2Prog\TXU\GUI\WM\ -I  #
#                       D:\S2Prog\TXU\GUI\WIDGET\ -I D:\S2Prog\TXU\CONFIG\   #
#                       -I D:\S2Prog\TXU\INC\ -I D:\S2Prog\TXU\..\SHARED\INC #
#                       \ -I D:\S2Prog\TXU\..\SHARED\SRC\ -I                 #
#                       D:\S2Prog\TXU\..\SHARED\LZO\minilzo.210\ -I          #
#                       D:\S2Prog\TXU\lwip-1.4.1\src\include\ -I             #
#                       D:\S2Prog\TXU\lwip-1.4.1\src\include\ipv4\ -I        #
#                       D:\S2Prog\TXU\lwip-1.4.1\src\ -I                     #
#                       D:\S2Prog\TXU\..\SHARED\Database\ -I                 #
#                       D:\S2Prog\TXU\src\ -I "C:\Program Files (x86)\IAR    #
#                       Systems\Embedded Workbench 4.0\arm\INC\"             #
#                       --inline_threshold=2                                 #
#    List file       =  D:\S2Prog\TXU\Debug\List\TSNUtilities.lst            #
#    Object file     =  D:\S2Prog\TXU\Debug\Obj\TSNUtilities.r79             #
#                                                                            #
#                                                                            #
##############################################################################

D:\S2Prog\Shared\Src\TSNUtilities.cpp
      1          #pragma hdrstop
      2          #include <complex>

   \                                 In segment CODE, align 4, keep-with-next
   \   __??Code32?? __code __interwork __atpcs double pow(double, int)
   \                     ??pow:
   \   00000000   F0432DE9           PUSH     {R4-R9,LR}
   \   00000004   0040A0E1           MOV      R4,R0
   \   00000008   0150A0E1           MOV      R5,R1
   \   0000000C   0260A0E1           MOV      R6,R2
   \   00000010   0670B0E1           MOVS     R7,R6
   \   00000014   00706742           RSBMI    R7,R7,#+0
   \   00000018   0080A0E3           MOV      R8,#+0
   \   0000001C   C095A0E3           MOV      R9,#+805306368
   \   00000020   FF9689E3           ORR      R9,R9,#0xFF00000
   \   00000024   060000EA           B        ??pow_1
   \                     ??pow_2:
   \   00000028   0420A0E1           MOV      R2,R4
   \   0000002C   0530A0E1           MOV      R3,R5
   \   00000030   0400A0E1           MOV      R0,R4
   \   00000034   0510A0E1           MOV      R1,R5
   \   00000038   ........           _BLF     __dMul,??__dMul??rA
   \   0000003C   0040A0E1           MOV      R4,R0
   \   00000040   0150A0E1           MOV      R5,R1
   \                     ??pow_1:
   \   00000044   010017E3           TST      R7,#0x1
   \   00000048   0600000A           BEQ      ??pow_3
   \   0000004C   0420A0E1           MOV      R2,R4
   \   00000050   0530A0E1           MOV      R3,R5
   \   00000054   0800A0E1           MOV      R0,R8
   \   00000058   0910A0E1           MOV      R1,R9
   \   0000005C   ........           _BLF     __dMul,??__dMul??rA
   \   00000060   0080A0E1           MOV      R8,R0
   \   00000064   0190A0E1           MOV      R9,R1
   \                     ??pow_3:
   \   00000068   A770B0E1           LSRS     R7,R7,#+1
   \   0000006C   EDFFFF1A           BNE      ??pow_2
   \   00000070   000056E3           CMP      R6,#+0
   \   00000074   0700005A           BPL      ??pow_4
   \   00000078   0000A0E3           MOV      R0,#+0
   \   0000007C   C015A0E3           MOV      R1,#+805306368
   \   00000080   FF1681E3           ORR      R1,R1,#0xFF00000
   \   00000084   0820A0E1           MOV      R2,R8
   \   00000088   0930A0E1           MOV      R3,R9
   \   0000008C   ........           _BLF     __dDiv,??__dDiv??rA
   \   00000090   0080A0E1           MOV      R8,R0
   \   00000094   0190A0E1           MOV      R9,R1
   \                     ??pow_4:
   \   00000098   0800A0E1           MOV      R0,R8
   \   0000009C   0910A0E1           MOV      R1,R9
   \   000000A0   F043BDE8           POP      {R4-R9,LR}
   \   000000A4   1EFF2FE1           BX       LR               ;; return

   \                                 In segment CODE, align 4, keep-with-next
   \   __??Code32?? __intrinsic __code __interwork __atpcs int tolower(int)
   \                     tolower:
   \   00000000   410050E3           CMP      R0,#+65
   \   00000004   1EFF2FB1           BXLT     LR
   \   00000008   5B0050E3           CMP      R0,#+91
   \   0000000C   200080B2           ADDLT    R0,R0,#+32
   \   00000010   1EFF2FE1           BX       LR               ;; return
      3          // ---------------------------------------------------------------------------
      4          
      5          #ifdef BORLAND
      6              #ifdef ANWIN
      7                  #include "ANWinInc.h"
      8                  #include "MainUnit.h"
      9                  #pragma hdrstop
     10              #else
     11                  #include "TSNIncludes.h"
     12              #endif
     13          #else
     14              #ifdef ANBOOTLOADER
     15                  #include "Rtos.h"
     16                  #include "ANPRO10Inc.h"
     17                  #include "2410addr.h"
     18                  #include "2410slib.h"
     19                  #include "mx29LV160TB.h"
     20                  #include "FixedVariables.h"
     21          
     22          extern void LCD_BackLightOn(void);
     23          extern short GlobalDeviceHWId;
     24              #else
     25                  #include "TSNIncludes.h"

   \                                 In segment CODE, align 4, keep-with-next
   \   __??Code32?? __code __interwork __atpcs _Tree_algobase<allocator<void>>::_Genptr _Tree_algobase<allocator<void>>::_DecP(_Tree_algobase<allocator<void>>::_Genptr)
   \                     ??_DecP:
   \   00000000   0D10D0E5           LDRB     R1,[R0, #+13]
   \   00000004   000051E3           CMP      R1,#+0
   \   00000008   08009015           LDRNE    R0,[R0, #+8]
   \   0000000C   1EFF2F11           BXNE     LR
   \   00000010   001090E5           LDR      R1,[R0, #+0]
   \   00000014   0D20D1E5           LDRB     R2,[R1, #+13]
   \   00000018   000052E3           CMP      R2,#+0
   \   0000001C   0700001A           BNE      ??_DecP_1
   \   00000020   000000EA           B        ??_DecP_2
   \                     ??_DecP_3:
   \   00000024   0010A0E1           MOV      R1,R0
   \                     ??_DecP_2:
   \   00000028   080091E5           LDR      R0,[R1, #+8]
   \   0000002C   0D20D0E5           LDRB     R2,[R0, #+13]
   \   00000030   000052E3           CMP      R2,#+0
   \   00000034   FAFFFF0A           BEQ      ??_DecP_3
   \   00000038   0100A0E1           MOV      R0,R1
   \   0000003C   1EFF2FE1           BX       LR
   \                     ??_DecP_1:
   \   00000040   041090E5           LDR      R1,[R0, #+4]
   \   00000044   0D20D1E5           LDRB     R2,[R1, #+13]
   \   00000048   000052E3           CMP      R2,#+0
   \   0000004C   1EFF2F11           BXNE     LR
   \   00000050   002091E5           LDR      R2,[R1, #+0]
   \   00000054   020050E1           CMP      R0,R2
   \   00000058   0100A0E1           MOV      R0,R1
   \   0000005C   F7FFFF0A           BEQ      ??_DecP_1
   \   00000060   1EFF2FE1           BX       LR               ;; return

   \                                 In segment CODE, align 4, keep-with-next
   \   __??Code32?? __code __interwork __atpcs _Tree_algobase<allocator<void>>::_Genptr _Tree_algobase<allocator<void>>::_IncP(_Tree_algobase<allocator<void>>::_Genptr)
   \                     ??_IncP:
   \   00000000   0D10D0E5           LDRB     R1,[R0, #+13]
   \   00000004   000051E3           CMP      R1,#+0
   \   00000008   1EFF2F11           BXNE     LR
   \   0000000C   081090E5           LDR      R1,[R0, #+8]
   \   00000010   0D20D1E5           LDRB     R2,[R1, #+13]
   \   00000014   000052E3           CMP      R2,#+0
   \   00000018   0700001A           BNE      ??_IncP_1
   \   0000001C   000000EA           B        ??_IncP_2
   \                     ??_IncP_3:
   \   00000020   0010A0E1           MOV      R1,R0
   \                     ??_IncP_2:
   \   00000024   000091E5           LDR      R0,[R1, #+0]
   \   00000028   0D20D0E5           LDRB     R2,[R0, #+13]
   \   0000002C   000052E3           CMP      R2,#+0
   \   00000030   FAFFFF0A           BEQ      ??_IncP_3
   \   00000034   060000EA           B        ??_IncP_4
   \                     ??_IncP_5:
   \   00000038   0100A0E1           MOV      R0,R1
   \                     ??_IncP_1:
   \   0000003C   041090E5           LDR      R1,[R0, #+4]
   \   00000040   0D20D1E5           LDRB     R2,[R1, #+13]
   \   00000044   000052E3           CMP      R2,#+0
   \   00000048   08209105           LDREQ    R2,[R1, #+8]
   \   0000004C   02005001           CMPEQ    R0,R2
   \   00000050   F8FFFF0A           BEQ      ??_IncP_5
   \                     ??_IncP_4:
   \   00000054   0100A0E1           MOV      R0,R1
   \   00000058   1EFF2FE1           BX       LR               ;; return

   \                                 In segment CODE, align 4, keep-with-next
   \   __??Code32?? __code __interwork __atpcs void _Tree_algobase<allocator<void>>::_Rrotate(_Tree_algobase<allocator<void>>::_Genptr)
   \                     ??_Rrotate:
   \   00000000   002091E5           LDR      R2,[R1, #+0]
   \   00000004   083092E5           LDR      R3,[R2, #+8]
   \   00000008   003081E5           STR      R3,[R1, #+0]
   \   0000000C   083092E5           LDR      R3,[R2, #+8]
   \   00000010   0DC0D3E5           LDRB     R12,[R3, #+13]
   \   00000014   00005CE3           CMP      R12,#+0
   \   00000018   04108305           STREQ    R1,[R3, #+4]
   \   0000001C   043091E5           LDR      R3,[R1, #+4]
   \   00000020   043082E5           STR      R3,[R2, #+4]
   \   00000024   043090E5           LDR      R3,[R0, #+4]
   \   00000028   030051E1           CMP      R1,R3
   \   0000002C   04208005           STREQ    R2,[R0, #+4]
   \   00000030   0400000A           BEQ      ??_Rrotate_1
   \   00000034   040091E5           LDR      R0,[R1, #+4]
   \   00000038   083090E5           LDR      R3,[R0, #+8]
   \   0000003C   030051E1           CMP      R1,R3
   \   00000040   08208005           STREQ    R2,[R0, #+8]
   \   00000044   00208015           STRNE    R2,[R0, #+0]
   \                     ??_Rrotate_1:
   \   00000048   081082E5           STR      R1,[R2, #+8]
   \   0000004C   042081E5           STR      R2,[R1, #+4]
   \   00000050   1EFF2FE1           BX       LR               ;; return

   \                                 In segment CODE, align 4, keep-with-next
   \   __??Code32?? __code __interwork __atpcs void _Tree_algobase<allocator<void>>::_Lrotate(_Tree_algobase<allocator<void>>::_Genptr)
   \                     ??_Lrotate:
   \   00000000   082091E5           LDR      R2,[R1, #+8]
   \   00000004   003092E5           LDR      R3,[R2, #+0]
   \   00000008   083081E5           STR      R3,[R1, #+8]
   \   0000000C   003092E5           LDR      R3,[R2, #+0]
   \   00000010   0DC0D3E5           LDRB     R12,[R3, #+13]
   \   00000014   00005CE3           CMP      R12,#+0
   \   00000018   04108305           STREQ    R1,[R3, #+4]
   \   0000001C   043091E5           LDR      R3,[R1, #+4]
   \   00000020   043082E5           STR      R3,[R2, #+4]
   \   00000024   043090E5           LDR      R3,[R0, #+4]
   \   00000028   030051E1           CMP      R1,R3
   \   0000002C   04208005           STREQ    R2,[R0, #+4]
   \   00000030   0400000A           BEQ      ??_Lrotate_1
   \   00000034   040091E5           LDR      R0,[R1, #+4]
   \   00000038   003090E5           LDR      R3,[R0, #+0]
   \   0000003C   030051E1           CMP      R1,R3
   \   00000040   00208005           STREQ    R2,[R0, #+0]
   \   00000044   08208015           STRNE    R2,[R0, #+8]
   \                     ??_Lrotate_1:
   \   00000048   001082E5           STR      R1,[R2, #+0]
   \   0000004C   042081E5           STR      R2,[R1, #+4]
   \   00000050   1EFF2FE1           BX       LR               ;; return

   \                                 In segment CODE, align 4, keep-with-next
   \   __??Code32?? __code __interwork __atpcs void _Tree_algobase<allocator<void>>::_Insert(bool, _Tree_algobase<allocator<void>>::_Genptr, _Tree_algobase<allocator<void>>::_Genptr)
   \                     ??_Insert:
   \   00000000   F0402DE9           PUSH     {R4-R7,LR}
   \   00000004   0040A0E1           MOV      R4,R0
   \   00000008   100094E5           LDR      R0,[R4, #+16]
   \   0000000C   0350A0E1           MOV      R5,R3
   \   00000010   010080E2           ADD      R0,R0,#+1
   \   00000014   100084E5           STR      R0,[R4, #+16]
   \   00000018   040052E1           CMP      R2,R4
   \   0000001C   0300001A           BNE      ??_Insert_3
   \   00000020   045084E5           STR      R5,[R4, #+4]
   \   00000024   005084E5           STR      R5,[R4, #+0]
   \                     ??_Insert_4:
   \   00000028   085084E5           STR      R5,[R4, #+8]
   \   0000002C   130000EA           B        ??_Insert_5
   \                     ??_Insert_3:
   \   00000030   000051E3           CMP      R1,#+0
   \   00000034   0500000A           BEQ      ??_Insert_6
   \   00000038   005082E5           STR      R5,[R2, #+0]
   \   0000003C   000094E5           LDR      R0,[R4, #+0]
   \   00000040   000052E1           CMP      R2,R0
   \   00000044   0D00001A           BNE      ??_Insert_5
   \   00000048   005084E5           STR      R5,[R4, #+0]
   \   0000004C   0B0000EA           B        ??_Insert_5
   \                     ??_Insert_6:
   \   00000050   085082E5           STR      R5,[R2, #+8]
   \   00000054   080094E5           LDR      R0,[R4, #+8]
   \   00000058   000052E1           CMP      R2,R0
   \   0000005C   0700001A           BNE      ??_Insert_5
   \   00000060   F0FFFFEA           B        ??_Insert_4
   \                     ??_Insert_7:
   \   00000064   0C70C0E5           STRB     R7,[R0, #+12]
   \   00000068   0C70C2E5           STRB     R7,[R2, #+12]
   \   0000006C   040095E5           LDR      R0,[R5, #+4]
   \   00000070   040090E5           LDR      R0,[R0, #+4]
   \   00000074   0C60C0E5           STRB     R6,[R0, #+12]
   \   00000078   040095E5           LDR      R0,[R5, #+4]
   \   0000007C   045090E5           LDR      R5,[R0, #+4]
   \                     ??_Insert_5:
   \   00000080   0170A0E3           MOV      R7,#+1
   \   00000084   040095E5           LDR      R0,[R5, #+4]
   \   00000088   0C10D0E5           LDRB     R1,[R0, #+12]
   \   0000008C   000051E3           CMP      R1,#+0
   \   00000090   2F00001A           BNE      ??_Insert_8
   \   00000094   041090E5           LDR      R1,[R0, #+4]
   \   00000098   0060A0E3           MOV      R6,#+0
   \   0000009C   001091E5           LDR      R1,[R1, #+0]
   \   000000A0   010050E1           CMP      R0,R1
   \   000000A4   041090E5           LDR      R1,[R0, #+4]
   \   000000A8   1400001A           BNE      ??_Insert_9
   \   000000AC   082091E5           LDR      R2,[R1, #+8]
   \   000000B0   0C10D2E5           LDRB     R1,[R2, #+12]
   \   000000B4   000051E3           CMP      R1,#+0
   \   000000B8   E9FFFF0A           BEQ      ??_Insert_7
   \   000000BC   081090E5           LDR      R1,[R0, #+8]
   \   000000C0   010055E1           CMP      R5,R1
   \   000000C4   0300001A           BNE      ??_Insert_10
   \   000000C8   0050A0E1           MOV      R5,R0
   \   000000CC   0510A0E1           MOV      R1,R5
   \   000000D0   0400A0E1           MOV      R0,R4
   \   000000D4   ........           _BLF     ??_Lrotate,??_Lrotate??rA
   \                     ??_Insert_10:
   \   000000D8   040095E5           LDR      R0,[R5, #+4]
   \   000000DC   0C70C0E5           STRB     R7,[R0, #+12]
   \   000000E0   040095E5           LDR      R0,[R5, #+4]
   \   000000E4   040090E5           LDR      R0,[R0, #+4]
   \   000000E8   0C60C0E5           STRB     R6,[R0, #+12]
   \   000000EC   040095E5           LDR      R0,[R5, #+4]
   \   000000F0   041090E5           LDR      R1,[R0, #+4]
   \   000000F4   0400A0E1           MOV      R0,R4
   \   000000F8   ........           _BLF     ??_Rrotate,??_Rrotate??rA
   \   000000FC   DFFFFFEA           B        ??_Insert_5
   \                     ??_Insert_9:
   \   00000100   002091E5           LDR      R2,[R1, #+0]
   \   00000104   0C10D2E5           LDRB     R1,[R2, #+12]
   \   00000108   000051E3           CMP      R1,#+0
   \   0000010C   D4FFFF0A           BEQ      ??_Insert_7
   \   00000110   001090E5           LDR      R1,[R0, #+0]
   \   00000114   010055E1           CMP      R5,R1
   \   00000118   0300001A           BNE      ??_Insert_11
   \   0000011C   0050A0E1           MOV      R5,R0
   \   00000120   0510A0E1           MOV      R1,R5
   \   00000124   0400A0E1           MOV      R0,R4
   \   00000128   ........           _BLF     ??_Rrotate,??_Rrotate??rA
   \                     ??_Insert_11:
   \   0000012C   040095E5           LDR      R0,[R5, #+4]
   \   00000130   0C70C0E5           STRB     R7,[R0, #+12]
   \   00000134   040095E5           LDR      R0,[R5, #+4]
   \   00000138   040090E5           LDR      R0,[R0, #+4]
   \   0000013C   0C60C0E5           STRB     R6,[R0, #+12]
   \   00000140   040095E5           LDR      R0,[R5, #+4]
   \   00000144   041090E5           LDR      R1,[R0, #+4]
   \   00000148   0400A0E1           MOV      R0,R4
   \   0000014C   ........           _BLF     ??_Lrotate,??_Lrotate??rA
   \   00000150   CAFFFFEA           B        ??_Insert_5
   \                     ??_Insert_8:
   \   00000154   040094E5           LDR      R0,[R4, #+4]
   \   00000158   0C70C0E5           STRB     R7,[R0, #+12]
   \   0000015C   F040BDE8           POP      {R4-R7,LR}
   \   00000160   1EFF2FE1           BX       LR               ;; return

   \                                 In segment CODE, align 4, keep-with-next
   \   __??Code32?? __code __interwork __atpcs _Tree<_Tset_traits<unsigned int, less<unsigned int>, allocator<unsigned int>, false>>::_Pairib _Tree<_Tset_traits<unsigned int, less<unsigned int>, allocator<unsigned int>, false>>::insert(unsigned int)
   \                     ??insert:
   \   00000000   F3432DE9           PUSH     {R0,R1,R4-R9,LR}
   \   00000004   0040A0E1           MOV      R4,R0
   \   00000008   0160A0E1           MOV      R6,R1
   \   0000000C   040096E5           LDR      R0,[R6, #+4]
   \   00000010   0270A0E1           MOV      R7,R2
   \   00000014   0680A0E1           MOV      R8,R6
   \   00000018   0190A0E3           MOV      R9,#+1
   \                     ??insert_1:
   \   0000001C   0D10D0E5           LDRB     R1,[R0, #+13]
   \   00000020   000051E3           CMP      R1,#+0
   \   00000024   0700001A           BNE      ??insert_2
   \   00000028   101090E5           LDR      R1,[R0, #+16]
   \   0000002C   0080A0E1           MOV      R8,R0
   \   00000030   010057E1           CMP      R7,R1
   \   00000034   00009035           LDRCC    R0,[R0, #+0]
   \   00000038   0190A033           MOVCC    R9,#+1
   \   0000003C   08009025           LDRCS    R0,[R0, #+8]
   \   00000040   0090A023           MOVCS    R9,#+0
   \   00000044   F4FFFFEA           B        ??insert_1
   \                     ??insert_2:
   \   00000048   0800A0E1           MOV      R0,R8
   \   0000004C   0150A0E3           MOV      R5,#+1
   \   00000050   000059E3           CMP      R9,#+0
   \   00000054   0B00000A           BEQ      ??insert_3
   \   00000058   001096E5           LDR      R1,[R6, #+0]
   \   0000005C   010050E1           CMP      R0,R1
   \   00000060   0700001A           BNE      ??insert_4
   \   00000064   0730A0E1           MOV      R3,R7
   \   00000068   0820A0E1           MOV      R2,R8
   \   0000006C   0110A0E3           MOV      R1,#+1
   \                     ??insert_5:
   \   00000070   0600A0E1           MOV      R0,R6
   \   00000074   ........           _BLF     ??_Insert_1,??_Insert??rA
   \   00000078   00008DE5           STR      R0,[SP, #+0]
   \   0000007C   0450CDE5           STRB     R5,[SP, #+4]
   \   00000080   0A0000EA           B        ??insert_6
   \                     ??insert_4:
   \   00000084   ........           _BLF     ??_DecP,??_DecP??rA
   \                     ??insert_3:
   \   00000088   101090E5           LDR      R1,[R0, #+16]
   \   0000008C   070051E1           CMP      R1,R7
   \   00000090   0300002A           BCS      ??insert_7
   \   00000094   0730A0E1           MOV      R3,R7
   \   00000098   0820A0E1           MOV      R2,R8
   \   0000009C   0910A0E1           MOV      R1,R9
   \   000000A0   F2FFFFEA           B        ??insert_5
   \                     ??insert_7:
   \   000000A4   00008DE5           STR      R0,[SP, #+0]
   \   000000A8   0010A0E3           MOV      R1,#+0
   \   000000AC   0410CDE5           STRB     R1,[SP, #+4]
   \                     ??insert_6:
   \   000000B0   0D00A0E1           MOV      R0,SP
   \   000000B4   030090E8           LDM      R0,{R0,R1}
   \   000000B8   030084E8           STM      R4,{R0,R1}
   \   000000BC   0400A0E1           MOV      R0,R4
   \   000000C0   F643BDE8           POP      {R1,R2,R4-R9,LR}
   \   000000C4   1EFF2FE1           BX       LR               ;; return

   \                                 In segment CODE, align 4, keep-with-next
   \   __??Code32?? __code __interwork __atpcs _Tree<_Tset_traits<unsigned int, less<unsigned int>, allocator<unsigned int>, false>>::iterator _Tree<_Tset_traits<unsigned int, less<unsigned int>, allocator<unsigned int>, false>>::_Insert(bool, _Tree<_Tset_traits<unsigned int, less<unsigned int>, allocator<unsigned int>, false>>::_Nodeptr, unsigned int)
   \                     ??_Insert_1:
   \   00000000   F0412DE9           PUSH     {R4-R8,LR}
   \   00000004   0040A0E1           MOV      R4,R0
   \   00000008   0150A0E1           MOV      R5,R1
   \   0000000C   0260A0E1           MOV      R6,R2
   \   00000010   0370A0E1           MOV      R7,R3
   \   00000014   1400A0E3           MOV      R0,#+20
   \   00000018   ........           _BLF     `??operator new`,`??operator new??rA`
   \   0000001C   0080B0E1           MOVS     R8,R0
   \   00000020   0600000A           BEQ      ??_Insert_12
   \   00000024   004088E5           STR      R4,[R8, #+0]
   \   00000028   046088E5           STR      R6,[R8, #+4]
   \   0000002C   084088E5           STR      R4,[R8, #+8]
   \   00000030   0000A0E3           MOV      R0,#+0
   \   00000034   0C00C8E5           STRB     R0,[R8, #+12]
   \   00000038   0D00C8E5           STRB     R0,[R8, #+13]
   \   0000003C   107088E5           STR      R7,[R8, #+16]
   \                     ??_Insert_12:
   \   00000040   0830A0E1           MOV      R3,R8
   \   00000044   0620A0E1           MOV      R2,R6
   \   00000048   0510A0E1           MOV      R1,R5
   \   0000004C   0400A0E1           MOV      R0,R4
   \   00000050   ........           _BLF     ??_Insert,??_Insert??rA_1
   \   00000054   0800A0E1           MOV      R0,R8
   \   00000058   F041BDE8           POP      {R4-R8,LR}
   \   0000005C   1EFF2FE1           BX       LR               ;; return

   \                                 In segment CODE, align 4, keep-with-next
   \   __??Code32?? __code __interwork __atpcs PRogramObjectBase ** _Vector_impl<PRogramObjectBase *, allocator<PRogramObjectBase *>>::_Insert(PRogramObjectBase **, PRogramObjectBase * const &)
   \                     ??_Insert_2:
   \   00000000   70402DE9           PUSH     {R4-R6,LR}
   \   00000004   005092E5           LDR      R5,[R2, #+0]
   \   00000008   0040A0E1           MOV      R4,R0
   \   0000000C   000094E5           LDR      R0,[R4, #+0]
   \   00000010   0120A0E3           MOV      R2,#+1
   \   00000014   000050E3           CMP      R0,#+0
   \   00000018   0060A003           MOVEQ    R6,#+0
   \   0000001C   00604110           SUBNE    R6,R1,R0
   \   00000020   0400A0E1           MOV      R0,R4
   \   00000024   ........           _BLF     ??_Make_room,??_Make_room??rA
   \   00000028   0110A0E3           MOV      R1,#+1
   \                     ??_Insert_13:
   \   0000002C   ........           STR      R5,[R0], #+4
   \   00000030   011051E2           SUBS     R1,R1,#+1
   \   00000034   FCFFFF1A           BNE      ??_Insert_13
   \   00000038   000094E5           LDR      R0,[R4, #+0]
   \   0000003C   000086E0           ADD      R0,R6,R0
   \   00000040   7040BDE8           POP      {R4-R6,LR}
   \   00000044   1EFF2FE1           BX       LR               ;; return

   \                                 In segment CODE, align 4, keep-with-next
   \   __??Code32?? __code __interwork __atpcs PRogramObjectBase ** _Vector_impl<PRogramObjectBase *, allocator<PRogramObjectBase *>>::_Make_room(PRogramObjectBase **, unsigned int)
   \                     ??_Make_room:
   \   00000000   F0472DE9           PUSH     {R4-R10,LR}
   \   00000004   0040A0E1           MOV      R4,R0
   \   00000008   000094E5           LDR      R0,[R4, #+0]
   \   0000000C   0150A0E1           MOV      R5,R1
   \   00000010   081094E5           LDR      R1,[R4, #+8]
   \   00000014   0260A0E1           MOV      R6,R2
   \   00000018   001041E0           SUB      R1,R1,R0
   \   0000001C   2171A0E1           LSR      R7,R1,#+2
   \   00000020   041094E5           LDR      R1,[R4, #+4]
   \   00000024   000056E3           CMP      R6,#+0
   \   00000028   000041E0           SUB      R0,R1,R0
   \   0000002C   2001A0E1           LSR      R0,R0,#+2
   \   00000030   2C00000A           BEQ      ??_Make_room_1
   \   00000034   C024E0E3           MVN      R2,#-1073741824
   \   00000038   002042E0           SUB      R2,R2,R0
   \   0000003C   060052E1           CMP      R2,R6
   \   00000040   2800003A           BCC      ??_Make_room_1
   \   00000044   008086E0           ADD      R8,R6,R0
   \   00000048   080057E1           CMP      R7,R8
   \   0000004C   1F00002A           BCS      ??_Make_room_2
   \   00000050   A700A0E1           LSR      R0,R7,#+1
   \   00000054   C014E0E3           MVN      R1,#-1073741824
   \   00000058   001041E0           SUB      R1,R1,R0
   \   0000005C   070051E1           CMP      R1,R7
   \   00000060   0070A033           MOVCC    R7,#+0
   \   00000064   07708020           ADDCS    R7,R0,R7
   \   00000068   080057E1           CMP      R7,R8
   \   0000006C   0870A031           MOVCC    R7,R8
   \   00000070   0701A0E1           LSL      R0,R7,#+2
   \   00000074   ........           _BLF     `??operator new`,`??operator new??rA`
   \   00000078   0090A0E1           MOV      R9,R0
   \   0000007C   000094E5           LDR      R0,[R4, #+0]
   \   00000080   0920A0E1           MOV      R2,R9
   \   00000084   0510A0E1           MOV      R1,R5
   \   00000088   ........           _BLF     _Copy_a4,??_Copy_a4??rA
   \   0000008C   041094E5           LDR      R1,[R4, #+4]
   \   00000090   00A0A0E1           MOV      R10,R0
   \   00000094   06218AE0           ADD      R2,R10,R6, LSL #+2
   \   00000098   0500A0E1           MOV      R0,R5
   \   0000009C   ........           _BLF     _Copy_a4,??_Copy_a4??rA
   \   000000A0   000094E5           LDR      R0,[R4, #+0]
   \   000000A4   000050E3           CMP      R0,#+0
   \   000000A8   0100000A           BEQ      ??_Make_room_3
   \   000000AC   040084E5           STR      R0,[R4, #+4]
   \   000000B0   ........           _BLF     `??operator delete`,`??operator delete??rA`
   \                     ??_Make_room_3:
   \   000000B4   070189E0           ADD      R0,R9,R7, LSL #+2
   \   000000B8   080084E5           STR      R0,[R4, #+8]
   \   000000BC   080189E0           ADD      R0,R9,R8, LSL #+2
   \   000000C0   040084E5           STR      R0,[R4, #+4]
   \   000000C4   009084E5           STR      R9,[R4, #+0]
   \   000000C8   0A50A0E1           MOV      R5,R10
   \   000000CC   050000EA           B        ??_Make_room_1
   \                     ??_Make_room_2:
   \   000000D0   062181E0           ADD      R2,R1,R6, LSL #+2
   \   000000D4   0500A0E1           MOV      R0,R5
   \   000000D8   ........           _BLF     _Copy_backward_a4,??_Copy_backward_a4??rA
   \   000000DC   040094E5           LDR      R0,[R4, #+4]
   \   000000E0   060180E0           ADD      R0,R0,R6, LSL #+2
   \   000000E4   040084E5           STR      R0,[R4, #+4]
   \                     ??_Make_room_1:
   \   000000E8   0500A0E1           MOV      R0,R5
   \   000000EC   F047BDE8           POP      {R4-R10,LR}
   \   000000F0   1EFF2FE1           BX       LR               ;; return

   \                                 In segment CODE, align 4, keep-with-next
   \   __??Code32?? __code __interwork __atpcs void _Vector_impl<PRogramObjectBase *, allocator<PRogramObjectBase *>>::_Push_back0(PRogramObjectBase *)
   \                     ??_Push_back0:
   \   00000000   02402DE9           PUSH     {R1,LR}
   \   00000004   041090E5           LDR      R1,[R0, #+4]
   \   00000008   082090E5           LDR      R2,[R0, #+8]
   \   0000000C   020051E1           CMP      R1,R2
   \   00000010   0800002A           BCS      ??_Push_back0_1
   \   00000014   00209DE5           LDR      R2,[SP, #+0]
   \   00000018   0130A0E3           MOV      R3,#+1
   \   0000001C   01C0A0E1           MOV      R12,R1
   \                     ??_Push_back0_2:
   \   00000020   ........           STR      R2,[R12], #+4
   \   00000024   013053E2           SUBS     R3,R3,#+1
   \   00000028   FCFFFF1A           BNE      ??_Push_back0_2
   \   0000002C   041081E2           ADD      R1,R1,#+4
   \   00000030   041080E5           STR      R1,[R0, #+4]
   \   00000034   010000EA           B        ??_Push_back0_3
   \                     ??_Push_back0_1:
   \   00000038   0D20A0E1           MOV      R2,SP
   \   0000003C   ........           _BLF     ??_Insert_2,??_Insert??rA_2
   \                     ??_Push_back0_3:
   \   00000040   0140BDE8           POP      {R0,LR}
   \   00000044   1EFF2FE1           BX       LR               ;; return

   \                                 In segment DATA_AN, at 0x31fff010
   \   unsigned int volatile __data LastOSError
   \                     LastOSError:
   \   00000000                      DS8 4

   \                                 In segment DATA_AN, at 0x31fff01c
   \   char __data LastOSErrorTask[32]
   \                     LastOSErrorTask:
   \   00000000                      DS8 32
     26          
     27              #endif
     28              #if (WATCHDOG == 1)
     29          extern TSN_TASK WatchDogTaskHandle;
     30              #endif
     31          
     32              #if defined(S2TXU) || defined(ANBOOTLOADER)
     33          
     34          extern "C"
     35          {
     36          extern time_t _Tzoff();
     37          }
     38              #endif
     39          #endif
     40          
     41          /// Time defines
     42          #define ONE_DAY 86400L
     43          
     44          // ---------------------------------------------------------------------------
     45          
     46          //////////////////////////////////////////////////////////////////////////////
     47          //
     48          // Event handling
     49          //
     50          //////////////////////////////////////////////////////////////////////////////
     51          
     52          #if defined(S2TXU) || defined(ANBOOTLOADER)
     53          #else
     54          volatile unsigned char PhysKeyPressed = 0x0;
     55          TSN_HANDLE PWEventHandl;
     56          
     57          bool TSN_SetGuiEvent(TSN_HANDLE EventHandl) {
     58              return ((bool)SetEvent(EventHandl));
     59          }
     60          
     61          void My_COM_Send1(char c) {
     62          }
     63          #endif
     64          
     65          ///////////////////////////////////////////////////////////////////
     66          //
     67          // Routines to get around alignment problems
     68          //
     69          //////////////////////////////////////////////////////////////////
     70          

   \                                 In segment CODE, align 4, keep-with-next
     71          U16 GetU16(U8 *Ptr) {
     72              return (Ptr[1] << 8) | Ptr[0];
   \                     ??GetU16:
   \   00000000   0110D0E5           LDRB     R1,[R0, #+1]
   \   00000004   0000D0E5           LDRB     R0,[R0, #+0]
   \   00000008   010480E1           ORR      R0,R0,R1, LSL #+8
   \   0000000C   1EFF2FE1           BX       LR               ;; return
     73          }
     74          

   \                                 In segment CODE, align 4, keep-with-next
     75          U32 GetU32(U8 *Ptr) {
     76              return (Ptr[3] << 24) | (Ptr[2] << 16) | (Ptr[1] << 8) | Ptr[0];
   \                     ??GetU32:
   \   00000000   0310D0E5           LDRB     R1,[R0, #+3]
   \   00000004   0220D0E5           LDRB     R2,[R0, #+2]
   \   00000008   0228A0E1           LSL      R2,R2,#+16
   \   0000000C   011C82E1           ORR      R1,R2,R1, LSL #+24
   \   00000010   0120D0E5           LDRB     R2,[R0, #+1]
   \   00000014   0000D0E5           LDRB     R0,[R0, #+0]
   \   00000018   ........           B        ?Subroutine73
     77          }

   \                                 In segment CODE, align 4, keep-with-next
   \                     ?Subroutine73:
   \   00000000   021481E1           ORR      R1,R1,R2, LSL #+8
   \   00000004   010080E1           ORR      R0,R0,R1
   \   00000008   1EFF2FE1           BX       LR               ;; return
     78          

   \                                 In segment CODE, align 4, keep-with-next
     79          U32 GetU32BigEndian(U8 *Ptr) {
     80              return (Ptr[0] << 24) | (Ptr[1] << 16) | (Ptr[2] << 8) | Ptr[3];
   \                     ??GetU32BigEndian:
   \   00000000   0010D0E5           LDRB     R1,[R0, #+0]
   \   00000004   0120D0E5           LDRB     R2,[R0, #+1]
   \   00000008   0228A0E1           LSL      R2,R2,#+16
   \   0000000C   011C82E1           ORR      R1,R2,R1, LSL #+24
   \   00000010   0220D0E5           LDRB     R2,[R0, #+2]
   \   00000014   0300D0E5           LDRB     R0,[R0, #+3]
   \   00000018                      REQUIRE ?Subroutine73
   \   00000018                      ;; // Fall through to label ?Subroutine73
     81          }
     82          

   \                                 In segment CODE, align 4, keep-with-next
     83          void PutU16(U8 *Ptr, U16 Val) {
     84              Ptr[0] = Val & 0xff;
   \                     ??PutU16:
   \   00000000   0010C0E5           STRB     R1,[R0, #+0]
     85              Ptr[1] = Val >> 8;
   \   00000004   2114A0E1           LSR      R1,R1,#+8
   \   00000008   0110C0E5           STRB     R1,[R0, #+1]
     86          }
   \   0000000C   1EFF2FE1           BX       LR               ;; return
     87          

   \                                 In segment CODE, align 4, keep-with-next
     88          void PutU32(U8 *Ptr, unsigned Val) {
     89              Ptr[3] = Val >> 24;
   \                     ??PutU32:
   \   00000000   212CA0E1           LSR      R2,R1,#+24
   \   00000004   0320C0E5           STRB     R2,[R0, #+3]
     90              Ptr[2] = Val >> 16;
   \   00000008   2128A0E1           LSR      R2,R1,#+16
   \   0000000C   0220C0E5           STRB     R2,[R0, #+2]
     91              Ptr[1] = Val >> 8;
   \   00000010   2124A0E1           LSR      R2,R1,#+8
   \   00000014   0120C0E5           STRB     R2,[R0, #+1]
     92              Ptr[0] = Val & 0xff;
   \   00000018   0010C0E5           STRB     R1,[R0, #+0]
     93          }
   \   0000001C   1EFF2FE1           BX       LR               ;; return
     94          
     95          //////////////////////////////////////////////////////////////////////////////
     96          //
     97          // Date / Time functions
     98          //
     99          //////////////////////////////////////////////////////////////////////////////
    100          #ifndef ANBOOTLOADER
    101          

   \                                 In segment CODE, align 4, keep-with-next
    102          AnsiString TSNTime(const char Fmt[]) {
   \                     ??TSNTime:
   \   00000000   70402DE9           PUSH     {R4-R6,LR}
   \   00000004   54D04DE2           SUB      SP,SP,#+84
   \   00000008   0040A0E1           MOV      R4,R0
   \   0000000C   0150A0E1           MOV      R5,R1
    103              const time_t SecsNow = time(NULL) + 3600 * GetDaylightSaving();
   \   00000010   0000A0E3           MOV      R0,#+0
   \   00000014   ........           _BLF     time,??time??rA
   \   00000018   0060A0E1           MOV      R6,R0
   \   0000001C   ........           BL       ??GetDaylightSaving
   \   00000020   E11EA0E3           MOV      R1,#+3600
   \   00000024   916020E0           MLA      R0,R1,R0,R6
   \   00000028   00008DE5           STR      R0,[SP, #+0]
    104              struct tm *TimeNow = localtime(&SecsNow);
   \   0000002C   0D00A0E1           MOV      R0,SP
   \   00000030   ........           _BLF     localtime,??localtime??rA
    105              char Buf[BUF_SIZE];
    106              strftime(Buf, BUF_SIZE, Fmt, TimeNow);
   \   00000034   0030A0E1           MOV      R3,R0
   \   00000038   0520A0E1           MOV      R2,R5
   \   0000003C   5010A0E3           MOV      R1,#+80
   \   00000040   04008DE2           ADD      R0,SP,#+4
   \   00000044   ........           _BLF     strftime,??strftime??rA
    107              return (AnsiString)Buf;
   \   00000048   04108DE2           ADD      R1,SP,#+4
   \   0000004C   ........           B        ?Subroutine69
    108          }

   \                                 In segment CODE, align 4, keep-with-next
   \                     ?Subroutine69:
   \   00000000   0400A0E1           MOV      R0,R4
   \   00000004   ........           _BLF     ??AnsiString,??AnsiString??rA
   \   00000008   54D08DE2           ADD      SP,SP,#+84
   \                     ??Subroutine69_0:
   \   0000000C   7040BDE8           POP      {R4-R6,LR}
   \   00000010   1EFF2FE1           BX       LR               ;; return
    109          

   \                                 In segment CODE, align 4, keep-with-next
    110          AnsiString TSNTime(time_t Time, const char Fmt[]) {
   \                     ??TSNTime_1:
   \   00000000   72402DE9           PUSH     {R1,R4-R6,LR}
   \   00000004   50D04DE2           SUB      SP,SP,#+80
   \   00000008   0040A0E1           MOV      R4,R0
   \   0000000C   0250A0E1           MOV      R5,R2
    111              Time &= 0x7fffffff; // Remove the sign if any
    112          #ifdef S2TXU
    113              Time += 3600 * GetDaylightSaving();
   \   00000010   8160A0E1           LSL      R6,R1,#+1
   \   00000014   ........           BL       ??GetDaylightSaving
   \   00000018   E11EA0E3           MOV      R1,#+3600
   \   0000001C   910000E0           MUL      R0,R1,R0
   \   00000020   A60080E0           ADD      R0,R0,R6, LSR #+1
   \   00000024   50008DE5           STR      R0,[SP, #+80]
    114          #endif
    115          
    116              struct tm *TimeNow = localtime(&Time);
   \   00000028   50008DE2           ADD      R0,SP,#+80
   \   0000002C   ........           _BLF     localtime,??localtime??rA
    117          
    118          #ifdef ANWIN
    119              // Ensure a time is always displayed for each alarm, even if time data is invalid
    120              // (actual local time values can become negative, hence illegal, due to timezone adjustments).
    121              if (TimeNow == NULL) {
    122                  time_t replacementTime = 1;
    123                  TimeNow = gmtime(&replacementTime);
    124              }
    125          #endif
    126          
    127              char Buf[BUF_SIZE];
    128          
    129              strftime(Buf, BUF_SIZE, Fmt, TimeNow);
   \   00000030   0030A0E1           MOV      R3,R0
   \   00000034   0520A0E1           MOV      R2,R5
   \   00000038   5010A0E3           MOV      R1,#+80
   \   0000003C   0D00A0E1           MOV      R0,SP
   \   00000040   ........           _BLF     strftime,??strftime??rA
    130              return (AnsiString)Buf;
   \   00000044   0D10A0E1           MOV      R1,SP
   \   00000048                      REQUIRE ?Subroutine69
   \   00000048                      ;; // Fall through to label ?Subroutine69
    131          }
    132          

   \                                 In segment CODE, align 4, keep-with-next
    133          AnsiString TSNDate(void) {
    134              return (TSNTime("%d %b %y"));
   \                     ??TSNDate:
   \   00000000   00109FE5           LDR      R1,??TSNDate_1   ;; `?<Constant "%d %b %y">`
   \   00000004   ........           B        ?Subroutine70
   \                     ??TSNDate_1:
   \   00000008   ........           DC32     `?<Constant "%d %b %y">`
    135          }

   \                                 In segment CODE, align 4, keep-with-next
   \                     ?Subroutine70:
   \   00000000   00402DE9           PUSH     {LR}
   \   00000004   ........           BL       ??TSNTime
   \                     ??Subroutine70_0:
   \   00000008   0040BDE8           POP      {LR}
   \   0000000C   1EFF2FE1           BX       LR               ;; return
   \                     ??Subroutine70_1:
   \   00000010   ........           DC32     `?<Constant "%H:%M:%S">`
    136          

   \                                 In segment CODE, align 4, keep-with-next
    137          AnsiString TSNTime(void) {
    138              return (TSNTime("%H:%M:%S"));
   \                     ??TSNTime_2:
   \   00000000   ........           LDR      R1,??Subroutine70_1  ;; `?<Constant "%H:%M:%S">`
   \   00000004                      REQUIRE ?Subroutine70
   \   00000004                      ;; // Fall through to label ?Subroutine70
    139          }
    140          

   \                                 In segment CODE, align 4, keep-with-next
    141          int GetDaylightSaving(void) {
    142              bool Dst = false;
    143          #ifdef WIN32
    144              /*
    145               TIME_ZONE_INFORMATION TimeZoneInformationPtr;
    146               GetTimeZoneInformation(&TimeZoneInformationPtr);
    147               Dst = TimeZoneInformationPtr.DaylightBias;
    148               */
    149              const time_t SecsNow = time(NULL);
    150              struct tm *TimeNow = localtime(&SecsNow);
    151          	// Was a Bug in MS Windows. isdst is 1 when no dst!!!
    152          	// Still a bug EHS 15.03.2022
    153              if (TimeNow->tm_isdst) {
    154          		//Dst = true;
    155              }
    156          	PROSystemData::DaylightSaving = Dst;
    157          #else
    158              Dst = PROSystemData::DaylightSaving;
   \                     ??GetDaylightSaving:
   \   00000000   ........           LDR      R0,??DataTable0  ;; ??DaylightSaving
   \   00000004   000090E5           LDR      R0,[R0, #+0]
   \   00000008   000050E3           CMP      R0,#+0
   \   0000000C   0100A013           MOVNE    R0,#+1
    159          #endif
    160              return (Dst);
   \   00000010   1EFF2FE1           BX       LR               ;; return
    161          }
    162          

   \                                 In segment CODE, align 4, keep-with-next
    163          void SetDaylightSaving(int NewDst) {
   \                     ??SetDaylightSaving:
   \   00000000   00402DE9           PUSH     {LR}
    164          #ifdef S2TXU
    165              PROSystemData::SetDST(NewDst);
   \   00000004   ........           _BLF     ??SetDST,??SetDST??rA
    166              ANPRO10_SendTime();
   \   00000008   0100A0E3           MOV      R0,#+1
   \   0000000C   ........           _BLF     ??ANPRO10_SendTime,??ANPRO10_SendTime??rA
    167          #endif
    168          }
   \   00000010   ........           B        ??Subroutine70_0
    169          

   \                                 In segment CODE, align 4, keep-with-next
    170          void TSNSetTimeZone(int NewZone) { // in minutes
   \                     ??TSNSetTimeZone:
   \   00000000   10402DE9           PUSH     {R4,LR}
   \   00000004   0040A0E1           MOV      R4,R0
    171              PROSystemData::SetTimeZone(NewZone);
   \   00000008   ........           _BLF     ??SetTimeZone,??SetTimeZone??rA
    172              NewZone = -NewZone;
    173          #ifdef S2TXU
    174          #ifndef ANBOOTLOADER
    175              NewZone *= 60;
    176              SetTimeZone(NewZone);
   \   0000000C   3C00A0E3           MOV      R0,#+60
   \   00000010   900401E0           MUL      R1,R0,R4
   \   00000014   000061E2           RSB      R0,R1,#+0
   \   00000018   ........           _BLF     SetTimeZone,??SetTimeZone??rA_1
    177          #endif
    178          #else
    179          #ifdef WIN32
    180              TIME_ZONE_INFORMATION TimeZoneInformationPtr;
    181              GetTimeZoneInformation(&TimeZoneInformationPtr);
    182              //TimeZoneInf/* TODO -oEHS : Should not adjust PC time settings */ormationPtr.Bias = (int)NewZone;           //EHSMark
    183              // TimeZoneInformationPtr.DaylightBias = 1;
    184              // Dont change the PC: bool error = SetTimeZoneInformation(&TimeZoneInformationPtr);
    185          #endif
    186          #endif
    187          }
   \   0000001C   ........           B        ??Subroutine74_0

   \                                 In segment CODE, align 4, keep-with-next
   \                     ?Subroutine74:
   \   00000000   040040E0           SUB      R0,R0,R4
   \                     ??Subroutine74_0:
   \   00000004   1040BDE8           POP      {R4,LR}
   \   00000008   1EFF2FE1           BX       LR               ;; return
    188          

   \                                 In segment CODE, align 4, keep-with-next
    189          int TSNTimeZone(void) {
   \                     ??TSNTimeZone:
   \   00000000   00402DE9           PUSH     {LR}
    190              // in minutes
    191              int TZone = 0;
    192          #ifdef S2TXU
    193              TZone = -int(_Tzoff()) / 60;
   \   00000004   ........           _BLF     _Tzoff,??_Tzoff??rA
   \   00000008   3C10A0E3           MOV      R1,#+60
   \   0000000C   ........           _BLF     ??div32_a,??rA??div32_a
    194          #else
    195          #ifdef WIN32
    196              TIME_ZONE_INFORMATION TimeZoneInformationPtr;
    197              GetTimeZoneInformation(&TimeZoneInformationPtr);
    198              TZone = TimeZoneInformationPtr.Bias;
    199          #endif
    200          #endif
    201              return (-TZone);
   \   00000010   0040BDE8           POP      {LR}
   \   00000014   000061E2           RSB      R0,R1,#+0
   \   00000018   000060E2           RSB      R0,R0,#+0
   \   0000001C   1EFF2FE1           BX       LR               ;; return
    202          }
    203          

   \                                 In segment CODE, align 4, keep-with-next
    204          AnsiString TSNTimeZoneName(void) {
   \                     ??TSNTimeZoneName:
   \   00000000   00402DE9           PUSH     {LR}
    205              // return TSNTime(Buf,BUF_SIZE,"%Z",TimeNow);
    206              return ("GMT");
   \   00000004   011F8FE2           ADR      R1,??TSNTimeZoneName_1  ;; "GMT"
   \   00000008   ........           _BLF     ??AnsiString,??AnsiString??rA
   \   0000000C   ........           B        ??Subroutine70_0
   \                     ??TSNTimeZoneName_1:
   \   00000010   474D5400           DC8      "GMT"
    207          }
    208          

   \                                 In segment CODE, align 4, keep-with-next
    209          void SetGMT(int NewTime) {
   \                     ??SetGMT:
   \   00000000   10402DE9           PUSH     {R4,LR}
   \   00000004   0040A0E1           MOV      R4,R0
    210              int CurrentTZ = TSNTimeZone();
   \   00000008   ........           BL       ??TSNTimeZone
    211              CurrentTZ += 60 * NewTime;
    212              TSNSetTimeZone(CurrentTZ);
   \   0000000C   3C10A0E3           MOV      R1,#+60
   \   00000010   910420E0           MLA      R0,R1,R4,R0
   \   00000014   ........           BL       ??TSNSetTimeZone
    213              ANPRO10_SendTime();
   \   00000018   0100A0E3           MOV      R0,#+1
   \   0000001C   ........           _BLF     ??ANPRO10_SendTime,??ANPRO10_SendTime??rA
    214          
    215          }
   \   00000020   ........           B        ??Subroutine74_0
    216          

   \                                 In segment CODE, align 4, keep-with-next
    217          AnsiString TSNDateTime(void) {
    218              return (TSNTime("%d %b %y %H:%M:%S"));
   \                     ??TSNDateTime:
   \   00000000   00109FE5           LDR      R1,??TSNDateTime_1  ;; `?<Constant "%d %b %y %H:%M:%S">`
   \   00000004   ........           B        ?Subroutine70
   \                     ??TSNDateTime_1:
   \   00000008   ........           DC32     `?<Constant "%d %b %y %H:%M:%S">`
    219          }
    220          

   \                                 In segment CODE, align 4, keep-with-next
    221          AnsiString TSNAlarmTime(void) {
    222              return (TSNTime("%H:%M"));
   \                     ??TSNAlarmTime:
   \   00000000   00109FE5           LDR      R1,??TSNAlarmTime_1  ;; `?<Constant "%H:%M">`
   \   00000004   ........           B        ?Subroutine70
   \                     ??TSNAlarmTime_1:
   \   00000008   ........           DC32     `?<Constant "%H:%M">`
    223          }
    224          

   \                                 In segment CODE, align 4, keep-with-next
    225          AnsiString TSNAlarmDateTime(void) {
    226              return (TSNTime("%d.%b %H:%M"));
   \                     ??TSNAlarmDateTime:
   \   00000000   00109FE5           LDR      R1,??TSNAlarmDateTime_1  ;; `?<Constant "%d.%b %H:%M">`
   \   00000004   ........           B        ?Subroutine70
   \                     ??TSNAlarmDateTime_1:
   \   00000008   ........           DC32     `?<Constant "%d.%b %H:%M">`
    227          }
    228          #endif
    229          

   \                                 In segment CODE, align 4, keep-with-next
    230          time_t TSNElapsedTime(const time_t OldTime) {
   \                     ??TSNElapsedTime:
   \   00000000   10402DE9           PUSH     {R4,LR}
   \   00000004   0040A0E1           MOV      R4,R0
    231              const time_t NewTime = time(NULL);
    232              time_t Elapsed = NewTime - OldTime;
    233              return (Elapsed);
   \   00000008   0000A0E3           MOV      R0,#+0
   \   0000000C   ........           _BLF     time,??time??rA
   \   00000010   ........           B        ?Subroutine74
    234          }
    235          

   \                                 In segment CODE, align 4, keep-with-next
    236          clock_t TSNElapsedTicks(const clock_t OldTime) {
   \                     ??TSNElapsedTicks:
   \   00000000   10402DE9           PUSH     {R4,LR}
   \   00000004   0040A0E1           MOV      R4,R0
    237              return (clock() - OldTime);
   \   00000008   ........           _BLF     clock,??clock??rA
   \   0000000C                      REQUIRE ?Subroutine74
   \   0000000C                      ;; // Fall through to label ?Subroutine74
    238          }
    239          
    240          // ---------------------------------------------------------------------------
    241          

   \                                 In segment CODE, align 4, keep-with-next
    242          void ScreenSaverOff(void) {
    243              switch (GlobalDeviceHWId) {
   \                     ??ScreenSaverOff:
   \   00000000   18009FE5           LDR      R0,??ScreenSaverOff_1  ;; GlobalDeviceHWId
   \   00000004   00402DE9           PUSH     {LR}
   \   00000008   F000D0E1           LDRSH    R0,[R0, #+0]
   \   0000000C   020040E2           SUB      R0,R0,#+2
   \   00000010   010050E3           CMP      R0,#+1
   \   00000014   0000008A           BHI      ??ScreenSaverOff_2
    244              case TDU_R1:
    245              case TDU_R2:
    246          #ifndef WIN32
    247                  LCD_BackLightOn();
   \   00000018   ........           _BLF     ??LCD_BackLightOn,??LCD_BackLightOn??rA
    248          #endif
    249                  break;
    250              case TCU_R1:
    251              case TCU_R2:
    252                  break;
    253          #ifdef ANWIN
    254              case DEVICE_PCSW:
    255                  // when new alarm, be sure that aplikation come to front
    256                  // HWND hWnd = MainForm->Handle;
    257                  {
    258                      HWND hWndApplication = Application->Handle;
    259                      if (IsIconic(hWndApplication)) {
    260                          OpenIcon(hWndApplication);
    261                      }
    262          
    263                      // Importent to use Application->Handle to get all ShowModal window
    264                      SetForegroundWindow(hWndApplication); // Puts the thread that created the specified window
    265                      // into the foreground and activates the window.
    266                      // Keyboard input is directed to the window,
    267                  }
    268                  break;
    269          #endif
    270              }
    271          }
   \                     ??ScreenSaverOff_2:
   \   0000001C   ........           B        ??Subroutine70_0
   \                     ??ScreenSaverOff_1:
   \   00000020   ........           DC32     GlobalDeviceHWId
    272          
    273          ///////////////////////////////////////////////////////////////
    274          // Second part of cargo type system
    275          // The first part is in API.H
    276          // Hisory:
    277          // 8/4/98       Created.                        EHS
    278          ////////////////////////////////////////////////////////////////

   \                                 In segment CODE, align 4, keep-with-next
    279          int SumOneCargo(int CargoType, float &Weight, float &Volume) {
    280              Weight = 0.0;
   \                     ??SumOneCargo:
   \   00000000   ........           B        ?Subroutine71
    281              Volume = 0.0;
    282              int Cnt = 0;
    283              /*
    284               for( int i=0; i < OnlineTank::Number_of_Tanks; i++ ) {
    285               OnlineTank  *T = OnlineTank::Table[i];
    286               if( (T->Type == TT_CARGO ) && (T->Cargo[Cond].CI.Type == CargoType ) ) {
    287               Weight += T->Weight[Cond];
    288               Volume += T->RtData[Cond].Volume;
    289               Cnt++;
    290               }
    291               } */
    292              return (Cnt);
    293          }

   \                                 In segment CODE, align 4, keep-with-next
   \                     ?Subroutine71:
   \   00000000   0000A0E3           MOV      R0,#+0
   \   00000004   000081E5           STR      R0,[R1, #+0]
   \   00000008   000082E5           STR      R0,[R2, #+0]
   \   0000000C   1EFF2FE1           BX       LR               ;; return
    294          
    295          #ifndef ANBOOTLOADER
    296          
    297          ///////////////////////////////////////////////////////////////
    298          // Include all tanks with onespecific cargo type
    299          // Hisory:
    300          // 5/9/01       Created.                        EHS/RB
    301          ////////////////////////////////////////////////////////////////

   \                                 In segment CODE, align 4, keep-with-next
    302          int SumOneCargoAllTanks(int CargoTypeKey, int BaseCargoType, float *Weight, float *Volume,
    303                                  vector<PRogramObjectBase *>ObjVector) {
   \                     ??SumOneCargoAllTanks:
   \   00000000   FD4F2DE9           PUSH     {R0,R2-R11,LR}
   \   00000004   30009DE5           LDR      R0,[SP, #+48]
   \   00000008   0140A0E1           MOV      R4,R1
    304              float tWeight = 0.0;
    305              float tVolume = 0.0;
    306              int Cnt = 0;
    307              if (!ObjVector.empty()) {
   \   0000000C   008090E5           LDR      R8,[R0, #+0]
   \   00000010   040090E5           LDR      R0,[R0, #+4]
   \   00000014   0050A0E3           MOV      R5,#+0
   \   00000018   0060A0E3           MOV      R6,#+0
   \   0000001C   0570A0E1           MOV      R7,R5
   \   00000020   080040E0           SUB      R0,R0,R8
   \   00000024   2091B0E1           LSRS     R9,R0,#+2
   \   00000028   1700000A           BEQ      ??SumOneCargoAllTanks_1
    308                  for (unsigned i = 0; i < ObjVector.size(); i++) {
   \   0000002C   00A0A0E3           MOV      R10,#+0
   \   00000030   130000EA           B        ??SumOneCargoAllTanks_2
    309                      PROTank *TElement = (PROTank *)ObjVector[i];
   \                     ??SumOneCargoAllTanks_3:
   \   00000034   0AB198E7           LDR      R11,[R8, +R10, LSL #+2]
    310                      if (TElement && (TElement->CargoType->CargoTypeKey == CargoTypeKey) &&
    311                          (TElement->CargoType->BaseCargoType == BaseCargoType)) {
   \   00000038   00005BE3           CMP      R11,#+0
   \   0000003C   0F00000A           BEQ      ??SumOneCargoAllTanks_4
   \   00000040   04039BE5           LDR      R0,[R11, #+772]
   \   00000044   00209DE5           LDR      R2,[SP, #+0]
   \   00000048   EC1090E5           LDR      R1,[R0, #+236]
   \   0000004C   020051E1           CMP      R1,R2
   \   00000050   F0009005           LDREQ    R0,[R0, #+240]
   \   00000054   04005001           CMPEQ    R0,R4
   \   00000058   0800001A           BNE      ??SumOneCargoAllTanks_4
    312                          tWeight += TElement->Weight;
   \   0000005C   BC029BE5           LDR      R0,[R11, #+700]
   \   00000060   0510A0E1           MOV      R1,R5
   \   00000064   ........           _BLF     __fAdd,??__fAdd??rA
   \   00000068   0050A0E1           MOV      R5,R0
    313                          tVolume += TElement->Volume;
   \   0000006C   B4029BE5           LDR      R0,[R11, #+692]
   \   00000070   0610A0E1           MOV      R1,R6
   \   00000074   ........           _BLF     __fAdd,??__fAdd??rA
   \   00000078   0060A0E1           MOV      R6,R0
    314                          Cnt++;
   \   0000007C   017087E2           ADD      R7,R7,#+1
    315                      }
    316                  }
   \                     ??SumOneCargoAllTanks_4:
   \   00000080   01A08AE2           ADD      R10,R10,#+1
   \                     ??SumOneCargoAllTanks_2:
   \   00000084   09005AE1           CMP      R10,R9
   \   00000088   E9FFFF3A           BCC      ??SumOneCargoAllTanks_3
    317              }
    318              *Volume = tVolume;
   \                     ??SumOneCargoAllTanks_1:
   \   0000008C   08009DE5           LDR      R0,[SP, #+8]
   \   00000090   006080E5           STR      R6,[R0, #+0]
    319              *Weight = tWeight;
   \   00000094   04009DE5           LDR      R0,[SP, #+4]
   \   00000098   005080E5           STR      R5,[R0, #+0]
    320              return (Cnt);
   \   0000009C   0700A0E1           MOV      R0,R7
   \   000000A0   FE4FBDE8           POP      {R1-R11,LR}
   \   000000A4   1EFF2FE1           BX       LR               ;; return
    321          }
    322          

   \                                 In segment CODE, align 4, keep-with-next
    323          int SumTanks(int TankType, float &Weight, float &Volume) {
    324              Weight = 0.0;
   \                     ??SumTanks:
   \   00000000                      REQUIRE ?Subroutine71
   \   00000000                      ;; // Fall through to label ?Subroutine71
    325              Volume = 0.0;
    326              int Cnt = 0;
    327              /*
    328               for( int i=0; i < OnlineTank::Number_of_Tanks; i++ ) {
    329               OnlineTank  *T = OnlineTank::Table[i];
    330               if( T->Type == TankType ) {
    331               Weight += T->Weight[Cond];
    332               Volume += T->RtData[Cond].Volume;
    333               Cnt++;
    334               }
    335               } */
    336              return (Cnt);
    337          }
    338          

   \                                 In segment CODE, align 4, keep-with-next
    339          double FindFrequencey(int Start, int Stop, int Samples, double *x) {
   \                     ??FindFrequencey:
   \   00000000   F04F2DE9           PUSH     {R4-R11,LR}
   \   00000004   00B0A0E1           MOV      R11,R0
   \   00000008   0190A0E1           MOV      R9,R1
   \   0000000C   02A0A0E1           MOV      R10,R2
   \   00000010   0340A0E1           MOV      R4,R3
    340              double Sum = 0.0;
   \   00000014   0000A0E3           MOV      R0,#+0
   \   00000018   0010A0E3           MOV      R1,#+0
    341              for (int i = 1; i < Samples; i++) {
   \   0000001C   0150A0E3           MOV      R5,#+1
   \   00000020   030000EA           B        ??FindFrequencey_1
    342                  Sum += x[i];
   \                     ??FindFrequencey_2:
   \   00000024   852184E0           ADD      R2,R4,R5, LSL #+3
   \   00000028   0C0092E8           LDM      R2,{R2,R3}
    343              }
   \   0000002C   015085E2           ADD      R5,R5,#+1
   \   00000030   ........           _BLF     __dAdd,??__dAdd??rA
   \                     ??FindFrequencey_1:
   \   00000034   0A0055E1           CMP      R5,R10
   \   00000038   F9FFFFBA           BLT      ??FindFrequencey_2
    344              double Average = Sum / (Samples - 1);
   \   0000003C   0060A0E1           MOV      R6,R0
   \   00000040   0170A0E1           MOV      R7,R1
   \   00000044   01004AE2           SUB      R0,R10,#+1
   \   00000048   ........           _BLF     __longToDouble,??__longToDouble??rA
   \   0000004C   0020A0E1           MOV      R2,R0
   \   00000050   0130A0E1           MOV      R3,R1
   \   00000054   0600A0E1           MOV      R0,R6
   \   00000058   0710A0E1           MOV      R1,R7
   \   0000005C   ........           _BLF     __dDiv,??__dDiv??rA
   \   00000060   0060A0E1           MOV      R6,R0
   \   00000064   0170A0E1           MOV      R7,R1
    345              for (int i = 1; i < Samples; i++) {
   \   00000068   0150A0E3           MOV      R5,#+1
   \   0000006C   060000EA           B        ??FindFrequencey_3
    346                  x[i] -= Average;
   \                     ??FindFrequencey_4:
   \   00000070   858184E0           ADD      R8,R4,R5, LSL #+3
   \   00000074   030098E8           LDM      R8,{R0,R1}
   \   00000078   0620A0E1           MOV      R2,R6
   \   0000007C   0730A0E1           MOV      R3,R7
    347              }
   \   00000080   015085E2           ADD      R5,R5,#+1
   \   00000084   ........           _BLF     __dSub,??__dSub??rA
   \   00000088   030088E8           STM      R8,{R0,R1}
   \                     ??FindFrequencey_3:
   \   0000008C   0A0055E1           CMP      R5,R10
   \   00000090   F6FFFFBA           BLT      ??FindFrequencey_4
    348              double MaxVal = x[1];
   \   00000094   086094E5           LDR      R6,[R4, #+8]
   \   00000098   0C7094E5           LDR      R7,[R4, #+12]
    349              int MaxIndex = 1;
   \   0000009C   01A0A0E3           MOV      R10,#+1
    350              for (int i = Start; i < Stop; i++) {
   \   000000A0   0B50A0E1           MOV      R5,R11
   \   000000A4   080000EA           B        ??FindFrequencey_5
    351                  if (x[i] > MaxVal) {
   \                     ??FindFrequencey_6:
   \   000000A8   858184E0           ADD      R8,R4,R5, LSL #+3
   \   000000AC   0C0098E8           LDM      R8,{R2,R3}
   \   000000B0   0600A0E1           MOV      R0,R6
   \   000000B4   0710A0E1           MOV      R1,R7
   \   000000B8   ........           _BLF     __dLess,??__dLess??rA
   \   000000BC   000050E3           CMP      R0,#+0
    352                      MaxVal = x[i];
   \   000000C0   C0009818           LDMNE    R8,{R6,R7}
    353                      MaxIndex = i;
   \   000000C4   05A0A011           MOVNE    R10,R5
    354                  }
    355              }
   \   000000C8   015085E2           ADD      R5,R5,#+1
   \                     ??FindFrequencey_5:
   \   000000CC   090055E1           CMP      R5,R9
   \   000000D0   F4FFFFBA           BLT      ??FindFrequencey_6
    356              double MinVal = x[MaxIndex - 1];
   \   000000D4   8A0184E0           ADD      R0,R4,R10, LSL #+3
   \   000000D8   084010E5           LDR      R4,[R0, #-8]
   \   000000DC   045010E5           LDR      R5,[R0, #-4]
    357              double Difference = MaxVal - MinVal;
   \   000000E0   0600A0E1           MOV      R0,R6
   \   000000E4   0710A0E1           MOV      R1,R7
   \   000000E8   0420A0E1           MOV      R2,R4
   \   000000EC   0530A0E1           MOV      R3,R5
   \   000000F0   ........           _BLF     __dSub,??__dSub??rA
   \   000000F4   0060A0E1           MOV      R6,R0
   \   000000F8   0170A0E1           MOV      R7,R1
    358              double FreqCor = 0.0;
   \   000000FC   0080A0E3           MOV      R8,#+0
   \   00000100   0090A0E3           MOV      R9,#+0
    359              if (Difference) {
   \   00000104   0800A0E1           MOV      R0,R8
   \   00000108   0010A0E1           MOV      R1,R0
   \   0000010C   0620A0E1           MOV      R2,R6
   \   00000110   0730A0E1           MOV      R3,R7
   \   00000114   ........           _BLF     __dNotEqual,??__dNotEqual??rA
   \   00000118   000050E3           CMP      R0,#+0
   \   0000011C   0600000A           BEQ      ??FindFrequencey_7
    360                  FreqCor = MinVal / Difference;
   \   00000120   0400A0E1           MOV      R0,R4
   \   00000124   0510A0E1           MOV      R1,R5
   \   00000128   0620A0E1           MOV      R2,R6
   \   0000012C   0730A0E1           MOV      R3,R7
   \   00000130   ........           _BLF     __dDiv,??__dDiv??rA
   \   00000134   0080A0E1           MOV      R8,R0
   \   00000138   0190A0E1           MOV      R9,R1
    361              }
    362              double Frequency = double(MaxIndex) + FreqCor;
    363              return Frequency;
   \                     ??FindFrequencey_7:
   \   0000013C   0A00A0E1           MOV      R0,R10
   \   00000140   ........           _BLF     __longToDouble,??__longToDouble??rA
   \   00000144   0820A0E1           MOV      R2,R8
   \   00000148   0930A0E1           MOV      R3,R9
   \   0000014C   ........           _BLF     __dAdd,??__dAdd??rA
   \   00000150   ........           B        ??Subroutine68_0
    364          }

   \                                 In segment CODE, align 4, keep-with-next
   \                     ?Subroutine68:
   \   00000000   0800A0E1           MOV      R0,R8
   \   00000004   4014A0E3           MOV      R1,#+1073741824
   \   00000008   401881E3           ORR      R1,R1,#0x400000
   \   0000000C   ........           _BLF     __fDiv,??__fDiv??rA
   \   00000010   0910A0E1           MOV      R1,R9
   \   00000014   ........           _BLF     __fMul,??__fMul??rA
   \                     ??Subroutine68_0:
   \   00000018   F04FBDE8           POP      {R4-R11,LR}
   \   0000001C   1EFF2FE1           BX       LR               ;; return
    365          
    366          #endif
    367          // ---------------------------------------------------------------------------
    368          

   \                                 In segment CODE, align 4, keep-with-next
    369          void SendAlarmSilence(void) {
    370          #ifdef S2TXU
    371              if (!AlarmBasic::AlarmSilence) {
   \                     ??SendAlarmSilence:
   \   00000000   14009FE5           LDR      R0,??SendAlarmSilence_1  ;; ??AlarmSilence
   \   00000004   00402DE9           PUSH     {LR}
   \   00000008   0000D0E5           LDRB     R0,[R0, #+0]
   \   0000000C   000050E3           CMP      R0,#+0
   \   00000010   0000001A           BNE      ??SendAlarmSilence_2
    372                  ANPRO10_SendAlarmSilence();
   \   00000014   ........           _BLF     ??ANPRO10_SendAlarmSilence,??ANPRO10_SendAlarmSilence??rA
    373              }
    374          #elif defined(ANWIN)
    375              ANPRO10_SendAlarmSilence();
    376              /* if( !ViewModePC ){
    377               ANPRO10_SendAlarmSilence();
    378               }else{
    379               AlarmBasic::AlarmSilence = true;
    380               } */
    381          #endif
    382          }
   \                     ??SendAlarmSilence_2:
   \   00000018   ........           B        ??Subroutine70_0
   \                     ??SendAlarmSilence_1:
   \   0000001C   ........           DC32     ??AlarmSilence
    383          
    384          //////////////////////////////////////////////////////////////////////////////
    385          //
    386          // This routine does not check that the actual string length exceeds BUF_SIZE
    387          //
    388          //////////////////////////////////////////////////////////////////////////////

   \                                 In segment CODE, align 4, keep-with-next
    389          int stricmp(char *Str1, char *Str2) {
   \                     ??stricmp:
   \   00000000   F0402DE9           PUSH     {R4-R7,LR}
   \   00000004   0040A0E1           MOV      R4,R0
   \   00000008   0150A0E1           MOV      R5,R1
   \   0000000C   010000EA           B        ??stricmp_1
    390              char la, lb;
    391          
    392              for (;;) {
    393                  la = *Str1;
    394                  lb = *Str2;
    395                  if (isupper(la)) la = tolower(la);
    396                  if (isupper(lb)) lb = tolower(lb);
    397                  if (la != lb || !la) break;
    398                  Str1++;
   \                     ??stricmp_2:
   \   00000010   014084E2           ADD      R4,R4,#+1
    399                  Str2++;
   \   00000014   015085E2           ADD      R5,R5,#+1
   \                     ??stricmp_1:
   \   00000018   0060D4E5           LDRB     R6,[R4, #+0]
   \   0000001C   0070D5E5           LDRB     R7,[R5, #+0]
   \   00000020   0600A0E1           MOV      R0,R6
   \   00000024   410050E3           CMP      R0,#+65
   \   00000028   030000BA           BLT      ??stricmp_3
   \   0000002C   5B0050E3           CMP      R0,#+91
   \   00000030   010000AA           BGE      ??stricmp_3
   \   00000034   ........           _BLF     tolower,??tolower??rA
   \   00000038   FF6000E2           AND      R6,R0,#0xFF
   \                     ??stricmp_3:
   \   0000003C   0700A0E1           MOV      R0,R7
   \   00000040   410050E3           CMP      R0,#+65
   \   00000044   030000BA           BLT      ??stricmp_4
   \   00000048   5B0050E3           CMP      R0,#+91
   \   0000004C   010000AA           BGE      ??stricmp_4
   \   00000050   ........           _BLF     tolower,??tolower??rA
   \   00000054   FF7000E2           AND      R7,R0,#0xFF
   \                     ??stricmp_4:
   \   00000058   070056E1           CMP      R6,R7
   \   0000005C   0100001A           BNE      ??stricmp_5
   \   00000060   0600B0E1           MOVS     R0,R6
   \   00000064   E9FFFF1A           BNE      ??stricmp_2
    400              }
    401              return (la - lb);
   \                     ??stricmp_5:
   \   00000068   070046E0           SUB      R0,R6,R7
   \   0000006C   ........           B        ?Subroutine75
    402          }

   \                                 In segment CODE, align 4, keep-with-next
   \                     ?Subroutine75:
   \   00000000   F040BDE8           POP      {R4-R7,LR}
   \   00000004   1EFF2FE1           BX       LR               ;; return
    403          
    404          //////////////////////////////////////////////////////////////////////////////
    405          //
    406          // This routine check that the actual string not exceeds BUF_SIZE
    407          //
    408          //
    409          //////////////////////////////////////////////////////////////////////////////
    410          

   \                                 In segment CODE, align 4, keep-with-next
    411          int strincmp(char *Str1, char *Str2, int Length) {
   \                     ??strincmp:
   \   00000000   F0412DE9           PUSH     {R4-R8,LR}
   \   00000004   0040A0E1           MOV      R4,R0
   \   00000008   0150A0E1           MOV      R5,R1
   \   0000000C   0260A0E1           MOV      R6,R2
   \   00000010   020000EA           B        ??strincmp_1
    412              char la, lb;
    413          
    414              for (;;) {
    415                  la = *Str1;
    416                  lb = *Str2;
    417                  if (isupper(la)) la = tolower(la);
    418                  if (isupper(lb)) lb = tolower(lb);
    419                  if (la != lb || !la || !Length) break;
    420                  Str1++;
   \                     ??strincmp_2:
   \   00000014   014084E2           ADD      R4,R4,#+1
    421                  Str2++;
   \   00000018   015085E2           ADD      R5,R5,#+1
    422                  Length--;
   \   0000001C   016046E2           SUB      R6,R6,#+1
   \                     ??strincmp_1:
   \   00000020   0070D4E5           LDRB     R7,[R4, #+0]
   \   00000024   0080D5E5           LDRB     R8,[R5, #+0]
   \   00000028   0700A0E1           MOV      R0,R7
   \   0000002C   410050E3           CMP      R0,#+65
   \   00000030   030000BA           BLT      ??strincmp_3
   \   00000034   5B0050E3           CMP      R0,#+91
   \   00000038   010000AA           BGE      ??strincmp_3
   \   0000003C   ........           _BLF     tolower,??tolower??rA
   \   00000040   FF7000E2           AND      R7,R0,#0xFF
   \                     ??strincmp_3:
   \   00000044   0800A0E1           MOV      R0,R8
   \   00000048   410050E3           CMP      R0,#+65
   \   0000004C   030000BA           BLT      ??strincmp_4
   \   00000050   5B0050E3           CMP      R0,#+91
   \   00000054   010000AA           BGE      ??strincmp_4
   \   00000058   ........           _BLF     tolower,??tolower??rA
   \   0000005C   FF8000E2           AND      R8,R0,#0xFF
   \                     ??strincmp_4:
   \   00000060   080057E1           CMP      R7,R8
   \   00000064   0200001A           BNE      ??strincmp_5
   \   00000068   0700B0E1           MOVS     R0,R7
   \   0000006C   00005613           CMPNE    R6,#+0
   \   00000070   E7FFFF1A           BNE      ??strincmp_2
    423              }
    424              if (Length) return (la - lb);
   \                     ??strincmp_5:
   \   00000074   000056E3           CMP      R6,#+0
   \   00000078   08004710           SUBNE    R0,R7,R8
    425              return (0);
   \   0000007C   F041BDE8           POP      {R4-R8,LR}
   \   00000080   0000A003           MOVEQ    R0,#+0
   \   00000084   1EFF2FE1           BX       LR               ;; return
    426          }
    427          
    428          #ifdef S2TXU
    429          
    430          /*
    431           * Copy src to dst, truncating or null-padding to always copy n bytes.
    432           * Return dst.
    433           */

   \                                 In segment CODE, align 4, keep-with-next
    434          char* strncpy(char *dst, char *src, int n) {
   \                     ??strncpy:
   \   00000000   10002DE9           PUSH     {R4}
    435              if (n != 0) {
   \   00000004   000052E3           CMP      R2,#+0
   \   00000008   0D00000A           BEQ      ??strncpy_1
    436                  register char *d = dst;
   \   0000000C   0030A0E1           MOV      R3,R0
   \   00000010   0040A0E3           MOV      R4,#+0
    437                  register const char *s = src;
    438          
    439                  do {
    440                      if ((*d++ = *s++) == 0) {
   \                     ??strncpy_2:
   \   00000014   ........           LDRB     R12,[R1], #+1
   \   00000018   ........           STRB     R12,[R3], #+1
   \   0000001C   00005CE3           CMP      R12,#+0
   \   00000020   0300001A           BNE      ??strncpy_3
    441                          /* NUL pad the remaining n-1 bytes */
    442                          while (--n != 0) *d++ = 0;
   \                     ??strncpy_4:
   \   00000024   012052E2           SUBS     R2,R2,#+1
   \   00000028   0300000A           BEQ      ??strncpy_5
   \   0000002C   ........           STRB     R4,[R3], #+1
   \   00000030   FBFFFFEA           B        ??strncpy_4
    443                          break;
    444                      }
    445                  } while (--n != 0);
   \                     ??strncpy_3:
   \   00000034   012052E2           SUBS     R2,R2,#+1
   \   00000038   F5FFFF1A           BNE      ??strncpy_2
    446                  dst[n - 1] = 0;
   \                     ??strncpy_5:
   \   0000003C   001082E0           ADD      R1,R2,R0
   \   00000040   014041E5           STRB     R4,[R1, #-1]
    447              }
    448              return (dst);
   \                     ??strncpy_1:
   \   00000044   1000BDE8           POP      {R4}
   \   00000048   1EFF2FE1           BX       LR               ;; return
    449          }
    450          
    451          #endif
    452          
    453          //////////////////////////////////////////////////////////////////
    454          //
    455          // Math routines absent in Borland
    456          //
    457          //////////////////////////////////////////////////////////////////

   \                                 In segment CODE, align 4, keep-with-next
    458          int irint(float x) {
   \                     ??irint:
   \   00000000   D0402DE9           PUSH     {R4,R6,R7,LR}
   \   00000004   0040A0E1           MOV      R4,R0
    459              int rounded;
    460              if ((x - 0.5) < x) {
   \   00000008   ........           _BLF     __floatToDouble,??__floatToDouble??rA
   \   0000000C   0060A0E1           MOV      R6,R0
   \   00000010   0170A0E1           MOV      R7,R1
   \   00000014   0000A0E3           MOV      R0,#+0
   \   00000018   B014A0E3           MOV      R1,#-1342177280
   \   0000001C   FE1681E3           ORR      R1,R1,#0xFE00000
   \   00000020   0620A0E1           MOV      R2,R6
   \   00000024   0730A0E1           MOV      R3,R7
   \   00000028   ........           _BLF     __dAdd,??__dAdd??rA
   \   0000002C   0620A0E1           MOV      R2,R6
   \   00000030   0730A0E1           MOV      R3,R7
   \   00000034   ........           _BLF     __dLess,??__dLess??rA
   \   00000038   000050E3           CMP      R0,#+0
   \   0000003C   0400A0E1           MOV      R0,R4
   \   00000040   0100000A           BEQ      ??irint_1
    461                  rounded = int(floor(x));
   \   00000044   ........           _BLF     floorf,??floorf??rA
   \   00000048   000000EA           B        ??irint_2
    462              } else {
    463                  rounded = int(ceil(x));
   \                     ??irint_1:
   \   0000004C   ........           _BLF     ceilf,??ceilf??rA
   \                     ??irint_2:
   \   00000050   ........           _BLF     __floatToLong,??__floatToLong??rA
    464              }
    465              return (rounded);
   \   00000054   D040BDE8           POP      {R4,R6,R7,LR}
   \   00000058   1EFF2FE1           BX       LR               ;; return
    466          }
    467          
    468          /////////////////////////////////////////////////////////////
    469          //
    470          // Find coefficients for linear interpolation between input parameters.
    471          //
    472          /////////////////////////////////////////////////////////////
    473          

   \                                 In segment CODE, align 4, keep-with-next
    474          void Calc_1stDeg_coeffs(float x1, float y1, float x2, float y2, float &a, float &b) {
   \                     ??Calc_1stDeg_coeffs:
   \   00000000   F0432DE9           PUSH     {R4-R9,LR}
   \   00000004   1C709DE5           LDR      R7,[SP, #+28]
   \   00000008   20909DE5           LDR      R9,[SP, #+32]
   \   0000000C   0040A0E1           MOV      R4,R0
   \   00000010   0150A0E1           MOV      R5,R1
   \   00000014   0280A0E1           MOV      R8,R2
   \   00000018   0360A0E1           MOV      R6,R3
    475              if (x1 != x2) {
   \   0000001C   0810A0E1           MOV      R1,R8
   \   00000020   ........           _BLF     __fNotEqual,??__fNotEqual??rA
   \   00000024   000050E3           CMP      R0,#+0
   \   00000028   1000000A           BEQ      ??Calc_1stDeg_coeffs_1
    476                  a = (y2 - y1) / (x2 - x1);
   \   0000002C   0800A0E1           MOV      R0,R8
   \   00000030   0410A0E1           MOV      R1,R4
   \   00000034   ........           _BLF     __fSub,??__fSub??rA
   \   00000038   0080A0E1           MOV      R8,R0
   \   0000003C   0600A0E1           MOV      R0,R6
   \   00000040   0510A0E1           MOV      R1,R5
   \   00000044   ........           _BLF     __fSub,??__fSub??rA
   \   00000048   0810A0E1           MOV      R1,R8
   \   0000004C   ........           _BLF     __fDiv,??__fDiv??rA
   \   00000050   000087E5           STR      R0,[R7, #+0]
    477                  b = y1 - a * x1;
   \   00000054   0410A0E1           MOV      R1,R4
   \   00000058   ........           _BLF     __fMul,??__fMul??rA
   \   0000005C   0010A0E1           MOV      R1,R0
   \   00000060   0500A0E1           MOV      R0,R5
   \   00000064   ........           _BLF     __fSub,??__fSub??rA
   \   00000068   0050A0E1           MOV      R5,R0
   \   0000006C   000000EA           B        ??Calc_1stDeg_coeffs_2
    478              } else {
    479                  a = 0.0;
   \                     ??Calc_1stDeg_coeffs_1:
   \   00000070   000087E5           STR      R0,[R7, #+0]
    480                  b = y1;
   \                     ??Calc_1stDeg_coeffs_2:
   \   00000074   005089E5           STR      R5,[R9, #+0]
    481              }
    482          }
   \   00000078   ........           B        ?Subroutine76

   \                                 In segment CODE, align 4, keep-with-next
   \                     ?Subroutine76:
   \   00000000   F043BDE8           POP      {R4-R9,LR}
   \   00000004   1EFF2FE1           BX       LR               ;; return
    483          
    484          /////////////////////////////////////////////////////////////
    485          //
    486          // Linear interpolation between input parameters.
    487          // y = y1 + ((x  x1) / (x2  x1)) * (y2  y1)
    488          /////////////////////////////////////////////////////////////

   \                                 In segment CODE, align 4, keep-with-next
    489          float IntPol1stDeg(float x1, float x2, float y1, float y2, float x) {
   \                     ??IntPol1stDeg:
   \   00000000   F0412DE9           PUSH     {R4-R8,LR}
   \   00000004   18809DE5           LDR      R8,[SP, #+24]
   \   00000008   0040A0E1           MOV      R4,R0
   \   0000000C   0150A0E1           MOV      R5,R1
   \   00000010   0260A0E1           MOV      R6,R2
   \   00000014   0370A0E1           MOV      R7,R3
    490             // if (x1 != x2) return (y2 - y1) / (x2 - x1) * (x - x1) + y1;
    491              if (x1 != x2) return ((x - x1) / (x2 - x1)) * (y2 - y1)+y1;
   \   00000018   ........           _BLF     __fNotEqual,??__fNotEqual??rA
   \   0000001C   000050E3           CMP      R0,#+0
   \   00000020   1100000A           BEQ      ??IntPol1stDeg_1
   \   00000024   0700A0E1           MOV      R0,R7
   \   00000028   0610A0E1           MOV      R1,R6
   \   0000002C   ........           _BLF     __fSub,??__fSub??rA
   \   00000030   0070A0E1           MOV      R7,R0
   \   00000034   0500A0E1           MOV      R0,R5
   \   00000038   0410A0E1           MOV      R1,R4
   \   0000003C   ........           _BLF     __fSub,??__fSub??rA
   \   00000040   0050A0E1           MOV      R5,R0
   \   00000044   0800A0E1           MOV      R0,R8
   \   00000048   0410A0E1           MOV      R1,R4
   \   0000004C   ........           _BLF     __fSub,??__fSub??rA
   \   00000050   0510A0E1           MOV      R1,R5
   \   00000054   ........           _BLF     __fDiv,??__fDiv??rA
   \   00000058   0710A0E1           MOV      R1,R7
   \   0000005C   ........           _BLF     __fMul,??__fMul??rA
   \   00000060   0610A0E1           MOV      R1,R6
   \   00000064   ........           _BLF     __fAdd,??__fAdd??rA
   \   00000068   000000EA           B        ??IntPol1stDeg_2
    492              else return (y1);
   \                     ??IntPol1stDeg_1:
   \   0000006C   0600A0E1           MOV      R0,R6
   \                     ??IntPol1stDeg_2:
   \   00000070   ........           B        ??Subroutine72_0
    493          }

   \                                 In segment CODE, align 4, keep-with-next
   \                     ?Subroutine72:
   \   00000000   0700A0E1           MOV      R0,R7
   \   00000004   50D08DE2           ADD      SP,SP,#+80
   \                     ??Subroutine72_0:
   \   00000008   F041BDE8           POP      {R4-R8,LR}
   \   0000000C   1EFF2FE1           BX       LR               ;; return
   \                     ??Subroutine72_1:
   \   00000010   ........           DC32     `?<Constant ".,/-:">`
    494          
    495          /////////////////////////////////////////////////////////////
    496          //
    497          // Find second order coefficients
    498          //
    499          // Second order formula: ax^2+bx+c
    500          //
    501          // y= a*x*x + b*x +c;
    502          //
    503          // a = ((y1-y2)*(x1-x3)-(y1-y3)*(x1-x2))/
    504          // ((x1*x1-x2*x2)*(x1-x3)-(x1*x1-x3*x3)*(x1-x2));
    505          // b = ((y1-y2)-(x1*x1-x2*x2)*a)/(x1-x2);
    506          // c = y1-x1*b-x1*x1*a;
    507          //
    508          //
    509          //////////////////////////////////////////////////////////////////////////

   \                                 In segment CODE, align 4, keep-with-next
    510          void Calc_2ndDeg_coeffs(float x1, float y1, float x2, float y2, float x3, float y3, float &a, float &b, float &c) {
   \                     ??Calc_2ndDeg_coeffs:
   \   00000000   F34F2DE9           PUSH     {R0,R1,R4-R11,LR}
   \   00000004   2C509DE5           LDR      R5,[SP, #+44]
   \   00000008   34709DE5           LDR      R7,[SP, #+52]
   \   0000000C   38809DE5           LDR      R8,[SP, #+56]
   \   00000010   0060A0E1           MOV      R6,R0
   \   00000014   0140A0E1           MOV      R4,R1
   \   00000018   02B0A0E1           MOV      R11,R2
   \   0000001C   03A0A0E1           MOV      R10,R3
    511              // See if we have different x values.
    512              //
    513              if (x1 == x2) {
   \   00000020   0090A0E3           MOV      R9,#+0
   \   00000024   0B10A0E1           MOV      R1,R11
   \   00000028   ........           _BLF     __fEqual,??__fEqual??rA
   \   0000002C   000050E3           CMP      R0,#+0
   \   00000030   0B00A0E1           MOV      R0,R11
   \   00000034   0510A0E1           MOV      R1,R5
   \   00000038   1500000A           BEQ      ??Calc_2ndDeg_coeffs_1
    514                  // We can not use the first pair of x-values
    515                  if (x2 == x3) {
   \   0000003C   ........           _BLF     __fEqual,??__fEqual??rA
   \   00000040   000050E3           CMP      R0,#+0
   \   00000044   009087E5           STR      R9,[R7, #+0]
    516                      // We can conclude that all x-values are equal
    517                      a = 0.0;
    518                      b = 0.0;
   \   00000048   00908815           STRNE    R9,[R8, #+0]
    519                      c = y1;
   \   0000004C   0400A011           MOVNE    R0,R4
   \   00000050   6600001A           BNE      ??Calc_2ndDeg_coeffs_2
    520                  } else {
    521                      // We can conclude that the second pair of x-values are useable
    522                      a = 0.0;
    523                      b = (y3 - y2) / (x3 - x2);
   \   00000054   0500A0E1           MOV      R0,R5
   \   00000058   0B10A0E1           MOV      R1,R11
   \   0000005C   ........           _BLF     __fSub,??__fSub??rA
   \   00000060   0040A0E1           MOV      R4,R0
   \   00000064   30009DE5           LDR      R0,[SP, #+48]
   \   00000068   0A10A0E1           MOV      R1,R10
   \   0000006C   ........           _BLF     __fSub,??__fSub??rA
   \   00000070   0410A0E1           MOV      R1,R4
   \   00000074   ........           _BLF     __fDiv,??__fDiv??rA
   \   00000078   0010A0E1           MOV      R1,R0
   \   0000007C   001088E5           STR      R1,[R8, #+0]
    524                      c = y2 - b * x2;
   \   00000080   0B00A0E1           MOV      R0,R11
   \                     ??Calc_2ndDeg_coeffs_3:
   \   00000084   ........           _BLF     __fMul,??__fMul??rA
   \   00000088   0010A0E1           MOV      R1,R0
   \   0000008C   0A00A0E1           MOV      R0,R10
   \   00000090   550000EA           B        ??Calc_2ndDeg_coeffs_4
    525                  }
    526              } else if (x2 == x3) {
   \                     ??Calc_2ndDeg_coeffs_1:
   \   00000094   ........           _BLF     __fEqual,??__fEqual??rA
   \   00000098   000050E3           CMP      R0,#+0
   \   0000009C   0C00000A           BEQ      ??Calc_2ndDeg_coeffs_5
    527                  // We can not use the second pair of x-values
    528                  // We can conclude that the first pair of x-values are useable
    529                  a = 0.0;
   \   000000A0   009087E5           STR      R9,[R7, #+0]
    530                  b = (y2 - y1) / (x2 - x1); // Was x3-x2 Bug!!
   \   000000A4   0B00A0E1           MOV      R0,R11
   \   000000A8   0610A0E1           MOV      R1,R6
   \   000000AC   ........           _BLF     __fSub,??__fSub??rA
   \   000000B0   0050A0E1           MOV      R5,R0
   \   000000B4   0A00A0E1           MOV      R0,R10
   \   000000B8   0410A0E1           MOV      R1,R4
   \   000000BC   ........           _BLF     __fSub,??__fSub??rA
   \   000000C0   0510A0E1           MOV      R1,R5
   \   000000C4   ........           _BLF     __fDiv,??__fDiv??rA
   \   000000C8   000088E5           STR      R0,[R8, #+0]
    531                  c = y2 - b * x2;
   \   000000CC   0B10A0E1           MOV      R1,R11
   \   000000D0   EBFFFFEA           B        ??Calc_2ndDeg_coeffs_3
    532              } else {
    533                  // Here we assume that we have data within permissible limits
    534                  float xx1 = x1 * x1;
   \                     ??Calc_2ndDeg_coeffs_5:
   \   000000D4   0600A0E1           MOV      R0,R6
   \   000000D8   0610A0E1           MOV      R1,R6
   \   000000DC   ........           _BLF     __fMul,??__fMul??rA
   \   000000E0   00008DE5           STR      R0,[SP, #+0]
    535                  float xx2 = x2 * x2;
    536                  float xx3 = x3 * x3;
    537                  float x1x2 = x1 - x2;
   \   000000E4   0600A0E1           MOV      R0,R6
   \   000000E8   0B10A0E1           MOV      R1,R11
   \   000000EC   ........           _BLF     __fSub,??__fSub??rA
   \   000000F0   0090A0E1           MOV      R9,R0
    538                  float y1y2 = y1 - y2;
   \   000000F4   0400A0E1           MOV      R0,R4
   \   000000F8   0A10A0E1           MOV      R1,R10
   \   000000FC   ........           _BLF     __fSub,??__fSub??rA
   \   00000100   00A0A0E1           MOV      R10,R0
    539                  float x1x3 = x1 - x3;
   \   00000104   0600A0E1           MOV      R0,R6
   \   00000108   0510A0E1           MOV      R1,R5
   \   0000010C   ........           _BLF     __fSub,??__fSub??rA
   \   00000110   04008DE5           STR      R0,[SP, #+4]
    540                  float xx1xx2 = xx1 - xx2;
   \   00000114   0B00A0E1           MOV      R0,R11
   \   00000118   0B10A0E1           MOV      R1,R11
   \   0000011C   ........           _BLF     __fMul,??__fMul??rA
   \   00000120   0010A0E1           MOV      R1,R0
   \   00000124   00009DE5           LDR      R0,[SP, #+0]
   \   00000128   ........           _BLF     __fSub,??__fSub??rA
   \   0000012C   00B0A0E1           MOV      R11,R0
    541                  a = (y1y2 * x1x3 - (y1 - y3) * x1x2) / (xx1xx2 * x1x3 - (xx1 - xx3) * x1x2);
   \   00000130   0500A0E1           MOV      R0,R5
   \   00000134   0510A0E1           MOV      R1,R5
   \   00000138   ........           _BLF     __fMul,??__fMul??rA
   \   0000013C   00109DE5           LDR      R1,[SP, #+0]
   \   00000140   ........           _BLF     __fSub,??__fSub??rA
   \   00000144   0910A0E1           MOV      R1,R9
   \   00000148   ........           _BLF     __fMul,??__fMul??rA
   \   0000014C   0050A0E1           MOV      R5,R0
   \   00000150   04009DE5           LDR      R0,[SP, #+4]
   \   00000154   0B10A0E1           MOV      R1,R11
   \   00000158   ........           _BLF     __fMul,??__fMul??rA
   \   0000015C   0510A0E1           MOV      R1,R5
   \   00000160   ........           _BLF     __fAdd,??__fAdd??rA
   \   00000164   0010A0E1           MOV      R1,R0
   \   00000168   02002DE9           PUSH     {R1}
   \   0000016C   34009DE5           LDR      R0,[SP, #+52]
   \   00000170   0410A0E1           MOV      R1,R4
   \   00000174   ........           _BLF     __fSub,??__fSub??rA
   \   00000178   0910A0E1           MOV      R1,R9
   \   0000017C   ........           _BLF     __fMul,??__fMul??rA
   \   00000180   0050A0E1           MOV      R5,R0
   \   00000184   08009DE5           LDR      R0,[SP, #+8]
   \   00000188   0A10A0E1           MOV      R1,R10
   \   0000018C   ........           _BLF     __fMul,??__fMul??rA
   \   00000190   0510A0E1           MOV      R1,R5
   \   00000194   ........           _BLF     __fAdd,??__fAdd??rA
   \   00000198   0200BDE8           POP      {R1}
   \   0000019C   ........           _BLF     __fDiv,??__fDiv??rA
   \   000001A0   000087E5           STR      R0,[R7, #+0]
    542                  b = (y1y2 - a * xx1xx2) / x1x2;
   \   000001A4   0B10A0E1           MOV      R1,R11
   \   000001A8   ........           _BLF     __fMul,??__fMul??rA
   \   000001AC   0010A0E1           MOV      R1,R0
   \   000001B0   0A00A0E1           MOV      R0,R10
   \   000001B4   ........           _BLF     __fSub,??__fSub??rA
   \   000001B8   0910A0E1           MOV      R1,R9
   \   000001BC   ........           _BLF     __fDiv,??__fDiv??rA
   \   000001C0   000088E5           STR      R0,[R8, #+0]
    543                  c = y1 - a * xx1 - b * x1;
   \   000001C4   0610A0E1           MOV      R1,R6
   \   000001C8   ........           _BLF     __fMul,??__fMul??rA
   \   000001CC   001097E5           LDR      R1,[R7, #+0]
   \   000001D0   0050A0E1           MOV      R5,R0
   \   000001D4   00009DE5           LDR      R0,[SP, #+0]
   \   000001D8   ........           _BLF     __fMul,??__fMul??rA
   \   000001DC   0010A0E1           MOV      R1,R0
   \   000001E0   0400A0E1           MOV      R0,R4
   \   000001E4   ........           _BLF     __fSub,??__fSub??rA
   \   000001E8   0510A0E1           MOV      R1,R5
   \                     ??Calc_2ndDeg_coeffs_4:
   \   000001EC   ........           _BLF     __fSub,??__fSub??rA
   \                     ??Calc_2ndDeg_coeffs_2:
   \   000001F0   3C109DE5           LDR      R1,[SP, #+60]
   \   000001F4   000081E5           STR      R0,[R1, #+0]
    544              }
    545          }
   \   000001F8   F34FBDE8           POP      {R0,R1,R4-R11,LR}
   \   000001FC   1EFF2FE1           BX       LR               ;; return
    546          
    547          ///////////////////////////////////////////////////////////////////////
    548          //
    549          // Second degree interpolation
    550          //
    551          ///////////////////////////////////////////////////////////////////////

   \                                 In segment CODE, align 4, keep-with-next
    552          float IntPol2ndDeg(float x1, float x2, float x3, float y1, float y2, float y3, float x) {
   \                     ??IntPol2ndDeg:
   \   00000000   37402DE9           PUSH     {R0-R2,R4,R5,LR}
   \   00000004   1CE09DE5           LDR      LR,[SP, #+28]
   \   00000008   20409DE5           LDR      R4,[SP, #+32]
   \   0000000C   01C0A0E1           MOV      R12,R1
   \   00000010   0310A0E1           MOV      R1,R3
   \   00000014   18309DE5           LDR      R3,[SP, #+24]
    553              float a, b, c;
    554          
    555              Calc_2ndDeg_coeffs(x1, y1, x2, y2, x3, y3, a, b, c);
   \   00000018   08508DE2           ADD      R5,SP,#+8
   \   0000001C   20002DE9           PUSH     {R5}
   \   00000020   08508DE2           ADD      R5,SP,#+8
   \   00000024   20002DE9           PUSH     {R5}
   \   00000028   08508DE2           ADD      R5,SP,#+8
   \   0000002C   20002DE9           PUSH     {R5}
   \   00000030   00402DE9           PUSH     {LR}
   \   00000034   04002DE9           PUSH     {R2}
   \   00000038   0C20A0E1           MOV      R2,R12
   \   0000003C   ........           BL       ??Calc_2ndDeg_coeffs
    556              return (a * x * x + b * x + c);
   \   00000040   18009DE5           LDR      R0,[SP, #+24]
   \   00000044   0410A0E1           MOV      R1,R4
   \   00000048   ........           _BLF     __fMul,??__fMul??rA
   \   0000004C   0050A0E1           MOV      R5,R0
   \   00000050   14009DE5           LDR      R0,[SP, #+20]
   \   00000054   0410A0E1           MOV      R1,R4
   \   00000058   ........           _BLF     __fMul,??__fMul??rA
   \   0000005C   0410A0E1           MOV      R1,R4
   \   00000060   ........           _BLF     __fMul,??__fMul??rA
   \   00000064   0510A0E1           MOV      R1,R5
   \   00000068   ........           _BLF     __fAdd,??__fAdd??rA
   \   0000006C   1C109DE5           LDR      R1,[SP, #+28]
   \   00000070   ........           _BLF     __fAdd,??__fAdd??rA
   \   00000074   20D08DE2           ADD      SP,SP,#+32
   \   00000078   ........           B        ?Subroutine77
    557          }

   \                                 In segment CODE, align 4, keep-with-next
   \                     ?Subroutine77:
   \   00000000   3040BDE8           POP      {R4,R5,LR}
   \   00000004   1EFF2FE1           BX       LR               ;; return
    558          
    559          /////////////////////////////////////////////////////////////////////
    560          // Integration of function fx by Simpson's rule:
    561          // A = S/3*[(F+L)+4E+2RO]
    562          // F is the first point to use, L the last.
    563          // A odd number of points must be used.
    564          //
    565          /////////////////////////////////////////////////////////////////////
    566          

   \                                 In segment CODE, align 4, keep-with-next
    567          float Simpson(float First, float Last, int m, float (*Function)(float Val)) {
   \                     ??Simpson:
   \   00000000   F0472DE9           PUSH     {R4-R10,LR}
   \   00000004   0090A0E1           MOV      R9,R0
   \   00000008   0180A0E1           MOV      R8,R1
   \   0000000C   0260A0E1           MOV      R6,R2
   \   00000010   0340A0E1           MOV      R4,R3
    568              float X = First;
   \   00000014   0950A0E1           MOV      R5,R9
    569          
    570              if (m & 1) m++;
   \   00000018   010016E3           TST      R6,#0x1
   \   0000001C   01608612           ADDNE    R6,R6,#+1
    571          
    572              float h = (Last - First) / m;
   \   00000020   0800A0E1           MOV      R0,R8
   \   00000024   0910A0E1           MOV      R1,R9
   \   00000028   ........           _BLF     __fSub,??__fSub??rA
   \   0000002C   0070A0E1           MOV      R7,R0
   \   00000030   0600A0E1           MOV      R0,R6
   \   00000034   ........           _BLF     __longToFloat,??__longToFloat??rA
   \   00000038   0010A0E1           MOV      R1,R0
   \   0000003C   0700A0E1           MOV      R0,R7
   \   00000040   ........           _BLF     __fDiv,??__fDiv??rA
   \   00000044   0070A0E1           MOV      R7,R0
    573              float t = (*Function)(First) - (*Function)(Last);
   \   00000048   0900A0E1           MOV      R0,R9
   \   0000004C   0410A0E1           MOV      R1,R4
   \   00000050   0FE0A0E1           MOV      LR,PC
   \   00000054   11FF2FE1           BX       R1
   \   00000058   0090A0E1           MOV      R9,R0
   \   0000005C   0800A0E1           MOV      R0,R8
   \   00000060   0410A0E1           MOV      R1,R4
   \   00000064   0FE0A0E1           MOV      LR,PC
   \   00000068   11FF2FE1           BX       R1
   \   0000006C   0010A0E1           MOV      R1,R0
   \   00000070   0900A0E1           MOV      R0,R9
   \   00000074   ........           _BLF     __fSub,??__fSub??rA
   \   00000078   0080A0E1           MOV      R8,R0
    574              for (register int i = 1; i <= m; i++) {
   \   0000007C   0190A0E3           MOV      R9,#+1
   \   00000080   120000EA           B        ??Simpson_3
    575                  X += h;
   \                     ??Simpson_4:
   \   00000084   0500A0E1           MOV      R0,R5
   \   00000088   0710A0E1           MOV      R1,R7
   \   0000008C   ........           _BLF     __fAdd,??__fAdd??rA
   \   00000090   0050A0E1           MOV      R5,R0
    576                  t += (*Function)(X) * (1 + (i & 1)) * 2;
   \   00000094   0410A0E1           MOV      R1,R4
   \   00000098   0FE0A0E1           MOV      LR,PC
   \   0000009C   11FF2FE1           BX       R1
   \   000000A0   00A0A0E1           MOV      R10,R0
   \   000000A4   010009E2           AND      R0,R9,#0x1
   \   000000A8   010080E2           ADD      R0,R0,#+1
   \   000000AC   ........           _BLF     __longToFloat,??__longToFloat??rA
   \   000000B0   0A10A0E1           MOV      R1,R10
   \   000000B4   ........           _BLF     __fMul,??__fMul??rA
   \   000000B8   4014A0E3           MOV      R1,#+1073741824
   \   000000BC   ........           _BLF     __fMul,??__fMul??rA
   \   000000C0   0810A0E1           MOV      R1,R8
   \   000000C4   ........           _BLF     __fAdd,??__fAdd??rA
   \   000000C8   0080A0E1           MOV      R8,R0
    577              }
   \   000000CC   019089E2           ADD      R9,R9,#+1
   \                     ??Simpson_3:
   \   000000D0   090056E1           CMP      R6,R9
   \   000000D4   EAFFFFAA           BGE      ??Simpson_4
    578              return (h / 3 * t);
   \   000000D8   0700A0E1           MOV      R0,R7
   \   000000DC   4014A0E3           MOV      R1,#+1073741824
   \   000000E0   401881E3           ORR      R1,R1,#0x400000
   \   000000E4   ........           _BLF     __fDiv,??__fDiv??rA
   \   000000E8   0810A0E1           MOV      R1,R8
   \   000000EC   ........           _BLF     __fMul,??__fMul??rA
   \   000000F0   ........           B        ?Subroutine78
    579          }

   \                                 In segment CODE, align 4, keep-with-next
   \                     ?Subroutine78:
   \   00000000   F047BDE8           POP      {R4-R10,LR}
   \   00000004   1EFF2FE1           BX       LR               ;; return
    580          

   \                                 In segment CODE, align 4, keep-with-next
    581          float Simpson(float First, float Last, int m, float (*Function)(float, float), float Val) {
   \                     ??Simpson_1:
   \   00000000   F04F2DE9           PUSH     {R4-R11,LR}
   \   00000004   24509DE5           LDR      R5,[SP, #+36]
   \   00000008   00A0A0E1           MOV      R10,R0
   \   0000000C   0190A0E1           MOV      R9,R1
   \   00000010   0270A0E1           MOV      R7,R2
   \   00000014   0340A0E1           MOV      R4,R3
    582              float X = First;
   \   00000018   0A60A0E1           MOV      R6,R10
    583          
    584              if (m & 1) m++;
   \   0000001C   010017E3           TST      R7,#0x1
   \   00000020   01708712           ADDNE    R7,R7,#+1
    585              float h = (Last - First) / m;
   \   00000024   0900A0E1           MOV      R0,R9
   \   00000028   0A10A0E1           MOV      R1,R10
   \   0000002C   ........           _BLF     __fSub,??__fSub??rA
   \   00000030   0080A0E1           MOV      R8,R0
   \   00000034   0700A0E1           MOV      R0,R7
   \   00000038   ........           _BLF     __longToFloat,??__longToFloat??rA
   \   0000003C   0010A0E1           MOV      R1,R0
   \   00000040   0800A0E1           MOV      R0,R8
   \   00000044   ........           _BLF     __fDiv,??__fDiv??rA
   \   00000048   0080A0E1           MOV      R8,R0
    586              float t = (*Function)(First, Val) - (*Function)(Last, Val);
   \   0000004C   0510A0E1           MOV      R1,R5
   \   00000050   0A00A0E1           MOV      R0,R10
   \   00000054   0420A0E1           MOV      R2,R4
   \   00000058   0FE0A0E1           MOV      LR,PC
   \   0000005C   12FF2FE1           BX       R2
   \   00000060   00A0A0E1           MOV      R10,R0
   \   00000064   0510A0E1           MOV      R1,R5
   \   00000068   0900A0E1           MOV      R0,R9
   \   0000006C   0420A0E1           MOV      R2,R4
   \   00000070   0FE0A0E1           MOV      LR,PC
   \   00000074   12FF2FE1           BX       R2
   \   00000078   0010A0E1           MOV      R1,R0
   \   0000007C   0A00A0E1           MOV      R0,R10
   \   00000080   ........           _BLF     __fSub,??__fSub??rA
   \   00000084   0090A0E1           MOV      R9,R0
    587              for (register int i = 1; i <= m; i++) {
   \   00000088   01A0A0E3           MOV      R10,#+1
   \   0000008C   130000EA           B        ??Simpson_5
    588                  X += h;
   \                     ??Simpson_6:
   \   00000090   0600A0E1           MOV      R0,R6
   \   00000094   0810A0E1           MOV      R1,R8
   \   00000098   ........           _BLF     __fAdd,??__fAdd??rA
   \   0000009C   0060A0E1           MOV      R6,R0
    589                  t += (*Function)(X, Val) * (1 + (i & 1)) * 2;
   \   000000A0   0510A0E1           MOV      R1,R5
   \   000000A4   0420A0E1           MOV      R2,R4
   \   000000A8   0FE0A0E1           MOV      LR,PC
   \   000000AC   12FF2FE1           BX       R2
   \   000000B0   00B0A0E1           MOV      R11,R0
   \   000000B4   01000AE2           AND      R0,R10,#0x1
   \   000000B8   010080E2           ADD      R0,R0,#+1
   \   000000BC   ........           _BLF     __longToFloat,??__longToFloat??rA
   \   000000C0   0B10A0E1           MOV      R1,R11
   \   000000C4   ........           _BLF     __fMul,??__fMul??rA
   \   000000C8   4014A0E3           MOV      R1,#+1073741824
   \   000000CC   ........           _BLF     __fMul,??__fMul??rA
   \   000000D0   0910A0E1           MOV      R1,R9
   \   000000D4   ........           _BLF     __fAdd,??__fAdd??rA
   \   000000D8   0090A0E1           MOV      R9,R0
    590              }
   \   000000DC   01A08AE2           ADD      R10,R10,#+1
   \                     ??Simpson_5:
   \   000000E0   0A0057E1           CMP      R7,R10
   \   000000E4   E9FFFFAA           BGE      ??Simpson_6
    591              return (h / 3 * t);
   \   000000E8   ........           B        ?Subroutine68
    592          }
    593          

   \                                 In segment CODE, align 4, keep-with-next
    594          float Simpson(float First, float Last, int m, float (*Function)(float, float, float), float Val1, float Val2) {
   \                     ??Simpson_2:
   \   00000000   F04F2DE9           PUSH     {R4-R11,LR}
   \   00000004   24509DE5           LDR      R5,[SP, #+36]
   \   00000008   28609DE5           LDR      R6,[SP, #+40]
   \   0000000C   00A0A0E1           MOV      R10,R0
   \   00000010   0190A0E1           MOV      R9,R1
   \   00000014   0270A0E1           MOV      R7,R2
   \   00000018   0340A0E1           MOV      R4,R3
    595              float X = First;
   \   0000001C   0AB0A0E1           MOV      R11,R10
    596          
    597              if (m & 1) m++;
   \   00000020   010017E3           TST      R7,#0x1
   \   00000024   01708712           ADDNE    R7,R7,#+1
    598              float h = (Last - First) / m;
   \   00000028   0900A0E1           MOV      R0,R9
   \   0000002C   0A10A0E1           MOV      R1,R10
   \   00000030   ........           _BLF     __fSub,??__fSub??rA
   \   00000034   0080A0E1           MOV      R8,R0
   \   00000038   0700A0E1           MOV      R0,R7
   \   0000003C   ........           _BLF     __longToFloat,??__longToFloat??rA
   \   00000040   0010A0E1           MOV      R1,R0
   \   00000044   0800A0E1           MOV      R0,R8
   \   00000048   ........           _BLF     __fDiv,??__fDiv??rA
   \   0000004C   0080A0E1           MOV      R8,R0
    599              float t = (*Function)(First, Val1, Val2) - (*Function)(Last, Val1, Val2);
   \   00000050   0620A0E1           MOV      R2,R6
   \   00000054   0510A0E1           MOV      R1,R5
   \   00000058   0A00A0E1           MOV      R0,R10
   \   0000005C   0430A0E1           MOV      R3,R4
   \   00000060   0FE0A0E1           MOV      LR,PC
   \   00000064   13FF2FE1           BX       R3
   \   00000068   00A0A0E1           MOV      R10,R0
   \   0000006C   0620A0E1           MOV      R2,R6
   \   00000070   0510A0E1           MOV      R1,R5
   \   00000074   0900A0E1           MOV      R0,R9
   \   00000078   0430A0E1           MOV      R3,R4
   \   0000007C   0FE0A0E1           MOV      LR,PC
   \   00000080   13FF2FE1           BX       R3
   \   00000084   0010A0E1           MOV      R1,R0
   \   00000088   0A00A0E1           MOV      R0,R10
   \   0000008C   ........           _BLF     __fSub,??__fSub??rA
   \   00000090   0090A0E1           MOV      R9,R0
    600              for (register int i = 1; i <= m; i++) {
   \   00000094   01A0A0E3           MOV      R10,#+1
   \   00000098   140000EA           B        ??Simpson_7
    601                  X += h;
   \                     ??Simpson_8:
   \   0000009C   0B00A0E1           MOV      R0,R11
   \   000000A0   0810A0E1           MOV      R1,R8
   \   000000A4   ........           _BLF     __fAdd,??__fAdd??rA
   \   000000A8   00B0A0E1           MOV      R11,R0
    602                  t += (*Function)(X, Val1, Val2) * (1 + (i & 1)) * 2;
   \   000000AC   0620A0E1           MOV      R2,R6
   \   000000B0   0510A0E1           MOV      R1,R5
   \   000000B4   0430A0E1           MOV      R3,R4
   \   000000B8   0FE0A0E1           MOV      LR,PC
   \   000000BC   13FF2FE1           BX       R3
   \   000000C0   01002DE9           PUSH     {R0}
   \   000000C4   01000AE2           AND      R0,R10,#0x1
   \   000000C8   010080E2           ADD      R0,R0,#+1
   \   000000CC   ........           _BLF     __longToFloat,??__longToFloat??rA
   \   000000D0   0200BDE8           POP      {R1}
    603              }
   \   000000D4   01A08AE2           ADD      R10,R10,#+1
   \   000000D8   ........           _BLF     __fMul,??__fMul??rA
   \   000000DC   4014A0E3           MOV      R1,#+1073741824
   \   000000E0   ........           _BLF     __fMul,??__fMul??rA
   \   000000E4   0910A0E1           MOV      R1,R9
   \   000000E8   ........           _BLF     __fAdd,??__fAdd??rA
   \   000000EC   0090A0E1           MOV      R9,R0
   \                     ??Simpson_7:
   \   000000F0   0A0057E1           CMP      R7,R10
   \   000000F4   E8FFFFAA           BGE      ??Simpson_8
    604              return (h / 3 * t);
   \   000000F8                      REQUIRE ?Subroutine68
   \   000000F8                      ;; // Fall through to label ?Subroutine68
    605          }
    606          

   \                                 In segment CODE, align 4, keep-with-next
    607          bool IsInfinite(const float A) {
    608              const int kInfAsInt = 0x7F800000;
    609          
    610              // An infinity has an exponent of 255 (shift left 23 positions) and
    611              // a zero mantissa. There are two infinities - positive and negative.
    612              if ((*(int *)&A & 0x7FFFFFFF) == kInfAsInt) return (true);
   \                     ??IsInfinite:
   \   00000000   8000A0E1           LSL      R0,R0,#+1
   \   00000004   4014A0E3           MOV      R1,#+1073741824
   \   00000008   FE1581E3           ORR      R1,R1,#0x3F800000
   \   0000000C   A00051E1           CMP      R1,R0, LSR #+1
   \   00000010   0100A003           MOVEQ    R0,#+1
   \   00000014   1EFF2F01           BXEQ     LR
    613              return (false);
   \   00000018   ........           B        ?Subroutine79
    614          }

   \                                 In segment CODE, align 4, keep-with-next
   \                     ?Subroutine79:
   \   00000000   0000A0E3           MOV      R0,#+0
   \   00000004   1EFF2FE1           BX       LR               ;; return
    615          

   \                                 In segment CODE, align 4, keep-with-next
    616          bool IsNan(const float A) {
    617              // A NAN has an exponent of 255 (shifted left 23 positions) and
    618              // a non-zero mantissa.
    619              int exp = *(int *)&A & 0x7F800000;
    620              int mantissa = *(int *)&A & 0x007FFFFF;
    621              if (exp == 0x7F800000 && mantissa != 0) return (true);
   \                     ??IsNan:
   \   00000000   4014A0E3           MOV      R1,#+1073741824
   \   00000004   FE1581E3           ORR      R1,R1,#0x3F800000
   \   00000008   002001E0           AND      R2,R1,R0
   \   0000000C   010052E1           CMP      R2,R1
   \   00000010   0400001A           BNE      ??IsNan_1
   \   00000014   8004A0E1           LSL      R0,R0,#+9
   \   00000018   A004B0E1           LSRS     R0,R0,#+9
   \   0000001C   1EFF2F01           BXEQ     LR
   \   00000020   0100A0E3           MOV      R0,#+1
   \   00000024   1EFF2FE1           BX       LR
    622              return (false);
   \                     ??IsNan_1:
   \   00000028                      REQUIRE ?Subroutine79
   \   00000028                      ;; // Fall through to label ?Subroutine79
    623          }
    624          

   \                                 In segment CODE, align 4, keep-with-next
    625          bool IsFloat(float A) {
    626              // A NAN has an exponent of 255 (shifted left 23 positions) and
    627              // Denormalized has an exponent set to 0
    628              int exp = *(int *)&A & 0x7F800000;
   \                     ??IsFloat:
   \   00000000   4014A0E3           MOV      R1,#+1073741824
   \   00000004   FE1581E3           ORR      R1,R1,#0x3F800000
   \   00000008   000011E0           ANDS     R0,R1,R0
    629              // int mantissa = *(int*)&A & 0x007FFFFF;
    630              if (exp && (exp != 0x7F800000)) return (true);
   \   0000000C   1EFF2F01           BXEQ     LR
   \   00000010   010050E1           CMP      R0,R1
   \   00000014   0100A013           MOVNE    R0,#+1
   \   00000018   1EFF2F11           BXNE     LR
    631              return (false);
   \   0000001C   ........           B        ?Subroutine79
    632          }
    633          
    634          #ifdef S2TXU
    635          

   \                                 In segment CODE, align 4, keep-with-next
    636          void* lfind(const void *Key, void *Base, size_t *NElements, size_t Width, int (*Compar)(const void *, const void *)) {
   \                     ??lfind:
   \   00000000   F0472DE9           PUSH     {R4-R10,LR}
   \   00000004   20809DE5           LDR      R8,[SP, #+32]
   \   00000008   0040A0E1           MOV      R4,R0
   \   0000000C   0150A0E1           MOV      R5,R1
   \   00000010   0260A0E1           MOV      R6,R2
   \   00000014   0370A0E1           MOV      R7,R3
    637              size_t Cnt = 0;
   \   00000018   0090A0E3           MOV      R9,#+0
    638              bool Found = false;
    639              char *DataPtr = (char *)Base;
    640              do {
    641                  char *ResultPtr = &DataPtr[Width * Cnt];
   \                     ??lfind_1:
   \   0000001C   99572AE0           MLA      R10,R9,R7,R5
    642                  if (!(*Compar)(Key, ResultPtr)) {
   \   00000020   0A10A0E1           MOV      R1,R10
   \   00000024   0400A0E1           MOV      R0,R4
   \   00000028   0820A0E1           MOV      R2,R8
   \   0000002C   0FE0A0E1           MOV      LR,PC
   \   00000030   12FF2FE1           BX       R2
   \   00000034   000050E3           CMP      R0,#+0
    643                      return (void *)ResultPtr;
   \   00000038   0A00A001           MOVEQ    R0,R10
   \   0000003C   0400000A           BEQ      ??lfind_2
    644                  } else {
    645                      Cnt++;
    646                  }
    647              }while (!Found && (Cnt < *NElements));
   \   00000040   000096E5           LDR      R0,[R6, #+0]
   \   00000044   019089E2           ADD      R9,R9,#+1
   \   00000048   000059E1           CMP      R9,R0
   \   0000004C   F2FFFF3A           BCC      ??lfind_1
    648              return (NULL);
   \   00000050   0000A0E3           MOV      R0,#+0
   \                     ??lfind_2:
   \   00000054                      REQUIRE ?Subroutine78
   \   00000054                      ;; // Fall through to label ?Subroutine78
    649          }
    650          #endif
    651          

   \                                 In segment CODE, align 4, keep-with-next
    652          int inet_aton(const char *cp) {
   \                     ??inet_aton:
   \   00000000   30402DE9           PUSH     {R4,R5,LR}
   \   00000004   14D04DE2           SUB      SP,SP,#+20
   \   00000008   0050A0E1           MOV      R5,R0
    653              unsigned parts[4];
    654              unsigned val;
    655              const char *c;
    656              char *endptr;
    657              int gotend, n;
    658          
    659              c = (const char *)cp;
    660              n = 0;
   \   0000000C   0040A0E3           MOV      R4,#+0
    661          
    662              /*
    663               * Run through the string, grabbing numbers until
    664               * the end of the string, or some error
    665               */
    666              gotend = 0;
   \   00000010   030000EA           B        ??inet_aton_2
    667              while (!gotend) {
    668                  unsigned long l;
    669          
    670                  l = strtoul(c, &endptr, 0);
    671          
    672                  if (l == ULONG_MAX || (l == 0 && endptr == c)) return (0);
    673          
    674                  val = unsigned(l);
    675          
    676                  /*
    677                   * If the whole string is invalid, endptr will equal
    678                   * c.. this way we can make sure someone hasn't
    679                   * gone '.12' or something which would get past
    680                   * the next check.
    681                   */
    682                  if (endptr == c) return (0);
    683                  parts[n] = val;
    684                  c = endptr;
    685          
    686                  /* Check the next character past the previous number's end */
    687                  switch (*c) {
    688                  case ':':
    689                  case '.':
    690          
    691                      /* Make sure we only do 3 dots .. */
    692                      if (n == 3) /* Whoops. Quit. */
   \                     ??inet_aton_3:
   \   00000014   030054E3           CMP      R4,#+3
   \   00000018   0B00000A           BEQ      ??inet_aton_4
    693                          return (0);
    694                      n++;
   \   0000001C   014084E2           ADD      R4,R4,#+1
    695                      c++;
   \   00000020   015085E2           ADD      R5,R5,#+1
   \                     ??inet_aton_2:
   \   00000024   0020A0E3           MOV      R2,#+0
   \   00000028   0D10A0E1           MOV      R1,SP
   \   0000002C   0500A0E1           MOV      R0,R5
   \   00000030   ........           _BLF     _Stoul,??_Stoul??rA
   \   00000034   010070E3           CMN      R0,#+1
   \   00000038   0300000A           BEQ      ??inet_aton_4
   \   0000003C   000050E3           CMP      R0,#+0
   \   00000040   00109D05           LDREQ    R1,[SP, #+0]
   \   00000044   05005101           CMPEQ    R1,R5
   \   00000048   0100001A           BNE      ??inet_aton_5
   \                     ??inet_aton_4:
   \   0000004C   0000A0E3           MOV      R0,#+0
   \   00000050   350000EA           B        ??inet_aton_6
   \                     ??inet_aton_5:
   \   00000054   00109DE5           LDR      R1,[SP, #+0]
   \   00000058   050051E1           CMP      R1,R5
   \   0000005C   FAFFFF0A           BEQ      ??inet_aton_4
   \   00000060   04108DE2           ADD      R1,SP,#+4
   \   00000064   040181E7           STR      R0,[R1, +R4, LSL #+2]
   \   00000068   00509DE5           LDR      R5,[SP, #+0]
   \   0000006C   0010D5E5           LDRB     R1,[R5, #+0]
   \   00000070   0120B0E1           MOVS     R2,R1
   \   00000074   0300000A           BEQ      ??inet_aton_7
   \   00000078   2E2051E2           SUBS     R2,R1,#+46
   \   0000007C   0C205212           SUBSNE   R2,R2,#+12
   \   00000080   E3FFFF0A           BEQ      ??inet_aton_3
   \   00000084   100000EA           B        ??inet_aton_8
    696                      break;
    697          
    698                  case '\0':
    699                      gotend = 1;
    700                      break;
    701          
    702                  default:
    703                      if (isspace((unsigned char)*c)) {
    704                          gotend = 1;
    705                          break;
    706                      } else {
    707          
    708                          /* Invalid character, then fail. */
    709                          return (0);
    710                      }
    711                  }
    712          
    713              }
    714          
    715              /* Concoct the address according to the number of parts specified. */
    716              switch (n) {
   \                     ??inet_aton_7:
   \   00000088   08109DE5           LDR      R1,[SP, #+8]
   \   0000008C   04309DE5           LDR      R3,[SP, #+4]
   \   00000090   0128A0E1           LSL      R2,R1,#+16
   \   00000094   033CA0E1           LSL      R3,R3,#+24
   \   00000098   014044E2           SUB      R4,R4,#+1
   \   0000009C   020054E3           CMP      R4,#+2
   \   000000A0   2100008A           BHI      ??inet_aton_6
   \   000000A4   015F8FE2           ADR      R5,??inet_aton_1
   \   000000A8   0450D5E7           LDRB     R5,[R5, R4]
   \   000000AC   05F18FE0           ADD      PC,PC,R5, LSL #+2
   \                     ??inet_aton_1:
   \   000000B0   000D1400           DC8      +0,+13,+20,+0
    717              case 0: /* a -- 32 bits */
    718          
    719                  /*
    720                   * Nothing is necessary here.  Overflow checking was
    721                   * already done in strtoul().
    722                   */
    723                  break;
    724              case 1: /* a.b -- 8.24 bits */
    725                  if (val > 0xffffff || parts[0] > 0xff) return (0);
   \                     ??inet_aton_9:
   \   000000B4   400750E3           CMP      R0,#+16777216
   \   000000B8   04109D35           LDRCC    R1,[SP, #+4]
   \   000000BC   400F5133           CMPCC    R1,#+256
   \   000000C0   E1FFFF2A           BCS      ??inet_aton_4
    726                  val |= parts[0] << 24;
   \   000000C4   000083E1           ORR      R0,R3,R0
   \   000000C8   170000EA           B        ??inet_aton_6
   \                     ??inet_aton_8:
   \   000000CC   090051E3           CMP      R1,#+9
   \   000000D0   010000BA           BLT      ??inet_aton_10
   \   000000D4   0E0051E3           CMP      R1,#+14
   \   000000D8   EAFFFFBA           BLT      ??inet_aton_7
   \                     ??inet_aton_10:
   \   000000DC   200051E3           CMP      R1,#+32
   \   000000E0   D9FFFF1A           BNE      ??inet_aton_4
   \   000000E4   E7FFFFEA           B        ??inet_aton_7
    727                  break;
    728          
    729              case 2: /* a.b.c -- 8.8.16 bits */
    730                  if (val > 0xffff || parts[0] > 0xff || parts[1] > 0xff) return (0);
   \                     ??inet_aton_11:
   \   000000E8   400B50E3           CMP      R0,#+65536
   \   000000EC   04409D35           LDRCC    R4,[SP, #+4]
   \   000000F0   400F5433           CMPCC    R4,#+256
   \   000000F4   400F5133           CMPCC    R1,#+256
   \   000000F8   D3FFFF2A           BCS      ??inet_aton_4
    731                  val |= (parts[0] << 24) | (parts[1] << 16);
   \   000000FC   031082E1           ORR      R1,R2,R3
   \   00000100   080000EA           B        ??inet_aton_12
    732                  break;
    733          
    734              case 3: /* a.b.c.d -- 8.8.8.8 bits */
    735                  if (val > 0xff || parts[0] > 0xff || parts[1] > 0xff || parts[2] > 0xff) return (0);
   \                     ??inet_aton_13:
   \   00000104   400F50E3           CMP      R0,#+256
   \   00000108   04409D35           LDRCC    R4,[SP, #+4]
   \   0000010C   400F5433           CMPCC    R4,#+256
   \   00000110   400F5133           CMPCC    R1,#+256
   \   00000114   0C109D35           LDRCC    R1,[SP, #+12]
   \   00000118   400F5133           CMPCC    R1,#+256
   \   0000011C   CAFFFF2A           BCS      ??inet_aton_4
    736                  val |= (parts[0] << 24) | (parts[1] << 16) | (parts[2] << 8);
   \   00000120   032082E1           ORR      R2,R2,R3
   \   00000124   011482E1           ORR      R1,R2,R1, LSL #+8
   \                     ??inet_aton_12:
   \   00000128   000081E1           ORR      R0,R1,R0
    737                  break;
    738              }
    739              return val;
   \                     ??inet_aton_6:
   \   0000012C   14D08DE2           ADD      SP,SP,#+20
   \   00000130                      REQUIRE ?Subroutine77
   \   00000130                      ;; // Fall through to label ?Subroutine77
    740          }
    741          

   \                                 In segment CODE, align 4, keep-with-next
    742          void StartMainProgram(void) {
    743          #ifdef ANBOOTLOADER
    744          #ifdef TXU_RELEASE
    745              // OS_IncDI();
    746              MMU_DisableMMU();
    747          
    748              char *StartAddress = (char *)0x30000000;
    749              FlashBaseAddress = 0x0; // We must do this because the MMU is not activated
    750              U8 *ConfigStartPtr;
    751              U32 ConfigSize;
    752              // OS_EnterRegion();     /* Avoid further task switches            */
    753              if (GetBlockInfoMX29LV(SectorConfigStart, SectorConfigEnd, &ConfigStartPtr, &ConfigSize) ||
    754                  GetBlockInfoMX29LV(SectorConfigBakStart, SectorConfigBakEnd, &ConfigStartPtr, &ConfigSize)) {
    755          #if (WATCHDOG == 1)
    756                  OS_SignalEvent(WD_STOP, &WatchDogTaskHandle);
    757          #endif
    758                  if (CopyFromFlash(SectorProgStart, SectorProgEnd, (char *)StartAddress)) {
    759                      ProgProgress = WD_BOOT_START_MAIN;
    760                      rINTMSK = 0xffffffff;
    761                      rEINTMASK = 0x3ff;
    762                      void (*run)(void) = (void(*)(void))StartAddress;
    763                      run();
    764                  }
    765          #if (WATCHDOG == 1)
    766                  OS_SignalEvent(WD_START, &WatchDogTaskHandle);
    767          #endif
    768              }
    769              // OS_DecRI();
    770          #endif
    771              FlashBaseAddress = 0x4000000; // Prepare for the MMU
    772          #endif
    773          }
   \                     ??StartMainProgram:
   \   00000000   1EFF2FE1           BX       LR               ;; return
    774          
    775          #ifndef ANBOOTLOADER
    776          

   \                                 In segment CODE, align 4, keep-with-next
    777          int CheckAlarms(set<AlarmBasic *>& AlarmSet, volatile bool* pHWFailure) {
   \                     ??CheckAlarms:
   \   00000000   F0432DE9           PUSH     {R4-R9,LR}
   \   00000004   0040A0E1           MOV      R4,R0
    778              int ActiveAlarmCnt = 0;
    779              bool ActiveHWAlarms = false;
    780              set<AlarmBasic *>::iterator pBIt;
    781              for (pBIt = AlarmSet.begin(); pBIt != AlarmSet.end(); pBIt++) {
   \   00000008   009094E5           LDR      R9,[R4, #+0]
   \   0000000C   0150A0E1           MOV      R5,R1
   \   00000010   0060A0E3           MOV      R6,#+0
   \   00000014   0070A0E3           MOV      R7,#+0
   \   00000018   0F0000EA           B        ??CheckAlarms_1
    782                  AlarmBasic* Element = *pBIt;
   \                     ??CheckAlarms_2:
   \   0000001C   108099E5           LDR      R8,[R9, #+16]
    783                  Element->Check();
   \   00000020   0800A0E1           MOV      R0,R8
   \   00000024   A41098E5           LDR      R1,[R8, #+164]
   \   00000028   641091E5           LDR      R1,[R1, #+100]
   \   0000002C   0FE0A0E1           MOV      LR,PC
   \   00000030   11FF2FE1           BX       R1
    784                  if (Element->State != AlarmBasic::AlIdle) {
   \   00000034   E000D8E5           LDRB     R0,[R8, #+224]
   \   00000038   000050E3           CMP      R0,#+0
   \   0000003C   0300000A           BEQ      ??CheckAlarms_3
    785                      if (Element->IsHWAlarm) {
   \   00000040   CE00D8E5           LDRB     R0,[R8, #+206]
    786                          ActiveHWAlarms = true;
    787                      }
    788                      ActiveAlarmCnt++;
   \   00000044   016086E2           ADD      R6,R6,#+1
   \   00000048   000050E3           CMP      R0,#+0
   \   0000004C   0170A013           MOVNE    R7,#+1
    789                  }
    790              }
   \                     ??CheckAlarms_3:
   \   00000050   0900A0E1           MOV      R0,R9
   \   00000054   ........           _BLF     ??_IncP,??_IncP??rA
   \   00000058   0090A0E1           MOV      R9,R0
   \                     ??CheckAlarms_1:
   \   0000005C   040059E1           CMP      R9,R4
   \   00000060   EDFFFF1A           BNE      ??CheckAlarms_2
    791          
    792              if (pHWFailure) {
   \   00000064   000055E3           CMP      R5,#+0
    793                  *pHWFailure = bool(ActiveHWAlarms);
   \   00000068   0070C515           STRBNE   R7,[R5, #+0]
    794              }
    795          
    796              return (ActiveAlarmCnt);
   \   0000006C   0600A0E1           MOV      R0,R6
   \   00000070                      REQUIRE ?Subroutine76
   \   00000070                      ;; // Fall through to label ?Subroutine76
    797          }
    798          

   \                                 In segment CODE, align 4, keep-with-next
    799          void SetAlarmsToNormal(set<AlarmBasic *>& AlarmSet) {
   \                     ??SetAlarmsToNormal:
   \   00000000   30402DE9           PUSH     {R4,R5,LR}
   \   00000004   0040A0E1           MOV      R4,R0
    800              set<AlarmBasic *>::iterator pBIt;
    801              for (pBIt = AlarmSet.begin(); pBIt != AlarmSet.end(); pBIt++) {
   \   00000008   005094E5           LDR      R5,[R4, #+0]
   \   0000000C   040000EA           B        ??SetAlarmsToNormal_1
    802                  AlarmBasic* Element = *pBIt;
    803                  Element->SetAlarmToNormal();
   \                     ??SetAlarmsToNormal_2:
   \   00000010   100095E5           LDR      R0,[R5, #+16]
   \   00000014   ........           _BLF     ??SetAlarmToNormal,??SetAlarmToNormal??rA
    804              }
   \   00000018   0500A0E1           MOV      R0,R5
   \   0000001C   ........           _BLF     ??_IncP,??_IncP??rA
   \   00000020   0050A0E1           MOV      R5,R0
   \                     ??SetAlarmsToNormal_1:
   \   00000024   040055E1           CMP      R5,R4
   \   00000028   F8FFFF1A           BNE      ??SetAlarmsToNormal_2
    805          }
   \   0000002C   ........           B        ?Subroutine77
    806          

   \                                 In segment CODE, align 4, keep-with-next
    807          void GetAlarmTotals(set<AlarmBasic *>& AlarmInfoList, int& ActAl, int& AckAl, int& IdlAl, int& SuspAl, int& OutsideLim,
    808                              int& OutsideLimEnabled) {
   \                     ??GetAlarmTotals:
   \   00000000   F0472DE9           PUSH     {R4-R10,LR}
   \   00000004   20709DE5           LDR      R7,[SP, #+32]
   \   00000008   24809DE5           LDR      R8,[SP, #+36]
   \   0000000C   28909DE5           LDR      R9,[SP, #+40]
   \   00000010   00A0A0E1           MOV      R10,R0
   \   00000014   0140A0E1           MOV      R4,R1
   \   00000018   0250A0E1           MOV      R5,R2
   \   0000001C   0360A0E1           MOV      R6,R3
    809              ActAl = 0;
   \   00000020   0000A0E3           MOV      R0,#+0
   \   00000024   000084E5           STR      R0,[R4, #+0]
    810              AckAl = 0;
   \   00000028   000085E5           STR      R0,[R5, #+0]
    811              IdlAl = 0;
   \   0000002C   000086E5           STR      R0,[R6, #+0]
    812              SuspAl = 0;
   \   00000030   000087E5           STR      R0,[R7, #+0]
    813              OutsideLim = 0;
   \   00000034   000088E5           STR      R0,[R8, #+0]
    814              OutsideLimEnabled = 0;
   \   00000038   000089E5           STR      R0,[R9, #+0]
    815              set<AlarmBasic *>::iterator pBIt;
    816              for (pBIt = AlarmInfoList.begin(); pBIt != AlarmInfoList.end(); pBIt++) {
   \   0000003C   00009AE5           LDR      R0,[R10, #+0]
   \   00000040   0E0000EA           B        ??GetAlarmTotals_2
    817                  AlarmBasic* TempElement = *pBIt;
    818                  switch (TempElement->State) {
    819                  case AlarmBasic::AlIdle:
    820                      IdlAl++;
    821                      break;
    822                  case AlarmBasic::AlActive:
    823                      ActAl++;
    824                      break;
    825                  case AlarmBasic::AlAknowledged:
    826                      AckAl++;
    827                      break;
    828                  case AlarmBasic::AlBlocked:
    829                      SuspAl++;
   \                     ??GetAlarmTotals_3:
   \   00000044   002097E5           LDR      R2,[R7, #+0]
   \   00000048   012082E2           ADD      R2,R2,#+1
   \   0000004C   002087E5           STR      R2,[R7, #+0]
    830                      break;
    831                  }
    832                  if (TempElement->OutsideLimit) {
   \                     ??GetAlarmTotals_4:
   \   00000050   E920D1E5           LDRB     R2,[R1, #+233]
   \   00000054   000052E3           CMP      R2,#+0
   \   00000058   0700000A           BEQ      ??GetAlarmTotals_5
    833                      OutsideLim++;
   \   0000005C   002098E5           LDR      R2,[R8, #+0]
   \   00000060   012082E2           ADD      R2,R2,#+1
   \   00000064   002088E5           STR      R2,[R8, #+0]
    834                      if (TempElement->Enable) {
   \   00000068   E210D1E5           LDRB     R1,[R1, #+226]
   \   0000006C   000051E3           CMP      R1,#+0
    835                          OutsideLimEnabled++;
   \   00000070   00109915           LDRNE    R1,[R9, #+0]
   \   00000074   01108112           ADDNE    R1,R1,#+1
   \   00000078   00108915           STRNE    R1,[R9, #+0]
    836                      }
    837                  }
   \                     ??GetAlarmTotals_5:
   \   0000007C   ........           _BLF     ??_IncP,??_IncP??rA
   \                     ??GetAlarmTotals_2:
   \   00000080   0A0050E1           CMP      R0,R10
   \   00000084   0000001A           BNE      ??GetAlarmTotals_6
    838              }
    839          }
   \   00000088   ........           B        ?Subroutine78
   \                     ??GetAlarmTotals_6:
   \   0000008C   101090E5           LDR      R1,[R0, #+16]
   \   00000090   E020D1E5           LDRB     R2,[R1, #+224]
   \   00000094   030052E3           CMP      R2,#+3
   \   00000098   ECFFFF8A           BHI      ??GetAlarmTotals_4
   \   0000009C   013F8FE2           ADR      R3,??GetAlarmTotals_1
   \   000000A0   D23093E1           LDRSB    R3,[R3, R2]
   \   000000A4   03F18FE0           ADD      PC,PC,R3, LSL #+2
   \                     ??GetAlarmTotals_1:
   \   000000A8   000408E6           DC8      +0,+4,+8,+230
   \                     ??GetAlarmTotals_7:
   \   000000AC   002096E5           LDR      R2,[R6, #+0]
   \   000000B0   012082E2           ADD      R2,R2,#+1
   \   000000B4   002086E5           STR      R2,[R6, #+0]
   \   000000B8   E4FFFFEA           B        ??GetAlarmTotals_4
   \                     ??GetAlarmTotals_8:
   \   000000BC   002094E5           LDR      R2,[R4, #+0]
   \   000000C0   012082E2           ADD      R2,R2,#+1
   \   000000C4   002084E5           STR      R2,[R4, #+0]
   \   000000C8   E0FFFFEA           B        ??GetAlarmTotals_4
   \                     ??GetAlarmTotals_9:
   \   000000CC   002095E5           LDR      R2,[R5, #+0]
   \   000000D0   012082E2           ADD      R2,R2,#+1
   \   000000D4   002085E5           STR      R2,[R5, #+0]
   \   000000D8   DCFFFFEA           B        ??GetAlarmTotals_4
    840          

   \                                 In segment CODE, align 4, keep-with-next
    841          int GetActiveAlarms(set<AlarmBasic *>& AlarmSet) {
   \                     ??GetActiveAlarms:
   \   00000000   30402DE9           PUSH     {R4,R5,LR}
   \   00000004   0040A0E1           MOV      R4,R0
    842              int ActAl = 0;
    843              set<AlarmBasic *>::iterator pBIt;
    844              for (pBIt = AlarmSet.begin(); pBIt != AlarmSet.end(); pBIt++) {
   \   00000008   000094E5           LDR      R0,[R4, #+0]
   \   0000000C   0050A0E3           MOV      R5,#+0
   \   00000010   050000EA           B        ??GetActiveAlarms_1
    845                  AlarmBasic* Element = *pBIt;
    846                  switch (Element->State) {
   \                     ??GetActiveAlarms_2:
   \   00000014   101090E5           LDR      R1,[R0, #+16]
   \   00000018   E010D1E5           LDRB     R1,[R1, #+224]
   \   0000001C   011041E2           SUB      R1,R1,#+1
   \   00000020   010051E3           CMP      R1,#+1
    847                  case AlarmBasic::AlActive:
    848                  case AlarmBasic::AlAknowledged:
    849                      ActAl++;
   \   00000024   01508592           ADDLS    R5,R5,#+1
    850                      break;
    851                  case AlarmBasic::AlIdle:
    852                  case AlarmBasic::AlBlocked:
    853                      break;
    854                  }
    855              }
   \   00000028   ........           _BLF     ??_IncP,??_IncP??rA
   \                     ??GetActiveAlarms_1:
   \   0000002C   040050E1           CMP      R0,R4
   \   00000030   F7FFFF1A           BNE      ??GetActiveAlarms_2
    856              return (ActAl);
   \   00000034   0500A0E1           MOV      R0,R5
   \   00000038   ........           B        ?Subroutine77
    857          }
    858          

   \                                 In segment CODE, align 4, keep-with-next
    859          void AcknowledgeAlarms(set<AlarmBasic *>& AlarmSet) {
   \                     ??AcknowledgeAlarms:
   \   00000000   30402DE9           PUSH     {R4,R5,LR}
   \   00000004   0040A0E1           MOV      R4,R0
    860              set<AlarmBasic *>::iterator pBIt;
    861              for (pBIt = AlarmSet.begin(); pBIt != AlarmSet.end(); pBIt++) {
   \   00000008   005094E5           LDR      R5,[R4, #+0]
   \   0000000C   030000EA           B        ??AcknowledgeAlarms_1
    862                  AlarmBasic* element = *pBIt;
    863                  switch (element->State) {
    864                  case AlarmBasic::AlActive:
    865                      element->MoveAlarmToAknowledge();
    866                      break;
    867                  case AlarmBasic::AlAknowledged:
    868                      element->SetAlarmToNormal();
   \                     ??AcknowledgeAlarms_2:
   \   00000010   ........           _BLF     ??SetAlarmToNormal,??SetAlarmToNormal??rA
   \                     ??AcknowledgeAlarms_3:
   \   00000014   0500A0E1           MOV      R0,R5
   \   00000018   ........           _BLF     ??_IncP,??_IncP??rA
   \   0000001C   0050A0E1           MOV      R5,R0
   \                     ??AcknowledgeAlarms_1:
   \   00000020   040055E1           CMP      R5,R4
   \   00000024   0000001A           BNE      ??AcknowledgeAlarms_4
    869                      break;
    870                  case AlarmBasic::AlIdle:
    871                  case AlarmBasic::AlBlocked:
    872                      break;
    873                  }
    874              }
    875          }
   \   00000028   ........           B        ?Subroutine77
   \                     ??AcknowledgeAlarms_4:
   \   0000002C   100095E5           LDR      R0,[R5, #+16]
   \   00000030   E010D0E5           LDRB     R1,[R0, #+224]
   \   00000034   011051E2           SUBS     R1,R1,#+1
   \   00000038   0200000A           BEQ      ??AcknowledgeAlarms_5
   \   0000003C   011051E2           SUBS     R1,R1,#+1
   \   00000040   F2FFFF0A           BEQ      ??AcknowledgeAlarms_2
   \   00000044   F2FFFFEA           B        ??AcknowledgeAlarms_3
   \                     ??AcknowledgeAlarms_5:
   \   00000048   ........           _BLF     ??MoveAlarmToAknowledge,??MoveAlarmToAknowledge??rA
   \   0000004C   F0FFFFEA           B        ??AcknowledgeAlarms_3
    876          

   \                                 In segment CODE, align 4, keep-with-next
    877          void AcknowledgeSoftAlarms(set<AlarmBasic *>& AlarmSet) {
   \                     ??AcknowledgeSoftAlarms:
   \   00000000   30402DE9           PUSH     {R4,R5,LR}
   \   00000004   0040A0E1           MOV      R4,R0
    878              set<AlarmBasic *>::iterator pBIt;
    879              for (pBIt = AlarmSet.begin(); pBIt != AlarmSet.end(); pBIt++) {
   \   00000008   005094E5           LDR      R5,[R4, #+0]
   \   0000000C   030000EA           B        ??AcknowledgeSoftAlarms_1
    880                  AlarmBasic* element = *pBIt;
    881                  if (!element->IsHWAlarm) {
    882                      switch (element->State) {
    883                      case AlarmBasic::AlActive:
    884                          element->MoveAlarmToAknowledge();
    885                          break;
    886                      case AlarmBasic::AlAknowledged:
    887                          element->SetAlarmToNormal();
   \                     ??AcknowledgeSoftAlarms_2:
   \   00000010   ........           _BLF     ??SetAlarmToNormal,??SetAlarmToNormal??rA
   \                     ??AcknowledgeSoftAlarms_3:
   \   00000014   0500A0E1           MOV      R0,R5
   \   00000018   ........           _BLF     ??_IncP,??_IncP??rA
   \   0000001C   0050A0E1           MOV      R5,R0
   \                     ??AcknowledgeSoftAlarms_1:
   \   00000020   040055E1           CMP      R5,R4
   \   00000024   0000001A           BNE      ??AcknowledgeSoftAlarms_4
    888                          break;
    889                      case AlarmBasic::AlIdle:
    890                      case AlarmBasic::AlBlocked:
    891                          break;
    892                      }
    893                  }
    894              }
    895          }
   \   00000028   ........           B        ?Subroutine77
   \                     ??AcknowledgeSoftAlarms_4:
   \   0000002C   100095E5           LDR      R0,[R5, #+16]
   \   00000030   CE10D0E5           LDRB     R1,[R0, #+206]
   \   00000034   000051E3           CMP      R1,#+0
   \   00000038   F5FFFF1A           BNE      ??AcknowledgeSoftAlarms_3
   \   0000003C   E010D0E5           LDRB     R1,[R0, #+224]
   \   00000040   011051E2           SUBS     R1,R1,#+1
   \   00000044   0200000A           BEQ      ??AcknowledgeSoftAlarms_5
   \   00000048   011051E2           SUBS     R1,R1,#+1
   \   0000004C   EFFFFF0A           BEQ      ??AcknowledgeSoftAlarms_2
   \   00000050   EFFFFFEA           B        ??AcknowledgeSoftAlarms_3
   \                     ??AcknowledgeSoftAlarms_5:
   \   00000054   ........           _BLF     ??MoveAlarmToAknowledge,??MoveAlarmToAknowledge??rA
   \   00000058   EDFFFFEA           B        ??AcknowledgeSoftAlarms_3
    896          

   \                                 In segment CODE, align 4, keep-with-next
    897          void SetDataTime(set<PRogramObject *>& PROSet) {
   \                     ??SetDataTime:
   \   00000000   30402DE9           PUSH     {R4,R5,LR}
   \   00000004   0040A0E1           MOV      R4,R0
    898              clock_t CurrentClock = clock();
   \   00000008   ........           _BLF     clock,??clock??rA
   \   0000000C   0050A0E1           MOV      R5,R0
    899              if (!PROSet.empty()) {
   \   00000010   100094E5           LDR      R0,[R4, #+16]
   \   00000014   000050E3           CMP      R0,#+0
   \   00000018   0600000A           BEQ      ??SetDataTime_2
    900                  set<PRogramObject *>::iterator pBIt;
    901                  for (pBIt = PROSet.begin(); pBIt != PROSet.end(); pBIt++) {
   \   0000001C   000094E5           LDR      R0,[R4, #+0]
   \   00000020   020000EA           B        ??SetDataTime_3
    902                      PRogramObject* TempElement = *pBIt;
    903                      TempElement->TimeStamp = CurrentClock;
   \                     ??SetDataTime_4:
   \   00000024   101090E5           LDR      R1,[R0, #+16]
   \   00000028   405081E5           STR      R5,[R1, #+64]
    904                  }
   \   0000002C   ........           _BLF     ??_IncP,??_IncP??rA
   \                     ??SetDataTime_3:
   \   00000030   040050E1           CMP      R0,R4
   \   00000034   FAFFFF1A           BNE      ??SetDataTime_4
    905              }
    906          }
   \                     ??SetDataTime_2:
   \   00000038   ........           B        ?Subroutine77
    907          

   \                                 In segment CODE, align 4, keep-with-next
    908          void SetDataTime(set<PRogramObjectBase *>& PROList) {
   \                     ??SetDataTime_1:
   \   00000000   30402DE9           PUSH     {R4,R5,LR}
   \   00000004   0040A0E1           MOV      R4,R0
    909              clock_t CurrentClock = clock();
   \   00000008   ........           _BLF     clock,??clock??rA
   \   0000000C   0050A0E1           MOV      R5,R0
    910              set<PRogramObjectBase *>::iterator pBIt;
    911              for (pBIt = PROList.begin(); pBIt != PROList.end(); pBIt++) {
   \   00000010   000094E5           LDR      R0,[R4, #+0]
   \   00000014   020000EA           B        ??SetDataTime_5
    912                  PRogramObject* TempElement = (PRogramObject *)*pBIt;
    913                  TempElement->TimeStamp = CurrentClock;
   \                     ??SetDataTime_6:
   \   00000018   101090E5           LDR      R1,[R0, #+16]
   \   0000001C   405081E5           STR      R5,[R1, #+64]
    914              }
   \   00000020   ........           _BLF     ??_IncP,??_IncP??rA
   \                     ??SetDataTime_5:
   \   00000024   040050E1           CMP      R0,R4
   \   00000028   FAFFFF1A           BNE      ??SetDataTime_6
    915          }
   \   0000002C   ........           B        ?Subroutine77
    916          

   \                                 In segment CODE, align 4, keep-with-next
    917          void RecalcProgramObjects(set<PRogramObject *>& PROList) {
   \                     ??RecalcProgramObjects:
   \   00000000   30402DE9           PUSH     {R4,R5,LR}
   \   00000004   0040A0E1           MOV      R4,R0
    918              set<PRogramObject *>::iterator pBIt;
    919              for (pBIt = PROList.begin(); pBIt != PROList.end(); pBIt++) {
   \   00000008   005094E5           LDR      R5,[R4, #+0]
   \   0000000C   090000EA           B        ??RecalcProgramObjects_1
    920                  PRogramObject* TempElement = *pBIt;
   \                     ??RecalcProgramObjects_2:
   \   00000010   102095E5           LDR      R2,[R5, #+16]
    921                  TempElement->RefreshData();
   \   00000014   0010A0E3           MOV      R1,#+0
   \   00000018   0200A0E1           MOV      R0,R2
   \   0000001C   A42092E5           LDR      R2,[R2, #+164]
   \   00000020   742092E5           LDR      R2,[R2, #+116]
   \   00000024   0FE0A0E1           MOV      LR,PC
   \   00000028   12FF2FE1           BX       R2
    922              }
   \   0000002C   0500A0E1           MOV      R0,R5
   \   00000030   ........           _BLF     ??_IncP,??_IncP??rA
   \   00000034   0050A0E1           MOV      R5,R0
   \                     ??RecalcProgramObjects_1:
   \   00000038   040055E1           CMP      R5,R4
   \   0000003C   F3FFFF1A           BNE      ??RecalcProgramObjects_2
    923          }
   \   00000040   ........           B        ?Subroutine77
    924          

   \                                 In segment CODE, align 4, keep-with-next
    925          void AddList(PROLinkedList* DestList, PROLinkedList* SrcList) {
   \                     ??AddList:
   \   00000000   F0402DE9           PUSH     {R4-R7,LR}
   \   00000004   0040A0E1           MOV      R4,R0
   \   00000008   0150A0E1           MOV      R5,R1
    926              if (DestList && SrcList) {
   \   0000000C   000054E3           CMP      R4,#+0
   \   00000010   00005513           CMPNE    R5,#+0
   \   00000014   1700000A           BEQ      ??AddList_1
    927                  if (!SrcList->isEmpty()) {
   \   00000018   0500A0E1           MOV      R0,R5
   \   0000001C   ........           _BLF     ??isEmpty,??isEmpty??rA
   \   00000020   000050E3           CMP      R0,#+0
   \   00000024   1300001A           BNE      ??AddList_1
    928                      int size = SrcList->Size();
   \   00000028   0500A0E1           MOV      R0,R5
   \   0000002C   ........           _BLF     ??Size,??Size??rA
   \   00000030   0060A0E1           MOV      R6,R0
    929                      PRONode* node = SrcList->getHead();
   \   00000034   0500A0E1           MOV      R0,R5
   \   00000038   ........           _BLF     ??getHead,??getHead??rA
   \   0000003C   0050A0E1           MOV      R5,R0
    930                      for (int count = 0; count < size; count++) {
   \   00000040   0070A0E3           MOV      R7,#+0
   \   00000044   090000EA           B        ??AddList_2
    931                          node = node->getNext();
   \                     ??AddList_3:
   \   00000048   0500A0E1           MOV      R0,R5
   \   0000004C   ........           _BLF     ??getNext,??getNext??rA
   \   00000050   0050A0E1           MOV      R5,R0
    932                          PRogramObjectBase* element = node->getElement();
   \   00000054   ........           _BLF     ??getElement,??getElement??rA
    933                          if (element) DestList->insertInOrder(element);
   \   00000058   000050E3           CMP      R0,#+0
   \   0000005C   0200000A           BEQ      ??AddList_4
   \   00000060   0010A0E1           MOV      R1,R0
   \   00000064   0400A0E1           MOV      R0,R4
   \   00000068   ........           _BLF     ??insertInOrder,??insertInOrder??rA
    934                      }
   \                     ??AddList_4:
   \   0000006C   017087E2           ADD      R7,R7,#+1
   \                     ??AddList_2:
   \   00000070   060057E1           CMP      R7,R6
   \   00000074   F3FFFFBA           BLT      ??AddList_3
    935                  }
    936              }
    937          }
   \                     ??AddList_1:
   \   00000078                      REQUIRE ?Subroutine75
   \   00000078                      ;; // Fall through to label ?Subroutine75
    938          

   \                                 In segment CODE, align 4, keep-with-next
    939          AnsiString MakeConfigStringFromList(set<PRogramObjectBase *>PROSet) {
   \                     ??MakeConfigStringFromList:
   \   00000000   70402DE9           PUSH     {R4-R6,LR}
   \   00000004   1CD04DE2           SUB      SP,SP,#+28
   \   00000008   0040A0E1           MOV      R4,R0
   \   0000000C   0150A0E1           MOV      R5,R1
    940              AnsiString TmpString;
   \   00000010   ........           _BLF     ??AnsiString_1,??AnsiString??rA_1
    941              set<PRogramObjectBase *>::iterator pBIt;
    942              for (pBIt = PROSet.begin(); pBIt != PROSet.end(); pBIt++) {
   \   00000014   006095E5           LDR      R6,[R5, #+0]
   \   00000018   140000EA           B        ??MakeConfigStringFromList_1
    943                  TmpString += (*pBIt)->MakeConfigString();
   \                     ??MakeConfigStringFromList_2:
   \   0000001C   103096E5           LDR      R3,[R6, #+16]
   \   00000020   0020A0E3           MOV      R2,#+0
   \   00000024   0300A0E1           MOV      R0,R3
   \   00000028   A43093E5           LDR      R3,[R3, #+164]
   \   0000002C   0D10A0E1           MOV      R1,SP
   \   00000030   0C3093E5           LDR      R3,[R3, #+12]
   \   00000034   0FE0A0E1           MOV      LR,PC
   \   00000038   13FF2FE1           BX       R3
   \   0000003C   3C009FE5           LDR      R0,??MakeConfigStringFromList_3  ;; ??npos
   \   00000040   0020A0E3           MOV      R2,#+0
   \   00000044   003090E5           LDR      R3,[R0, #+0]
   \   00000048   0D10A0E1           MOV      R1,SP
   \   0000004C   0400A0E1           MOV      R0,R4
   \   00000050   ........           _BLF     ??append,??append??rA
   \   00000054   0020A0E3           MOV      R2,#+0
   \   00000058   0110A0E3           MOV      R1,#+1
   \   0000005C   0D00A0E1           MOV      R0,SP
   \   00000060   ........           _BLF     ??_Tidy,??_Tidy??rA
    944              }
   \   00000064   0600A0E1           MOV      R0,R6
   \   00000068   ........           _BLF     ??_IncP,??_IncP??rA
   \   0000006C   0060A0E1           MOV      R6,R0
   \                     ??MakeConfigStringFromList_1:
   \   00000070   050056E1           CMP      R6,R5
   \   00000074   E8FFFF1A           BNE      ??MakeConfigStringFromList_2
    945              return (TmpString);
   \   00000078   1CD08DE2           ADD      SP,SP,#+28
   \   0000007C   ........           B        ??Subroutine69_0
   \                     ??MakeConfigStringFromList_3:
   \   00000080   ........           DC32     ??npos
    946          }
    947          

   \                                 In segment CODE, align 4, keep-with-next
    948          void GiveRelayDutyMessage(int RelayNo, U8 Cmd, int DelayOn, int DelayOff) {
   \                     ??GiveRelayDutyMessage:
   \   00000000   07402DE9           PUSH     {R0-R2,LR}
    949          #ifndef WIN32
    950              DutyStruct Msg = {Cmd, DelayOn, DelayOff};
   \   00000004   08308DE5           STR      R3,[SP, #+8]
    951              OS_PutMail(&DutyMsgBuf[RelayNo], (char*)&Msg);
   \   00000008   1C309FE5           LDR      R3,??GiveRelayDutyMessage_1  ;; DutyMsgBuf
   \   0000000C   0010CDE5           STRB     R1,[SP, #+0]
   \   00000010   04208DE5           STR      R2,[SP, #+4]
   \   00000014   0D10A0E1           MOV      R1,SP
   \   00000018   1820A0E3           MOV      R2,#+24
   \   0000001C   923020E0           MLA      R0,R2,R0,R3
   \   00000020   ........           _BLF     OS_PutMail,??OS_PutMail??rA
    952          #endif
    953          
    954          }
   \   00000024   0740BDE8           POP      {R0-R2,LR}
   \   00000028   1EFF2FE1           BX       LR               ;; return
   \                     ??GiveRelayDutyMessage_1:
   \   0000002C   ........           DC32     DutyMsgBuf
    955          
    956          #endif
    957          

   \                                 In segment CODE, align 4, keep-with-next
    958          float FilterVal(float OldVal, float NewVal, float Degree) {
   \                     ??FilterVal:
   \   00000000   F0402DE9           PUSH     {R4-R7,LR}
   \   00000004   0060A0E1           MOV      R6,R0
   \   00000008   0170A0E1           MOV      R7,R1
   \   0000000C   0200A0E1           MOV      R0,R2
    959          
    960              OldVal += (NewVal - OldVal) / (Degree + 1.0);
    961              return OldVal;
   \   00000010   ........           _BLF     __floatToDouble,??__floatToDouble??rA
   \   00000014   0020A0E3           MOV      R2,#+0
   \   00000018   C035A0E3           MOV      R3,#+805306368
   \   0000001C   FF3683E3           ORR      R3,R3,#0xFF00000
   \   00000020   ........           _BLF     __dAdd,??__dAdd??rA
   \   00000024   0040A0E1           MOV      R4,R0
   \   00000028   0150A0E1           MOV      R5,R1
   \   0000002C   0700A0E1           MOV      R0,R7
   \   00000030   0610A0E1           MOV      R1,R6
   \   00000034   ........           _BLF     __fSub,??__fSub??rA
   \   00000038   ........           _BLF     __floatToDouble,??__floatToDouble??rA
   \   0000003C   0420A0E1           MOV      R2,R4
   \   00000040   0530A0E1           MOV      R3,R5
   \   00000044   ........           _BLF     __dDiv,??__dDiv??rA
   \   00000048   0040A0E1           MOV      R4,R0
   \   0000004C   0150A0E1           MOV      R5,R1
   \   00000050   0600A0E1           MOV      R0,R6
   \   00000054   ........           _BLF     __floatToDouble,??__floatToDouble??rA
   \   00000058   0420A0E1           MOV      R2,R4
   \   0000005C   0530A0E1           MOV      R3,R5
   \   00000060   ........           _BLF     __dAdd,??__dAdd??rA
   \   00000064   ........           _BLF     __doubleToFloat,??__doubleToFloat??rA
   \   00000068   ........           B        ?Subroutine75
    962          }
    963          
    964          #if defined(S2TXU) || defined(ANBOOTLOADER)
    965          extern "C"
    966          {

   \                                 In segment CODE, align 4, keep-with-next
    967          void RestartIncMsg(char* Message) {
   \                     RestartIncMsg:
   \   00000000   10402DE9           PUSH     {R4,LR}
    968          
    969          	strncpy(LastOSErrorTask,Message,TASK_NAME_LENGTH-1);
   \   00000004   ........           LDR      R4,??DataTable3  ;; 0x31fff010
   \   00000008   1F20A0E3           MOV      R2,#+31
   \   0000000C   0010A0E1           MOV      R1,R0
   \   00000010   0C0084E2           ADD      R0,R4,#+12
   \   00000014   ........           BL       ??strncpy
    970              LastOSErrorTask[TASK_NAME_LENGTH-1] = 0;
   \   00000018   0C0084E3           ORR      R0,R4,#0xC
   \   0000001C   0010A0E3           MOV      R1,#+0
   \   00000020   1F10C0E5           STRB     R1,[R0, #+31]
    971              LastOSError = 0xff;
   \   00000024   FF00A0E3           MOV      R0,#+255
   \   00000028   000084E5           STR      R0,[R4, #+0]
    972              OS_Use(&FlashSema); // Block further operations on the flash
   \   0000002C   10009FE5           LDR      R0,??RestartIncMsg_0  ;; FlashSema
   \   00000030   ........           _BLF     OS_Use,??OS_Use??rA
    973          #if (WATCHDOG == 1)
    974              OS_SignalEvent(WD_RESTART, &WatchDogTaskHandle);
   \   00000034   ........           LDR      R1,??DataTable4  ;; WatchDogTaskHandle
   \   00000038   1000A0E3           MOV      R0,#+16
   \   0000003C   ........           _BLF     OS_SignalEvent,??OS_SignalEvent??rA
    975          #else
    976              OS_Delay(5000);
    977              ProgProgress = WD_START_AGAIN;
    978              rWTCON = 0x8021;
    979          #endif
    980          }
   \   00000040   ........           B        ??Subroutine74_0
   \                     ??RestartIncMsg_0:
   \   00000044   ........           DC32     FlashSema
    981          }
    982          

   \                                 In segment CODE, align 4, keep-with-next
    983          void SetFactoryDefaults(void) {
    984              strcpy(LastOSErrorTask, "Factory defaults");
   \                     ??SetFactoryDefaults:
   \   00000000   24109FE5           LDR      R1,??SetFactoryDefaults_1  ;; `?<Constant "Factory defaults">`
   \   00000004   10402DE9           PUSH     {R4,LR}
   \   00000008   ........           LDR      R4,??DataTable3  ;; 0x31fff010
   \   0000000C   0C0084E2           ADD      R0,R4,#+12
   \   00000010   ........           _BLF     strcpy,??strcpy??rA
    985              LastOSError = 0xff;
    986          #if (WATCHDOG == 1)
    987              OS_SignalEvent(WD_FACTORY_DEFAULT, &WatchDogTaskHandle);
   \   00000014   ........           LDR      R1,??DataTable4  ;; WatchDogTaskHandle
   \   00000018   FF00A0E3           MOV      R0,#+255
   \   0000001C   000084E5           STR      R0,[R4, #+0]
   \   00000020   2000A0E3           MOV      R0,#+32
   \   00000024   ........           _BLF     OS_SignalEvent,??OS_SignalEvent??rA
    988          #else
    989              ProgProgress = WD_ERASE_FLASH;
    990              EraseFlash(FLASH_ERASE_ALL_APP_DATA);
    991              OS_Delay(5000);
    992              ProgProgress = WD_START_AGAIN;
    993              rWTCON = 0x8021;
    994          #endif
    995          }
   \   00000028   ........           B        ??Subroutine74_0
   \                     ??SetFactoryDefaults_1:
   \   0000002C   ........           DC32     `?<Constant "Factory defaults">`
    996          
    997          #endif
    998          #ifndef ANBOOTLOADER
    999          

   \                                 In segment CODE, align 4, keep-with-next
   1000          void MergeSet(set<unsigned>Dst, set<unsigned>Src) {
   \                     ??MergeSet:
   \   00000000   73402DE9           PUSH     {R0,R1,R4-R6,LR}
   \   00000004   0040A0E1           MOV      R4,R0
   \   00000008   0150A0E1           MOV      R5,R1
   1001              set<unsigned>::iterator ObjIt;
   1002              for (ObjIt = Src.begin(); ObjIt != Src.end(); ObjIt++) {
   \   0000000C   006095E5           LDR      R6,[R5, #+0]
   \   00000010   060000EA           B        ??MergeSet_1
   1003                  Dst.insert(*ObjIt);
   \                     ??MergeSet_2:
   \   00000014   102096E5           LDR      R2,[R6, #+16]
   \   00000018   0410A0E1           MOV      R1,R4
   \   0000001C   0D00A0E1           MOV      R0,SP
   \   00000020   ........           _BLF     ??insert,??insert??rA
   1004              }
   \   00000024   0600A0E1           MOV      R0,R6
   \   00000028   ........           _BLF     ??_IncP,??_IncP??rA
   \   0000002C   0060A0E1           MOV      R6,R0
   \                     ??MergeSet_1:
   \   00000030   050056E1           CMP      R6,R5
   \   00000034   F6FFFF1A           BNE      ??MergeSet_2
   1005          }
   \   00000038   7340BDE8           POP      {R0,R1,R4-R6,LR}
   \   0000003C   1EFF2FE1           BX       LR               ;; return
   1006          #endif
   1007          

   \                                 In segment CODE, align 4, keep-with-next
   1008          void SignalSaveSettings(int Signal) {
   \                     ??SignalSaveSettings:
   \   00000000   30402DE9           PUSH     {R4,R5,LR}
   1009          #ifdef S2TXU
   1010              if (OS_IsTask(&SaveSettingsTaskHandle)) {
   \   00000004   20509FE5           LDR      R5,??SignalSaveSettings_1  ;; SaveSettingsTaskHandle
   \   00000008   0040A0E1           MOV      R4,R0
   \   0000000C   0500A0E1           MOV      R0,R5
   \   00000010   ........           _BLF     OS_IsTask,??OS_IsTask??rA
   \   00000014   000050E3           CMP      R0,#+0
   \   00000018   0200000A           BEQ      ??SignalSaveSettings_2
   1011                  OS_SignalEvent(Signal, &SaveSettingsTaskHandle);
   \   0000001C   0510A0E1           MOV      R1,R5
   \   00000020   FF0004E2           AND      R0,R4,#0xFF
   \   00000024   ........           _BLF     OS_SignalEvent,??OS_SignalEvent??rA
   1012              }
   1013          #endif
   1014          
   1015          }
   \                     ??SignalSaveSettings_2:
   \   00000028   ........           B        ?Subroutine77
   \                     ??SignalSaveSettings_1:
   \   0000002C   ........           DC32     SaveSettingsTaskHandle
   1016          

   \                                 In segment CODE, align 4, keep-with-next
   1017          vector<PRogramObjectBase *>GetReadPermissionVector(vector<PRogramObjectBase *>MyVect, unsigned  pIDNumber) {
   \                     ??GetReadPermissionVector:
   \   00000000   F0402DE9           PUSH     {R4-R7,LR}
   \   00000004   0040A0E1           MOV      R4,R0
   \   00000008   0150A0E1           MOV      R5,R1
   \   0000000C   0260B0E1           MOVS     R6,R2
   1018              vector<PRogramObjectBase *>ListVector;
   \   00000010   0000A0E3           MOV      R0,#+0
   \   00000014   000084E5           STR      R0,[R4, #+0]
   \   00000018   040084E5           STR      R0,[R4, #+4]
   \   0000001C   080084E5           STR      R0,[R4, #+8]
   1019              if (!pIDNumber) {
   \   00000020   1400001A           BNE      ??GetReadPermissionVector_1
   1020                  for (unsigned i = 0; i < MyVect.size(); i++) {
   \   00000024   0060A0E3           MOV      R6,#+0
   \   00000028   060000EA           B        ??GetReadPermissionVector_2
   1021                      if (MyVect[i]->ReadPermission()) {
   \                     ??GetReadPermissionVector_3:
   \   0000002C   000050E3           CMP      R0,#+0
   \   00000030   0300000A           BEQ      ??GetReadPermissionVector_4
   1022                          ListVector.push_back(MyVect[i]);
   \   00000034   000095E5           LDR      R0,[R5, #+0]
   \   00000038   061190E7           LDR      R1,[R0, +R6, LSL #+2]
   \   0000003C   0400A0E1           MOV      R0,R4
   \   00000040   ........           _BLF     ??_Push_back0,??_Push_back0??rA
   1023                      }
   \                     ??GetReadPermissionVector_4:
   \   00000044   016086E2           ADD      R6,R6,#+1
   \                     ??GetReadPermissionVector_2:
   \   00000048   000095E5           LDR      R0,[R5, #+0]
   \   0000004C   041095E5           LDR      R1,[R5, #+4]
   \   00000050   001041E0           SUB      R1,R1,R0
   \   00000054   210156E1           CMP      R6,R1, LSR #+2
   \   00000058   1B00002A           BCS      ??GetReadPermissionVector_5
   \   0000005C   060190E7           LDR      R0,[R0, +R6, LSL #+2]
   \   00000060   0010A0E3           MOV      R1,#+0
   \   00000064   ........           _BLF     ??ReadPermission,??ReadPermission??rA
   \   00000068   000050E3           CMP      R0,#+0
   \   0000006C   EEFFFF0A           BEQ      ??GetReadPermissionVector_3
   \   00000070   0100A0E3           MOV      R0,#+1
   \   00000074   ECFFFFEA           B        ??GetReadPermissionVector_3
   1024                  }
   1025              } else {
   1026                  for (unsigned i = 0; i < MyVect.size(); i++) {
   \                     ??GetReadPermissionVector_1:
   \   00000078   0070A0E3           MOV      R7,#+0
   \   0000007C   060000EA           B        ??GetReadPermissionVector_6
   1027                      if (MyVect[i]->CheckReadPermissionSet(pIDNumber)) {
   \                     ??GetReadPermissionVector_7:
   \   00000080   000050E3           CMP      R0,#+0
   \   00000084   0300000A           BEQ      ??GetReadPermissionVector_8
   1028                          ListVector.push_back(MyVect[i]);
   \   00000088   000095E5           LDR      R0,[R5, #+0]
   \   0000008C   071190E7           LDR      R1,[R0, +R7, LSL #+2]
   \   00000090   0400A0E1           MOV      R0,R4
   \   00000094   ........           _BLF     ??_Push_back0,??_Push_back0??rA
   1029                      }
   \                     ??GetReadPermissionVector_8:
   \   00000098   017087E2           ADD      R7,R7,#+1
   \                     ??GetReadPermissionVector_6:
   \   0000009C   000095E5           LDR      R0,[R5, #+0]
   \   000000A0   041095E5           LDR      R1,[R5, #+4]
   \   000000A4   001041E0           SUB      R1,R1,R0
   \   000000A8   210157E1           CMP      R7,R1, LSR #+2
   \   000000AC   0600002A           BCS      ??GetReadPermissionVector_5
   \   000000B0   070190E7           LDR      R0,[R0, +R7, LSL #+2]
   \   000000B4   0610A0E1           MOV      R1,R6
   \   000000B8   ........           _BLF     ??CheckReadPermissionSet,??CheckReadPermissionSet??rA
   \   000000BC   000050E3           CMP      R0,#+0
   \   000000C0   EEFFFF0A           BEQ      ??GetReadPermissionVector_7
   \   000000C4   0100A0E3           MOV      R0,#+1
   \   000000C8   ECFFFFEA           B        ??GetReadPermissionVector_7
   1030                  }
   1031              }
   1032              return (ListVector);
   \                     ??GetReadPermissionVector_5:
   \   000000CC   ........           B        ?Subroutine75
   1033          }
   1034          

   \                                 In segment CODE, align 4, keep-with-next
   1035          vector<PRogramObjectBase *>GetWritePermissionVector(vector<PRogramObjectBase *>MyVect, unsigned  pIDNumber) {
   \                     ??GetWritePermissionVector:
   \   00000000   F0402DE9           PUSH     {R4-R7,LR}
   \   00000004   0040A0E1           MOV      R4,R0
   \   00000008   0150A0E1           MOV      R5,R1
   \   0000000C   0260B0E1           MOVS     R6,R2
   1036              vector<PRogramObjectBase *>ListVector;
   \   00000010   0000A0E3           MOV      R0,#+0
   \   00000014   000084E5           STR      R0,[R4, #+0]
   \   00000018   040084E5           STR      R0,[R4, #+4]
   \   0000001C   080084E5           STR      R0,[R4, #+8]
   1037              if (!pIDNumber) {
   \   00000020   1400001A           BNE      ??GetWritePermissionVector_1
   1038                  for (unsigned i = 0; i < MyVect.size(); i++) {
   \   00000024   0060A0E3           MOV      R6,#+0
   \   00000028   060000EA           B        ??GetWritePermissionVector_2
   1039                      if (MyVect[i]->WritePermission()) {
   \                     ??GetWritePermissionVector_3:
   \   0000002C   000050E3           CMP      R0,#+0
   \   00000030   0300000A           BEQ      ??GetWritePermissionVector_4
   1040                          ListVector.push_back(MyVect[i]);
   \   00000034   000095E5           LDR      R0,[R5, #+0]
   \   00000038   061190E7           LDR      R1,[R0, +R6, LSL #+2]
   \   0000003C   0400A0E1           MOV      R0,R4
   \   00000040   ........           _BLF     ??_Push_back0,??_Push_back0??rA
   1041                      }
   \                     ??GetWritePermissionVector_4:
   \   00000044   016086E2           ADD      R6,R6,#+1
   \                     ??GetWritePermissionVector_2:
   \   00000048   000095E5           LDR      R0,[R5, #+0]
   \   0000004C   041095E5           LDR      R1,[R5, #+4]
   \   00000050   001041E0           SUB      R1,R1,R0
   \   00000054   210156E1           CMP      R6,R1, LSR #+2
   \   00000058   1B00002A           BCS      ??GetWritePermissionVector_5
   \   0000005C   060190E7           LDR      R0,[R0, +R6, LSL #+2]
   \   00000060   0010A0E3           MOV      R1,#+0
   \   00000064   ........           _BLF     ??WritePermission,??WritePermission??rA
   \   00000068   000050E3           CMP      R0,#+0
   \   0000006C   EEFFFF0A           BEQ      ??GetWritePermissionVector_3
   \   00000070   0100A0E3           MOV      R0,#+1
   \   00000074   ECFFFFEA           B        ??GetWritePermissionVector_3
   1042                  }
   1043              } else {
   1044                  for (unsigned i = 0; i < MyVect.size(); i++) {
   \                     ??GetWritePermissionVector_1:
   \   00000078   0070A0E3           MOV      R7,#+0
   \   0000007C   060000EA           B        ??GetWritePermissionVector_6
   1045                      if (MyVect[i]->CheckWritePermissionSet(pIDNumber)) {
   \                     ??GetWritePermissionVector_7:
   \   00000080   000050E3           CMP      R0,#+0
   \   00000084   0300000A           BEQ      ??GetWritePermissionVector_8
   1046                          ListVector.push_back(MyVect[i]);
   \   00000088   000095E5           LDR      R0,[R5, #+0]
   \   0000008C   071190E7           LDR      R1,[R0, +R7, LSL #+2]
   \   00000090   0400A0E1           MOV      R0,R4
   \   00000094   ........           _BLF     ??_Push_back0,??_Push_back0??rA
   1047          			}
   \                     ??GetWritePermissionVector_8:
   \   00000098   017087E2           ADD      R7,R7,#+1
   \                     ??GetWritePermissionVector_6:
   \   0000009C   000095E5           LDR      R0,[R5, #+0]
   \   000000A0   041095E5           LDR      R1,[R5, #+4]
   \   000000A4   001041E0           SUB      R1,R1,R0
   \   000000A8   210157E1           CMP      R7,R1, LSR #+2
   \   000000AC   0600002A           BCS      ??GetWritePermissionVector_5
   \   000000B0   070190E7           LDR      R0,[R0, +R7, LSL #+2]
   \   000000B4   0610A0E1           MOV      R1,R6
   \   000000B8   ........           _BLF     ??CheckWritePermissionSet,??CheckWritePermissionSet??rA
   \   000000BC   000050E3           CMP      R0,#+0
   \   000000C0   EEFFFF0A           BEQ      ??GetWritePermissionVector_7
   \   000000C4   0100A0E3           MOV      R0,#+1
   \   000000C8   ECFFFFEA           B        ??GetWritePermissionVector_7
   1048                  }
   1049              }
   1050          	return (ListVector);
   \                     ??GetWritePermissionVector_5:
   \   000000CC   ........           B        ?Subroutine75
   1051          }
   1052          

   \                                 In segment CODE, align 4, keep-with-next
   1053          double FloatRound(double Number, int Decimals) {
   \                     ??FloatRound:
   \   00000000   F0402DE9           PUSH     {R4-R7,LR}
   \   00000004   0060A0E1           MOV      R6,R0
   \   00000008   0170A0E1           MOV      R7,R1
   \   0000000C   0240A0E1           MOV      R4,R2
   1054          	if (Number) {
   \   00000010   0000A0E3           MOV      R0,#+0
   \   00000014   0010A0E3           MOV      R1,#+0
   \   00000018   0620A0E1           MOV      R2,R6
   \   0000001C   0730A0E1           MOV      R3,R7
   \   00000020   ........           _BLF     __dNotEqual,??__dNotEqual??rA
   \   00000024   000050E3           CMP      R0,#+0
   \   00000028   2300000A           BEQ      ??FloatRound_1
   1055          		double Factor = pow(10.0, Decimals);
   \   0000002C   0420A0E1           MOV      R2,R4
   \   00000030   0000A0E3           MOV      R0,#+0
   \   00000034   4014A0E3           MOV      R1,#+1073741824
   \   00000038   901981E3           ORR      R1,R1,#0x240000
   \   0000003C   ........           _BLF     ??pow,??pow??rA
   \   00000040   0040A0E1           MOV      R4,R0
   \   00000044   0150A0E1           MOV      R5,R1
   1056          		Number *= Factor;
   \   00000048   0420A0E1           MOV      R2,R4
   \   0000004C   0530A0E1           MOV      R3,R5
   \   00000050   0600A0E1           MOV      R0,R6
   \   00000054   0710A0E1           MOV      R1,R7
   \   00000058   ........           _BLF     __dMul,??__dMul??rA
   \   0000005C   0060A0E1           MOV      R6,R0
   \   00000060   0170A0E1           MOV      R7,R1
   1057          		if (Number > 0.0) {
   \   00000064   0120A0E3           MOV      R2,#+1
   \   00000068   0030A0E3           MOV      R3,#+0
   \   0000006C   ........           _BLF     __dGreaterEqual,??__dGreaterEqual??rA
   \   00000070   000050E3           CMP      R0,#+0
   \   00000074   4C009FE5           LDR      R0,??FloatRound_2  ;; 0xfffffffff8b588e3
   \   00000078   0500000A           BEQ      ??FloatRound_3
   1058          			Number = floor(Number + 0.50001);
   \   0000007C   48109FE5           LDR      R1,??FloatRound_2+0x4  ;; 0x3fe00014
   \   00000080   0620A0E1           MOV      R2,R6
   \   00000084   0730A0E1           MOV      R3,R7
   \   00000088   ........           _BLF     __dAdd,??__dAdd??rA
   \   0000008C   ........           _BLF     floor,??floor??rA
   \   00000090   040000EA           B        ??FloatRound_4
   1059          		} else {
   1060          			Number = ceil(Number - 0.50001);
   \                     ??FloatRound_3:
   \   00000094   34109FE5           LDR      R1,??FloatRound_2+0x8  ;; 0xffffffffbfe00014
   \   00000098   0620A0E1           MOV      R2,R6
   \   0000009C   0730A0E1           MOV      R3,R7
   \   000000A0   ........           _BLF     __dAdd,??__dAdd??rA
   \   000000A4   ........           _BLF     ceil,??ceil??rA
   1061          		}
   1062          		Number /= Factor;
   \                     ??FloatRound_4:
   \   000000A8   0420A0E1           MOV      R2,R4
   \   000000AC   0530A0E1           MOV      R3,R5
   \   000000B0   ........           _BLF     __dDiv,??__dDiv??rA
   \   000000B4   0060A0E1           MOV      R6,R0
   \   000000B8   0170A0E1           MOV      R7,R1
   1063          	}
   1064          
   1065              return Number;
   \                     ??FloatRound_1:
   \   000000BC   0600A0E1           MOV      R0,R6
   \   000000C0   0710A0E1           MOV      R1,R7
   \   000000C4   ........           B        ?Subroutine75
   \                     ??FloatRound_2:
   \   000000C8   E388B5F8           DC32     0xfffffffff8b588e3
   \   000000CC   1400E03F           DC32     0x3fe00014
   \   000000D0   1400E0BF           DC32     0xffffffffbfe00014
   1066          }
   1067          

   \                                 In segment CODE, align 4, keep-with-next
   1068          int GetGMT(void)
   1069          {
   \                     ??GetGMT:
   \   00000000   10402DE9           PUSH     {R4,LR}
   1070              time_t Now = time(NULL); 
   \   00000004   0000A0E3           MOV      R0,#+0
   \   00000008   ........           _BLF     time,??time??rA
   \   0000000C   0040A0E1           MOV      R4,R0
   1071          	int TimeZone   = TSNTimeZone();
   \   00000010   ........           BL       ??TSNTimeZone
   1072          	int DaylightSaving   = PROSystemData::DaylightSaving;
   1073          	int NowGMT = Now + 60*TimeZone + 60*60*DaylightSaving;
   1074          
   1075          	return NowGMT;
   \   00000014   3C10A0E3           MOV      R1,#+60
   \   00000018   914020E0           MLA      R0,R1,R0,R4
   \   0000001C   ........           LDR      R1,??DataTable5  ;; ??DaylightSaving
   \   00000020   E12EA0E3           MOV      R2,#+3600
   \   00000024   001091E5           LDR      R1,[R1, #+0]
   \   00000028   1040BDE8           POP      {R4,LR}
   \   0000002C   920120E0           MLA      R0,R2,R1,R0
   \   00000030   1EFF2FE1           BX       LR               ;; return
   1076          }
   1077          

   \                                 In segment CODE, align 4, keep-with-next
   1078          AnsiString GetHours(int Value)
   1079          {
   \                     ??GetHours:
   \   00000000   F0412DE9           PUSH     {R4-R8,LR}
   \   00000004   1CD04DE2           SUB      SP,SP,#+28
   \   00000008   0080A0E1           MOV      R8,R0
   \   0000000C   0100A0E1           MOV      R0,R1
   1080          	time_t rTime = Value;
   1081              int rHours   = rTime / SEC_TO_HOURS;
   \   00000010   ........           _BLF     __longToDouble,??__longToDouble??rA
   \   00000014   ........           LDR      R3,??DataTable8  ;; 0x40ac2000
   \   00000018   0040A0E1           MOV      R4,R0
   \   0000001C   0150A0E1           MOV      R5,R1
   \   00000020   0020A0E3           MOV      R2,#+0
   \   00000024   ........           _BLF     __dDiv,??__dDiv??rA
   \   00000028   ........           _BLF     __doubleToLong,??__doubleToLong??rA
   \   0000002C   0060A0E1           MOV      R6,R0
   1082              rTime -= rHours * SEC_TO_HOURS;
   \   00000030   ........           _BLF     __longToDouble,??__longToDouble??rA
   \   00000034   ........           LDR      R3,??DataTable8  ;; 0x40ac2000
   \   00000038   0020A0E3           MOV      R2,#+0
   \   0000003C   ........           _BLF     __dMul,??__dMul??rA
   \   00000040   0020A0E1           MOV      R2,R0
   \   00000044   0130A0E1           MOV      R3,R1
   \   00000048   0400A0E1           MOV      R0,R4
   \   0000004C   0510A0E1           MOV      R1,R5
   \   00000050   ........           _BLF     __dSub,??__dSub??rA
   \   00000054   ........           _BLF     __doubleToLong,??__doubleToLong??rA
   1083          	int rMinutes = rTime / SEC_TO_MINUTES;
   \   00000058   ........           _BLF     __longToDouble,??__longToDouble??rA
   \   0000005C   0040A0E1           MOV      R4,R0
   \   00000060   0150A0E1           MOV      R5,R1
   \   00000064   0020A0E3           MOV      R2,#+0
   \   00000068   4034A0E3           MOV      R3,#+1073741824
   \   0000006C   4E3883E3           ORR      R3,R3,#0x4E0000
   \   00000070   ........           _BLF     __dDiv,??__dDiv??rA
   \   00000074   ........           _BLF     __doubleToLong,??__doubleToLong??rA
   \   00000078   0070A0E1           MOV      R7,R0
   1084          	rTime -= rMinutes * SEC_TO_MINUTES;
   1085              int rSeconds = rTime;
   1086              AnsiString tmpStr; 
   \   0000007C   0800A0E1           MOV      R0,R8
   \   00000080   ........           _BLF     ??AnsiString_1,??AnsiString??rA_1
   1087          	tmpStr.cat_sprintf("%02i:%02i:%02i", rHours, rMinutes, rSeconds);
   \   00000084   0700A0E1           MOV      R0,R7
   \   00000088   ........           _BLF     __longToDouble,??__longToDouble??rA
   \   0000008C   0020A0E3           MOV      R2,#+0
   \   00000090   4034A0E3           MOV      R3,#+1073741824
   \   00000094   4E3883E3           ORR      R3,R3,#0x4E0000
   \   00000098   ........           _BLF     __dMul,??__dMul??rA
   \   0000009C   0020A0E1           MOV      R2,R0
   \   000000A0   0130A0E1           MOV      R3,R1
   \   000000A4   0400A0E1           MOV      R0,R4
   \   000000A8   0510A0E1           MOV      R1,R5
   \   000000AC   ........           _BLF     __dSub,??__dSub??rA
   \   000000B0   ........           _BLF     __doubleToLong,??__doubleToLong??rA
   \   000000B4   2C209FE5           LDR      R2,??GetHours_1  ;; `?<Constant "%02i:%02i:%02i">`
   \   000000B8   01002DE9           PUSH     {R0}
   \   000000BC   80002DE9           PUSH     {R7}
   \   000000C0   0630A0E1           MOV      R3,R6
   \   000000C4   08108DE2           ADD      R1,SP,#+8
   \   000000C8   0800A0E1           MOV      R0,R8
   \   000000CC   ........           _BLF     ??cat_sprintf,??cat_sprintf??rA
   \   000000D0   0020A0E3           MOV      R2,#+0
   \   000000D4   0110A0E3           MOV      R1,#+1
   \   000000D8   08008DE2           ADD      R0,SP,#+8
   \   000000DC   ........           _BLF     ??_Tidy,??_Tidy??rA
   1088          	//char tmpBuf[BUF_SIZE];
   1089          	//strftime(tmpBuf,sizeof(tmpBuf), "%T",localtime(&rTime));
   1090          	return tmpStr;
   \   000000E0   24D08DE2           ADD      SP,SP,#+36
   \   000000E4   ........           B        ??Subroutine72_0
   \                     ??GetHours_1:
   \   000000E8   ........           DC32     `?<Constant "%02i:%02i:%02i">`
   1091          }
   1092          

   \                                 In segment CODE, align 4, keep-with-next
   1093          float Make_str_to_feet(char *Buf) {
   \                     ??Make_str_to_feet:
   \   00000000   F0412DE9           PUSH     {R4-R8,LR}
   \   00000004   50D04DE2           SUB      SP,SP,#+80
   1094          
   1095              int len;
   1096              char *Ptr1, *Ptr2, *Ptr3;
   1097              float retval = 0;
   \   00000008   0070A0E3           MOV      R7,#+0
   1098              char tmpBuf[BUF_SIZE];
   1099              strcpy(tmpBuf, Buf);
   \   0000000C   0010A0E1           MOV      R1,R0
   \   00000010   0D00A0E1           MOV      R0,SP
   \   00000014   ........           _BLF     strcpy,??strcpy??rA
   1100              len = strlen(tmpBuf);
   \   00000018   0D00A0E1           MOV      R0,SP
   \   0000001C   ........           _BLF     strlen,??strlen??rA
   \   00000020   0050B0E1           MOVS     R5,R0
   1101              if ( len ) {
   \   00000024   4000000A           BEQ      ??Make_str_to_feet_1
   1102                  Ptr1 = tmpBuf;
   1103                  Ptr2 = strpbrk(Ptr1, ". ,/-:");
   \   00000028   00719FE5           LDR      R7,??Make_str_to_feet_2  ;; `?<Constant ". ,/-:">`
   \   0000002C   0D00A0E1           MOV      R0,SP
   \   00000030   0710A0E1           MOV      R1,R7
   \   00000034   ........           _BLF     _Strpbrk,??_Strpbrk??rA
   \   00000038   0040B0E1           MOVS     R4,R0
   1104                  if ( Ptr2 ) {
   \   0000003C   0080A0E3           MOV      R8,#+0
   \   00000040   0700000A           BEQ      ??Make_str_to_feet_3
   1105                      *Ptr2++ = 0;
   \   00000044   ........           STRB     R8,[R4], #+1
   1106                      Ptr3 = strpbrk(Ptr2, ". ,/-:");
   \   00000048   0710A0E1           MOV      R1,R7
   \   0000004C   0400A0E1           MOV      R0,R4
   \   00000050   ........           _BLF     _Strpbrk,??_Strpbrk??rA
   \   00000054   0060B0E1           MOVS     R6,R0
   1107                      if ( Ptr3 ) {
   \   00000058   0300000A           BEQ      ??Make_str_to_feet_4
   1108                          *Ptr3++ = 0;
   \   0000005C   ........           STRB     R8,[R6], #+1
   \   00000060   010000EA           B        ??Make_str_to_feet_4
   1109                      }
   1110                  } else {
   1111                      tmpBuf[len] = 0;
   \                     ??Make_str_to_feet_3:
   \   00000064   0D00A0E1           MOV      R0,SP
   \   00000068   0080C5E7           STRB     R8,[R5, +R0]
   1112                  }
   1113                  retval = atoi(Ptr1) * FEET_TO_METER;
   \                     ??Make_str_to_feet_4:
   \   0000006C   0A20A0E3           MOV      R2,#+10
   \   00000070   0010A0E3           MOV      R1,#+0
   \   00000074   0D00A0E1           MOV      R0,SP
   \   00000078   ........           _BLF     _Stoul,??_Stoul??rA
   \   0000007C   ........           _BLF     __longToDouble,??__longToDouble??rA
   \   00000080   AC209FE5           LDR      R2,??Make_str_to_feet_2+0x4  ;; 0xffffffffdbf487fd
   \   00000084   AC309FE5           LDR      R3,??Make_str_to_feet_2+0x8  ;; 0x3fd381d7
   \   00000088   ........           _BLF     __dMul,??__dMul??rA
   \   0000008C   ........           _BLF     __doubleToFloat,??__doubleToFloat??rA
   \   00000090   0070A0E1           MOV      R7,R0
   1114                  if ( Ptr2 ) {
   \   00000094   000054E3           CMP      R4,#+0
   \   00000098   2300000A           BEQ      ??Make_str_to_feet_1
   1115                      retval += atoi(Ptr2) * INCH_TO_METER;
   \   0000009C   0A20A0E3           MOV      R2,#+10
   \   000000A0   0010A0E3           MOV      R1,#+0
   \   000000A4   0400A0E1           MOV      R0,R4
   \   000000A8   ........           _BLF     _Stoul,??_Stoul??rA
   \   000000AC   ........           _BLF     __longToDouble,??__longToDouble??rA
   \   000000B0   84209FE5           LDR      R2,??Make_str_to_feet_2+0xC  ;; 0x25460aa6
   \   000000B4   84309FE5           LDR      R3,??Make_str_to_feet_2+0x10  ;; 0x3f9a0275
   \   000000B8   ........           _BLF     __dMul,??__dMul??rA
   \   000000BC   0040A0E1           MOV      R4,R0
   \   000000C0   0150A0E1           MOV      R5,R1
   \   000000C4   0700A0E1           MOV      R0,R7
   \   000000C8   ........           _BLF     __floatToDouble,??__floatToDouble??rA
   \   000000CC   0420A0E1           MOV      R2,R4
   \   000000D0   0530A0E1           MOV      R3,R5
   \   000000D4   ........           _BLF     __dAdd,??__dAdd??rA
   \   000000D8   ........           _BLF     __doubleToFloat,??__doubleToFloat??rA
   \   000000DC   0070A0E1           MOV      R7,R0
   1116                      if ( Ptr3 ) retval += atoi(Ptr3) * EIGHTS_TO_METER;
   \   000000E0   000056E3           CMP      R6,#+0
   \   000000E4   1000000A           BEQ      ??Make_str_to_feet_1
   \   000000E8   0A20A0E3           MOV      R2,#+10
   \   000000EC   0010A0E3           MOV      R1,#+0
   \   000000F0   0600A0E1           MOV      R0,R6
   \   000000F4   ........           _BLF     _Stoul,??_Stoul??rA
   \   000000F8   ........           _BLF     __longToDouble,??__longToDouble??rA
   \   000000FC   38209FE5           LDR      R2,??Make_str_to_feet_2+0xC  ;; 0x25460aa6
   \   00000100   3C309FE5           LDR      R3,??Make_str_to_feet_2+0x14  ;; 0x3f6a0275
   \   00000104   ........           _BLF     __dMul,??__dMul??rA
   \   00000108   0040A0E1           MOV      R4,R0
   \   0000010C   0150A0E1           MOV      R5,R1
   \   00000110   0700A0E1           MOV      R0,R7
   \   00000114   ........           _BLF     __floatToDouble,??__floatToDouble??rA
   \   00000118   0420A0E1           MOV      R2,R4
   \   0000011C   0530A0E1           MOV      R3,R5
   \   00000120   ........           _BLF     __dAdd,??__dAdd??rA
   \   00000124   ........           _BLF     __doubleToFloat,??__doubleToFloat??rA
   \   00000128   0070A0E1           MOV      R7,R0
   1117                  }
   1118              }
   1119              return (retval);
   \                     ??Make_str_to_feet_1:
   \   0000012C   ........           B        ?Subroutine72
   \                     ??Make_str_to_feet_2:
   \   00000130   ........           DC32     `?<Constant ". ,/-:">`
   \   00000134   FD87F4DB           DC32     0xffffffffdbf487fd
   \   00000138   D781D33F           DC32     0x3fd381d7
   \   0000013C   A60A4625           DC32     0x25460aa6
   \   00000140   75029A3F           DC32     0x3f9a0275
   \   00000144   75026A3F           DC32     0x3f6a0275
   1120          }
   1121          

   \                                 In segment CODE, align 4, keep-with-next
   1122          float Make_hour_time_str_to_seconds(char *Buf) {
   \                     ??Make_hour_time_str_to_seconds:
   \   00000000   F0412DE9           PUSH     {R4-R8,LR}
   \   00000004   50D04DE2           SUB      SP,SP,#+80
   1123              int len;
   1124              char *Ptr1, *Ptr2, *Ptr3;
   1125              float retval = 0;
   \   00000008   0070A0E3           MOV      R7,#+0
   1126              char tmpBuf[BUF_SIZE];
   1127              strcpy(tmpBuf, Buf);
   \   0000000C   0010A0E1           MOV      R1,R0
   \   00000010   0D00A0E1           MOV      R0,SP
   \   00000014   ........           _BLF     strcpy,??strcpy??rA
   1128              len = strlen(tmpBuf);
   \   00000018   0D00A0E1           MOV      R0,SP
   \   0000001C   ........           _BLF     strlen,??strlen??rA
   \   00000020   0050B0E1           MOVS     R5,R0
   1129              if ( len ) {
   \   00000024   3800000A           BEQ      ??Make_hour_time_str_to_seconds_1
   1130                  Ptr1 = tmpBuf;
   1131          		Ptr2 = strpbrk(Ptr1, ".,/-:");
   \   00000028   ........           LDR      R7,??Subroutine72_1  ;; `?<Constant ".,/-:">`
   \   0000002C   0D00A0E1           MOV      R0,SP
   \   00000030   0710A0E1           MOV      R1,R7
   \   00000034   ........           _BLF     _Strpbrk,??_Strpbrk??rA
   \   00000038   0040B0E1           MOVS     R4,R0
   1132          		if ( Ptr2 ) {
   \   0000003C   0080A0E3           MOV      R8,#+0
   \   00000040   0700000A           BEQ      ??Make_hour_time_str_to_seconds_2
   1133          			*Ptr2++ = 0;
   \   00000044   ........           STRB     R8,[R4], #+1
   1134                      Ptr3 = strpbrk(Ptr2, ".,/-:");
   \   00000048   0710A0E1           MOV      R1,R7
   \   0000004C   0400A0E1           MOV      R0,R4
   \   00000050   ........           _BLF     _Strpbrk,??_Strpbrk??rA
   \   00000054   0060B0E1           MOVS     R6,R0
   1135                      if ( Ptr3 ) {
   \   00000058   0300000A           BEQ      ??Make_hour_time_str_to_seconds_3
   1136                          *Ptr3++ = 0;
   \   0000005C   ........           STRB     R8,[R6], #+1
   \   00000060   010000EA           B        ??Make_hour_time_str_to_seconds_3
   1137                      }
   1138                  } else {
   1139                      tmpBuf[len] = 0;
   \                     ??Make_hour_time_str_to_seconds_2:
   \   00000064   0D00A0E1           MOV      R0,SP
   \   00000068   0080C5E7           STRB     R8,[R5, +R0]
   1140                  }
   1141                  retval = atoi(Ptr1) * SEC_TO_HOURS;
   \                     ??Make_hour_time_str_to_seconds_3:
   \   0000006C   0A20A0E3           MOV      R2,#+10
   \   00000070   0010A0E3           MOV      R1,#+0
   \   00000074   0D00A0E1           MOV      R0,SP
   \   00000078   ........           _BLF     _Stoul,??_Stoul??rA
   \   0000007C   ........           _BLF     __longToDouble,??__longToDouble??rA
   \   00000080   ........           LDR      R3,??DataTable8  ;; 0x40ac2000
   \   00000084   0820A0E1           MOV      R2,R8
   \   00000088   ........           _BLF     __dMul,??__dMul??rA
   \   0000008C   ........           _BLF     __doubleToFloat,??__doubleToFloat??rA
   \   00000090   0070A0E1           MOV      R7,R0
   1142                  if ( Ptr2 ) {
   \   00000094   000054E3           CMP      R4,#+0
   \   00000098   1B00000A           BEQ      ??Make_hour_time_str_to_seconds_1
   1143                      retval += atoi(Ptr2) * SEC_TO_MINUTES;
   \   0000009C   0A20A0E3           MOV      R2,#+10
   \   000000A0   0010A0E3           MOV      R1,#+0
   \   000000A4   0400A0E1           MOV      R0,R4
   \   000000A8   ........           _BLF     _Stoul,??_Stoul??rA
   \   000000AC   ........           _BLF     __longToDouble,??__longToDouble??rA
   \   000000B0   0820A0E1           MOV      R2,R8
   \   000000B4   4034A0E3           MOV      R3,#+1073741824
   \   000000B8   4E3883E3           ORR      R3,R3,#0x4E0000
   \   000000BC   ........           _BLF     __dMul,??__dMul??rA
   \   000000C0   0040A0E1           MOV      R4,R0
   \   000000C4   0150A0E1           MOV      R5,R1
   \   000000C8   0700A0E1           MOV      R0,R7
   \   000000CC   ........           _BLF     __floatToDouble,??__floatToDouble??rA
   \   000000D0   0420A0E1           MOV      R2,R4
   \   000000D4   0530A0E1           MOV      R3,R5
   \   000000D8   ........           _BLF     __dAdd,??__dAdd??rA
   \   000000DC   ........           _BLF     __doubleToFloat,??__doubleToFloat??rA
   \   000000E0   0070A0E1           MOV      R7,R0
   1144                      if ( Ptr3 ) retval += atoi(Ptr3);
   \   000000E4   000056E3           CMP      R6,#+0
   \   000000E8   0700000A           BEQ      ??Make_hour_time_str_to_seconds_1
   \   000000EC   0A20A0E3           MOV      R2,#+10
   \   000000F0   0010A0E3           MOV      R1,#+0
   \   000000F4   0600A0E1           MOV      R0,R6
   \   000000F8   ........           _BLF     _Stoul,??_Stoul??rA
   \   000000FC   ........           _BLF     __longToFloat,??__longToFloat??rA
   \   00000100   0710A0E1           MOV      R1,R7
   \   00000104   ........           _BLF     __fAdd,??__fAdd??rA
   \   00000108   0070A0E1           MOV      R7,R0
   1145                  }
   1146              }
   1147              return (retval);
   \                     ??Make_hour_time_str_to_seconds_1:
   \   0000010C                      REQUIRE ?Subroutine72
   \   0000010C                      ;; // Fall through to label ?Subroutine72
   1148          }

   \                                 In segment DIFUNCT, align 4, keep-with-next, root
   \   00000000                      REQUIRE ?call_ctors
   \   00000000   ........           DC32    ??__sti__routine

   \                                 In segment DATA_C, align 4, align-sorted
   \                     `?<Constant "%d %b %y">`:
   \   00000000   256420256220       DC8 "%d %b %y"
   \              257900      
   \   00000009   000000             DC8 0, 0, 0

   \                                 In segment DATA_C, align 4, align-sorted
   \                     `?<Constant "%H:%M:%S">`:
   \   00000000   25483A254D3A       DC8 "%H:%M:%S"
   \              255300      
   \   00000009   000000             DC8 0, 0, 0

   \                                 In segment DATA_C, align 4, align-sorted
   \   00000000   474D5400           DC8 "GMT"

   \                                 In segment DATA_C, align 4, align-sorted
   \                     `?<Constant "%d %b %y %H:%M:%S">`:
   \   00000000   256420256220       DC8 "%d %b %y %H:%M:%S"
   \              25792025483A
   \              254D3A255300
   \   00000012   0000               DC8 0, 0

   \                                 In segment DATA_C, align 4, align-sorted
   \                     `?<Constant "%H:%M">`:
   \   00000000   25483A254D00       DC8 "%H:%M"
   \   00000006   0000               DC8 0, 0

   \                                 In segment DATA_C, align 4, align-sorted
   \                     `?<Constant "%d.%b %H:%M">`:
   \   00000000   25642E256220       DC8 "%d.%b %H:%M"
   \              25483A254D00

   \                                 In segment DATA_C, align 4, align-sorted
   \                     `?<Constant "Factory defaults">`:
   \   00000000   466163746F72       DC8 "Factory defaults"
   \              792064656661
   \              756C747300  
   \   00000011   000000             DC8 0, 0, 0

   \                                 In segment DATA_C, align 4, align-sorted
   \                     `?<Constant "%02i:%02i:%02i">`:
   \   00000000   253032693A25       DC8 "%02i:%02i:%02i"
   \              3032693A2530
   \              326900      
   \   0000000F   00                 DC8 0

   \                                 In segment DATA_C, align 4, align-sorted
   \                     `?<Constant ". ,/-:">`:
   \   00000000   2E202C2F2D3A       DC8 ". ,/-:"
   \              00          
   \   00000007   00                 DC8 0

   \                                 In segment DATA_C, align 4, align-sorted
   \                     `?<Constant ".,/-:">`:
   \   00000000   2E2C2F2D3A00       DC8 ".,/-:"
   \   00000006   0000               DC8 0, 0

   \                                 In segment CODE, align 4, keep-with-next
   \   static __??Code32?? __intrinsic __code __interwork __atpcs void __sti__routine()
   \                     ??__sti__routine:
   \   00000000   1EFF2FE1           BX       LR               ;; return

   \                                 In segment CODE, align 4, keep-with-next
   \                     ??DataTable0:
   \   00000000   ........           DC32     ??DaylightSaving

   \                                 In segment CODE, align 4, keep-with-next
   \                     ??DataTable3:
   \   00000000   10F0FF31           DC32     0x31fff010

   \                                 In segment CODE, align 4, keep-with-next
   \                     ??DataTable4:
   \   00000000   ........           DC32     WatchDogTaskHandle

   \                                 In segment CODE, align 4, keep-with-next
   \                     ??DataTable5:
   \   00000000   ........           DC32     ??DaylightSaving

   \                                 In segment CODE, align 4, keep-with-next
   \                     ??DataTable8:
   \   00000000   0020AC40           DC32     0x40ac2000
   1149          

   Maximum stack usage in bytes:

     Function                       CSTACK
     --------                       ------
     AcknowledgeAlarms(set<AlarmBasic *> &)
                                       12
     AcknowledgeSoftAlarms(set<AlarmBasic *> &)
                                       12
     AddList(PROLinkedList *, PROLinkedList *)
                                       20
     Calc_1stDeg_coeffs(float, float, float, float, float &, float &)
                                       28
     Calc_2ndDeg_coeffs(float, float, float, float, float, float, float &, float &, float &)
                                       48
     CheckAlarms(set<AlarmBasic *> &, bool volatile *)
                                       28
     FilterVal(float, float, float)    20
     FindFrequencey(int, int, int, double *)
                                       36
     FloatRound(double, int)           20
     GetActiveAlarms(set<AlarmBasic *> &)
                                       12
     GetAlarmTotals(set<AlarmBasic *> &, int &, int &, int &, int &, int &, int &)
                                       32
     GetDaylightSaving()                0
     GetGMT()                           8
     GetHours(int)                     60
     GetReadPermissionVector(vector<PRogramObjectBase *>, unsigned int)
                                       20
     GetU16(unsigned char *)            0
     GetU32(unsigned char *)            0
     GetU32BigEndian(unsigned char *)
                                        0
     GetWritePermissionVector(vector<PRogramObjectBase *>, unsigned int)
                                       20
     GiveRelayDutyMessage(int, unsigned char, int, int)
                                       16
     IntPol1stDeg(float, float, float, float, float)
                                       24
     IntPol2ndDeg(float, float, float, float, float, float, float)
                                       44
     IsFloat(float)                     0
     IsInfinite(float)                  0
     IsNan(float)                       0
     MakeConfigStringFromList(set<PRogramObjectBase *>)
                                       44
     Make_hour_time_str_to_seconds(char *)
                                      104
     Make_str_to_feet(char *)         104
     MergeSet(set<unsigned int>, set<unsigned int>)
                                       24
     PutU16(unsigned char *, unsigned short)
                                        0
     PutU32(unsigned char *, unsigned int)
                                        0
     RecalcProgramObjects(set<PRogramObject *> &)
                                       12
     RestartIncMsg                      8
     ScreenSaverOff()                   4
     SendAlarmSilence()                 4
     SetAlarmsToNormal(set<AlarmBasic *> &)
                                       12
     SetDataTime(set<PRogramObject *> &)
                                       12
     SetDataTime(set<PRogramObjectBase *> &)
                                       12
     SetDaylightSaving(int)             4
     SetFactoryDefaults()               8
     SetGMT(int)                        8
     SignalSaveSettings(int)           12
     Simpson(float, float, int, float (*)(float))
                                       32
     Simpson(float, float, int, float (*)(float, float), float)
                                       36
     Simpson(float, float, int, float (*)(float, float, float), float, float)
                                       40
     StartMainProgram()                 0
     SumOneCargo(int, float &, float &)
                                        0
     SumOneCargoAllTanks(int, int, float *, float *, vector<PRogramObjectBase *>)
                                       48
     SumTanks(int, float &, float &)
                                        0
     TSNAlarmDateTime()                 4
     TSNAlarmTime()                     4
     TSNDate()                          4
     TSNDateTime()                      4
     TSNElapsedTicks(long)              8
     TSNElapsedTime(long)               8
     TSNSetTimeZone(int)                8
     TSNTime()                          4
     TSNTime(char const *)            100
     TSNTime(long, char const *)      100
     TSNTimeZone()                      4
     TSNTimeZoneName()                  4
     _Tree<_Tset_traits<unsigned int, less<unsigned int>, allocator<unsigned int>, false>>::_Insert(bool, _Tree<_Tset_traits<unsigned int, less<unsigned int>, allocator<unsigned int>, false>>::_Nodeptr, unsigned int)
                                       24
     _Tree<_Tset_traits<unsigned int, less<unsigned int>, allocator<unsigned int>, false>>::insert(unsigned int)
                                       40
     _Tree_algobase<allocator<void>>::_DecP(_Tree_algobase<allocator<void>>::_Genptr)
                                        0
     _Tree_algobase<allocator<void>>::_IncP(_Tree_algobase<allocator<void>>::_Genptr)
                                        0
     _Tree_algobase<allocator<void>>::_Insert(bool, _Tree_algobase<allocator<void>>::_Genptr, _Tree_algobase<allocator<void>>::_Genptr)
                                       20
     _Tree_algobase<allocator<void>>::_Lrotate(_Tree_algobase<allocator<void>>::_Genptr)
                                        0
     _Tree_algobase<allocator<void>>::_Rrotate(_Tree_algobase<allocator<void>>::_Genptr)
                                        0
     _Vector_impl<PRogramObjectBase *, allocator<PRogramObjectBase *>>::_Insert(PRogramObjectBase **, PRogramObjectBase * const &)
                                       16
     _Vector_impl<PRogramObjectBase *, allocator<PRogramObjectBase *>>::_Make_room(PRogramObjectBase **, unsigned int)
                                       32
     _Vector_impl<PRogramObjectBase *, allocator<PRogramObjectBase *>>::_Push_back0(PRogramObjectBase *)
                                        8
     __sti__routine()                   0
     inet_aton(char const *)           32
     irint(float)                      16
     lfind(void const *, void *, size_t *, size_t, int (*)(void const *, void const *))
                                       32
     pow(double, int)                  28
     stricmp(char *, char *)           20
     strincmp(char *, char *, int)     24
     strncpy(char *, char *, int)       4
     tolower                            0


   Segment part sizes:

     Function/Label                 Bytes
     --------------                 -----
     pow(double, int)                168
     tolower                          20
     _Tree_algobase<allocator<void>>::_DecP(_Tree_algobase<allocator<void>>::_Genptr)
                                     100
     _Tree_algobase<allocator<void>>::_IncP(_Tree_algobase<allocator<void>>::_Genptr)
                                      92
     _Tree_algobase<allocator<void>>::_Rrotate(_Tree_algobase<allocator<void>>::_Genptr)
                                      84
     _Tree_algobase<allocator<void>>::_Lrotate(_Tree_algobase<allocator<void>>::_Genptr)
                                      84
     _Tree_algobase<allocator<void>>::_Insert(bool, _Tree_algobase<allocator<void>>::_Genptr, _Tree_algobase<allocator<void>>::_Genptr)
                                     356
     _Tree<_Tset_traits<unsigned int, less<unsigned int>, allocator<unsigned int>, false>>::insert(unsigned int)
                                     200
     _Tree<_Tset_traits<unsigned int, less<unsigned int>, allocator<unsigned int>, false>>::_Insert(bool, _Tree<_Tset_traits<unsigned int, less<unsigned int>, allocator<unsigned int>, false>>::_Nodeptr, unsigned int)
                                      96
     _Vector_impl<PRogramObjectBase *, allocator<PRogramObjectBase *>>::_Insert(PRogramObjectBase **, PRogramObjectBase * const &)
                                      72
     _Vector_impl<PRogramObjectBase *, allocator<PRogramObjectBase *>>::_Make_room(PRogramObjectBase **, unsigned int)
                                     244
     _Vector_impl<PRogramObjectBase *, allocator<PRogramObjectBase *>>::_Push_back0(PRogramObjectBase *)
                                      72
     LastOSError                       4
     LastOSErrorTask                  32
     GetU16(unsigned char *)          16
     GetU32(unsigned char *)          28
     ?Subroutine73                    12
     GetU32BigEndian(unsigned char *)
                                      24
     PutU16(unsigned char *, unsigned short)
                                      16
     PutU32(unsigned char *, unsigned int)
                                      32
     TSNTime(char const *)            80
     ?Subroutine69                    20
     TSNTime(long, char const *)      72
     TSNDate()                        12
     ?Subroutine70                    20
     TSNTime()                         4
     GetDaylightSaving()              20
     SetDaylightSaving(int)           20
     TSNSetTimeZone(int)              32
     ?Subroutine74                    12
     TSNTimeZone()                    32
     TSNTimeZoneName()                20
     SetGMT(int)                      36
     TSNDateTime()                    12
     TSNAlarmTime()                   12
     TSNAlarmDateTime()               12
     TSNElapsedTime(long)             20
     TSNElapsedTicks(long)            12
     ScreenSaverOff()                 36
     SumOneCargo(int, float &, float &)
                                       4
     ?Subroutine71                    16
     SumOneCargoAllTanks(int, int, float *, float *, vector<PRogramObjectBase *>)
                                     168
     SumTanks(int, float &, float &)
                                       0
     FindFrequencey(int, int, int, double *)
                                     340
     ?Subroutine68                    32
     SendAlarmSilence()               32
     stricmp(char *, char *)         112
     ?Subroutine75                     8
     strincmp(char *, char *, int)   136
     strncpy(char *, char *, int)     76
     irint(float)                     92
     Calc_1stDeg_coeffs(float, float, float, float, float &, float &)
                                     124
     ?Subroutine76                     8
     IntPol1stDeg(float, float, float, float, float)
                                     116
     ?Subroutine72                    20
     Calc_2ndDeg_coeffs(float, float, float, float, float, float, float &, float &, float &)
                                     512
     IntPol2ndDeg(float, float, float, float, float, float, float)
                                     124
     ?Subroutine77                     8
     Simpson(float, float, int, float (*)(float))
                                     244
     ?Subroutine78                     8
     Simpson(float, float, int, float (*)(float, float), float)
                                     236
     Simpson(float, float, int, float (*)(float, float, float), float, float)
                                     248
     IsInfinite(float)                28
     ?Subroutine79                     8
     IsNan(float)                     40
     IsFloat(float)                   32
     lfind(void const *, void *, size_t *, size_t, int (*)(void const *, void const *))
                                      84
     inet_aton(char const *)         304
     StartMainProgram()                4
     CheckAlarms(set<AlarmBasic *> &, bool volatile *)
                                     112
     SetAlarmsToNormal(set<AlarmBasic *> &)
                                      48
     GetAlarmTotals(set<AlarmBasic *> &, int &, int &, int &, int &, int &, int &)
                                     220
     GetActiveAlarms(set<AlarmBasic *> &)
                                      60
     AcknowledgeAlarms(set<AlarmBasic *> &)
                                      80
     AcknowledgeSoftAlarms(set<AlarmBasic *> &)
                                      92
     SetDataTime(set<PRogramObject *> &)
                                      60
     SetDataTime(set<PRogramObjectBase *> &)
                                      48
     RecalcProgramObjects(set<PRogramObject *> &)
                                      68
     AddList(PROLinkedList *, PROLinkedList *)
                                     120
     MakeConfigStringFromList(set<PRogramObjectBase *>)
                                     132
     GiveRelayDutyMessage(int, unsigned char, int, int)
                                      48
     FilterVal(float, float, float)  108
     RestartIncMsg                    72
     SetFactoryDefaults()             48
     MergeSet(set<unsigned int>, set<unsigned int>)
                                      64
     SignalSaveSettings(int)          48
     GetReadPermissionVector(vector<PRogramObjectBase *>, unsigned int)
                                     208
     GetWritePermissionVector(vector<PRogramObjectBase *>, unsigned int)
                                     208
     FloatRound(double, int)         212
     GetGMT()                         52
     GetHours(int)                   236
     Make_str_to_feet(char *)        328
     Make_hour_time_str_to_seconds(char *)
                                     268
     ?<Constant "%d %b %y">           12
     ?<Constant "%H:%M:%S">           12
     ?<Constant "GMT">                 4
     ?<Constant "%d %b %y %H:%M:%S">
                                      20
     ?<Constant "%H:%M">               8
     ?<Constant "%d.%b %H:%M">        12
     ?<Constant "Factory defaults">   20
     ?<Constant "%02i:%02i:%02i">     16
     ?<Constant ". ,/-:">              8
     ?<Constant ".,/-:">               8
     __sti__routine()                  4
     ??DataTable0                      4
     ??DataTable3                      4
     ??DataTable4                      4
     ??DataTable5                      4
     ??DataTable8                      4
      Others                        1188

 
 9 512 bytes in segment CODE
    36 bytes in segment DATA_AN
   120 bytes in segment DATA_C
     4 bytes in segment DIFUNCT
 
 6 744 bytes of CODE  memory (+ 2 772 bytes shared)
   120 bytes of CONST memory
     0 bytes of DATA  memory (+    36 bytes shared)

Errors: none
Warnings: none
