##############################################################################
#                                                                            #
# IAR ARM ANSI C/C++ Compiler V4.42A/W32               14/Sep/2022  15:20:04 #
# Copyright 1999-2005 IAR Systems. All rights reserved.                      #
#                                                                            #
#    Cpu mode        =  interwork                                            #
#    Endian          =  little                                               #
#    Stack alignment =  4                                                    #
#    Source file     =  D:\S2Prog\TXU\src\WindowsSystem.cpp                  #
#    Command line    =  D:\S2Prog\TXU\src\WindowsSystem.cpp --fpu None -D    #
#                       OS_LIBMODE_SP -D CPU_S3C2410 -D OS_RAMVECT=0 -D      #
#                       OS_UART=-1 -D S2TXU -D USE_LZO=1 -D __ARM_LIBRARY__  #
#                       -D WATCHDOG=1 -D NETWORK=1 -lCN                      #
#                       D:\S2Prog\TXU\Debug\List\ -o                         #
#                       D:\S2Prog\TXU\Debug\Obj\ -s9 --debug --cpu_mode arm  #
#                       --endian little --cpu ARM920T --stack_align 4        #
#                       --interwork -e --enable_multibytes --eec++           #
#                       --dlib_config "C:\Program Files (x86)\IAR            #
#                       Systems\Embedded Workbench                           #
#                       4.0\arm\LIB\dl4tpainl8n.h" -I                        #
#                       D:\S2Prog\TXU\GUI\CORE\ -I D:\S2Prog\TXU\GUI\WM\ -I  #
#                       D:\S2Prog\TXU\GUI\WIDGET\ -I D:\S2Prog\TXU\CONFIG\   #
#                       -I D:\S2Prog\TXU\INC\ -I D:\S2Prog\TXU\..\SHARED\INC #
#                       \ -I D:\S2Prog\TXU\..\SHARED\SRC\ -I                 #
#                       D:\S2Prog\TXU\..\SHARED\LZO\minilzo.210\ -I          #
#                       D:\S2Prog\TXU\lwip-1.4.1\src\include\ -I             #
#                       D:\S2Prog\TXU\lwip-1.4.1\src\include\ipv4\ -I        #
#                       D:\S2Prog\TXU\lwip-1.4.1\src\ -I                     #
#                       D:\S2Prog\TXU\..\SHARED\Database\ -I                 #
#                       D:\S2Prog\TXU\src\ -I "C:\Program Files (x86)\IAR    #
#                       Systems\Embedded Workbench 4.0\arm\INC\"             #
#                       --inline_threshold=2                                 #
#    List file       =  D:\S2Prog\TXU\Debug\List\WindowsSystem.lst           #
#    Object file     =  D:\S2Prog\TXU\Debug\Obj\WindowsSystem.r79            #
#                                                                            #
#                                                                            #
##############################################################################

D:\S2Prog\TXU\src\WindowsSystem.cpp
      1          #include "TDUincludes.h"

   \                                 In segment CODE, align 4, keep-with-next
   \   __??Code32?? __code __interwork __atpcs PRogramObjectBase ** _Vector_impl<PRogramObjectBase *, allocator<PRogramObjectBase *>>::_Make_room(PRogramObjectBase **, unsigned int)
   \                     ??_Make_room:
   \   00000000   F0472DE9           PUSH     {R4-R10,LR}
   \   00000004   0040A0E1           MOV      R4,R0
   \   00000008   000094E5           LDR      R0,[R4, #+0]
   \   0000000C   0150A0E1           MOV      R5,R1
   \   00000010   081094E5           LDR      R1,[R4, #+8]
   \   00000014   0260A0E1           MOV      R6,R2
   \   00000018   001041E0           SUB      R1,R1,R0
   \   0000001C   2171A0E1           LSR      R7,R1,#+2
   \   00000020   041094E5           LDR      R1,[R4, #+4]
   \   00000024   000056E3           CMP      R6,#+0
   \   00000028   000041E0           SUB      R0,R1,R0
   \   0000002C   2001A0E1           LSR      R0,R0,#+2
   \   00000030   2C00000A           BEQ      ??_Make_room_1
   \   00000034   C024E0E3           MVN      R2,#-1073741824
   \   00000038   002042E0           SUB      R2,R2,R0
   \   0000003C   060052E1           CMP      R2,R6
   \   00000040   2800003A           BCC      ??_Make_room_1
   \   00000044   008086E0           ADD      R8,R6,R0
   \   00000048   080057E1           CMP      R7,R8
   \   0000004C   1F00002A           BCS      ??_Make_room_2
   \   00000050   A700A0E1           LSR      R0,R7,#+1
   \   00000054   C014E0E3           MVN      R1,#-1073741824
   \   00000058   001041E0           SUB      R1,R1,R0
   \   0000005C   070051E1           CMP      R1,R7
   \   00000060   0070A033           MOVCC    R7,#+0
   \   00000064   07708020           ADDCS    R7,R0,R7
   \   00000068   080057E1           CMP      R7,R8
   \   0000006C   0870A031           MOVCC    R7,R8
   \   00000070   0701A0E1           LSL      R0,R7,#+2
   \   00000074   ........           _BLF     `??operator new`,`??operator new??rA`
   \   00000078   0090A0E1           MOV      R9,R0
   \   0000007C   000094E5           LDR      R0,[R4, #+0]
   \   00000080   0920A0E1           MOV      R2,R9
   \   00000084   0510A0E1           MOV      R1,R5
   \   00000088   ........           _BLF     _Copy_a4,??_Copy_a4??rA
   \   0000008C   041094E5           LDR      R1,[R4, #+4]
   \   00000090   00A0A0E1           MOV      R10,R0
   \   00000094   06218AE0           ADD      R2,R10,R6, LSL #+2
   \   00000098   0500A0E1           MOV      R0,R5
   \   0000009C   ........           _BLF     _Copy_a4,??_Copy_a4??rA
   \   000000A0   000094E5           LDR      R0,[R4, #+0]
   \   000000A4   000050E3           CMP      R0,#+0
   \   000000A8   0100000A           BEQ      ??_Make_room_3
   \   000000AC   040084E5           STR      R0,[R4, #+4]
   \   000000B0   ........           _BLF     `??operator delete`,`??operator delete??rA`
   \                     ??_Make_room_3:
   \   000000B4   070189E0           ADD      R0,R9,R7, LSL #+2
   \   000000B8   080084E5           STR      R0,[R4, #+8]
   \   000000BC   080189E0           ADD      R0,R9,R8, LSL #+2
   \   000000C0   040084E5           STR      R0,[R4, #+4]
   \   000000C4   009084E5           STR      R9,[R4, #+0]
   \   000000C8   0A50A0E1           MOV      R5,R10
   \   000000CC   050000EA           B        ??_Make_room_1
   \                     ??_Make_room_2:
   \   000000D0   062181E0           ADD      R2,R1,R6, LSL #+2
   \   000000D4   0500A0E1           MOV      R0,R5
   \   000000D8   ........           _BLF     _Copy_backward_a4,??_Copy_backward_a4??rA
   \   000000DC   040094E5           LDR      R0,[R4, #+4]
   \   000000E0   060180E0           ADD      R0,R0,R6, LSL #+2
   \   000000E4   040084E5           STR      R0,[R4, #+4]
   \                     ??_Make_room_1:
   \   000000E8   0500A0E1           MOV      R0,R5
   \   000000EC   F047BDE8           POP      {R4-R10,LR}
   \   000000F0   1EFF2FE1           BX       LR               ;; return

   \                                 In segment DATA_Z, align 4, align-sorted
   \   static GUI_FONT const __data TDU_FONT_PW
   \                     TDU_FONT_PW:
   \   00000000                      DS8 36
      2          /*******************************************************************
      3          *       _cbBkWindow
      4          *  This callback is necessary to redraw the background when
      5          *  frame window is moved
      6          ********************************************************************/

   \                                 In segment CODE, align 4, keep-with-next
      7          static void _cbBkWindow(WM_MESSAGE * pMsg)
      8          {
   \                     ??_cbBkWindow:
   \   00000000   00402DE9           PUSH     {LR}
      9          	switch ( pMsg->MsgId ) {
   \   00000004   001090E5           LDR      R1,[R0, #+0]
   \   00000008   0F1051E2           SUBS     R1,R1,#+15
   \   0000000C   05105112           SUBSNE   R1,R1,#+5
   \   00000010   0000000A           BEQ      ??_cbBkWindow_1
     10          	case WM_GET_INSIDE_RECT:
     11          		break;
     12          	case WM_PAINT:
     13          		break;
     14          	default:
     15          		WM_DefaultProc(pMsg);
   \   00000014   ........           _BLF     WM_DefaultProc,??WM_DefaultProc??rA
     16          	}
     17          }
   \                     ??_cbBkWindow_1:
   \   00000018   0040BDE8           POP      {LR}
   \   0000001C   1EFF2FE1           BX       LR               ;; return
     18          
     19          /*******************************************************************
     20          *       Window init
     21          *    Creates the Mainwindow and sets the callback for child
     22          *    and background window
     23          */

   \                                 In segment CODE, align 4, keep-with-next
     24          void TDUStartupInit(void) {
   \                     ??TDUStartupInit:
   \   00000000   30402DE9           PUSH     {R4,R5,LR}
     25          	GUI_Init();
     26          	WM_SetCreateFlags(WM_CF_MEMDEV);   /* Use memory devices on all windows to avoid flicker */
     27          
     28          	LCDXSize = LCD_GET_XSIZE();
   \   00000004   ........           LDR      R4,??DataTable7  ;; LCDXSize
     29          	LCDYSize = LCD_GET_YSIZE();
     30          //Set Welcome picture:
     31          	GUI_SetBkColor(GUI_LIGHTGRAY);
     32          	GUI_Clear();
     33          	GUI_SetColor(GUI_BLACK);
     34          	GUI_DrawBitmap(&bmScanjetlogo,20,1);
     35          	GUI_SetTextMode(GUI_TM_TRANS);
     36          	GUI_SetFont(&GUI_Font24B_ASCII);
     37          	GUI_DispStringHCenterAt("Display unit",LCDXSize/2,120);
   \   00000008   ........           LDR      R5,??DataTable8  ;; `?<Constant "Display unit">`
   \   0000000C   ........           _BLF     GUI_Init,??GUI_Init??rA
   \   00000010   0400A0E3           MOV      R0,#+4
   \   00000014   ........           _BLF     WM_SetCreateFlags,??WM_SetCreateFlags??rA
   \   00000018   ........           _BLF     LCD_GetXSize,??LCD_GetXSize??rA
   \   0000001C   000084E5           STR      R0,[R4, #+0]
   \   00000020   ........           _BLF     LCD_GetYSize,??LCD_GetYSize??rA
   \   00000024   80109FE5           LDR      R1,??TDUStartupInit_1  ;; LCDYSize
   \   00000028   000081E5           STR      R0,[R1, #+0]
   \   0000002C   7C009FE5           LDR      R0,??TDUStartupInit_1+0x4  ;; 0xd3d3d3
   \   00000030   ........           _BLF     GUI_SetBkColor,??GUI_SetBkColor??rA
   \   00000034   ........           _BLF     GUI_Clear,??GUI_Clear??rA
   \   00000038   0000A0E3           MOV      R0,#+0
   \   0000003C   ........           _BLF     GUI_SetColor,??GUI_SetColor??rA
   \   00000040   ........           LDR      R0,??DataTable9  ;; bmScanjetlogo
   \   00000044   0120A0E3           MOV      R2,#+1
   \   00000048   1410A0E3           MOV      R1,#+20
   \   0000004C   ........           _BLF     GUI_DrawBitmap,??GUI_DrawBitmap??rA
   \   00000050   0200A0E3           MOV      R0,#+2
   \   00000054   ........           _BLF     GUI_SetTextMode,??GUI_SetTextMode??rA
   \   00000058   ........           LDR      R0,??DataTable10  ;; GUI_Font24B_ASCII
   \   0000005C   ........           _BLF     GUI_SetFont,??GUI_SetFont??rA
   \   00000060   000094E5           LDR      R0,[R4, #+0]
   \   00000064   7820A0E3           MOV      R2,#+120
   \   00000068   A00F80E0           ADD      R0,R0,R0, LSR #+31
   \   0000006C   C010A0E1           ASR      R1,R0,#+1
   \   00000070   0500A0E1           MOV      R0,R5
   \   00000074   ........           _BLF     GUI_DispStringHCenterAt,??GUI_DispStringHCenterAt??rA
     38          	GUI_SetFont(&GUI_Font16B_ASCII);
   \   00000078   ........           LDR      R0,??DataTable11  ;; GUI_Font16B_ASCII
   \   0000007C   ........           _BLF     GUI_SetFont,??GUI_SetFont??rA
     39          	GUI_DispStringHCenterAt("Loading....",LCDXSize/2,150);
   \   00000080   000094E5           LDR      R0,[R4, #+0]
   \   00000084   9620A0E3           MOV      R2,#+150
   \   00000088   A00F80E0           ADD      R0,R0,R0, LSR #+31
   \   0000008C   C010A0E1           ASR      R1,R0,#+1
   \   00000090   100085E2           ADD      R0,R5,#+16
   \   00000094   ........           _BLF     GUI_DispStringHCenterAt,??GUI_DispStringHCenterAt??rA
     40          	TSN_Delay(1000);
   \   00000098   FA0FA0E3           MOV      R0,#+1000
   \   0000009C   ........           _BLF     OS_Delay,??OS_Delay??rA
     41          
     42          #ifdef S2TXU
     43          	StartCloseMsgBoxTask();
   \   000000A0   ........           _BLF     ??StartCloseMsgBoxTask,??StartCloseMsgBoxTask??rA
     44          #endif
     45          
     46          }
   \   000000A4   3040BDE8           POP      {R4,R5,LR}
   \   000000A8   1EFF2FE1           BX       LR               ;; return
   \                     ??TDUStartupInit_1:
   \   000000AC   ........           DC32     LCDYSize
   \   000000B0   D3D3D300           DC32     0xd3d3d3
     47          

   \                                 In segment CODE, align 4, keep-with-next
     48          void StartWindowSystem(void)
     49          {
     50          //Default color for listview
     51          
     52          	LISTVIEW_SetDefaultFont(&TDU_FONT_PW);
   \                     ??StartWindowSystem:
   \   00000000   ........           LDR      R0,??DataTable6  ;; TDU_FONT_PW
   \   00000004   F0432DE9           PUSH     {R4-R9,LR}
     53          	int scrollwith = SCROLLBAR_SetDefaultWidth(15);
     54          
     55          	OKMessageBox        = new TDUMessageBox;
     56          	ConfirmMessageBox   = new TDUMessageBoxCancel;
     57          	ListMessageBox      = new TDUMessageBoxList;
     58          	ConfigWindow        = new TDUConfigWin;
     59          
     60          //Keyboard and dialogs:
     61          	AppWinSetup         = new TDUAppWinSetup;
     62          	AppSetupBallast     = new TDUAppSetupBallast;
     63          	AppSetupCargo       = new TDUAppSetupCargo;
     64          	AppSetupTankFarm    = new TDUAppSetupTankFarm;
     65          	AppSetupService     = new TDUAppSetupService;
     66          	AppSetupTankPress   = new TDUAppSetupTankPress;
     67          	AppSetupTemp        = new TDUAppSetupTemp;
     68          	AppSetupVoidSpace   = new TDUAppSetupVoidSpace;
     69          	KeyBoard            = new TDUKeyBoard;
     70          	ConfigWarnings      = new TDUConfigWarning;
   \   00000008   F8439FE5           LDR      R4,??StartWindowSystem_1  ;; ConfigWarnings
     71          	CalibrateScreen     = new TDUCalibrateScreen;
     72          	TankDetails         = new TDUMultipageTankDetails;
     73          	SensorDetails       = new TDUCalDataWin;
     74          // Initiate main windows:
     75          	MainWindow          = new TDUMainWin;
   \   0000000C   F8539FE5           LDR      R5,??StartWindowSystem_1+0x4  ;; MainWindow
     76          	ButWindow           = new TDUButWin;
   \   00000010   F8639FE5           LDR      R6,??StartWindowSystem_1+0x8  ;; ButWindow
     77          	PresentWindow       = new TDUPresentWin;
   \   00000014   F8939FE5           LDR      R9,??StartWindowSystem_1+0xC  ;; PresentWindow
     78          	AlarmWindow         = new TDUAlarmWindow;
   \   00000018   F8739FE5           LDR      R7,??StartWindowSystem_1+0x10  ;; AlarmWindow
     79          	SystemWindow        = new TDUSystemWin;
   \   0000001C   F8839FE5           LDR      R8,??StartWindowSystem_1+0x14  ;; SystemWindow
   \   00000020   0CD04DE2           SUB      SP,SP,#+12
   \   00000024   ........           _BLF     LISTVIEW_SetDefaultFont,??LISTVIEW_SetDefaultFont??rA
   \   00000028   0F00A0E3           MOV      R0,#+15
   \   0000002C   ........           _BLF     SCROLLBAR_SetDefaultWidth,??SCROLLBAR_SetDefaultWidth??rA
   \   00000030   ........           _BLF     `??new TDUMessageBox`,`??new TDUMessageBox??rA`
   \   00000034   E4139FE5           LDR      R1,??StartWindowSystem_1+0x18  ;; OKMessageBox
   \   00000038   000081E5           STR      R0,[R1, #+0]
   \   0000003C   ........           _BLF     `??new TDUMessageBoxCancel`,`??new TDUMessageBoxCancel??rA`
   \   00000040   DC139FE5           LDR      R1,??StartWindowSystem_1+0x1C  ;; ConfirmMessageBox
   \   00000044   000081E5           STR      R0,[R1, #+0]
   \   00000048   ........           _BLF     `??new TDUMessageBoxList`,`??new TDUMessageBoxList??rA`
   \   0000004C   D4139FE5           LDR      R1,??StartWindowSystem_1+0x20  ;; ListMessageBox
   \   00000050   000081E5           STR      R0,[R1, #+0]
   \   00000054   ........           _BLF     `??new TDUConfigWin`,`??new TDUConfigWin??rA`
   \   00000058   CC139FE5           LDR      R1,??StartWindowSystem_1+0x24  ;; ConfigWindow
   \   0000005C   000081E5           STR      R0,[R1, #+0]
   \   00000060   ........           _BLF     `??new TDUAppWinSetup`,`??new TDUAppWinSetup??rA`
   \   00000064   C4139FE5           LDR      R1,??StartWindowSystem_1+0x28  ;; AppWinSetup
   \   00000068   000081E5           STR      R0,[R1, #+0]
   \   0000006C   ........           _BLF     `??new TDUAppSetupBallast`,`??new TDUAppSetupBallast??rA`
   \   00000070   BC139FE5           LDR      R1,??StartWindowSystem_1+0x2C  ;; AppSetupBallast
   \   00000074   000081E5           STR      R0,[R1, #+0]
   \   00000078   ........           _BLF     `??new TDUAppSetupCargo`,`??new TDUAppSetupCargo??rA`
   \   0000007C   B4139FE5           LDR      R1,??StartWindowSystem_1+0x30  ;; AppSetupCargo
   \   00000080   000081E5           STR      R0,[R1, #+0]
   \   00000084   ........           _BLF     `??new TDUAppSetupTankFarm`,`??new TDUAppSetupTankFarm??rA`
   \   00000088   AC139FE5           LDR      R1,??StartWindowSystem_1+0x34  ;; AppSetupTankFarm
   \   0000008C   000081E5           STR      R0,[R1, #+0]
   \   00000090   ........           _BLF     `??new TDUAppSetupService`,`??new TDUAppSetupService??rA`
   \   00000094   A4139FE5           LDR      R1,??StartWindowSystem_1+0x38  ;; AppSetupService
   \   00000098   000081E5           STR      R0,[R1, #+0]
   \   0000009C   ........           _BLF     `??new TDUAppSetupTankPress`,`??new TDUAppSetupTankPress??rA`
   \   000000A0   9C139FE5           LDR      R1,??StartWindowSystem_1+0x3C  ;; AppSetupTankPress
   \   000000A4   000081E5           STR      R0,[R1, #+0]
   \   000000A8   ........           _BLF     `??new TDUAppSetupTemp`,`??new TDUAppSetupTemp??rA`
   \   000000AC   94139FE5           LDR      R1,??StartWindowSystem_1+0x40  ;; AppSetupTemp
   \   000000B0   000081E5           STR      R0,[R1, #+0]
   \   000000B4   ........           _BLF     `??new TDUAppSetupVoidSpace`,`??new TDUAppSetupVoidSpace??rA`
   \   000000B8   8C139FE5           LDR      R1,??StartWindowSystem_1+0x44  ;; AppSetupVoidSpace
   \   000000BC   000081E5           STR      R0,[R1, #+0]
   \   000000C0   ........           _BLF     `??new TDUKeyBoard`,`??new TDUKeyBoard??rA`
   \   000000C4   84139FE5           LDR      R1,??StartWindowSystem_1+0x48  ;; KeyBoard
   \   000000C8   000081E5           STR      R0,[R1, #+0]
   \   000000CC   ........           _BLF     `??new TDUConfigWarning`,`??new TDUConfigWarning??rA`
   \   000000D0   000084E5           STR      R0,[R4, #+0]
   \   000000D4   ........           _BLF     `??new TDUCalibrateScreen`,`??new TDUCalibrateScreen??rA`
   \   000000D8   74139FE5           LDR      R1,??StartWindowSystem_1+0x4C  ;; CalibrateScreen
   \   000000DC   000081E5           STR      R0,[R1, #+0]
   \   000000E0   ........           _BLF     `??new TDUMultipageTankDetails`,`??new TDUMultipageTankDetails??rA`
   \   000000E4   6C139FE5           LDR      R1,??StartWindowSystem_1+0x50  ;; TankDetails
   \   000000E8   000081E5           STR      R0,[R1, #+0]
   \   000000EC   ........           _BLF     `??new TDUCalDataWin`,`??new TDUCalDataWin??rA`
   \   000000F0   64139FE5           LDR      R1,??StartWindowSystem_1+0x54  ;; SensorDetails
   \   000000F4   000081E5           STR      R0,[R1, #+0]
   \   000000F8   ........           _BLF     `??new TDUMainWin`,`??new TDUMainWin??rA`
   \   000000FC   000085E5           STR      R0,[R5, #+0]
   \   00000100   ........           _BLF     `??new TDUButWin`,`??new TDUButWin??rA`
   \   00000104   000086E5           STR      R0,[R6, #+0]
   \   00000108   ........           _BLF     `??new TDUPresentWin`,`??new TDUPresentWin??rA`
   \   0000010C   000089E5           STR      R0,[R9, #+0]
   \   00000110   ........           _BLF     `??new TDUAlarmWindow`,`??new TDUAlarmWindow??rA`
   \   00000114   000087E5           STR      R0,[R7, #+0]
   \   00000118   ........           _BLF     `??new TDUSystemWin`,`??new TDUSystemWin??rA`
   \   0000011C   000088E5           STR      R0,[R8, #+0]
     80          
     81          	WM_EnableMemdev(MainWindow->WinHandl);
   \   00000120   000095E5           LDR      R0,[R5, #+0]
   \   00000124   FA02D0E1           LDRSH    R0,[R0, #+42]
   \   00000128   ........           _BLF     WM_EnableMemdev,??WM_EnableMemdev??rA
     82          	WM_EnableMemdev(ButWindow->WinHandl);
   \   0000012C   000096E5           LDR      R0,[R6, #+0]
   \   00000130   FA02D0E1           LDRSH    R0,[R0, #+42]
   \   00000134   ........           _BLF     WM_EnableMemdev,??WM_EnableMemdev??rA
     83          	WM_EnableMemdev(PresentWindow->WinHandl);
   \   00000138   000099E5           LDR      R0,[R9, #+0]
   \   0000013C   FA02D0E1           LDRSH    R0,[R0, #+42]
   \   00000140   ........           _BLF     WM_EnableMemdev,??WM_EnableMemdev??rA
     84          	WM_EnableMemdev(AlarmWindow->WinHandl);
   \   00000144   000097E5           LDR      R0,[R7, #+0]
   \   00000148   FA02D0E1           LDRSH    R0,[R0, #+42]
   \   0000014C   ........           _BLF     WM_EnableMemdev,??WM_EnableMemdev??rA
     85          	WM_EnableMemdev(SystemWindow->WinHandl);
   \   00000150   000098E5           LDR      R0,[R8, #+0]
   \   00000154   FA02D0E1           LDRSH    R0,[R0, #+42]
   \   00000158   ........           _BLF     WM_EnableMemdev,??WM_EnableMemdev??rA
     86              WM_EnableMemdev(ConfigWarnings->WinHandl);
   \   0000015C   000094E5           LDR      R0,[R4, #+0]
   \   00000160   FA02D0E1           LDRSH    R0,[R0, #+42]
   \   00000164   ........           _BLF     WM_EnableMemdev,??WM_EnableMemdev??rA
     87          
     88          //Application activated
     89          	if ( !PROCargoTank::ObjVector.empty() ) {
   \   00000168   F0029FE5           LDR      R0,??StartWindowSystem_1+0x58  ;; ??ObjVector
   \   0000016C   041090E5           LDR      R1,[R0, #+4]
   \   00000170   000090E5           LDR      R0,[R0, #+0]
   \   00000174   000041E0           SUB      R0,R1,R0
   \   00000178   2001B0E1           LSRS     R0,R0,#+2
   \   0000017C   0B00000A           BEQ      ??StartWindowSystem_2
     90          		switch ( PROProjectInfo::ProjectType ) {
   \   00000180   DC029FE5           LDR      R0,??StartWindowSystem_1+0x5C  ;; ??ProjectType
   \   00000184   000090E5           LDR      R0,[R0, #+0]
   \   00000188   020050E3           CMP      R0,#+2
   \   0000018C   0200000A           BEQ      ??StartWindowSystem_3
     91          		default:
     92          		case 0:
     93          		case 1:
     94          			CargoWindow             = new TDUCargoWin;
   \   00000190   D0729FE5           LDR      R7,??StartWindowSystem_1+0x60  ;; CargoWindow
   \   00000194   ........           _BLF     `??new TDUCargoWin`,`??new TDUCargoWin??rA`
   \   00000198   010000EA           B        ??StartWindowSystem_4
     95          			WM_EnableMemdev(CargoWindow->WinHandl);
     96          			break;
     97          		case 2:
     98          			TankFarmWindow           = new TDUTankFarmWin;
   \                     ??StartWindowSystem_3:
   \   0000019C   C8729FE5           LDR      R7,??StartWindowSystem_1+0x64  ;; TankFarmWindow
   \   000001A0   ........           _BLF     `??new TDUTankFarmWin`,`??new TDUTankFarmWin??rA`
   \                     ??StartWindowSystem_4:
   \   000001A4   000087E5           STR      R0,[R7, #+0]
     99          			WM_EnableMemdev(TankFarmWindow->WinHandl);
   \   000001A8   FA02D0E1           LDRSH    R0,[R0, #+42]
   \   000001AC   ........           _BLF     WM_EnableMemdev,??WM_EnableMemdev??rA
    100          			break;
    101          
    102          		}
    103          	}
    104          	if ( !PROBallastTank::ObjVector.empty() ) {
   \                     ??StartWindowSystem_2:
   \   000001B0   B8029FE5           LDR      R0,??StartWindowSystem_1+0x68  ;; ??ObjVector_1
   \   000001B4   041090E5           LDR      R1,[R0, #+4]
   \   000001B8   000090E5           LDR      R0,[R0, #+0]
   \   000001BC   000041E0           SUB      R0,R1,R0
   \   000001C0   2001B0E1           LSRS     R0,R0,#+2
   \   000001C4   0400000A           BEQ      ??StartWindowSystem_5
    105          		BallastWindow           = new TDUBallastWin;
   \   000001C8   A4729FE5           LDR      R7,??StartWindowSystem_1+0x6C  ;; BallastWindow
   \   000001CC   ........           _BLF     `??new TDUBallastWin`,`??new TDUBallastWin??rA`
   \   000001D0   000087E5           STR      R0,[R7, #+0]
    106          		WM_EnableMemdev(BallastWindow->WinHandl);
   \   000001D4   FA02D0E1           LDRSH    R0,[R0, #+42]
   \   000001D8   ........           _BLF     WM_EnableMemdev,??WM_EnableMemdev??rA
    107          	}
    108          	if ( !PROServiceTank::ObjVector.empty() ) {
   \                     ??StartWindowSystem_5:
   \   000001DC   94029FE5           LDR      R0,??StartWindowSystem_1+0x70  ;; ??ObjVector_2
   \   000001E0   041090E5           LDR      R1,[R0, #+4]
   \   000001E4   000090E5           LDR      R0,[R0, #+0]
   \   000001E8   000041E0           SUB      R0,R1,R0
   \   000001EC   2001B0E1           LSRS     R0,R0,#+2
   \   000001F0   0400000A           BEQ      ??StartWindowSystem_6
    109          		ServiceWindow           = new TDUServiceWin;
   \   000001F4   80729FE5           LDR      R7,??StartWindowSystem_1+0x74  ;; ServiceWindow
   \   000001F8   ........           _BLF     `??new TDUServiceWin`,`??new TDUServiceWin??rA`
   \   000001FC   000087E5           STR      R0,[R7, #+0]
    110          		WM_EnableMemdev(ServiceWindow->WinHandl);
   \   00000200   FA02D0E1           LDRSH    R0,[R0, #+42]
   \   00000204   ........           _BLF     WM_EnableMemdev,??WM_EnableMemdev??rA
    111          	}
    112          	if ( !PROTankPressure::ObjVector.empty() ) {
   \                     ??StartWindowSystem_6:
   \   00000208   70029FE5           LDR      R0,??StartWindowSystem_1+0x78  ;; ??ObjVector_3
   \   0000020C   041090E5           LDR      R1,[R0, #+4]
   \   00000210   000090E5           LDR      R0,[R0, #+0]
   \   00000214   000041E0           SUB      R0,R1,R0
   \   00000218   2001B0E1           LSRS     R0,R0,#+2
   \   0000021C   0400000A           BEQ      ??StartWindowSystem_7
    113          		TankPressWindow     = new TDUTankPressWin;
   \   00000220   5C729FE5           LDR      R7,??StartWindowSystem_1+0x7C  ;; TankPressWindow
   \   00000224   ........           _BLF     `??new TDUTankPressWin`,`??new TDUTankPressWin??rA`
   \   00000228   000087E5           STR      R0,[R7, #+0]
    114          		WM_EnableMemdev(TankPressWindow->WinHandl);
   \   0000022C   FA02D0E1           LDRSH    R0,[R0, #+42]
   \   00000230   ........           _BLF     WM_EnableMemdev,??WM_EnableMemdev??rA
    115          	}
    116          	if ( !PROTemperature::ObjVector.empty() ) {
   \                     ??StartWindowSystem_7:
   \   00000234   4C029FE5           LDR      R0,??StartWindowSystem_1+0x80  ;; ??ObjVector_4
   \   00000238   041090E5           LDR      R1,[R0, #+4]
   \   0000023C   000090E5           LDR      R0,[R0, #+0]
   \   00000240   000041E0           SUB      R0,R1,R0
   \   00000244   2001B0E1           LSRS     R0,R0,#+2
   \   00000248   0400000A           BEQ      ??StartWindowSystem_8
    117          		TempWindow              = new TDUTempWin;
   \   0000024C   38729FE5           LDR      R7,??StartWindowSystem_1+0x84  ;; TempWindow
   \   00000250   ........           _BLF     `??new TDUTempWin`,`??new TDUTempWin??rA`
   \   00000254   000087E5           STR      R0,[R7, #+0]
    118          		WM_EnableMemdev(TempWindow->WinHandl);
   \   00000258   FA02D0E1           LDRSH    R0,[R0, #+42]
   \   0000025C   ........           _BLF     WM_EnableMemdev,??WM_EnableMemdev??rA
    119          	}
    120          	if ( !PROWaterIngress::ObjVector.empty() ) {
   \                     ??StartWindowSystem_8:
   \   00000260   28029FE5           LDR      R0,??StartWindowSystem_1+0x88  ;; ??ObjVector_5
   \   00000264   041090E5           LDR      R1,[R0, #+4]
   \   00000268   000090E5           LDR      R0,[R0, #+0]
   \   0000026C   000041E0           SUB      R0,R1,R0
   \   00000270   2001B0E1           LSRS     R0,R0,#+2
   \   00000274   0400000A           BEQ      ??StartWindowSystem_9
    121          		WaterIngrWindow         = new TDUWaterIngressWin;
   \   00000278   14729FE5           LDR      R7,??StartWindowSystem_1+0x8C  ;; WaterIngrWindow
   \   0000027C   ........           _BLF     `??new TDUWaterIngressWin`,`??new TDUWaterIngressWin??rA`
   \   00000280   000087E5           STR      R0,[R7, #+0]
    122          		WM_EnableMemdev(WaterIngrWindow->WinHandl);
   \   00000284   FA02D0E1           LDRSH    R0,[R0, #+42]
   \   00000288   ........           _BLF     WM_EnableMemdev,??WM_EnableMemdev??rA
    123          	}
    124          	if ( !PROLevelSwitch::ObjVector.empty() ) {
   \                     ??StartWindowSystem_9:
   \   0000028C   04029FE5           LDR      R0,??StartWindowSystem_1+0x90  ;; ??ObjVector_6
   \   00000290   041090E5           LDR      R1,[R0, #+4]
   \   00000294   000090E5           LDR      R0,[R0, #+0]
   \   00000298   000041E0           SUB      R0,R1,R0
   \   0000029C   2001B0E1           LSRS     R0,R0,#+2
   \   000002A0   0400000A           BEQ      ??StartWindowSystem_10
    125          		LevelSwitchWindow   = new TDULevelSwitchWin;
   \   000002A4   F0719FE5           LDR      R7,??StartWindowSystem_1+0x94  ;; LevelSwitchWindow
   \   000002A8   ........           _BLF     `??new TDULevelSwitchWin`,`??new TDULevelSwitchWin??rA`
   \   000002AC   000087E5           STR      R0,[R7, #+0]
    126          		WM_EnableMemdev(LevelSwitchWindow->WinHandl);
   \   000002B0   FA02D0E1           LDRSH    R0,[R0, #+42]
   \   000002B4   ........           _BLF     WM_EnableMemdev,??WM_EnableMemdev??rA
    127          	}
    128          	if ( !PROLinePressure::ObjVector.empty() ) {
   \                     ??StartWindowSystem_10:
   \   000002B8   E0019FE5           LDR      R0,??StartWindowSystem_1+0x98  ;; ??ObjVector_7
   \   000002BC   041090E5           LDR      R1,[R0, #+4]
   \   000002C0   000090E5           LDR      R0,[R0, #+0]
   \   000002C4   000041E0           SUB      R0,R1,R0
   \   000002C8   2001B0E1           LSRS     R0,R0,#+2
   \   000002CC   0400000A           BEQ      ??StartWindowSystem_11
    129          		LinePressWindow     = new TDULinePressWin;
   \   000002D0   CC719FE5           LDR      R7,??StartWindowSystem_1+0x9C  ;; LinePressWindow
   \   000002D4   ........           _BLF     `??new TDULinePressWin`,`??new TDULinePressWin??rA`
   \   000002D8   000087E5           STR      R0,[R7, #+0]
    130          		WM_EnableMemdev(LinePressWindow->WinHandl);
   \   000002DC   FA02D0E1           LDRSH    R0,[R0, #+42]
   \   000002E0   ........           _BLF     WM_EnableMemdev,??WM_EnableMemdev??rA
    131          	}
    132          	if ( !PROVoidSpace::ObjVector.empty() ) {
   \                     ??StartWindowSystem_11:
   \   000002E4   BC019FE5           LDR      R0,??StartWindowSystem_1+0xA0  ;; ??ObjVector_8
   \   000002E8   041090E5           LDR      R1,[R0, #+4]
   \   000002EC   000090E5           LDR      R0,[R0, #+0]
   \   000002F0   000041E0           SUB      R0,R1,R0
   \   000002F4   2001B0E1           LSRS     R0,R0,#+2
   \   000002F8   0400000A           BEQ      ??StartWindowSystem_12
    133          		VoidSpaceWindow     = new TDUVoidSpaceWin;
   \   000002FC   A8719FE5           LDR      R7,??StartWindowSystem_1+0xA4  ;; VoidSpaceWindow
   \   00000300   ........           _BLF     `??new TDUVoidSpaceWin`,`??new TDUVoidSpaceWin??rA`
   \   00000304   000087E5           STR      R0,[R7, #+0]
    134          		WM_EnableMemdev(VoidSpaceWindow->WinHandl);
   \   00000308   FA02D0E1           LDRSH    R0,[R0, #+42]
   \   0000030C   ........           _BLF     WM_EnableMemdev,??WM_EnableMemdev??rA
    135          	}
    136          	if ( !PROTankWashingMachine::ObjectSet.empty() ) {
   \                     ??StartWindowSystem_12:
   \   00000310   98019FE5           LDR      R0,??StartWindowSystem_1+0xA8  ;; ??ObjectSet + 16
   \   00000314   000090E5           LDR      R0,[R0, #+0]
   \   00000318   000050E3           CMP      R0,#+0
   \   0000031C   2300000A           BEQ      ??StartWindowSystem_13
    137          		TankCleaningWindow = new TDUTankCleaningWin;
   \   00000320   8C719FE5           LDR      R7,??StartWindowSystem_1+0xAC  ;; TankCleaningWindow
   \   00000324   ........           _BLF     `??new TDUTankCleaningWin`,`??new TDUTankCleaningWin??rA`
   \   00000328   000087E5           STR      R0,[R7, #+0]
    138          		WM_EnableMemdev(TankCleaningWindow->WinHandl);
   \   0000032C   FA02D0E1           LDRSH    R0,[R0, #+42]
   \   00000330   ........           _BLF     WM_EnableMemdev,??WM_EnableMemdev??rA
    139          
    140          		// Init this window with one objects for now .. will be set later when the windows will appear:
    141          		vector<PRogramObjectBase*> sampleVec;
   \   00000334   0000A0E3           MOV      R0,#+0
   \   00000338   00008DE5           STR      R0,[SP, #+0]
   \   0000033C   04008DE5           STR      R0,[SP, #+4]
   \   00000340   08008DE5           STR      R0,[SP, #+8]
    142          		if (PROTankWashingMachine::AllTankWashingMachinesVector.size() > 0)
   \   00000344   6C019FE5           LDR      R0,??StartWindowSystem_1+0xB0  ;; ??AllTankWashingMachinesVector
   \   00000348   001090E5           LDR      R1,[R0, #+0]
   \   0000034C   040090E5           LDR      R0,[R0, #+4]
   \   00000350   010040E0           SUB      R0,R0,R1
   \   00000354   2001B0E1           LSRS     R0,R0,#+2
   \   00000358   0800000A           BEQ      ??StartWindowSystem_14
    143          		{
    144          			sampleVec.push_back(PROTankWashingMachine::AllTankWashingMachinesVector[0]);
   \   0000035C   007091E5           LDR      R7,[R1, #+0]
   \   00000360   0120A0E3           MOV      R2,#+1
   \   00000364   0010A0E3           MOV      R1,#+0
   \   00000368   0D00A0E1           MOV      R0,SP
   \   0000036C   ........           _BLF     ??_Make_room,??_Make_room??rA
   \   00000370   0110A0E3           MOV      R1,#+1
   \                     ??StartWindowSystem_15:
   \   00000374   ........           STR      R7,[R0], #+4
   \   00000378   011051E2           SUBS     R1,R1,#+1
   \   0000037C   FCFFFF1A           BNE      ??StartWindowSystem_15
    145          		}
    146          		TankCleaningDetailsWindow = new TDUTankCleaningDetailsWin(&sampleVec);
   \                     ??StartWindowSystem_14:
   \   00000380   34719FE5           LDR      R7,??StartWindowSystem_1+0xB4  ;; TankCleaningDetailsWindow
   \   00000384   0D00A0E1           MOV      R0,SP
   \   00000388   ........           _BLF     `??new TDUTankCleaningDetailsWin`,`??new TDUTankCleaningDetailsWin??rA`
   \   0000038C   000087E5           STR      R0,[R7, #+0]
    147          		WM_EnableMemdev(TankCleaningDetailsWindow->WinHandl);
   \   00000390   FA02D0E1           LDRSH    R0,[R0, #+42]
   \   00000394   ........           _BLF     WM_EnableMemdev,??WM_EnableMemdev??rA
    148          	}
   \   00000398   00009DE5           LDR      R0,[SP, #+0]
   \   0000039C   000050E3           CMP      R0,#+0
   \   000003A0   0200000A           BEQ      ??StartWindowSystem_13
   \   000003A4   0010A0E1           MOV      R1,R0
   \   000003A8   04108DE5           STR      R1,[SP, #+4]
   \   000003AC   ........           _BLF     `??operator delete`,`??operator delete??rA`
    149          
    150          
    151          	NotConfWindow               = new TDUNotConfiguredWin;
   \                     ??StartWindowSystem_13:
   \   000003B0   08719FE5           LDR      R7,??StartWindowSystem_1+0xB8  ;; NotConfWindow
   \   000003B4   ........           _BLF     `??new TDUNotConfiguredWin`,`??new TDUNotConfiguredWin??rA`
   \   000003B8   000087E5           STR      R0,[R7, #+0]
    152          	WM_EnableMemdev(NotConfWindow->WinHandl);
   \   000003BC   FA02D0E1           LDRSH    R0,[R0, #+42]
   \   000003C0   ........           _BLF     WM_EnableMemdev,??WM_EnableMemdev??rA
    153          
    154          //	Set callback for background windows:
    155          	WM_SetCallback(WM_HBKWIN                ,     _cbBkWindow);
   \   000003C4   ........           _BLF     WM_GetDesktopWindow,??WM_GetDesktopWindow??rA
   \   000003C8   F4109FE5           LDR      R1,??StartWindowSystem_1+0xBC  ;; ??_cbBkWindow
   \   000003CC   ........           _BLF     WM_SetCallback,??WM_SetCallback??rA
    156          	WM_SetCallback(MainWindow->WinHandl     ,    MainWindow->cbEventHandler);
   \   000003D0   000095E5           LDR      R0,[R5, #+0]
   \   000003D4   EC109FE5           LDR      R1,??StartWindowSystem_1+0xC0  ;; ??cbEventHandler
   \   000003D8   FA02D0E1           LDRSH    R0,[R0, #+42]
   \   000003DC   ........           _BLF     WM_SetCallback,??WM_SetCallback??rA
    157          	WM_SetCallback(ButWindow->WinHandl      ,    ButWindow->cbEventHandler);
   \   000003E0   000096E5           LDR      R0,[R6, #+0]
   \   000003E4   E0109FE5           LDR      R1,??StartWindowSystem_1+0xC4  ;; ??cbEventHandler_1
   \   000003E8   FA02D0E1           LDRSH    R0,[R0, #+42]
   \   000003EC   ........           _BLF     WM_SetCallback,??WM_SetCallback??rA
    158          	WM_SetCallback(ConfigWarnings->WinHandl ,    ConfigWarnings->cbConfigWarning);
   \   000003F0   000094E5           LDR      R0,[R4, #+0]
   \   000003F4   D4109FE5           LDR      R1,??StartWindowSystem_1+0xC8  ;; ??cbConfigWarning
   \   000003F8   FA02D0E1           LDRSH    R0,[R0, #+42]
   \   000003FC   ........           _BLF     WM_SetCallback,??WM_SetCallback??rA
    159          
    160          }
   \   00000400   F743BDE8           POP      {R0-R2,R4-R9,LR}
   \   00000404   1EFF2FE1           BX       LR               ;; return
   \                     ??StartWindowSystem_1:
   \   00000408   ........           DC32     ConfigWarnings
   \   0000040C   ........           DC32     MainWindow
   \   00000410   ........           DC32     ButWindow
   \   00000414   ........           DC32     PresentWindow
   \   00000418   ........           DC32     AlarmWindow
   \   0000041C   ........           DC32     SystemWindow
   \   00000420   ........           DC32     OKMessageBox
   \   00000424   ........           DC32     ConfirmMessageBox
   \   00000428   ........           DC32     ListMessageBox
   \   0000042C   ........           DC32     ConfigWindow
   \   00000430   ........           DC32     AppWinSetup
   \   00000434   ........           DC32     AppSetupBallast
   \   00000438   ........           DC32     AppSetupCargo
   \   0000043C   ........           DC32     AppSetupTankFarm
   \   00000440   ........           DC32     AppSetupService
   \   00000444   ........           DC32     AppSetupTankPress
   \   00000448   ........           DC32     AppSetupTemp
   \   0000044C   ........           DC32     AppSetupVoidSpace
   \   00000450   ........           DC32     KeyBoard
   \   00000454   ........           DC32     CalibrateScreen
   \   00000458   ........           DC32     TankDetails
   \   0000045C   ........           DC32     SensorDetails
   \   00000460   ........           DC32     ??ObjVector
   \   00000464   ........           DC32     ??ProjectType
   \   00000468   ........           DC32     CargoWindow
   \   0000046C   ........           DC32     TankFarmWindow
   \   00000470   ........           DC32     ??ObjVector_1
   \   00000474   ........           DC32     BallastWindow
   \   00000478   ........           DC32     ??ObjVector_2
   \   0000047C   ........           DC32     ServiceWindow
   \   00000480   ........           DC32     ??ObjVector_3
   \   00000484   ........           DC32     TankPressWindow
   \   00000488   ........           DC32     ??ObjVector_4
   \   0000048C   ........           DC32     TempWindow
   \   00000490   ........           DC32     ??ObjVector_5
   \   00000494   ........           DC32     WaterIngrWindow
   \   00000498   ........           DC32     ??ObjVector_6
   \   0000049C   ........           DC32     LevelSwitchWindow
   \   000004A0   ........           DC32     ??ObjVector_7
   \   000004A4   ........           DC32     LinePressWindow
   \   000004A8   ........           DC32     ??ObjVector_8
   \   000004AC   ........           DC32     VoidSpaceWindow
   \   000004B0   ........           DC32     ??ObjectSet + 16
   \   000004B4   ........           DC32     TankCleaningWindow
   \   000004B8   ........           DC32     ??AllTankWashingMachinesVector
   \   000004BC   ........           DC32     TankCleaningDetailsWindow
   \   000004C0   ........           DC32     NotConfWindow
   \   000004C4   ........           DC32     ??_cbBkWindow
   \   000004C8   ........           DC32     ??cbEventHandler
   \   000004CC   ........           DC32     ??cbEventHandler_1
   \   000004D0   ........           DC32     ??cbConfigWarning
    161          

   \                                 In segment CODE, align 4, keep-with-next
    162          void NoConfigWarning(void)
    163          {
   \                     ??NoConfigWarning:
   \   00000000   30402DE9           PUSH     {R4,R5,LR}
    164          	GUI_Clear();
    165          	GUI_SetBkColor(GUI_RED);
    166          	GUI_SetColor(GUI_BLACK);
    167          	GUI_DrawBitmap(&bmScanjetlogo,20,40);
    168          	GUI_SetTextMode(GUI_TM_TRANS);
    169          	GUI_SetFont(&GUI_Font24B_ASCII);
    170          	GUI_DispStringHCenterAt("Display unit",LCDXSize/2,160);
   \   00000004   ........           LDR      R4,??DataTable7  ;; LCDXSize
   \   00000008   ........           LDR      R5,??DataTable8  ;; `?<Constant "Display unit">`
   \   0000000C   ........           _BLF     GUI_Clear,??GUI_Clear??rA
   \   00000010   FF00A0E3           MOV      R0,#+255
   \   00000014   ........           _BLF     GUI_SetBkColor,??GUI_SetBkColor??rA
   \   00000018   0000A0E3           MOV      R0,#+0
   \   0000001C   ........           _BLF     GUI_SetColor,??GUI_SetColor??rA
   \   00000020   ........           LDR      R0,??DataTable9  ;; bmScanjetlogo
   \   00000024   2820A0E3           MOV      R2,#+40
   \   00000028   1410A0E3           MOV      R1,#+20
   \   0000002C   ........           _BLF     GUI_DrawBitmap,??GUI_DrawBitmap??rA
   \   00000030   0200A0E3           MOV      R0,#+2
   \   00000034   ........           _BLF     GUI_SetTextMode,??GUI_SetTextMode??rA
   \   00000038   ........           LDR      R0,??DataTable10  ;; GUI_Font24B_ASCII
   \   0000003C   ........           _BLF     GUI_SetFont,??GUI_SetFont??rA
   \   00000040   000094E5           LDR      R0,[R4, #+0]
   \   00000044   A020A0E3           MOV      R2,#+160
   \   00000048   A00F80E0           ADD      R0,R0,R0, LSR #+31
   \   0000004C   C010A0E1           ASR      R1,R0,#+1
   \   00000050   0500A0E1           MOV      R0,R5
   \   00000054   ........           _BLF     GUI_DispStringHCenterAt,??GUI_DispStringHCenterAt??rA
    171          	GUI_SetFont(&GUI_Font16B_ASCII);
   \   00000058   ........           LDR      R0,??DataTable11  ;; GUI_Font16B_ASCII
   \   0000005C   ........           _BLF     GUI_SetFont,??GUI_SetFont??rA
    172          	GUI_DispStringHCenterAt("No Configuration file found.",LCDXSize/2,220);
   \   00000060   000094E5           LDR      R0,[R4, #+0]
   \   00000064   DC20A0E3           MOV      R2,#+220
   \   00000068   A00F80E0           ADD      R0,R0,R0, LSR #+31
   \   0000006C   C010A0E1           ASR      R1,R0,#+1
   \   00000070   1C0085E2           ADD      R0,R5,#+28
   \   00000074   ........           _BLF     GUI_DispStringHCenterAt,??GUI_DispStringHCenterAt??rA
    173          	TSN_Delay(3000);
   \   00000078   B800A0E3           MOV      R0,#+184
   \   0000007C   B00E80E3           ORR      R0,R0,#0xB00
   \   00000080   ........           _BLF     OS_Delay,??OS_Delay??rA
    174          }
   \   00000084   3040BDE8           POP      {R4,R5,LR}
   \   00000088   1EFF2FE1           BX       LR               ;; return

   \                                 In segment DIFUNCT, align 4, keep-with-next, root
   \   00000000                      REQUIRE ?call_ctors
   \   00000000   ........           DC32    ??__sti__routine

   \                                 In segment DATA_C, align 4, align-sorted
   \                     `?<Constant "Display unit">`:
   \   00000000   446973706C61       DC8 "Display unit"
   \              7920756E6974
   \              00          
   \   0000000D   000000             DC8 0, 0, 0
   \   00000010   4C6F6164696E       DC8 "Loading...."
   \              672E2E2E2E00
   \   0000001C   4E6F20436F6E       DC8 "No Configuration file found."
   \              666967757261
   \              74696F6E2066
   \              696C6520666F
   \              756E642E00  
   \   00000039   000000             DC8 0, 0, 0

   \                                 In segment CODE, align 4, keep-with-next
   \   static __??Code32?? __intrinsic __code __interwork __atpcs void __sti__routine()
   \                     ??__sti__routine:
   \   00000000   1C109FE5           LDR      R1,??__sti__routine_1  ;; GUI_Font16_1
   \   00000004   ........           LDR      R0,??DataTable6  ;; TDU_FONT_PW
   \   00000008   30002DE9           PUSH     {R4,R5}
   \   0000000C   3C10B1E8           LDM      R1!,{R2-R5,R12}
   \   00000010   3C10A0E8           STM      R0!,{R2-R5,R12}
   \   00000014   1C1091E8           LDM      R1,{R2-R4,R12}
   \   00000018   1C1080E8           STM      R0,{R2-R4,R12}
   \   0000001C   3000BDE8           POP      {R4,R5}
   \   00000020   1EFF2FE1           BX       LR               ;; return
   \                     ??__sti__routine_1:
   \   00000024   ........           DC32     GUI_Font16_1

   \                                 In segment CODE, align 4, keep-with-next
   \                     ??DataTable6:
   \   00000000   ........           DC32     TDU_FONT_PW

   \                                 In segment CODE, align 4, keep-with-next
   \                     ??DataTable7:
   \   00000000   ........           DC32     LCDXSize

   \                                 In segment CODE, align 4, keep-with-next
   \                     ??DataTable8:
   \   00000000   ........           DC32     `?<Constant "Display unit">`

   \                                 In segment CODE, align 4, keep-with-next
   \                     ??DataTable9:
   \   00000000   ........           DC32     bmScanjetlogo

   \                                 In segment CODE, align 4, keep-with-next
   \                     ??DataTable10:
   \   00000000   ........           DC32     GUI_Font24B_ASCII

   \                                 In segment CODE, align 4, keep-with-next
   \                     ??DataTable11:
   \   00000000   ........           DC32     GUI_Font16B_ASCII
    175          

   Maximum stack usage in bytes:

     Function                       CSTACK
     --------                       ------
     NoConfigWarning()                 12
     StartWindowSystem()               40
     TDUStartupInit()                  12
     _Vector_impl<PRogramObjectBase *, allocator<PRogramObjectBase *>>::_Make_room(PRogramObjectBase **, unsigned int)
                                       32
     __sti__routine()                   8
     _cbBkWindow(WM_MESSAGE *)          4


   Segment part sizes:

     Function/Label                 Bytes
     --------------                 -----
     _Vector_impl<PRogramObjectBase *, allocator<PRogramObjectBase *>>::_Make_room(PRogramObjectBase **, unsigned int)
                                     244
     TDU_FONT_PW                      36
     _cbBkWindow(WM_MESSAGE *)        32
     TDUStartupInit()                180
     StartWindowSystem()            1236
     NoConfigWarning()               140
     ?<Constant "Display unit">       60
     __sti__routine()                 40
     ??DataTable6                      4
     ??DataTable7                      4
     ??DataTable8                      4
     ??DataTable9                      4
     ??DataTable10                     4
     ??DataTable11                     4
      Others                         744

 
 2 624 bytes in segment CODE
    60 bytes in segment DATA_C
    36 bytes in segment DATA_Z
     4 bytes in segment DIFUNCT
    12 bytes in segment INITTAB
 
 1 656 bytes of CODE  memory (+ 984 bytes shared)
    60 bytes of CONST memory
    36 bytes of DATA  memory

Errors: none
Warnings: none
