################################################################################
#                                                                              #
#      IAR Universal Linker V4.55J/386                                         #
#                                                                              #
#           Link time     =  11/Feb/2004  22:51:41                             #
#           Target CPU    =  ARM                                               #
#           List file     =  F:\S2Prog\TXU\Release\List\StartTXU.map           #
#           Output file 1 =  F:\S2Prog\TXU\Release\Exe\StartTXU.d79            #
#                            Format: debug                                     #
#                            UBROF version 10.0.0                              #
#                            Using library modules for C-SPY (-rt)             #
#           Command line  =  F:\S2Prog\TXU\Lib\osA9LLR.r79                     #
#                            F:\S2Prog\TXU\Release\Obj\2410lib.r79             #
#                            F:\S2Prog\TXU\Release\Obj\2410slib.r79            #
#                            F:\S2Prog\TXU\Release\Obj\AIInclinometer.r79      #
#                            F:\S2Prog\TXU\Release\Obj\AILevelSwitchLidec.r79  #
#                            F:\S2Prog\TXU\Release\Obj\AIPressSensor.r79       #
#                            F:\S2Prog\TXU\Release\Obj\AIPressSensor_mA.r79    #
#                            F:\S2Prog\TXU\Release\Obj\AIPressSensor_mV.r79    #
#                            F:\S2Prog\TXU\Release\Obj\AIRadarSensor.r79       #
#                            F:\S2Prog\TXU\Release\Obj\AITempSensor.r79        #
#                            F:\S2Prog\TXU\Release\Obj\AITempSensor_Pt100.r79  #
#                            F:\S2Prog\TXU\Release\Obj\AITempSensor_Pt1000.r79 #
#                            F:\S2Prog\TXU\Release\Obj\AITempSensor_mA.r79     #
#                            F:\S2Prog\TXU\Release\Obj\AIWIngressTempSensor.r7 #
#                            9                                                 #
#                            F:\S2Prog\TXU\Release\Obj\ANPRO10Object.r79       #
#                            F:\S2Prog\TXU\Release\Obj\ANPRO10UnitInfo.r79     #
#                            F:\S2Prog\TXU\Release\Obj\API.r79                 #
#                            F:\S2Prog\TXU\Release\Obj\AnalogInput.r79         #
#                            F:\S2Prog\TXU\Release\Obj\Anpro10.r79             #
#                            F:\S2Prog\TXU\Release\Obj\ButtonBallast.r79       #
#                            F:\S2Prog\TXU\Release\Obj\ButtonCargo.r79         #
#                            F:\S2Prog\TXU\Release\Obj\ButtonCargoLinePress.r7 #
#                            9                                                 #
#                            F:\S2Prog\TXU\Release\Obj\ButtonGasSampling.r79   #
#                            F:\S2Prog\TXU\Release\Obj\ButtonHighLevel.r79     #
#                            F:\S2Prog\TXU\Release\Obj\ButtonService.r79       #
#                            F:\S2Prog\TXU\Release\Obj\ButtonSystem.r79        #
#                            F:\S2Prog\TXU\Release\Obj\ButtonTankPress.r79     #
#                            F:\S2Prog\TXU\Release\Obj\ButtonTemperature.r79   #
#                            F:\S2Prog\TXU\Release\Obj\ButtonVapourReturnPress #
#                            .r79                                              #
#                            F:\S2Prog\TXU\Release\Obj\ButtonWaterIngress.r79  #
#                            F:\S2Prog\TXU\Release\Obj\CloseWindowTimer.r79    #
#                            F:\S2Prog\TXU\Release\Obj\ConfigApp.r79           #
#                            F:\S2Prog\TXU\Release\Obj\CtrlAlarmRelay.r79      #
#                            F:\S2Prog\TXU\Release\Obj\CtrlBuzzer.r79          #
#                            F:\S2Prog\TXU\Release\Obj\CtrlHorn.r79            #
#                            F:\S2Prog\TXU\Release\Obj\CtrlLamp.r79            #
#                            F:\S2Prog\TXU\Release\Obj\CtrlLight.r79           #
#                            F:\S2Prog\TXU\Release\Obj\DIInclinometerN2.r79    #
#                            F:\S2Prog\TXU\Release\Obj\DIWaterIngressSensor.r7 #
#                            9                                                 #
#                            F:\S2Prog\TXU\Release\Obj\DigitalInput.r79        #
#                            F:\S2Prog\TXU\Release\Obj\GUICore.r79             #
#                            F:\S2Prog\TXU\Release\Obj\GUI_TOUCH_DriverAnalog. #
#                            r79                                               #
#                            F:\S2Prog\TXU\Release\Obj\GUI_X_embOS.r79         #
#                            F:\S2Prog\TXU\Release\Obj\IOUnit.r79              #
#                            F:\S2Prog\TXU\Release\Obj\IOUnitWAGO.r79          #
#                            F:\S2Prog\TXU\Release\Obj\IOUnitZB485.r79         #
#                            F:\S2Prog\TXU\Release\Obj\IOUnitZBAna.r79         #
#                            F:\S2Prog\TXU\Release\Obj\InputResponseTimer.r79  #
#                            F:\S2Prog\TXU\Release\Obj\LCD_Lib.r79             #
#                            F:\S2Prog\TXU\Release\Obj\LISTVIEW.r79            #
#                            F:\S2Prog\TXU\Release\Obj\OS_Error.r79            #
#                            F:\S2Prog\TXU\Release\Obj\PROAlarmHighLevel.r79   #
#                            F:\S2Prog\TXU\Release\Obj\PROAlarmHighPressure.r7 #
#                            9                                                 #
#                            F:\S2Prog\TXU\Release\Obj\PROAlarmHighTemp.r79    #
#                            F:\S2Prog\TXU\Release\Obj\PROAlarmLowLevel.r79    #
#                            F:\S2Prog\TXU\Release\Obj\PROAlarmLowPressure.r79 #
#                            F:\S2Prog\TXU\Release\Obj\PROAlarmLowTemp.r79     #
#                            F:\S2Prog\TXU\Release\Obj\PROAlarmMainWaterIngres #
#                            s.r79                                             #
#                            F:\S2Prog\TXU\Release\Obj\PROAlarmOverfill.r79    #
#                            F:\S2Prog\TXU\Release\Obj\PROAlarmPreWaterIngress #
#                            .r79                                              #
#                            F:\S2Prog\TXU\Release\Obj\PROAlarmSetting.r79     #
#                            F:\S2Prog\TXU\Release\Obj\PROAlarmSettingBasic.r7 #
#                            9                                                 #
#                            F:\S2Prog\TXU\Release\Obj\PROAlarmmAmpOpenLoop.r7 #
#                            9                                                 #
#                            F:\S2Prog\TXU\Release\Obj\PROAlarmmAmpShortCircui #
#                            t.r79                                             #
#                            F:\S2Prog\TXU\Release\Obj\PROAtmReference.r79     #
#                            F:\S2Prog\TXU\Release\Obj\PROBallastTank.r79      #
#                            F:\S2Prog\TXU\Release\Obj\PROCargoTank.r79        #
#                            F:\S2Prog\TXU\Release\Obj\PROControl.r79          #
#                            F:\S2Prog\TXU\Release\Obj\PRODraft.r79            #
#                            F:\S2Prog\TXU\Release\Obj\PROIOComponent.r79      #
#                            F:\S2Prog\TXU\Release\Obj\PROInclinometer.r79     #
#                            F:\S2Prog\TXU\Release\Obj\PROLinkedList.r79       #
#                            F:\S2Prog\TXU\Release\Obj\PRONode.r79             #
#                            F:\S2Prog\TXU\Release\Obj\PROProjectInfo.r79      #
#                            F:\S2Prog\TXU\Release\Obj\PROServiceTank.r79      #
#                            F:\S2Prog\TXU\Release\Obj\PROSystemData.r79       #
#                            F:\S2Prog\TXU\Release\Obj\PROTank.r79             #
#                            F:\S2Prog\TXU\Release\Obj\PROTankPressure.r79     #
#                            F:\S2Prog\TXU\Release\Obj\PROTanksystemUnit.r79   #
#                            F:\S2Prog\TXU\Release\Obj\PROTemperature.r79      #
#                            F:\S2Prog\TXU\Release\Obj\PROWaterIngress.r79     #
#                            F:\S2Prog\TXU\Release\Obj\PRogramObject.r79       #
#                            F:\S2Prog\TXU\Release\Obj\PRogramObjectBase.r79   #
#                            F:\S2Prog\TXU\Release\Obj\RTOSVECT.r79            #
#                            F:\S2Prog\TXU\Release\Obj\ReadConfig.r79          #
#                            F:\S2Prog\TXU\Release\Obj\SC2410Uart.r79          #
#                            F:\S2Prog\TXU\Release\Obj\SCADCard.r79            #
#                            F:\S2Prog\TXU\Release\Obj\SCWaterIngress.r79      #
#                            F:\S2Prog\TXU\Release\Obj\ST16554Uart.r79         #
#                            F:\S2Prog\TXU\Release\Obj\SignalConverter.r79     #
#                            F:\S2Prog\TXU\Release\Obj\StartTXU.r79            #
#                            F:\S2Prog\TXU\Release\Obj\TDUAlarmWindow.r79      #
#                            F:\S2Prog\TXU\Release\Obj\TDUAppWinSetup.r79      #
#                            F:\S2Prog\TXU\Release\Obj\TDUBallastWin.r79       #
#                            F:\S2Prog\TXU\Release\Obj\TDUButWin.r79           #
#                            F:\S2Prog\TXU\Release\Obj\TDUCargoWin.r79         #
#                            F:\S2Prog\TXU\Release\Obj\TDUConfigLoginWin.r79   #
#                            F:\S2Prog\TXU\Release\Obj\TDUConfigWin.r79        #
#                            F:\S2Prog\TXU\Release\Obj\TDUGlobalVariables.r79  #
#                            F:\S2Prog\TXU\Release\Obj\TDUKeyBoard.r79         #
#                            F:\S2Prog\TXU\Release\Obj\TDUMainWin.r79          #
#                            F:\S2Prog\TXU\Release\Obj\TDUMessageBox.r79       #
#                            F:\S2Prog\TXU\Release\Obj\TDUMessageBoxCancel.r79 #
#                            F:\S2Prog\TXU\Release\Obj\TDUNotConfiguredWin.r79 #
#                            F:\S2Prog\TXU\Release\Obj\TDUPresentWin.r79       #
#                            F:\S2Prog\TXU\Release\Obj\TDUSensorSetting.r79    #
#                            F:\S2Prog\TXU\Release\Obj\TDUServiceWin.r79       #
#                            F:\S2Prog\TXU\Release\Obj\TDUSimulator.r79        #
#                            F:\S2Prog\TXU\Release\Obj\TDUSysWin1.r79          #
#                            F:\S2Prog\TXU\Release\Obj\TDUSysWin2.r79          #
#                            F:\S2Prog\TXU\Release\Obj\TDUSysWin3.r79          #
#                            F:\S2Prog\TXU\Release\Obj\TDUSysWin4.r79          #
#                            F:\S2Prog\TXU\Release\Obj\TDUSysWin5.r79          #
#                            F:\S2Prog\TXU\Release\Obj\TDUSystemWin.r79        #
#                            F:\S2Prog\TXU\Release\Obj\TDUTankAlarmSetting.r79 #
#                            F:\S2Prog\TXU\Release\Obj\TDUTankDensitySetting.r #
#                            79                                                #
#                            F:\S2Prog\TXU\Release\Obj\TDUTankPressWin.r79     #
#                            F:\S2Prog\TXU\Release\Obj\TDUTempGraphWin.r79     #
#                            F:\S2Prog\TXU\Release\Obj\TDUTempWin.r79          #
#                            F:\S2Prog\TXU\Release\Obj\TDUUserManual.r79       #
#                            F:\S2Prog\TXU\Release\Obj\TDUWaterIngressWin.r79  #
#                            F:\S2Prog\TXU\Release\Obj\TPCAlarmWindow.r79      #
#                            F:\S2Prog\TXU\Release\Obj\TPCWindow.r79           #
#                            F:\S2Prog\TXU\Release\Obj\TSNAsyncReceiver.r79    #
#                            F:\S2Prog\TXU\Release\Obj\TSNAsyncsender.r79      #
#                            F:\S2Prog\TXU\Release\Obj\TSNConfigInfo.r79       #
#                            F:\S2Prog\TXU\Release\Obj\TSNConfigString.r79     #
#                            F:\S2Prog\TXU\Release\Obj\TSNConfigUtilities.r79  #
#                            F:\S2Prog\TXU\Release\Obj\TSNGlobalVariables.r79  #
#                            F:\S2Prog\TXU\Release\Obj\TSNLanguage.r79         #
#                            F:\S2Prog\TXU\Release\Obj\TSNLibrarian.r79        #
#                            F:\S2Prog\TXU\Release\Obj\TSNMessageQ.r79         #
#                            F:\S2Prog\TXU\Release\Obj\TSNString.r79           #
#                            F:\S2Prog\TXU\Release\Obj\TSNTasks.r79            #
#                            F:\S2Prog\TXU\Release\Obj\TSNTimer.r79            #
#                            F:\S2Prog\TXU\Release\Obj\TSNUart.r79             #
#                            F:\S2Prog\TXU\Release\Obj\TSNUtilities.r79        #
#                            "F:\S2Prog\TXU\Release\Obj\TXU_ RTOSInit.r79"     #
#                            F:\S2Prog\TXU\Release\Obj\TanksystemPanelControll #
#                            er.r79                                            #
#                            F:\S2Prog\TXU\Release\Obj\TsnTable.r79            #
#                            F:\S2Prog\TXU\Release\Obj\Txu_HW_Init.r79         #
#                            F:\S2Prog\TXU\Release\Obj\Txu_cstartup.r79        #
#                            F:\S2Prog\TXU\Release\Obj\UserIRQ.r79             #
#                            F:\S2Prog\TXU\Release\Obj\WindowsSystem.r79       #
#                            F:\S2Prog\TXU\Release\Obj\abort.r79               #
#                            F:\S2Prog\TXU\Release\Obj\close.r79               #
#                            F:\S2Prog\TXU\Release\Obj\cppinit.r79             #
#                            F:\S2Prog\TXU\Release\Obj\environ.r79             #
#                            F:\S2Prog\TXU\Release\Obj\guitask.r79             #
#                            F:\S2Prog\TXU\Release\Obj\low_level_init.r79      #
#                            F:\S2Prog\TXU\Release\Obj\lseek.r79               #
#                            F:\S2Prog\TXU\Release\Obj\mmu.r79                 #
#                            F:\S2Prog\TXU\Release\Obj\mx29LV160TB.r79         #
#                            F:\S2Prog\TXU\Release\Obj\open.r79                #
#                            F:\S2Prog\TXU\Release\Obj\read.r79                #
#                            F:\S2Prog\TXU\Release\Obj\readchar.r79            #
#                            F:\S2Prog\TXU\Release\Obj\remove.r79              #
#                            F:\S2Prog\TXU\Release\Obj\rename.r79              #
#                            F:\S2Prog\TXU\Release\Obj\segment_init.r79        #
#                            F:\S2Prog\TXU\Release\Obj\system.r79              #
#                            F:\S2Prog\TXU\Release\Obj\time.r79                #
#                            "F:\S2Prog\TXU\Release\Obj\ts norway16bit.r79"    #
#                            F:\S2Prog\TXU\Release\Obj\write.r79               #
#                            F:\S2Prog\TXU\Release\Obj\writechar.r79           #
#                            F:\S2Prog\TXU\TargetDebug\Lib\GUI_Lib.r79 -o      #
#                            F:\S2Prog\TXU\Release\Exe\StartTXU.d79 -rt -l     #
#                            F:\S2Prog\TXU\Release\List\StartTXU.map -xes      #
#                            "-IF:\Program Files\IAR Systems\Embedded Workbenc #
#                            h 3.2\ARM\LIB\"                                   #
#                            -IF:\S2Prog\TXU\LIB\ -f                           #
#                            F:\S2Prog\TXU\LINK\StartTXU_lnk.xcl (-carm        #
#                            -Z(CODE)INTVEC=30000000-30000100                  #
#                            -Z(CODE)ICODE,DIFUNCT=30000101-307FFFFF           #
#                            -Z(CODE)SWITAB=30000101-307FFFFF                  #
#                            -Z(CODE)NEARFUNC_T,NEARFUNC_A=30000101-307FFFFF   #
#                            -Z(CODE)FARFUNC_T,FARFUNC_A=30000101-307FFFFF     #
#                            -Z(CONST)INITTAB,HUGE_ID,HUGE_C=30000101-307FFFFF #
#                            -Z(CONST)NEARFUNC_T_ID,NEARFUNC_A_ID=30000101-307 #
#                            FFFFF                                             #
#                            -Z(CONST)FARFUNC_T_ID,FARFUNC_A_ID=30000101-307FF #
#                            FFF                                               #
#                            -Z(CODE)CHECKSUM=30000101-307FFFFF                #
#                            -Z(DATA)HUGE_I,HUGE_Z=30A00000-31AFFFFF           #
#                            -Z(DATA)NEARFUNC_T_I,NEARFUNC_A_I=30A00000-31AFFF #
#                            FF                                                #
#                            -Z(DATA)FARFUNC_T_I,FARFUNC_A_I=30A00000-31AFFFFF #
#                            -QNEARFUNC_T_I=NEARFUNC_T_ID                      #
#                            -QNEARFUNC_A_I=NEARFUNC_A_ID                      #
#                            -QFARFUNC_T_I=FARFUNC_T_ID                        #
#                            -QFARFUNC_A_I=FARFUNC_A_ID                        #
#                            -Z(DATA)CSTACK+4096=30A00000-31AFFFFF             #
#                            -Z(DATA)IRQ_STACK+256=30A00000-31AFFFFF           #
#                            -Z(DATA)HEAP+1000000=30A00000-31AFFFFF            #
#                            -Z(DATA)HUGE_N=30A00000-31AFFFFF) -C              #
#                            "F:\Program Files\IAR Systems\Embedded Workbench  #
#                            3.2\ARM\LIB\dl4tpainl8.r79"                       #
#                                                                              #
#                        Copyright 1987-2003 IAR Systems. All rights reserved. #
################################################################################





                ****************************************
                *                                      *
                *           CROSS REFERENCE            *
                *                                      *
                ****************************************

       Program entry at :           30000288  Relocatable, from module : ?CSTARTUP




                ****************************************
                *                                      *
                *            RUNTIME MODEL             *
                *                                      *
                ****************************************

  ARMv4M        = USED
  ARMv4T        = USED
  StackAlign4   = USED
  StackAlign8   = USED
  __code_model  = *
  __cpu_mode    = __pcs__interwork
  __data_model  = absolute
  __endian      = little
  __rt_version  = 5
  __thumb_aware = enabled

                ****************************************
                *                                      *
                *              ENTRY LIST              *
                *                                      *
                ****************************************

RTOS ( F:\S2Prog\TXU\Lib\osA9LLR.r79 )
  OS_Start                                   30000664 
  OS_SwitchFromInt                           300006B0 
  OS_Switch                                  30000638 
  OS_GetSysStackBase                         30000730 
  OS_GetSysStackSize                         30000738 
  OS_GetIntStackBase                         30000748 
  OS_GetIntStackSize                         30000750 
  OS_GetSP                                   30000760 
OS_ActivateFirstPtr ( F:\S2Prog\TXU\Lib\osA9LLR.r79 )
  OS_ActivateFirstPtr                        30021DE4 
  OS_ActivateFirstPtr::??rA?FARFUNC_A
                                             30021DE4 
OS_GetPrio ( F:\S2Prog\TXU\Lib\osA9LLR.r79 )
  OS_GetPriority                             30021E68 
  OS_GetPriority::??rA?FARFUNC_A             30021E68 
OS_SetRxCallback ( F:\S2Prog\TXU\Lib\osA9LLR.r79 )
  OS_COM_cbRx                                30A062C4 
  OS_SetRxCallback                           30021E84 
  OS_SetRxCallback::??rA?FARFUNC_A           30021E84 
OSCOM ( F:\S2Prog\TXU\Lib\osA9LLR.r79 )
  OS_COM_OutBufferCnt                        30A062C8 
  OS_COM_abOutBuffer                         30A062CC 
  OS_COM_StoreInU8                           30022028 
  OS_COM_StoreInU8::??rA?FARFUNC_A           30022028 
  OS_COM_ClearIn                             3002203C 
  OS_COM_ClearIn::??rA?FARFUNC_A             3002203C 
  OS_COM_GetInU8                             30022054 
  OS_COM_GetInU8::??rA?FARFUNC_A             30022054 
  OS_COM_GetInU16                            30022074 
  OS_COM_GetInU16::??rA?FARFUNC_A            30022074 
  OS_COM_GetInU32                            30022090 
  OS_COM_GetInU32::??rA?FARFUNC_A            30022090 
  OS_COM_StoreOutU8                          300220AC 
  OS_COM_StoreOutU8::??rA?FARFUNC_A
                                             300220AC 
  OS_COM_StoreOutU16                         300220E0 
  OS_COM_StoreOutU16::??rA?FARFUNC_A
                                             300220E0 
  OS_COM_StoreOutU32                         30022100 
  OS_COM_StoreOutU32::??rA?FARFUNC_A
                                             30022100 
  OS_COM_GetOutU8                            30022124 
  OS_COM_GetOutU8::??rA?FARFUNC_A            30022124 
  OS_COM_EvaPacket                           30022138 
  OS_COM_EvaPacket::??rA?FARFUNC_A           30022138 
  OS_COM_StoreOutString                      30021E9C   LOCAL
  ExecGetTaskInfo                            30021F0C   LOCAL
OSCOM1 ( F:\S2Prog\TXU\Lib\osA9LLR.r79 )
  OS_COM_StringLen                           30A6BAB0 
  OS_TxActive                                30A6BAB1 
  OS_COM_pac                                 30A063A0 
  OS_COM_pTask                               30A063A4 
OSCOMRxTx1 ( F:\S2Prog\TXU\Lib\osA9LLR.r79 )
  OS_OnRx                                    30022464 
  OS_OnRx::??rA?FARFUNC_A                    30022464 
  OS_OnTx                                    30022578 
  OS_OnTx::??rA?FARFUNC_A                    30022578 
  OS_COM_StartSend                           30022588 
  OS_COM_StartSend::??rA?FARFUNC_A           30022588 
  _OnTx                                      3002225C   LOCAL
OSDUMMY ( F:\S2Prog\TXU\Lib\osA9LLR.r79 )
  OS_Dummy                                   30A063A8 
OSEVENS ( F:\S2Prog\TXU\Lib\osA9LLR.r79 )
  OS_SignalEvent                             300225C0 
  OS_SignalEvent::??rA?FARFUNC_A             300225C0 
OSEVENT ( F:\S2Prog\TXU\Lib\osA9LLR.r79 )
  OS_WaitEventTimed                          30022618 
  OS_WaitEventTimed::??rA?FARFUNC_A
                                             30022618 
OSGLOBAL ( F:\S2Prog\TXU\Lib\osA9LLR.r79 )
  OS_Time                                    30A063AC 
  OS_TimeDex                                 30A063B0 
  OS_Counters                                30A063B4 
  OS_IntMSInc                                30A6BAB8 
  OS_TimeSlice                               30A6BAB9 
  OS_TimeSliceAtStart                        30A6BABA 
  OS_Pending                                 30A6BABB 
  OS_Status                                  30A6BABC 
  OS_pTask                                   30A063B8 
  OS_pCurrentTask                            30A063BC 
  OS_pActiveTask                             30A063C0 
  OS_pTimer                                  30A063C4 
  OS_pCurrentTimer                           30A063C8 
OSGMC1 ( F:\S2Prog\TXU\Lib\osA9LLR.r79 )
  OS_GetMailCond1                            300226A8 
  OS_GetMailCond1::??rA?FARFUNC_A            300226A8 
OSINFO ( F:\S2Prog\TXU\Lib\osA9LLR.r79 )
  OS_GetCPU                                  30022758 
  OS_GetCPU::??rA?FARFUNC_A                  30022758 
  OS_GetLibName                              30022764 
  OS_GetLibName::??rA?FARFUNC_A              30022764 
  OS_GetTimeSliceRem                         30022770 
  OS_GetTimeSliceRem::??rA?FARFUNC_A
                                             30022770 
  OS_GetTaskName                             30022798 
  OS_GetTaskName::??rA?FARFUNC_A             30022798 
OSKERN ( F:\S2Prog\TXU\Lib\osA9LLR.r79 )
  OS_LeaveRegion                             300227A4 
  OS_LeaveRegion::??rA?FARFUNC_A             300227A4 
  OS_MakeTaskReady                           300227F8 
  OS_MakeTaskReady::??rA?FARFUNC_A           300227F8 
  OS_InsertTask                              300228D4 
  OS_InsertTask::??rA?FARFUNC_A              300228D4 
  OS_CreateTask_R                            30022958 
  OS_CreateTask_R::??rA?FARFUNC_A            30022958 
  OS_ChangeTask                              30022C08 
  OS_ChangeTask::??rA?FARFUNC_A              30022C08 
  OS_UpdateAT                                30022D0C 
  OS_UpdateAT::??rA?FARFUNC_A                30022D0C 
  OS_Deactivated                             30022DD4 
  OS_Deactivated::??rA?FARFUNC_A             30022DD4 
  OS_InitKern                                30022E38 
  OS_InitKern::??rA?FARFUNC_A                30022E38 
  OS_DelayUntil                              30022E7C 
  OS_DelayUntil::??rA?FARFUNC_A              30022E7C 
  OS_Delay                                   30022EDC 
  OS_Delay::??rA?FARFUNC_A                   30022EDC 
  OS_Switch::??rA?FARFUNC_A                  30022EF8 
  CheckDelays                                300229E4   LOCAL
  OS_DoRR                                    30022B28   LOCAL
OSMAIL ( F:\S2Prog\TXU\Lib\osA9LLR.r79 )
  OS_NotifyMBNF                              30022F04 
  OS_NotifyMBNF::??rA?FARFUNC_A              30022F04 
  OS_NotifyMBNE                              30022FAC 
  OS_NotifyMBNE::??rA?FARFUNC_A              30022FAC 
  OS_CreateMB                                30023054 
  OS_CreateMB::??rA?FARFUNC_A                30023054 
OSPM1 ( F:\S2Prog\TXU\Lib\osA9LLR.r79 )
  OS_PutMail1                                30023078 
  OS_PutMail1::??rA?FARFUNC_A                30023078 
OSPMC1 ( F:\S2Prog\TXU\Lib\osA9LLR.r79 )
  OS_PutMailCond1                            30023144 
  OS_PutMailCond1::??rA?FARFUNC_A            30023144 
OSQ ( F:\S2Prog\TXU\Lib\osA9LLR.r79 )
  OS_pQHead                                  30A063CC 
  OS_Q_Create                                300231E8 
  OS_Q_Create::??rA?FARFUNC_A                300231E8 
  OS_Q_Put                                   30023244 
  OS_Q_Put::??rA?FARFUNC_A                   30023244 
  OS_Q_Purge                                 30023390 
  OS_Q_Purge::??rA?FARFUNC_A                 30023390 
OSQGMC ( F:\S2Prog\TXU\Lib\osA9LLR.r79 )
OSQGPC ( F:\S2Prog\TXU\Lib\osA9LLR.r79 )
  OS_Q_GetPtrCond                            300233D4 
  OS_Q_GetPtrCond::??rA?FARFUNC_A            300233D4 
OSRSEM ( F:\S2Prog\TXU\Lib\osA9LLR.r79 )
  OS_CreateRSema                             30023424 
  OS_CreateRSema::??rA?FARFUNC_A             30023424 
  OS_Use                                     30023434 
  OS_Use::??rA?FARFUNC_A                     30023434 
  OS_Unuse                                   300234D8 
  OS_Unuse::??rA?FARFUNC_A                   300234D8 
OSSEND ( F:\S2Prog\TXU\Lib\osA9LLR.r79 )
  OS_SendString                              30023578 
  OS_SendString::??rA?FARFUNC_A              30023578 
OSSETP ( F:\S2Prog\TXU\Lib\osA9LLR.r79 )
  OS_SetPriority                             30023668 
  OS_SetPriority::??rA?FARFUNC_A             30023668 
OSTICK ( F:\S2Prog\TXU\Lib\osA9LLR.r79 )
  OS_TickHandler                             300236E8 
  OS_TickHandler::??rA?FARFUNC_A             300236E8 
OSTIME ( F:\S2Prog\TXU\Lib\osA9LLR.r79 )
  OS_CreateTimer                             300237E4 
  OS_CreateTimer::??rA?FARFUNC_A             300237E4 
  OS_StopTimer                               3002380C 
  OS_StopTimer::??rA?FARFUNC_A               3002380C 
OSTimeD ( F:\S2Prog\TXU\Lib\osA9LLR.r79 )
  OS_DeleteTimer                             30023888 
  OS_DeleteTimer::??rA?FARFUNC_A             30023888 
2410lib ( F:\S2Prog\TXU\Release\Obj\2410lib.r79 )
  Port_Init                                  3002395C 
  Port_Init::??rA?FARFUNC_A                  3002395C 
  ChangeMPllValue                            30023B30 
  ChangeMPllValue::??rA?FARFUNC_A            30023B30 
  ChangeClockDivider                         30023B40 
  ChangeClockDivider::??rA?FARFUNC_A
                                             30023B40 
  ??rA??div32_a?FARFUNC_A                    30023B80 
  __longToDouble::??rA?FARFUNC_A             30023B8C 
  __dDiv::??rA?FARFUNC_A                     30023B98 
  __dAdd::??rA?FARFUNC_A                     30023BA4 
  __doubleToLong::??rA?FARFUNC_A             30023BB0 
  _Stoul::??rA?FARFUNC_A                     30023BBC 
  vsprintf::??rA?FARFUNC_A                   30023BC8 
  MMU_SetAsyncBusMode::??rA?FARFUNC_A
                                             30023BD4 
  MMU_SetFastBusMode::??rA?FARFUNC_A
                                             30023BE0 
  ?init?tab?HUGE_I                           300631DC 
  ?init?tab?HUGE_Z                           300631E8 
  __sti__routine()                           30023898   LOCAL
2410slib ( F:\S2Prog\TXU\Release\Obj\2410slib.r79 )
  SET_IF                                     30000104 
  WR_IF                                      30000118 
  CLR_IF                                     30000120 
  MMU_EnableICache                           30000130 
  MMU_DisableICache                          30000140 
  MMU_EnableDCache                           30000150 
  MMU_DisableDCache                          30000160 
  MMU_EnableAlignFault                       30000170 
  MMU_DisableAlignFault                      30000180 
  MMU_EnableMMU                              30000190 
  MMU_DisableMMU                             300001A0 
  MMU_SetFastBusMode                         300001B0 
  MMU_SetAsyncBusMode                        300001C0 
  MMU_SetTTBase                              300001D0 
  MMU_SetDomain                              300001D8 
  MMU_InvalidateIDCache                      300001E0 
  MMU_InvalidateICache                       300001E8 
  MMU_InvalidateICacheMVA                    300001F0 
  MMU_PrefetchICacheMVA                      300001F8 
  MMU_InvalidateDCache                       30000200 
  MMU_InvalidateDCacheMVA                    30000208 
  MMU_CleanDCacheMVA                         30000210 
  MMU_CleanInvalidateDCacheMVA               30000218 
  MMU_CleanDCacheIndex                       30000220 
  MMU_CleanInvalidateDCacheIndex             30000228 
  MMU_WaitForInterrupt                       30000230 
  MMU_InvalidateTLB                          30000238 
  MMU_InvalidateITLB                         30000240 
  MMU_InvalidateITLBMVA                      30000248 
  MMU_InvalidateDTLB                         30000250 
  MMU_InvalidateDTLBMVA                      30000258 
  MMU_SetDCacheLockdownBase                  30000260 
  MMU_SetICacheLockdownBase                  30000268 
  MMU_SetDTLBLockdown                        30000270 
  MMU_SetITLBLockdown                        30000278 
  MMU_SetProcessId                           30000280 
AIInclinometer ( F:\S2Prog\TXU\Release\Obj\AIInclinometer.r79 )
  string::append(_Myt const &, size_type, size_type)
                                             30023BEC 
  string::append(_Myt const &, size_type, size_type)::??rA?FARFUNC_A
                                             30023BEC 
  string::append(char const *, size_type)::??rA?FARFUNC_A
                                             30023CD8 
  string::append(char const *, size_type)
                                             30023CD8 
  string::assign(_Myt const &, size_type, size_type)
                                             30023DFC 
  string::assign(_Myt const &, size_type, size_type)::??rA?FARFUNC_A
                                             30023DFC 
  string::erase(size_type, size_type)
                                             30023EE4 
  string::erase(size_type, size_type)::??rA?FARFUNC_A
                                             30023EE4 
  string::_Copy(size_type, size_type)
                                             30023F88 
  string::_Copy(size_type, size_type)::??rA?FARFUNC_A
                                             30023F88 
  string::_Grow(size_type, bool)             30024054 
  string::_Grow(size_type, bool)::??rA?FARFUNC_A
                                             30024054 
  string::_Tidy(bool, size_type)             300240F8 
  string::_Tidy(bool, size_type)::??rA?FARFUNC_A
                                             300240F8 
  operator+(string const &, string const &)
                                             30024168 
  operator+(string const &, string const &)::??rA?FARFUNC_A
                                             30024168 
  operator new(unsigned long)::??rA?FARFUNC_A
                                             300242C4 
  _String_base::_Xran() const::??rA?FARFUNC_A
                                             300242D0 
  _String_base::_Xlen() const::??rA?FARFUNC_A
                                             300242DC 
  memmove::??rA?FARFUNC_A                    300242E8 
  ??rA??divu32_a?FARFUNC_A                   300242F4 
  operator delete(void *)::??rA?FARFUNC_A
                                             30024300 
  __sti__routine()                           30024200   LOCAL
AILevelSwitchLidec ( F:\S2Prog\TXU\Release\Obj\AILevelSwitchLidec.r79 )
  __sti__routine()                           3002430C   LOCAL
AIPressSensor ( F:\S2Prog\TXU\Release\Obj\AIPressSensor.r79 )
  operator+(string const &, char const *)::??rA?FARFUNC_A
                                             300243D0 
  operator+(string const &, char const *)
                                             300243D0 
  AIPressSensor::AIPressSensor()             3002453C 
  AIPressSensor::AIPressSensor()::??rA?FARFUNC_A
                                             3002453C 
  AIPressSensor::~AIPressSensor()            30024570 
  AIPressSensor::~AIPressSensor()::??rA?FARFUNC_A
                                             30024570 
  AIPressSensor::MakeConfigString(TSNConfigString &)
                                             300245A0 
  AIPressSensor::MakeConfigString(TSNConfigString &)::??rA?FARFUNC_A
                                             300245A0 
  AIPressSensor::LoadConfigString(TSNConfigString &)
                                             300247E0 
  AIPressSensor::LoadConfigString(TSNConfigString &)::??rA?FARFUNC_A
                                             300247E0 
  AIPressSensor::PutValue(int, TSNString, bool)
                                             30024A64 
  AIPressSensor::PutValue(int, TSNString, bool)::??rA?FARFUNC_A
                                             30024A64 
  AIPressSensor::GetValue(int, float &, int &, int &)
                                             30024C3C 
  AIPressSensor::GetValue(int, float &, int &, int &)::??rA?FARFUNC_A
                                             30024C3C 
  AIPressSensor::GetStringValue(int, TSNString &)
                                             30024D18 
  AIPressSensor::GetStringValue(int, TSNString &)::??rA?FARFUNC_A
                                             30024D18 
  AIPressSensor::PutFloatValue(int, float)
                                             30024D28 
  AIPressSensor::PutFloatValue(int, float)::??rA?FARFUNC_A
                                             30024D28 
  AIPressSensor::__vtbl                      300694B8 
  __sti__routine()                           30024478   LOCAL
AIPressSensor_mA ( F:\S2Prog\TXU\Release\Obj\AIPressSensor_mA.r79 )
  AIPressSensor_mA::new AIPressSensor_mA()
                                             30024DFC 
  AIPressSensor_mA::new AIPressSensor_mA()::??rA?FARFUNC_A
                                             30024DFC 
  AIPressSensor_mA::AIPressSensor_mA()
                                             30024E24 
  AIPressSensor_mA::AIPressSensor_mA()::??rA?FARFUNC_A
                                             30024E24 
  AIPressSensor_mA::~AIPressSensor_mA()
                                             30024EB0 
  AIPressSensor_mA::~AIPressSensor_mA()::??rA?FARFUNC_A
                                             30024EB0 
  AIPressSensor_mA::PutValue(int, TSNString, bool)
                                             30024EF4 
  AIPressSensor_mA::PutValue(int, TSNString, bool)::??rA?FARFUNC_A
                                             30024EF4 
  AIPressSensor_mA::GetValue(int, float &, int &, int &)
                                             30024F70 
  AIPressSensor_mA::GetValue(int, float &, int &, int &)::??rA?FARFUNC_A
                                             30024F70 
  AIPressSensor_mA::GetStringValue(int, TSNString &)
                                             30024F8C 
  AIPressSensor_mA::GetStringValue(int, TSNString &)::??rA?FARFUNC_A
                                             30024F8C 
  AIPressSensor_mA::PutFloatValue(int, float)
                                             30024F9C 
  AIPressSensor_mA::PutFloatValue(int, float)::??rA?FARFUNC_A
                                             30024F9C 
  AIPressSensor_mA::ReceiveData(unsigned char *)
                                             30024FAC 
  AIPressSensor_mA::ReceiveData(unsigned char *)::??rA?FARFUNC_A
                                             30024FAC 
  AIPressSensor_mA::SendData(unsigned short)
                                             3002516C 
  AIPressSensor_mA::SendData(unsigned short)::??rA?FARFUNC_A
                                             3002516C 
  AIPressSensor_mA::__vtbl                   30069500 
  __longToFloat::??rA?FARFUNC_A              300252CC 
  __sti__routine()                           30024D38   LOCAL
AIPressSensor_mV ( F:\S2Prog\TXU\Release\Obj\AIPressSensor_mV.r79 )
  AIPressSensor_mV::new AIPressSensor_mV()
                                             3002539C 
  AIPressSensor_mV::new AIPressSensor_mV()::??rA?FARFUNC_A
                                             3002539C 
  AIPressSensor_mV::~AIPressSensor_mV()
                                             300253D8 
  AIPressSensor_mV::~AIPressSensor_mV()::??rA?FARFUNC_A
                                             300253D8 
  AIPressSensor_mV::PutValue(int, TSNString, bool)
                                             30025408 
  AIPressSensor_mV::PutValue(int, TSNString, bool)::??rA?FARFUNC_A
                                             30025408 
  AIPressSensor_mV::GetValue(int, float &, int &, int &)
                                             30025484 
  AIPressSensor_mV::GetValue(int, float &, int &, int &)::??rA?FARFUNC_A
                                             30025484 
  AIPressSensor_mV::GetStringValue(int, TSNString &)
                                             300254A0 
  AIPressSensor_mV::GetStringValue(int, TSNString &)::??rA?FARFUNC_A
                                             300254A0 
  AIPressSensor_mV::PutFloatValue(int, float)
                                             300254B0 
  AIPressSensor_mV::PutFloatValue(int, float)::??rA?FARFUNC_A
                                             300254B0 
  AIPressSensor_mV::__vtbl                   30069548 
  __sti__routine()                           300252D8   LOCAL
AIRadarSensor ( F:\S2Prog\TXU\Release\Obj\AIRadarSensor.r79 )
  AIRadarSensor::new AIRadarSensor()
                                             30025584 
  AIRadarSensor::new AIRadarSensor()::??rA?FARFUNC_A
                                             30025584 
  AIRadarSensor::AIRadarSensor()             300255AC 
  AIRadarSensor::AIRadarSensor()::??rA?FARFUNC_A
                                             300255AC 
  AIRadarSensor::~AIRadarSensor()            300255D8 
  AIRadarSensor::~AIRadarSensor()::??rA?FARFUNC_A
                                             300255D8 
  AIRadarSensor::MakeConfigString(TSNConfigString &)
                                             30025608 
  AIRadarSensor::MakeConfigString(TSNConfigString &)::??rA?FARFUNC_A
                                             30025608 
  AIRadarSensor::LoadConfigString(TSNConfigString &)
                                             30025864 
  AIRadarSensor::LoadConfigString(TSNConfigString &)::??rA?FARFUNC_A
                                             30025864 
  AIRadarSensor::PutValue(int, TSNString, bool)
                                             30025AF8 
  AIRadarSensor::PutValue(int, TSNString, bool)::??rA?FARFUNC_A
                                             30025AF8 
  AIRadarSensor::GetValue(int, float &, int &, int &)
                                             30025C98 
  AIRadarSensor::GetValue(int, float &, int &, int &)::??rA?FARFUNC_A
                                             30025C98 
  AIRadarSensor::GetStringValue(int, TSNString &)
                                             30025D2C 
  AIRadarSensor::GetStringValue(int, TSNString &)::??rA?FARFUNC_A
                                             30025D2C 
  AIRadarSensor::PutFloatValue(int, float)
                                             30025D3C 
  AIRadarSensor::PutFloatValue(int, float)::??rA?FARFUNC_A
                                             30025D3C 
  AIRadarSensor::__vtbl                      30069590 
  __sti__routine()                           300254C0   LOCAL
AITempSensor ( F:\S2Prog\TXU\Release\Obj\AITempSensor.r79 )
  AITempSensor::AITempSensor()               30025E10 
  AITempSensor::AITempSensor()::??rA?FARFUNC_A
                                             30025E10 
  AITempSensor::~AITempSensor()              30025E44 
  AITempSensor::~AITempSensor()::??rA?FARFUNC_A
                                             30025E44 
  AITempSensor::MakeConfigString(TSNConfigString &)
                                             30025E74 
  AITempSensor::MakeConfigString(TSNConfigString &)::??rA?FARFUNC_A
                                             30025E74 
  AITempSensor::LoadConfigString(TSNConfigString &)
                                             300260D0 
  AITempSensor::LoadConfigString(TSNConfigString &)::??rA?FARFUNC_A
                                             300260D0 
  AITempSensor::PutValue(int, TSNString, bool)
                                             30026364 
  AITempSensor::PutValue(int, TSNString, bool)::??rA?FARFUNC_A
                                             30026364 
  AITempSensor::GetValue(int, float &, int &, int &)
                                             3002650C 
  AITempSensor::GetValue(int, float &, int &, int &)::??rA?FARFUNC_A
                                             3002650C 
  AITempSensor::GetStringValue(int, TSNString &)
                                             300265A0 
  AITempSensor::GetStringValue(int, TSNString &)::??rA?FARFUNC_A
                                             300265A0 
  AITempSensor::PutFloatValue(int, float)
                                             300265B0 
  AITempSensor::PutFloatValue(int, float)::??rA?FARFUNC_A
                                             300265B0 
  AITempSensor::CableCorrection(short &)
                                             300265C0 
  AITempSensor::CableCorrection(short &)::??rA?FARFUNC_A
                                             300265C0 
  AITempSensor::__vtbl                       300695D8 
  __sti__routine()                           30025D4C   LOCAL
AITempSensor_Pt100 ( F:\S2Prog\TXU\Release\Obj\AITempSensor_Pt100.r79 )
  AITempSensor_Pt100::new AITempSensor_Pt100()
                                             3002668C 
  AITempSensor_Pt100::new AITempSensor_Pt100()::??rA?FARFUNC_A
                                             3002668C 
  AITempSensor_Pt100::~AITempSensor_Pt100()
                                             300266C8 
  AITempSensor_Pt100::~AITempSensor_Pt100()::??rA?FARFUNC_A
                                             300266C8 
  AITempSensor_Pt100::CableCorrection(short &)
                                             300266F8 
  AITempSensor_Pt100::CableCorrection(short &)::??rA?FARFUNC_A
                                             300266F8 
  AITempSensor_Pt100::PutValue(int, TSNString, bool)
                                             30026754 
  AITempSensor_Pt100::PutValue(int, TSNString, bool)::??rA?FARFUNC_A
                                             30026754 
  AITempSensor_Pt100::GetValue(int, float &, int &, int &)
                                             300267D0 
  AITempSensor_Pt100::GetValue(int, float &, int &, int &)::??rA?FARFUNC_A
                                             300267D0 
  AITempSensor_Pt100::GetStringValue(int, TSNString &)
                                             300267EC 
  AITempSensor_Pt100::GetStringValue(int, TSNString &)::??rA?FARFUNC_A
                                             300267EC 
  AITempSensor_Pt100::PutFloatValue(int, float)
                                             300267FC 
  AITempSensor_Pt100::PutFloatValue(int, float)::??rA?FARFUNC_A
                                             300267FC 
  AITempSensor_Pt100::__vtbl                 30069624 
  __floatToDouble::??rA?FARFUNC_A            3002680C 
  __dMul::??rA?FARFUNC_A                     30026818 
  __sti__routine()                           300265C8   LOCAL
AITempSensor_Pt1000 ( F:\S2Prog\TXU\Release\Obj\AITempSensor_Pt1000.r79 )
  AITempSensor_Pt1000::new AITempSensor_Pt1000()
                                             300268E8 
  AITempSensor_Pt1000::new AITempSensor_Pt1000()::??rA?FARFUNC_A
                                             300268E8 
  AITempSensor_Pt1000::new AITempSensor_Pt1000(AnalogInput *)::??rA?FARFUNC_A
                                             30026924 
  AITempSensor_Pt1000::new AITempSensor_Pt1000(AnalogInput *)
                                             30026924 
  AITempSensor_Pt1000::AITempSensor_Pt1000(AnalogInput *)::??rA?FARFUNC_A
                                             30026954 
  AITempSensor_Pt1000::AITempSensor_Pt1000(AnalogInput *)
                                             30026954 
  AITempSensor_Pt1000::~AITempSensor_Pt1000()
                                             30026A1C 
  AITempSensor_Pt1000::~AITempSensor_Pt1000()::??rA?FARFUNC_A
                                             30026A1C 
  AITempSensor_Pt1000::CableCorrection(short &)
                                             30026A4C 
  AITempSensor_Pt1000::CableCorrection(short &)::??rA?FARFUNC_A
                                             30026A4C 
  AITempSensor_Pt1000::PutValue(int, TSNString, bool)
                                             30026AA8 
  AITempSensor_Pt1000::PutValue(int, TSNString, bool)::??rA?FARFUNC_A
                                             30026AA8 
  AITempSensor_Pt1000::GetValue(int, float &, int &, int &)
                                             30026B24 
  AITempSensor_Pt1000::GetValue(int, float &, int &, int &)::??rA?FARFUNC_A
                                             30026B24 
  AITempSensor_Pt1000::GetStringValue(int, TSNString &)
                                             30026B40 
  AITempSensor_Pt1000::GetStringValue(int, TSNString &)::??rA?FARFUNC_A
                                             30026B40 
  AITempSensor_Pt1000::PutFloatValue(int, float)
                                             30026B50 
  AITempSensor_Pt1000::PutFloatValue(int, float)::??rA?FARFUNC_A
                                             30026B50 
  AITempSensor_Pt1000::__vtbl                30069670 
  __sti__routine()                           30026824   LOCAL
AITempSensor_mA ( F:\S2Prog\TXU\Release\Obj\AITempSensor_mA.r79 )
  AITempSensor_mA::new AITempSensor_mA()
                                             30026C24 
  AITempSensor_mA::new AITempSensor_mA()::??rA?FARFUNC_A
                                             30026C24 
  AITempSensor_mA::~AITempSensor_mA()
                                             30026C60 
  AITempSensor_mA::~AITempSensor_mA()::??rA?FARFUNC_A
                                             30026C60 
  AITempSensor_mA::PutValue(int, TSNString, bool)
                                             30026C90 
  AITempSensor_mA::PutValue(int, TSNString, bool)::??rA?FARFUNC_A
                                             30026C90 
  AITempSensor_mA::GetValue(int, float &, int &, int &)
                                             30026D0C 
  AITempSensor_mA::GetValue(int, float &, int &, int &)::??rA?FARFUNC_A
                                             30026D0C 
  AITempSensor_mA::GetStringValue(int, TSNString &)
                                             30026D28 
  AITempSensor_mA::GetStringValue(int, TSNString &)::??rA?FARFUNC_A
                                             30026D28 
  AITempSensor_mA::PutFloatValue(int, float)
                                             30026D38 
  AITempSensor_mA::PutFloatValue(int, float)::??rA?FARFUNC_A
                                             30026D38 
  AITempSensor_mA::__vtbl                    300696BC 
  __sti__routine()                           30026B60   LOCAL
AIWIngressTempSensor ( F:\S2Prog\TXU\Release\Obj\AIWIngressTempSensor.r79 )
  AIWIngressTempSensor::new AIWIngressTempSensor(PROIOComponent *)
                                             30026E0C 
  AIWIngressTempSensor::new AIWIngressTempSensor(PROIOComponent *)::??rA?FARFUNC_A
                                             30026E0C 
  AIWIngressTempSensor::AIWIngressTempSensor(PROIOComponent *)
                                             30026E3C 
  AIWIngressTempSensor::AIWIngressTempSensor(PROIOComponent *)::??rA?FARFUNC_A
                                             30026E3C 
  AIWIngressTempSensor::~AIWIngressTempSensor()
                                             30026ED8 
  AIWIngressTempSensor::~AIWIngressTempSensor()::??rA?FARFUNC_A
                                             30026ED8 
  AIWIngressTempSensor::PutValue(int, TSNString, bool)
                                             30026F08 
  AIWIngressTempSensor::PutValue(int, TSNString, bool)::??rA?FARFUNC_A
                                             30026F08 
  AIWIngressTempSensor::GetValue(int, float &, int &, int &)
                                             30026F84 
  AIWIngressTempSensor::GetValue(int, float &, int &, int &)::??rA?FARFUNC_A
                                             30026F84 
  AIWIngressTempSensor::GetStringValue(int, TSNString &)
                                             30026FA0 
  AIWIngressTempSensor::GetStringValue(int, TSNString &)::??rA?FARFUNC_A
                                             30026FA0 
  AIWIngressTempSensor::PutFloatValue(int, float)
                                             30026FB0 
  AIWIngressTempSensor::PutFloatValue(int, float)::??rA?FARFUNC_A
                                             30026FB0 
  AIWIngressTempSensor::__vtbl               30069708 
  __sti__routine()                           30026D48   LOCAL
ANPRO10Object ( F:\S2Prog\TXU\Release\Obj\ANPRO10Object.r79 )
  ANPRO10Object::ANPRO10Object(TSNUart *)
                                             30027084 
  ANPRO10Object::ANPRO10Object(TSNUart *)::??rA?FARFUNC_A
                                             30027084 
  ANPRO10Object::~ANPRO10Object()            300270B8 
  ANPRO10Object::~ANPRO10Object()::??rA?FARFUNC_A
                                             300270B8 
  ANPRO10Object::ANPRO10_IO_UnpackPacket(unsigned char *)
                                             300270E8 
  ANPRO10Object::ANPRO10_IO_UnpackPacket(unsigned char *)::??rA?FARFUNC_A
                                             300270E8 
  ANPRO10Object::ANPRO10_IO_Receive()
                                             300270F0 
  ANPRO10Object::ANPRO10_IO_Receive()::??rA?FARFUNC_A
                                             300270F0 
  ANPRO10Object::SendPacket(NetPacket &)
                                             3002718C 
  ANPRO10Object::SendPacket(NetPacket &)::??rA?FARFUNC_A
                                             3002718C 
  ANPRO10Object::__vtbl                      30069754 
  __sti__routine()                           30026FC0   LOCAL
ANPRO10UnitInfo ( F:\S2Prog\TXU\Release\Obj\ANPRO10UnitInfo.r79 )
  ANPRO10UnitInfo::ANPRO10UnitInfo()
                                             300272EC 
  ANPRO10UnitInfo::ANPRO10UnitInfo()::??rA?FARFUNC_A
                                             300272EC 
  ANPRO10UnitInfo::Update_Unit_Info(ANPRO10_COMMAND_2001 *, TSNUart *)
                                             30027314 
  ANPRO10UnitInfo::Update_Unit_Info(ANPRO10_COMMAND_2001 *, TSNUart *)::??rA?FARFUNC_A
                                             30027314 
  ANPRO10UnitInfo::VersionControl()
                                             300273E0 
  ANPRO10UnitInfo::VersionControl()::??rA?FARFUNC_A
                                             300273E0 
  ANPRO10UnitInfo::Check()                   300275A0 
  ANPRO10UnitInfo::Check()::??rA?FARFUNC_A
                                             300275A0 
  memcmp::??rA?FARFUNC_A                     300275E8 
  strncmp::??rA?FARFUNC_A                    300275F4 
  __sti__routine()                           30027228   LOCAL
API ( F:\S2Prog\TXU\Release\Obj\API.r79 )
  HydrometerCorrection(float)                30027600 
  HydrometerCorrection(float)::??rA?FARFUNC_A
                                             30027600 
  DnsInAir_to_DnsInVac(float)                3002769C 
  DnsInAir_to_DnsInVac(float)::??rA?FARFUNC_A
                                             3002769C 
  API_vcf(float, float)                      300276C8 
  API_vcf(float, float)::??rA?FARFUNC_A
                                             300276C8 
  Vcf_6_and_54A_Calc(float, float)           3002774C 
  Vcf_6_and_54A_Calc(float, float)::??rA?FARFUNC_A
                                             3002774C 
  Vcf_6_and_54B_Calc(float, float)           30027788 
  Vcf_6_and_54B_Calc(float, float)::??rA?FARFUNC_A
                                             30027788 
  Vcf_6_and_54D_Calc(float, float)           300278DC 
  Vcf_6_and_54D_Calc(float, float)::??rA?FARFUNC_A
                                             300278DC 
  Api_to_Density(float)                      3002792C 
  Api_to_Density(float)::??rA?FARFUNC_A
                                             3002792C 
  Density_to_API(float)                      3002797C 
  Density_to_API(float)::??rA?FARFUNC_A
                                             3002797C 
  __dSub::??rA?FARFUNC_A                     300279D8 
  __doubleToFloat::??rA?FARFUNC_A            300279E4 
  __fMul::??rA?FARFUNC_A                     300279F0 
  __fDiv::??rA?FARFUNC_A                     300279FC 
  __fAdd::??rA?FARFUNC_A                     30027A08 
  exp::??rA?FARFUNC_A                        30027A14 
  __dLess::??rA?FARFUNC_A                    30027A20 
AnalogInput ( F:\S2Prog\TXU\Release\Obj\AnalogInput.r79 )
  AnalogInput::NumberOfPRO                   30A06F10 
  AnalogInput::AnalogInput(int)              30027AF0 
  AnalogInput::AnalogInput(int)::??rA?FARFUNC_A
                                             30027AF0 
  AnalogInput::Init()                        30027B1C 
  AnalogInput::Init()::??rA?FARFUNC_A
                                             30027B1C 
  AnalogInput::~AnalogInput()                30027C08 
  AnalogInput::~AnalogInput()::??rA?FARFUNC_A
                                             30027C08 
  AnalogInput::MakeConfigString(TSNConfigString &)
                                             30027C34 
  AnalogInput::MakeConfigString(TSNConfigString &)::??rA?FARFUNC_A
                                             30027C34 
  AnalogInput::LoadConfigString(TSNConfigString &)
                                             30028BF4 
  AnalogInput::LoadConfigString(TSNConfigString &)::??rA?FARFUNC_A
                                             30028BF4 
  AnalogInput::Calculate()                   30029310 
  AnalogInput::Calculate()::??rA?FARFUNC_A
                                             30029310 
  AnalogInput::UpdateAllDependingSensorOffsets(float)
                                             3002935C 
  AnalogInput::UpdateAllDependingSensorOffsets(float)::??rA?FARFUNC_A
                                             3002935C 
  AnalogInput::CheckInput(float, TSNString, int &)
                                             30029360 
  AnalogInput::CheckInput(float, TSNString, int &)::??rA?FARFUNC_A
                                             30029360 
  AnalogInput::AdjustSensor(TSNString, int, float, float, TSNString)
                                             30029368 
  AnalogInput::AdjustSensor(TSNString, int, float, float, TSNString)::??rA?FARFUNC_A
                                             30029368 
  AnalogInput::AdjustSensor(float, TSNString)::??rA?FARFUNC_A
                                             30029454 
  AnalogInput::AdjustSensor(float, TSNString)
                                             30029454 
  AnalogInput::GetStringValue(int, TSNString &)
                                             30029570 
  AnalogInput::GetStringValue(int, TSNString &)::??rA?FARFUNC_A
                                             30029570 
  AnalogInput::GetValue(int, float &, int &, int &)
                                             300296BC 
  AnalogInput::GetValue(int, float &, int &, int &)::??rA?FARFUNC_A
                                             300296BC 
  AnalogInput::PutValue(int, TSNString, bool)
                                             3002977C 
  AnalogInput::PutValue(int, TSNString, bool)::??rA?FARFUNC_A
                                             3002977C 
  AnalogInput::PutFloatValue(int, float)
                                             300298B0 
  AnalogInput::PutFloatValue(int, float)::??rA?FARFUNC_A
                                             300298B0 
  AnalogInput::ReceiveData(unsigned char *)
                                             300298E4 
  AnalogInput::ReceiveData(unsigned char *)::??rA?FARFUNC_A
                                             300298E4 
  AnalogInput::SendData(unsigned short)
                                             30029AC8 
  AnalogInput::SendData(unsigned short)::??rA?FARFUNC_A
                                             30029AC8 
  AnalogInput::NewValue(float, unsigned char)
                                             30029BF4 
  AnalogInput::NewValue(float, unsigned char)::??rA?FARFUNC_A
                                             30029BF4 
  AnalogInput::__vtbl                        30069798 
  __fSub::??rA?FARFUNC_A                     30029C04 
  __ulongToFloat::??rA?FARFUNC_A             30029C10 
  __fNotEqual::??rA?FARFUNC_A                30029C1C 
  sprintf::??rA?FARFUNC_A                    30029C28 
  __sti__routine()                           30027A2C   LOCAL
Anpro10 ( F:\S2Prog\TXU\Release\Obj\Anpro10.r79 )
  SysInfoAvailable                           30A06F34 
  SysInfoPacketStruct                        30A06FA4 
  UnitInformation                            30A06F38 
  CRC                                        300739E1 
  MyProgramVersion                           30A00000 
  CurrentRxAddress                           30A00009 
  CurrentRxId                                30A0000A 
  DownloadAck                                30A00008 
  TaskPtr                                    30A00004 
  ANPRO10_AddPacketHeading(unsigned char *, unsigned int, unsigned int)
                                             30029D18 
  ANPRO10_AddPacketHeading(unsigned char *, unsigned int, unsigned int)::??rA?FARFUNC_A
                                             30029D18 
  ANPRO10_AddPacketPreAmble(unsigned char *)
                                             30029D48 
  ANPRO10_AddPacketPreAmble(unsigned char *)::??rA?FARFUNC_A
                                             30029D48 
  Sequence                                   30A6BABD 
  ANPRO10_AddPacketTail(unsigned char *, unsigned int, bool)
                                             30029D68 
  ANPRO10_AddPacketTail(unsigned char *, unsigned int, bool)::??rA?FARFUNC_A
                                             30029D68 
  AddPacket(unsigned char *, NetPacket &)
                                             30029E64 
  AddPacket(unsigned char *, NetPacket &)::??rA?FARFUNC_A
                                             30029E64 
  ANPRO10_AddCommand(unsigned char *, unsigned char *)
                                             30029EFC 
  ANPRO10_AddCommand(unsigned char *, unsigned char *)::??rA?FARFUNC_A
                                             30029EFC 
  ANPRO10_UnpackPacket(unsigned char *, TSNUart *)
                                             30029F34 
  ANPRO10_UnpackPacket(unsigned char *, TSNUart *)::??rA?FARFUNC_A
                                             30029F34 
  SequenceNumber                             30A6BABE 
  ANPRO10_Receive(TSNUart *)                 3002A290 
  ANPRO10_Receive(TSNUart *)::??rA?FARFUNC_A
                                             3002A290 
  ANPRO10_SendCommand(TSNUart *, unsigned char *, unsigned int, unsigned int)
                                             3002A4C4 
  ANPRO10_SendCommand(TSNUart *, unsigned char *, unsigned int, unsigned int)::??rA?FARFUNC_A
                                             3002A4C4 
  ANPRO10_SendSysInfo()                      3002A56C 
  ANPRO10_SendSysInfo()::??rA?FARFUNC_A
                                             3002A56C 
  ANPRO10_SendRestartTXU(TSNUart *)
                                             3002A64C 
  ANPRO10_SendRestartTXU(TSNUart *)::??rA?FARFUNC_A
                                             3002A64C 
  ANPRO10_SendReqSysInfo(TSNUart *)
                                             3002A688 
  ANPRO10_SendReqSysInfo(TSNUart *)::??rA?FARFUNC_A
                                             3002A688 
  ANPRO10_ReceiveSysInfo(unsigned char *, TSNUart *)
                                             3002A6C4 
  ANPRO10_ReceiveSysInfo(unsigned char *, TSNUart *)::??rA?FARFUNC_A
                                             3002A6C4 
  EraseFlash(unsigned char)                  3002A700 
  EraseFlash(unsigned char)::??rA?FARFUNC_A
                                             3002A700 
  ANPRO10_FlashHandler(TSNUart *, ANPRO10_PacketHeading *, unsigned char *)
                                             3002A790 
  ANPRO10_FlashHandler(TSNUart *, ANPRO10_PacketHeading *, unsigned char *)::??rA?FARFUNC_A
                                             3002A790 
  ANPRO10_ReceiveFlashData(unsigned char *, unsigned long, unsigned long)
                                             3002A9C0 
  ANPRO10_ReceiveFlashData(unsigned char *, unsigned long, unsigned long)::??rA?FARFUNC_A
                                             3002A9C0 
  ANPRO10_SendFlashData(TSNUart *, unsigned long, unsigned long, unsigned short, unsigned long, unsigned long)
                                             3002AAC8 
  ANPRO10_SendFlashData(TSNUart *, unsigned long, unsigned long, unsigned short, unsigned long, unsigned long)::??rA?FARFUNC_A
                                             3002AAC8 
  __vec_construct::??rA?FARFUNC_A            3002AC6C 
  operator new[](unsigned long)::??rA?FARFUNC_A
                                             3002AC78 
  operator delete[](void *)::??rA?FARFUNC_A
                                             3002AC84 
  strncpy::??rA?FARFUNC_A                    3002AC90 
  __sti__routine()                           30029C34   LOCAL
ButtonBallast ( F:\S2Prog\TXU\Release\Obj\ButtonBallast.r79 )
  ColorsButtonBallast                        300697EC 
  PalButtonBallast                           3006982C 
  acButtonBallast                            30073AE1 
  bmButtonBallast                            30069838 
ButtonCargo ( F:\S2Prog\TXU\Release\Obj\ButtonCargo.r79 )
  ColorsButtonCargo                          3006984C 
  PalButtonCargo                             3006988C 
  acButtonCargo                              30073CE1 
  bmButtonCargo                              30069898 
ButtonCargoLinePress ( F:\S2Prog\TXU\Release\Obj\ButtonCargoLinePress.r79 )
  ColorsButtonCargoLinePress                 300698AC 
  PalButtonCargoLinePress                    300698EC 
  acButtonCargoLinePress                     30073EE1 
  bmButtonCargoLinePress                     300698F8 
ButtonGasSampling ( F:\S2Prog\TXU\Release\Obj\ButtonGasSampling.r79 )
  ColorsButtonGasSampling                    3006990C 
  PalButtonGasSampling                       3006994C 
  acButtonGasSampling                        300740E1 
  bmButtonGasSampling                        30069958 
ButtonHighLevel ( F:\S2Prog\TXU\Release\Obj\ButtonHighLevel.r79 )
  ColorsButtonHighLevel                      3006996C 
  PalButtonHighLevel                         300699AC 
  acButtonHighLevel                          300742E1 
  bmButtonHighLevel                          300699B8 
ButtonService ( F:\S2Prog\TXU\Release\Obj\ButtonService.r79 )
  ColorsButtonService                        300699CC 
  PalButtonService                           30069A0C 
  acButtonService                            300744E1 
  bmButtonService                            30069A18 
ButtonSystem ( F:\S2Prog\TXU\Release\Obj\ButtonSystem.r79 )
  ColorsButtonSystem                         30069A2C 
  PalButtonSystem                            30069A6C 
  acButtonSystem                             300746E1 
  bmButtonSystem                             30069A78 
ButtonTankPress ( F:\S2Prog\TXU\Release\Obj\ButtonTankPress.r79 )
  ColorsButtonTankPress                      30069A8C 
  PalButtonTankPress                         30069ACC 
  acButtonTankPress                          300748E1 
  bmButtonTankPress                          30069AD8 
ButtonTemperature ( F:\S2Prog\TXU\Release\Obj\ButtonTemperature.r79 )
  ColorsButtonTemperature                    30069AEC 
  PalButtonTemperature                       30069B2C 
  acButtonTemperature                        30074AE1 
  bmButtonTemperature                        30069B38 
ButtonVapourReturnPress ( F:\S2Prog\TXU\Release\Obj\ButtonVapourReturnPress.r79 )
  ColorsButtonVapourReturnPress              30069B4C 
  PalButtonVapourReturnPress                 30069B8C 
  acButtonVapourReturnPress                  30074CE1 
  bmButtonVapourReturnPress                  30069B98 
ButtonWaterIngress ( F:\S2Prog\TXU\Release\Obj\ButtonWaterIngress.r79 )
  ColorsButtonWaterIngress                   30069BAC 
  PalButtonWaterIngress                      30069BEC 
  acButtonWaterIngress                       30074EE1 
  bmButtonWaterIngress                       30069BF8 
CloseWindowTimer ( F:\S2Prog\TXU\Release\Obj\CloseWindowTimer.r79 )
  CloseWindowTimer::CloseWindowTimer()
                                             3002AC9C 
  CloseWindowTimer::CloseWindowTimer()::??rA?FARFUNC_A
                                             3002AC9C 
  CloseWindowTimer::TimerCallback()
                                             3002ACC0 
  CloseWindowTimer::TimerCallback()::??rA?FARFUNC_A
                                             3002ACC0 
  CloseWindowTimer::__vtbl                   30069C0C 
  GUI_EndDialog::??rA?FARFUNC_A              3002ACF8 
ConfigApp ( F:\S2Prog\TXU\Release\Obj\ConfigApp.r79 )
  __sti__routine()                           3002AD04   LOCAL
CtrlAlarmRelay ( F:\S2Prog\TXU\Release\Obj\CtrlAlarmRelay.r79 )
  CtrlAlarmRelay::new CtrlAlarmRelay()
                                             3002ADC8 
  CtrlAlarmRelay::new CtrlAlarmRelay()::??rA?FARFUNC_A
                                             3002ADC8 
  CtrlAlarmRelay::~CtrlAlarmRelay()
                                             3002AEC8 
  CtrlAlarmRelay::~CtrlAlarmRelay()::??rA?FARFUNC_A
                                             3002AEC8 
  CtrlAlarmRelay::Update()                   3002AEF8 
  CtrlAlarmRelay::Update()::??rA?FARFUNC_A
                                             3002AEF8 
  CtrlAlarmRelay::Activate()                 3002AEFC 
  CtrlAlarmRelay::Activate()::??rA?FARFUNC_A
                                             3002AEFC 
  CtrlAlarmRelay::Activate(int)::??rA?FARFUNC_A
                                             3002AF00 
  CtrlAlarmRelay::Activate(int)              3002AF00 
  CtrlAlarmRelay::DeActivate()               3002AF04 
  CtrlAlarmRelay::DeActivate()::??rA?FARFUNC_A
                                             3002AF04 
  CtrlAlarmRelay::__vtbl                     30069C10 
  __sti__routine()                           3002AE04   LOCAL
CtrlBuzzer ( F:\S2Prog\TXU\Release\Obj\CtrlBuzzer.r79 )
  CtrlBuzzer::new CtrlBuzzer()               3002AF08 
  CtrlBuzzer::new CtrlBuzzer()::??rA?FARFUNC_A
                                             3002AF08 
  CtrlBuzzer::~CtrlBuzzer()                  3002B008 
  CtrlBuzzer::~CtrlBuzzer()::??rA?FARFUNC_A
                                             3002B008 
  CtrlBuzzer::Update()                       3002B038 
  CtrlBuzzer::Update()::??rA?FARFUNC_A
                                             3002B038 
  CtrlBuzzer::Activate()                     3002B210 
  CtrlBuzzer::Activate()::??rA?FARFUNC_A
                                             3002B210 
  CtrlBuzzer::Activate(int)::??rA?FARFUNC_A
                                             3002B214 
  CtrlBuzzer::Activate(int)                  3002B214 
  CtrlBuzzer::DeActivate()                   3002B26C 
  CtrlBuzzer::DeActivate()::??rA?FARFUNC_A
                                             3002B26C 
  CtrlBuzzer::__vtbl                         30069C58 
  __sti__routine()                           3002AF44   LOCAL
CtrlHorn ( F:\S2Prog\TXU\Release\Obj\CtrlHorn.r79 )
  CtrlHorn::new CtrlHorn()                   3002B28C 
  CtrlHorn::new CtrlHorn()::??rA?FARFUNC_A
                                             3002B28C 
  CtrlHorn::~CtrlHorn()                      3002B38C 
  CtrlHorn::~CtrlHorn()::??rA?FARFUNC_A
                                             3002B38C 
  CtrlHorn::Update()                         3002B3BC 
  CtrlHorn::Update()::??rA?FARFUNC_A
                                             3002B3BC 
  CtrlHorn::Activate()                       3002B594 
  CtrlHorn::Activate()::??rA?FARFUNC_A
                                             3002B594 
  CtrlHorn::Activate(int)::??rA?FARFUNC_A
                                             3002B598 
  CtrlHorn::Activate(int)                    3002B598 
  CtrlHorn::DeActivate()                     3002B5F0 
  CtrlHorn::DeActivate()::??rA?FARFUNC_A
                                             3002B5F0 
  CtrlHorn::__vtbl                           30069CA0 
  __sti__routine()                           3002B2C8   LOCAL
CtrlLamp ( F:\S2Prog\TXU\Release\Obj\CtrlLamp.r79 )
  CtrlLamp::new CtrlLamp()                   3002B610 
  CtrlLamp::new CtrlLamp()::??rA?FARFUNC_A
                                             3002B610 
  CtrlLamp::~CtrlLamp()                      3002B710 
  CtrlLamp::~CtrlLamp()::??rA?FARFUNC_A
                                             3002B710 
  CtrlLamp::Update()                         3002B740 
  CtrlLamp::Update()::??rA?FARFUNC_A
                                             3002B740 
  CtrlLamp::Activate()                       3002B918 
  CtrlLamp::Activate()::??rA?FARFUNC_A
                                             3002B918 
  CtrlLamp::Activate(int)::??rA?FARFUNC_A
                                             3002B91C 
  CtrlLamp::Activate(int)                    3002B91C 
  CtrlLamp::DeActivate()                     3002B974 
  CtrlLamp::DeActivate()::??rA?FARFUNC_A
                                             3002B974 
  CtrlLamp::__vtbl                           30069CE8 
  __sti__routine()                           3002B64C   LOCAL
CtrlLight ( F:\S2Prog\TXU\Release\Obj\CtrlLight.r79 )
  CtrlLight::new CtrlLight()                 3002B994 
  CtrlLight::new CtrlLight()::??rA?FARFUNC_A
                                             3002B994 
  CtrlLight::~CtrlLight()                    3002BA94 
  CtrlLight::~CtrlLight()::??rA?FARFUNC_A
                                             3002BA94 
  CtrlLight::Update()                        3002BAC4 
  CtrlLight::Update()::??rA?FARFUNC_A
                                             3002BAC4 
  CtrlLight::Activate()                      3002BC68 
  CtrlLight::Activate()::??rA?FARFUNC_A
                                             3002BC68 
  CtrlLight::Activate(int)::??rA?FARFUNC_A
                                             3002BC6C 
  CtrlLight::Activate(int)                   3002BC6C 
  CtrlLight::DeActivate()                    3002BCC4 
  CtrlLight::DeActivate()::??rA?FARFUNC_A
                                             3002BCC4 
  CtrlLight::__vtbl                          30069D30 
  __sti__routine()                           3002B9D0   LOCAL
DIInclinometerN2 ( F:\S2Prog\TXU\Release\Obj\DIInclinometerN2.r79 )
  DIInclinometerN2::new DIInclinometerN2()
                                             3002BDA8 
  DIInclinometerN2::new DIInclinometerN2()::??rA?FARFUNC_A
                                             3002BDA8 
  DIInclinometerN2::~DIInclinometerN2()
                                             3002BDE4 
  DIInclinometerN2::~DIInclinometerN2()::??rA?FARFUNC_A
                                             3002BDE4 
  DIInclinometerN2::Calculate()              3002BE14 
  DIInclinometerN2::Calculate()::??rA?FARFUNC_A
                                             3002BE14 
  DIInclinometerN2::MakeConfigString(TSNConfigString &)
                                             3002BE1C 
  DIInclinometerN2::MakeConfigString(TSNConfigString &)::??rA?FARFUNC_A
                                             3002BE1C 
  DIInclinometerN2::LoadConfigString(TSNConfigString &)
                                             3002C078 
  DIInclinometerN2::LoadConfigString(TSNConfigString &)::??rA?FARFUNC_A
                                             3002C078 
  DIInclinometerN2::PutValue(int, TSNString, bool)
                                             3002C30C 
  DIInclinometerN2::PutValue(int, TSNString, bool)::??rA?FARFUNC_A
                                             3002C30C 
  DIInclinometerN2::GetValue(int, float &, int &, int &)
                                             3002C388 
  DIInclinometerN2::GetValue(int, float &, int &, int &)::??rA?FARFUNC_A
                                             3002C388 
  DIInclinometerN2::GetStringValue(int, TSNString &)
                                             3002C3A4 
  DIInclinometerN2::GetStringValue(int, TSNString &)::??rA?FARFUNC_A
                                             3002C3A4 
  DIInclinometerN2::PutFloatValue(int, float)
                                             3002C3B4 
  DIInclinometerN2::PutFloatValue(int, float)::??rA?FARFUNC_A
                                             3002C3B4 
  DIInclinometerN2::__vtbl                   30069D78 
  __sti__routine()                           3002BCE4   LOCAL
DIWaterIngressSensor ( F:\S2Prog\TXU\Release\Obj\DIWaterIngressSensor.r79 )
  DIWaterIngressSensor::new DIWaterIngressSensor()
                                             3002C488 
  DIWaterIngressSensor::new DIWaterIngressSensor()::??rA?FARFUNC_A
                                             3002C488 
  DIWaterIngressSensor::~DIWaterIngressSensor()
                                             3002C4C4 
  DIWaterIngressSensor::~DIWaterIngressSensor()::??rA?FARFUNC_A
                                             3002C4C4 
  DIWaterIngressSensor::MakeConfigString(TSNConfigString &)
                                             3002C4F4 
  DIWaterIngressSensor::MakeConfigString(TSNConfigString &)::??rA?FARFUNC_A
                                             3002C4F4 
  DIWaterIngressSensor::LoadConfigString(TSNConfigString &)
                                             3002C750 
  DIWaterIngressSensor::LoadConfigString(TSNConfigString &)::??rA?FARFUNC_A
                                             3002C750 
  DIWaterIngressSensor::PutValue(int, TSNString, bool)
                                             3002C9E4 
  DIWaterIngressSensor::PutValue(int, TSNString, bool)::??rA?FARFUNC_A
                                             3002C9E4 
  DIWaterIngressSensor::GetValue(int, float &, int &, int &)
                                             3002C9EC 
  DIWaterIngressSensor::GetValue(int, float &, int &, int &)::??rA?FARFUNC_A
                                             3002C9EC 
  DIWaterIngressSensor::GetStringValue(int, TSNString &)
                                             3002C9F4 
  DIWaterIngressSensor::GetStringValue(int, TSNString &)::??rA?FARFUNC_A
                                             3002C9F4 
  DIWaterIngressSensor::PutFloatValue(int, float)
                                             3002CA04 
  DIWaterIngressSensor::PutFloatValue(int, float)::??rA?FARFUNC_A
                                             3002CA04 
  DIWaterIngressSensor::__vtbl               30069DB8 
  __sti__routine()                           3002C3C4   LOCAL
DigitalInput ( F:\S2Prog\TXU\Release\Obj\DigitalInput.r79 )
  DigitalInput::NumberOfPRO                  30A07718 
  DigitalInput::DigitalInput()               3002CAD0 
  DigitalInput::DigitalInput()::??rA?FARFUNC_A
                                             3002CAD0 
  DigitalInput::Init()                       3002CAFC 
  DigitalInput::Init()::??rA?FARFUNC_A
                                             3002CAFC 
  DigitalInput::~DigitalInput()              3002CB9C 
  DigitalInput::~DigitalInput()::??rA?FARFUNC_A
                                             3002CB9C 
  DigitalInput::MakeConfigString(TSNConfigString &)
                                             3002CBCC 
  DigitalInput::MakeConfigString(TSNConfigString &)::??rA?FARFUNC_A
                                             3002CBCC 
  DigitalInput::LoadConfigString(TSNConfigString &)
                                             3002D540 
  DigitalInput::LoadConfigString(TSNConfigString &)::??rA?FARFUNC_A
                                             3002D540 
  DigitalInput::GetStringValue(int, TSNString &)
                                             3002D978 
  DigitalInput::GetStringValue(int, TSNString &)::??rA?FARFUNC_A
                                             3002D978 
  DigitalInput::GetValue(int, float &, int &, int &)
                                             3002D9D0 
  DigitalInput::GetValue(int, float &, int &, int &)::??rA?FARFUNC_A
                                             3002D9D0 
  DigitalInput::PutValue(int, TSNString, bool)
                                             3002D9D8 
  DigitalInput::PutValue(int, TSNString, bool)::??rA?FARFUNC_A
                                             3002D9D8 
  DigitalInput::PutFloatValue(int, float)
                                             3002D9E0 
  DigitalInput::PutFloatValue(int, float)::??rA?FARFUNC_A
                                             3002D9E0 
  DigitalInput::Calculate()                  3002D9E8 
  DigitalInput::Calculate()::??rA?FARFUNC_A
                                             3002D9E8 
  DigitalInput::__vtbl                       30069DF8 
  __sti__routine()                           3002CA0C   LOCAL
GUICore ( F:\S2Prog\TXU\Release\Obj\GUICore.r79 )
  GUI_Context                                30A0771C 
  GUI_DecChar                                30A07778 
  GUI_pfTimerExec                            30A0777C 
  WM_pfHandlePID                             30A07780 
  GUI_pfDispCharStyle                        30A07784 
  GUI_CURSOR_pfTempHide                      30A07788 
  GUI_CURSOR_pfTempUnhide                    30A0778C 
  GUI_ClearRect                              3002D9F0 
  GUI_ClearRect::??rA?FARFUNC_A              3002D9F0 
  GUI_Clear                                  3002DA88 
  GUI_Clear::??rA?FARFUNC_A                  3002DA88 
  GUI_Init                                   3002DAB8 
  GUI_Init::??rA?FARFUNC_A                   3002DAB8 
  LCD_SetDrawMode::??rA?FARFUNC_A            3002DB48 
  WM__GetOrgX::??rA?FARFUNC_A                3002DB54 
  WM__GetOrgY::??rA?FARFUNC_A                3002DB60 
  WM__InitIVRSearch::??rA?FARFUNC_A
                                             3002DB6C 
  LCD_FillRect::??rA?FARFUNC_A               3002DB78 
  WM__GetNextIVR::??rA?FARFUNC_A             3002DB84 
  GUI_GotoXY::??rA?FARFUNC_A                 3002DB90 
  LCD_L0_GetRect::??rA?FARFUNC_A             3002DB9C 
  WM_GetDesktopWindow::??rA?FARFUNC_A
                                             3002DBA8 
  LCD_SetBkColor::??rA?FARFUNC_A             3002DBB4 
  LCD_SetColor::??rA?FARFUNC_A               3002DBC0 
  LCD_Init::??rA?FARFUNC_A                   3002DBCC 
  WM_Init::??rA?FARFUNC_A                    3002DBD8 
GUI_TOUCH_DriverAnalog ( F:\S2Prog\TXU\Release\Obj\GUI_TOUCH_DriverAnalog.r79 )
  PhysKeyPressed                             30A00034 
  GUI_TOUCH_Exec                             3002DBE4 
  GUI_TOUCH_Exec::??rA?FARFUNC_A             3002DBE4 
  GUI_TOUCH_StoreUnstable::??rA?FARFUNC_A
                                             3002DD14 
GUI_X_embOS ( F:\S2Prog\TXU\Release\Obj\GUI_X_embOS.r79 )
  GUI_X_GetTime                              3002DD20 
  GUI_X_GetTime::??rA?FARFUNC_A              3002DD20 
  GUI_X_Delay                                3002DD2C 
  GUI_X_Delay::??rA?FARFUNC_A                3002DD2C 
  GUI_X_ExecIdle                             3002DD38 
  GUI_X_ExecIdle::??rA?FARFUNC_A             3002DD38 
  GUI_X_InitOS                               3002DD48 
  GUI_X_InitOS::??rA?FARFUNC_A               3002DD48 
  GUI_X_Unlock                               3002DD5C 
  GUI_X_Unlock::??rA?FARFUNC_A               3002DD5C 
  GUI_X_Lock                                 3002DD70 
  GUI_X_Lock::??rA?FARFUNC_A                 3002DD70 
  GUI_X_GetTaskId                            3002DD84 
  GUI_X_GetTaskId::??rA?FARFUNC_A            3002DD84 
  GUI_X_OnRx                                 3002DD98 
  GUI_X_OnRx::??rA?FARFUNC_A                 3002DD98 
  GUI_X_Init                                 3002DDA8 
  GUI_X_Init::??rA?FARFUNC_A                 3002DDA8 
  GUI_StoreKeyMsg::??rA?FARFUNC_A            3002DDCC 
IOUnit ( F:\S2Prog\TXU\Release\Obj\IOUnit.r79 )
  IOUnit::IOUnit(int)                        3002DE9C 
  IOUnit::IOUnit(int)::??rA?FARFUNC_A
                                             3002DE9C 
  IOUnit::~IOUnit()                          3002DEFC 
  IOUnit::~IOUnit()::??rA?FARFUNC_A
                                             3002DEFC 
  IOUnit::MakeConfigString(TSNConfigString &)
                                             3002DF2C 
  IOUnit::MakeConfigString(TSNConfigString &)::??rA?FARFUNC_A
                                             3002DF2C 
  IOUnit::LoadConfigString(TSNConfigString &)
                                             3002DF48 
  IOUnit::LoadConfigString(TSNConfigString &)::??rA?FARFUNC_A
                                             3002DF48 
  IOUnit::Add(PROIOComponent *, PRogramObject *)
                                             3002DF50 
  IOUnit::Add(PROIOComponent *, PRogramObject *)::??rA?FARFUNC_A
                                             3002DF50 
  IOUnit::GetValue(int, float &, int &, int &)
                                             3002DF58 
  IOUnit::GetValue(int, float &, int &, int &)::??rA?FARFUNC_A
                                             3002DF58 
  IOUnit::GetStringValue(int, TSNString &)
                                             3002DF74 
  IOUnit::GetStringValue(int, TSNString &)::??rA?FARFUNC_A
                                             3002DF74 
  IOUnit::PutValue(int, TSNString, bool)
                                             3002DF84 
  IOUnit::PutValue(int, TSNString, bool)::??rA?FARFUNC_A
                                             3002DF84 
  IOUnit::PutFloatValue(int, float)
                                             3002E000 
  IOUnit::PutFloatValue(int, float)::??rA?FARFUNC_A
                                             3002E000 
  IOUnit::HandleIO()                         3002E010 
  IOUnit::HandleIO()::??rA?FARFUNC_A
                                             3002E010 
  IOUnit::PowerOn()                          3002E014 
  IOUnit::PowerOn()::??rA?FARFUNC_A
                                             3002E014 
  IOUnit::__vtbl                             30069E44 
  __sti__routine()                           3002DDD8   LOCAL
IOUnitWAGO ( F:\S2Prog\TXU\Release\Obj\IOUnitWAGO.r79 )
  IOUnitWAGO::new IOUnitWAGO(PROIOComponent *, PRogramObject *)
                                             3002E0FC 
  IOUnitWAGO::new IOUnitWAGO(PROIOComponent *, PRogramObject *)::??rA?FARFUNC_A
                                             3002E0FC 
  IOUnitWAGO::IOUnitWAGO(PROIOComponent *, PRogramObject *)
                                             3002E138 
  IOUnitWAGO::IOUnitWAGO(PROIOComponent *, PRogramObject *)::??rA?FARFUNC_A
                                             3002E138 
  IOUnitWAGO::~IOUnitWAGO()                  3002E204 
  IOUnitWAGO::~IOUnitWAGO()::??rA?FARFUNC_A
                                             3002E204 
  IOUnitWAGO::Add(PROIOComponent *, PRogramObject *)
                                             3002E234 
  IOUnitWAGO::Add(PROIOComponent *, PRogramObject *)::??rA?FARFUNC_A
                                             3002E234 
  IOUnitWAGO::GetValue(int, float &, int &, int &)
                                             3002E298 
  IOUnitWAGO::GetValue(int, float &, int &, int &)::??rA?FARFUNC_A
                                             3002E298 
  IOUnitWAGO::GetStringValue(int, TSNString &)
                                             3002E2B4 
  IOUnitWAGO::GetStringValue(int, TSNString &)::??rA?FARFUNC_A
                                             3002E2B4 
  IOUnitWAGO::PutValue(int, TSNString, bool)
                                             3002E2C4 
  IOUnitWAGO::PutValue(int, TSNString, bool)::??rA?FARFUNC_A
                                             3002E2C4 
  IOUnitWAGO::PutFloatValue(int, float)
                                             3002E340 
  IOUnitWAGO::PutFloatValue(int, float)::??rA?FARFUNC_A
                                             3002E340 
  IOUnitWAGO::__vtbl                         30069E94 
  __sti__routine()                           3002E038   LOCAL
IOUnitZB485 ( F:\S2Prog\TXU\Release\Obj\IOUnitZB485.r79 )
  IOUnitZB485::new IOUnitZB485(PROIOComponent *, PRogramObject *)
                                             3002E414 
  IOUnitZB485::new IOUnitZB485(PROIOComponent *, PRogramObject *)::??rA?FARFUNC_A
                                             3002E414 
  IOUnitZB485::IOUnitZB485(PROIOComponent *, PRogramObject *)
                                             3002E450 
  IOUnitZB485::IOUnitZB485(PROIOComponent *, PRogramObject *)::??rA?FARFUNC_A
                                             3002E450 
  IOUnitZB485::~IOUnitZB485()                3002E4F8 
  IOUnitZB485::~IOUnitZB485()::??rA?FARFUNC_A
                                             3002E4F8 
  IOUnitZB485::Add(PROIOComponent *, PRogramObject *)
                                             3002E528 
  IOUnitZB485::Add(PROIOComponent *, PRogramObject *)::??rA?FARFUNC_A
                                             3002E528 
  IOUnitZB485::GetValue(int, float &, int &, int &)
                                             3002E81C 
  IOUnitZB485::GetValue(int, float &, int &, int &)::??rA?FARFUNC_A
                                             3002E81C 
  IOUnitZB485::GetStringValue(int, TSNString &)
                                             3002E838 
  IOUnitZB485::GetStringValue(int, TSNString &)::??rA?FARFUNC_A
                                             3002E838 
  IOUnitZB485::PutValue(int, TSNString, bool)
                                             3002E848 
  IOUnitZB485::PutValue(int, TSNString, bool)::??rA?FARFUNC_A
                                             3002E848 
  IOUnitZB485::PutFloatValue(int, float)
                                             3002E8C4 
  IOUnitZB485::PutFloatValue(int, float)::??rA?FARFUNC_A
                                             3002E8C4 
  IOUnitZB485::ANPRO10_IO_UnpackPacket(unsigned char *)
                                             3002E8D4 
  IOUnitZB485::ANPRO10_IO_UnpackPacket(unsigned char *)::??rA?FARFUNC_A
                                             3002E8D4 
  IOUnitZB485::PowerOn()                     3002E934 
  IOUnitZB485::PowerOn()::??rA?FARFUNC_A
                                             3002E934 
  IOUnitZB485::HandleIO()                    3002E9D8 
  IOUnitZB485::HandleIO()::??rA?FARFUNC_A
                                             3002E9D8 
  IOUnitZB485::__vtbl                        30069EE4 
  __sti__routine()                           3002E350   LOCAL
IOUnitZBAna ( F:\S2Prog\TXU\Release\Obj\IOUnitZBAna.r79 )
  IOUnitZBAna::new IOUnitZBAna(PROIOComponent *, PRogramObject *)
                                             3002EB34 
  IOUnitZBAna::new IOUnitZBAna(PROIOComponent *, PRogramObject *)::??rA?FARFUNC_A
                                             3002EB34 
  IOUnitZBAna::IOUnitZBAna(PROIOComponent *, PRogramObject *)
                                             3002EB70 
  IOUnitZBAna::IOUnitZBAna(PROIOComponent *, PRogramObject *)::??rA?FARFUNC_A
                                             3002EB70 
  IOUnitZBAna::~IOUnitZBAna()                3002EC44 
  IOUnitZBAna::~IOUnitZBAna()::??rA?FARFUNC_A
                                             3002EC44 
  IOUnitZBAna::Add(PROIOComponent *, PRogramObject *)
                                             3002EC74 
  IOUnitZBAna::Add(PROIOComponent *, PRogramObject *)::??rA?FARFUNC_A
                                             3002EC74 
  IOUnitZBAna::GetValue(int, float &, int &, int &)
                                             3002ED0C 
  IOUnitZBAna::GetValue(int, float &, int &, int &)::??rA?FARFUNC_A
                                             3002ED0C 
  IOUnitZBAna::GetStringValue(int, TSNString &)
                                             3002ED28 
  IOUnitZBAna::GetStringValue(int, TSNString &)::??rA?FARFUNC_A
                                             3002ED28 
  IOUnitZBAna::PutValue(int, TSNString, bool)
                                             3002ED38 
  IOUnitZBAna::PutValue(int, TSNString, bool)::??rA?FARFUNC_A
                                             3002ED38 
  IOUnitZBAna::PutFloatValue(int, float)
                                             3002EDB4 
  IOUnitZBAna::PutFloatValue(int, float)::??rA?FARFUNC_A
                                             3002EDB4 
  IOUnitZBAna::ANPRO10_IO_UnpackPacket(unsigned char *)
                                             3002EDC4 
  IOUnitZBAna::ANPRO10_IO_UnpackPacket(unsigned char *)::??rA?FARFUNC_A
                                             3002EDC4 
  IOUnitZBAna::PowerOn()                     3002EF58 
  IOUnitZBAna::PowerOn()::??rA?FARFUNC_A
                                             3002EF58 
  IOUnitZBAna::RequestMeasuredData()
                                             3002EFF4 
  IOUnitZBAna::RequestMeasuredData()::??rA?FARFUNC_A
                                             3002EFF4 
  IOUnitZBAna::HandleIO()                    3002F06C 
  IOUnitZBAna::HandleIO()::??rA?FARFUNC_A
                                             3002F06C 
  IOUnitZBAna::__vtbl                        30069F34 
  __sti__routine()                           3002EA70   LOCAL
InputResponseTimer ( F:\S2Prog\TXU\Release\Obj\InputResponseTimer.r79 )
  InputResponseTimer::new InputResponseTimer(PRogramObjectBase *)::??rA?FARFUNC_A
                                             3002F0DC 
  InputResponseTimer::new InputResponseTimer(PRogramObjectBase *)
                                             3002F0DC 
  InputResponseTimer::delete ~InputResponseTimer(InputResponseTimer *)
                                             3002F10C 
  InputResponseTimer::delete ~InputResponseTimer(InputResponseTimer *)::??rA?FARFUNC_A
                                             3002F10C 
  InputResponseTimer::InputResponseTimer(PRogramObjectBase *)::??rA?FARFUNC_A
                                             3002F1F4 
  InputResponseTimer::InputResponseTimer(PRogramObjectBase *)
                                             3002F1F4 
  InputResponseTimer::TimerCallback()
                                             3002F220 
  InputResponseTimer::TimerCallback()::??rA?FARFUNC_A
                                             3002F220 
  InputResponseTimer::__vtbl                 30069F84 
  __sti__routine()                           3002F130   LOCAL
LCD_Lib ( F:\S2Prog\TXU\Release\Obj\LCD_Lib.r79 )
  LCD_Init_Controller()                      3002F24C 
  LCD_Init_Controller()::??rA?FARFUNC_A
                                             3002F24C 
  LCD_BackLightOn()                          3002F30C 
  LCD_BackLightOn()::??rA?FARFUNC_A
                                             3002F30C 
  LCD_BackLightAdjust(int)                   3002F324 
  LCD_BackLightAdjust(int)::??rA?FARFUNC_A
                                             3002F324 
LISTVIEW ( F:\S2Prog\TXU\Release\Obj\LISTVIEW.r79 )
  LISTVIEW_CreateEx                          3002FE44 
  LISTVIEW_CreateEx::??rA?FARFUNC_A
                                             3002FE44 
  LISTVIEW_GetSel                            3002FFA4 
  LISTVIEW_GetSel::??rA?FARFUNC_A            3002FFA4 
  LISTVIEW_IncSel                            3002FFD0 
  LISTVIEW_IncSel::??rA?FARFUNC_A            3002FFD0 
  LISTVIEW_DecSel                            3002FFF0 
  LISTVIEW_DecSel::??rA?FARFUNC_A            3002FFF0 
  LISTVIEW_AddColumn                         30030010 
  LISTVIEW_AddColumn::??rA?FARFUNC_A
                                             30030010 
  LISTVIEW_AddRow                            300300C0 
  LISTVIEW_AddRow::??rA?FARFUNC_A            300300C0 
  LISTVIEW_SetSel                            300301A0 
  LISTVIEW_SetSel::??rA?FARFUNC_A            300301A0 
  LISTVIEW_GetHeader                         30030264 
  LISTVIEW_GetHeader::??rA?FARFUNC_A
                                             30030264 
  LISTVIEW_SetBkColor                        30030298 
  LISTVIEW_SetBkColor::??rA?FARFUNC_A
                                             30030298 
  LISTVIEW_SetTextColor                      300302E8 
  LISTVIEW_SetTextColor::??rA?FARFUNC_A
                                             300302E8 
  LISTVIEW_GetNumColumns                     30030344 
  LISTVIEW_GetNumColumns::??rA?FARFUNC_A
                                             30030344 
  LISTVIEW_GetNumRows                        30030378 
  LISTVIEW_GetNumRows::??rA?FARFUNC_A
                                             30030378 
  LISTVIEW_SetItemText                       300303AC 
  LISTVIEW_SetItemText::??rA?FARFUNC_A
                                             300303AC 
  LISTVIEW_SetDefaultFont                    30030450 
  LISTVIEW_SetDefaultFont::??rA?FARFUNC_A
                                             30030450 
  LISTVIEW_SetDefaultTextColor               30030464 
  LISTVIEW_SetDefaultTextColor::??rA?FARFUNC_A
                                             30030464 
  LISTVIEW_SetItemTextWithColor              30030494 
  LISTVIEW_SetItemTextWithColor::??rA?FARFUNC_A
                                             30030494 
  LISTVIEW_SetUsedState                      300305C8 
  LISTVIEW_SetUsedState::??rA?FARFUNC_A
                                             300305C8 
  GUI_GetYDistOfFont::??rA?FARFUNC_A
                                             30030624 
  WM_GetInsideRectExScrollbar::??rA?FARFUNC_A
                                             30030630 
  HEADER_GetHeight::??rA?FARFUNC_A           3003063C 
  HEADER_GetNumItems::??rA?FARFUNC_A
                                             30030648 
  GUI_ARRAY_GetNumItems::??rA?FARFUNC_A
                                             30030654 
  GUI_MoveRect::??rA?FARFUNC_A               30030660 
  GUI__IntersectRect::??rA?FARFUNC_A
                                             3003066C 
  GUI_SetColor::??rA?FARFUNC_A               30030678 
  GUI_SetFont::??rA?FARFUNC_A                30030684 
  GUI_SetTextMode::??rA?FARFUNC_A            30030690 
  GUI_ARRAY_GetpItem::??rA?FARFUNC_A
                                             3003069C 
  GUI_SetBkColor::??rA?FARFUNC_A             300306A8 
  GUI_DispStringInRect::??rA?FARFUNC_A
                                             300306B4 
  HEADER_GetItemWidth::??rA?FARFUNC_A
                                             300306C0 
  GUI_DrawHLine::??rA?FARFUNC_A              300306CC 
  GUI_DrawVLine::??rA?FARFUNC_A              300306D8 
  WIDGET__EFFECT_DrawDown::??rA?FARFUNC_A
                                             300306E4 
  WM_InvalidateRect::??rA?FARFUNC_A
                                             300306F0 
  GUI_ALLOC_h2p::??rA?FARFUNC_A              300306FC 
  WM_GetParent::??rA?FARFUNC_A               30030708 
  WM_SendMessage::??rA?FARFUNC_A             30030714 
  WM_CheckScrollPos::??rA?FARFUNC_A
                                             30030720 
  WM_CheckScrollBounds::??rA?FARFUNC_A
                                             3003072C 
  WIDGET__SetScrollState::??rA?FARFUNC_A
                                             30030738 
  WIDGET_HandleActive::??rA?FARFUNC_A
                                             30030744 
  WM_GetScrollbarV::??rA?FARFUNC_A           30030750 
  WM_GetScrollState::??rA?FARFUNC_A
                                             3003075C 
  WM_GetScrollbarH::??rA?FARFUNC_A           30030768 
  HEADER_SetScrollPos::??rA?FARFUNC_A
                                             30030774 
  WM_SetFocus::??rA?FARFUNC_A                30030780 
  GUI_ARRAY_Delete::??rA?FARFUNC_A           3003078C 
  WM_DefaultProc::??rA?FARFUNC_A             30030798 
  WM_GetClientRectEx::??rA?FARFUNC_A
                                             300307A4 
  WM_CreateWindowAsChild::??rA?FARFUNC_A
                                             300307B0 
  WIDGET__Init::??rA?FARFUNC_A               300307BC 
  HEADER_CreateEx::??rA?FARFUNC_A            300307C8 
  HEADER_AddItem::??rA?FARFUNC_A             300307D4 
  GUI_ARRAY_AddItem::??rA?FARFUNC_A
                                             300307E0 
  GUI__strlen::??rA?FARFUNC_A                300307EC 
  WM_NotifyParent::??rA?FARFUNC_A            300307F8 
  GUI_ARRAY_SetItem::??rA?FARFUNC_A
                                             30030804 
  malloc::??rA?FARFUNC_A                     30030810 
  free::??rA?FARFUNC_A                       3003081C 
  _GetRowDistY                               3002F3B8   LOCAL
  _GetNumVisibleRows                         3002F3E8   LOCAL
  _Paint                                     3002F44C   LOCAL
  _InvalidateInsideArea                      3002F904   LOCAL
  _InvalidateRow                             3002F948   LOCAL
  _SetSelFromPos                             3002F9C0   LOCAL
  _NotifyParent                              3002FA8C   LOCAL
  _UpdateScrollPos                           3002FAFC   LOCAL
  _UpdateScrollParas                         3002FB58   LOCAL
  _LISTVIEW_Callback                         3002FC18   LOCAL
OS_Error ( F:\S2Prog\TXU\Release\Obj\OS_Error.r79 )
  ??rA??EnI_a?FARFUNC_A                      30030828 
PROAlarmHighLevel ( F:\S2Prog\TXU\Release\Obj\PROAlarmHighLevel.r79 )
  PROAlarmHighLevel::~PROAlarmHighLevel()
                                             30030834 
  PROAlarmHighLevel::~PROAlarmHighLevel()::??rA?FARFUNC_A
                                             30030834 
  PROAlarmHighLevel::NumberOfAlarmSettings
                                             30A07C18 
  PROAlarmHighLevel::new PROAlarmHighLevel(PRogramObjectBase *, bool)::??rA?FARFUNC_A
                                             30030928 
  PROAlarmHighLevel::new PROAlarmHighLevel(PRogramObjectBase *, bool)
                                             30030928 
  PROAlarmHighLevel::PROAlarmHighLevel(PRogramObjectBase *, bool)
                                             30030960 
  PROAlarmHighLevel::PROAlarmHighLevel(PRogramObjectBase *, bool)::??rA?FARFUNC_A
                                             30030960 
  PROAlarmHighLevel::Get_Message()           30030A44 
  PROAlarmHighLevel::Get_Message()::??rA?FARFUNC_A
                                             30030A44 
  PROAlarmHighLevel::Get_TPCMessage()
                                             30030A58 
  PROAlarmHighLevel::Get_TPCMessage()::??rA?FARFUNC_A
                                             30030A58 
  PROAlarmHighLevel::Check()                 30030A78 
  PROAlarmHighLevel::Check()::??rA?FARFUNC_A
                                             30030A78 
  PROAlarmHighLevel::PutValue(int, TSNString, bool)
                                             30030AF8 
  PROAlarmHighLevel::PutValue(int, TSNString, bool)::??rA?FARFUNC_A
                                             30030AF8 
  PROAlarmHighLevel::GetValue(int, float &, int &, int &)
                                             30030C70 
  PROAlarmHighLevel::GetValue(int, float &, int &, int &)::??rA?FARFUNC_A
                                             30030C70 
  PROAlarmHighLevel::GetStringValue(int, TSNString &)
                                             30030D20 
  PROAlarmHighLevel::GetStringValue(int, TSNString &)::??rA?FARFUNC_A
                                             30030D20 
  PROAlarmHighLevel::PutFloatValue(int, float)
                                             30030D2C 
  PROAlarmHighLevel::PutFloatValue(int, float)::??rA?FARFUNC_A
                                             30030D2C 
  PROAlarmHighLevel::__vtbl                  30069F94 
  __fLess::??rA?FARFUNC_A                    30030D38 
  __fGreaterEqual::??rA?FARFUNC_A            30030D44 
  __sti__routine()                           30030864   LOCAL
PROAlarmHighPressure ( F:\S2Prog\TXU\Release\Obj\PROAlarmHighPressure.r79 )
  PROAlarmHighPressure::~PROAlarmHighPressure()
                                             30030D50 
  PROAlarmHighPressure::~PROAlarmHighPressure()::??rA?FARFUNC_A
                                             30030D50 
  PROAlarmHighPressure::NumberOfAlarmSettings
                                             30A07CDC 
  PROAlarmHighPressure::new PROAlarmHighPressure(PRogramObjectBase *, bool)::??rA?FARFUNC_A
                                             30030E44 
  PROAlarmHighPressure::new PROAlarmHighPressure(PRogramObjectBase *, bool)
                                             30030E44 
  PROAlarmHighPressure::PROAlarmHighPressure(PRogramObjectBase *, bool)
                                             30030E7C 
  PROAlarmHighPressure::PROAlarmHighPressure(PRogramObjectBase *, bool)::??rA?FARFUNC_A
                                             30030E7C 
  PROAlarmHighPressure::Get_Message()
                                             30030EDC 
  PROAlarmHighPressure::Get_Message()::??rA?FARFUNC_A
                                             30030EDC 
  PROAlarmHighPressure::Check()              30030EF8 
  PROAlarmHighPressure::Check()::??rA?FARFUNC_A
                                             30030EF8 
  PROAlarmHighPressure::PutValue(int, TSNString, bool)
                                             30030F68 
  PROAlarmHighPressure::PutValue(int, TSNString, bool)::??rA?FARFUNC_A
                                             30030F68 
  PROAlarmHighPressure::GetValue(int, float &, int &, int &)
                                             30031064 
  PROAlarmHighPressure::GetValue(int, float &, int &, int &)::??rA?FARFUNC_A
                                             30031064 
  PROAlarmHighPressure::GetStringValue(int, TSNString &)
                                             300310D4 
  PROAlarmHighPressure::GetStringValue(int, TSNString &)::??rA?FARFUNC_A
                                             300310D4 
  PROAlarmHighPressure::PutFloatValue(int, float)
                                             300310E4 
  PROAlarmHighPressure::PutFloatValue(int, float)::??rA?FARFUNC_A
                                             300310E4 
  PROAlarmHighPressure::__vtbl               30069FD8 
  __sti__routine()                           30030D80   LOCAL
PROAlarmHighTemp ( F:\S2Prog\TXU\Release\Obj\PROAlarmHighTemp.r79 )
  PROAlarmHighTemp::~PROAlarmHighTemp()
                                             300310F4 
  PROAlarmHighTemp::~PROAlarmHighTemp()::??rA?FARFUNC_A
                                             300310F4 
  PROAlarmHighTemp::NumberOfAlarmSettings
                                             30A07DA0 
  PROAlarmHighTemp::new PROAlarmHighTemp(PRogramObjectBase *, bool)::??rA?FARFUNC_A
                                             300311E8 
  PROAlarmHighTemp::new PROAlarmHighTemp(PRogramObjectBase *, bool)
                                             300311E8 
  PROAlarmHighTemp::PROAlarmHighTemp(PRogramObjectBase *, bool)
                                             30031220 
  PROAlarmHighTemp::PROAlarmHighTemp(PRogramObjectBase *, bool)::??rA?FARFUNC_A
                                             30031220 
  PROAlarmHighTemp::Get_Message()            3003127C 
  PROAlarmHighTemp::Get_Message()::??rA?FARFUNC_A
                                             3003127C 
  PROAlarmHighTemp::Check()                  30031298 
  PROAlarmHighTemp::Check()::??rA?FARFUNC_A
                                             30031298 
  PROAlarmHighTemp::PutValue(int, TSNString, bool)
                                             30031308 
  PROAlarmHighTemp::PutValue(int, TSNString, bool)::??rA?FARFUNC_A
                                             30031308 
  PROAlarmHighTemp::GetValue(int, float &, int &, int &)
                                             30031404 
  PROAlarmHighTemp::GetValue(int, float &, int &, int &)::??rA?FARFUNC_A
                                             30031404 
  PROAlarmHighTemp::GetStringValue(int, TSNString &)
                                             30031474 
  PROAlarmHighTemp::GetStringValue(int, TSNString &)::??rA?FARFUNC_A
                                             30031474 
  PROAlarmHighTemp::PutFloatValue(int, float)
                                             30031484 
  PROAlarmHighTemp::PutFloatValue(int, float)::??rA?FARFUNC_A
                                             30031484 
  PROAlarmHighTemp::__vtbl                   3006A01C 
  __sti__routine()                           30031124   LOCAL
PROAlarmLowLevel ( F:\S2Prog\TXU\Release\Obj\PROAlarmLowLevel.r79 )
  PROAlarmLowLevel::~PROAlarmLowLevel()
                                             30031494 
  PROAlarmLowLevel::~PROAlarmLowLevel()::??rA?FARFUNC_A
                                             30031494 
  PROAlarmLowLevel::NumberOfAlarmSettings
                                             30A07E64 
  PROAlarmLowLevel::new PROAlarmLowLevel(PRogramObjectBase *, bool)::??rA?FARFUNC_A
                                             30031588 
  PROAlarmLowLevel::new PROAlarmLowLevel(PRogramObjectBase *, bool)
                                             30031588 
  PROAlarmLowLevel::PROAlarmLowLevel(PRogramObjectBase *, bool)
                                             300315C0 
  PROAlarmLowLevel::PROAlarmLowLevel(PRogramObjectBase *, bool)::??rA?FARFUNC_A
                                             300315C0 
  PROAlarmLowLevel::Get_Message()            300316A0 
  PROAlarmLowLevel::Get_Message()::??rA?FARFUNC_A
                                             300316A0 
  PROAlarmLowLevel::Check()                  300316BC 
  PROAlarmLowLevel::Check()::??rA?FARFUNC_A
                                             300316BC 
  PROAlarmLowLevel::PutValue(int, TSNString, bool)
                                             30031738 
  PROAlarmLowLevel::PutValue(int, TSNString, bool)::??rA?FARFUNC_A
                                             30031738 
  PROAlarmLowLevel::GetValue(int, float &, int &, int &)
                                             300318B0 
  PROAlarmLowLevel::GetValue(int, float &, int &, int &)::??rA?FARFUNC_A
                                             300318B0 
  PROAlarmLowLevel::GetStringValue(int, TSNString &)
                                             30031960 
  PROAlarmLowLevel::GetStringValue(int, TSNString &)::??rA?FARFUNC_A
                                             30031960 
  PROAlarmLowLevel::PutFloatValue(int, float)
                                             30031970 
  PROAlarmLowLevel::PutFloatValue(int, float)::??rA?FARFUNC_A
                                             30031970 
  PROAlarmLowLevel::__vtbl                   3006A060 
  __sti__routine()                           300314C4   LOCAL
PROAlarmLowPressure ( F:\S2Prog\TXU\Release\Obj\PROAlarmLowPressure.r79 )
  PROAlarmLowPressure::~PROAlarmLowPressure()
                                             30031980 
  PROAlarmLowPressure::~PROAlarmLowPressure()::??rA?FARFUNC_A
                                             30031980 
  PROAlarmLowPressure::NumberOfAlarmSettings
                                             30A07F28 
  PROAlarmLowPressure::new PROAlarmLowPressure(PRogramObjectBase *, bool)::??rA?FARFUNC_A
                                             30031A74 
  PROAlarmLowPressure::new PROAlarmLowPressure(PRogramObjectBase *, bool)
                                             30031A74 
  PROAlarmLowPressure::PROAlarmLowPressure(PRogramObjectBase *, bool)
                                             30031AAC 
  PROAlarmLowPressure::PROAlarmLowPressure(PRogramObjectBase *, bool)::??rA?FARFUNC_A
                                             30031AAC 
  PROAlarmLowPressure::Get_Message()
                                             30031B10 
  PROAlarmLowPressure::Get_Message()::??rA?FARFUNC_A
                                             30031B10 
  PROAlarmLowPressure::Check()               30031B2C 
  PROAlarmLowPressure::Check()::??rA?FARFUNC_A
                                             30031B2C 
  PROAlarmLowPressure::PutValue(int, TSNString, bool)
                                             30031B98 
  PROAlarmLowPressure::PutValue(int, TSNString, bool)::??rA?FARFUNC_A
                                             30031B98 
  PROAlarmLowPressure::GetValue(int, float &, int &, int &)
                                             30031C94 
  PROAlarmLowPressure::GetValue(int, float &, int &, int &)::??rA?FARFUNC_A
                                             30031C94 
  PROAlarmLowPressure::GetStringValue(int, TSNString &)
                                             30031D04 
  PROAlarmLowPressure::GetStringValue(int, TSNString &)::??rA?FARFUNC_A
                                             30031D04 
  PROAlarmLowPressure::PutFloatValue(int, float)
                                             30031D14 
  PROAlarmLowPressure::PutFloatValue(int, float)::??rA?FARFUNC_A
                                             30031D14 
  PROAlarmLowPressure::__vtbl                3006A0A4 
  __sti__routine()                           300319B0   LOCAL
PROAlarmLowTemp ( F:\S2Prog\TXU\Release\Obj\PROAlarmLowTemp.r79 )
  PROAlarmLowTemp::~PROAlarmLowTemp()
                                             30031D24 
  PROAlarmLowTemp::~PROAlarmLowTemp()::??rA?FARFUNC_A
                                             30031D24 
  PROAlarmLowTemp::NumberOfAlarmSettings
                                             30A07FEC 
  PROAlarmLowTemp::new PROAlarmLowTemp(PRogramObjectBase *, bool)::??rA?FARFUNC_A
                                             30031E18 
  PROAlarmLowTemp::new PROAlarmLowTemp(PRogramObjectBase *, bool)
                                             30031E18 
  PROAlarmLowTemp::PROAlarmLowTemp(PRogramObjectBase *, bool)
                                             30031E50 
  PROAlarmLowTemp::PROAlarmLowTemp(PRogramObjectBase *, bool)::??rA?FARFUNC_A
                                             30031E50 
  PROAlarmLowTemp::Get_Message()             30031EAC 
  PROAlarmLowTemp::Get_Message()::??rA?FARFUNC_A
                                             30031EAC 
  PROAlarmLowTemp::Check()                   30031EC8 
  PROAlarmLowTemp::Check()::??rA?FARFUNC_A
                                             30031EC8 
  PROAlarmLowTemp::PutValue(int, TSNString, bool)
                                             30031F34 
  PROAlarmLowTemp::PutValue(int, TSNString, bool)::??rA?FARFUNC_A
                                             30031F34 
  PROAlarmLowTemp::GetValue(int, float &, int &, int &)
                                             30032030 
  PROAlarmLowTemp::GetValue(int, float &, int &, int &)::??rA?FARFUNC_A
                                             30032030 
  PROAlarmLowTemp::GetStringValue(int, TSNString &)
                                             300320A0 
  PROAlarmLowTemp::GetStringValue(int, TSNString &)::??rA?FARFUNC_A
                                             300320A0 
  PROAlarmLowTemp::PutFloatValue(int, float)
                                             300320B0 
  PROAlarmLowTemp::PutFloatValue(int, float)::??rA?FARFUNC_A
                                             300320B0 
  PROAlarmLowTemp::__vtbl                    3006A0F4 
  __sti__routine()                           30031D54   LOCAL
PROAlarmMainWaterIngress ( F:\S2Prog\TXU\Release\Obj\PROAlarmMainWaterIngress.r79 )
  PROAlarmMainWaterIngress::~PROAlarmMainWaterIngress()
                                             300320C0 
  PROAlarmMainWaterIngress::~PROAlarmMainWaterIngress()::??rA?FARFUNC_A
                                             300320C0 
  PROAlarmMainWaterIngress::NumberOfAlarmSettings
                                             30A080B0 
  PROAlarmMainWaterIngress::new PROAlarmMainWaterIngress(PRogramObjectBase *, bool)
                                             300321B4 
  PROAlarmMainWaterIngress::new PROAlarmMainWaterIngress(PRogramObjectBase *, bool)::??rA?FARFUNC_A
                                             300321B4 
  PROAlarmMainWaterIngress::PROAlarmMainWaterIngress(PRogramObjectBase *, bool)
                                             300321EC 
  PROAlarmMainWaterIngress::PROAlarmMainWaterIngress(PRogramObjectBase *, bool)::??rA?FARFUNC_A
                                             300321EC 
  PROAlarmMainWaterIngress::Get_Message()
                                             30032234 
  PROAlarmMainWaterIngress::Get_Message()::??rA?FARFUNC_A
                                             30032234 
  PROAlarmMainWaterIngress::Check()
                                             30032250 
  PROAlarmMainWaterIngress::Check()::??rA?FARFUNC_A
                                             30032250 
  PROAlarmMainWaterIngress::PutValue(int, TSNString, bool)
                                             300322A8 
  PROAlarmMainWaterIngress::PutValue(int, TSNString, bool)::??rA?FARFUNC_A
                                             300322A8 
  PROAlarmMainWaterIngress::GetValue(int, float &, int &, int &)
                                             30032324 
  PROAlarmMainWaterIngress::GetValue(int, float &, int &, int &)::??rA?FARFUNC_A
                                             30032324 
  PROAlarmMainWaterIngress::GetStringValue(int, TSNString &)
                                             300323A0 
  PROAlarmMainWaterIngress::GetStringValue(int, TSNString &)::??rA?FARFUNC_A
                                             300323A0 
  PROAlarmMainWaterIngress::PutFloatValue(int, float)
                                             300323B0 
  PROAlarmMainWaterIngress::PutFloatValue(int, float)::??rA?FARFUNC_A
                                             300323B0 
  PROAlarmMainWaterIngress::__vtbl           3006A140 
  __sti__routine()                           300320F0   LOCAL
PROAlarmOverfill ( F:\S2Prog\TXU\Release\Obj\PROAlarmOverfill.r79 )
  PROAlarmOverfill::~PROAlarmOverfill()
                                             300323C0 
  PROAlarmOverfill::~PROAlarmOverfill()::??rA?FARFUNC_A
                                             300323C0 
  PROAlarmOverfill::NumberOfAlarmSettings
                                             30A08174 
  PROAlarmOverfill::new PROAlarmOverfill(PRogramObjectBase *, bool)
                                             300324B4 
  PROAlarmOverfill::new PROAlarmOverfill(PRogramObjectBase *, bool)::??rA?FARFUNC_A
                                             300324B4 
  PROAlarmOverfill::PROAlarmOverfill(PRogramObjectBase *, bool)
                                             300324EC 
  PROAlarmOverfill::PROAlarmOverfill(PRogramObjectBase *, bool)::??rA?FARFUNC_A
                                             300324EC 
  PROAlarmOverfill::Get_Message()            3003254C 
  PROAlarmOverfill::Get_Message()::??rA?FARFUNC_A
                                             3003254C 
  PROAlarmOverfill::Check()                  30032568 
  PROAlarmOverfill::Check()::??rA?FARFUNC_A
                                             30032568 
  PROAlarmOverfill::PutValue(int, TSNString, bool)
                                             300325D8 
  PROAlarmOverfill::PutValue(int, TSNString, bool)::??rA?FARFUNC_A
                                             300325D8 
  PROAlarmOverfill::GetValue(int, float &, int &, int &)
                                             300326D4 
  PROAlarmOverfill::GetValue(int, float &, int &, int &)::??rA?FARFUNC_A
                                             300326D4 
  PROAlarmOverfill::GetStringValue(int, TSNString &)
                                             30032744 
  PROAlarmOverfill::GetStringValue(int, TSNString &)::??rA?FARFUNC_A
                                             30032744 
  PROAlarmOverfill::PutFloatValue(int, float)
                                             30032754 
  PROAlarmOverfill::PutFloatValue(int, float)::??rA?FARFUNC_A
                                             30032754 
  PROAlarmOverfill::__vtbl                   3006A184 
  __sti__routine()                           300323F0   LOCAL
PROAlarmPreWaterIngress ( F:\S2Prog\TXU\Release\Obj\PROAlarmPreWaterIngress.r79 )
  PROAlarmPreWaterIngress::~PROAlarmPreWaterIngress()
                                             30032764 
  PROAlarmPreWaterIngress::~PROAlarmPreWaterIngress()::??rA?FARFUNC_A
                                             30032764 
  PROAlarmPreWaterIngress::NumberOfAlarmSettings
                                             30A08238 
  PROAlarmPreWaterIngress::new PROAlarmPreWaterIngress(PRogramObjectBase *, bool)
                                             30032858 
  PROAlarmPreWaterIngress::new PROAlarmPreWaterIngress(PRogramObjectBase *, bool)::??rA?FARFUNC_A
                                             30032858 
  PROAlarmPreWaterIngress::PROAlarmPreWaterIngress(PRogramObjectBase *, bool)
                                             30032890 
  PROAlarmPreWaterIngress::PROAlarmPreWaterIngress(PRogramObjectBase *, bool)::??rA?FARFUNC_A
                                             30032890 
  PROAlarmPreWaterIngress::Get_Message()
                                             300328D8 
  PROAlarmPreWaterIngress::Get_Message()::??rA?FARFUNC_A
                                             300328D8 
  PROAlarmPreWaterIngress::Check()           300328F4 
  PROAlarmPreWaterIngress::Check()::??rA?FARFUNC_A
                                             300328F4 
  PROAlarmPreWaterIngress::PutValue(int, TSNString, bool)
                                             3003294C 
  PROAlarmPreWaterIngress::PutValue(int, TSNString, bool)::??rA?FARFUNC_A
                                             3003294C 
  PROAlarmPreWaterIngress::GetValue(int, float &, int &, int &)
                                             300329C8 
  PROAlarmPreWaterIngress::GetValue(int, float &, int &, int &)::??rA?FARFUNC_A
                                             300329C8 
  PROAlarmPreWaterIngress::GetStringValue(int, TSNString &)
                                             30032A44 
  PROAlarmPreWaterIngress::GetStringValue(int, TSNString &)::??rA?FARFUNC_A
                                             30032A44 
  PROAlarmPreWaterIngress::PutFloatValue(int, float)
                                             30032A54 
  PROAlarmPreWaterIngress::PutFloatValue(int, float)::??rA?FARFUNC_A
                                             30032A54 
  PROAlarmPreWaterIngress::__vtbl            3006A1C8 
  __sti__routine()                           30032794   LOCAL
PROAlarmSetting ( F:\S2Prog\TXU\Release\Obj\PROAlarmSetting.r79 )
  PROAlarmSetting::~PROAlarmSetting()
                                             30032A64 
  PROAlarmSetting::~PROAlarmSetting()::??rA?FARFUNC_A
                                             30032A64 
  PROAlarmSetting::PROAlarmSetting(PRogramObjectBase *, bool)
                                             30032B58 
  PROAlarmSetting::PROAlarmSetting(PRogramObjectBase *, bool)::??rA?FARFUNC_A
                                             30032B58 
  PROAlarmSetting::PROAlarmSetting(PRogramObjectBase *, float, float, bool)::??rA?FARFUNC_A
                                             30032B90 
  PROAlarmSetting::PROAlarmSetting(PRogramObjectBase *, float, float, bool)
                                             30032B90 
  PROAlarmSetting::PutValue(int, TSNString, bool)
                                             30032BCC 
  PROAlarmSetting::PutValue(int, TSNString, bool)::??rA?FARFUNC_A
                                             30032BCC 
  PROAlarmSetting::GetValue(int, float &, int &, int &)
                                             30032CB4 
  PROAlarmSetting::GetValue(int, float &, int &, int &)::??rA?FARFUNC_A
                                             30032CB4 
  PROAlarmSetting::GetStringValue(int, TSNString &)
                                             30032D18 
  PROAlarmSetting::GetStringValue(int, TSNString &)::??rA?FARFUNC_A
                                             30032D18 
  PROAlarmSetting::PutFloatValue(int, float)
                                             30032D28 
  PROAlarmSetting::PutFloatValue(int, float)::??rA?FARFUNC_A
                                             30032D28 
  PROAlarmSetting::ReceiveData(unsigned char *)
                                             30032D58 
  PROAlarmSetting::ReceiveData(unsigned char *)::??rA?FARFUNC_A
                                             30032D58 
  PROAlarmSetting::SendData(unsigned short)
                                             30033054 
  PROAlarmSetting::SendData(unsigned short)::??rA?FARFUNC_A
                                             30033054 
  PROAlarmSetting::__vtbl                    3006A20C 
  __sti__routine()                           30032A94   LOCAL
PROAlarmSettingBasic ( F:\S2Prog\TXU\Release\Obj\PROAlarmSettingBasic.r79 )
  PROAlarmSettingBasic::~PROAlarmSettingBasic()
                                             30033348 
  PROAlarmSettingBasic::~PROAlarmSettingBasic()::??rA?FARFUNC_A
                                             30033348 
  PROAlarmSettingBasic::m_NumberOfAlarmObjects
                                             30A083BC 
  PROAlarmSettingBasic::m_pAlarmObArray
                                             30A083C0 
  PROAlarmSettingBasic::CurrentAlarmNo
                                             30A0C3C0 
  PROAlarmSettingBasic::PROAlarmSettingBasic()
                                             3003343C 
  PROAlarmSettingBasic::PROAlarmSettingBasic()::??rA?FARFUNC_A
                                             3003343C 
  PROAlarmSettingBasic::PROAlarmSettingBasic(PRogramObjectBase *)::??rA?FARFUNC_A
                                             30033494 
  PROAlarmSettingBasic::PROAlarmSettingBasic(PRogramObjectBase *)
                                             30033494 
  PROAlarmSettingBasic::DistributeAlarms()
                                             30033514 
  PROAlarmSettingBasic::DistributeAlarms()::??rA?FARFUNC_A
                                             30033514 
  PROAlarmSettingBasic::Check()              3003356C 
  PROAlarmSettingBasic::Check()::??rA?FARFUNC_A
                                             3003356C 
  PROAlarmSettingBasic::AddAlarm()           30033570 
  PROAlarmSettingBasic::AddAlarm()::??rA?FARFUNC_A
                                             30033570 
  PROAlarmSettingBasic::RemoveAlarm()
                                             300335EC 
  PROAlarmSettingBasic::RemoveAlarm()::??rA?FARFUNC_A
                                             300335EC 
  PROAlarmSettingBasic::MoveAlarmToAknowledge()
                                             3003363C 
  PROAlarmSettingBasic::MoveAlarmToAknowledge()::??rA?FARFUNC_A
                                             3003363C 
  PROAlarmSettingBasic::Get_Message()
                                             300336C0 
  PROAlarmSettingBasic::Get_Message()::??rA?FARFUNC_A
                                             300336C0 
  PROAlarmSettingBasic::Get_TPCMessage()
                                             300336D4 
  PROAlarmSettingBasic::Get_TPCMessage()::??rA?FARFUNC_A
                                             300336D4 
  PROAlarmSettingBasic::Get_CompleteMessage()
                                             300336F4 
  PROAlarmSettingBasic::Get_CompleteMessage()::??rA?FARFUNC_A
                                             300336F4 
  PROAlarmSettingBasic::Get_Location()
                                             3003384C 
  PROAlarmSettingBasic::Get_Location()::??rA?FARFUNC_A
                                             3003384C 
  PROAlarmSettingBasic::GetRisedTime()
                                             3003388C 
  PROAlarmSettingBasic::GetRisedTime()::??rA?FARFUNC_A
                                             3003388C 
  PROAlarmSettingBasic::GetResetTime()
                                             300338D4 
  PROAlarmSettingBasic::GetResetTime()::??rA?FARFUNC_A
                                             300338D4 
  PROAlarmSettingBasic::GetValue(int, float &, int &, int &)
                                             30033940 
  PROAlarmSettingBasic::GetValue(int, float &, int &, int &)::??rA?FARFUNC_A
                                             30033940 
  PROAlarmSettingBasic::GetStringValue(int, TSNString &)
                                             30033948 
  PROAlarmSettingBasic::GetStringValue(int, TSNString &)::??rA?FARFUNC_A
                                             30033948 
  PROAlarmSettingBasic::PutValue(int, TSNString, bool)
                                             30033B70 
  PROAlarmSettingBasic::PutValue(int, TSNString, bool)::??rA?FARFUNC_A
                                             30033B70 
  PROAlarmSettingBasic::PutFloatValue(int, float)
                                             30033B78 
  PROAlarmSettingBasic::PutFloatValue(int, float)::??rA?FARFUNC_A
                                             30033B78 
  PROAlarmSettingBasic::AckAll()             30033B90 
  PROAlarmSettingBasic::AckAll()::??rA?FARFUNC_A
                                             30033B90 
  PROAlarmSettingBasic::CompareOnAlarmNo(PRogramObjectBase *, PRogramObjectBase *)
                                             30033C54 
  PROAlarmSettingBasic::CompareOnAlarmNo(PRogramObjectBase *, PRogramObjectBase *)::??rA?FARFUNC_A
                                             30033C54 
  PROAlarmSettingBasic::__vtbl               3006A27C 
  localtime::??rA?FARFUNC_A                  30033C70 
  strftime::??rA?FARFUNC_A                   30033C7C 
  __sti__routine()                           30033378   LOCAL
PROAlarmmAmpOpenLoop ( F:\S2Prog\TXU\Release\Obj\PROAlarmmAmpOpenLoop.r79 )
  __sti__routine()                           30033C88   LOCAL
PROAlarmmAmpShortCircuit ( F:\S2Prog\TXU\Release\Obj\PROAlarmmAmpShortCircuit.r79 )
  __sti__routine()                           30033D4C   LOCAL
PROAtmReference ( F:\S2Prog\TXU\Release\Obj\PROAtmReference.r79 )
  PROAtmReference::NumberOfPRO               30A0C604 
  PROAtmReference::new PROAtmReference()
                                             30033ED4 
  PROAtmReference::new PROAtmReference()::??rA?FARFUNC_A
                                             30033ED4 
  PROAtmReference::PROAtmReference()
                                             30033EFC 
  PROAtmReference::PROAtmReference()::??rA?FARFUNC_A
                                             30033EFC 
  PROAtmReference::~PROAtmReference()
                                             30033F50 
  PROAtmReference::~PROAtmReference()::??rA?FARFUNC_A
                                             30033F50 
  PROAtmReference::WriteConfigToFile(TSNConfigString &)
                                             30033FB0 
  PROAtmReference::WriteConfigToFile(TSNConfigString &)::??rA?FARFUNC_A
                                             30033FB0 
  PROAtmReference::LoadConfigFromFile(TSNConfigString &)
                                             30034298 
  PROAtmReference::LoadConfigFromFile(TSNConfigString &)::??rA?FARFUNC_A
                                             30034298 
  PROAtmReference::GetValue(int, float &, int &, int &)
                                             300346F8 
  PROAtmReference::GetValue(int, float &, int &, int &)::??rA?FARFUNC_A
                                             300346F8 
  PROAtmReference::GetStringValue(int, TSNString &)
                                             30034780 
  PROAtmReference::GetStringValue(int, TSNString &)::??rA?FARFUNC_A
                                             30034780 
  PROAtmReference::PutValue(int, TSNString, bool)
                                             30034790 
  PROAtmReference::PutValue(int, TSNString, bool)::??rA?FARFUNC_A
                                             30034790 
  PROAtmReference::PutFloatValue(int, float)
                                             300348A0 
  PROAtmReference::PutFloatValue(int, float)::??rA?FARFUNC_A
                                             300348A0 
  PROAtmReference::GetValueInfoTable(int &)
                                             300348B0 
  PROAtmReference::GetValueInfoTable(int &)::??rA?FARFUNC_A
                                             300348B0 
  PROAtmReference::__vtbl                    3006A2C8 
  __sti__routine()                           30033E10   LOCAL
PROBallastTank ( F:\S2Prog\TXU\Release\Obj\PROBallastTank.r79 )
  PROBallastTank::new PROBallastTank(int, int)::??rA?FARFUNC_A
                                             300348BC 
  PROBallastTank::new PROBallastTank(int, int)
                                             300348BC 
  PROBallastTank::~PROBallastTank()
                                             300349CC 
  PROBallastTank::~PROBallastTank()::??rA?FARFUNC_A
                                             300349CC 
  PROBallastTank::__vtbl                     3006A308 
  __sti__routine()                           30034908   LOCAL
PROCargoTank ( F:\S2Prog\TXU\Release\Obj\PROCargoTank.r79 )
  PROCargoTank::new PROCargoTank(int, int)::??rA?FARFUNC_A
                                             300349FC 
  PROCargoTank::new PROCargoTank(int, int)
                                             300349FC 
  PROCargoTank::~PROCargoTank()              30034B0C 
  PROCargoTank::~PROCargoTank()::??rA?FARFUNC_A
                                             30034B0C 
  PROCargoTank::__vtbl                       3006A348 
  __sti__routine()                           30034A48   LOCAL
PROControl ( F:\S2Prog\TXU\Release\Obj\PROControl.r79 )
  PROControl::NumberOfPRO                    30A0C848 
  PROControl::PROControl()                   30034C00 
  PROControl::PROControl()::??rA?FARFUNC_A
                                             30034C00 
  PROControl::~PROControl()                  30034C70 
  PROControl::~PROControl()::??rA?FARFUNC_A
                                             30034C70 
  PROControl::Update()                       30034CA0 
  PROControl::Update()::??rA?FARFUNC_A
                                             30034CA0 
  PROControl::Activate()                     30034CA4 
  PROControl::Activate()::??rA?FARFUNC_A
                                             30034CA4 
  PROControl::Activate(int)::??rA?FARFUNC_A
                                             30034CA8 
  PROControl::Activate(int)                  30034CA8 
  PROControl::DeActivate()                   30034CAC 
  PROControl::DeActivate()::??rA?FARFUNC_A
                                             30034CAC 
  PROControl::__vtbl                         3006A388 
  __sti__routine()                           30034B3C   LOCAL
PRODraft ( F:\S2Prog\TXU\Release\Obj\PRODraft.r79 )
  PRODraft::NumberOfPRO                      30A0C90C 
  PRODraft::new PRODraft()                   30034D74 
  PRODraft::new PRODraft()::??rA?FARFUNC_A
                                             30034D74 
  PRODraft::PRODraft()                       30034D9C 
  PRODraft::PRODraft()::??rA?FARFUNC_A
                                             30034D9C 
  PRODraft::~PRODraft()                      30034DF8 
  PRODraft::~PRODraft()::??rA?FARFUNC_A
                                             30034DF8 
  PRODraft::WriteConfigToFile(TSNConfigString &)
                                             30034F20 
  PRODraft::WriteConfigToFile(TSNConfigString &)::??rA?FARFUNC_A
                                             30034F20 
  PRODraft::LoadConfigFromFile(TSNConfigString &)
                                             3003521C 
  PRODraft::LoadConfigFromFile(TSNConfigString &)::??rA?FARFUNC_A
                                             3003521C 
  PRODraft::GetValue(int, float &, int &, int &)
                                             300356A4 
  PRODraft::GetValue(int, float &, int &, int &)::??rA?FARFUNC_A
                                             300356A4 
  PRODraft::GetStringValue(int, TSNString &)
                                             300356C0 
  PRODraft::GetStringValue(int, TSNString &)::??rA?FARFUNC_A
                                             300356C0 
  PRODraft::PutValue(int, TSNString, bool)
                                             300356D0 
  PRODraft::PutValue(int, TSNString, bool)::??rA?FARFUNC_A
                                             300356D0 
  PRODraft::PutFloatValue(int, float)
                                             3003574C 
  PRODraft::PutFloatValue(int, float)::??rA?FARFUNC_A
                                             3003574C 
  PRODraft::GetValueInfoTable(int &)
                                             3003575C 
  PRODraft::GetValueInfoTable(int &)::??rA?FARFUNC_A
                                             3003575C 
  PRODraft::__vtbl                           3006A3D0 
  __sti__routine()                           30034CB0   LOCAL
PROIOComponent ( F:\S2Prog\TXU\Release\Obj\PROIOComponent.r79 )
  PROIOComponent::PROIOComponent()           3003582C 
  PROIOComponent::PROIOComponent()::??rA?FARFUNC_A
                                             3003582C 
  PROIOComponent::~PROIOComponent()
                                             30035860 
  PROIOComponent::~PROIOComponent()::??rA?FARFUNC_A
                                             30035860 
  PROIOComponent::MakeConfigString(TSNConfigString &)
                                             300358A4 
  PROIOComponent::MakeConfigString(TSNConfigString &)::??rA?FARFUNC_A
                                             300358A4 
  PROIOComponent::LoadConfigString(TSNConfigString &)
                                             300358C0 
  PROIOComponent::LoadConfigString(TSNConfigString &)::??rA?FARFUNC_A
                                             300358C0 
  PROIOComponent::GetValue(int, float &, int &, int &)
                                             300358C8 
  PROIOComponent::GetValue(int, float &, int &, int &)::??rA?FARFUNC_A
                                             300358C8 
  PROIOComponent::GetStringValue(int, TSNString &)
                                             300358E4 
  PROIOComponent::GetStringValue(int, TSNString &)::??rA?FARFUNC_A
                                             300358E4 
  PROIOComponent::PutValue(int, TSNString, bool)
                                             300358F4 
  PROIOComponent::PutValue(int, TSNString, bool)::??rA?FARFUNC_A
                                             300358F4 
  PROIOComponent::PutFloatValue(int, float)
                                             30035970 
  PROIOComponent::PutFloatValue(int, float)::??rA?FARFUNC_A
                                             30035970 
  PROIOComponent::Calculate()                30035980 
  PROIOComponent::Calculate()::??rA?FARFUNC_A
                                             30035980 
  PROIOComponent::NewValue(float, unsigned char)
                                             30035988 
  PROIOComponent::NewValue(float, unsigned char)::??rA?FARFUNC_A
                                             30035988 
  PROIOComponent::__vtbl                     3006A410 
  __sti__routine()                           30035768   LOCAL
PROInclinometer ( F:\S2Prog\TXU\Release\Obj\PROInclinometer.r79 )
  PROInclinometer::NumberOfPRO               30A0CA90 
  PROInclinometer::new PROInclinometer()
                                             30035A50 
  PROInclinometer::new PROInclinometer()::??rA?FARFUNC_A
                                             30035A50 
  PROInclinometer::PROInclinometer()
                                             30035A78 
  PROInclinometer::PROInclinometer()::??rA?FARFUNC_A
                                             30035A78 
  PROInclinometer::~PROInclinometer()
                                             30035AE8 
  PROInclinometer::~PROInclinometer()::??rA?FARFUNC_A
                                             30035AE8 
  PROInclinometer::WriteConfigToFile(TSNConfigString &)
                                             30035B70 
  PROInclinometer::WriteConfigToFile(TSNConfigString &)::??rA?FARFUNC_A
                                             30035B70 
  PROInclinometer::LoadConfigFromFile(TSNConfigString &)
                                             30036204 
  PROInclinometer::LoadConfigFromFile(TSNConfigString &)::??rA?FARFUNC_A
                                             30036204 
  PROInclinometer::GetValue(int, float &, int &, int &)
                                             30036624 
  PROInclinometer::GetValue(int, float &, int &, int &)::??rA?FARFUNC_A
                                             30036624 
  PROInclinometer::GetStringValue(int, TSNString &)
                                             30036640 
  PROInclinometer::GetStringValue(int, TSNString &)::??rA?FARFUNC_A
                                             30036640 
  PROInclinometer::PutValue(int, TSNString, bool)
                                             30036650 
  PROInclinometer::PutValue(int, TSNString, bool)::??rA?FARFUNC_A
                                             30036650 
  PROInclinometer::PutFloatValue(int, float)
                                             300366CC 
  PROInclinometer::PutFloatValue(int, float)::??rA?FARFUNC_A
                                             300366CC 
  PROInclinometer::GetValueInfoTable(int &)
                                             300366DC 
  PROInclinometer::GetValueInfoTable(int &)::??rA?FARFUNC_A
                                             300366DC 
  PROInclinometer::__vtbl                    3006A450 
  __sti__routine()                           3003598C   LOCAL
PROLinkedList ( F:\S2Prog\TXU\Release\Obj\PROLinkedList.r79 )
  PROLinkedList::new PROLinkedList(bool)
                                             300367AC 
  PROLinkedList::new PROLinkedList(bool)::??rA?FARFUNC_A
                                             300367AC 
  PROLinkedList::delete ~PROLinkedList(PROLinkedList *)
                                             300367DC 
  PROLinkedList::delete ~PROLinkedList(PROLinkedList *)::??rA?FARFUNC_A
                                             300367DC 
  PROLinkedList::~PROLinkedList()            30036800 
  PROLinkedList::~PROLinkedList()::??rA?FARFUNC_A
                                             30036800 
  PROLinkedList::PROLinkedList(bool)
                                             30036840 
  PROLinkedList::PROLinkedList(bool)::??rA?FARFUNC_A
                                             30036840 
  PROLinkedList::Protect()                   300368EC 
  PROLinkedList::Protect()::??rA?FARFUNC_A
                                             300368EC 
  PROLinkedList::UnProtect()                 30036910 
  PROLinkedList::UnProtect()::??rA?FARFUNC_A
                                             30036910 
  PROLinkedList::Size()                      30036934 
  PROLinkedList::Size()::??rA?FARFUNC_A
                                             30036934 
  PROLinkedList::isEmty()                    30036948 
  PROLinkedList::isEmty()::??rA?FARFUNC_A
                                             30036948 
  PROLinkedList::insertFirst(PRogramObjectBase *)
                                             3003696C 
  PROLinkedList::insertFirst(PRogramObjectBase *)::??rA?FARFUNC_A
                                             3003696C 
  PROLinkedList::insertLast(PRogramObjectBase *)
                                             300369EC 
  PROLinkedList::insertLast(PRogramObjectBase *)::??rA?FARFUNC_A
                                             300369EC 
  PROLinkedList::insertInOrder(PRogramObjectBase *)
                                             30036A78 
  PROLinkedList::insertInOrder(PRogramObjectBase *)::??rA?FARFUNC_A
                                             30036A78 
  PROLinkedList::insertInOrderIfUnique(PRogramObjectBase *)
                                             30036B18 
  PROLinkedList::insertInOrderIfUnique(PRogramObjectBase *)::??rA?FARFUNC_A
                                             30036B18 
  PROLinkedList::getHead()                   30036BD8 
  PROLinkedList::getHead()::??rA?FARFUNC_A
                                             30036BD8 
  PROLinkedList::getTail()                   30036BE4 
  PROLinkedList::getTail()::??rA?FARFUNC_A
                                             30036BE4 
  PROLinkedList::removeNode(PRONode *)
                                             30036BF0 
  PROLinkedList::removeNode(PRONode *)::??rA?FARFUNC_A
                                             30036BF0 
  PROLinkedList::removeNode(PRogramObjectBase *)::??rA?FARFUNC_A
                                             30036C80 
  PROLinkedList::removeNode(PRogramObjectBase *)
                                             30036C80 
  PROLinkedList::FindNodeBefore(PRogramObjectBase *)
                                             30036CE0 
  PROLinkedList::FindNodeBefore(PRogramObjectBase *)::??rA?FARFUNC_A
                                             30036CE0 
  PROLinkedList::CompareElement(PRogramObjectBase *, PRogramObjectBase *)
                                             30036D70 
  PROLinkedList::CompareElement(PRogramObjectBase *, PRogramObjectBase *)::??rA?FARFUNC_A
                                             30036D70 
  PROLinkedList::IsUnique(PRogramObjectBase *)
                                             30036D98 
  PROLinkedList::IsUnique(PRogramObjectBase *)::??rA?FARFUNC_A
                                             30036D98 
  PROLinkedList::IsEqual(PRogramObjectBase *, PRogramObjectBase *)
                                             30036E1C 
  PROLinkedList::IsEqual(PRogramObjectBase *, PRogramObjectBase *)::??rA?FARFUNC_A
                                             30036E1C 
  PROLinkedList::FindNode(PRogramObjectBase *)
                                             30036E5C 
  PROLinkedList::FindNode(PRogramObjectBase *)::??rA?FARFUNC_A
                                             30036E5C 
  __sti__routine()                           300366E8   LOCAL
PRONode ( F:\S2Prog\TXU\Release\Obj\PRONode.r79 )
  PRONode::new PRONode(PRogramObjectBase *, PRONode *, PRONode *)::??rA?FARFUNC_A
                                             30036EF8 
  PRONode::new PRONode(PRogramObjectBase *, PRONode *, PRONode *)
                                             30036EF8 
  PRONode::PRONode()                         30037000 
  PRONode::PRONode()::??rA?FARFUNC_A
                                             30037000 
  PRONode::setElement(PRogramObjectBase *)
                                             30037014 
  PRONode::setElement(PRogramObjectBase *)::??rA?FARFUNC_A
                                             30037014 
  PRONode::setNext(PRONode *)                3003701C 
  PRONode::setNext(PRONode *)::??rA?FARFUNC_A
                                             3003701C 
  PRONode::setPrev(PRONode *)                30037024 
  PRONode::setPrev(PRONode *)::??rA?FARFUNC_A
                                             30037024 
  PRONode::getElement()                      3003702C 
  PRONode::getElement()::??rA?FARFUNC_A
                                             3003702C 
  PRONode::getNext()                         30037038 
  PRONode::getNext()::??rA?FARFUNC_A
                                             30037038 
  PRONode::getPrev()                         30037044 
  PRONode::getPrev()::??rA?FARFUNC_A
                                             30037044 
  PRONode::new PRONode()                     30037050 
  PRONode::new PRONode()::??rA?FARFUNC_A
                                             30037050 
  PRONode::delete ~PRONode(PRONode *)
                                             30037078 
  PRONode::delete ~PRONode(PRONode *)::??rA?FARFUNC_A
                                             30037078 
  __sti__routine()                           30036F3C   LOCAL
PROProjectInfo ( F:\S2Prog\TXU\Release\Obj\PROProjectInfo.r79 )
  PROProjectInfo::NumberOfPRO                30A0CCD4 
  PROProjectInfo::new PROProjectInfo()
                                             30037150 
  PROProjectInfo::new PROProjectInfo()::??rA?FARFUNC_A
                                             30037150 
  PROProjectInfo::PROProjectInfo()           30037178 
  PROProjectInfo::PROProjectInfo()::??rA?FARFUNC_A
                                             30037178 
  PROProjectInfo::~PROProjectInfo()
                                             30037310 
  PROProjectInfo::~PROProjectInfo()::??rA?FARFUNC_A
                                             30037310 
  PROProjectInfo::WriteConfigToFile(TSNConfigString &)
                                             300373CC 
  PROProjectInfo::WriteConfigToFile(TSNConfigString &)::??rA?FARFUNC_A
                                             300373CC 
  PROProjectInfo::LoadConfigFromFile(TSNConfigString &)
                                             30037E18 
  PROProjectInfo::LoadConfigFromFile(TSNConfigString &)::??rA?FARFUNC_A
                                             30037E18 
  PROProjectInfo::GetValue(int, float &, int &, int &)
                                             300383E0 
  PROProjectInfo::GetValue(int, float &, int &, int &)::??rA?FARFUNC_A
                                             300383E0 
  PROProjectInfo::GetStringValue(int, TSNString &)
                                             300383FC 
  PROProjectInfo::GetStringValue(int, TSNString &)::??rA?FARFUNC_A
                                             300383FC 
  PROProjectInfo::PutValue(int, TSNString, bool)
                                             3003840C 
  PROProjectInfo::PutValue(int, TSNString, bool)::??rA?FARFUNC_A
                                             3003840C 
  PROProjectInfo::PutFloatValue(int, float)
                                             30038488 
  PROProjectInfo::PutFloatValue(int, float)::??rA?FARFUNC_A
                                             30038488 
  PROProjectInfo::GetValueInfoTable(int &)
                                             30038498 
  PROProjectInfo::GetValueInfoTable(int &)::??rA?FARFUNC_A
                                             30038498 
  PROProjectInfo::__vtbl                     3006A4A0 
  __sti__routine()                           3003708C   LOCAL
PROServiceTank ( F:\S2Prog\TXU\Release\Obj\PROServiceTank.r79 )
  PROServiceTank::new PROServiceTank(int, int)::??rA?FARFUNC_A
                                             300384A4 
  PROServiceTank::new PROServiceTank(int, int)
                                             300384A4 
  PROServiceTank::~PROServiceTank()
                                             300385B4 
  PROServiceTank::~PROServiceTank()::??rA?FARFUNC_A
                                             300385B4 
  PROServiceTank::__vtbl                     3006A4D8 
  __sti__routine()                           300384F0   LOCAL
PROSystemData ( F:\S2Prog\TXU\Release\Obj\PROSystemData.r79 )
  PROSystemData::~PROSystemData()            300385E4 
  PROSystemData::~PROSystemData()::??rA?FARFUNC_A
                                             300385E4 
  TSNString::~TSNString()                    30038614 
  TSNString::~TSNString()::??rA?FARFUNC_A
                                             30038614 
  PROSystemData::new PROSystemData(enum UnitSystems, int)
                                             3003870C 
  PROSystemData::new PROSystemData(enum UnitSystems, int)::??rA?FARFUNC_A
                                             3003870C 
  PROSystemData::PROSystemData(enum UnitSystems, int)
                                             30038744 
  PROSystemData::PROSystemData(enum UnitSystems, int)::??rA?FARFUNC_A
                                             30038744 
  PROSystemData::GetValue(int, float &, int &, int &)
                                             300387C0 
  PROSystemData::GetValue(int, float &, int &, int &)::??rA?FARFUNC_A
                                             300387C0 
  PROSystemData::GetStringValue(int, TSNString &)
                                             3003880C 
  PROSystemData::GetStringValue(int, TSNString &)::??rA?FARFUNC_A
                                             3003880C 
  PROSystemData::PutValue(int, TSNString, bool)
                                             30038A38 
  PROSystemData::PutValue(int, TSNString, bool)::??rA?FARFUNC_A
                                             30038A38 
  PROSystemData::__vtbl                      3006A518 
  __sti__routine()                           30038648   LOCAL
PROTank ( F:\S2Prog\TXU\Release\Obj\PROTank.r79 )
  PROTank::NumberOfPRO                       30A0CF18 
  PROTank::GravityCorrection                 30A00058 
  PROTank::List                              30A00060 
  PROTank::SeaWaterTemp                      30A00064 
  PROTank::Trim                              30A0005C 
  PROTank::PROTank(int, int)::??rA?FARFUNC_A
                                             30038B84 
  PROTank::PROTank(int, int)                 30038B84 
  PROTank::~PROTank()                        30038C5C 
  PROTank::~PROTank()::??rA?FARFUNC_A
                                             30038C5C 
  PROTank::InitValues()                      30038DC0 
  PROTank::InitValues()::??rA?FARFUNC_A
                                             30038DC0 
  PROTank::FindTankType(int)                 30038F08 
  PROTank::FindTankType(int)::??rA?FARFUNC_A
                                             30038F08 
  PROTank::CheckForTPAndTemp()               30038F70 
  PROTank::CheckForTPAndTemp()::??rA?FARFUNC_A
                                             30038F70 
  PROTank::SortAnalogInputs()                30039390 
  PROTank::SortAnalogInputs()::??rA?FARFUNC_A
                                             30039390 
  PROTank::WriteConfigToFile(TSNConfigString &)
                                             300394A0 
  PROTank::WriteConfigToFile(TSNConfigString &)::??rA?FARFUNC_A
                                             300394A0 
  PROTank::LoadConfigFromFile(TSNConfigString &)
                                             3003A23C 
  PROTank::LoadConfigFromFile(TSNConfigString &)::??rA?FARFUNC_A
                                             3003A23C 
  PROTank::GetValue(int, float &, int &, int &)
                                             3003A904 
  PROTank::GetValue(int, float &, int &, int &)::??rA?FARFUNC_A
                                             3003A904 
  PROTank::GetStringValue(int, TSNString &)
                                             3003AEDC 
  PROTank::GetStringValue(int, TSNString &)::??rA?FARFUNC_A
                                             3003AEDC 
  PROTank::PutValue(int, TSNString, bool)
                                             3003AEE8 
  PROTank::PutValue(int, TSNString, bool)::??rA?FARFUNC_A
                                             3003AEE8 
  PROTank::PutFloatValue(int, float)
                                             3003B870 
  PROTank::PutFloatValue(int, float)::??rA?FARFUNC_A
                                             3003B870 
  PROTank::GetValueInfoTable(int &)
                                             3003B87C 
  PROTank::GetValueInfoTable(int &)::??rA?FARFUNC_A
                                             3003B87C 
  PROTank::Vcf_Calc(float)                   3003B898 
  PROTank::Vcf_Calc(float)::??rA?FARFUNC_A
                                             3003B898 
  PROTank::Comp_Density(float)               3003B984 
  PROTank::Comp_Density(float)::??rA?FARFUNC_A
                                             3003B984 
  PROTank::FindDns(float, float, float (__atpcs __interwork *)(float, float))
                                             3003BA18 
  PROTank::FindDns(float, float, float (__atpcs __interwork *)(float, float))::??rA?FARFUNC_A
                                             3003BA18 
  PROTank::Dns_at_T_to_RefDns(float, float)
                                             3003BAA4 
  PROTank::Dns_at_T_to_RefDns(float, float)::??rA?FARFUNC_A
                                             3003BAA4 
  PROTank::OD1_Input(float)                  3003BB7C 
  PROTank::OD1_Input(float)::??rA?FARFUNC_A
                                             3003BB7C 
  PROTank::OD2_Input(float)                  3003BE74 
  PROTank::OD2_Input(float)::??rA?FARFUNC_A
                                             3003BE74 
  PROTank::RefTmp1_Input(float)              3003C0F8 
  PROTank::RefTmp1_Input(float)::??rA?FARFUNC_A
                                             3003C0F8 
  PROTank::RefTmp2_Input(float)              3003C1FC 
  PROTank::RefTmp2_Input(float)::??rA?FARFUNC_A
                                             3003C1FC 
  PROTank::Handle_New_Coeff(float)           3003C380 
  PROTank::Handle_New_Coeff(float)::??rA?FARFUNC_A
                                             3003C380 
  PROTank::Coeff_Input(float)                3003C41C 
  PROTank::Coeff_Input(float)::??rA?FARFUNC_A
                                             3003C41C 
  PROTank::OpDns_to_API(bool &)              3003C498 
  PROTank::OpDns_to_API(bool &)::??rA?FARFUNC_A
                                             3003C498 
  PROTank::Input_Cargo_Type(int)             3003C4CC 
  PROTank::Input_Cargo_Type(int)::??rA?FARFUNC_A
                                             3003C4CC 
  PROTank::Input_API(float)                  3003C7A0 
  PROTank::Input_API(float)::??rA?FARFUNC_A
                                             3003C7A0 
  PROTank::LR_Calc(float)                    3003C950 
  PROTank::LR_Calc(float)::??rA?FARFUNC_A
                                             3003C950 
  PROTank::Calculate()                       3003CACC 
  PROTank::Calculate()::??rA?FARFUNC_A
                                             3003CACC 
  PROTank::SimCalculate()                    3003D1B8 
  PROTank::SimCalculate()::??rA?FARFUNC_A
                                             3003D1B8 
  PROTank::ReceiveData(unsigned char *)
                                             3003D32C 
  PROTank::ReceiveData(unsigned char *)::??rA?FARFUNC_A
                                             3003D32C 
  PROTank::SendData(unsigned short)
                                             3003D580 
  PROTank::SendData(unsigned short)::??rA?FARFUNC_A
                                             3003D580 
  PROTank::__vtbl                            3006A570 
  __dGreaterEqual::??rA?FARFUNC_A            3003D738 
  __floatToLong::??rA?FARFUNC_A              3003D744 
  fabsf::??rA?FARFUNC_A                      3003D750 
  __fEqual::??rA?FARFUNC_A                   3003D75C 
  difftime::??rA?FARFUNC_A                   3003D768 
  rand::??rA?FARFUNC_A                       3003D774 
  __sti__routine()                           30038AC0   LOCAL
PROTankPressure ( F:\S2Prog\TXU\Release\Obj\PROTankPressure.r79 )
  PROTankPressure::NumberOfPRO               30A0CFDC 
  PROTankPressure::new PROTankPressure(int)
                                             3003D780 
  PROTankPressure::new PROTankPressure(int)::??rA?FARFUNC_A
                                             3003D780 
  PROTankPressure::new PROTankPressure()::??rA?FARFUNC_A
                                             3003D874 
  PROTankPressure::new PROTankPressure()
                                             3003D874 
  PROTankPressure::PROTankPressure()
                                             3003D89C 
  PROTankPressure::PROTankPressure()::??rA?FARFUNC_A
                                             3003D89C 
  PROTankPressure::PROTankPressure(int)::??rA?FARFUNC_A
                                             3003D934 
  PROTankPressure::PROTankPressure(int)
                                             3003D934 
  PROTankPressure::~PROTankPressure()
                                             3003D9E0 
  PROTankPressure::~PROTankPressure()::??rA?FARFUNC_A
                                             3003D9E0 
  PROTankPressure::WriteConfigToFile(TSNConfigString &)
                                             3003DA7C 
  PROTankPressure::WriteConfigToFile(TSNConfigString &)::??rA?FARFUNC_A
                                             3003DA7C 
  PROTankPressure::LoadConfigFromFile(TSNConfigString &)
                                             3003DD28 
  PROTankPressure::LoadConfigFromFile(TSNConfigString &)::??rA?FARFUNC_A
                                             3003DD28 
  PROTankPressure::GetValue(int, float &, int &, int &)
                                             3003E024 
  PROTankPressure::GetValue(int, float &, int &, int &)::??rA?FARFUNC_A
                                             3003E024 
  PROTankPressure::GetStringValue(int, TSNString &)
                                             3003E1B4 
  PROTankPressure::GetStringValue(int, TSNString &)::??rA?FARFUNC_A
                                             3003E1B4 
  PROTankPressure::PutValue(int, TSNString, bool)
                                             3003E1C4 
  PROTankPressure::PutValue(int, TSNString, bool)::??rA?FARFUNC_A
                                             3003E1C4 
  PROTankPressure::PutFloatValue(int, float)
                                             3003E4F8 
  PROTankPressure::PutFloatValue(int, float)::??rA?FARFUNC_A
                                             3003E4F8 
  PROTankPressure::GetValueInfoTable(int &)
                                             3003E508 
  PROTankPressure::GetValueInfoTable(int &)::??rA?FARFUNC_A
                                             3003E508 
  PROTankPressure::Calculate()               3003E524 
  PROTankPressure::Calculate()::??rA?FARFUNC_A
                                             3003E524 
  PROTankPressure::SimCalculate()            3003E604 
  PROTankPressure::SimCalculate()::??rA?FARFUNC_A
                                             3003E604 
  PROTankPressure::ReceiveData(unsigned char *)
                                             3003E6E8 
  PROTankPressure::ReceiveData(unsigned char *)::??rA?FARFUNC_A
                                             3003E6E8 
  PROTankPressure::SendData(unsigned short)
                                             3003E774 
  PROTankPressure::SendData(unsigned short)::??rA?FARFUNC_A
                                             3003E774 
  PROTankPressure::__vtbl                    3006A5B0 
  __sti__routine()                           3003D7B0   LOCAL
PROTanksystemUnit ( F:\S2Prog\TXU\Release\Obj\PROTanksystemUnit.r79 )
  PROTanksystemUnit::NumberOfPRO             30A0D0A0 
  PROTanksystemUnit::MySelf                  30A0D0A4 
  PROTanksystemUnit::new PROTanksystemUnit()
                                             3003E7F0 
  PROTanksystemUnit::new PROTanksystemUnit()::??rA?FARFUNC_A
                                             3003E7F0 
  PROTanksystemUnit::PROTanksystemUnit()::??rA?FARFUNC_A
                                             3003E8DC 
  PROTanksystemUnit::PROTanksystemUnit()
                                             3003E8DC 
  PROTanksystemUnit::~PROTanksystemUnit()
                                             3003E96C 
  PROTanksystemUnit::~PROTanksystemUnit()::??rA?FARFUNC_A
                                             3003E96C 
  PROTanksystemUnit::SetKeyFromUart()
                                             3003E9EC 
  PROTanksystemUnit::SetKeyFromUart()::??rA?FARFUNC_A
                                             3003E9EC 
  PROTanksystemUnit::WriteConfigToFile(TSNConfigString &)
                                             3003EB98 
  PROTanksystemUnit::WriteConfigToFile(TSNConfigString &)::??rA?FARFUNC_A
                                             3003EB98 
  PROTanksystemUnit::LoadConfigFromFile(TSNConfigString &)
                                             3003EF48 
  PROTanksystemUnit::LoadConfigFromFile(TSNConfigString &)::??rA?FARFUNC_A
                                             3003EF48 
  PROTanksystemUnit::GetValue(int, float &, int &, int &)
                                             3003F2EC 
  PROTanksystemUnit::GetValue(int, float &, int &, int &)::??rA?FARFUNC_A
                                             3003F2EC 
  PROTanksystemUnit::GetStringValue(int, TSNString &)
                                             3003F308 
  PROTanksystemUnit::GetStringValue(int, TSNString &)::??rA?FARFUNC_A
                                             3003F308 
  PROTanksystemUnit::PutValue(int, TSNString, bool)
                                             3003F318 
  PROTanksystemUnit::PutValue(int, TSNString, bool)::??rA?FARFUNC_A
                                             3003F318 
  PROTanksystemUnit::PutFloatValue(int, float)
                                             3003F394 
  PROTanksystemUnit::PutFloatValue(int, float)::??rA?FARFUNC_A
                                             3003F394 
  PROTanksystemUnit::SysInfoTask()           3003F3A4 
  PROTanksystemUnit::SysInfoTask()::??rA?FARFUNC_A
                                             3003F3A4 
  PROTanksystemUnit::__vtbl                  3006A5F0 
  __sti__routine()                           3003E818   LOCAL
PROTemperature ( F:\S2Prog\TXU\Release\Obj\PROTemperature.r79 )
  PROTemperature::NumberOfPRO                30A0D168 
  PROTemperature::new PROTemperature(int)
                                             3003F418 
  PROTemperature::new PROTemperature(int)::??rA?FARFUNC_A
                                             3003F418 
  PROTemperature::new PROTemperature()::??rA?FARFUNC_A
                                             3003F50C 
  PROTemperature::new PROTemperature()
                                             3003F50C 
  PROTemperature::PROTemperature()           3003F534 
  PROTemperature::PROTemperature()::??rA?FARFUNC_A
                                             3003F534 
  PROTemperature::PROTemperature(int)::??rA?FARFUNC_A
                                             3003F5D0 
  PROTemperature::PROTemperature(int)
                                             3003F5D0 
  PROTemperature::~PROTemperature()
                                             3003F680 
  PROTemperature::~PROTemperature()::??rA?FARFUNC_A
                                             3003F680 
  PROTemperature::WriteConfigToFile(TSNConfigString &)
                                             3003F71C 
  PROTemperature::WriteConfigToFile(TSNConfigString &)::??rA?FARFUNC_A
                                             3003F71C 
  PROTemperature::LoadConfigFromFile(TSNConfigString &)
                                             3003F9C8 
  PROTemperature::LoadConfigFromFile(TSNConfigString &)::??rA?FARFUNC_A
                                             3003F9C8 
  PROTemperature::GetValue(int, float &, int &, int &)
                                             3003FCD8 
  PROTemperature::GetValue(int, float &, int &, int &)::??rA?FARFUNC_A
                                             3003FCD8 
  PROTemperature::GetStringValue(int, TSNString &)
                                             3003FE68 
  PROTemperature::GetStringValue(int, TSNString &)::??rA?FARFUNC_A
                                             3003FE68 
  PROTemperature::PutValue(int, TSNString, bool)
                                             3003FE78 
  PROTemperature::PutValue(int, TSNString, bool)::??rA?FARFUNC_A
                                             3003FE78 
  PROTemperature::PutFloatValue(int, float)
                                             300401AC 
  PROTemperature::PutFloatValue(int, float)::??rA?FARFUNC_A
                                             300401AC 
  PROTemperature::GetValueInfoTable(int &)
                                             300401BC 
  PROTemperature::GetValueInfoTable(int &)::??rA?FARFUNC_A
                                             300401BC 
  PROTemperature::ReceiveData(unsigned char *)
                                             300401D8 
  PROTemperature::ReceiveData(unsigned char *)::??rA?FARFUNC_A
                                             300401D8 
  PROTemperature::SendData(unsigned short)
                                             30040264 
  PROTemperature::SendData(unsigned short)::??rA?FARFUNC_A
                                             30040264 
  PROTemperature::Calculate()                300402E4 
  PROTemperature::Calculate()::??rA?FARFUNC_A
                                             300402E4 
  PROTemperature::SimCalculate()             300404DC 
  PROTemperature::SimCalculate()::??rA?FARFUNC_A
                                             300404DC 
  PROTemperature::__vtbl                     3006A628 
  __sti__routine()                           3003F448   LOCAL
PROWaterIngress ( F:\S2Prog\TXU\Release\Obj\PROWaterIngress.r79 )
  PROWaterIngress::NumberOfPRO               30A0D22C 
  PROWaterIngress::new PROWaterIngress(int)
                                             3004059C 
  PROWaterIngress::new PROWaterIngress(int)::??rA?FARFUNC_A
                                             3004059C 
  PROWaterIngress::PROWaterIngress(int)::??rA?FARFUNC_A
                                             30040690 
  PROWaterIngress::PROWaterIngress(int)
                                             30040690 
  PROWaterIngress::~PROWaterIngress()
                                             30040770 
  PROWaterIngress::~PROWaterIngress()::??rA?FARFUNC_A
                                             30040770 
  PROWaterIngress::WriteConfigToFile(TSNConfigString &)
                                             3004085C 
  PROWaterIngress::WriteConfigToFile(TSNConfigString &)::??rA?FARFUNC_A
                                             3004085C 
  PROWaterIngress::LoadConfigFromFile(TSNConfigString &)
                                             30040B40 
  PROWaterIngress::LoadConfigFromFile(TSNConfigString &)::??rA?FARFUNC_A
                                             30040B40 
  PROWaterIngress::GetValue(int, float &, int &, int &)
                                             30040E00 
  PROWaterIngress::GetValue(int, float &, int &, int &)::??rA?FARFUNC_A
                                             30040E00 
  PROWaterIngress::GetStringValue(int, TSNString &)
                                             30041034 
  PROWaterIngress::GetStringValue(int, TSNString &)::??rA?FARFUNC_A
                                             30041034 
  PROWaterIngress::PutValue(int, TSNString, bool)
                                             30041044 
  PROWaterIngress::PutValue(int, TSNString, bool)::??rA?FARFUNC_A
                                             30041044 
  PROWaterIngress::PutFloatValue(int, float)
                                             30041418 
  PROWaterIngress::PutFloatValue(int, float)::??rA?FARFUNC_A
                                             30041418 
  PROWaterIngress::GetValueInfoTable(int &)
                                             30041428 
  PROWaterIngress::GetValueInfoTable(int &)::??rA?FARFUNC_A
                                             30041428 
  PROWaterIngress::CheckAlarms()             30041444 
  PROWaterIngress::CheckAlarms()::??rA?FARFUNC_A
                                             30041444 
  PROWaterIngress::SimCalculate()            30041484 
  PROWaterIngress::SimCalculate()::??rA?FARFUNC_A
                                             30041484 
  PROWaterIngress::ReceiveData(unsigned char *)
                                             3004161C 
  PROWaterIngress::ReceiveData(unsigned char *)::??rA?FARFUNC_A
                                             3004161C 
  PROWaterIngress::SendData(unsigned short)
                                             300416D4 
  PROWaterIngress::SendData(unsigned short)::??rA?FARFUNC_A
                                             300416D4 
  PROWaterIngress::__vtbl                    3006A668 
  __sti__routine()                           300405CC   LOCAL
PRogramObject ( F:\S2Prog\TXU\Release\Obj\PRogramObject.r79 )
  PRogramObject::PRogramObject()             30041820 
  PRogramObject::PRogramObject()::??rA?FARFUNC_A
                                             30041820 
  PRogramObject::~PRogramObject()            30041914 
  PRogramObject::~PRogramObject()::??rA?FARFUNC_A
                                             30041914 
  PRogramObject::MakeConfigString(TSNConfigString &)
                                             300419A4 
  PRogramObject::MakeConfigString(TSNConfigString &)::??rA?FARFUNC_A
                                             300419A4 
  PRogramObject::LoadConfigString(TSNConfigString &)
                                             300420EC 
  PRogramObject::LoadConfigString(TSNConfigString &)::??rA?FARFUNC_A
                                             300420EC 
  PRogramObject::SortAnalogInputs()
                                             30042510 
  PRogramObject::SortAnalogInputs()::??rA?FARFUNC_A
                                             30042510 
  PRogramObject::GetValue(int, float &, int &, int &)
                                             300425A0 
  PRogramObject::GetValue(int, float &, int &, int &)::??rA?FARFUNC_A
                                             300425A0 
  PRogramObject::GetStringValue(int, TSNString &)
                                             300425BC 
  PRogramObject::GetStringValue(int, TSNString &)::??rA?FARFUNC_A
                                             300425BC 
  PRogramObject::PutValue(int, TSNString, bool)
                                             3004260C 
  PRogramObject::PutValue(int, TSNString, bool)::??rA?FARFUNC_A
                                             3004260C 
  PRogramObject::PutFloatValue(int, float)
                                             30042688 
  PRogramObject::PutFloatValue(int, float)::??rA?FARFUNC_A
                                             30042688 
  PRogramObject::Calculate()                 30042698 
  PRogramObject::Calculate()::??rA?FARFUNC_A
                                             30042698 
  PRogramObject::InputTimeout()              3004269C 
  PRogramObject::InputTimeout()::??rA?FARFUNC_A
                                             3004269C 
  PRogramObject::StartTimer()                300426E0 
  PRogramObject::StartTimer()::??rA?FARFUNC_A
                                             300426E0 
  PRogramObject::__vtbl                      3006A6B8 
  __sti__routine()                           3004175C   LOCAL
PRogramObjectBase ( F:\S2Prog\TXU\Release\Obj\PRogramObjectBase.r79 )
  PRogramObjectBase::NumberOfObjects
                                             30A0D3B0 
  PRogramObjectBase::ObjectArray             30A0D3B4 
  PRogramObjectBase::PRogramObjectBase()
                                             300427C4 
  PRogramObjectBase::PRogramObjectBase()::??rA?FARFUNC_A
                                             300427C4 
  PRogramObjectBase::~PRogramObjectBase()
                                             300428E0 
  PRogramObjectBase::~PRogramObjectBase()::??rA?FARFUNC_A
                                             300428E0 
  PRogramObjectBase::WriteConfigToFile(TSNConfigString &)
                                             30042928 
  PRogramObjectBase::WriteConfigToFile(TSNConfigString &)::??rA?FARFUNC_A
                                             30042928 
  PRogramObjectBase::LoadConfigFromFile(TSNConfigString &)
                                             3004292C 
  PRogramObjectBase::LoadConfigFromFile(TSNConfigString &)::??rA?FARFUNC_A
                                             3004292C 
  PRogramObjectBase::MakeConfigString(TSNConfigString &)
                                             30042930 
  PRogramObjectBase::MakeConfigString(TSNConfigString &)::??rA?FARFUNC_A
                                             30042930 
  PRogramObjectBase::LoadConfigString(TSNConfigString &)
                                             30042CD0 
  PRogramObjectBase::LoadConfigString(TSNConfigString &)::??rA?FARFUNC_A
                                             30042CD0 
  PRogramObjectBase::GetValue(int, float &, int &, int &)
                                             30042FCC 
  PRogramObjectBase::GetValue(int, float &, int &, int &)::??rA?FARFUNC_A
                                             30042FCC 
  PRogramObjectBase::GetStringValue(int, TSNString &)
                                             30043020 
  PRogramObjectBase::GetStringValue(int, TSNString &)::??rA?FARFUNC_A
                                             30043020 
  PRogramObjectBase::PutValue(int, TSNString, bool)
                                             300430D4 
  PRogramObjectBase::PutValue(int, TSNString, bool)::??rA?FARFUNC_A
                                             300430D4 
  PRogramObjectBase::PutFloatValue(int, float)
                                             300430DC 
  PRogramObjectBase::PutFloatValue(int, float)::??rA?FARFUNC_A
                                             300430DC 
  PRogramObjectBase::GetValueInfoTable(int &)
                                             300430E4 
  PRogramObjectBase::GetValueInfoTable(int &)::??rA?FARFUNC_A
                                             300430E4 
  PRogramObjectBase::ReceiveData(unsigned char *)
                                             300430F0 
  PRogramObjectBase::ReceiveData(unsigned char *)::??rA?FARFUNC_A
                                             300430F0 
  PRogramObjectBase::SendData(unsigned short)
                                             300430F8 
  PRogramObjectBase::SendData(unsigned short)::??rA?FARFUNC_A
                                             300430F8 
  PRogramObjectBase::InputTimeout()
                                             30043100 
  PRogramObjectBase::InputTimeout()::??rA?FARFUNC_A
                                             30043100 
  PRogramObjectBase::StartTimer()            30043104 
  PRogramObjectBase::StartTimer()::??rA?FARFUNC_A
                                             30043104 
  PRogramObjectBase::__vtbl                  3006A714 
  __sti__routine()                           30042700   LOCAL
RTOSVECT ( F:\S2Prog\TXU\Release\Obj\RTOSVECT.r79 )
  OS_IRQ_SERVICE                             30000788 
?INTVECT ( F:\S2Prog\TXU\Release\Obj\RTOSVECT.r79 )
ReadConfig ( F:\S2Prog\TXU\Release\Obj\ReadConfig.r79 )
  ReadConfig()                               300431CC 
  ReadConfig()::??rA?FARFUNC_A               300431CC 
  __sti__routine()                           30043108   LOCAL
SC2410Uart ( F:\S2Prog\TXU\Release\Obj\SC2410Uart.r79 )
  SC2410Uart::new SC2410Uart(int, unsigned int, unsigned int, unsigned int, char, unsigned int)
                                             30043214 
  SC2410Uart::new SC2410Uart(int, unsigned int, unsigned int, unsigned int, char, unsigned int)::??rA?FARFUNC_A
                                             30043214 
  SC2410Uart::SC2410Uart(int, unsigned int, unsigned int, unsigned int, char, unsigned int)
                                             30043340 
  SC2410Uart::SC2410Uart(int, unsigned int, unsigned int, unsigned int, char, unsigned int)::??rA?FARFUNC_A
                                             30043340 
  SC2410Uart::EnableInt()                    30043578 
  SC2410Uart::EnableInt()::??rA?FARFUNC_A
                                             30043578 
  SC2410Uart::EnableFIFO(int, int)           300435F4 
  SC2410Uart::EnableFIFO(int, int)::??rA?FARFUNC_A
                                             300435F4 
  SC2410Uart::Transmit()                     30043690 
  SC2410Uart::Transmit()::??rA?FARFUNC_A
                                             30043690 
  SC2410Uart::Receive()::??rA?FARFUNC_A
                                             30043734 
  SC2410Uart::Receive()                      30043734 
  SC2410Uart::HandleInterrupt()              300437C8 
  SC2410Uart::HandleInterrupt()::??rA?FARFUNC_A
                                             300437C8 
  SC2410Uart::Send(unsigned char *, int, char)
                                             3004384C 
  SC2410Uart::Send(unsigned char *, int, char)::??rA?FARFUNC_A
                                             3004384C 
  SC2410Uart::Receive(unsigned char *, int, int)
                                             300438F8 
  SC2410Uart::Receive(unsigned char *, int, int)::??rA?FARFUNC_A
                                             300438F8 
  SC2410Uart::__vtbl                         3006A74C 
  __sti__routine()                           3004327C   LOCAL
SCADCard ( F:\S2Prog\TXU\Release\Obj\SCADCard.r79 )
  SCADCard::new SCADCard(PROIOComponent *, PRogramObject *)
                                             30043A08 
  SCADCard::new SCADCard(PROIOComponent *, PRogramObject *)::??rA?FARFUNC_A
                                             30043A08 
  SCADCard::SCADCard(PROIOComponent *, PRogramObject *)
                                             30043A44 
  SCADCard::SCADCard(PROIOComponent *, PRogramObject *)::??rA?FARFUNC_A
                                             30043A44 
  SCADCard::~SCADCard()                      30043B2C 
  SCADCard::~SCADCard()::??rA?FARFUNC_A
                                             30043B2C 
  SCADCard::Add(PROIOComponent *, PRogramObject *)
                                             30043B5C 
  SCADCard::Add(PROIOComponent *, PRogramObject *)::??rA?FARFUNC_A
                                             30043B5C 
  SCADCard::GetValue(int, float &, int &, int &)
                                             30043BD8 
  SCADCard::GetValue(int, float &, int &, int &)::??rA?FARFUNC_A
                                             30043BD8 
  SCADCard::GetStringValue(int, TSNString &)
                                             30043BF4 
  SCADCard::GetStringValue(int, TSNString &)::??rA?FARFUNC_A
                                             30043BF4 
  SCADCard::PutValue(int, TSNString, bool)
                                             30043C04 
  SCADCard::PutValue(int, TSNString, bool)::??rA?FARFUNC_A
                                             30043C04 
  SCADCard::PutFloatValue(int, float)
                                             30043C80 
  SCADCard::PutFloatValue(int, float)::??rA?FARFUNC_A
                                             30043C80 
  SCADCard::ANPRO10_IO_UnpackPacket(unsigned char *)
                                             30043C90 
  SCADCard::ANPRO10_IO_UnpackPacket(unsigned char *)::??rA?FARFUNC_A
                                             30043C90 
  SCADCard::RequestMeasuredData(int)
                                             30043DE4 
  SCADCard::RequestMeasuredData(int)::??rA?FARFUNC_A
                                             30043DE4 
  SCADCard::HandleCard()                     30043E74 
  SCADCard::HandleCard()::??rA?FARFUNC_A
                                             30043E74 
  SCADCard::__vtbl                           3006A76C 
  __sti__routine()                           30043944   LOCAL
SCWaterIngress ( F:\S2Prog\TXU\Release\Obj\SCWaterIngress.r79 )
  SCWaterIngress::new SCWaterIngress(PROIOComponent *, PRogramObject *)
                                             30043F94 
  SCWaterIngress::new SCWaterIngress(PROIOComponent *, PRogramObject *)::??rA?FARFUNC_A
                                             30043F94 
  SCWaterIngress::SCWaterIngress(PROIOComponent *, PRogramObject *)
                                             30043FD0 
  SCWaterIngress::SCWaterIngress(PROIOComponent *, PRogramObject *)::??rA?FARFUNC_A
                                             30043FD0 
  SCWaterIngress::~SCWaterIngress()
                                             30044088 
  SCWaterIngress::~SCWaterIngress()::??rA?FARFUNC_A
                                             30044088 
  SCWaterIngress::GetValue(int, float &, int &, int &)
                                             300440B8 
  SCWaterIngress::GetValue(int, float &, int &, int &)::??rA?FARFUNC_A
                                             300440B8 
  SCWaterIngress::GetStringValue(int, TSNString &)
                                             300440D4 
  SCWaterIngress::GetStringValue(int, TSNString &)::??rA?FARFUNC_A
                                             300440D4 
  SCWaterIngress::PutValue(int, TSNString, bool)
                                             300440E4 
  SCWaterIngress::PutValue(int, TSNString, bool)::??rA?FARFUNC_A
                                             300440E4 
  SCWaterIngress::PutFloatValue(int, float)
                                             30044160 
  SCWaterIngress::PutFloatValue(int, float)::??rA?FARFUNC_A
                                             30044160 
  SCWaterIngress::ANPRO10_IO_UnpackPacket(unsigned char *)
                                             30044170 
  SCWaterIngress::ANPRO10_IO_UnpackPacket(unsigned char *)::??rA?FARFUNC_A
                                             30044170 
  SCWaterIngress::RequestMeasuredData(int)
                                             300442A0 
  SCWaterIngress::RequestMeasuredData(int)::??rA?FARFUNC_A
                                             300442A0 
  SCWaterIngress::HandleCard()               30044330 
  SCWaterIngress::HandleCard()::??rA?FARFUNC_A
                                             30044330 
  SCWaterIngress::__vtbl                     3006A7B8 
  __sti__routine()                           30043ED0   LOCAL
ST16554Uart ( F:\S2Prog\TXU\Release\Obj\ST16554Uart.r79 )
  ST165540Uart::new ST165540Uart(int, unsigned int, unsigned int, unsigned int, char, unsigned int)
                                             3004438C 
  ST165540Uart::new ST165540Uart(int, unsigned int, unsigned int, unsigned int, char, unsigned int)::??rA?FARFUNC_A
                                             3004438C 
  ST165540Uart::ST165540Uart(int, unsigned int, unsigned int, unsigned int, char, unsigned int)
                                             300444B8 
  ST165540Uart::ST165540Uart(int, unsigned int, unsigned int, unsigned int, char, unsigned int)::??rA?FARFUNC_A
                                             300444B8 
  ST165540Uart::EnableInt()                  30044654 
  ST165540Uart::EnableInt()::??rA?FARFUNC_A
                                             30044654 
  ST165540Uart::PhysicalHasFIFO()            300446D4 
  ST165540Uart::PhysicalHasFIFO()::??rA?FARFUNC_A
                                             300446D4 
  ST165540Uart::HasFIFO()                    30044720 
  ST165540Uart::HasFIFO()::??rA?FARFUNC_A
                                             30044720 
  ST165540Uart::EnableFIFO(int)              30044758 
  ST165540Uart::EnableFIFO(int)::??rA?FARFUNC_A
                                             30044758 
  ST165540Uart::Transmit()                   30044814 
  ST165540Uart::Transmit()::??rA?FARFUNC_A
                                             30044814 
  ST165540Uart::Receive()::??rA?FARFUNC_A
                                             3004489C 
  ST165540Uart::Receive()                    3004489C 
  ST165540Uart::HandleInterrupt()            300448E0 
  ST165540Uart::HandleInterrupt()::??rA?FARFUNC_A
                                             300448E0 
  ST165540Uart::Send(unsigned char *, int, char)
                                             300449C8 
  ST165540Uart::Send(unsigned char *, int, char)::??rA?FARFUNC_A
                                             300449C8 
  ST165540Uart::Receive(unsigned char *, int, int)
                                             30044A58 
  ST165540Uart::Receive(unsigned char *, int, int)::??rA?FARFUNC_A
                                             30044A58 
  ST165540Uart::__vtbl                       3006A814 
  __sti__routine()                           300443F4   LOCAL
SignalConverter ( F:\S2Prog\TXU\Release\Obj\SignalConverter.r79 )
  SignalConverter::SignalConverter(int)
                                             30044B68 
  SignalConverter::SignalConverter(int)::??rA?FARFUNC_A
                                             30044B68 
  SignalConverter::~SignalConverter()
                                             30044BB8 
  SignalConverter::~SignalConverter()::??rA?FARFUNC_A
                                             30044BB8 
  SignalConverter::MakeConfigString(TSNConfigString &)
                                             30044BE8 
  SignalConverter::MakeConfigString(TSNConfigString &)::??rA?FARFUNC_A
                                             30044BE8 
  SignalConverter::LoadConfigString(TSNConfigString &)
                                             30044C04 
  SignalConverter::LoadConfigString(TSNConfigString &)::??rA?FARFUNC_A
                                             30044C04 
  SignalConverter::GetValue(int, float &, int &, int &)
                                             30044C0C 
  SignalConverter::GetValue(int, float &, int &, int &)::??rA?FARFUNC_A
                                             30044C0C 
  SignalConverter::GetStringValue(int, TSNString &)
                                             30044C28 
  SignalConverter::GetStringValue(int, TSNString &)::??rA?FARFUNC_A
                                             30044C28 
  SignalConverter::PutValue(int, TSNString, bool)
                                             30044C38 
  SignalConverter::PutValue(int, TSNString, bool)::??rA?FARFUNC_A
                                             30044C38 
  SignalConverter::PutFloatValue(int, float)
                                             30044CB4 
  SignalConverter::PutFloatValue(int, float)::??rA?FARFUNC_A
                                             30044CB4 
  SignalConverter::ANPRO10_IO_UnpackPacket(unsigned char *)
                                             30044CC4 
  SignalConverter::ANPRO10_IO_UnpackPacket(unsigned char *)::??rA?FARFUNC_A
                                             30044CC4 
  SignalConverter::RequestMeasuredData(int)
                                             30044CCC 
  SignalConverter::RequestMeasuredData(int)::??rA?FARFUNC_A
                                             30044CCC 
  SignalConverter::HandleCard()              30044CD0 
  SignalConverter::HandleCard()::??rA?FARFUNC_A
                                             30044CD0 
  SignalConverter::__vtbl                    3006A834 
  __sti__routine()                           30044AA4   LOCAL
StartTXU ( F:\S2Prog\TXU\Release\Obj\StartTXU.r79 )
  OS_GetMailTimed                            30044D98 
  OS_GetMailTimed::??rA?FARFUNC_A            30044D98 
  TouchKeyCheck()                            30044DEC 
  TouchKeyCheck()::??rA?FARFUNC_A            30044DEC 
  main                                       30044E00 
  main::??rA?FARFUNC_A                       30044E00 
  OS_Start::??rA?FARFUNC_A                   30044ECC 
  __sti__routine()                           30044CD4   LOCAL
TDUAlarmWindow ( F:\S2Prog\TXU\Release\Obj\TDUAlarmWindow.r79 )
  TDUAlarmWindow::new TDUAlarmWindow()
                                             30044F9C 
  TDUAlarmWindow::new TDUAlarmWindow()::??rA?FARFUNC_A
                                             30044F9C 
  TDUAlarmWindow::TDUAlarmWindow()           30044FC4 
  TDUAlarmWindow::TDUAlarmWindow()::??rA?FARFUNC_A
                                             30044FC4 
  TDUAlarmWindow::SetListViewColor()
                                             300450E4 
  TDUAlarmWindow::SetListViewColor()::??rA?FARFUNC_A
                                             300450E4 
  TDUAlarmWindow::TableSetup()               3004516C 
  TDUAlarmWindow::TableSetup()::??rA?FARFUNC_A
                                             3004516C 
  TDUAlarmWindow::SetButton()                30045274 
  TDUAlarmWindow::SetButton()::??rA?FARFUNC_A
                                             30045274 
  TDUAlarmWindow::PWTimer()                  300452E0 
  TDUAlarmWindow::PWTimer()::??rA?FARFUNC_A
                                             300452E0 
  TDUAlarmWindow::Paintnew()                 30045460 
  TDUAlarmWindow::Paintnew()::??rA?FARFUNC_A
                                             30045460 
  TDUAlarmWindow::ButtonClicked(int)
                                             30045940 
  TDUAlarmWindow::ButtonClicked(int)::??rA?FARFUNC_A
                                             30045940 
  TDUAlarmWindow::AckButtonClicked(int)
                                             30045A14 
  TDUAlarmWindow::AckButtonClicked(int)::??rA?FARFUNC_A
                                             30045A14 
  TDUAlarmWindow::cbEventHandler(WM_MESSAGE *)
                                             30045AF8 
  TDUAlarmWindow::cbEventHandler(WM_MESSAGE *)::??rA?FARFUNC_A
                                             30045AF8 
  TDUAlarmWindow::__vtbl                     3006A8B0 
  LISTVIEW_CreateAttached::??rA?FARFUNC_A
                                             30045C0C 
  HEADER_SetTextAlign::??rA?FARFUNC_A
                                             30045C18 
  BUTTON_SetText::??rA?FARFUNC_A             30045C24 
  WM_GetId::??rA?FARFUNC_A                   30045C30 
  __sti__routine()                           30044ED8   LOCAL
TDUAppWinSetup ( F:\S2Prog\TXU\Release\Obj\TDUAppWinSetup.r79 )
  TDUAppWinSetup::aDialogCreate              3006A8BC 
  TDUAppWinSetup::ExecDialogBox(GUI_HWIN)
                                             30045D00 
  TDUAppWinSetup::ExecDialogBox(GUI_HWIN)::??rA?FARFUNC_A
                                             30045D00 
  TDUAppWinSetup::cbTankSetup(WM_MESSAGE *)
                                             30045E88 
  TDUAppWinSetup::cbTankSetup(WM_MESSAGE *)::??rA?FARFUNC_A
                                             30045E88 
  GUI_CreateDialogBox::??rA?FARFUNC_A
                                             30046158 
  WM_GetDialogItem::??rA?FARFUNC_A           30046164 
  DROPDOWN_SetAutoScroll::??rA?FARFUNC_A
                                             30046170 
  WM_BringToTop::??rA?FARFUNC_A              3004617C 
  TDUAppWinSetup::new TDUAppWinSetup()
                                             30046188 
  TDUAppWinSetup::new TDUAppWinSetup()::??rA?FARFUNC_A
                                             30046188 
  __sti__routine()                           30045C3C   LOCAL
TDUBallastWin ( F:\S2Prog\TXU\Release\Obj\TDUBallastWin.r79 )
  TDUBallastWin::new TDUBallastWin()
                                             30046288 
  TDUBallastWin::new TDUBallastWin()::??rA?FARFUNC_A
                                             30046288 
  TDUBallastWin::TDUBallastWin()             300462B0 
  TDUBallastWin::TDUBallastWin()::??rA?FARFUNC_A
                                             300462B0 
  TDUBallastWin::SetListViewColor()
                                             300465E0 
  TDUBallastWin::SetListViewColor()::??rA?FARFUNC_A
                                             300465E0 
  TDUBallastWin::TableSetup()                30046660 
  TDUBallastWin::TableSetup()::??rA?FARFUNC_A
                                             30046660 
  TDUBallastWin::SetButton()                 30046894 
  TDUBallastWin::SetButton()::??rA?FARFUNC_A
                                             30046894 
  TDUBallastWin::PWTimer()                   30046948 
  TDUBallastWin::PWTimer()::??rA?FARFUNC_A
                                             30046948 
  TDUBallastWin::Paintnew()                  30046990 
  TDUBallastWin::Paintnew()::??rA?FARFUNC_A
                                             30046990 
  TDUBallastWin::PaintnewHeading()           30046B78 
  TDUBallastWin::PaintnewHeading()::??rA?FARFUNC_A
                                             30046B78 
  TDUBallastWin::SetupWin()                  30046D1C 
  TDUBallastWin::SetupWin()::??rA?FARFUNC_A
                                             30046D1C 
  TDUBallastWin::InitTankAlarmSetting(GUI_HWIN)
                                             30046F10 
  TDUBallastWin::InitTankAlarmSetting(GUI_HWIN)::??rA?FARFUNC_A
                                             30046F10 
  TDUBallastWin::UpdateTankAlarmSetting(GUI_HWIN, int, char *)
                                             30047548 
  TDUBallastWin::UpdateTankAlarmSetting(GUI_HWIN, int, char *)::??rA?FARFUNC_A
                                             30047548 
  TDUBallastWin::InitTankDensitySetting(GUI_HWIN)
                                             3004785C 
  TDUBallastWin::InitTankDensitySetting(GUI_HWIN)::??rA?FARFUNC_A
                                             3004785C 
  TDUBallastWin::UpdateDensity(GUI_HWIN, int, char *)
                                             3004787C 
  TDUBallastWin::UpdateDensity(GUI_HWIN, int, char *)::??rA?FARFUNC_A
                                             3004787C 
  TDUBallastWin::InitSensorSetting(GUI_HWIN)
                                             300478A8 
  TDUBallastWin::InitSensorSetting(GUI_HWIN)::??rA?FARFUNC_A
                                             300478A8 
  TDUBallastWin::UpdateSensorSetting(GUI_HWIN, int, char *)
                                             300478C8 
  TDUBallastWin::UpdateSensorSetting(GUI_HWIN, int, char *)::??rA?FARFUNC_A
                                             300478C8 
  TDUBallastWin::EnableSensorSetting(GUI_HWIN, int)
                                             30047964 
  TDUBallastWin::EnableSensorSetting(GUI_HWIN, int)::??rA?FARFUNC_A
                                             30047964 
  TDUBallastWin::InitWinSetup(GUI_HWIN)
                                             300479C0 
  TDUBallastWin::InitWinSetup(GUI_HWIN)::??rA?FARFUNC_A
                                             300479C0 
  TDUBallastWin::UpdateWinSetup(GUI_HWIN, int)
                                             30047BCC 
  TDUBallastWin::UpdateWinSetup(GUI_HWIN, int)::??rA?FARFUNC_A
                                             30047BCC 
  TDUBallastWin::ButtonClicked(int)
                                             30047D08 
  TDUBallastWin::ButtonClicked(int)::??rA?FARFUNC_A
                                             30047D08 
  TDUBallastWin::cbEventHandler(WM_MESSAGE *)
                                             30047DE4 
  TDUBallastWin::cbEventHandler(WM_MESSAGE *)::??rA?FARFUNC_A
                                             30047DE4 
  TDUBallastWin::__vtbl                      3006AA3C 
  HEADER_SetItemText::??rA?FARFUNC_A
                                             30047E3C 
  WM_InvalidateWindow::??rA?FARFUNC_A
                                             30047E48 
  TEXT_SetFont::??rA?FARFUNC_A               30047E54 
  TEXT_SetText::??rA?FARFUNC_A               30047E60 
  CHECKBOX_Check::??rA?FARFUNC_A             30047E6C 
  CHECKBOX_Uncheck::??rA?FARFUNC_A           30047E78 
  EDIT_SetText::??rA?FARFUNC_A               30047E84 
  WM_DisableWindow::??rA?FARFUNC_A           30047E90 
  CHECKBOX_IsChecked::??rA?FARFUNC_A
                                             30047E9C 
  DROPDOWN_AddString::??rA?FARFUNC_A
                                             30047EA8 
  DROPDOWN_SetSel::??rA?FARFUNC_A            30047EB4 
  DROPDOWN_GetSel::??rA?FARFUNC_A            30047EC0 
  __sti__routine()                           300461C4   LOCAL
TDUButWin ( F:\S2Prog\TXU\Release\Obj\TDUButWin.r79 )
  TDUButWin::TDUButWin()                     30047F90 
  TDUButWin::TDUButWin()::??rA?FARFUNC_A
                                             30047F90 
  TDUButWin::cbEventHandler(WM_MESSAGE *)
                                             300480F8 
  TDUButWin::cbEventHandler(WM_MESSAGE *)::??rA?FARFUNC_A
                                             300480F8 
  WM_CreateWindow::??rA?FARFUNC_A            300482CC 
  BUTTON_CreateAsChild::??rA?FARFUNC_A
                                             300482D8 
  TDUButWin::new TDUButWin()                 300482E4 
  TDUButWin::new TDUButWin()::??rA?FARFUNC_A
                                             300482E4 
  __sti__routine()                           30047ECC   LOCAL
TDUCargoWin ( F:\S2Prog\TXU\Release\Obj\TDUCargoWin.r79 )
  TDUCargoWin::new TDUCargoWin()             300483D0 
  TDUCargoWin::new TDUCargoWin()::??rA?FARFUNC_A
                                             300483D0 
  TDUCargoWin::TDUCargoWin()                 300483F8 
  TDUCargoWin::TDUCargoWin()::??rA?FARFUNC_A
                                             300483F8 
  TDUCargoWin::SetListViewColor()            3004872C 
  TDUCargoWin::SetListViewColor()::??rA?FARFUNC_A
                                             3004872C 
  TDUCargoWin::TableSetup()                  300487AC 
  TDUCargoWin::TableSetup()::??rA?FARFUNC_A
                                             300487AC 
  TDUCargoWin::SetButton()                   300489E0 
  TDUCargoWin::SetButton()::??rA?FARFUNC_A
                                             300489E0 
  TDUCargoWin::PWTimer()                     30048A94 
  TDUCargoWin::PWTimer()::??rA?FARFUNC_A
                                             30048A94 
  TDUCargoWin::Paintnew()                    30048ADC 
  TDUCargoWin::Paintnew()::??rA?FARFUNC_A
                                             30048ADC 
  TDUCargoWin::PaintnewHeading()             30048CC4 
  TDUCargoWin::PaintnewHeading()::??rA?FARFUNC_A
                                             30048CC4 
  TDUCargoWin::SetupWin()                    30048E68 
  TDUCargoWin::SetupWin()::??rA?FARFUNC_A
                                             30048E68 
  TDUCargoWin::InitTankAlarmSetting(GUI_HWIN)
                                             3004905C 
  TDUCargoWin::InitTankAlarmSetting(GUI_HWIN)::??rA?FARFUNC_A
                                             3004905C 
  TDUCargoWin::UpdateTankAlarmSetting(GUI_HWIN, int, char *)
                                             30049694 
  TDUCargoWin::UpdateTankAlarmSetting(GUI_HWIN, int, char *)::??rA?FARFUNC_A
                                             30049694 
  TDUCargoWin::InitTankDensitySetting(GUI_HWIN)
                                             300499A8 
  TDUCargoWin::InitTankDensitySetting(GUI_HWIN)::??rA?FARFUNC_A
                                             300499A8 
  TDUCargoWin::UpdateDensity(GUI_HWIN, int, char *)
                                             300499C8 
  TDUCargoWin::UpdateDensity(GUI_HWIN, int, char *)::??rA?FARFUNC_A
                                             300499C8 
  TDUCargoWin::InitSensorSetting(GUI_HWIN)
                                             300499F4 
  TDUCargoWin::InitSensorSetting(GUI_HWIN)::??rA?FARFUNC_A
                                             300499F4 
  TDUCargoWin::UpdateSensorSetting(GUI_HWIN, int, char *)
                                             30049A14 
  TDUCargoWin::UpdateSensorSetting(GUI_HWIN, int, char *)::??rA?FARFUNC_A
                                             30049A14 
  TDUCargoWin::EnableSensorSetting(GUI_HWIN, int)
                                             30049AB0 
  TDUCargoWin::EnableSensorSetting(GUI_HWIN, int)::??rA?FARFUNC_A
                                             30049AB0 
  TDUCargoWin::InitWinSetup(GUI_HWIN)
                                             30049B0C 
  TDUCargoWin::InitWinSetup(GUI_HWIN)::??rA?FARFUNC_A
                                             30049B0C 
  TDUCargoWin::UpdateWinSetup(GUI_HWIN, int)
                                             30049D18 
  TDUCargoWin::UpdateWinSetup(GUI_HWIN, int)::??rA?FARFUNC_A
                                             30049D18 
  TDUCargoWin::ButtonClicked(int)            30049E54 
  TDUCargoWin::ButtonClicked(int)::??rA?FARFUNC_A
                                             30049E54 
  TDUCargoWin::cbEventHandler(WM_MESSAGE *)
                                             30049F30 
  TDUCargoWin::cbEventHandler(WM_MESSAGE *)::??rA?FARFUNC_A
                                             30049F30 
  TDUCargoWin::__vtbl                        3006AA60 
  __sti__routine()                           3004830C   LOCAL
TDUConfigLoginWin ( F:\S2Prog\TXU\Release\Obj\TDUConfigLoginWin.r79 )
  TDUConfigLoginWin::aDialogCreate           3006AA7C 
  TDUConfigLoginWin::ExecDialogBox(GUI_HWIN)
                                             3004A04C 
  TDUConfigLoginWin::ExecDialogBox(GUI_HWIN)::??rA?FARFUNC_A
                                             3004A04C 
  TDUConfigLoginWin::cbConfigKey(WM_MESSAGE *)
                                             3004A09C 
  TDUConfigLoginWin::cbConfigKey(WM_MESSAGE *)::??rA?FARFUNC_A
                                             3004A09C 
  TDUConfigLoginWin::new TDUConfigLoginWin()
                                             3004A228 
  TDUConfigLoginWin::new TDUConfigLoginWin()::??rA?FARFUNC_A
                                             3004A228 
  __sti__routine()                           30049F88   LOCAL
TDUConfigWin ( F:\S2Prog\TXU\Release\Obj\TDUConfigWin.r79 )
  TDUConfigWin::TDUConfigWin()               3004A310 
  TDUConfigWin::TDUConfigWin()::??rA?FARFUNC_A
                                             3004A310 
  TDUConfigWin::cbEventHandler(WM_MESSAGE *)
                                             3004A3AC 
  TDUConfigWin::cbEventHandler(WM_MESSAGE *)::??rA?FARFUNC_A
                                             3004A3AC 
  WM_SetCallback::??rA?FARFUNC_A             3004A498 
  GUI_DrawBitmap::??rA?FARFUNC_A             3004A4A4 
  GUI_DispStringHCenterAt::??rA?FARFUNC_A
                                             3004A4B0 
  TDUConfigWin::new TDUConfigWin()           3004A4BC 
  TDUConfigWin::new TDUConfigWin()::??rA?FARFUNC_A
                                             3004A4BC 
  __sti__routine()                           3004A24C   LOCAL
TDUGlobalVariables ( F:\S2Prog\TXU\Release\Obj\TDUGlobalVariables.r79 )
  BackColor                                  30A12F14 
  TextColor                                  30A12F18 
  CurrentWinHandl                            30A6BA94 
  CurrentWinID                               30A12F1C 
  PreviousWinID                              30A12F20 
  LastApplIndex                              30A12F24 
  UserString                                 30A12F28 
  KeyBoardAcktive                            30A6BABF 
  CancelMessageBoxIsClosed                   30A6BAC0 
  AppWinSetupDiaIsClosed                     30A6BAC1 
  TankWinAlarmDiaIsClosed                    30A6BAC2 
  TankWinDensityDiaIsClosed                  30A6BAC3 
  TankWinSensorDiaIsClosed                   30A6BAC4 
  InConfigModus                              30A6BAC5 
  LCDXSize                                   30A12F78 
  LCDYSize                                   30A12F7C 
  KeyBoard                                   30A12F80 
  OKMessageBox                               30A12F84 
  CancelMessageBox                           30A12F88 
  AppWinSetup                                30A12F8C 
  TankAlarmSetting                           30A12F90 
  TankDensitySetting                         30A12F94 
  SensorSetting                              30A12F98 
  ConfigWindow                               30A12F9C 
  MainWindow                                 30A12FA0 
  ButWindow                                  30A12FA4 
  PresentWindow                              30A12FA8 
  AlarmWindow                                30A12FAC 
  SystemWindow                               30A12FB0 
  CargoWindow                                30A12FB4 
  BallastWindow                              30A12FB8 
  ServiceWindow                              30A12FBC 
  TankPressWindow                            30A12FC0 
  TempWindow                                 30A12FC4 
  WaterIngrWindow                            30A12FC8 
  NotConfWindow                              30A12FCC 
  __sti__routine()                           3004A4E4   LOCAL
TDUKeyBoard ( F:\S2Prog\TXU\Release\Obj\TDUKeyBoard.r79 )
  TDU_WaitKey()                              3004A66C 
  TDU_WaitKey()::??rA?FARFUNC_A              3004A66C 
  TDU_CheckCancel()                          3004A6B8 
  TDU_CheckCancel()::??rA?FARFUNC_A
                                             3004A6B8 
  TDUKeyBoard::ExecKeyBoardAll(GUI_HWIN, char *)
                                             3004A724 
  TDUKeyBoard::ExecKeyBoardAll(GUI_HWIN, char *)::??rA?FARFUNC_A
                                             3004A724 
  TDUKeyBoard::ExecKeyBoardNum(GUI_HWIN, char *)
                                             3004AA34 
  TDUKeyBoard::ExecKeyBoardNum(GUI_HWIN, char *)::??rA?FARFUNC_A
                                             3004AA34 
  TDUKeyBoard::cbKeyBoard(WM_MESSAGE *)
                                             3004AD00 
  TDUKeyBoard::cbKeyBoard(WM_MESSAGE *)::??rA?FARFUNC_A
                                             3004AD00 
  GUI_GetTime::??rA?FARFUNC_A                3004AD60 
  GUI_GetKey::??rA?FARFUNC_A                 3004AD6C 
  WM_Exec::??rA?FARFUNC_A                    3004AD78 
  GUI_Delay::??rA?FARFUNC_A                  3004AD84 
  BUTTON_Create::??rA?FARFUNC_A              3004AD90 
  WM_EnableMemdev::??rA?FARFUNC_A            3004AD9C 
  BUTTON_SetFont::??rA?FARFUNC_A             3004ADA8 
  EDIT_Create::??rA?FARFUNC_A                3004ADB4 
  EDIT_SetFont::??rA?FARFUNC_A               3004ADC0 
  EDIT_GetText::??rA?FARFUNC_A               3004ADCC 
  EDIT_AddKey::??rA?FARFUNC_A                3004ADD8 
  WM_DeleteWindow::??rA?FARFUNC_A            3004ADE4 
  TDUKeyBoard::new TDUKeyBoard()             3004ADF0 
  TDUKeyBoard::new TDUKeyBoard()::??rA?FARFUNC_A
                                             3004ADF0 
  __sti__routine()                           3004A5A8   LOCAL
TDUMainWin ( F:\S2Prog\TXU\Release\Obj\TDUMainWin.r79 )
  TDUMainWin::new TDUMainWin()               3004AE14 
  TDUMainWin::new TDUMainWin()::??rA?FARFUNC_A
                                             3004AE14 
  TDUMainWin::TDUMainWin()                   3004AE3C 
  TDUMainWin::TDUMainWin()::??rA?FARFUNC_A
                                             3004AE3C 
  TDUMainWin::SetWindow(int)                 3004B13C 
  TDUMainWin::SetWindow(int)::??rA?FARFUNC_A
                                             3004B13C 
  TDUMainWin::SetCurrentWindow(int)
                                             3004B68C 
  TDUMainWin::SetCurrentWindow(int)::??rA?FARFUNC_A
                                             3004B68C 
  TDUMainWin::SetPreviousWindow()            3004B880 
  TDUMainWin::SetPreviousWindow()::??rA?FARFUNC_A
                                             3004B880 
  TDUMainWin::cbEventHandler(WM_MESSAGE *)
                                             3004B90C 
  TDUMainWin::cbEventHandler(WM_MESSAGE *)::??rA?FARFUNC_A
                                             3004B90C 
  TDUMainWin::SetBitmap()                    3004B9EC 
  TDUMainWin::SetBitmap()::??rA?FARFUNC_A
                                             3004B9EC 
  TEXT_CreateAsChild::??rA?FARFUNC_A
                                             3004C5E0 
  TEXT_SetTextColor::??rA?FARFUNC_A
                                             3004C5EC 
  BUTTON_SetBitmapEx::??rA?FARFUNC_A
                                             3004C5F8 
  BUTTON_SetBkColor::??rA?FARFUNC_A
                                             3004C604 
  BUTTON_SetTextColor::??rA?FARFUNC_A
                                             3004C610 
  WM_BringToBottom::??rA?FARFUNC_A           3004C61C 
  __sti__routine()                           3004C628   LOCAL
TDUMessageBox ( F:\S2Prog\TXU\Release\Obj\TDUMessageBox.r79 )
  TDUMessageBox::new TDUMessageBox()
                                             3004C7B0 
  TDUMessageBox::new TDUMessageBox()::??rA?FARFUNC_A
                                             3004C7B0 
  TDUMessageBox::TDUMessageBox()             3004C7D8 
  TDUMessageBox::TDUMessageBox()::??rA?FARFUNC_A
                                             3004C7D8 
  TDUMessageBox::aDialogCreate               3006AB80 
  TDUMessageBox::Exec(GUI_HWIN, TSNString, TSNString)
                                             3004C7FC 
  TDUMessageBox::Exec(GUI_HWIN, TSNString, TSNString)::??rA?FARFUNC_A
                                             3004C7FC 
  TDUMessageBox::cbMessageBox(WM_MESSAGE *)
                                             3004C968 
  TDUMessageBox::cbMessageBox(WM_MESSAGE *)::??rA?FARFUNC_A
                                             3004C968 
  FRAMEWIN_SetText::??rA?FARFUNC_A           3004C9F4 
  __sti__routine()                           3004C6EC   LOCAL
TDUMessageBoxCancel ( F:\S2Prog\TXU\Release\Obj\TDUMessageBoxCancel.r79 )
  GUI_Exec::??rA?FARFUNC_A                   3004CA00 
  TDUMessageBoxCancel::new TDUMessageBoxCancel()
                                             3004CAD0 
  TDUMessageBoxCancel::new TDUMessageBoxCancel()::??rA?FARFUNC_A
                                             3004CAD0 
  __sti__routine()                           3004CA0C   LOCAL
TDUNotConfiguredWin ( F:\S2Prog\TXU\Release\Obj\TDUNotConfiguredWin.r79 )
  TDUNotConfiguredWin::new TDUNotConfiguredWin()
                                             3004CB0C 
  TDUNotConfiguredWin::new TDUNotConfiguredWin()::??rA?FARFUNC_A
                                             3004CB0C 
  TDUNotConfiguredWin::SetButton()           3004CC0C 
  TDUNotConfiguredWin::SetButton()::??rA?FARFUNC_A
                                             3004CC0C 
  TDUNotConfiguredWin::cbEventHandler(WM_MESSAGE *)
                                             3004CC78 
  TDUNotConfiguredWin::cbEventHandler(WM_MESSAGE *)::??rA?FARFUNC_A
                                             3004CC78 
  TDUNotConfiguredWin::__vtbl                3006ABC8 
  GUI_DispStringAt::??rA?FARFUNC_A           3004CCEC 
  __sti__routine()                           3004CB48   LOCAL
TDUPresentWin ( F:\S2Prog\TXU\Release\Obj\TDUPresentWin.r79 )
  cbPWEventHandler(WM_MESSAGE *)             3004CDBC 
  cbPWEventHandler(WM_MESSAGE *)::??rA?FARFUNC_A
                                             3004CDBC 
  TDUPresentWin::~TDUPresentWin()            3004CE00 
  TDUPresentWin::~TDUPresentWin()::??rA?FARFUNC_A
                                             3004CE00 
  TDUPresentWin::TDUPresentWin()             3004CE04 
  TDUPresentWin::TDUPresentWin()::??rA?FARFUNC_A
                                             3004CE04 
  TDUPresentWin::SetButton()                 3004CEEC 
  TDUPresentWin::SetButton()::??rA?FARFUNC_A
                                             3004CEEC 
  TDUPresentWin::Paintnew()                  3004CEF0 
  TDUPresentWin::Paintnew()::??rA?FARFUNC_A
                                             3004CEF0 
  TDUPresentWin::cbEventHandler(WM_MESSAGE *)
                                             3004CEF4 
  TDUPresentWin::cbEventHandler(WM_MESSAGE *)::??rA?FARFUNC_A
                                             3004CEF4 
  TDUPresentWin::__vtbl                      3006ABD4 
  WM_GetUserData::??rA?FARFUNC_A             3004CF38 
  WM_SetUserData::??rA?FARFUNC_A             3004CF44 
  TDUPresentWin::new TDUPresentWin()
                                             3004CF50 
  TDUPresentWin::new TDUPresentWin()::??rA?FARFUNC_A
                                             3004CF50 
  __sti__routine()                           3004CCF8   LOCAL
TDUSensorSetting ( F:\S2Prog\TXU\Release\Obj\TDUSensorSetting.r79 )
  string::compare(size_type, size_type, char const *, size_type) const
                                             3004CF78 
  string::compare(size_type, size_type, char const *, size_type) const::??rA?FARFUNC_A
                                             3004CF78 
  TDUSensorSetting::aDialogCreate            3006ABEC 
  TDUSensorSetting::ExecDialogBox(GUI_HWIN)
                                             3004D004 
  TDUSensorSetting::ExecDialogBox(GUI_HWIN)::??rA?FARFUNC_A
                                             3004D004 
  TDUSensorSetting::InitDialog(GUI_HWIN, PRONode *)
                                             3004D11C 
  TDUSensorSetting::InitDialog(GUI_HWIN, PRONode *)::??rA?FARFUNC_A
                                             3004D11C 
  TDUSensorSetting::UpdateDialog(GUI_HWIN, PRONode *, int, char *)
                                             3004DC84 
  TDUSensorSetting::UpdateDialog(GUI_HWIN, PRONode *, int, char *)::??rA?FARFUNC_A
                                             3004DC84 
  TDUSensorSetting::cbTankSetup(WM_MESSAGE *)
                                             3004E09C 
  TDUSensorSetting::cbTankSetup(WM_MESSAGE *)::??rA?FARFUNC_A
                                             3004E09C 
  WM_EnableWindow::??rA?FARFUNC_A            3004E55C 
  TDUSensorSetting::new TDUSensorSetting()
                                             3004E62C 
  TDUSensorSetting::new TDUSensorSetting()::??rA?FARFUNC_A
                                             3004E62C 
  CheckPinCode(char *)                       3004DF50   LOCAL
  __sti__routine()                           3004E568   LOCAL
TDUServiceWin ( F:\S2Prog\TXU\Release\Obj\TDUServiceWin.r79 )
  TDUServiceWin::new TDUServiceWin()
                                             3004E734 
  TDUServiceWin::new TDUServiceWin()::??rA?FARFUNC_A
                                             3004E734 
  TDUServiceWin::TDUServiceWin()             3004E75C 
  TDUServiceWin::TDUServiceWin()::??rA?FARFUNC_A
                                             3004E75C 
  TDUServiceWin::SetListViewColor()
                                             3004EA90 
  TDUServiceWin::SetListViewColor()::??rA?FARFUNC_A
                                             3004EA90 
  TDUServiceWin::TableSetup()                3004EB10 
  TDUServiceWin::TableSetup()::??rA?FARFUNC_A
                                             3004EB10 
  TDUServiceWin::SetButton()                 3004ED44 
  TDUServiceWin::SetButton()::??rA?FARFUNC_A
                                             3004ED44 
  TDUServiceWin::PWTimer()                   3004EDF8 
  TDUServiceWin::PWTimer()::??rA?FARFUNC_A
                                             3004EDF8 
  TDUServiceWin::Paintnew()                  3004EE40 
  TDUServiceWin::Paintnew()::??rA?FARFUNC_A
                                             3004EE40 
  TDUServiceWin::PaintnewHeading()           3004F028 
  TDUServiceWin::PaintnewHeading()::??rA?FARFUNC_A
                                             3004F028 
  TDUServiceWin::SetupWin()                  3004F1CC 
  TDUServiceWin::SetupWin()::??rA?FARFUNC_A
                                             3004F1CC 
  TDUServiceWin::InitTankAlarmSetting(GUI_HWIN)
                                             3004F3C0 
  TDUServiceWin::InitTankAlarmSetting(GUI_HWIN)::??rA?FARFUNC_A
                                             3004F3C0 
  TDUServiceWin::UpdateTankAlarmSetting(GUI_HWIN, int, char *)
                                             3004F9F8 
  TDUServiceWin::UpdateTankAlarmSetting(GUI_HWIN, int, char *)::??rA?FARFUNC_A
                                             3004F9F8 
  TDUServiceWin::InitTankDensitySetting(GUI_HWIN)
                                             3004FD0C 
  TDUServiceWin::InitTankDensitySetting(GUI_HWIN)::??rA?FARFUNC_A
                                             3004FD0C 
  TDUServiceWin::UpdateDensity(GUI_HWIN, int, char *)
                                             3004FD2C 
  TDUServiceWin::UpdateDensity(GUI_HWIN, int, char *)::??rA?FARFUNC_A
                                             3004FD2C 
  TDUServiceWin::InitSensorSetting(GUI_HWIN)
                                             3004FD58 
  TDUServiceWin::InitSensorSetting(GUI_HWIN)::??rA?FARFUNC_A
                                             3004FD58 
  TDUServiceWin::UpdateSensorSetting(GUI_HWIN, int, char *)
                                             3004FD78 
  TDUServiceWin::UpdateSensorSetting(GUI_HWIN, int, char *)::??rA?FARFUNC_A
                                             3004FD78 
  TDUServiceWin::EnableSensorSetting(GUI_HWIN, int)
                                             3004FE14 
  TDUServiceWin::EnableSensorSetting(GUI_HWIN, int)::??rA?FARFUNC_A
                                             3004FE14 
  TDUServiceWin::InitWinSetup(GUI_HWIN)
                                             3004FE70 
  TDUServiceWin::InitWinSetup(GUI_HWIN)::??rA?FARFUNC_A
                                             3004FE70 
  TDUServiceWin::UpdateWinSetup(GUI_HWIN, int)
                                             3005007C 
  TDUServiceWin::UpdateWinSetup(GUI_HWIN, int)::??rA?FARFUNC_A
                                             3005007C 
  TDUServiceWin::ButtonClicked(int)
                                             300501B8 
  TDUServiceWin::ButtonClicked(int)::??rA?FARFUNC_A
                                             300501B8 
  TDUServiceWin::cbEventHandler(WM_MESSAGE *)
                                             30050294 
  TDUServiceWin::cbEventHandler(WM_MESSAGE *)::??rA?FARFUNC_A
                                             30050294 
  TDUServiceWin::__vtbl                      3006AF34 
  __sti__routine()                           3004E670   LOCAL
TDUSimulator ( F:\S2Prog\TXU\Release\Obj\TDUSimulator.r79 )
  TDUSimulator::ExecSimulator()              300503B0 
  TDUSimulator::ExecSimulator()::??rA?FARFUNC_A
                                             300503B0 
  __sti__routine()                           300502EC   LOCAL
TDUSysWin1 ( F:\S2Prog\TXU\Release\Obj\TDUSysWin1.r79 )
  TDUSysWin1::new TDUSysWin1()               300506F4 
  TDUSysWin1::new TDUSysWin1()::??rA?FARFUNC_A
                                             300506F4 
  TDUSysWin1::aDialogCreate                  3006AF7C 
  TDUSysWin1::ExecDialogBox(GUI_HWIN)
                                             30050728 
  TDUSysWin1::ExecDialogBox(GUI_HWIN)::??rA?FARFUNC_A
                                             30050728 
  TDUSysWin1::InitConfigLoginWin(GUI_HWIN)
                                             300507A0 
  TDUSysWin1::InitConfigLoginWin(GUI_HWIN)::??rA?FARFUNC_A
                                             300507A0 
  TDUSysWin1::CheckConfigKey(char *)
                                             300507D0 
  TDUSysWin1::CheckConfigKey(char *)::??rA?FARFUNC_A
                                             300507D0 
  TDUSysWin1::InitSysWin(GUI_HWIN)           30050970 
  TDUSysWin1::InitSysWin(GUI_HWIN)::??rA?FARFUNC_A
                                             30050970 
  TDUSysWin1::cbSysWin(WM_MESSAGE *)
                                             30050BD4 
  TDUSysWin1::cbSysWin(WM_MESSAGE *)::??rA?FARFUNC_A
                                             30050BD4 
  RADIO_SetValue::??rA?FARFUNC_A             30050D30 
  __sti__routine()                           30050630   LOCAL
TDUSysWin2 ( F:\S2Prog\TXU\Release\Obj\TDUSysWin2.r79 )
  TDUSysWin2::new TDUSysWin2()               30050E00 
  TDUSysWin2::new TDUSysWin2()::??rA?FARFUNC_A
                                             30050E00 
  TDUSysWin2::aDialogCreate                  3006B13C 
  TDUSysWin2::ExecDialogBox(GUI_HWIN)
                                             30050E34 
  TDUSysWin2::ExecDialogBox(GUI_HWIN)::??rA?FARFUNC_A
                                             30050E34 
  TDUSysWin2::InitSysWin(GUI_HWIN)           30050EAC 
  TDUSysWin2::InitSysWin(GUI_HWIN)::??rA?FARFUNC_A
                                             30050EAC 
  TDUSysWin2::cbSysWin(WM_MESSAGE *)
                                             300512AC 
  TDUSysWin2::cbSysWin(WM_MESSAGE *)::??rA?FARFUNC_A
                                             300512AC 
  __sti__routine()                           30050D3C   LOCAL
TDUSysWin3 ( F:\S2Prog\TXU\Release\Obj\TDUSysWin3.r79 )
  TDUSysWin3::new TDUSysWin3()               3005136C 
  TDUSysWin3::new TDUSysWin3()::??rA?FARFUNC_A
                                             3005136C 
  TDUSysWin3::aDialogCreate                  3006B304 
  TDUSysWin3::ExecDialogBox(GUI_HWIN)
                                             30051464 
  TDUSysWin3::ExecDialogBox(GUI_HWIN)::??rA?FARFUNC_A
                                             30051464 
  TDUSysWin3::cbSysWin(WM_MESSAGE *)
                                             300514DC 
  TDUSysWin3::cbSysWin(WM_MESSAGE *)::??rA?FARFUNC_A
                                             300514DC 
  __sti__routine()                           300513A0   LOCAL
TDUSysWin4 ( F:\S2Prog\TXU\Release\Obj\TDUSysWin4.r79 )
  TDUSysWin4::new TDUSysWin4()               30051584 
  TDUSysWin4::new TDUSysWin4()::??rA?FARFUNC_A
                                             30051584 
  TDUSysWin4::aDialogCreate                  3006B31C 
  TDUSysWin4::ExecDialogBox(GUI_HWIN)
                                             3005167C 
  TDUSysWin4::ExecDialogBox(GUI_HWIN)::??rA?FARFUNC_A
                                             3005167C 
  TDUSysWin4::cbSysWin(WM_MESSAGE *)
                                             300516F4 
  TDUSysWin4::cbSysWin(WM_MESSAGE *)::??rA?FARFUNC_A
                                             300516F4 
  __sti__routine()                           300515B8   LOCAL
TDUSysWin5 ( F:\S2Prog\TXU\Release\Obj\TDUSysWin5.r79 )
  TDUSysWin5::new TDUSysWin5()               3005179C 
  TDUSysWin5::new TDUSysWin5()::??rA?FARFUNC_A
                                             3005179C 
  TDUSysWin5::aDialogCreate                  3006B334 
  TDUSysWin5::ExecDialogBox(GUI_HWIN)
                                             30051894 
  TDUSysWin5::ExecDialogBox(GUI_HWIN)::??rA?FARFUNC_A
                                             30051894 
  TDUSysWin5::InitSysWin(GUI_HWIN)           3005190C 
  TDUSysWin5::InitSysWin(GUI_HWIN)::??rA?FARFUNC_A
                                             3005190C 
  TDUSysWin5::cbSysWin(WM_MESSAGE *)
                                             30051A00 
  TDUSysWin5::cbSysWin(WM_MESSAGE *)::??rA?FARFUNC_A
                                             30051A00 
  __sti__routine()                           300517D0   LOCAL
TDUSystemWin ( F:\S2Prog\TXU\Release\Obj\TDUSystemWin.r79 )
  TDUSystemWin::new TDUSystemWin()           30051AC0 
  TDUSystemWin::new TDUSystemWin()::??rA?FARFUNC_A
                                             30051AC0 
  TDUSystemWin::TDUSystemWin()               30051BAC 
  TDUSystemWin::TDUSystemWin()::??rA?FARFUNC_A
                                             30051BAC 
  TDUSystemWin::UpdateUnitSystem(GUI_HWIN)
                                             30051C28 
  TDUSystemWin::UpdateUnitSystem(GUI_HWIN)::??rA?FARFUNC_A
                                             30051C28 
  TDUSystemWin::SetButton()                  30051C78 
  TDUSystemWin::SetButton()::??rA?FARFUNC_A
                                             30051C78 
  TDUSystemWin::ButtonClicked(int)           30051CF4 
  TDUSystemWin::ButtonClicked(int)::??rA?FARFUNC_A
                                             30051CF4 
  TDUSystemWin::cbEventHandler(WM_MESSAGE *)
                                             30051F04 
  TDUSystemWin::cbEventHandler(WM_MESSAGE *)::??rA?FARFUNC_A
                                             30051F04 
  TDUSystemWin::__vtbl                       3006B49C 
  RADIO_GetValue::??rA?FARFUNC_A             30051F48 
  __sti__routine()                           30051AE8   LOCAL
TDUTankAlarmSetting ( F:\S2Prog\TXU\Release\Obj\TDUTankAlarmSetting.r79 )
  TDUTankAlarmSetting::aDialogCreate
                                             3006B4B8 
  TDUTankAlarmSetting::ExecDialogBox(GUI_HWIN)
                                             30052018 
  TDUTankAlarmSetting::ExecDialogBox(GUI_HWIN)::??rA?FARFUNC_A
                                             30052018 
  TDUTankAlarmSetting::cbTankSetup(WM_MESSAGE *)
                                             30052130 
  TDUTankAlarmSetting::cbTankSetup(WM_MESSAGE *)::??rA?FARFUNC_A
                                             30052130 
  TDUTankAlarmSetting::new TDUTankAlarmSetting()
                                             30052534 
  TDUTankAlarmSetting::new TDUTankAlarmSetting()::??rA?FARFUNC_A
                                             30052534 
  __sti__routine()                           30051F54   LOCAL
TDUTankDensitySetting ( F:\S2Prog\TXU\Release\Obj\TDUTankDensitySetting.r79 )
  TDUTankDensitySetting::aDialogCreate
                                             3006B7A0 
  TDUTankDensitySetting::ExecDialogBox(GUI_HWIN)
                                             30052570 
  TDUTankDensitySetting::ExecDialogBox(GUI_HWIN)::??rA?FARFUNC_A
                                             30052570 
  TDUTankDensitySetting::InitDialog(GUI_HWIN, PRONode *)
                                             30052688 
  TDUTankDensitySetting::InitDialog(GUI_HWIN, PRONode *)::??rA?FARFUNC_A
                                             30052688 
  TDUTankDensitySetting::UpdateDialog(GUI_HWIN, PRONode *, int, char *)
                                             30052844 
  TDUTankDensitySetting::UpdateDialog(GUI_HWIN, PRONode *, int, char *)::??rA?FARFUNC_A
                                             30052844 
  TDUTankDensitySetting::cbTankSetup(WM_MESSAGE *)
                                             300528A0 
  TDUTankDensitySetting::cbTankSetup(WM_MESSAGE *)::??rA?FARFUNC_A
                                             300528A0 
  TDUTankDensitySetting::new TDUTankDensitySetting()
                                             30052CB8 
  TDUTankDensitySetting::new TDUTankDensitySetting()::??rA?FARFUNC_A
                                             30052CB8 
  __sti__routine()                           30052BF4   LOCAL
TDUTankPressWin ( F:\S2Prog\TXU\Release\Obj\TDUTankPressWin.r79 )
  TDUTankPressWin::new TDUTankPressWin()
                                             30052DB8 
  TDUTankPressWin::new TDUTankPressWin()::??rA?FARFUNC_A
                                             30052DB8 
  TDUTankPressWin::TDUTankPressWin()
                                             30052DE0 
  TDUTankPressWin::TDUTankPressWin()::??rA?FARFUNC_A
                                             30052DE0 
  TDUTankPressWin::SetListViewColor()
                                             30053114 
  TDUTankPressWin::SetListViewColor()::??rA?FARFUNC_A
                                             30053114 
  TDUTankPressWin::TableSetup()              30053194 
  TDUTankPressWin::TableSetup()::??rA?FARFUNC_A
                                             30053194 
  TDUTankPressWin::SetButton()               300533C8 
  TDUTankPressWin::SetButton()::??rA?FARFUNC_A
                                             300533C8 
  TDUTankPressWin::PWTimer()                 3005347C 
  TDUTankPressWin::PWTimer()::??rA?FARFUNC_A
                                             3005347C 
  TDUTankPressWin::Paintnew()                300534C4 
  TDUTankPressWin::Paintnew()::??rA?FARFUNC_A
                                             300534C4 
  TDUTankPressWin::PaintnewHeading()
                                             300536AC 
  TDUTankPressWin::PaintnewHeading()::??rA?FARFUNC_A
                                             300536AC 
  TDUTankPressWin::SetupWin()                30053850 
  TDUTankPressWin::SetupWin()::??rA?FARFUNC_A
                                             30053850 
  TDUTankPressWin::InitTankAlarmSetting(GUI_HWIN)
                                             30053A44 
  TDUTankPressWin::InitTankAlarmSetting(GUI_HWIN)::??rA?FARFUNC_A
                                             30053A44 
  TDUTankPressWin::UpdateTankAlarmSetting(GUI_HWIN, int, char *)
                                             30053DF0 
  TDUTankPressWin::UpdateTankAlarmSetting(GUI_HWIN, int, char *)::??rA?FARFUNC_A
                                             30053DF0 
  TDUTankPressWin::InitTankDensitySetting(GUI_HWIN)
                                             30053F7C 
  TDUTankPressWin::InitTankDensitySetting(GUI_HWIN)::??rA?FARFUNC_A
                                             30053F7C 
  TDUTankPressWin::UpdateDensity(GUI_HWIN, int, char *)
                                             30053F80 
  TDUTankPressWin::UpdateDensity(GUI_HWIN, int, char *)::??rA?FARFUNC_A
                                             30053F80 
  TDUTankPressWin::InitSensorSetting(GUI_HWIN)
                                             30053F84 
  TDUTankPressWin::InitSensorSetting(GUI_HWIN)::??rA?FARFUNC_A
                                             30053F84 
  TDUTankPressWin::UpdateSensorSetting(GUI_HWIN, int, char *)
                                             30053FA4 
  TDUTankPressWin::UpdateSensorSetting(GUI_HWIN, int, char *)::??rA?FARFUNC_A
                                             30053FA4 
  TDUTankPressWin::EnableSensorSetting(GUI_HWIN, int)
                                             30054040 
  TDUTankPressWin::EnableSensorSetting(GUI_HWIN, int)::??rA?FARFUNC_A
                                             30054040 
  TDUTankPressWin::InitWinSetup(GUI_HWIN)
                                             3005409C 
  TDUTankPressWin::InitWinSetup(GUI_HWIN)::??rA?FARFUNC_A
                                             3005409C 
  TDUTankPressWin::UpdateWinSetup(GUI_HWIN, int)
                                             300542A8 
  TDUTankPressWin::UpdateWinSetup(GUI_HWIN, int)::??rA?FARFUNC_A
                                             300542A8 
  TDUTankPressWin::ButtonClicked(int)
                                             300543E4 
  TDUTankPressWin::ButtonClicked(int)::??rA?FARFUNC_A
                                             300543E4 
  TDUTankPressWin::cbEventHandler(WM_MESSAGE *)
                                             300544C0 
  TDUTankPressWin::cbEventHandler(WM_MESSAGE *)::??rA?FARFUNC_A
                                             300544C0 
  TDUTankPressWin::__vtbl                    3006B8D8 
  __sti__routine()                           30052CF4   LOCAL
TDUTempGraphWin ( F:\S2Prog\TXU\Release\Obj\TDUTempGraphWin.r79 )
  TDUTempGraphWin::new TDUTempGraphWin()
                                             300545DC 
  TDUTempGraphWin::new TDUTempGraphWin()::??rA?FARFUNC_A
                                             300545DC 
  __sti__routine()                           30054518   LOCAL
TDUTempWin ( F:\S2Prog\TXU\Release\Obj\TDUTempWin.r79 )
  TDUTempWin::new TDUTempWin()               300546C4 
  TDUTempWin::new TDUTempWin()::??rA?FARFUNC_A
                                             300546C4 
  TDUTempWin::TDUTempWin()                   300546EC 
  TDUTempWin::TDUTempWin()::??rA?FARFUNC_A
                                             300546EC 
  TDUTempWin::SetListViewColor()             300549F0 
  TDUTempWin::SetListViewColor()::??rA?FARFUNC_A
                                             300549F0 
  TDUTempWin::TableSetup()                   30054A70 
  TDUTempWin::TableSetup()::??rA?FARFUNC_A
                                             30054A70 
  TDUTempWin::SetButton()                    30054CA4 
  TDUTempWin::SetButton()::??rA?FARFUNC_A
                                             30054CA4 
  TDUTempWin::PWTimer()                      30054D5C 
  TDUTempWin::PWTimer()::??rA?FARFUNC_A
                                             30054D5C 
  TDUTempWin::Paintnew()                     30054DA4 
  TDUTempWin::Paintnew()::??rA?FARFUNC_A
                                             30054DA4 
  TDUTempWin::PaintnewHeading()              30054F8C 
  TDUTempWin::PaintnewHeading()::??rA?FARFUNC_A
                                             30054F8C 
  TDUTempWin::SetupWin()                     30055130 
  TDUTempWin::SetupWin()::??rA?FARFUNC_A
                                             30055130 
  TDUTempWin::InitTankAlarmSetting(GUI_HWIN)
                                             30055324 
  TDUTempWin::InitTankAlarmSetting(GUI_HWIN)::??rA?FARFUNC_A
                                             30055324 
  TDUTempWin::UpdateTankAlarmSetting(GUI_HWIN, int, char *)
                                             300556E4 
  TDUTempWin::UpdateTankAlarmSetting(GUI_HWIN, int, char *)::??rA?FARFUNC_A
                                             300556E4 
  TDUTempWin::InitTankDensitySetting(GUI_HWIN)
                                             30055874 
  TDUTempWin::InitTankDensitySetting(GUI_HWIN)::??rA?FARFUNC_A
                                             30055874 
  TDUTempWin::UpdateDensity(GUI_HWIN, int, char *)
                                             30055878 
  TDUTempWin::UpdateDensity(GUI_HWIN, int, char *)::??rA?FARFUNC_A
                                             30055878 
  TDUTempWin::InitSensorSetting(GUI_HWIN)
                                             3005587C 
  TDUTempWin::InitSensorSetting(GUI_HWIN)::??rA?FARFUNC_A
                                             3005587C 
  TDUTempWin::UpdateSensorSetting(GUI_HWIN, int, char *)
                                             3005589C 
  TDUTempWin::UpdateSensorSetting(GUI_HWIN, int, char *)::??rA?FARFUNC_A
                                             3005589C 
  TDUTempWin::EnableSensorSetting(GUI_HWIN, int)
                                             30055938 
  TDUTempWin::EnableSensorSetting(GUI_HWIN, int)::??rA?FARFUNC_A
                                             30055938 
  TDUTempWin::InitWinSetup(GUI_HWIN)
                                             30055994 
  TDUTempWin::InitWinSetup(GUI_HWIN)::??rA?FARFUNC_A
                                             30055994 
  TDUTempWin::UpdateWinSetup(GUI_HWIN, int)
                                             30055BA0 
  TDUTempWin::UpdateWinSetup(GUI_HWIN, int)::??rA?FARFUNC_A
                                             30055BA0 
  TDUTempWin::ButtonClicked(int)             30055CDC 
  TDUTempWin::ButtonClicked(int)::??rA?FARFUNC_A
                                             30055CDC 
  TDUTempWin::cbEventHandler(WM_MESSAGE *)
                                             30055DB8 
  TDUTempWin::cbEventHandler(WM_MESSAGE *)::??rA?FARFUNC_A
                                             30055DB8 
  TDUTempWin::__vtbl                         3006B8FC 
  __sti__routine()                           30054600   LOCAL
TDUUserManual ( F:\S2Prog\TXU\Release\Obj\TDUUserManual.r79 )
  UserManualString                           30A000E0 
  TDUUserManual::aDialogCreate               3006B91C 
  TDUUserManual::ExecDialogBox(GUI_HWIN)
                                             30055ED4 
  TDUUserManual::ExecDialogBox(GUI_HWIN)::??rA?FARFUNC_A
                                             30055ED4 
  TDUUserManual::cbUserManual(WM_MESSAGE *)
                                             30055F98 
  TDUUserManual::cbUserManual(WM_MESSAGE *)::??rA?FARFUNC_A
                                             30055F98 
  SCROLLBAR_SetDefaultWidth::??rA?FARFUNC_A
                                             30056124 
  MULTIEDIT_Create::??rA?FARFUNC_A           30056130 
  MULTIEDIT_SetReadOnly::??rA?FARFUNC_A
                                             3005613C 
  MULTIEDIT_SetWrapWord::??rA?FARFUNC_A
                                             30056148 
  MULTIEDIT_SetText::??rA?FARFUNC_A
                                             30056154 
  TDUUserManual::new TDUUserManual()
                                             30056160 
  TDUUserManual::new TDUUserManual()::??rA?FARFUNC_A
                                             30056160 
  __sti__routine()                           30055E10   LOCAL
TDUWaterIngressWin ( F:\S2Prog\TXU\Release\Obj\TDUWaterIngressWin.r79 )
  TDUWaterIngressWin::delete ~TDUWaterIngressWin(TDUWaterIngressWin *)
                                             30056184 
  TDUWaterIngressWin::delete ~TDUWaterIngressWin(TDUWaterIngressWin *)::??rA?FARFUNC_A
                                             30056184 
  TDUWaterIngressWin::new TDUWaterIngressWin()
                                             300561A8 
  TDUWaterIngressWin::new TDUWaterIngressWin()::??rA?FARFUNC_A
                                             300561A8 
  TDUWaterIngressWin::TDUWaterIngressWin()
                                             3005634C 
  TDUWaterIngressWin::TDUWaterIngressWin()::??rA?FARFUNC_A
                                             3005634C 
  TDUWaterIngressWin::SetButton()            3005672C 
  TDUWaterIngressWin::SetButton()::??rA?FARFUNC_A
                                             3005672C 
  TDUWaterIngressWin::PWTimer()              300567B0 
  TDUWaterIngressWin::PWTimer()::??rA?FARFUNC_A
                                             300567B0 
  TDUWaterIngressWin::Paintnew()             300567EC 
  TDUWaterIngressWin::Paintnew()::??rA?FARFUNC_A
                                             300567EC 
  TDUWaterIngressWin::ButtonClicked(int)
                                             30056AC0 
  TDUWaterIngressWin::ButtonClicked(int)::??rA?FARFUNC_A
                                             30056AC0 
  TDUWaterIngressWin::UnitButtonClicked(GUI_HWIN, int)
                                             30056AC4 
  TDUWaterIngressWin::UnitButtonClicked(GUI_HWIN, int)::??rA?FARFUNC_A
                                             30056AC4 
  TDUWaterIngressWin::cbEventHandler(WM_MESSAGE *)
                                             30056D74 
  TDUWaterIngressWin::cbEventHandler(WM_MESSAGE *)::??rA?FARFUNC_A
                                             30056D74 
  TDUWaterIngressWin::__vtbl                 3006B994 
  SCROLLBAR_Create::??rA?FARFUNC_A           30056DF8 
  HEADER_Create::??rA?FARFUNC_A              30056E04 
  SCROLLBAR_SetNumItems::??rA?FARFUNC_A
                                             30056E10 
  SCROLLBAR_SetPageSize::??rA?FARFUNC_A
                                             30056E1C 
  CHECKBOX_Create::??rA?FARFUNC_A            30056E28 
  BUTTON_GetBkColor::??rA?FARFUNC_A
                                             30056E34 
  SCROLLBAR_GetValue::??rA?FARFUNC_A
                                             30056E40 
  WM_MoveTo::??rA?FARFUNC_A                  30056E4C 
  __sti__routine()                           300561D0   LOCAL
  cbWin1(WM_MESSAGE *)                       30056294   LOCAL
  cbWin0(WM_MESSAGE *)                       30056318   LOCAL
TPCAlarmWindow ( F:\S2Prog\TXU\Release\Obj\TPCAlarmWindow.r79 )
  TPCAlarmWindow::new TPCAlarmWindow()
                                             30056F1C 
  TPCAlarmWindow::new TPCAlarmWindow()::??rA?FARFUNC_A
                                             30056F1C 
  TPCAlarmWindow::TPCAlarmWindow()           30056F44 
  TPCAlarmWindow::TPCAlarmWindow()::??rA?FARFUNC_A
                                             30056F44 
  TPCAlarmWindow::MakeConfigString(TSNConfigString &)
                                             30056F58 
  TPCAlarmWindow::MakeConfigString(TSNConfigString &)::??rA?FARFUNC_A
                                             30056F58 
  TPCAlarmWindow::LoadConfigString(TSNConfigString &)
                                             30057344 
  TPCAlarmWindow::LoadConfigString(TSNConfigString &)::??rA?FARFUNC_A
                                             30057344 
  TPCAlarmWindow::delete ~TPCAlarmWindow(TPCAlarmWindow *)
                                             300576AC 
  TPCAlarmWindow::delete ~TPCAlarmWindow(TPCAlarmWindow *)::??rA?FARFUNC_A
                                             300576AC 
  __sti__routine()                           30056E58   LOCAL
TPCWindow ( F:\S2Prog\TXU\Release\Obj\TPCWindow.r79 )
  TPCWindow::new TPCWindow()                 30057784 
  TPCWindow::new TPCWindow()::??rA?FARFUNC_A
                                             30057784 
  TPCWindow::TPCWindow()                     300577AC 
  TPCWindow::TPCWindow()::??rA?FARFUNC_A
                                             300577AC 
  TPCWindow::MakeConfigString(TSNConfigString &)
                                             300577CC 
  TPCWindow::MakeConfigString(TSNConfigString &)::??rA?FARFUNC_A
                                             300577CC 
  TPCWindow::LoadConfigString(TSNConfigString &)
                                             30057C88 
  TPCWindow::LoadConfigString(TSNConfigString &)::??rA?FARFUNC_A
                                             30057C88 
  TPCWindow::UpdateWindow()                  3005803C 
  TPCWindow::UpdateWindow()::??rA?FARFUNC_A
                                             3005803C 
  TPCWindow::delete ~TPCWindow(TPCWindow *)
                                             30058104 
  TPCWindow::delete ~TPCWindow(TPCWindow *)::??rA?FARFUNC_A
                                             30058104 
  __sti__routine()                           300576C0   LOCAL
TSNAsyncReceiver ( F:\S2Prog\TXU\Release\Obj\TSNAsyncReceiver.r79 )
  TSNAsyncReceiver::EntryPoint(int)
                                             300581DC 
  TSNAsyncReceiver::EntryPoint(int)::??rA?FARFUNC_A
                                             300581DC 
  TSNAsyncReceiver::EntryPoint0()            30058240 
  TSNAsyncReceiver::EntryPoint0()::??rA?FARFUNC_A
                                             30058240 
  TSNAsyncReceiver::EntryPoint1()            3005824C 
  TSNAsyncReceiver::EntryPoint1()::??rA?FARFUNC_A
                                             3005824C 
  TSNAsyncReceiver::EntryPoint2()            30058260 
  TSNAsyncReceiver::EntryPoint2()::??rA?FARFUNC_A
                                             30058260 
  TSNAsyncReceiver::EntryPoint3()            3005826C 
  TSNAsyncReceiver::EntryPoint3()::??rA?FARFUNC_A
                                             3005826C 
  TSNAsyncReceiver::EntryPoint4()            30058278 
  TSNAsyncReceiver::EntryPoint4()::??rA?FARFUNC_A
                                             30058278 
  TSNAsyncReceiver::EntryPoint5()            30058284 
  TSNAsyncReceiver::EntryPoint5()::??rA?FARFUNC_A
                                             30058284 
  TSNAsyncReceiver::EntryPoint6()            30058290 
  TSNAsyncReceiver::EntryPoint6()::??rA?FARFUNC_A
                                             30058290 
  __sti__routine()                           30058118   LOCAL
TSNAsyncsender ( F:\S2Prog\TXU\Release\Obj\TSNAsyncsender.r79 )
  TSNAsyncSender::NormalCommandQ             30A14354 
  TSNAsyncSender::UrgentCommandQ             30A14350 
  TSNAsyncSender::TaskEntryPoint()           30058360 
  TSNAsyncSender::TaskEntryPoint()::??rA?FARFUNC_A
                                             30058360 
  __sti__routine()                           3005829C   LOCAL
TSNConfigInfo ( F:\S2Prog\TXU\Release\Obj\TSNConfigInfo.r79 )
  TSNConfigInfo::new TSNConfigInfo()
                                             300585F4 
  TSNConfigInfo::new TSNConfigInfo()::??rA?FARFUNC_A
                                             300585F4 
  TSNConfigInfo::TSNConfigInfo()             3005861C 
  TSNConfigInfo::TSNConfigInfo()::??rA?FARFUNC_A
                                             3005861C 
  TSNConfigInfo::LoadConfigFromFile(TSNConfigString &)
                                             300586DC 
  TSNConfigInfo::LoadConfigFromFile(TSNConfigString &)::??rA?FARFUNC_A
                                             300586DC 
  __sti__routine()                           30058530   LOCAL
TSNConfigString ( F:\S2Prog\TXU\Release\Obj\TSNConfigString.r79 )
  TSNConfigString::TSNConfigString(TSNString)::??rA?FARFUNC_A
                                             30058B4C 
  TSNConfigString::TSNConfigString(TSNString)
                                             30058B4C 
  TSNConfigString::~TSNConfigString()
                                             30058BE0 
  TSNConfigString::~TSNConfigString()::??rA?FARFUNC_A
                                             30058BE0 
  TSNConfigString::SetToPreviousWord()
                                             30058BF8 
  TSNConfigString::SetToPreviousWord()::??rA?FARFUNC_A
                                             30058BF8 
  TSNConfigString::NextWord(int &)           30058C0C 
  TSNConfigString::NextWord(int &)::??rA?FARFUNC_A
                                             30058C0C 
  TSNConfigString::GetRemainingLine(int &)
                                             30058F04 
  TSNConfigString::GetRemainingLine(int &)::??rA?FARFUNC_A
                                             30058F04 
  TSNConfigString::ReadDouble(int &, int)
                                             30059174 
  TSNConfigString::ReadDouble(int &, int)::??rA?FARFUNC_A
                                             30059174 
  TSNConfigString::ReadLong(int &, int)
                                             3005928C 
  TSNConfigString::ReadLong(int &, int)::??rA?FARFUNC_A
                                             3005928C 
  TSNConfigString::AddString(TSNString)
                                             3005939C 
  TSNConfigString::AddString(TSNString)::??rA?FARFUNC_A
                                             3005939C 
  _Stod::??rA?FARFUNC_A                      3005942C 
  strtol::??rA?FARFUNC_A                     30059438 
  __sti__routine()                           30058A88   LOCAL
TSNConfigUtilities ( F:\S2Prog\TXU\Release\Obj\TSNConfigUtilities.r79 )
  SurvConfigKey                              30A000E4 
  SortKeywordList()                          300595F8 
  SortKeywordList()::??rA?FARFUNC_A
                                             300595F8 
  FindConfigKey(TSNString)                   30059620 
  FindConfigKey(TSNString)::??rA?FARFUNC_A
                                             30059620 
  KeyWord(int)                               30059694 
  KeyWord(int)::??rA?FARFUNC_A               30059694 
  GiveConfigWarning(TSNString)               3005984C 
  GiveConfigWarning(TSNString)::??rA?FARFUNC_A
                                             3005984C 
  InputErrorMessage(TSNString)               3005992C 
  InputErrorMessage(TSNString)::??rA?FARFUNC_A
                                             3005992C 
  FindPROFromIDNumber(int)                   30059A0C 
  FindPROFromIDNumber(int)::??rA?FARFUNC_A
                                             30059A0C 
  AddToIOUnits(PROIOComponent *, PRogramObject *)
                                             30059FB4 
  AddToIOUnits(PROIOComponent *, PRogramObject *)::??rA?FARFUNC_A
                                             30059FB4 
  CreateIOUnits()                            3005A194 
  CreateIOUnits()::??rA?FARFUNC_A            3005A194 
  LoadConfig(TSNConfigString &)              3005A5B4 
  LoadConfig(TSNConfigString &)::??rA?FARFUNC_A
                                             3005A5B4 
  LoadConfigFromFlash()                      3005B024 
  LoadConfigFromFlash()::??rA?FARFUNC_A
                                             3005B024 
  qsort::??rA?FARFUNC_A                      3005B0D8 
  bsearch::??rA?FARFUNC_A                    3005B0E4 
  __sti__routine()                           30059444   LOCAL
  CompareKeywordInTable(void const *, void const *)
                                             30059508   LOCAL
  CompareKeyword(void const *, void const *)
                                             3005957C   LOCAL
TSNGlobalVariables ( F:\S2Prog\TXU\Release\Obj\TSNGlobalVariables.r79 )
  CurrentUnitId                              30A6BA96 
  CurrentUnitAddress                         30A6BA98 
  Master                                     30A6BAC7 
  PROProjectInfoPtr                          30A14658 
  PROAtmRefPtr                               30A1465C 
  PROInclinPtr                               30A14660 
  PRODraftPtr                                30A14664 
  TanksystemTCUList                          30A14668 
  PROTankList                                30A1466C 
  PROTankPressList                           30A14670 
  PROTempList                                30A14674 
  PROWaterIngrList                           30A14678 
  TPCxList                                   30A1467C 
  IOUnitPortList                             30A14680 
  PROCargoList                               30A1469C 
  PROBallastList                             30A146A0 
  PROServiceList                             30A146A4 
  AlarmSilence                               30A146C4 
  CtrlAlarmRelayPtr                          30A146A8 
  CtrlBuzzerPtr                              30A146AC 
  CtrlHornPtr                                30A146B4 
  CtrlLampPtr                                30A146B8 
  CtrlLightPtr                               30A146B0 
  PROAcknowAlarmList                         30A146C0 
  PROActiveAlarmList                         30A146BC 
  TXUSystemData                              30A146C8 
  ConfigInfoPtr                              30A146CC 
  BallastDensity                             30A020F4 
  SeaWaterDensity                            30A020F8 
  FreshWaterDensity                          30A020FC 
  HeavyFuelDensity                           30A02100 
  DieselDensity                              30A02104 
  LubricantsDensity                          30A02108 
  CurrentLanguage                            30A146D0 
  InitGlobalVariables()                      3005B1B4 
  InitGlobalVariables()::??rA?FARFUNC_A
                                             3005B1B4 
  __sti__routine()                           3005B0F0   LOCAL
TSNLanguage ( F:\S2Prog\TXU\Release\Obj\TSNLanguage.r79 )
  S2Dictionary                               30A0210C 
  FindDictionaryWord(int)                    3005B2FC 
  FindDictionaryWord(int)::??rA?FARFUNC_A
                                             3005B2FC 
  __sti__routine()                           3005B228   LOCAL
  CompareKey(void const *, void const *)
                                             3005B2EC   LOCAL
TSNLibrarian ( F:\S2Prog\TXU\Release\Obj\TSNLibrarian.r79 )
  InputErrorMsg                              30A05BD0 
  System_Unit                                30A04A4C 
  TankValueList                              30A0522C 
  TempValueList                              30A0531C 
  TankPressValueList                         30A0536C 
  SizeofTankValueList                        30A053BC 
  SizeofTempValueList                        30A053C0 
  SizeofTankPressValueList                   30A053C4 
  PWBackColorList                            30A053C8 
  PWTextColorList                            30A05418 
  SizeofPWBackColorList                      30A05468 
  SizeofPWTextColorList                      30A0546C 
  Find_Value(ValueList *, int, int)
                                             3005B4C0 
  Find_Value(ValueList *, int, int)::??rA?FARFUNC_A
                                             3005B4C0 
  GetValueName(ValueList *, int, int)
                                             3005B4F8 
  GetValueName(ValueList *, int, int)::??rA?FARFUNC_A
                                             3005B4F8 
  SetStdSIUnits()                            3005B53C 
  SetStdSIUnits()::??rA?FARFUNC_A            3005B53C 
  SetStdUSUnits()                            3005B598 
  SetStdUSUnits()::??rA?FARFUNC_A            3005B598 
  make_feet_to_str(char *, float, int)
                                             3005B5F8 
  make_feet_to_str(char *, float, int)::??rA?FARFUNC_A
                                             3005B5F8 
  ConvertFromSi(char *, float, int, int, int)
                                             3005B7B0 
  ConvertFromSi(char *, float, int, int, int)::??rA?FARFUNC_A
                                             3005B7B0 
  GetUnitName(int)                           3005BFCC 
  GetUnitName(int)::??rA?FARFUNC_A           3005BFCC 
  GetValue(int, PRogramObjectBase *, int, int)
                                             3005BFFC 
  GetValue(int, PRogramObjectBase *, int, int)::??rA?FARFUNC_A
                                             3005BFFC 
  GetValue(int, PRogramObjectBase *, int, int, TSNString *)::??rA?FARFUNC_A
                                             3005C02C 
  GetValue(int, PRogramObjectBase *, int, int, TSNString *)
                                             3005C02C 
  GetFloat(TSNString, int &)                 3005C624 
  GetFloat(TSNString, int &)::??rA?FARFUNC_A
                                             3005C624 
  GetUnsigned(TSNString, int &)              3005C67C 
  GetUnsigned(TSNString, int &)::??rA?FARFUNC_A
                                             3005C67C 
  Make_str_to_feet(char *)                   3005C6D8 
  Make_str_to_feet(char *)::??rA?FARFUNC_A
                                             3005C6D8 
  ConvertToSi(TSNString, int, int &, float, float, float)
                                             3005C818 
  ConvertToSi(TSNString, int, int &, float, float, float)::??rA?FARFUNC_A
                                             3005C818 
  PutValue(int, PRogramObjectBase *, TSNString, bool)
                                             3005CDA4 
  PutValue(int, PRogramObjectBase *, TSNString, bool)::??rA?FARFUNC_A
                                             3005CDA4 
  _Strpbrk::??rA?FARFUNC_A                   3005D0AC 
  __sti__routine()                           3005B3FC   LOCAL
TSNMessageQ ( F:\S2Prog\TXU\Release\Obj\TSNMessageQ.r79 )
  TSNMessageQ::new TSNMessageQ(int)::??rA?FARFUNC_A
                                             3005D0B8 
  TSNMessageQ::new TSNMessageQ(int)
                                             3005D0B8 
  TSNMessageQ::TSNMessageQ(int)::??rA?FARFUNC_A
                                             3005D1AC 
  TSNMessageQ::TSNMessageQ(int)              3005D1AC 
  TSNMessageQ::PostMessage(void *, int)
                                             3005D1F0 
  TSNMessageQ::PostMessage(void *, int)::??rA?FARFUNC_A
                                             3005D1F0 
  TSNMessageQ::GetMessage(void *, int *)
                                             3005D214 
  TSNMessageQ::GetMessage(void *, int *)::??rA?FARFUNC_A
                                             3005D214 
  __sti__routine()                           3005D0E8   LOCAL
TSNString ( F:\S2Prog\TXU\Release\Obj\TSNString.r79 )
  string::assign(char const *, size_type)::??rA?FARFUNC_A
                                             3005D2A4 
  string::assign(char const *, size_type)
                                             3005D2A4 
  string::insert(size_type, _Myt const &, size_type, size_type)
                                             3005D390 
  string::insert(size_type, _Myt const &, size_type, size_type)::??rA?FARFUNC_A
                                             3005D390 
  TSNString::TSNString()                     3005D50C 
  TSNString::TSNString()::??rA?FARFUNC_A
                                             3005D50C 
  TSNString::TSNString(string const &)::??rA?FARFUNC_A
                                             3005D524 
  TSNString::TSNString(string const &)
                                             3005D524 
  TSNString::TSNString(char const *)::??rA?FARFUNC_A
                                             3005D55C 
  TSNString::TSNString(char const *)
                                             3005D55C 
  TSNString::TSNString(char)::??rA?FARFUNC_A
                                             3005D5A4 
  TSNString::TSNString(char)                 3005D5A4 
  TSNString::TSNString(int)::??rA?FARFUNC_A
                                             3005D5FC 
  TSNString::TSNString(int)                  3005D5FC 
  TSNString::TSNString(unsigned int)::??rA?FARFUNC_A
                                             3005D674 
  TSNString::TSNString(unsigned int)
                                             3005D674 
  TSNString::TSNString(double)::??rA?FARFUNC_A
                                             3005D6EC 
  TSNString::TSNString(double)               3005D6EC 
  TSNString::sprintf(char const *, ...)
                                             3005D76C 
  TSNString::sprintf(char const *, ...)::??rA?FARFUNC_A
                                             3005D76C 
  TSNString::Length()                        3005D7F4 
  TSNString::Length()::??rA?FARFUNC_A
                                             3005D7F4 
  TSNString::IsEmpty()                       3005D800 
  TSNString::IsEmpty()::??rA?FARFUNC_A
                                             3005D800 
  TSNString::Insert(TSNString, int)
                                             3005D818 
  TSNString::Insert(TSNString, int)::??rA?FARFUNC_A
                                             3005D818 
TSNTasks ( F:\S2Prog\TXU\Release\Obj\TSNTasks.r79 )
  ANPRO10_IO_Handler(TSNUart *)              3005DE98 
  ANPRO10_IO_Handler(TSNUart *)::??rA?FARFUNC_A
                                             3005DE98 
  ReceiverTCB                                30A38C54 
  aTCB                                       30A389D4 
  StartWindowTasks()                         3005DF30 
  StartWindowTasks()::??rA?FARFUNC_A
                                             3005DF30 
  StartControllerTask()                      3005E03C 
  StartControllerTask()::??rA?FARFUNC_A
                                             3005E03C 
  StartSimulatorTasks()                      3005E0BC 
  StartSimulatorTasks()::??rA?FARFUNC_A
                                             3005E0BC 
  StartAlarmDistributionTask()               3005E108 
  StartAlarmDistributionTask()::??rA?FARFUNC_A
                                             3005E108 
  StartSysInfoTask()                         3005E154 
  StartSysInfoTask()::??rA?FARFUNC_A
                                             3005E154 
  StartCommunication()                       3005E1A0 
  StartCommunication()::??rA?FARFUNC_A
                                             3005E1A0 
  StartSimulatorCommunication()              3005E3B8 
  StartSimulatorCommunication()::??rA?FARFUNC_A
                                             3005E3B8 
  ConfigUartsTDU()                           3005E408 
  ConfigUartsTDU()::??rA?FARFUNC_A           3005E408 
  StartTasks()                               3005E478 
  StartTasks()::??rA?FARFUNC_A               3005E478 
  __sti__routine()                           3005D850   LOCAL
  AlarmWindowTask()                          3005D914   LOCAL
  AlarmTask()                                3005D998   LOCAL
  AlarmDistributeTask()                      3005DACC   LOCAL
  ControllerTask()                           3005DAEC   LOCAL
  TPCxTask()                                 3005DBD8   LOCAL
  SystemWindowsTask()                        3005DC40   LOCAL
  PresentWindowsTask()                       3005DCA4   LOCAL
  _GUI_Task()                                3005DE88   LOCAL
TSNTimer ( F:\S2Prog\TXU\Release\Obj\TSNTimer.r79 )
  TSNTimer::TSNTimer()                       3005E844 
  TSNTimer::TSNTimer()::??rA?FARFUNC_A
                                             3005E844 
  TSNTimer::~TSNTimer()                      3005E854 
  TSNTimer::~TSNTimer()::??rA?FARFUNC_A
                                             3005E854 
  TSNTimer::Start(unsigned int)              3005E858 
  TSNTimer::Start(unsigned int)::??rA?FARFUNC_A
                                             3005E858 
  TSNTimer::Stop()                           3005E87C 
  TSNTimer::Stop()::??rA?FARFUNC_A           3005E87C 
  TSNTimer::SeggerCallback()                 3005E88C 
  TSNTimer::SeggerCallback()::??rA?FARFUNC_A
                                             3005E88C 
  TSNTimer::TimerCallback()                  3005E930 
  TSNTimer::TimerCallback()::??rA?FARFUNC_A
                                             3005E930 
  TSNTimer::__vtbl                           3006BAEC 
TSNUart ( F:\S2Prog\TXU\Release\Obj\TSNUart.r79 )
  TSNUart::Channels                          30A38DF4 
  TSNUart::new TSNUart()                     3005E934 
  TSNUart::new TSNUart()::??rA?FARFUNC_A
                                             3005E934 
  TSNUart::TSNUart(int, unsigned int, unsigned int, unsigned int, char, unsigned int)
                                             3005EA20 
  TSNUart::TSNUart(int, unsigned int, unsigned int, unsigned int, char, unsigned int)::??rA?FARFUNC_A
                                             3005EA20 
  TSNUart::TSNUart()::??rA?FARFUNC_A
                                             3005EAB0 
  TSNUart::TSNUart()                         3005EAB0 
  TSNUart::EnableInt()                       3005EAFC 
  TSNUart::EnableInt()::??rA?FARFUNC_A
                                             3005EAFC 
  TSNUart::Transmit()                        3005EB00 
  TSNUart::Transmit()::??rA?FARFUNC_A
                                             3005EB00 
  TSNUart::Receive()::??rA?FARFUNC_A
                                             3005EB04 
  TSNUart::Receive()                         3005EB04 
  TSNUart::HandleInterrupt()                 3005EB08 
  TSNUart::HandleInterrupt()::??rA?FARFUNC_A
                                             3005EB08 
  TSNUart::Send(unsigned char *, int, char)
                                             3005EB0C 
  TSNUart::Send(unsigned char *, int, char)::??rA?FARFUNC_A
                                             3005EB0C 
  TSNUart::Receive(unsigned char *, int, int)
                                             3005EB14 
  TSNUart::Receive(unsigned char *, int, int)::??rA?FARFUNC_A
                                             3005EB14 
  TSNUart::Open()                            3005EB1C 
  TSNUart::Open()::??rA?FARFUNC_A            3005EB1C 
  TSNUart::Close()                           3005EB24 
  TSNUart::Close()::??rA?FARFUNC_A           3005EB24 
  HandleUARTInterrupt                        3005EB2C 
  HandleUARTInterrupt::??rA?FARFUNC_A
                                             3005EB2C 
  TSNUart::MakeConfigString(TSNConfigString &)
                                             3005EB60 
  TSNUart::MakeConfigString(TSNConfigString &)::??rA?FARFUNC_A
                                             3005EB60 
  TSNUart::LoadConfigString(TSNConfigString &)
                                             3005F4C8 
  TSNUart::LoadConfigString(TSNConfigString &)::??rA?FARFUNC_A
                                             3005F4C8 
  TSNUart::__vtbl                            3006BAF0 
  __sti__routine()                           3005E95C   LOCAL
TSNUtilities ( F:\S2Prog\TXU\Release\Obj\TSNUtilities.r79 )
  Time(char *)                               3005FB38 
  Time(char *)::??rA?FARFUNC_A               3005FB38 
  IntPol1stDeg(float, float, float, float, float)
                                             3005FB84 
  IntPol1stDeg(float, float, float, float, float)::??rA?FARFUNC_A
                                             3005FB84 
  Calc_2ndDeg_coeffs(float, float, float, float, float, float, float &, float &, float &)
                                             3005FC00 
  Calc_2ndDeg_coeffs(float, float, float, float, float, float, float &, float &, float &)::??rA?FARFUNC_A
                                             3005FC00 
  lfind(void const *, void *, size_t *, size_t, int (__atpcs __interwork *)(void const *, void const *))
                                             3005FE68 
  lfind(void const *, void *, size_t *, size_t, int (__atpcs __interwork *)(void const *, void const *))::??rA?FARFUNC_A
                                             3005FE68 
  Restart()                                  3005FEC4 
  Restart()::??rA?FARFUNC_A                  3005FEC4 
  CheckAlarms(PROLinkedList *)               3005FF0C 
  CheckAlarms(PROLinkedList *)::??rA?FARFUNC_A
                                             3005FF0C 
  RecalcProgramObjects(PROLinkedList *)
                                             3005FF84 
  RecalcProgramObjects(PROLinkedList *)::??rA?FARFUNC_A
                                             3005FF84 
  RecalcProgramObject(PRogramObject *)
                                             30060008 
  RecalcProgramObject(PRogramObject *)::??rA?FARFUNC_A
                                             30060008 
  ??rA??DiI_a?FARFUNC_A                      30060034 
  MMU_DisableMMU::??rA?FARFUNC_A             30060040 
  __sti__routine()                           3005FA74   LOCAL
TXU_ RTOSInit ( F:\S2Prog\TXU\Release\Obj\TXU_ RTOSInit.r79 )
  ADChannel                                  30A38F08 
  ADIntCnt                                   30A38EF4 
  CurrentTime                                30A38EFC 
  DefaultIrqCnt                              30A38F04 
  FastTime                                   30A38EF8 
  IrqCnt                                     30A38F00 
  KbdIntCnt                                  30A38EF0 
  TXUADData                                  30A38ED0 
  TouchKeyPressed                            30A38F09 
  OS_InitHW                                  3006004C 
  OS_InitHW::??rA?FARFUNC_A                  3006004C 
  OS_Idle                                    30060124 
  OS_Idle::??rA?FARFUNC_A                    30060124 
  OS_GetTime_Cycles                          30060128 
  OS_GetTime_Cycles::??rA?FARFUNC_A
                                             30060128 
  OS_COM_Init                                30060180 
  OS_COM_Init::??rA?FARFUNC_A                30060180 
  OS_ISR_rx                                  300601D8 
  OS_ISR_rx::??rA?FARFUNC_A                  300601D8 
  OS_COM_Send1                               30060200 
  OS_COM_Send1::??rA?FARFUNC_A               30060200 
  swiHandler                                 30060210 
  swiHandler::??rA?FARFUNC_A                 30060210 
  OS_irq_handler                             30060214 
  OS_irq_handler::??rA?FARFUNC_A             30060214 
  OS_SwitchFromInt::??rA?FARFUNC_A           3006061C 
TanksystemPanelController ( F:\S2Prog\TXU\Release\Obj\TanksystemPanelController.r79 )
  PROAlarmSettingBasic::operator=(PROAlarmSettingBasic const &)
                                             30060628 
  PROAlarmSettingBasic::operator=(PROAlarmSettingBasic const &)::??rA?FARFUNC_A
                                             30060628 
  TanksystemPanelController::NumberOfPRO
                                             30A38FCC 
  TanksystemPanelController::new TanksystemPanelController()
                                             30060774 
  TanksystemPanelController::new TanksystemPanelController()::??rA?FARFUNC_A
                                             30060774 
  TanksystemPanelController::TanksystemPanelController()
                                             3006079C 
  TanksystemPanelController::TanksystemPanelController()::??rA?FARFUNC_A
                                             3006079C 
  TanksystemPanelController::~TanksystemPanelController()
                                             30060848 
  TanksystemPanelController::~TanksystemPanelController()::??rA?FARFUNC_A
                                             30060848 
  TanksystemPanelController::MakeConfigString(TSNConfigString &)
                                             300608F8 
  TanksystemPanelController::MakeConfigString(TSNConfigString &)::??rA?FARFUNC_A
                                             300608F8 
  TanksystemPanelController::LoadConfigString(TSNConfigString &)
                                             30060F0C 
  TanksystemPanelController::LoadConfigString(TSNConfigString &)::??rA?FARFUNC_A
                                             30060F0C 
  TanksystemPanelController::WriteConfigToFile(TSNConfigString &)
                                             3006126C 
  TanksystemPanelController::WriteConfigToFile(TSNConfigString &)::??rA?FARFUNC_A
                                             3006126C 
  TanksystemPanelController::LoadConfigFromFile(TSNConfigString &)
                                             30061454 
  TanksystemPanelController::LoadConfigFromFile(TSNConfigString &)::??rA?FARFUNC_A
                                             30061454 
  TanksystemPanelController::UpdateWindows()
                                             30061714 
  TanksystemPanelController::UpdateWindows()::??rA?FARFUNC_A
                                             30061714 
  TanksystemPanelController::UpdateAlarmWindow(PRogramObject *)
                                             30061784 
  TanksystemPanelController::UpdateAlarmWindow(PRogramObject *)::??rA?FARFUNC_A
                                             30061784 
  TanksystemPanelController::__vtbl
                                             3006BB10 
  __sti__routine()                           300606B0   LOCAL
TsnTable ( F:\S2Prog\TXU\Release\Obj\TsnTable.r79 )
  TableData::new TableData(TSNConfigString &, int &, int)::??rA?FARFUNC_A
                                             30061A24 
  TableData::new TableData(TSNConfigString &, int &, int)
                                             30061A24 
  TableData::delete ~TableData(TableData *)
                                             30061A64 
  TableData::delete ~TableData(TableData *)::??rA?FARFUNC_A
                                             30061A64 
  TableData::TableData(TSNConfigString &, int &, int)::??rA?FARFUNC_A
                                             30061A88 
  TableData::TableData(TSNConfigString &, int &, int)
                                             30061A88 
  TableData::MakeConfigString()              30061BE0 
  TableData::MakeConfigString()::??rA?FARFUNC_A
                                             30061BE0 
  TableData::Calc_Y(float)                   30061ED4 
  TableData::Calc_Y(float)::??rA?FARFUNC_A
                                             30061ED4 
  TableData::Calc_YPercent(float)            30062038 
  TableData::Calc_YPercent(float)::??rA?FARFUNC_A
                                             30062038 
  TableData::Calc_X(float)                   30062074 
  TableData::Calc_X(float)::??rA?FARFUNC_A
                                             30062074 
  SecondDegreeTable::Calc_Y(float)::??rA?FARFUNC_A
                                             30062128 
  SecondDegreeTable::Calc_Y(float)           30062128 
  TableData::__vtbl                          3006BB50 
  SecondDegreeTable::__vtbl                  3006BB58 
  __sti__routine()                           30061960   LOCAL
Txu_HW_Init ( F:\S2Prog\TXU\Release\Obj\Txu_HW_Init.r79 )
  TargetSetupInit()                          300622B8 
  TargetSetupInit()::??rA?FARFUNC_A
                                             300622B8 
?RESET ( F:\S2Prog\TXU\Release\Obj\Txu_cstartup.r79 )
?CSTARTUP ( F:\S2Prog\TXU\Release\Obj\Txu_cstartup.r79 )
  ?cstartup                                  30000288 
  ?call_ctors                                300002EC 
  __main                                     30000328 
?_EXIT ( F:\S2Prog\TXU\Release\Obj\Txu_cstartup.r79 )
  _exit                                      300007B8 
  ?exit_save                                 300007B8 
  __cstart_call_dtors                        300007BC 
  __cstart_closeall                          300007CC 
  ?exit_restore                              300007DC 
  ?jump_to_exit                              300007E0 
?__EXIT ( F:\S2Prog\TXU\Release\Obj\Txu_cstartup.r79 )
  __exit                                     30000800 
?INITTAB ( F:\S2Prog\TXU\Release\Obj\Txu_cstartup.r79 )
  __segment_begin_INITTAB                    3006BB78 
  __segment_end_INITTAB                      3006BB7C 
UserIRQ ( F:\S2Prog\TXU\Release\Obj\UserIRQ.r79 )
WindowsSystem ( F:\S2Prog\TXU\Release\Obj\WindowsSystem.r79 )
  TDUStartupInit()                           300623D0 
  TDUStartupInit()::??rA?FARFUNC_A           300623D0 
  StartWindowSystem()                        300624B4 
  StartWindowSystem()::??rA?FARFUNC_A
                                             300624B4 
  WM_SetCreateFlags::??rA?FARFUNC_A
                                             30062734 
  LCD_GetXSize::??rA?FARFUNC_A               30062740 
  LCD_GetYSize::??rA?FARFUNC_A               3006274C 
  __sti__routine()                           300622F0   LOCAL
  _cbBkWindow(WM_MESSAGE *)                  300623B4   LOCAL
abort ( F:\S2Prog\TXU\Release\Obj\abort.r79 )
  abort                                      30062758 
  abort::??rA?FARFUNC_A                      30062758 
  __exit::??rA?FARFUNC_A                     3006276C 
close ( F:\S2Prog\TXU\Release\Obj\close.r79 )
  __close                                    30062778 
  __close::??rA?FARFUNC_A                    30062778 
cppinit ( F:\S2Prog\TXU\Release\Obj\cppinit.r79 )
  __call_ctors                               30062780 
  __call_ctors::??rA?FARFUNC_A               30062780 
  __record_needed_destruction                300627B0 
  __record_needed_destruction::??rA?FARFUNC_A
                                             300627B0 
  __call_dtors                               30062800 
  __call_dtors::??rA?FARFUNC_A               30062800 
environ ( F:\S2Prog\TXU\Release\Obj\environ.r79 )
guitask ( F:\S2Prog\TXU\Release\Obj\guitask.r79 )
  GUI_Unlock                                 30062874 
  GUI_Unlock::??rA?FARFUNC_A                 30062874 
  GUI_Lock                                   3006289C 
  GUI_Lock::??rA?FARFUNC_A                   3006289C 
  GUITASK_Init                               30062988 
  GUITASK_Init::??rA?FARFUNC_A               30062988 
low_level_init ( F:\S2Prog\TXU\Release\Obj\low_level_init.r79 )
  __low_level_init                           30000348 
  __low_level_init::??rA?ICODE               30000348 
lseek ( F:\S2Prog\TXU\Release\Obj\lseek.r79 )
mmu ( F:\S2Prog\TXU\Release\Obj\mmu.r79 )
  MMU_Init                                   300629EC 
  MMU_Init::??rA?FARFUNC_A                   300629EC 
  MMU_SetMTT                                 30062BE8 
  MMU_SetMTT::??rA?FARFUNC_A                 30062BE8 
  MMU_DisableDCache::??rA?FARFUNC_A
                                             30062C3C 
  MMU_DisableICache::??rA?FARFUNC_A
                                             30062C48 
  MMU_CleanInvalidateDCacheIndex::??rA?FARFUNC_A
                                             30062C54 
  MMU_InvalidateICache::??rA?FARFUNC_A
                                             30062C60 
  MMU_InvalidateTLB::??rA?FARFUNC_A
                                             30062C6C 
  MMU_SetTTBase::??rA?FARFUNC_A              30062C78 
  MMU_SetDomain::??rA?FARFUNC_A              30062C84 
  MMU_SetProcessId::??rA?FARFUNC_A           30062C90 
  MMU_EnableAlignFault::??rA?FARFUNC_A
                                             30062C9C 
  MMU_EnableMMU::??rA?FARFUNC_A              30062CA8 
  MMU_EnableICache::??rA?FARFUNC_A           30062CB4 
  MMU_EnableDCache::??rA?FARFUNC_A           30062CC0 
mx29LV160TB ( F:\S2Prog\TXU\Release\Obj\mx29LV160TB.r79 )
  FlashBaseAddress                           30A0583C 
  SectorTable                                30A05848 
  firstAddr                                  30A05840 
  secondAddr                                 30A05844 
  ProgramMX29LV160(unsigned long, unsigned long, unsigned long, unsigned long)
                                             30062CCC 
  ProgramMX29LV160(unsigned long, unsigned long, unsigned long, unsigned long)::??rA?FARFUNC_A
                                             30062CCC 
  MarkCompletedMX29LV160(unsigned long, unsigned long)
                                             30062D6C 
  MarkCompletedMX29LV160(unsigned long, unsigned long)::??rA?FARFUNC_A
                                             30062D6C 
  GetBlockInfoMX29LV160(unsigned long, unsigned long, unsigned char * *, unsigned long *)
                                             30062DB8 
  GetBlockInfoMX29LV160(unsigned long, unsigned long, unsigned char * *, unsigned long *)::??rA?FARFUNC_A
                                             30062DB8 
  MX29LV160_CheckId()                        30062E24 
  MX29LV160_CheckId()::??rA?FARFUNC_A
                                             30062E24 
  MX29LV160_EraseSectors(int, int)           30062EDC 
  MX29LV160_EraseSectors(int, int)::??rA?FARFUNC_A
                                             30062EDC 
  BlankCheck(int, int)                       3006302C 
  BlankCheck(int, int)::??rA?FARFUNC_A
                                             3006302C 
  MX29LV160_ProgFlash(unsigned long, unsigned long)
                                             30063068 
  MX29LV160_ProgFlash(unsigned long, unsigned long)::??rA?FARFUNC_A
                                             30063068 
  __sti__routine()                           300630FC   LOCAL
open ( F:\S2Prog\TXU\Release\Obj\open.r79 )
read ( F:\S2Prog\TXU\Release\Obj\read.r79 )
readchar ( F:\S2Prog\TXU\Release\Obj\readchar.r79 )
remove ( F:\S2Prog\TXU\Release\Obj\remove.r79 )
  remove                                     30063130 
  remove::??rA?FARFUNC_A                     30063130 
rename ( F:\S2Prog\TXU\Release\Obj\rename.r79 )
segment_init ( F:\S2Prog\TXU\Release\Obj\segment_init.r79 )
  __segment_init                             300003A8 
  __segment_init::??rA?ICODE                 300003A8 
system ( F:\S2Prog\TXU\Release\Obj\system.r79 )
time ( F:\S2Prog\TXU\Release\Obj\time.r79 )
  time                                       30063138 
  time::??rA?FARFUNC_A                       30063138 
ts norway16bit ( F:\S2Prog\TXU\Release\Obj\ts norway16bit.r79 )
  Colorstsnorway16bit                        3006BBA4 
  Paltsnorway16bit                           3006BBE4 
  actsnorway16bit                            3007595A 
  bmtsnorway16bit                            3006BBF0 
write ( F:\S2Prog\TXU\Release\Obj\write.r79 )
  __write                                    30063154 
  __write::??rA?FARFUNC_A                    30063154 
writechar ( F:\S2Prog\TXU\Release\Obj\writechar.r79 )
  __writechar                                300631A4 
  __writechar::??rA?FARFUNC_A                300631A4 
  __putchar::??rA?FARFUNC_A                  300631D0 
BUTTON_Bitmap ( F:\S2Prog\TXU\TargetDebug\Lib\GUI_Lib.r79 )
  BUTTON_SetBitmapEx                         30000804 
  BUTTON_SetBitmapEx::??rA                   30000804 
BUTTON_Create ( F:\S2Prog\TXU\TargetDebug\Lib\GUI_Lib.r79 )
  BUTTON_Create                              30000854 
  BUTTON_Create::??rA                        30000854 
  BUTTON_CreateAsChild                       300008AC 
  BUTTON_CreateAsChild::??rA                 300008AC 
BUTTON_CreateIndirect ( F:\S2Prog\TXU\TargetDebug\Lib\GUI_Lib.r79 )
  BUTTON_CreateIndirect                      30000910 
  BUTTON_CreateIndirect::??rA                30000910 
BUTTON_Get ( F:\S2Prog\TXU\TargetDebug\Lib\GUI_Lib.r79 )
  BUTTON_GetBkColor                          300009C0 
  BUTTON_GetBkColor::??rA                    300009C0 
  GUI_Lock::??rA                             30000A20 
  GUI_Unlock::??rA                           30000A2C 
BUTTON__SetBitmapObj ( F:\S2Prog\TXU\TargetDebug\Lib\GUI_Lib.r79 )
  BUTTON__SetDrawObj                         30000A38 
  BUTTON__SetDrawObj::??rA                   30000A38 
CHECKBOX_Create ( F:\S2Prog\TXU\TargetDebug\Lib\GUI_Lib.r79 )
  CHECKBOX_Create                            30000AB0 
  CHECKBOX_Create::??rA                      30000AB0 
CHECKBOX_CreateIndirect ( F:\S2Prog\TXU\TargetDebug\Lib\GUI_Lib.r79 )
  CHECKBOX_CreateIndirect                    30000B14 
  CHECKBOX_CreateIndirect::??rA              30000B14 
CHECKBOX_Image ( F:\S2Prog\TXU\TargetDebug\Lib\GUI_Lib.r79 )
  CHECKBOX__abmCheck                         3006BC2C 
  _aColorDisabled                            3006BC04   LOCAL
  _aColorEnabled                             3006BC0C   LOCAL
  _PalCheckDisabled                          3006BC14   LOCAL
  _PalCheckEnabled                           3006BC20   LOCAL
  _acCheck                                   300775CF   LOCAL
Checkbox ( F:\S2Prog\TXU\TargetDebug\Lib\GUI_Lib.r79 )
  CHECKBOX__apDefaultImage                   30A058D8 
  CHECKBOX_CreateEx                          30000D84 
  CHECKBOX_CreateEx::??rA                    30000D84 
  CHECKBOX_Check                             30000ED4 
  CHECKBOX_Check::??rA                       30000ED4 
  CHECKBOX_Uncheck                           30000EF8 
  CHECKBOX_Uncheck::??rA                     30000EF8 
  CHECKBOX_IsChecked                         30000F1C 
  CHECKBOX_IsChecked::??rA                   30000F1C 
  GUI_Clear::??rA                            30000F80 
  _Paint                                     30000BA0   LOCAL
  _Paint::??rA                               30000BA0   LOCAL
  _OnTouch                                   30000C0C   LOCAL
  _OnTouch::??rA                             30000C0C   LOCAL
  _CHECKBOX_Callback                         30000CF0   LOCAL
  _CHECKBOX_Callback::??rA                   30000CF0   LOCAL
DROPDOWN ( F:\S2Prog\TXU\TargetDebug\Lib\GUI_Lib.r79 )
  DROPDOWN_CreateEx                          300015C0 
  DROPDOWN_CreateEx::??rA                    300015C0 
  DROPDOWN_Collapse                          300016E4 
  DROPDOWN_Collapse::??rA                    300016E4 
  DROPDOWN_Expand                            3000173C 
  DROPDOWN_Expand::??rA                      3000173C 
  DROPDOWN_AddKey                            300019BC 
  DROPDOWN_AddKey::??rA                      300019BC 
  DROPDOWN_AddString                         30001A38 
  DROPDOWN_AddString::??rA                   30001A38 
  DROPDOWN_SetSel                            30001AB8 
  DROPDOWN_SetSel::??rA                      30001AB8 
  DROPDOWN_IncSel                            30001B64 
  DROPDOWN_IncSel::??rA                      30001B64 
  DROPDOWN_DecSel                            30001B9C 
  DROPDOWN_DecSel::??rA                      30001B9C 
  DROPDOWN_GetSel                            30001BE0 
  DROPDOWN_GetSel::??rA                      30001BE0 
  _pDefaultFont                              30A058E0   LOCAL
  _GetNumItems                               30000F8C   LOCAL
  _GetNumItems::??rA                         30000F8C   LOCAL
  _GethItem                                  30000FA0   LOCAL
  _GethItem::??rA                            30000FA0   LOCAL
  _DrawTriangleDown                          30000FC8   LOCAL
  _DrawTriangleDown::??rA                    30000FC8   LOCAL
  _GetpItem                                  30001004   LOCAL
  _GetpItem::??rA                            30001004   LOCAL
  _Tolower                                   30001054   LOCAL
  _Tolower::??rA                             30001054   LOCAL
  _SelectByKey                               3000106C   LOCAL
  _SelectByKey::??rA                         3000106C   LOCAL
  _FreeAttached                              30001104   LOCAL
  _FreeAttached::??rA                        30001104   LOCAL
  _Paint                                     30001124   LOCAL
  _Paint::??rA                               30001124   LOCAL
  _OnTouch                                   30001334   LOCAL
  _OnTouch::??rA                             30001334   LOCAL
  _AdjustHeight                              300013B0   LOCAL
  _AdjustHeight::??rA                        300013B0   LOCAL
  _DROPDOWN_Callback                         30001410   LOCAL
  _DROPDOWN_Callback::??rA                   30001410   LOCAL
DROPDOWN_CreateIndirect ( F:\S2Prog\TXU\TargetDebug\Lib\GUI_Lib.r79 )
  DROPDOWN_CreateIndirect                    30001C34 
  DROPDOWN_CreateIndirect::??rA              30001C34 
DROPDOWN_SetAutoScroll ( F:\S2Prog\TXU\TargetDebug\Lib\GUI_Lib.r79 )
  DROPDOWN_SetAutoScroll                     30001CD0 
  DROPDOWN_SetAutoScroll::??rA               30001CD0 
Dialog ( F:\S2Prog\TXU\TargetDebug\Lib\GUI_Lib.r79 )
  GUI_GetDialogStatusPtr                     30001D60 
  GUI_GetDialogStatusPtr::??rA               30001D60 
  GUI_CreateDialogBox                        30001DBC 
  GUI_CreateDialogBox::??rA                  30001DBC 
  GUI_EndDialog                              30001EEC 
  GUI_EndDialog::??rA                        30001EEC 
EDIT_Create ( F:\S2Prog\TXU\TargetDebug\Lib\GUI_Lib.r79 )
  EDIT_Create                                30001F38 
  EDIT_Create::??rA                          30001F38 
EDIT_CreateIndirect ( F:\S2Prog\TXU\TargetDebug\Lib\GUI_Lib.r79 )
  EDIT_CreateIndirect                        30001F9C 
  EDIT_CreateIndirect::??rA                  30001F9C 
F08_1 ( F:\S2Prog\TXU\TargetDebug\Lib\GUI_Lib.r79 )
  acFont8_1_160                              3006BC60 
  acFont8_1_161                              3006BC68 
  acFont8_1_162                              3006BC70 
  acFont8_1_163                              3006BC78 
  acFont8_1_164                              3006BC80 
  acFont8_1_165                              3006BC88 
  acFont8_1_166                              3006BC90 
  acFont8_1_167                              3006BC98 
  acFont8_1_168                              3006BCA0 
  acFont8_1_169                              3006BCA8 
  acFont8_1_170                              3006BCB0 
  acFont8_1_171                              3006BCB8 
  acFont8_1_172                              3006BCC0 
  acFont8_1_173                              3006BCC8 
  acFont8_1_174                              3006BCD0 
  acFont8_1_175                              3006BCD8 
  acFont8_1_176                              3006BCE0 
  acFont8_1_177                              3006BCE8 
  acFont8_1_178                              3006BCF0 
  acFont8_1_179                              3006BCF8 
  acFont8_1_180                              3006BD00 
  acFont8_1_181                              3006BD08 
  acFont8_1_182                              3006BD10 
  acFont8_1_183                              3006BD18 
  acFont8_1_184                              3006BD20 
  acFont8_1_185                              3006BD28 
  acFont8_1_186                              3006BD30 
  acFont8_1_187                              3006BD38 
  acFont8_1_188                              3006BD40 
  acFont8_1_189                              3006BD48 
  acFont8_1_190                              3006BD50 
  acFont8_1_191                              3006BD58 
  acFont8_1_192                              3006BD60 
  acFont8_1_193                              3006BD68 
  acFont8_1_194                              3006BD70 
  acFont8_1_195                              3006BD78 
  acFont8_1_196                              3006BD80 
  acFont8_1_197                              3006BD88 
  acFont8_1_198                              3006BD90 
  acFont8_1_199                              3006BD98 
  acFont8_1_200                              3006BDA0 
  acFont8_1_201                              3006BDA8 
  acFont8_1_202                              3006BDB0 
  acFont8_1_203                              3006BDB8 
  acFont8_1_204                              3006BDC0 
  acFont8_1_205                              3006BDC8 
  acFont8_1_206                              3006BDD0 
  acFont8_1_207                              3006BDD8 
  acFont8_1_208                              3006BDE0 
  acFont8_1_209                              3006BDE8 
  acFont8_1_210                              3006BDF0 
  acFont8_1_211                              3006BDF8 
  acFont8_1_212                              3006BE00 
  acFont8_1_213                              3006BE08 
  acFont8_1_214                              3006BE10 
  acFont8_1_215                              3006BE18 
  acFont8_1_216                              3006BE20 
  acFont8_1_217                              3006BE28 
  acFont8_1_218                              3006BE30 
  acFont8_1_219                              3006BE38 
  acFont8_1_220                              3006BE40 
  acFont8_1_221                              3006BE48 
  acFont8_1_222                              3006BE50 
  acFont8_1_223                              3006BE58 
  acFont8_1_224                              3006BE60 
  acFont8_1_225                              3006BE68 
  acFont8_1_226                              3006BE70 
  acFont8_1_227                              3006BE78 
  acFont8_1_228                              3006BE80 
  acFont8_1_229                              3006BE88 
  acFont8_1_230                              3006BE90 
  acFont8_1_231                              3006BEA0 
  acFont8_1_232                              3006BEA8 
  acFont8_1_233                              3006BEB0 
  acFont8_1_234                              3006BEB8 
  acFont8_1_235                              3006BEC0 
  acFont8_1_236                              3006BEC8 
  acFont8_1_237                              3006BED0 
  acFont8_1_238                              3006BED8 
  acFont8_1_239                              3006BEE0 
  acFont8_1_240                              3006BEE8 
  acFont8_1_241                              3006BEF0 
  acFont8_1_242                              3006BEF8 
  acFont8_1_243                              3006BF00 
  acFont8_1_244                              3006BF08 
  acFont8_1_245                              3006BF10 
  acFont8_1_246                              3006BF18 
  acFont8_1_247                              3006BF20 
  acFont8_1_248                              3006BF28 
  acFont8_1_249                              3006BF30 
  acFont8_1_250                              3006BF38 
  acFont8_1_251                              3006BF40 
  acFont8_1_252                              3006BF48 
  acFont8_1_253                              3006BF50 
  acFont8_1_254                              3006BF58 
  acFont8_1_255                              3006BF60 
  Font8_1_CharInfo                           3006BF68 
  GUI_Font8_1_Prop                           3006C268 
  GUI_Font8_1                                3006C274 
F08_ASCII ( F:\S2Prog\TXU\TargetDebug\Lib\GUI_Lib.r79 )
  acFont8ASCII                               300775E5 
  GUI_Font8_ASCII_CharInfo                   3006C294 
  GUI_Font8ASCII_Prop                        3006C58C 
F13_1 ( F:\S2Prog\TXU\TargetDebug\Lib\GUI_Lib.r79 )
  acFont13_1_00A0                            300778DD 
  acFont13_1_00A1                            300778EA 
  acFont13_1_00A2                            300778F7 
  acFont13_1_00A3                            30077904 
  acFont13_1_00A4                            30077911 
  acFont13_1_00A5                            3007791E 
  acFont13_1_00A6                            3007792B 
  acFont13_1_00A7                            30077938 
  acFont13_1_00A8                            30077945 
  acFont13_1_00A9                            30073554 
  acFont13_1_00AA                            30077952 
  acFont13_1_00AB                            3007795F 
  acFont13_1_00AC                            3007796C 
  acFont13_1_00AD                            30077979 
  acFont13_1_00AE                            3007356E 
  acFont13_1_00AF                            30077986 
  acFont13_1_00B0                            30077993 
  acFont13_1_00B1                            300779A0 
  acFont13_1_00B2                            300779AD 
  acFont13_1_00B3                            300779BA 
  acFont13_1_00B4                            300779C7 
  acFont13_1_00B5                            300779D4 
  acFont13_1_00B6                            300779E1 
  acFont13_1_00B7                            300779EE 
  acFont13_1_00B8                            300779FB 
  acFont13_1_00B9                            30077A08 
  acFont13_1_00BA                            30077A15 
  acFont13_1_00BB                            30077A22 
  acFont13_1_00BC                            30073588 
  acFont13_1_00BD                            300735A2 
  acFont13_1_00BE                            300735BC 
  acFont13_1_00BF                            30077A2F 
  acFont13_1_00C0                            30077A3C 
  acFont13_1_00C1                            30077A49 
  acFont13_1_00C2                            30077A56 
  acFont13_1_00C3                            30077A63 
  acFont13_1_00C4                            30077A70 
  acFont13_1_00C5                            30077A7D 
  acFont13_1_00C6                            300735D6 
  acFont13_1_00C7                            30077A8A 
  acFont13_1_00C8                            30077A97 
  acFont13_1_00C9                            30077AA4 
  acFont13_1_00CA                            30077AB1 
  acFont13_1_00CB                            30077ABE 
  acFont13_1_00CC                            30077ACB 
  acFont13_1_00CD                            30077AD8 
  acFont13_1_00CE                            30077AE5 
  acFont13_1_00CF                            30077AF2 
  acFont13_1_00D0                            30077AFF 
  acFont13_1_00D1                            30077B0C 
  acFont13_1_00D2                            30077B19 
  acFont13_1_00D3                            30077B26 
  acFont13_1_00D4                            30077B33 
  acFont13_1_00D5                            30077B40 
  acFont13_1_00D6                            30077B4D 
  acFont13_1_00D7                            30077B5A 
  acFont13_1_00D8                            30077B67 
  acFont13_1_00D9                            30077B74 
  acFont13_1_00DA                            30077B81 
  acFont13_1_00DB                            30077B8E 
  acFont13_1_00DC                            30077B9B 
  acFont13_1_00DD                            30077BA8 
  acFont13_1_00DE                            30077BB5 
  acFont13_1_00DF                            30077BC2 
  acFont13_1_00E0                            30077BCF 
  acFont13_1_00E1                            30077BDC 
  acFont13_1_00E2                            30077BE9 
  acFont13_1_00E3                            30077BF6 
  acFont13_1_00E4                            30077C03 
  acFont13_1_00E5                            30077C10 
  acFont13_1_00E6                            300735F0 
  acFont13_1_00E7                            30077C1D 
  acFont13_1_00E8                            30077C2A 
  acFont13_1_00E9                            30077C37 
  acFont13_1_00EA                            30077C44 
  acFont13_1_00EB                            30077C51 
  acFont13_1_00EC                            30077C5E 
  acFont13_1_00ED                            30077C6B 
  acFont13_1_00EE                            30077C78 
  acFont13_1_00EF                            30077C85 
  acFont13_1_00F0                            30077C92 
  acFont13_1_00F1                            30077C9F 
  acFont13_1_00F2                            30077CAC 
  acFont13_1_00F3                            30077CB9 
  acFont13_1_00F4                            30077CC6 
  acFont13_1_00F5                            30077CD3 
  acFont13_1_00F6                            30077CE0 
  acFont13_1_00F7                            30077CED 
  acFont13_1_00F8                            30077CFA 
  acFont13_1_00F9                            30077D07 
  acFont13_1_00FA                            30077D14 
  acFont13_1_00FB                            30077D21 
  acFont13_1_00FC                            30077D2E 
  acFont13_1_00FD                            30077D3B 
  acFont13_1_00FE                            30077D48 
  acFont13_1_00FF                            30077D55 
  GUI_Font13_1_CharInfo                      3006C598 
  GUI_Font13_1_Prop1                         3006C898 
  GUI_Font13_1                               3006C8A4 
F13_ASCII ( F:\S2Prog\TXU\TargetDebug\Lib\GUI_Lib.r79 )
  acFont13ASCII_0020                         30077D62 
  acFont13ASCII_0021                         30077D6F 
  acFont13ASCII_0022                         30077D7C 
  acFont13ASCII_0023                         30077D89 
  acFont13ASCII_0024                         30077D96 
  acFont13ASCII_0025                         3007360A 
  acFont13ASCII_0026                         30077DA3 
  acFont13ASCII_0027                         30077DB0 
  acFont13ASCII_0028                         30077DBD 
  acFont13ASCII_0029                         30077DCA 
  acFont13ASCII_002A                         30077DD7 
  acFont13ASCII_002B                         30077DE4 
  acFont13ASCII_002C                         30077DF1 
  acFont13ASCII_002D                         30077DFE 
  acFont13ASCII_002E                         30077E0B 
  acFont13ASCII_002F                         30077E18 
  acFont13ASCII_0030                         30077E25 
  acFont13ASCII_0031                         30077E32 
  acFont13ASCII_0032                         30077E3F 
  acFont13ASCII_0033                         30077E4C 
  acFont13ASCII_0034                         30077E59 
  acFont13ASCII_0035                         30077E66 
  acFont13ASCII_0036                         30077E73 
  acFont13ASCII_0037                         30077E80 
  acFont13ASCII_0038                         30077E8D 
  acFont13ASCII_0039                         30077E9A 
  acFont13ASCII_003A                         30077EA7 
  acFont13ASCII_003B                         30077EB4 
  acFont13ASCII_003C                         30077EC1 
  acFont13ASCII_003D                         30077ECE 
  acFont13ASCII_003E                         30077EDB 
  acFont13ASCII_003F                         30077EE8 
  acFont13ASCII_0040                         30073624 
  acFont13ASCII_0041                         30077EF5 
  acFont13ASCII_0042                         30077F02 
  acFont13ASCII_0043                         30077F0F 
  acFont13ASCII_0044                         30077F1C 
  acFont13ASCII_0045                         30077F29 
  acFont13ASCII_0046                         30077F36 
  acFont13ASCII_0047                         30077F43 
  acFont13ASCII_0048                         30077F50 
  acFont13ASCII_0049                         30077F5D 
  acFont13ASCII_004A                         30077F6A 
  acFont13ASCII_004B                         30077F77 
  acFont13ASCII_004C                         30077F84 
  acFont13ASCII_004D                         30077F91 
  acFont13ASCII_004E                         30077F9E 
  acFont13ASCII_004F                         30077FAB 
  acFont13ASCII_0050                         30077FB8 
  acFont13ASCII_0051                         30077FC5 
  acFont13ASCII_0052                         30077FD2 
  acFont13ASCII_0053                         30077FDF 
  acFont13ASCII_0054                         30077FEC 
  acFont13ASCII_0055                         30077FF9 
  acFont13ASCII_0056                         30078006 
  acFont13ASCII_0057                         3007363E 
  acFont13ASCII_0058                         30078013 
  acFont13ASCII_0059                         30078020 
  acFont13ASCII_005A                         3007802D 
  acFont13ASCII_005B                         3007803A 
  acFont13ASCII_005C                         30078047 
  acFont13ASCII_005D                         30078054 
  acFont13ASCII_005E                         30078061 
  acFont13ASCII_005F                         3007806E 
  acFont13ASCII_0060                         3007807B 
  acFont13ASCII_0061                         30078088 
  acFont13ASCII_0062                         30078095 
  acFont13ASCII_0063                         300780A2 
  acFont13ASCII_0064                         300780AF 
  acFont13ASCII_0065                         300780BC 
  acFont13ASCII_0066                         300780C9 
  acFont13ASCII_0067                         300780D6 
  acFont13ASCII_0068                         300780E3 
  acFont13ASCII_0069                         300780F0 
  acFont13ASCII_006A                         300780FD 
  acFont13ASCII_006B                         3007810A 
  acFont13ASCII_006C                         30078117 
  acFont13ASCII_006D                         30078124 
  acFont13ASCII_006E                         30078131 
  acFont13ASCII_006F                         3007813E 
  acFont13ASCII_0070                         3007814B 
  acFont13ASCII_0071                         30078158 
  acFont13ASCII_0072                         30078165 
  acFont13ASCII_0073                         30078172 
  acFont13ASCII_0074                         3007817F 
  acFont13ASCII_0075                         3007818C 
  acFont13ASCII_0076                         30078199 
  acFont13ASCII_0077                         300781A6 
  acFont13ASCII_0078                         300781B3 
  acFont13ASCII_0079                         300781C0 
  acFont13ASCII_007A                         300781CD 
  acFont13ASCII_007B                         300781DA 
  acFont13ASCII_007C                         300781E7 
  acFont13ASCII_007D                         300781F4 
  acFont13ASCII_007E                         30078201 
  GUI_Font13ASCII_CharInfo                   3006C8C4 
  GUI_Font13ASCII_Prop1                      3006CBBC 
F16B_ASCII ( F:\S2Prog\TXU\TargetDebug\Lib\GUI_Lib.r79 )
  acFont16B_ASCII_0020                       3006CBC8 
  acFont16B_ASCII_0021                       3006CBD8 
  acFont16B_ASCII_0022                       3006CBE8 
  acFont16B_ASCII_0023                       3006CBF8 
  acFont16B_ASCII_0024                       3006CC08 
  acFont16B_ASCII_0025                       3006CC18 
  acFont16B_ASCII_0026                       3006CC38 
  acFont16B_ASCII_0027                       3006CC58 
  acFont16B_ASCII_0028                       3006CC68 
  acFont16B_ASCII_0029                       3006CC78 
  acFont16B_ASCII_002A                       3006CC88 
  acFont16B_ASCII_002B                       3006CC98 
  acFont16B_ASCII_002C                       3006CCA8 
  acFont16B_ASCII_002D                       3006CCB8 
  acFont16B_ASCII_002E                       3006CCC8 
  acFont16B_ASCII_002F                       3006CCD8 
  acFont16B_ASCII_0030                       3006CCE8 
  acFont16B_ASCII_0031                       3006CCF8 
  acFont16B_ASCII_0032                       3006CD08 
  acFont16B_ASCII_0033                       3006CD18 
  acFont16B_ASCII_0034                       3006CD28 
  acFont16B_ASCII_0035                       3006CD38 
  acFont16B_ASCII_0036                       3006CD48 
  acFont16B_ASCII_0037                       3006CD58 
  acFont16B_ASCII_0038                       3006CD68 
  acFont16B_ASCII_0039                       3006CD78 
  acFont16B_ASCII_003A                       3006CD88 
  acFont16B_ASCII_003B                       3006CD98 
  acFont16B_ASCII_003C                       3006CDA8 
  acFont16B_ASCII_003D                       3006CDB8 
  acFont16B_ASCII_003E                       3006CDC8 
  acFont16B_ASCII_003F                       3006CDD8 
  acFont16B_ASCII_0040                       3006CDE8 
  acFont16B_ASCII_0041                       3006CE08 
  acFont16B_ASCII_0042                       3006CE28 
  acFont16B_ASCII_0043                       3006CE48 
  acFont16B_ASCII_0044                       3006CE68 
  acFont16B_ASCII_0045                       3006CE88 
  acFont16B_ASCII_0046                       3006CE98 
  acFont16B_ASCII_0047                       3006CEA8 
  acFont16B_ASCII_0048                       3006CEC8 
  acFont16B_ASCII_0049                       3006CEE8 
  acFont16B_ASCII_004A                       3006CEF8 
  acFont16B_ASCII_004B                       3006CF08 
  acFont16B_ASCII_004C                       3006CF28 
  acFont16B_ASCII_004D                       3006CF38 
  acFont16B_ASCII_004E                       3006CF58 
  acFont16B_ASCII_004F                       3006CF78 
  acFont16B_ASCII_0050                       3006CF98 
  acFont16B_ASCII_0051                       3006CFB8 
  acFont16B_ASCII_0052                       3006CFD8 
  acFont16B_ASCII_0053                       3006CFF8 
  acFont16B_ASCII_0054                       3006D018 
  acFont16B_ASCII_0055                       3006D028 
  acFont16B_ASCII_0056                       3006D048 
  acFont16B_ASCII_0057                       3006D068 
  acFont16B_ASCII_0058                       3006D088 
  acFont16B_ASCII_0059                       3006D0A8 
  acFont16B_ASCII_005A                       3006D0B8 
  acFont16B_ASCII_005B                       3006D0C8 
  acFont16B_ASCII_005C                       3006D0D8 
  acFont16B_ASCII_005D                       3006D0E8 
  acFont16B_ASCII_005E                       3006D0F8 
  acFont16B_ASCII_005F                       3006D108 
  acFont16B_ASCII_0060                       3006D118 
  acFont16B_ASCII_0061                       3006D128 
  acFont16B_ASCII_0062                       3006D138 
  acFont16B_ASCII_0063                       3006D148 
  acFont16B_ASCII_0064                       3006D158 
  acFont16B_ASCII_0065                       3006D168 
  acFont16B_ASCII_0066                       3006D178 
  acFont16B_ASCII_0067                       3006D188 
  acFont16B_ASCII_0068                       3006D198 
  acFont16B_ASCII_0069                       3006D1A8 
  acFont16B_ASCII_006A                       3006D1B8 
  acFont16B_ASCII_006B                       3006D1C8 
  acFont16B_ASCII_006C                       3006D1D8 
  acFont16B_ASCII_006D                       3006D1E8 
  acFont16B_ASCII_006E                       3006D208 
  acFont16B_ASCII_006F                       3006D218 
  acFont16B_ASCII_0070                       3006D228 
  acFont16B_ASCII_0071                       3006D238 
  acFont16B_ASCII_0072                       3006D248 
  acFont16B_ASCII_0073                       3006D258 
  acFont16B_ASCII_0074                       3006D268 
  acFont16B_ASCII_0075                       3006D278 
  acFont16B_ASCII_0076                       3006D288 
  acFont16B_ASCII_0077                       3006D298 
  acFont16B_ASCII_0078                       3006D2B8 
  acFont16B_ASCII_0079                       3006D2C8 
  acFont16B_ASCII_007A                       3006D2D8 
  acFont16B_ASCII_007B                       3006D2E8 
  acFont16B_ASCII_007C                       3006D2F8 
  acFont16B_ASCII_007D                       3006D308 
  acFont16B_ASCII_007E                       3006D318 
  GUI_Font16B_ASCII_CharInfo                 3006D328 
  GUI_Font16B_ASCII_Prop1                    3006D620 
  GUI_Font16B_ASCII                          3006D62C 
F16_1 ( F:\S2Prog\TXU\TargetDebug\Lib\GUI_Lib.r79 )
  acFont16_1_160                             3006D64C 
  acFont16_1_161                             3006D65C 
  acFont16_1_162                             3006D66C 
  acFont16_1_163                             3006D67C 
  acFont16_1_164                             3006D68C 
  acFont16_1_165                             3006D69C 
  acFont16_1_166                             3006D6AC 
  acFont16_1_167                             3006D6BC 
  acFont16_1_168                             3006D6CC 
  acFont16_1_169                             3006D6DC 
  acFont16_1_170                             3006D6FC 
  acFont16_1_171                             3006D70C 
  acFont16_1_172                             3006D71C 
  acFont16_1_173                             3006D72C 
  acFont16_1_174                             3006D73C 
  acFont16_1_175                             3006D75C 
  acFont16_1_176                             3006D76C 
  acFont16_1_177                             3006D77C 
  acFont16_1_178                             3006D78C 
  acFont16_1_179                             3006D79C 
  acFont16_1_180                             3006D7AC 
  acFont16_1_181                             3006D7BC 
  acFont16_1_182                             3006D7CC 
  acFont16_1_183                             3006D7DC 
  acFont16_1_184                             3006D7EC 
  acFont16_1_185                             3006D7FC 
  acFont16_1_186                             3006D80C 
  acFont16_1_187                             3006D81C 
  acFont16_1_188                             3006D82C 
  acFont16_1_189                             3006D84C 
  acFont16_1_190                             3006D86C 
  acFont16_1_191                             3006D88C 
  acFont16_1_192                             3006D89C 
  acFont16_1_193                             3006D8BC 
  acFont16_1_194                             3006D8DC 
  acFont16_1_195                             3006D8FC 
  acFont16_1_196                             3006D91C 
  acFont16_1_197                             3006D93C 
  acFont16_1_198                             3006D95C 
  acFont16_1_199                             3006D97C 
  acFont16_1_200                             3006D99C 
  acFont16_1_201                             3006D9BC 
  acFont16_1_202                             3006D9DC 
  acFont16_1_203                             3006D9FC 
  acFont16_1_204                             3006DA1C 
  acFont16_1_205                             3006DA2C 
  acFont16_1_206                             3006DA3C 
  acFont16_1_207                             3006DA4C 
  acFont16_1_208                             3006DA5C 
  acFont16_1_209                             3006DA7C 
  acFont16_1_210                             3006DA9C 
  acFont16_1_211                             3006DABC 
  acFont16_1_212                             3006DADC 
  acFont16_1_213                             3006DAFC 
  acFont16_1_214                             3006DB1C 
  acFont16_1_215                             3006DB3C 
  acFont16_1_216                             3006DB4C 
  acFont16_1_217                             3006DB6C 
  acFont16_1_218                             3006DB8C 
  acFont16_1_219                             3006DBAC 
  acFont16_1_220                             3006DBCC 
  acFont16_1_221                             3006DBEC 
  acFont16_1_222                             3006DC0C 
  acFont16_1_223                             3006DC2C 
  acFont16_1_224                             3006DC4C 
  acFont16_1_225                             3006DC5C 
  acFont16_1_226                             3006DC6C 
  acFont16_1_227                             3006DC7C 
  acFont16_1_228                             3006DC8C 
  acFont16_1_229                             3006DC9C 
  acFont16_1_230                             3006DCAC 
  acFont16_1_231                             3006DCCC 
  acFont16_1_232                             3006DCDC 
  acFont16_1_233                             3006DCEC 
  acFont16_1_234                             3006DCFC 
  acFont16_1_235                             3006DD0C 
  acFont16_1_236                             3006DD1C 
  acFont16_1_237                             3006DD2C 
  acFont16_1_238                             3006DD3C 
  acFont16_1_239                             3006DD4C 
  acFont16_1_240                             3006DD5C 
  acFont16_1_241                             3006DD6C 
  acFont16_1_242                             3006DD7C 
  acFont16_1_243                             3006DD8C 
  acFont16_1_244                             3006DD9C 
  acFont16_1_245                             3006DDAC 
  acFont16_1_246                             3006DDBC 
  acFont16_1_247                             3006DDCC 
  acFont16_1_248                             3006DDDC 
  acFont16_1_249                             3006DDEC 
  acFont16_1_250                             3006DDFC 
  acFont16_1_251                             3006DE0C 
  acFont16_1_252                             3006DE1C 
  acFont16_1_253                             3006DE2C 
  acFont16_1_254                             3006DE3C 
  acFont16_1_255                             3006DE4C 
  GUI_CharInfo_Font16_1                      3006DE5C 
  GUI_Font16_1_FontProp1                     3006E15C 
  GUI_Font16_1                               3006E168 
F16_ASCII ( F:\S2Prog\TXU\TargetDebug\Lib\GUI_Lib.r79 )
  acFont16ASCII_32                           3006E188 
  acFont16ASCII_33                           3006E198 
  acFont16ASCII_34                           3006E1A8 
  acFont16ASCII_35                           3006E1B8 
  acFont16ASCII_36                           3006E1C8 
  acFont16ASCII_37                           3006E1D8 
  acFont16ASCII_38                           3006E1F8 
  acFont16ASCII_39                           3006E218 
  acFont16ASCII_40                           3006E228 
  acFont16ASCII_41                           3006E238 
  acFont16ASCII_42                           3006E248 
  acFont16ASCII_43                           3006E258 
  acFont16ASCII_44                           3006E268 
  acFont16ASCII_45                           3006E278 
  acFont16ASCII_46                           3006E288 
  acFont16ASCII_47                           3006E298 
  acFont16ASCII_48                           3006E2A8 
  acFont16ASCII_49                           3006E2B8 
  acFont16ASCII_50                           3006E2C8 
  acFont16ASCII_51                           3006E2D8 
  acFont16ASCII_52                           3006E2E8 
  acFont16ASCII_53                           3006E2F8 
  acFont16ASCII_54                           3006E308 
  acFont16ASCII_55                           3006E318 
  acFont16ASCII_56                           3006E328 
  acFont16ASCII_57                           3006E338 
  acFont16ASCII_58                           3006E348 
  acFont16ASCII_59                           3006E358 
  acFont16ASCII_60                           3006E368 
  acFont16ASCII_61                           3006E378 
  acFont16ASCII_62                           3006E388 
  acFont16ASCII_63                           3006E398 
  acFont16ASCII_64                           3006E3A8 
  acFont16ASCII_65                           3006E3C8 
  acFont16ASCII_66                           3006E3E8 
  acFont16ASCII_67                           3006E408 
  acFont16ASCII_68                           3006E428 
  acFont16ASCII_69                           3006E448 
  acFont16ASCII_70                           3006E468 
  acFont16ASCII_71                           3006E478 
  acFont16ASCII_72                           3006E498 
  acFont16ASCII_73                           3006E4B8 
  acFont16ASCII_74                           3006E4C8 
  acFont16ASCII_75                           3006E4D8 
  acFont16ASCII_76                           3006E4F8 
  acFont16ASCII_77                           3006E508 
  acFont16ASCII_78                           3006E528 
  acFont16ASCII_79                           3006E548 
  acFont16ASCII_80                           3006E568 
  acFont16ASCII_81                           3006E588 
  acFont16ASCII_82                           3006E5A8 
  acFont16ASCII_83                           3006E5C8 
  acFont16ASCII_84                           3006E5E8 
  acFont16ASCII_85                           3006E5F8 
  acFont16ASCII_86                           3006E618 
  acFont16ASCII_87                           3006E638 
  acFont16ASCII_88                           3006E658 
  acFont16ASCII_89                           3006E668 
  acFont16ASCII_90                           3006E688 
  acFont16ASCII_91                           3006E698 
  acFont16ASCII_92                           3006E6A8 
  acFont16ASCII_93                           3006E6B8 
  acFont16ASCII_94                           3006E6C8 
  acFont16ASCII_95                           3006E6D8 
  acFont16ASCII_96                           3006E6E8 
  acFont16ASCII_97                           3006E6F8 
  acFont16ASCII_98                           3006E708 
  acFont16ASCII_99                           3006E718 
  acFont16ASCII_100                          3006E728 
  acFont16ASCII_101                          3006E738 
  acFont16ASCII_102                          3006E748 
  acFont16ASCII_103                          3006E758 
  acFont16ASCII_104                          3006E768 
  acFont16ASCII_105                          3006E778 
  acFont16ASCII_106                          3006E788 
  acFont16ASCII_107                          3006E798 
  acFont16ASCII_108                          3006E7A8 
  acFont16ASCII_109                          3006E7B8 
  acFont16ASCII_110                          3006E7D8 
  acFont16ASCII_111                          3006E7E8 
  acFont16ASCII_112                          3006E7F8 
  acFont16ASCII_113                          3006E808 
  acFont16ASCII_114                          3006E818 
  acFont16ASCII_115                          3006E828 
  acFont16ASCII_116                          3006E838 
  acFont16ASCII_117                          3006E848 
  acFont16ASCII_118                          3006E858 
  acFont16ASCII_119                          3006E868 
  acFont16ASCII_120                          3006E888 
  acFont16ASCII_121                          3006E898 
  acFont16ASCII_122                          3006E8A8 
  acFont16ASCII_123                          3006E8B8 
  acFont16ASCII_124                          3006E8C8 
  acFont16ASCII_125                          3006E8D8 
  acFont16ASCII_126                          3006E8E8 
  GUI_CharInfo_Font16ASCII                   3006E8F8 
  GUI_Font16ASCIIProp1                       3006EBF8 
F24B_ASCII ( F:\S2Prog\TXU\TargetDebug\Lib\GUI_Lib.r79 )
  acFont24B_ASCII_0020                       3006EC04 
  acFont24B_ASCII_0021                       3006EC1C 
  acFont24B_ASCII_0022                       3006EC34 
  acFont24B_ASCII_0023                       3006EC64 
  acFont24B_ASCII_0024                       3006EC94 
  acFont24B_ASCII_0025                       3006ECC4 
  acFont24B_ASCII_0026                       3006ED0C 
  acFont24B_ASCII_0027                       3006ED3C 
  acFont24B_ASCII_0028                       3006ED54 
  acFont24B_ASCII_0029                       3006ED6C 
  acFont24B_ASCII_002A                       3006ED84 
  acFont24B_ASCII_002B                       3006ED9C 
  acFont24B_ASCII_002C                       3006EDCC 
  acFont24B_ASCII_002D                       3006EDE4 
  acFont24B_ASCII_002E                       3006EDFC 
  acFont24B_ASCII_002F                       3006EE14 
  acFont24B_ASCII_0030                       3006EE2C 
  acFont24B_ASCII_0031                       3006EE5C 
  acFont24B_ASCII_0032                       3006EE8C 
  acFont24B_ASCII_0033                       3006EEBC 
  acFont24B_ASCII_0034                       3006EEEC 
  acFont24B_ASCII_0035                       3006EF1C 
  acFont24B_ASCII_0036                       3006EF4C 
  acFont24B_ASCII_0037                       3006EF7C 
  acFont24B_ASCII_0038                       3006EFAC 
  acFont24B_ASCII_0039                       3006EFDC 
  acFont24B_ASCII_003A                       3006F00C 
  acFont24B_ASCII_003B                       3006F024 
  acFont24B_ASCII_003C                       3006F03C 
  acFont24B_ASCII_003D                       3006F06C 
  acFont24B_ASCII_003E                       3006F09C 
  acFont24B_ASCII_003F                       3006F0CC 
  acFont24B_ASCII_0040                       3006F0FC 
  acFont24B_ASCII_0041                       3006F144 
  acFont24B_ASCII_0042                       3006F174 
  acFont24B_ASCII_0043                       3006F1A4 
  acFont24B_ASCII_0044                       3006F1D4 
  acFont24B_ASCII_0045                       3006F204 
  acFont24B_ASCII_0046                       3006F234 
  acFont24B_ASCII_0047                       3006F264 
  acFont24B_ASCII_0048                       3006F294 
  acFont24B_ASCII_0049                       3006F2C4 
  acFont24B_ASCII_004A                       3006F2DC 
  acFont24B_ASCII_004B                       3006F30C 
  acFont24B_ASCII_004C                       3006F33C 
  acFont24B_ASCII_004D                       3006F36C 
  acFont24B_ASCII_004E                       3006F3B4 
  acFont24B_ASCII_004F                       3006F3E4 
  acFont24B_ASCII_0050                       3006F414 
  acFont24B_ASCII_0051                       3006F444 
  acFont24B_ASCII_0052                       3006F474 
  acFont24B_ASCII_0053                       3006F4A4 
  acFont24B_ASCII_0054                       3006F4D4 
  acFont24B_ASCII_0055                       3006F504 
  acFont24B_ASCII_0056                       3006F534 
  acFont24B_ASCII_0057                       3006F564 
  acFont24B_ASCII_0058                       3006F5AC 
  acFont24B_ASCII_0059                       3006F5DC 
  acFont24B_ASCII_005A                       3006F60C 
  acFont24B_ASCII_005B                       3006F63C 
  acFont24B_ASCII_005C                       3006F654 
  acFont24B_ASCII_005D                       3006F66C 
  acFont24B_ASCII_005E                       3006F684 
  acFont24B_ASCII_005F                       3006F6B4 
  acFont24B_ASCII_0060                       3006F6E4 
  acFont24B_ASCII_0061                       3006F6FC 
  acFont24B_ASCII_0062                       3006F72C 
  acFont24B_ASCII_0063                       3006F75C 
  acFont24B_ASCII_0064                       3006F78C 
  acFont24B_ASCII_0065                       3006F7BC 
  acFont24B_ASCII_0066                       3006F7EC 
  acFont24B_ASCII_0067                       3006F804 
  acFont24B_ASCII_0068                       3006F834 
  acFont24B_ASCII_0069                       3006F864 
  acFont24B_ASCII_006A                       3006F87C 
  acFont24B_ASCII_006B                       3006F894 
  acFont24B_ASCII_006C                       3006F8C4 
  acFont24B_ASCII_006D                       3006F8DC 
  acFont24B_ASCII_006E                       3006F924 
  acFont24B_ASCII_006F                       3006F954 
  acFont24B_ASCII_0070                       3006F984 
  acFont24B_ASCII_0071                       3006F9B4 
  acFont24B_ASCII_0072                       3006F9E4 
  acFont24B_ASCII_0073                       3006F9FC 
  acFont24B_ASCII_0074                       3006FA2C 
  acFont24B_ASCII_0075                       3006FA44 
  acFont24B_ASCII_0076                       3006FA74 
  acFont24B_ASCII_0077                       3006FAA4 
  acFont24B_ASCII_0078                       3006FAD4 
  acFont24B_ASCII_0079                       3006FB04 
  acFont24B_ASCII_007A                       3006FB34 
  acFont24B_ASCII_007B                       3006FB64 
  acFont24B_ASCII_007C                       3006FB7C 
  acFont24B_ASCII_007D                       3006FB94 
  acFont24B_ASCII_007E                       3006FBAC 
  GUI_Font24B_ASCII_CharInfo                 3006FBDC 
  GUI_Font24B_ASCII_Prop1                    3006FED4 
  GUI_Font24B_ASCII                          3006FEE0 
F24_1 ( F:\S2Prog\TXU\TargetDebug\Lib\GUI_Lib.r79 )
  acFont24_1_00A0                            3006FF00 
  acFont24_1_00A1                            3006FF18 
  acFont24_1_00A2                            3006FF30 
  acFont24_1_00A3                            3006FF60 
  acFont24_1_00A4                            3006FF90 
  acFont24_1_00A5                            3006FFC0 
  acFont24_1_00A6                            3006FFF0 
  acFont24_1_00A7                            30070008 
  acFont24_1_00A8                            30070038 
  acFont24_1_00A9                            30070050 
  acFont24_1_00AA                            30070080 
  acFont24_1_00AB                            30070098 
  acFont24_1_00AC                            300700C8 
  acFont24_1_00AD                            300700F8 
  acFont24_1_00AE                            30070110 
  acFont24_1_00AF                            30070140 
  acFont24_1_00B0                            30070170 
  acFont24_1_00B1                            30070188 
  acFont24_1_00B2                            300701B8 
  acFont24_1_00B3                            300701D0 
  acFont24_1_00B4                            300701E8 
  acFont24_1_00B5                            30070200 
  acFont24_1_00B6                            30070230 
  acFont24_1_00B7                            30070260 
  acFont24_1_00B8                            30070278 
  acFont24_1_00B9                            30070290 
  acFont24_1_00BA                            300702A8 
  acFont24_1_00BB                            300702C0 
  acFont24_1_00BC                            300702F0 
  acFont24_1_00BD                            30070338 
  acFont24_1_00BE                            30070380 
  acFont24_1_00BF                            300703C8 
  acFont24_1_00C0                            300703F8 
  acFont24_1_00C1                            30070428 
  acFont24_1_00C2                            30070458 
  acFont24_1_00C3                            30070488 
  acFont24_1_00C4                            300704B8 
  acFont24_1_00C5                            300704E8 
  acFont24_1_00C6                            30070518 
  acFont24_1_00C7                            30070560 
  acFont24_1_00C8                            30070590 
  acFont24_1_00C9                            300705C0 
  acFont24_1_00CA                            300705F0 
  acFont24_1_00CB                            30070620 
  acFont24_1_00CC                            30070650 
  acFont24_1_00CD                            30070668 
  acFont24_1_00CE                            30070680 
  acFont24_1_00CF                            30070698 
  acFont24_1_00D0                            300706B0 
  acFont24_1_00D1                            300706E0 
  acFont24_1_00D2                            30070710 
  acFont24_1_00D3                            30070740 
  acFont24_1_00D4                            30070770 
  acFont24_1_00D5                            300707A0 
  acFont24_1_00D6                            300707D0 
  acFont24_1_00D7                            30070800 
  acFont24_1_00D8                            30070830 
  acFont24_1_00D9                            30070860 
  acFont24_1_00DA                            30070890 
  acFont24_1_00DB                            300708C0 
  acFont24_1_00DC                            300708F0 
  acFont24_1_00DD                            30070920 
  acFont24_1_00DE                            30070950 
  acFont24_1_00DF                            30070980 
  acFont24_1_00E0                            300709B0 
  acFont24_1_00E1                            300709E0 
  acFont24_1_00E2                            30070A10 
  acFont24_1_00E3                            30070A40 
  acFont24_1_00E4                            30070A70 
  acFont24_1_00E5                            30070AA0 
  acFont24_1_00E6                            30070AD0 
  acFont24_1_00E7                            30070B18 
  acFont24_1_00E8                            30070B48 
  acFont24_1_00E9                            30070B78 
  acFont24_1_00EA                            30070BA8 
  acFont24_1_00EB                            30070BD8 
  acFont24_1_00EC                            30070C08 
  acFont24_1_00ED                            30070C20 
  acFont24_1_00EE                            30070C38 
  acFont24_1_00EF                            30070C50 
  acFont24_1_00F0                            30070C68 
  acFont24_1_00F1                            30070C98 
  acFont24_1_00F2                            30070CC8 
  acFont24_1_00F3                            30070CF8 
  acFont24_1_00F4                            30070D28 
  acFont24_1_00F5                            30070D58 
  acFont24_1_00F6                            30070D88 
  acFont24_1_00F7                            30070DB8 
  acFont24_1_00F8                            30070DE8 
  acFont24_1_00F9                            30070E18 
  acFont24_1_00FA                            30070E48 
  acFont24_1_00FB                            30070E78 
  acFont24_1_00FC                            30070EA8 
  acFont24_1_00FD                            30070ED8 
  acFont24_1_00FE                            30070F08 
  acFont24_1_00FF                            30070F38 
  GUI_Font24_1_CharInfo                      30070F68 
  GUI_Font24_1_Prop2                         30071268 
  GUI_Font24_1_Prop1                         30071274 
  GUI_Font24_1                               30071280 
F24_ASCII ( F:\S2Prog\TXU\TargetDebug\Lib\GUI_Lib.r79 )
  acFont24_ASCII_0020                        300712A0 
  acFont24_ASCII_0021                        300712B8 
  acFont24_ASCII_0022                        300712D0 
  acFont24_ASCII_0023                        300712E8 
  acFont24_ASCII_0024                        30071318 
  acFont24_ASCII_0025                        30071348 
  acFont24_ASCII_0026                        30071390 
  acFont24_ASCII_0027                        300713C0 
  acFont24_ASCII_0028                        300713D8 
  acFont24_ASCII_0029                        300713F0 
  acFont24_ASCII_002A                        30071408 
  acFont24_ASCII_002B                        30071420 
  acFont24_ASCII_002C                        30071450 
  acFont24_ASCII_002D                        30071468 
  acFont24_ASCII_002E                        30071480 
  acFont24_ASCII_002F                        30071498 
  acFont24_ASCII_0030                        300714B0 
  acFont24_ASCII_0031                        300714E0 
  acFont24_ASCII_0032                        30071510 
  acFont24_ASCII_0033                        30071540 
  acFont24_ASCII_0034                        30071570 
  acFont24_ASCII_0035                        300715A0 
  acFont24_ASCII_0036                        300715D0 
  acFont24_ASCII_0037                        30071600 
  acFont24_ASCII_0038                        30071630 
  acFont24_ASCII_0039                        30071660 
  acFont24_ASCII_003A                        30071690 
  acFont24_ASCII_003B                        300716A8 
  acFont24_ASCII_003C                        300716C0 
  acFont24_ASCII_003D                        300716F0 
  acFont24_ASCII_003E                        30071720 
  acFont24_ASCII_003F                        30071750 
  acFont24_ASCII_0040                        30071780 
  acFont24_ASCII_0041                        300717C8 
  acFont24_ASCII_0042                        300717F8 
  acFont24_ASCII_0043                        30071828 
  acFont24_ASCII_0044                        30071858 
  acFont24_ASCII_0045                        30071888 
  acFont24_ASCII_0046                        300718B8 
  acFont24_ASCII_0047                        300718E8 
  acFont24_ASCII_0048                        30071918 
  acFont24_ASCII_0049                        30071948 
  acFont24_ASCII_004A                        30071960 
  acFont24_ASCII_004B                        30071990 
  acFont24_ASCII_004C                        300719C0 
  acFont24_ASCII_004D                        300719F0 
  acFont24_ASCII_004E                        30071A38 
  acFont24_ASCII_004F                        30071A68 
  acFont24_ASCII_0050                        30071A98 
  acFont24_ASCII_0051                        30071AC8 
  acFont24_ASCII_0052                        30071AF8 
  acFont24_ASCII_0053                        30071B28 
  acFont24_ASCII_0054                        30071B58 
  acFont24_ASCII_0055                        30071B88 
  acFont24_ASCII_0056                        30071BB8 
  acFont24_ASCII_0057                        30071BE8 
  acFont24_ASCII_0058                        30071C30 
  acFont24_ASCII_0059                        30071C60 
  acFont24_ASCII_005A                        30071C90 
  acFont24_ASCII_005B                        30071CC0 
  acFont24_ASCII_005C                        30071CD8 
  acFont24_ASCII_005D                        30071CF0 
  acFont24_ASCII_005E                        30071D08 
  acFont24_ASCII_005F                        30071D20 
  acFont24_ASCII_0060                        30071D50 
  acFont24_ASCII_0061                        30071D68 
  acFont24_ASCII_0062                        30071D98 
  acFont24_ASCII_0063                        30071DC8 
  acFont24_ASCII_0064                        30071DF8 
  acFont24_ASCII_0065                        30071E28 
  acFont24_ASCII_0066                        30071E58 
  acFont24_ASCII_0067                        30071E70 
  acFont24_ASCII_0068                        30071EA0 
  acFont24_ASCII_0069                        30071ED0 
  acFont24_ASCII_006A                        30071EE8 
  acFont24_ASCII_006B                        30071F00 
  acFont24_ASCII_006C                        30071F30 
  acFont24_ASCII_006D                        30071F48 
  acFont24_ASCII_006E                        30071F78 
  acFont24_ASCII_006F                        30071FA8 
  acFont24_ASCII_0070                        30071FD8 
  acFont24_ASCII_0071                        30072008 
  acFont24_ASCII_0072                        30072038 
  acFont24_ASCII_0073                        30072050 
  acFont24_ASCII_0074                        30072080 
  acFont24_ASCII_0075                        30072098 
  acFont24_ASCII_0076                        300720C8 
  acFont24_ASCII_0077                        300720F8 
  acFont24_ASCII_0078                        30072128 
  acFont24_ASCII_0079                        30072158 
  acFont24_ASCII_007A                        30072188 
  acFont24_ASCII_007B                        300721B8 
  acFont24_ASCII_007C                        300721D0 
  acFont24_ASCII_007D                        300721E8 
  acFont24_ASCII_007E                        30072200 
  GUI_Font24_ASCII_CharInfo                  30072230 
F6x8 ( F:\S2Prog\TXU\TargetDebug\Lib\GUI_Lib.r79 )
  GUI_acFont6x8                              30072528 
  GUI_F6x8_TL8859_1                          30072A40 
  GUI_F6x8_TI8859_1                          30072C00 
  GUI_F6x8_Mono                              30072C08 
  GUI_Font6x8                                30072C1C 
F8x16 ( F:\S2Prog\TXU\TargetDebug\Lib\GUI_Lib.r79 )
  acFont8x16                                 3007820E 
  TransList8x16                              30073658 
  TransInfo8x16                              30072C3C 
  FontMono8x16                               30072C44 
  GUI_Font8x16                               30072C58 
FRAMEWIN_Create ( F:\S2Prog\TXU\TargetDebug\Lib\GUI_Lib.r79 )
FRAMEWIN_CreateIndirect ( F:\S2Prog\TXU\TargetDebug\Lib\GUI_Lib.r79 )
  FRAMEWIN_CreateIndirect                    3000206C 
  FRAMEWIN_CreateIndirect::??rA              3000206C 
GUIAlloc ( F:\S2Prog\TXU\TargetDebug\Lib\GUI_Lib.r79 )
  GUI_Heap                                   30A39154 
  GUI_ALLOC                                  30A6B710 
  GUI_ALLOC_Init                             300027A8 
  GUI_ALLOC_Init::??rA                       300027A8 
  GUI_ALLOC_AllocNoInit                      30002830 
  GUI_ALLOC_AllocNoInit::??rA                30002830 
  GUI_ALLOC_h2p                              30002870 
  GUI_ALLOC_h2p::??rA                        30002870 
  GUI_ALLOC_GetMaxSize                       300028B8 
  GUI_ALLOC_GetMaxSize::??rA                 300028B8 
  GUI_ALLOC_GetSize                          30002994 
  GUI_ALLOC_GetSize::??rA                    30002994 
  GUI_ALLOC_Free                             300029CC 
  GUI_ALLOC_Free::??rA                       300029CC 
  GUI_ALLOC_FreePtr                          30002A04 
  GUI_ALLOC_FreePtr::??rA                    30002A04 
  GUI_ALLOC_AllocInit                        30002A2C 
  GUI_ALLOC_AllocInit::??rA                  30002A2C 
  GUI_ALLOC_AllocZero                        30002AD8 
  GUI_ALLOC_AllocZero::??rA                  30002AD8 
  aBlock                                     30A5DB44   LOCAL
  IsInitialized                              30A6BAC8   LOCAL
  Size2LegalSize                             30002114   LOCAL
  Size2LegalSize::??rA                       30002114   LOCAL
  _GetSize                                   30002124   LOCAL
  _GetSize::??rA                             30002124   LOCAL
  _Free                                      30002144   LOCAL
  _Free::??rA                                30002144   LOCAL
  FindFreeHandle                             30002278   LOCAL
  FindFreeHandle::??rA                       30002278   LOCAL
  FindHole                                   300022C8   LOCAL
  FindHole::??rA                             300022C8   LOCAL
  CreateHole                                 300023AC   LOCAL
  CreateHole::??rA                           300023AC   LOCAL
  _CheckInit                                 30002524   LOCAL
  _CheckInit::??rA                           30002524   LOCAL
  _Alloc                                     30002548   LOCAL
  _Alloc::??rA                               30002548   LOCAL
GUIChar ( F:\S2Prog\TXU\TargetDebug\Lib\GUI_Lib.r79 )
  GUI_DispNextLine                           30002B44 
  GUI_DispNextLine::??rA                     30002B44 
  GL_DispChar                                30002B80 
  GL_DispChar::??rA                          30002B80 
  GUI_GetYAdjust                             30002C14 
  GUI_GetYAdjust::??rA                       30002C14 
  GUI_GetFontDistY                           30002CC0 
  GUI_GetFontDistY::??rA                     30002CC0 
  GUI_GetCharDistX                           30002D04 
  GUI_GetCharDistX::??rA                     30002D04 
GUICharLine ( F:\S2Prog\TXU\TargetDebug\Lib\GUI_Lib.r79 )
  GUI__GetLineNumChars                       30002E30 
  GUI__GetLineNumChars::??rA                 30002E30 
  GUI_GetLineDistX                           30002ED0 
  GUI_GetLineDistX::??rA                     30002ED0 
  GUI__DispLine                              30002F64 
  GUI__DispLine::??rA                        30002F64 
  _DispLine                                  30002D48   LOCAL
  _DispLine::??rA                            30002D48   LOCAL
GUICharM ( F:\S2Prog\TXU\TargetDebug\Lib\GUI_Lib.r79 )
  GUIMONO_DispChar                           300030A8 
  GUIMONO_DispChar::??rA                     300030A8 
  GUIMONO_GetCharDistX                       3000342C 
  GUIMONO_GetCharDistX::??rA                 3000342C 
  GUIMONO_GetFontInfo                        30003450 
  GUIMONO_GetFontInfo::??rA                  30003450 
  GUIMONO_IsInFont                           3000345C 
  GUIMONO_IsInFont::??rA                     3000345C 
GUICharP ( F:\S2Prog\TXU\TargetDebug\Lib\GUI_Lib.r79 )
  GUIPROP_DispChar                           30003580 
  GUIPROP_DispChar::??rA                     30003580 
  GUIPROP_GetCharDistX                       30003798 
  GUIPROP_GetCharDistX::??rA                 30003798 
  GUIPROP_GetFontInfo                        30003808 
  GUIPROP_GetFontInfo::??rA                  30003808 
  GUIPROP_IsInFont                           30003814 
  GUIPROP_IsInFont::??rA                     30003814 
  GUIPROP_FindChar                           30003528   LOCAL
  GUIPROP_FindChar::??rA                     30003528   LOCAL
GUICirc ( F:\S2Prog\TXU\TargetDebug\Lib\GUI_Lib.r79 )
GUICurs ( F:\S2Prog\TXU\TargetDebug\Lib\GUI_Lib.r79 )
  GUI_CURSOR_Select                          30003DA8 
  GUI_CURSOR_Select::??rA                    30003DA8 
  GUI_CURSOR_SetPosition                     30003EE0 
  GUI_CURSOR_SetPosition::??rA               30003EE0 
  _hBuffer                                   30A6BA9A   LOCAL
  _Rect                                      30A6B728   LOCAL
  _CursorIsVis                               30A6BAC9   LOCAL
  _CursorOn                                  30A6BACA   LOCAL
  _pCursor                                   30A6B730   LOCAL
  _CursorDeActCnt                            30A6BACB   LOCAL
  _AllocSize                                 30A6B734   LOCAL
  _x                                         30A6B738   LOCAL
  _y                                         30A6B73C   LOCAL
  _ClipRect                                  30A6B740   LOCAL
  _ColorIndex                                30A6B748   LOCAL
  _SetPixelIndex                             30003858   LOCAL
  _SetPixelIndex::??rA                       30003858   LOCAL
  _GetPixelIndex                             300038F8   LOCAL
  _GetPixelIndex::??rA                       300038F8   LOCAL
  _Undraw                                    30003984   LOCAL
  _Undraw::??rA                              30003984   LOCAL
  _Log2Phys                                  30003AA4   LOCAL
  _Log2Phys::??rA                            30003AA4   LOCAL
  _Draw                                      30003B0C   LOCAL
  _Draw::??rA                                30003B0C   LOCAL
  _CalcRect                                  30003C7C   LOCAL
  _CalcRect::??rA                            30003C7C   LOCAL
  _Hide                                      30003D30   LOCAL
  _Hide::??rA                                30003D30   LOCAL
  _Show                                      30003D60   LOCAL
  _Show::??rA                                30003D60   LOCAL
GUIDEV ( F:\S2Prog\TXU\TargetDebug\Lib\GUI_Lib.r79 )
  GUI_MEMDEV__GetRect                        30004360 
  GUI_MEMDEV__GetRect::??rA                  30004360 
  GUI_MEMDEV__Color2Index                    300043BC 
  GUI_MEMDEV__Color2Index::??rA              300043BC 
  GUI_MEMDEV__Index2Color                    300043F0 
  GUI_MEMDEV__Index2Color::??rA              300043F0 
  GUI_MEMDEV__GetIndexMask                   30004424 
  GUI_MEMDEV__GetIndexMask::??rA             30004424 
  GUI_MEMDEV_Delete                          30004458 
  GUI_MEMDEV_Delete::??rA                    30004458 
  GUI_MEMDEV_CreateEx                        300044E4 
  GUI_MEMDEV_CreateEx::??rA                  300044E4 
  GUI_MEMDEV_Select                          30004728 
  GUI_MEMDEV_Select::??rA                    30004728 
  GUI_MEMDEV__WriteToActiveAt                300047E4 
  GUI_MEMDEV__WriteToActiveAt::??rA
                                             300047E4 
  GUI_MEMDEV_CopyToLCDAt                     30004A08 
  GUI_MEMDEV_CopyToLCDAt::??rA               30004A08 
  GUI_MEMDEV_CopyToLCD                       30004B10 
  GUI_MEMDEV_CopyToLCD::??rA                 30004B10 
GUIDEV_16 ( F:\S2Prog\TXU\TargetDebug\Lib\GUI_Lib.r79 )
  GUI_MEMDEV__APIList16                      30072C78 
  _DrawBitLine16BPP_DDB                      30004B40   LOCAL
  _DrawBitLine16BPP_DDB::??rA                30004B40   LOCAL
  aID                                        30073818   LOCAL
  _XY2PTR                                    30004C04   LOCAL
  _XY2PTR::??rA                              30004C04   LOCAL
  _DrawBitLine1BPP                           30004C70   LOCAL
  _DrawBitLine1BPP::??rA                     30004C70   LOCAL
  _DrawBitLine2BPP                           30004EBC   LOCAL
  _DrawBitLine2BPP::??rA                     30004EBC   LOCAL
  _DrawBitLine4BPP                           300050F0   LOCAL
  _DrawBitLine4BPP::??rA                     300050F0   LOCAL
  _DrawBitLine8BPP                           3000544C   LOCAL
  _DrawBitLine8BPP::??rA                     3000544C   LOCAL
  _DrawBitLine8BPP_DDB                       30005530   LOCAL
  _DrawBitLine8BPP_DDB::??rA                 30005530   LOCAL
  _DrawBitmap                                300055F4   LOCAL
  _DrawBitmap::??rA                          300055F4   LOCAL
  _FillRect                                  3000588C   LOCAL
  _FillRect::??rA                            3000588C   LOCAL
  _DrawHLine                                 3000599C   LOCAL
  _DrawHLine::??rA                           3000599C   LOCAL
  _DrawVLine                                 300059C8   LOCAL
  _DrawVLine::??rA                           300059C8   LOCAL
  _SetPixelIndex                             30005AF8   LOCAL
  _SetPixelIndex::??rA                       30005AF8   LOCAL
  _XorPixel                                  30005B98   LOCAL
  _XorPixel::??rA                            30005B98   LOCAL
  _GetPixelIndex                             30005C48   LOCAL
  _GetPixelIndex::??rA                       30005C48   LOCAL
GUIDEV_Banding ( F:\S2Prog\TXU\TargetDebug\Lib\GUI_Lib.r79 )
  GUI_MEMDEV_Draw                            30005C94 
  GUI_MEMDEV_Draw::??rA                      30005C94 
  _Min                                       30005C78   LOCAL
  _Min::??rA                                 30005C78   LOCAL
GUIDEV_Clear ( F:\S2Prog\TXU\TargetDebug\Lib\GUI_Lib.r79 )
  GUI_MEMDEV_Clear                           30005EC8 
  GUI_MEMDEV_Clear::??rA                     30005EC8 
GUIDEV_GetYSize ( F:\S2Prog\TXU\TargetDebug\Lib\GUI_Lib.r79 )
  GUI_MEMDEV_GetYSize                        30005F68 
  GUI_MEMDEV_GetYSize::??rA                  30005F68 
GUIDEV_ReduceYSize ( F:\S2Prog\TXU\TargetDebug\Lib\GUI_Lib.r79 )
  GUI_MEMDEV_ReduceYSize                     30005FDC 
  GUI_MEMDEV_ReduceYSize::??rA               30005FDC 
GUIDEV_SetOrg ( F:\S2Prog\TXU\TargetDebug\Lib\GUI_Lib.r79 )
  GUI_MEMDEV_SetOrg                          30006058 
  GUI_MEMDEV_SetOrg::??rA                    30006058 
GUIDEV_Usage ( F:\S2Prog\TXU\TargetDebug\Lib\GUI_Lib.r79 )
  GUI_USAGE_DecUseCnt                        3000612C 
  GUI_USAGE_DecUseCnt::??rA                  3000612C 
  GUI_USAGE_AddRect                          30006184 
  GUI_USAGE_AddRect::??rA                    30006184 
GUIDEV_UsageBM ( F:\S2Prog\TXU\TargetDebug\Lib\GUI_Lib.r79 )
  GUI_USAGE_BM_Create                        300064DC 
  GUI_USAGE_BM_Create::??rA                  300064DC 
  GUI_USAGE_BM_AddPixel                      300061D4   LOCAL
  GUI_USAGE_BM_AddPixel::??rA                300061D4   LOCAL
  GUI_USAGE_BM_AddHLine                      30006234   LOCAL
  GUI_USAGE_BM_AddHLine::??rA                30006234   LOCAL
  GUI_USAGE_BM_Clear                         30006328   LOCAL
  GUI_USAGE_BM_Clear::??rA                   30006328   LOCAL
  GUI_USAGE_BM_GetNextDirty                  30006360   LOCAL
  GUI_USAGE_BM_GetNextDirty::??rA            30006360   LOCAL
  _GUI_USAGE_BM_Delete                       300064BC   LOCAL
  _GUI_USAGE_BM_Delete::??rA                 300064BC   LOCAL
  API                                        30072CB8   LOCAL
GUIRealloc ( F:\S2Prog\TXU\TargetDebug\Lib\GUI_Lib.r79 )
  GUI_ALLOC_Realloc                          300065A4 
  GUI_ALLOC_Realloc::??rA                    300065A4 
GUITime ( F:\S2Prog\TXU\TargetDebug\Lib\GUI_Lib.r79 )
  GUI_GetTime                                30006674 
  GUI_GetTime::??rA                          30006674 
  GUI_Delay                                  30006684 
  GUI_Delay::??rA                            30006684 
  GUI_X_GetTime::??rA                        300066EC 
  GUI_X_Delay::??rA                          300066F8 
GUI_ARRAY ( F:\S2Prog\TXU\TargetDebug\Lib\GUI_Lib.r79 )
  GUI_ARRAY_GetNumItems                      30006704 
  GUI_ARRAY_GetNumItems::??rA                30006704 
  GUI_ARRAY_AddItem                          30006718 
  GUI_ARRAY_AddItem::??rA                    30006718 
  GUI_ARRAY_GethItem                         30006800 
  GUI_ARRAY_GethItem::??rA                   30006800 
  GUI_ARRAY_Delete                           30006878 
  GUI_ARRAY_Delete::??rA                     30006878 
  GUI_ARRAY_SethItem                         300068E8 
  GUI_ARRAY_SethItem::??rA                   300068E8 
  GUI_ARRAY_SetItem                          30006960 
  GUI_ARRAY_SetItem::??rA                    30006960 
  GUI_ARRAY_GetpItem                         300069F4 
  GUI_ARRAY_GetpItem::??rA                   300069F4 
GUI_ARRAY_DeleteItem ( F:\S2Prog\TXU\TargetDebug\Lib\GUI_Lib.r79 )
GUI_ARRAY_ResizeItem ( F:\S2Prog\TXU\TargetDebug\Lib\GUI_Lib.r79 )
  GUI_ARRAY_ResizeItem                       30006A44 
  GUI_ARRAY_ResizeItem::??rA                 30006A44 
GUI_ClearRectEx ( F:\S2Prog\TXU\TargetDebug\Lib\GUI_Lib.r79 )
  GUI_ClearRectEx                            30006AE4 
  GUI_ClearRectEx::??rA                      30006AE4 
GUI_CursorArrowM ( F:\S2Prog\TXU\TargetDebug\Lib\GUI_Lib.r79 )
GUI_CursorArrowMPx ( F:\S2Prog\TXU\TargetDebug\Lib\GUI_Lib.r79 )
GUI_CursorHeaderM ( F:\S2Prog\TXU\TargetDebug\Lib\GUI_Lib.r79 )
  GUI_CursorHeaderM                          30072CE4 
  _BitmapHeaderM                             30072CD0   LOCAL
GUI_CursorHeaderMPx ( F:\S2Prog\TXU\TargetDebug\Lib\GUI_Lib.r79 )
  GUI_PixelsHeaderM                          30078C3E 
GUI_CursorPal ( F:\S2Prog\TXU\TargetDebug\Lib\GUI_Lib.r79 )
  GUI_CursorPal                              30072CFC 
  _aColor                                    30072CF0   LOCAL
GUI_DRAW ( F:\S2Prog\TXU\TargetDebug\Lib\GUI_Lib.r79 )
  GUI_DRAW__Draw                             30006B28 
  GUI_DRAW__Draw::??rA                       30006B28 
  GUI_DRAW__GetXSize                         30006B80 
  GUI_DRAW__GetXSize::??rA                   30006B80 
  GUI_DRAW__GetYSize                         30006BD0 
  GUI_DRAW__GetYSize::??rA                   30006BD0 
GUI_DRAW_BITMAP ( F:\S2Prog\TXU\TargetDebug\Lib\GUI_Lib.r79 )
  GUI_DRAW_BITMAP_Create                     30006C88 
  GUI_DRAW_BITMAP_Create::??rA               30006C88 
  _DrawBitmap                                30006C20   LOCAL
  _DrawBitmap::??rA                          30006C20   LOCAL
  _GetXSize                                  30006C60   LOCAL
  _GetXSize::??rA                            30006C60   LOCAL
  _GetYSize                                  30006C74   LOCAL
  _GetYSize::??rA                            30006C74   LOCAL
  _ConstObjData                              30072D08   LOCAL
GUI_DispChar ( F:\S2Prog\TXU\TargetDebug\Lib\GUI_Lib.r79 )
  GUI_DispChar                               30006E00 
  GUI_DispChar::??rA                         30006E00 
  GUI_DispCharAt                             30006E28 
  GUI_DispCharAt::??rA                       30006E28 
  CL_DispChar                                30006D04   LOCAL
  CL_DispChar::??rA                          30006D04   LOCAL
GUI_DispChars ( F:\S2Prog\TXU\TargetDebug\Lib\GUI_Lib.r79 )
  GUI_DispChars                              30006E6C 
  GUI_DispChars::??rA                        30006E6C 
GUI_DispString ( F:\S2Prog\TXU\TargetDebug\Lib\GUI_Lib.r79 )
  GUI_DispString                             30006EA0 
  GUI_DispString::??rA                       30006EA0 
GUI_DispStringAt ( F:\S2Prog\TXU\TargetDebug\Lib\GUI_Lib.r79 )
  GUI_DispStringAt                           300070DC 
  GUI_DispStringAt::??rA                     300070DC 
GUI_DispStringHCenter ( F:\S2Prog\TXU\TargetDebug\Lib\GUI_Lib.r79 )
  GUI_DispStringHCenterAt                    30007120 
  GUI_DispStringHCenterAt::??rA              30007120 
GUI_DispStringInRect ( F:\S2Prog\TXU\TargetDebug\Lib\GUI_Lib.r79 )
  GUI__DispStringInRect                      30007170 
  GUI__DispStringInRect::??rA                30007170 
  GUI_DispStringInRectMax                    30007444 
  GUI_DispStringInRectMax::??rA              30007444 
  GUI_DispStringInRect                       300074CC 
  GUI_DispStringInRect::??rA                 300074CC 
GUI_DrawBitmap ( F:\S2Prog\TXU\TargetDebug\Lib\GUI_Lib.r79 )
  GL_DrawBitmap                              300074FC 
  GL_DrawBitmap::??rA                        300074FC 
  GUI_DrawBitmap                             30007638 
  GUI_DrawBitmap::??rA                       30007638 
GUI_DrawFocusRect ( F:\S2Prog\TXU\TargetDebug\Lib\GUI_Lib.r79 )
  GUI_DrawFocusRect                          30007784 
  GUI_DrawFocusRect::??rA                    30007784 
  _DrawFocusRect                             300076CC   LOCAL
  _DrawFocusRect::??rA                       300076CC   LOCAL
GUI_DrawHLine ( F:\S2Prog\TXU\TargetDebug\Lib\GUI_Lib.r79 )
  GUI_DrawHLine                              3000782C 
  GUI_DrawHLine::??rA                        3000782C 
GUI_DrawPolyline ( F:\S2Prog\TXU\TargetDebug\Lib\GUI_Lib.r79 )
GUI_DrawVLine ( F:\S2Prog\TXU\TargetDebug\Lib\GUI_Lib.r79 )
  GUI_DrawVLine                              300078B4 
  GUI_DrawVLine::??rA                        300078B4 
GUI_Exec ( F:\S2Prog\TXU\TargetDebug\Lib\GUI_Lib.r79 )
  GUI_Exec1                                  3000793C 
  GUI_Exec1::??rA                            3000793C 
  GUI_Exec                                   30007990 
  GUI_Exec::??rA                             30007990 
GUI_FillPolygon ( F:\S2Prog\TXU\TargetDebug\Lib\GUI_Lib.r79 )
GUI_FillRect ( F:\S2Prog\TXU\TargetDebug\Lib\GUI_Lib.r79 )
  GUI_FillRect                               300079B8 
  GUI_FillRect::??rA                         300079B8 
GUI_FillRectEx ( F:\S2Prog\TXU\TargetDebug\Lib\GUI_Lib.r79 )
  GUI_FillRectEx                             30007A54 
  GUI_FillRectEx::??rA                       30007A54 
GUI_GetBitmapPixelColor ( F:\S2Prog\TXU\TargetDebug\Lib\GUI_Lib.r79 )
  GUI_GetBitmapPixelIndex                    30007A98 
  GUI_GetBitmapPixelIndex::??rA              30007A98 
GUI_GetClientRect ( F:\S2Prog\TXU\TargetDebug\Lib\GUI_Lib.r79 )
  GUI_GetClientRect                          30007BD0 
  GUI_GetClientRect::??rA                    30007BD0 
GUI_GetColor ( F:\S2Prog\TXU\TargetDebug\Lib\GUI_Lib.r79 )
  GUI_GetBkColor                             30007BF0 
  GUI_GetBkColor::??rA                       30007BF0 
  GUI_GetColor                               30007C14 
  GUI_GetColor::??rA                         30007C14 
GUI_GetFontSizeY ( F:\S2Prog\TXU\TargetDebug\Lib\GUI_Lib.r79 )
  GUI_GetFontSizeY                           30007C38 
  GUI_GetFontSizeY::??rA                     30007C38 
GUI_GetStringDistX ( F:\S2Prog\TXU\TargetDebug\Lib\GUI_Lib.r79 )
  GUI_GetStringDistX                         30007C58 
  GUI_GetStringDistX::??rA                   30007C58 
GUI_GetYSizeOfFont ( F:\S2Prog\TXU\TargetDebug\Lib\GUI_Lib.r79 )
  GUI_GetYSizeOfFont                         30007C7C 
  GUI_GetYSizeOfFont::??rA                   30007C7C 
  GUI_GetYDistOfFont                         30007C94 
  GUI_GetYDistOfFont::??rA                   30007C94 
GUI_Goto ( F:\S2Prog\TXU\TargetDebug\Lib\GUI_Lib.r79 )
  GUI_GotoXY                                 30007CE4 
  GUI_GotoXY::??rA                           30007CE4 
  _GotoY                                     30007CAC   LOCAL
  _GotoY::??rA                               30007CAC   LOCAL
  _GotoX                                     30007CC8   LOCAL
  _GotoX::??rA                               30007CC8   LOCAL
GUI_InvertRect ( F:\S2Prog\TXU\TargetDebug\Lib\GUI_Lib.r79 )
  GUI_InvertRect                             30007D20 
  GUI_InvertRect::??rA                       30007D20 
GUI_MergeRect ( F:\S2Prog\TXU\TargetDebug\Lib\GUI_Lib.r79 )
  GUI_MergeRect                              30007DD0 
  GUI_MergeRect::??rA                        30007DD0 
GUI_MoveRect ( F:\S2Prog\TXU\TargetDebug\Lib\GUI_Lib.r79 )
  GUI_MoveRect                               30007EEC 
  GUI_MoveRect::??rA                         30007EEC 
GUI_OnKey ( F:\S2Prog\TXU\TargetDebug\Lib\GUI_Lib.r79 )
  GUI_GetKey                                 30007F38 
  GUI_GetKey::??rA                           30007F38 
  GUI_StoreKey                               30007F58 
  GUI_StoreKey::??rA                         30007F58 
  GUI_StoreKeyMsg                            30007F78 
  GUI_StoreKeyMsg::??rA                      30007F78 
  GUI_PollKeyMsg                             30007FA0 
  GUI_PollKeyMsg::??rA                       30007FA0 
  _KeyMsgCnt                                 30A6B750   LOCAL
  _KeyMsg                                    30A6B754   LOCAL
  _Key                                       30A6B75C   LOCAL
GUI_PID ( F:\S2Prog\TXU\TargetDebug\Lib\GUI_Lib.r79 )
  GUI_PID_GetState                           30008034 
  GUI_PID_GetState::??rA                     30008034 
  GUI_PID_StoreState                         30008070 
  GUI_PID_StoreState::??rA                   30008070 
  _State                                     30A6B760   LOCAL
  _PID_Load                                  3000801C   LOCAL
  _PID_Load::??rA                            3000801C   LOCAL
GUI_Pen ( F:\S2Prog\TXU\TargetDebug\Lib\GUI_Lib.r79 )
  GUI_SetPenSize                             300080BC 
  GUI_SetPenSize::??rA                       300080BC 
GUI_RectsIntersect ( F:\S2Prog\TXU\TargetDebug\Lib\GUI_Lib.r79 )
  GUI_RectsIntersect                         300080F4 
  GUI_RectsIntersect::??rA                   300080F4 
GUI_SaveContext ( F:\S2Prog\TXU\TargetDebug\Lib\GUI_Lib.r79 )
  GUI_SaveContext_W_M                        30008188 
  GUI_SaveContext_W_M::??rA                  30008188 
  GUI_RestoreContext                         300081A8 
  GUI_RestoreContext::??rA                   300081A8 
GUI_SelectLCD ( F:\S2Prog\TXU\TargetDebug\Lib\GUI_Lib.r79 )
  GUI_SelectLCD                              300081C8 
  GUI_SelectLCD::??rA                        300081C8 
GUI_SetColor ( F:\S2Prog\TXU\TargetDebug\Lib\GUI_Lib.r79 )
  GUI_SetBkColor                             30008200 
  GUI_SetBkColor::??rA                       30008200 
  GUI_SetColor                               30008220 
  GUI_SetColor::??rA                         30008220 
GUI_SetDefault ( F:\S2Prog\TXU\TargetDebug\Lib\GUI_Lib.r79 )
  GL_SetDefault                              30008240 
  GL_SetDefault::??rA                        30008240 
GUI_SetDrawMode ( F:\S2Prog\TXU\TargetDebug\Lib\GUI_Lib.r79 )
  GUI_SetDrawMode                            30008290 
  GUI_SetDrawMode::??rA                      30008290 
GUI_SetFont ( F:\S2Prog\TXU\TargetDebug\Lib\GUI_Lib.r79 )
  GUI_SetFont                                300082B8 
  GUI_SetFont::??rA                          300082B8 
GUI_SetLineStyle ( F:\S2Prog\TXU\TargetDebug\Lib\GUI_Lib.r79 )
  GUI_SetLineStyle                           300082F4 
  GUI_SetLineStyle::??rA                     300082F4 
GUI_SetTextAlign ( F:\S2Prog\TXU\TargetDebug\Lib\GUI_Lib.r79 )
  GUI_SetTextAlign                           3000832C 
  GUI_SetTextAlign::??rA                     3000832C 
GUI_SetTextMode ( F:\S2Prog\TXU\TargetDebug\Lib\GUI_Lib.r79 )
  GUI_SetTextMode                            3000836C 
  GUI_SetTextMode::??rA                      3000836C 
GUI_TOUCH ( F:\S2Prog\TXU\TargetDebug\Lib\GUI_Lib.r79 )
  GUI_TOUCH_StoreStateEx                     300083AC 
  GUI_TOUCH_StoreStateEx::??rA               300083AC 
  _State                                     30A6B76C   LOCAL
GUI_TOUCH_StoreState ( F:\S2Prog\TXU\TargetDebug\Lib\GUI_Lib.r79 )
  GUI_TOUCH_StoreState                       300083FC 
  GUI_TOUCH_StoreState::??rA                 300083FC 
  GUI_TOUCH_StoreState::_State               30A6B778   LOCAL
GUI_TOUCH_StoreUnstable ( F:\S2Prog\TXU\TargetDebug\Lib\GUI_Lib.r79 )
  abs                                        30008458 
  abs::??rA                                  30008458 
  GUI_TOUCH_StoreUnstable                    30008468 
  GUI_TOUCH_StoreUnstable::??rA              30008468 
  _x                                         30A6B784   LOCAL
  _y                                         30A6B788   LOCAL
GUI_UC ( F:\S2Prog\TXU\TargetDebug\Lib\GUI_Lib.r79 )
  GUI_UC_GetCharSize                         300084D4 
  GUI_UC_GetCharSize::??rA                   300084D4 
  GUI_UC_GetCharCode                         30008510 
  GUI_UC_GetCharCode::??rA                   30008510 
  GUI_UC_CalcSizeOfChar                      30008554 
  GUI_UC_CalcSizeOfChar::??rA                30008554 
  GUI_UC_Encode                              30008598 
  GUI_UC_Encode::??rA                        30008598 
  GUI_UC_GetCharCodeInc                      300085E4 
  GUI_UC_GetCharCodeInc::??rA                300085E4 
  GUI_UC_NumChars2NumBytes                   30008620 
  GUI_UC_NumChars2NumBytes::??rA             30008620 
  GUI_UC_NumBytes2NumChars                   30008664 
  GUI_UC_NumBytes2NumChars::??rA             30008664 
GUI_UC_EncodeNone ( F:\S2Prog\TXU\TargetDebug\Lib\GUI_Lib.r79 )
  GUI__API_TableNone                         30072D14 
  _GetCharCode                               300086A4   LOCAL
  _GetCharCode::??rA                         300086A4   LOCAL
  _GetCharSize                               300086BC   LOCAL
  _GetCharSize::??rA                         300086BC   LOCAL
  _CalcSizeOfChar                            300086C8   LOCAL
  _CalcSizeOfChar::??rA                      300086C8   LOCAL
  _Encode                                    300086D4   LOCAL
  _Encode::??rA                              300086D4   LOCAL
GUI__DivideRound ( F:\S2Prog\TXU\TargetDebug\Lib\GUI_Lib.r79 )
  GUI__DivideRound                           300086E8 
  GUI__DivideRound::??rA                     300086E8 
GUI__GetFontSizeY ( F:\S2Prog\TXU\TargetDebug\Lib\GUI_Lib.r79 )
  GUI__GetFontSizeY                          30008728 
  GUI__GetFontSizeY::??rA                    30008728 
GUI__GetNumChars ( F:\S2Prog\TXU\TargetDebug\Lib\GUI_Lib.r79 )
  GUI__GetNumChars                           30008754 
  GUI__GetNumChars::??rA                     30008754 
GUI__HandleEOLine ( F:\S2Prog\TXU\TargetDebug\Lib\GUI_Lib.r79 )
  GUI__HandleEOLine                          30008798 
  GUI__HandleEOLine::??rA                    30008798 
GUI__IntersectRect ( F:\S2Prog\TXU\TargetDebug\Lib\GUI_Lib.r79 )
  GUI__IntersectRect                         300087DC 
  GUI__IntersectRect::??rA                   300087DC 
GUI__IntersectRects ( F:\S2Prog\TXU\TargetDebug\Lib\GUI_Lib.r79 )
  GUI__IntersectRects                        30008880 
  GUI__IntersectRects::??rA                  30008880 
GUI__ReduceRect ( F:\S2Prog\TXU\TargetDebug\Lib\GUI_Lib.r79 )
  GUI__ReduceRect                            3000899C 
  GUI__ReduceRect::??rA                      3000899C 
GUI__SetText ( F:\S2Prog\TXU\TargetDebug\Lib\GUI_Lib.r79 )
  GUI__SetText                               300089E0 
  GUI__SetText::??rA                         300089E0 
GUI__Wrap ( F:\S2Prog\TXU\TargetDebug\Lib\GUI_Lib.r79 )
  GUI__WrapGetNumCharsDisp                   30008C08 
  GUI__WrapGetNumCharsDisp::??rA             30008C08 
  GUI__WrapGetNumCharsToNextLine             30008C74 
  GUI__WrapGetNumCharsToNextLine::??rA
                                             30008C74 
  GUI__WrapGetNumBytesToNextLine             30008D14 
  GUI__WrapGetNumBytesToNextLine::??rA
                                             30008D14 
  _IsLineEnd                                 30008A70   LOCAL
  _IsLineEnd::??rA                           30008A70   LOCAL
  _GetWordWrap                               30008AA4   LOCAL
  _GetWordWrap::??rA                         30008AA4   LOCAL
  _GetCharWrap                               30008B6C   LOCAL
  _GetCharWrap::??rA                         30008B6C   LOCAL
  _GetNoWrap                                 30008BE8   LOCAL
  _GetNoWrap::??rA                           30008BE8   LOCAL
GUI__memset16 ( F:\S2Prog\TXU\TargetDebug\Lib\GUI_Lib.r79 )
  GUI__memset16                              30008D58 
  GUI__memset16::??rA                        30008D58 
GUI__strcmp ( F:\S2Prog\TXU\TargetDebug\Lib\GUI_Lib.r79 )
  GUI__strcmp                                30008DA4 
  GUI__strcmp::??rA                          30008DA4 
  GUI__strcmp_hp                             30008E20 
  GUI__strcmp_hp::??rA                       30008E20 
GUI__strlen ( F:\S2Prog\TXU\TargetDebug\Lib\GUI_Lib.r79 )
  GUI__strlen                                30008E68 
  GUI__strlen::??rA                          30008E68 
HEADER ( F:\S2Prog\TXU\TargetDebug\Lib\GUI_Lib.r79 )
  HEADER_Create                              3000953C 
  HEADER_Create::??rA                        3000953C 
  HEADER_CreateEx                            300095A4 
  HEADER_CreateEx::??rA                      300095A4 
  HEADER_SetTextAlign                        30009748 
  HEADER_SetTextAlign::??rA                  30009748 
  HEADER_SetScrollPos                        300097C4 
  HEADER_SetScrollPos::??rA                  300097C4 
  HEADER_AddItem                             30009848 
  HEADER_AddItem::??rA                       30009848 
  HEADER_SetItemText                         3000999C 
  HEADER_SetItemText::??rA                   3000999C 
  HEADER_SetItemWidth                        30009A40 
  HEADER_SetItemWidth::??rA                  30009A40 
  HEADER_GetHeight                           30009B04 
  HEADER_GetHeight::??rA                     30009B04 
  HEADER_GetItemWidth                        30009B94 
  HEADER_GetItemWidth::??rA                  30009B94 
  HEADER_GetNumItems                         30009C04 
  HEADER_GetNumItems::??rA                   30009C04 
  _pOldCursor                                30A6B78C   LOCAL
  _pDefaultCursor                            30A058E4   LOCAL
  _DefaultBkColor                            30A058E8   LOCAL
  _DefaultTextColor                          30A6B790   LOCAL
  _DefaultBorderH                            30A058EC   LOCAL
  _DefaultBorderV                            30A6B794   LOCAL
  _pDefaultFont                              30A058F0   LOCAL
  _Paint                                     30008E98   LOCAL
  _Paint::??rA                               30008E98   LOCAL
  _RestoreOldCursor                          30009144   LOCAL
  _RestoreOldCursor::??rA                    30009144   LOCAL
  _FreeAttached                              3000917C   LOCAL
  _FreeAttached::??rA                        3000917C   LOCAL
  _GetItemIndex                              300091DC   LOCAL
  _GetItemIndex::??rA                        300091DC   LOCAL
  _HandlePID                                 300092CC   LOCAL
  _HandlePID::??rA                           300092CC   LOCAL
  _OnTouch                                   300093FC   LOCAL
  _OnTouch::??rA                             300093FC   LOCAL
  _HEADER_Callback                           30009498   LOCAL
  _HEADER_Callback::??rA                     30009498   LOCAL
LCD ( F:\S2Prog\TXU\TargetDebug\Lib\GUI_Lib.r79 )
  LCD_SetColorIndex                          30009C80 
  LCD_SetColorIndex::??rA                    30009C80 
  LCD_SetBkColorIndex                        30009CB0 
  LCD_SetBkColorIndex::??rA                  30009CB0 
  LCD_SetDrawMode                            30009CE0 
  LCD_SetDrawMode::??rA                      30009CE0 
  LCD_DrawPixel                              30009D48 
  LCD_DrawPixel::??rA                        30009D48 
  LCD_DrawHLine                              30009E20 
  LCD_DrawHLine::??rA                        30009E20 
  LCD_FillRect                               30009EEC 
  LCD_FillRect::??rA                         30009EEC 
  LCD_DrawBitmap                             30009FF0 
  LCD_DrawBitmap::??rA                       30009FF0 
  LCD_SetClipRectMax                         3000A488 
  LCD_SetClipRectMax::??rA                   3000A488 
  LCD_Init                                   3000A4B4 
  LCD_Init::??rA                             3000A4B4 
  LCD_Color2Index                            3000A508 
  LCD_Color2Index::??rA                      3000A508 
  LCD_Index2Color                            3000A534 
  LCD_Index2Color::??rA                      3000A534 
  LCD_SetBkColor                             3000A560 
  LCD_SetBkColor::??rA                       3000A560 
  LCD_SetColor                               3000A588 
  LCD_SetColor::??rA                         3000A588 
  GetColorIndex                              30009C54   LOCAL
  GetColorIndex::??rA                        30009C54   LOCAL
LCDColor ( F:\S2Prog\TXU\TargetDebug\Lib\GUI_Lib.r79 )
  LCD__aConvTable                            30A6B798 
  LCD_GetpPalConvTableUncached               3000A5B0 
  LCD_GetpPalConvTableUncached::??rA
                                             3000A5B0 
  LCD_GetpPalConvTable                       3000A64C 
  LCD_GetpPalConvTable::??rA                 3000A64C 
  LCD_InitLUT                                3000A664 
  LCD_InitLUT::??rA                          3000A664 
LCDInfo0 ( F:\S2Prog\TXU\TargetDebug\Lib\GUI_Lib.r79 )
  LCD_GetXSize                               3000A668 
  LCD_GetXSize::??rA                         3000A668 
  LCD_GetYSize                               3000A670 
  LCD_GetYSize::??rA                         3000A670 
  LCD_GetNumColors                           3000A678 
  LCD_GetNumColors::??rA                     3000A678 
LCDLin ( F:\S2Prog\TXU\TargetDebug\Lib\GUI_Lib.r79 )
  LCD_L0_XorPixel                            3000A728 
  LCD_L0_XorPixel::??rA                      3000A728 
  LCD_L0_SetPixelIndex                       3000A748 
  LCD_L0_SetPixelIndex::??rA                 3000A748 
  LCD_L0_DrawHLine                           3000A778 
  LCD_L0_DrawHLine::??rA                     3000A778 
  LCD_L0_DrawVLine                           3000A908 
  LCD_L0_DrawVLine::??rA                     3000A908 
  LCD_L0_FillRect                            3000A978 
  LCD_L0_FillRect::??rA                      3000A978 
  LCD_L0_DrawBitmap                          3000BA34 
  LCD_L0_DrawBitmap::??rA                    3000BA34 
  LCD_L0_Off                                 3000BBA4 
  LCD_L0_Off::??rA                           3000BBA4 
  LCD_L0_On                                  3000BBA8 
  LCD_L0_On::??rA                            3000BBA8 
  LCD_L0_GetPixelIndex                       3000BBAC 
  LCD_L0_GetPixelIndex::??rA                 3000BBAC 
  LCD_L0_SetLUTEntry                         3000BBCC 
  LCD_L0_SetLUTEntry::??rA                   3000BBCC 
  LCD_L0_ReInit                              3000BBD0 
  LCD_L0_ReInit::??rA                        3000BBD0 
  LCD_L0_Init                                3000BBD4 
  LCD_L0_Init::??rA                          3000BBD4 
  _SetPixel                                  3000A680   LOCAL
  _SetPixel::??rA                            3000A680   LOCAL
  _GetPixelIndex                             3000A6A8   LOCAL
  _GetPixelIndex::??rA                       3000A6A8   LOCAL
  XorPixel                                   3000A6E4   LOCAL
  XorPixel::??rA                             3000A6E4   LOCAL
  DrawBitLine1BPP                            3000A9B4   LOCAL
  DrawBitLine1BPP::??rA                      3000A9B4   LOCAL
  DrawBitLine2BPP                            3000B00C   LOCAL
  DrawBitLine2BPP::??rA                      3000B00C   LOCAL
  DrawBitLine4BPP                            3000B4D8   LOCAL
  DrawBitLine4BPP::??rA                      3000B4D8   LOCAL
  DrawBitLine8BPP                            3000B794   LOCAL
  DrawBitLine8BPP::??rA                      3000B794   LOCAL
  DrawBitLine16BPP                           3000B8FC   LOCAL
  DrawBitLine16BPP::??rA                     3000B8FC   LOCAL
LCDPM565 ( F:\S2Prog\TXU\TargetDebug\Lib\GUI_Lib.r79 )
  LCD_Color2Index_M565                       3000BC98 
  LCD_Color2Index_M565::??rA                 3000BC98 
  LCD_Index2Color_M565                       3000BCCC 
  LCD_Index2Color_M565::??rA                 3000BCCC 
  LCD_GetIndexMask_M565                      3000BD40 
  LCD_GetIndexMask_M565::??rA                3000BD40 
LCD_API ( F:\S2Prog\TXU\TargetDebug\Lib\GUI_Lib.r79 )
  LCD_L0_APIList                             30072D24 
  LCD_aAPI                                   30A058F4 
LCD_DrawVLine ( F:\S2Prog\TXU\TargetDebug\Lib\GUI_Lib.r79 )
  LCD_DrawVLine                              3000BD4C 
  LCD_DrawVLine::??rA                        3000BD4C 
LCD_GetColorIndex ( F:\S2Prog\TXU\TargetDebug\Lib\GUI_Lib.r79 )
  LCD_GetBkColorIndex                        3000BE18 
  LCD_GetBkColorIndex::??rA                  3000BE18 
  LCD_GetColorIndex                          3000BE30 
  LCD_GetColorIndex::??rA                    3000BE30 
LCD_L0_Generic ( F:\S2Prog\TXU\TargetDebug\Lib\GUI_Lib.r79 )
  LCD_L0_Color2Index                         3000BE48 
  LCD_L0_Color2Index::??rA                   3000BE48 
  LCD_L0_Index2Color                         3000BE68 
  LCD_L0_Index2Color::??rA                   3000BE68 
  LCD_L0_GetIndexMask                        3000BE80 
  LCD_L0_GetIndexMask::??rA                  3000BE80 
  LCD_L0_GetRect                             3000BE98 
  LCD_L0_GetRect::??rA                       3000BE98 
LCD_SelectLCD ( F:\S2Prog\TXU\TargetDebug\Lib\GUI_Lib.r79 )
  LCD_SelectLCD                              3000BEC0 
  LCD_SelectLCD::??rA                        3000BEC0 
LCD_SetClipRectEx ( F:\S2Prog\TXU\TargetDebug\Lib\GUI_Lib.r79 )
  LCD_SetClipRectEx                          3000BF04 
  LCD_SetClipRectEx::??rA                    3000BF04 
LISTBOX_Create ( F:\S2Prog\TXU\TargetDebug\Lib\GUI_Lib.r79 )
  LISTBOX_CreateAsChild                      3000BF4C 
  LISTBOX_CreateAsChild::??rA                3000BF4C 
LISTBOX_Font ( F:\S2Prog\TXU\TargetDebug\Lib\GUI_Lib.r79 )
  LISTBOX_SetFont                            3000BFB8 
  LISTBOX_SetFont::??rA                      3000BFB8 
LISTBOX_SetAutoScroll ( F:\S2Prog\TXU\TargetDebug\Lib\GUI_Lib.r79 )
  LISTBOX_SetAutoScrollV                     3000C010 
  LISTBOX_SetAutoScrollV::??rA               3000C010 
LISTBOX_SetOwner ( F:\S2Prog\TXU\TargetDebug\Lib\GUI_Lib.r79 )
  LISTBOX_SetOwner                           3000C094 
  LISTBOX_SetOwner::??rA                     3000C094 
LISTBOX_SetTextColor ( F:\S2Prog\TXU\TargetDebug\Lib\GUI_Lib.r79 )
  LISTBOX_SetTextColor                       3000C0E8 
  LISTBOX_SetTextColor::??rA                 3000C0E8 
LISTVIEW_Create ( F:\S2Prog\TXU\TargetDebug\Lib\GUI_Lib.r79 )
  LISTVIEW_CreateAttached                    3000C16C 
  LISTVIEW_CreateAttached::??rA              3000C16C 
  LISTVIEW_CreateEx::??rA                    3000C1C0 
MULTIEDIT ( F:\S2Prog\TXU\TargetDebug\Lib\GUI_Lib.r79 )
  MULTIEDIT_CreateEx                         3000E214 
  MULTIEDIT_CreateEx::??rA                   3000E214 
  MULTIEDIT_SetText                          3000E458 
  MULTIEDIT_SetText::??rA                    3000E458 
  MULTIEDIT_SetWrapWord                      3000E5C8 
  MULTIEDIT_SetWrapWord::??rA                3000E5C8 
  MULTIEDIT_SetReadOnly                      3000E5EC 
  MULTIEDIT_SetReadOnly::??rA                3000E5EC 
  _aDefaultBkColor                           30A058F8   LOCAL
  _aDefaultColor                             30A6B998   LOCAL
  _pDefaultFont                              30A05900   LOCAL
  _GetXSize                                  3000C1CC   LOCAL
  _GetXSize::??rA                            3000C1CC   LOCAL
  _GetNumCharsInPrompt                       3000C230   LOCAL
  _GetNumCharsInPrompt::??rA                 3000C230   LOCAL
  _NumChars2XSize                            3000C28C   LOCAL
  _NumChars2XSize::??rA                      3000C28C   LOCAL
  _WrapGetNumCharsDisp                       3000C2DC   LOCAL
  _WrapGetNumCharsDisp::??rA                 3000C2DC   LOCAL
  _WrapGetNumBytesToNextLine                 3000C3E8   LOCAL
  _WrapGetNumBytesToNextLine::??rA           3000C3E8   LOCAL
  _GetCharDistX                              3000C498   LOCAL
  _GetCharDistX::??rA                        3000C498   LOCAL
  _DispString                                3000C504   LOCAL
  _DispString::??rA                          3000C504   LOCAL
  _GetpLine                                  3000C5F8   LOCAL
  _GetpLine::??rA                            3000C5F8   LOCAL
  _GetCursorLine                             3000C654   LOCAL
  _GetCursorLine::??rA                       3000C654   LOCAL
  _GetCursorXY                               3000C724   LOCAL
  _GetCursorXY::??rA                         3000C724   LOCAL
  _SetScrollState                            3000C804   LOCAL
  _SetScrollState::??rA                      3000C804   LOCAL
  _CalcScrollPos                             3000C840   LOCAL
  _CalcScrollPos::??rA                       3000C840   LOCAL
  _GetTextSizeX                              3000C8C8   LOCAL
  _GetTextSizeX::??rA                        3000C8C8   LOCAL
  _GetNumVisLines                            3000C994   LOCAL
  _GetNumVisLines::??rA                      3000C994   LOCAL
  _GetNumLines                               3000C9F8   LOCAL
  _GetNumLines::??rA                         3000C9F8   LOCAL
  _CalcScrollParas                           3000CAB0   LOCAL
  _CalcScrollParas::??rA                     3000CAB0   LOCAL
  _ManageAutoScrollV                         3000CB48   LOCAL
  _ManageAutoScrollV::??rA                   3000CB48   LOCAL
  _ManageScrollers                           3000CBC8   LOCAL
  _ManageScrollers::??rA                     3000CBC8   LOCAL
  _Invalidate                                3000CCA0   LOCAL
  _Invalidate::??rA                          3000CCA0   LOCAL
  _SetFlag                                   3000CCD0   LOCAL
  _SetFlag::??rA                             3000CCD0   LOCAL
  _SetWrapMode                               3000CD4C   LOCAL
  _SetWrapMode::??rA                         3000CD4C   LOCAL
  _SetCursorInValidLine                      3000CDCC   LOCAL
  _SetCursorInValidLine::??rA                3000CDCC   LOCAL
  _SetCursorPos                              3000CF28   LOCAL
  _SetCursorPos::??rA                        3000CF28   LOCAL
  _SetCursorXY                               3000CF8C   LOCAL
  _SetCursorXY::??rA                         3000CF8C   LOCAL
  _MoveCursorUp                              3000D140   LOCAL
  _MoveCursorUp::??rA                        3000D140   LOCAL
  _MoveCursorDown                            3000D1AC   LOCAL
  _MoveCursorDown::??rA                      3000D1AC   LOCAL
  _MoveCursor2NextLine                       3000D218   LOCAL
  _MoveCursor2NextLine::??rA                 3000D218   LOCAL
  _MoveCursor2LineEnd                        3000D284   LOCAL
  _MoveCursor2LineEnd::??rA                  3000D284   LOCAL
  _MoveCursor2LinePos1                       3000D2DC   LOCAL
  _MoveCursor2LinePos1::??rA                 3000D2DC   LOCAL
  _IsOverwriteAtThisChar                     3000D330   LOCAL
  _IsOverwriteAtThisChar::??rA               3000D330   LOCAL
  _GetCursorSizeX                            3000D46C   LOCAL
  _GetCursorSizeX::??rA                      3000D46C   LOCAL
  _IncrementBuffer                           3000D4D8   LOCAL
  _IncrementBuffer::??rA                     3000D4D8   LOCAL
  _IsSpaceInBuffer                           3000D560   LOCAL
  _IsSpaceInBuffer::??rA                     3000D560   LOCAL
  _IsCharsAvailable                          3000D5E8   LOCAL
  _IsCharsAvailable::??rA                    3000D5E8   LOCAL
  _DeleteChar                                3000D654   LOCAL
  _DeleteChar::??rA                          3000D654   LOCAL
  _InsertChar                                3000D7AC   LOCAL
  _InsertChar::??rA                          3000D7AC   LOCAL
  _MULTIEDIT_Paint                           3000D884   LOCAL
  _MULTIEDIT_Paint::??rA                     3000D884   LOCAL
  _OnTouch                                   3000DB8C   LOCAL
  _OnTouch::??rA                             3000DB8C   LOCAL
  _AddKey                                    3000DC70   LOCAL
  _AddKey::??rA                              3000DC70   LOCAL
  _MULTIEDIT_Callback                        3000DFEC   LOCAL
  _MULTIEDIT_Callback::??rA                  3000DFEC   LOCAL
MULTIEDIT_Create ( F:\S2Prog\TXU\TargetDebug\Lib\GUI_Lib.r79 )
  MULTIEDIT_Create                           3000E618 
  MULTIEDIT_Create::??rA                     3000E618 
RADIO_CreateIndirect ( F:\S2Prog\TXU\TargetDebug\Lib\GUI_Lib.r79 )
  RADIO_CreateIndirect                       3000E690 
  RADIO_CreateIndirect::??rA                 3000E690 
RADIO_Image ( F:\S2Prog\TXU\TargetDebug\Lib\GUI_Lib.r79 )
  RADIO__abmRadio                            30072DB0 
  RADIO__bmCheck                             30072DD8 
  _aColorDisabled                            30072D64   LOCAL
  _aColorEnabled                             30072D74   LOCAL
  _ColorsCheck                               30072D84   LOCAL
  _PalRadioDisabled                          30072D8C   LOCAL
  _PalRadioEnabled                           30072D98   LOCAL
  _PalCheck                                  30072DA4   LOCAL
  _acRadio                                   30078C94   LOCAL
  _acCheck                                   30078CB8   LOCAL
Radio ( F:\S2Prog\TXU\TargetDebug\Lib\GUI_Lib.r79 )
  RADIO__apDefaultImage                      30A05904 
  RADIO__pDefaultImageCheck                  30A0590C 
  RADIO_CreateEx                             3000EAB8 
  RADIO_CreateEx::??rA                       3000EAB8 
  RADIO_AddValue                             3000EC14 
  RADIO_AddValue::??rA                       3000EC14 
  RADIO_Dec                                  3000EC74 
  RADIO_Dec::??rA                            3000EC74 
  RADIO_Inc                                  3000EC98 
  RADIO_Inc::??rA                            3000EC98 
  RADIO_SetValue                             3000ECBC 
  RADIO_SetValue::??rA                       3000ECBC 
  RADIO_GetValue                             3000ED74 
  RADIO_GetValue::??rA                       3000ED74 
  _Paint                                     3000E744   LOCAL
  _Paint::??rA                               3000E744   LOCAL
  _OnTouch                                   3000E874   LOCAL
  _OnTouch::??rA                             3000E874   LOCAL
  _OnKey                                     3000E98C   LOCAL
  _OnKey::??rA                               3000E98C   LOCAL
  _RADIO_Callback                            3000EA04   LOCAL
  _RADIO_Callback::??rA                      3000EA04   LOCAL
SCROLLBAR_Create ( F:\S2Prog\TXU\TargetDebug\Lib\GUI_Lib.r79 )
  SCROLLBAR_Create                           3000EDC8 
  SCROLLBAR_Create::??rA                     3000EDC8 
  SCROLLBAR_CreateAttached                   3000EE30 
  SCROLLBAR_CreateAttached::??rA             3000EE30 
SCROLLBAR_Defaults ( F:\S2Prog\TXU\TargetDebug\Lib\GUI_Lib.r79 )
  SCROLLBAR_SetDefaultWidth                  3000EED0 
  SCROLLBAR_SetDefaultWidth::??rA            3000EED0 
SCROLLBAR_GetValue ( F:\S2Prog\TXU\TargetDebug\Lib\GUI_Lib.r79 )
  SCROLLBAR_GetValue                         3000EEFC 
  SCROLLBAR_GetValue::??rA                   3000EEFC 
Scrollbar ( F:\S2Prog\TXU\TargetDebug\Lib\GUI_Lib.r79 )
  SCROLLBAR__aDefaultBkColor                 30A05910 
  SCROLLBAR__aDefaultColor                   30A05918 
  SCROLLBAR__DefaultWidth                    30A05B92 
  SCROLLBAR__InvalidatePartner               3000F810 
  SCROLLBAR__InvalidatePartner::??rA
                                             3000F810 
  SCROLLBAR_CreateEx                         3000F978 
  SCROLLBAR_CreateEx::??rA                   3000F978 
  SCROLLBAR_Dec                              3000FBF4 
  SCROLLBAR_Dec::??rA                        3000FBF4 
  SCROLLBAR_Inc                              3000FC18 
  SCROLLBAR_Inc::??rA                        3000FC18 
  SCROLLBAR_AddValue                         3000FC3C 
  SCROLLBAR_AddValue::??rA                   3000FC3C 
  SCROLLBAR_SetValue                         3000FC94 
  SCROLLBAR_SetValue::??rA                   3000FC94 
  SCROLLBAR_SetNumItems                      3000FD3C 
  SCROLLBAR_SetNumItems::??rA                3000FD3C 
  SCROLLBAR_SetPageSize                      3000FD9C 
  SCROLLBAR_SetPageSize::??rA                3000FD9C 
  _GetArrowSize                              3000EF48   LOCAL
  _GetArrowSize::??rA                        3000EF48   LOCAL
  _WIDGET__RECT2VRECT                        3000EF9C   LOCAL
  _WIDGET__RECT2VRECT::??rA                  3000EF9C   LOCAL
  _CalcPositions                             3000F02C   LOCAL
  _CalcPositions::??rA                       3000F02C   LOCAL
  _DrawTriangle                              3000F298   LOCAL
  _DrawTriangle::??rA                        3000F298   LOCAL
  _Paint                                     3000F310   LOCAL
  _Paint::??rA                               3000F310   LOCAL
  _OnTouch                                   3000F59C   LOCAL
  _OnTouch::??rA                             3000F59C   LOCAL
  _OnKey                                     3000F6F0   LOCAL
  _OnKey::??rA                               3000F6F0   LOCAL
  _OnSetScrollState                          3000F768   LOCAL
  _OnSetScrollState::??rA                    3000F768   LOCAL
  _SCROLLBAR_Callback                        3000F85C   LOCAL
  _SCROLLBAR_Callback::??rA                  3000F85C   LOCAL
TEXT_Create ( F:\S2Prog\TXU\TargetDebug\Lib\GUI_Lib.r79 )
  TEXT_CreateAsChild                         3000FDFC 
  TEXT_CreateAsChild::??rA                   3000FDFC 
TEXT_CreateIndirect ( F:\S2Prog\TXU\TargetDebug\Lib\GUI_Lib.r79 )
  TEXT_CreateIndirect                        3000FE70 
  TEXT_CreateIndirect::??rA                  3000FE70 
TEXT_SetFont ( F:\S2Prog\TXU\TargetDebug\Lib\GUI_Lib.r79 )
  TEXT_SetFont                               3000FF1C 
  TEXT_SetFont::??rA                         3000FF1C 
TEXT_SetText ( F:\S2Prog\TXU\TargetDebug\Lib\GUI_Lib.r79 )
  TEXT_SetText                               3000FF70 
  TEXT_SetText::??rA                         3000FF70 
TEXT_SetTextColor ( F:\S2Prog\TXU\TargetDebug\Lib\GUI_Lib.r79 )
  TEXT_SetTextColor                          3000FFD4 
  TEXT_SetTextColor::??rA                    3000FFD4 
Text ( F:\S2Prog\TXU\TargetDebug\Lib\GUI_Lib.r79 )
  TEXT_CreateEx                              30010148 
  TEXT_CreateEx::??rA                        30010148 
  _pDefaultFont                              30A05920   LOCAL
  _DefaultTextColor                          30A6B9A0   LOCAL
  _FreeAttached                              30010028   LOCAL
  _FreeAttached::??rA                        30010028   LOCAL
  _Paint                                     30010040   LOCAL
  _Paint::??rA                               30010040   LOCAL
  _Delete                                    300100AC   LOCAL
  _Delete::??rA                              300100AC   LOCAL
  _TEXT_Callback                             300100C4   LOCAL
  _TEXT_Callback::??rA                       300100C4   LOCAL
WM ( F:\S2Prog\TXU\TargetDebug\Lib\GUI_Lib.r79 )
  WM__NumWindows                             30A6BA9C 
  WM__NumInvalidWindows                      30A6BA9E 
  WM__FirstWin                               30A6BAA0 
  WM__pFirstCriticalHandle                   30A6B9A4 
  WM__ahDesktopWin                           30A6BAA2 
  WM__aBkColor                               30A6B9A8 
  WM_IsActive                                30A6BACC 
  WM__CreateFlags                            30A6BAA4 
  WM__hCapture                               30A6BAA6 
  WM__hWinFocus                              30A6BAA8 
  WM__CaptureReleaseAuto                     30A6BACD 
  WM_pfPollPID                               30A6B9AC 
  WM__TransWindowCnt                         30A6B9B0 
  WM__hATransWindow                          30A6BAAA 
  WM__ActivateClipRect                       30010590 
  WM__ActivateClipRect::??rA                 30010590 
  WM__AttachWindow                           30010630 
  WM__AttachWindow::??rA                     30010630 
  WM__DetachWindow                           300107A0 
  WM__DetachWindow::??rA                     300107A0 
  WM__Client2Screen                          3001091C 
  WM__Client2Screen::??rA                    3001091C 
  WM__IsWindow                               30010950 
  WM__IsWindow::??rA                         30010950 
  WM__InvalidateAreaBelow                    300109C8 
  WM__InvalidateAreaBelow::??rA              300109C8 
  WM__RemoveFromLinList                      300109E4 
  WM__RemoveFromLinList::??rA                300109E4 
  WM__RectIsNZ                               30010AD4 
  WM__RectIsNZ::??rA                         30010AD4 
  WM_SendMessage                             30010F54 
  WM_SendMessage::??rA                       30010F54 
  WM__SendMsgNoData                          30010FD0 
  WM__SendMsgNoData::??rA                    30010FD0 
  WM__GetClientRectWin                       30011010 
  WM__GetClientRectWin::??rA                 30011010 
  WM_InvalidateRect                          30011068 
  WM_InvalidateRect::??rA                    30011068 
  WM_InvalidateWindow                        30011198 
  WM_InvalidateWindow::??rA                  30011198 
  WM_InvalidateArea                          300111BC 
  WM_InvalidateArea::??rA                    300111BC 
  WM_CreateWindowAsChild                     30011224 
  WM_CreateWindowAsChild::??rA               30011224 
  WM_CreateWindow                            300114A8 
  WM_CreateWindow::??rA                      300114A8 
  WM_DeleteWindow                            3001150C 
  WM_DeleteWindow::??rA                      3001150C 
  WM_SelectWindow                            30011694 
  WM_SelectWindow::??rA                      30011694 
  WM_GetActiveWindow                         30011730 
  WM_GetActiveWindow::??rA                   30011730 
  WM__GetOrgX                                30011740 
  WM__GetOrgX::??rA                          30011740 
  WM__GetOrgY                                30011750 
  WM__GetOrgY::??rA                          30011750 
  WM__GetNextIVR                             30011A78 
  WM__GetNextIVR::??rA                       30011A78 
  WM__InitIVRSearch                          30011B70 
  WM__InitIVRSearch::??rA                    30011B70 
  WM_SetDefault                              30011D8C 
  WM_SetDefault::??rA                        30011D8C 
  WM__PaintWinAndOverlays                    300120C0 
  WM__PaintWinAndOverlays::??rA              300120C0 
  WM_Exec1                                   300123E4 
  WM_Exec1::??rA                             300123E4 
  WM_Exec                                    3001249C 
  WM_Exec::??rA                              3001249C 
  WM_Activate                                30012550 
  WM_Activate::??rA                          30012550 
  WM_Deactivate                              30012564 
  WM_Deactivate::??rA                        30012564 
  WM_Init                                    3001258C 
  WM_Init::??rA                              3001258C 
  WM_DefaultProc                             30012684 
  WM_DefaultProc::??rA                       30012684 
  NextDrawWin                                30A6BAAC   LOCAL
  IsInCallback                               30A6BACE   LOCAL
  ClipContext                                30A6B9B4   LOCAL
  _IsInited                                  30A6BACF   LOCAL
  _CheckCriticalHandles                      3001029C   LOCAL
  _CheckCriticalHandles::??rA                3001029C   LOCAL
  _ClipAtParentBorders                       300102EC   LOCAL
  _ClipAtParentBorders::??rA                 300102EC   LOCAL
  _Invalidate1Abs                            300103A8   LOCAL
  _Invalidate1Abs::??rA                      300103A8   LOCAL
  ResetNextDrawWin                           300104AC   LOCAL
  ResetNextDrawWin::??rA                     300104AC   LOCAL
  _GethDrawWin                               300104C0   LOCAL
  _GethDrawWin::??rA                         300104C0   LOCAL
  _SetClipRectUserIntersect                  30010500   LOCAL
  _SetClipRectUserIntersect::??rA            30010500   LOCAL
  _DeleteAllChildren                         300108C8   LOCAL
  _DeleteAllChildren::??rA                   300108C8   LOCAL
  _AddToLinList                              30010A74   LOCAL
  _AddToLinList::??rA                        30010A74   LOCAL
  _Findy1                                    30010B30   LOCAL
  _Findy1::??rA                              30010B30   LOCAL
  _Findx0                                    30010CD4   LOCAL
  _Findx0::??rA                              30010CD4   LOCAL
  _Findx1                                    30010E20   LOCAL
  _Findx1::??rA                              30010E20   LOCAL
  WM__GetInvalidRectAbs                      30011040   LOCAL
  WM__GetInvalidRectAbs::??rA                30011040   LOCAL
  FindNext_IVR                               30011760   LOCAL
  FindNext_IVR::??rA                         30011760   LOCAL
  WM__GetNextIVR::_CursorHidden              30A6BAD0   LOCAL
  _Paint1                                    30011DAC   LOCAL
  _Paint1::??rA                              30011DAC   LOCAL
  _Paint1Trans                               30011E3C   LOCAL
  _Paint1Trans::??rA                         30011E3C   LOCAL
  _PaintTransChildren                        30011F10   LOCAL
  _PaintTransChildren::??rA                  30011F10   LOCAL
  _PaintTransTopSiblings                     30012008   LOCAL
  _PaintTransTopSiblings::??rA               30012008   LOCAL
  _cbPaintMemDev                             3001213C   LOCAL
  _cbPaintMemDev::??rA                       3001213C   LOCAL
  _Paint                                     300121EC   LOCAL
  _Paint::??rA                               300121EC   LOCAL
  _DrawNext                                  3001232C   LOCAL
  _DrawNext::??rA                            3001232C   LOCAL
  cbBackWin                                  300124C4   LOCAL
  cbBackWin::??rA                            300124C4   LOCAL
WMMemDev ( F:\S2Prog\TXU\TargetDebug\Lib\GUI_Lib.r79 )
  WM_EnableMemdev                            30012754 
  WM_EnableMemdev::??rA                      30012754 
WMTouch ( F:\S2Prog\TXU\TargetDebug\Lib\GUI_Lib.r79 )
  WM__CHWinModal                             30A6B9CC 
  WM__CHWinLast                              30A6B9D4 
  WM__IsInModalArea                          3001279C 
  WM__IsInModalArea::??rA                    3001279C 
  WM__SendPIDMessage                         30012810 
  WM__SendPIDMessage::??rA                   30012810 
  WM_HandlePID                               3001290C 
  WM_HandlePID::??rA                         3001290C 
  _Screen2Win                                300128C8   LOCAL
  _Screen2Win::??rA                          300128C8   LOCAL
  WM_HandlePID::StateLast                    30A6B9DC   LOCAL
WM_BringToBottom ( F:\S2Prog\TXU\TargetDebug\Lib\GUI_Lib.r79 )
  WM_BringToBottom                           30012BF8 
  WM_BringToBottom::??rA                     30012BF8 
WM_BringToTop ( F:\S2Prog\TXU\TargetDebug\Lib\GUI_Lib.r79 )
  WM_BringToTop                              30012F64 
  WM_BringToTop::??rA                        30012F64 
  _InvalidateOne                             30012CB0   LOCAL
  _InvalidateOne::??rA                       30012CB0   LOCAL
  _InvalidateWindowAndDescs                  30012CD4   LOCAL
  _InvalidateWindowAndDescs::??rA            30012CD4   LOCAL
  _BringToTop                                30012D10   LOCAL
  _BringToTop::??rA                          30012D10   LOCAL
WM_CheckScrollPos ( F:\S2Prog\TXU\TargetDebug\Lib\GUI_Lib.r79 )
  WM_CheckScrollBounds                       30012F8C 
  WM_CheckScrollBounds::??rA                 30012F8C 
  WM_CheckScrollPos                          30012FD0 
  WM_CheckScrollPos::??rA                    30012FD0 
  WM_SetScrollValue                          30013044 
  WM_SetScrollValue::??rA                    30013044 
WM_CriticalHandle ( F:\S2Prog\TXU\TargetDebug\Lib\GUI_Lib.r79 )
  WM__AddCriticalHandle                      30013074 
  WM__AddCriticalHandle::??rA                30013074 
  WM__RemoveCriticalHandle                   30013090 
  WM__RemoveCriticalHandle::??rA             30013090 
WM_EnableWindow ( F:\S2Prog\TXU\TargetDebug\Lib\GUI_Lib.r79 )
  WM_SetEnableState                          30013118 
  WM_SetEnableState::??rA                    30013118 
  WM_EnableWindow                            300131B8 
  WM_EnableWindow::??rA                      300131B8 
  WM_DisableWindow                           300131DC 
  WM_DisableWindow::??rA                     300131DC 
WM_ForEachDesc ( F:\S2Prog\TXU\TargetDebug\Lib\GUI_Lib.r79 )
  WM_ForEachDesc                             30013200 
  WM_ForEachDesc::??rA                       30013200 
WM_GetBkColor ( F:\S2Prog\TXU\TargetDebug\Lib\GUI_Lib.r79 )
WM_GetClientRect ( F:\S2Prog\TXU\TargetDebug\Lib\GUI_Lib.r79 )
  WM_GetClientRectEx                         30013298 
  WM_GetClientRectEx::??rA                   30013298 
  WM_GetClientRect                           300132EC 
  WM_GetClientRect::??rA                     300132EC 
WM_GetClientWindow ( F:\S2Prog\TXU\TargetDebug\Lib\GUI_Lib.r79 )
  WM_GetClientWindow                         30013348 
  WM_GetClientWindow::??rA                   30013348 
WM_GetDesktopWindow ( F:\S2Prog\TXU\TargetDebug\Lib\GUI_Lib.r79 )
  WM_GetDesktopWindow                        30013390 
  WM_GetDesktopWindow::??rA                  30013390 
WM_GetDialogItem ( F:\S2Prog\TXU\TargetDebug\Lib\GUI_Lib.r79 )
  WM_GetDialogItem                           30013464 
  WM_GetDialogItem::??rA                     30013464 
  _GetDialogItem                             300133A0   LOCAL
  _GetDialogItem::??rA                       300133A0   LOCAL
WM_GetFirstChild ( F:\S2Prog\TXU\TargetDebug\Lib\GUI_Lib.r79 )
  WM_GetFirstChild                           300134BC 
  WM_GetFirstChild::??rA                     300134BC 
WM_GetFlags ( F:\S2Prog\TXU\TargetDebug\Lib\GUI_Lib.r79 )
  WM_GetFlags                                300134F8 
  WM_GetFlags::??rA                          300134F8 
WM_GetId ( F:\S2Prog\TXU\TargetDebug\Lib\GUI_Lib.r79 )
  WM_GetId                                   3001354C 
  WM_GetId::??rA                             3001354C 
WM_GetInsideRect ( F:\S2Prog\TXU\TargetDebug\Lib\GUI_Lib.r79 )
  WM_GetInsideRectEx                         30013584 
  WM_GetInsideRectEx::??rA                   30013584 
  WM_GetInsideRect                           300135C0 
  WM_GetInsideRect::??rA                     300135C0 
WM_GetInsideRectExScrollbar ( F:\S2Prog\TXU\TargetDebug\Lib\GUI_Lib.r79 )
  WM_GetInsideRectExScrollbar                300135E4 
  WM_GetInsideRectExScrollbar::??rA
                                             300135E4 
WM_GetParent ( F:\S2Prog\TXU\TargetDebug\Lib\GUI_Lib.r79 )
  WM_GetParent                               30013794 
  WM_GetParent::??rA                         30013794 
WM_GetScrollPartner ( F:\S2Prog\TXU\TargetDebug\Lib\GUI_Lib.r79 )
  WM_GetScrollPartner                        300137E0 
  WM_GetScrollPartner::??rA                  300137E0 
WM_GetScrollState ( F:\S2Prog\TXU\TargetDebug\Lib\GUI_Lib.r79 )
  WM_GetScrollState                          30013848 
  WM_GetScrollState::??rA                    30013848 
WM_GetScrollbar ( F:\S2Prog\TXU\TargetDebug\Lib\GUI_Lib.r79 )
  WM_GetScrollbarH                           30013884 
  WM_GetScrollbarH::??rA                     30013884 
  WM_GetScrollbarV                           300138B0 
  WM_GetScrollbarV::??rA                     300138B0 
WM_GetWindowRect ( F:\S2Prog\TXU\TargetDebug\Lib\GUI_Lib.r79 )
  WM_GetWindowRectEx                         300138DC 
  WM_GetWindowRectEx::??rA                   300138DC 
WM_GetWindowSize ( F:\S2Prog\TXU\TargetDebug\Lib\GUI_Lib.r79 )
  WM__GetWindowSizeX                         30013980 
  WM__GetWindowSizeX::??rA                   30013980 
  WM__GetWindowSizeY                         300139A4 
  WM__GetWindowSizeY::??rA                   300139A4 
  WM_GetWindowSizeX                          300139C8 
  WM_GetWindowSizeX::??rA                    300139C8 
  WM_GetWindowSizeY                          30013A18 
  WM_GetWindowSizeY::??rA                    30013A18 
  _GetDefaultWin                             3001394C   LOCAL
  _GetDefaultWin::??rA                       3001394C   LOCAL
WM_HasCaptured ( F:\S2Prog\TXU\TargetDebug\Lib\GUI_Lib.r79 )
  WM_HasCaptured                             30013A68 
  WM_HasCaptured::??rA                       30013A68 
WM_HasFocus ( F:\S2Prog\TXU\TargetDebug\Lib\GUI_Lib.r79 )
  WM_HasFocus                                30013AA0 
  WM_HasFocus::??rA                          30013AA0 
WM_Hide ( F:\S2Prog\TXU\TargetDebug\Lib\GUI_Lib.r79 )
  WM_HideWindow                              30013AD8 
  WM_HideWindow::??rA                        30013AD8 
WM_IsFocussable ( F:\S2Prog\TXU\TargetDebug\Lib\GUI_Lib.r79 )
  WM_IsFocussable                            30013B58 
  WM_IsFocussable::??rA                      30013B58 
WM_IsWindow ( F:\S2Prog\TXU\TargetDebug\Lib\GUI_Lib.r79 )
  WM_IsWindow                                30013BB4 
  WM_IsWindow::??rA                          30013BB4 
WM_Move ( F:\S2Prog\TXU\TargetDebug\Lib\GUI_Lib.r79 )
  WM__MoveWindow                             30013C44 
  WM__MoveWindow::??rA                       30013C44 
  WM__MoveTo                                 30013D00 
  WM__MoveTo::??rA                           30013D00 
  WM_MoveWindow                              30013D64 
  WM_MoveWindow::??rA                        30013D64 
  WM_MoveTo                                  30013D9C 
  WM_MoveTo::??rA                            30013D9C 
  _MoveAllChildren                           30013BE4   LOCAL
  _MoveAllChildren::??rA                     30013BE4   LOCAL
WM_MoveChildTo ( F:\S2Prog\TXU\TargetDebug\Lib\GUI_Lib.r79 )
  WM_MoveChildTo                             30013DD4 
  WM_MoveChildTo::??rA                       30013DD4 
WM_NotifyParent ( F:\S2Prog\TXU\TargetDebug\Lib\GUI_Lib.r79 )
  WM_NotifyParent                            30013E88 
  WM_NotifyParent::??rA                      30013E88 
WM_OnKey ( F:\S2Prog\TXU\TargetDebug\Lib\GUI_Lib.r79 )
  WM_OnKey                                   30013EC4 
  WM_OnKey::??rA                             30013EC4 
WM_ResizeWindow ( F:\S2Prog\TXU\TargetDebug\Lib\GUI_Lib.r79 )
  WM_ResizeWindow                            30013F30 
  WM_ResizeWindow::??rA                      30013F30 
WM_Screen2Win ( F:\S2Prog\TXU\TargetDebug\Lib\GUI_Lib.r79 )
  WM__IsInWindow                             30014228 
  WM__IsInWindow::??rA                       30014228 
  WM_Screen2hWin                             3001429C 
  WM_Screen2hWin::??rA                       3001429C 
  _Screen2hWin                               30014134   LOCAL
  _Screen2hWin::??rA                         30014134   LOCAL
WM_SendMessageNoPara ( F:\S2Prog\TXU\TargetDebug\Lib\GUI_Lib.r79 )
  WM_SendMessageNoPara                       300142E4 
  WM_SendMessageNoPara::??rA                 300142E4 
WM_SendToParent ( F:\S2Prog\TXU\TargetDebug\Lib\GUI_Lib.r79 )
  WM_SendToParent                            30014314 
  WM_SendToParent::??rA                      30014314 
WM_SetCallback ( F:\S2Prog\TXU\TargetDebug\Lib\GUI_Lib.r79 )
  WM_SetCallback                             30014374 
  WM_SetCallback::??rA                       30014374 
WM_SetCapture ( F:\S2Prog\TXU\TargetDebug\Lib\GUI_Lib.r79 )
  WM_SetCapture                              30014414 
  WM_SetCapture::??rA                        30014414 
  WM_ReleaseCapture                          30014474 
  WM_ReleaseCapture::??rA                    30014474 
  WM__ReleaseCapture                         300143C8   LOCAL
  WM__ReleaseCapture::??rA                   300143C8   LOCAL
WM_SetCaptureMove ( F:\S2Prog\TXU\TargetDebug\Lib\GUI_Lib.r79 )
  WM_SetCaptureMove                          3001448C 
  WM_SetCaptureMove::??rA                    3001448C 
  WM__CapturePoint                           30A6B9E8   LOCAL
WM_SetCreateFlags ( F:\S2Prog\TXU\TargetDebug\Lib\GUI_Lib.r79 )
  WM_SetCreateFlags                          300145D4 
  WM_SetCreateFlags::??rA                    300145D4 
WM_SetFocus ( F:\S2Prog\TXU\TargetDebug\Lib\GUI_Lib.r79 )
  WM_SetFocus                                300145FC 
  WM_SetFocus::??rA                          300145FC 
WM_SetFocusOnNextChild ( F:\S2Prog\TXU\TargetDebug\Lib\GUI_Lib.r79 )
  WM_SetFocusOnNextChild                     30014914 
  WM_SetFocusOnNextChild::??rA               30014914 
  _GetNextChild                              30014790   LOCAL
  _GetNextChild::??rA                        30014790   LOCAL
  _SetFocusOnNextChild                       30014838   LOCAL
  _SetFocusOnNextChild::??rA                 30014838   LOCAL
WM_SetScrollState ( F:\S2Prog\TXU\TargetDebug\Lib\GUI_Lib.r79 )
  WM_SetScrollState                          30014964 
  WM_SetScrollState::??rA                    30014964 
WM_SetScrollbar ( F:\S2Prog\TXU\TargetDebug\Lib\GUI_Lib.r79 )
  WM__SetScrollbarV                          30014A68 
  WM__SetScrollbarV::??rA                    30014A68 
  WM__SetScrollbarH                          30014A98 
  WM__SetScrollbarH::??rA                    30014A98 
  WM_SetScrollbarH                           30014AC8 
  WM_SetScrollbarH::??rA                     30014AC8 
  WM_SetScrollbarV                           30014B00 
  WM_SetScrollbarV::??rA                     30014B00 
  _SetScrollbar                              300149B8   LOCAL
  _SetScrollbar::??rA                        300149B8   LOCAL
WM_SetSize ( F:\S2Prog\TXU\TargetDebug\Lib\GUI_Lib.r79 )
  WM_SetSize                                 30014B38 
  WM_SetSize::??rA                           30014B38 
WM_SetUserClipRect ( F:\S2Prog\TXU\TargetDebug\Lib\GUI_Lib.r79 )
  WM_SetUserClipRect                         30014BE4 
  WM_SetUserClipRect::??rA                   30014BE4 
WM_Show ( F:\S2Prog\TXU\TargetDebug\Lib\GUI_Lib.r79 )
  WM_InvalidateWindowDescs                   30014C1C 
  WM_InvalidateWindowDescs::??rA             30014C1C 
  WM_ShowWindow                              30014CA0 
  WM_ShowWindow::??rA                        30014CA0 
WM_UserData ( F:\S2Prog\TXU\TargetDebug\Lib\GUI_Lib.r79 )
  WM_GetUserData                             30014D48 
  WM_GetUserData::??rA                       30014D48 
  WM_SetUserData                             30014DC8 
  WM_SetUserData::??rA                       30014DC8 
  Min                                        30014D08   LOCAL
  Min::??rA                                  30014D08   LOCAL
  _CalcNumBytes                              30014D18   LOCAL
  _CalcNumBytes::??rA                        30014D18   LOCAL
WM__GetFirstSibling ( F:\S2Prog\TXU\TargetDebug\Lib\GUI_Lib.r79 )
  WM__GetFirstSibling                        30014E48 
  WM__GetFirstSibling::??rA                  30014E48 
WM__GetFocussedChild ( F:\S2Prog\TXU\TargetDebug\Lib\GUI_Lib.r79 )
  WM__GetFocussedChild                       30014EA4 
  WM__GetFocussedChild::??rA                 30014EA4 
WM__GetPrevSibling ( F:\S2Prog\TXU\TargetDebug\Lib\GUI_Lib.r79 )
  WM__GetPrevSibling                         30014EF8 
  WM__GetPrevSibling::??rA                   30014EF8 
WM__IsAncestor ( F:\S2Prog\TXU\TargetDebug\Lib\GUI_Lib.r79 )
  WM__IsAncestor                             30014FA4 
  WM__IsAncestor::??rA                       30014FA4 
  WM__IsAncestorOrSelf                       30015038 
  WM__IsAncestorOrSelf::??rA                 30015038 
WM__IsChild ( F:\S2Prog\TXU\TargetDebug\Lib\GUI_Lib.r79 )
  WM__IsChild                                30015090 
  WM__IsChild::??rA                          30015090 
WM__IsEnabled ( F:\S2Prog\TXU\TargetDebug\Lib\GUI_Lib.r79 )
  WM__IsEnabled                              300150FC 
  WM__IsEnabled::??rA                        300150FC 
WM__SendMessage ( F:\S2Prog\TXU\TargetDebug\Lib\GUI_Lib.r79 )
  WM__SendMessage                            30015138 
  WM__SendMessage::??rA                      30015138 
WM__SendMessageNoPara ( F:\S2Prog\TXU\TargetDebug\Lib\GUI_Lib.r79 )
  WM__SendMessageNoPara                      3001518C 
  WM__SendMessageNoPara::??rA                3001518C 
WM__UpdateChildPositions ( F:\S2Prog\TXU\TargetDebug\Lib\GUI_Lib.r79 )
  WM__UpdateChildPositions                   30015204 
  WM__UpdateChildPositions::??rA             30015204 
Widget ( F:\S2Prog\TXU\TargetDebug\Lib\GUI_Lib.r79 )
  _pEffectDefault                            30A05924 
  WIDGET__RotateRect90                       3001568C 
  WIDGET__RotateRect90::??rA                 3001568C 
  WIDGET__GetClientRect                      30015708 
  WIDGET__GetClientRect::??rA                30015708 
  WIDGET__GetInsideRect                      30015768 
  WIDGET__GetInsideRect::??rA                30015768 
  WIDGET__GetXSize                           3001579C 
  WIDGET__GetXSize::??rA                     3001579C 
  WIDGET__GetYSize                           300157FC 
  WIDGET__GetYSize::??rA                     300157FC 
  WIDGET_SetState                            3001585C 
  WIDGET_SetState::??rA                      3001585C 
  WIDGET_OrState                             300158B8 
  WIDGET_OrState::??rA                       300158B8 
  WIDGET_AndState                            30015930 
  WIDGET_AndState::??rA                      30015930 
  WIDGET__Init                               300159B8 
  WIDGET__Init::??rA                         300159B8 
  WIDGET_HandleActive                        300159D8 
  WIDGET_HandleActive::??rA                  300159D8 
  WIDGET__SetScrollState                     30015BD4 
  WIDGET__SetScrollState::??rA               30015BD4 
  WIDGET__DrawFocusRect                      30015C44 
  WIDGET__DrawFocusRect::??rA                30015C44 
  WIDGET__FillRectEx                         30015C98 
  WIDGET__FillRectEx::??rA                   30015C98 
  WIDGET__EFFECT_DrawDownRect                30015CE4 
  WIDGET__EFFECT_DrawDownRect::??rA
                                             30015CE4 
  WIDGET__EFFECT_DrawDown                    30015D68 
  WIDGET__EFFECT_DrawDown::??rA              30015D68 
  WIDGET__EFFECT_DrawUpRect                  30015D84 
  WIDGET__EFFECT_DrawUpRect::??rA            30015D84 
  WIDGET_GetDefaultEffect                    30015DF0 
  WIDGET_GetDefaultEffect::??rA              30015DF0 
  _UpdateChildPostions                       30015524   LOCAL
  _UpdateChildPostions::??rA                 30015524   LOCAL
  _EffectRequiresRedraw                      3001557C   LOCAL
  _EffectRequiresRedraw::??rA                3001557C   LOCAL
Widget_3D ( F:\S2Prog\TXU\TargetDebug\Lib\GUI_Lib.r79 )
  WIDGET_EFFECT_3D_DrawUp                    30015F5C 
  WIDGET_EFFECT_3D_DrawUp::??rA              30015F5C 
  WIDGET_Effect_3D                           30072DF8 
  _WIDGET_EFFECT_3D_DrawUpRect               30015E00   LOCAL
  _WIDGET_EFFECT_3D_DrawUpRect::??rA
                                             30015E00   LOCAL
  _WIDGET_EFFECT_3D_DrawDownRect             30015F80   LOCAL
  _WIDGET_EFFECT_3D_DrawDownRect::??rA
                                             30015F80   LOCAL
  _WIDGET_EFFECT_3D_DrawDown                 30016168   LOCAL
  _WIDGET_EFFECT_3D_DrawDown::??rA           30016168   LOCAL
  _WIDGET_EFFECT_3D_GetRect                  3001618C   LOCAL
  _WIDGET_EFFECT_3D_GetRect::??rA            3001618C   LOCAL
button ( F:\S2Prog\TXU\TargetDebug\Lib\GUI_Lib.r79 )
  BUTTON_Callback                            30016544 
  BUTTON_Callback::??rA                      30016544 
  BUTTON_CreateEx                            30016608 
  BUTTON_CreateEx::??rA                      30016608 
  BUTTON_SetText                             30016704 
  BUTTON_SetText::??rA                       30016704 
  BUTTON_SetFont                             30016768 
  BUTTON_SetFont::??rA                       30016768 
  BUTTON_SetBkColor                          300167BC 
  BUTTON_SetBkColor::??rA                    300167BC 
  BUTTON_SetTextColor                        30016824 
  BUTTON_SetTextColor::??rA                  30016824 
  _Paint                                     300161B4   LOCAL
  _Paint::??rA                               300161B4   LOCAL
  _Delete                                    300163C4   LOCAL
  _Delete::??rA                              300163C4   LOCAL
  _ButtonPressed                             300163EC   LOCAL
  _ButtonPressed::??rA                       300163EC   LOCAL
  _ButtonReleased                            30016438   LOCAL
  _ButtonReleased::??rA                      30016438   LOCAL
  _OnTouch                                   300164A0   LOCAL
  _OnTouch::??rA                             300164A0   LOCAL
edit ( F:\S2Prog\TXU\TargetDebug\Lib\GUI_Lib.r79 )
  EDIT_SetCursorAtPixel                      30016C20 
  EDIT_SetCursorAtPixel::??rA                30016C20 
  EDIT_CreateEx                              30016F3C 
  EDIT_CreateEx::??rA                        30016F3C 
  EDIT_AddKey                                300170A8 
  EDIT_AddKey::??rA                          300170A8 
  EDIT_SetFont                               300174E8 
  EDIT_SetFont::??rA                         300174E8 
  EDIT_SetText                               30017544 
  EDIT_SetText::??rA                         30017544 
  EDIT_GetText                               3001764C 
  EDIT_GetText::??rA                         3001764C 
  EDIT_SetTextAlign                          30017708 
  EDIT_SetTextAlign::??rA                    30017708 
  _DefaultAlign                              30A05928   LOCAL
  _DefaultBorder                             30A0592C   LOCAL
  _pDefaultFont                              30A05930   LOCAL
  _Paint                                     3001688C   LOCAL
  _Paint::??rA                               3001688C   LOCAL
  _Delete                                    30016C08   LOCAL
  _Delete::??rA                              30016C08   LOCAL
  _OnTouch                                   30016DD4   LOCAL
  _OnTouch::??rA                             30016DD4   LOCAL
  EDIT__Callback                             30016E20   LOCAL
  EDIT__Callback::??rA                       30016E20   LOCAL
framewin ( F:\S2Prog\TXU\TargetDebug\Lib\GUI_Lib.r79 )
  FRAMEWIN__pDefaultFont                     30A05934 
  FRAMEWIN__aDefaultBarColor                 30A05938 
  FRAMEWIN__aDefaultTextColor                30A05940 
  FRAMEWIN__DefaultClientColor               30A05948 
  FRAMEWIN__DefaultTitleHeight               30A6BAAE 
  FRAMEWIN__DefaultBorderSize                30A05B94 
  FRAMEWIN__DefaultIBorderSize               30A05B96 
  FRAMEWIN__CalcTitleHeight                  30017F88 
  FRAMEWIN__CalcTitleHeight::??rA            30017F88 
  FRAMEWIN__CalcPositions                    30017FD8 
  FRAMEWIN__CalcPositions::??rA              30017FD8 
  FRAMEWIN__UpdatePositions                  300181D0 
  FRAMEWIN__UpdatePositions::??rA            300181D0 
  FRAMEWIN_CreateEx                          30018268 
  FRAMEWIN_CreateEx::??rA                    30018268 
  FRAMEWIN_SetText                           30018484 
  FRAMEWIN_SetText::??rA                     30018484 
  FRAMEWIN_SetActive                         300184E8 
  FRAMEWIN_SetActive::??rA                   300184E8 
  GUI_ClearRect::??rA                        30018528 
  FRAMEWIN__MinVisibility                    30A05B98   LOCAL
  _SetActive                                 30017768   LOCAL
  _SetActive::??rA                           30017768   LOCAL
  _OnTouch                                   30017804   LOCAL
  _OnTouch::??rA                             30017804   LOCAL
  _Paint                                     300178A4   LOCAL
  _Paint::??rA                               300178A4   LOCAL
  _OnChildHasFocus                           30017AC8   LOCAL
  _OnChildHasFocus::??rA                     30017AC8   LOCAL
  _FRAMEWIN_Callback                         30017B64   LOCAL
  _FRAMEWIN_Callback::??rA                   30017B64   LOCAL
  FRAMEWIN__cbClient                         30017DB4   LOCAL
  FRAMEWIN__cbClient::??rA                   30017DB4   LOCAL
gui2dlib ( F:\S2Prog\TXU\TargetDebug\Lib\GUI_Lib.r79 )
  GUI_DrawRect                               30018590 
  GUI_DrawRect::??rA                         30018590 
  _DrawRect                                  30018534   LOCAL
  _DrawRect::??rA                            30018534   LOCAL
listbox ( F:\S2Prog\TXU\TargetDebug\Lib\GUI_Lib.r79 )
  LISTBOX__pDefaultFont                      30A0594C 
  LISTBOX__DefaultScrollStepH                30A05B9A 
  LISTBOX__GetNumItems                       300186C8 
  LISTBOX__GetNumItems::??rA                 300186C8 
  LISTBOX_OwnerDraw                          30018B54 
  LISTBOX_OwnerDraw::??rA                    30018B54 
  LISTBOX__InvalidateItemSize                30018E68 
  LISTBOX__InvalidateItemSize::??rA
                                             30018E68 
  LISTBOX__InvalidateInsideArea              30018EA4 
  LISTBOX__InvalidateInsideArea::??rA
                                             30018EA4 
  LISTBOX__InvalidateItem                    30018EE4 
  LISTBOX__InvalidateItem::??rA              30018EE4 
  LISTBOX__InvalidateItemAndBelow            30018F9C 
  LISTBOX__InvalidateItemAndBelow::??rA
                                             30018F9C 
  LISTBOX_UpdateScrollers                    300191EC 
  LISTBOX_UpdateScrollers::??rA              300191EC 
  LISTBOX_CreateEx                           30019C08 
  LISTBOX_CreateEx::??rA                     30019C08 
  LISTBOX_InvalidateItem                     30019D50 
  LISTBOX_InvalidateItem::??rA               30019D50 
  LISTBOX_AddKey                             30019E24 
  LISTBOX_AddKey::??rA                       30019E24 
  LISTBOX_GetNumItems                        30019E70 
  LISTBOX_GetNumItems::??rA                  30019E70 
  LISTBOX_AddString                          30019EC0 
  LISTBOX_AddString::??rA                    30019EC0 
  LISTBOX_SetText                            30019FE8 
  LISTBOX_SetText::??rA                      30019FE8 
  LISTBOX_SetBkColor                         3001A068 
  LISTBOX_SetBkColor::??rA                   3001A068 
  LISTBOX_SetSel                             3001A0D0 
  LISTBOX_SetSel::??rA                       3001A0D0 
  LISTBOX_GetSel                             3001A23C 
  LISTBOX_GetSel::??rA                       3001A23C 
  LISTBOX_IncSel                             3001A294 
  LISTBOX_IncSel::??rA                       3001A294 
  LISTBOX_DecSel                             3001A2D0 
  LISTBOX_DecSel::??rA                       3001A2D0 
  _CallOwnerDraw                             30018664   LOCAL
  _CallOwnerDraw::??rA                       30018664   LOCAL
  _GetpString                                300186DC   LOCAL
  _GetpString::??rA                          300186DC   LOCAL
  _GetYSize                                  30018718   LOCAL
  _GetYSize::??rA                            30018718   LOCAL
  _GetItemSizeX                              30018764   LOCAL
  _GetItemSizeX::??rA                        30018764   LOCAL
  _GetItemSizeY                              300187F8   LOCAL
  _GetItemSizeY::??rA                        300187F8   LOCAL
  _GetContentsSizeX                          3001888C   LOCAL
  _GetContentsSizeX::??rA                    3001888C   LOCAL
  _GetItemPosY                               30018900   LOCAL
  _GetItemPosY::??rA                         30018900   LOCAL
  _IsPartiallyVis                            30018978   LOCAL
  _IsPartiallyVis::??rA                      30018978   LOCAL
  _GetNumVisItems                            30018A14   LOCAL
  _GetNumVisItems::??rA                      30018A14   LOCAL
  _NotifyOwner                               30018AB4   LOCAL
  _NotifyOwner::??rA                         30018AB4   LOCAL
  _UpdateScrollPos                           30018DB0   LOCAL
  _UpdateScrollPos::??rA                     30018DB0   LOCAL
  _CalcScrollParas                           30019024   LOCAL
  _CalcScrollParas::??rA                     30019024   LOCAL
  _ManageAutoScroll                          300190D4   LOCAL
  _ManageAutoScroll::??rA                    300190D4   LOCAL
  _Tolower                                   3001921C   LOCAL
  _Tolower::??rA                             3001921C   LOCAL
  _IsAlphaNum                                30019234   LOCAL
  _IsAlphaNum::??rA                          30019234   LOCAL
  _SelectByKey                               30019284   LOCAL
  _SelectByKey::??rA                         30019284   LOCAL
  _FreeAttached                              30019310   LOCAL
  _FreeAttached::??rA                        30019310   LOCAL
  _OnPaint                                   30019328   LOCAL
  _OnPaint::??rA                             30019328   LOCAL
  _ToggleMultiSel                            30019514   LOCAL
  _ToggleMultiSel::??rA                      30019514   LOCAL
  _GetItemFromPos                            300195B8   LOCAL
  _GetItemFromPos::??rA                      300195B8   LOCAL
  _OnTouch                                   300196A8   LOCAL
  _OnTouch::??rA                             300196A8   LOCAL
  _LISTBOX_Callback                          30019708   LOCAL
  _LISTBOX_Callback::??rA                    30019708   LOCAL
  _MoveSel                                   300199BC   LOCAL
  _MoveSel::??rA                             300199BC   LOCAL
  _AddKey                                    30019A94   LOCAL
  _AddKey::??rA                              30019A94   LOCAL
?atexit ( F:\Program Files\IAR Systems\Embedded Workbench 3.2\ARM\LIB\dl4tpainl8.r79 )
  atexit                                     3001A30C 
  atexit::??rA                               3001A30C 
  _Atexit                                    3001A354 
  _Atexit::??rA                              3001A354 
?exit ( F:\Program Files\IAR Systems\Embedded Workbench 3.2\ARM\LIB\dl4tpainl8.r79 )
  exit                                       3001A36C 
  exit::??rA                                 3001A36C 
  _exit::??rA                                3001A384 
?Xgetmemchunk ( F:\Program Files\IAR Systems\Embedded Workbench 3.2\ARM\LIB\dl4tpainl8.r79 )
  _GetMemChunk                               3001A390 
  _GetMemChunk::??rA                         3001A390 
?__dbg_Break ( F:\Program Files\IAR Systems\Embedded Workbench 3.2\ARM\LIB\dl4tpainl8.r79 )
  __DebugBreak                               3001A3F0 
  __DebugBreak::??rA                         3001A3F0 
?Getenv ( F:\Program Files\IAR Systems\Embedded Workbench 3.2\ARM\LIB\dl4tpainl8.r79 )
  getenv                                     3001A3F4 
  getenv::??rA                               3001A3F4 
?vec_newdel ( F:\Program Files\IAR Systems\Embedded Workbench 3.2\ARM\LIB\dl4tpainl8.r79 )
  __array_new_prefix_size                    30A05950 
  __vec_construct                            3001A500 
  __vec_construct::??rA                      3001A500 
  abort::??rA                                3001A54C 
  array_new_general(void *, __vec_element_count_t, size_t, void *, a_constructor_ptr, a_destructor_ptr, a_new_ptr, a_delete_ptr, int, a_boolean)
                                             3001A418   LOCAL
?Asctime ( F:\Program Files\IAR Systems\Embedded Workbench 3.2\ARM\LIB\dl4tpainl8.r79 )
  _Times                                     30A05958 
  _Tls_setup__Times                          30A05954 
?Bsearch ( F:\Program Files\IAR Systems\Embedded Workbench 3.2\ARM\LIB\dl4tpainl8.r79 )
  bsearch                                    3001A558 
  bsearch::??rA                              3001A558 
?Delaop ( F:\Program Files\IAR Systems\Embedded Workbench 3.2\ARM\LIB\dl4tpainl8.r79 )
  operator delete[](void *)                  3001A5D8 
  operator delete[](void *)::??rA            3001A5D8 
?Delop ( F:\Program Files\IAR Systems\Embedded Workbench 3.2\ARM\LIB\dl4tpainl8.r79 )
  operator delete(void *)                    3001A5F0 
  operator delete(void *)::??rA              3001A5F0 
?Difftime ( F:\Program Files\IAR Systems\Embedded Workbench 3.2\ARM\LIB\dl4tpainl8.r79 )
  difftime                                   3001A60C 
  difftime::??rA                             3001A60C 
?Div ( F:\Program Files\IAR Systems\Embedded Workbench 3.2\ARM\LIB\dl4tpainl8.r79 )
  div                                        3001A65C 
  div::??rA                                  3001A65C 
?Errno ( F:\Program Files\IAR Systems\Embedded Workbench 3.2\ARM\LIB\dl4tpainl8.r79 )
  errno                                      30A6B9EC 
?Exp ( F:\Program Files\IAR Systems\Embedded Workbench 3.2\ARM\LIB\dl4tpainl8.r79 )
  exp                                        3001A6A4 
  exp::??rA                                  3001A6A4 
?Fabsf ( F:\Program Files\IAR Systems\Embedded Workbench 3.2\ARM\LIB\dl4tpainl8.r79 )
  fabsf                                      3001A77C 
  fabsf::??rA                                3001A77C 
?Fclose ( F:\Program Files\IAR Systems\Embedded Workbench 3.2\ARM\LIB\dl4tpainl8.r79 )
  _Close_all                                 3001A7FC 
  _Close_all::??rA                           3001A7FC 
  fclose                                     3001A834 
  fclose::??rA                               3001A834 
  __close::??rA                              3001A938 
  remove::??rA                               3001A944 
?Fflush ( F:\Program Files\IAR Systems\Embedded Workbench 3.2\ARM\LIB\dl4tpainl8.r79 )
  fflush                                     3001A950 
  fflush::??rA                               3001A950 
  __write::??rA                              3001AA2C 
?Free ( F:\Program Files\IAR Systems\Embedded Workbench 3.2\ARM\LIB\dl4tpainl8.r79 )
  free                                       3001AA38 
  free::??rA                                 3001AA38 
?Localtim ( F:\Program Files\IAR Systems\Embedded Workbench 3.2\ARM\LIB\dl4tpainl8.r79 )
  _Tzoff                                     3001AB34 
  _Tzoff::??rA                               3001AB34 
  localtime                                  3001AC54 
  localtime::??rA                            3001AC54 
?Malloc ( F:\Program Files\IAR Systems\Embedded Workbench 3.2\ARM\LIB\dl4tpainl8.r79 )
  _Aldata                                    30A6BA00 
  malloc                                     3001AD38 
  malloc::??rA                               3001AD38 
  findmem                                    3001AC7C   LOCAL
?Memchr ( F:\Program Files\IAR Systems\Embedded Workbench 3.2\ARM\LIB\dl4tpainl8.r79 )
  _Memchr                                    3001ADE0 
  _Memchr::??rA                              3001ADE0 
?Memcmp ( F:\Program Files\IAR Systems\Embedded Workbench 3.2\ARM\LIB\dl4tpainl8.r79 )
  memcmp                                     3001AE18 
  memcmp::??rA                               3001AE18 
?Memmove ( F:\Program Files\IAR Systems\Embedded Workbench 3.2\ARM\LIB\dl4tpainl8.r79 )
  memmove                                    3001AE64 
  memmove::??rA                              3001AE64 
?New ( F:\Program Files\IAR Systems\Embedded Workbench 3.2\ARM\LIB\dl4tpainl8.r79 )
  _New_hand                                  30A6BA08 
?Newaop ( F:\Program Files\IAR Systems\Embedded Workbench 3.2\ARM\LIB\dl4tpainl8.r79 )
  operator new[](unsigned long)              3001AEE8 
  operator new[](unsigned long)::??rA
                                             3001AEE8 
?Newop ( F:\Program Files\IAR Systems\Embedded Workbench 3.2\ARM\LIB\dl4tpainl8.r79 )
  operator new(unsigned long)                3001AF00 
  operator new(unsigned long)::??rA
                                             3001AF00 
?Nomemory ( F:\Program Files\IAR Systems\Embedded Workbench 3.2\ARM\LIB\dl4tpainl8.r79 )
  bad_alloc::~bad_alloc()                    3001AF4C 
  bad_alloc::~bad_alloc()::??rA              3001AF4C 
  exception::~exception()                    3001AF70 
  exception::~exception()::??rA              3001AF70 
  exception::what() const                    3001AF94 
  exception::what() const::??rA              3001AF94 
  exception::_Doraise() const                3001AFA0 
  exception::_Doraise() const::??rA
                                             3001AFA0 
  bad_alloc::_Doraise() const::??rA
                                             3001AFA4 
  bad_alloc::_Doraise() const                3001AFA4 
  _Nomemory()                                3001AFBC 
  _Nomemory()::??rA                          3001AFBC 
  __record_needed_destruction::??rA
                                             3001B018 
  <Unnamed 0>                                3001B014   LOCAL
?Qsort ( F:\Program Files\IAR Systems\Embedded Workbench 3.2\ARM\LIB\dl4tpainl8.r79 )
  qsort                                      3001B9F4 
  qsort::??rA                                3001B9F4 
  swap                                       3001B024   LOCAL
  rot3                                       3001B0F8   LOCAL
  rotate                                     3001B1F8   LOCAL
  med3                                       3001B2A0   LOCAL
  median                                     3001B378   LOCAL
  adjust_heap                                3001B470   LOCAL
  intro_sort                                 3001B578   LOCAL
?Rand ( F:\Program Files\IAR Systems\Embedded Workbench 3.2\ARM\LIB\dl4tpainl8.r79 )
  _Randinit                                  30A05A44 
  _Randseed                                  30A05A30 
  _Tls_setup__Randinit                       30A05A2C 
  _Tls_setup__Randseed                       30A05A34 
  rand                                       3001BA1C 
  rand::??rA                                 3001BA1C 
?Sprintf ( F:\Program Files\IAR Systems\Embedded Workbench 3.2\ARM\LIB\dl4tpainl8.r79 )
  sprintf                                    3001BAFC 
  sprintf::??rA                              3001BAFC 
?Strchr ( F:\Program Files\IAR Systems\Embedded Workbench 3.2\ARM\LIB\dl4tpainl8.r79 )
  _Strchr                                    3001BB4C 
  _Strchr::??rA                              3001BB4C 
?Strftime ( F:\Program Files\IAR Systems\Embedded Workbench 3.2\ARM\LIB\dl4tpainl8.r79 )
  strftime                                   3001BB78 
  strftime::??rA                             3001BB78 
?String ( F:\Program Files\IAR Systems\Embedded Workbench 3.2\ARM\LIB\dl4tpainl8.r79 )
  string::npos                               30072E50 
  _String_base::_Xlen() const                3001BBDC 
  _String_base::_Xlen() const::??rA
                                             3001BBDC 
  _String_base::_Xran() const                3001BBE0 
  _String_base::_Xran() const::??rA
                                             3001BBE0 
?Strncmp ( F:\Program Files\IAR Systems\Embedded Workbench 3.2\ARM\LIB\dl4tpainl8.r79 )
  strncmp                                    3001BBE4 
  strncmp::??rA                              3001BBE4 
?Strncpy ( F:\Program Files\IAR Systems\Embedded Workbench 3.2\ARM\LIB\dl4tpainl8.r79 )
  strncpy                                    3001BC3C 
  strncpy::??rA                              3001BC3C 
?Strpbrk ( F:\Program Files\IAR Systems\Embedded Workbench 3.2\ARM\LIB\dl4tpainl8.r79 )
  _Strpbrk                                   3001BC7C 
  _Strpbrk::??rA                             3001BC7C 
?Strtol ( F:\Program Files\IAR Systems\Embedded Workbench 3.2\ARM\LIB\dl4tpainl8.r79 )
  strtol                                     3001BCC8 
  strtol::??rA                               3001BCC8 
?Vsprintf ( F:\Program Files\IAR Systems\Embedded Workbench 3.2\ARM\LIB\dl4tpainl8.r79 )
  vsprintf                                   3001BDBC 
  vsprintf::??rA                             3001BDBC 
?Xdnorm ( F:\Program Files\IAR Systems\Embedded Workbench 3.2\ARM\LIB\dl4tpainl8.r79 )
  _Dnorm                                     3001BDFC 
  _Dnorm::??rA                               3001BDFC 
?Xdscale ( F:\Program Files\IAR Systems\Embedded Workbench 3.2\ARM\LIB\dl4tpainl8.r79 )
  _Dscale                                    3001BF40 
  _Dscale::??rA                              3001BF40 
?Xdtento ( F:\Program Files\IAR Systems\Embedded Workbench 3.2\ARM\LIB\dl4tpainl8.r79 )
  _Dtento                                    3001C188 
  _Dtento::??rA                              3001C188 
  dmul                                       3001C0E0   LOCAL
?Xexp ( F:\Program Files\IAR Systems\Embedded Workbench 3.2\ARM\LIB\dl4tpainl8.r79 )
  _Exp                                       3001C384 
  _Exp::??rA                                 3001C384 
?Xferaise ( F:\Program Files\IAR Systems\Embedded Workbench 3.2\ARM\LIB\dl4tpainl8.r79 )
  _Feraise                                   3001C680 
  _Feraise::??rA                             3001C680 
?Xfiles ( F:\Program Files\IAR Systems\Embedded Workbench 3.2\ARM\LIB\dl4tpainl8.r79 )
  _Stdin                                     30A05A48 
  _Stdout                                    30A05A90 
  _Stderr                                    30A05AD8 
  _Files                                     30A05B20 
?Xfloat ( F:\Program Files\IAR Systems\Embedded Workbench 3.2\ARM\LIB\dl4tpainl8.r79 )
  _Dbl                                       30072EC4 
?Xfvalues ( F:\Program Files\IAR Systems\Embedded Workbench 3.2\ARM\LIB\dl4tpainl8.r79 )
  _FInf                                      30072EF4 
?Xgenld ( F:\Program Files\IAR Systems\Embedded Workbench 3.2\ARM\LIB\dl4tpainl8.r79 )
  _Genld                                     3001C6A8 
  _Genld::??rA                               3001C6A8 
?Xgentime ( F:\Program Files\IAR Systems\Embedded Workbench 3.2\ARM\LIB\dl4tpainl8.r79 )
  _Gentime                                   3001D08C 
  _Gentime::??rA                             3001D08C 
  getval                                     3001CBCC   LOCAL
  ISOwkyr                                    3001CC80   LOCAL
  ISOweek                                    3001CDB4   LOCAL
  cmp_era_date                               3001CE64   LOCAL
  getera                                     3001CF78   LOCAL
?Xgetdst ( F:\Program Files\IAR Systems\Embedded Workbench 3.2\ARM\LIB\dl4tpainl8.r79 )
  _Getdst                                    3001DA68 
  _Getdst::??rA                              3001DA68 
  getint                                     3001DA20   LOCAL
?Xgettime ( F:\Program Files\IAR Systems\Embedded Workbench 3.2\ARM\LIB\dl4tpainl8.r79 )
  _Gettime                                   3001DC78 
  _Gettime::??rA                             3001DC78 
?Xgetzone ( F:\Program Files\IAR Systems\Embedded Workbench 3.2\ARM\LIB\dl4tpainl8.r79 )
  _Getzone                                   3001DE44 
  _Getzone::??rA                             3001DE44 
  reformat                                   3001DD14   LOCAL
?Xisdst ( F:\Program Files\IAR Systems\Embedded Workbench 3.2\ARM\LIB\dl4tpainl8.r79 )
  _Isdst                                     3001DF20 
  _Isdst::??rA                               3001DF20 
  _Tls_dtor_rules                            3001DEC4   LOCAL
  _Tls_setupx_rules                          3001DEE8   LOCAL
?Xldtob ( F:\Program Files\IAR Systems\Embedded Workbench 3.2\ARM\LIB\dl4tpainl8.r79 )
  _Ldtob                                     3001E0F8 
  _Ldtob::??rA                               3001E0F8 
?Xlitob ( F:\Program Files\IAR Systems\Embedded Workbench 3.2\ARM\LIB\dl4tpainl8.r79 )
  _Litob                                     3001E8F0 
  _Litob::??rA                               3001E8F0 
?Xmbtowc ( F:\Program Files\IAR Systems\Embedded Workbench 3.2\ARM\LIB\dl4tpainl8.r79 )
  _Mbtowcx                                   3001EB2C 
  _Mbtowcx::??rA                             3001EB2C 
  _Mbtowc                                    3001EC44 
  _Mbtowc::??rA                              3001EC44 
?Xprintf ( F:\Program Files\IAR Systems\Embedded Workbench 3.2\ARM\LIB\dl4tpainl8.r79 )
  _Printf                                    3001EC5C 
  _Printf::??rA                              3001EC5C 
?Xputfld ( F:\Program Files\IAR Systems\Embedded Workbench 3.2\ARM\LIB\dl4tpainl8.r79 )
  _Putfld                                    3001EF88 
  _Putfld::??rA                              3001EF88 
?Xputstr ( F:\Program Files\IAR Systems\Embedded Workbench 3.2\ARM\LIB\dl4tpainl8.r79 )
  _Putstr                                    3001F758 
  _Putstr::??rA                              3001F758 
?Xputtxt ( F:\Program Files\IAR Systems\Embedded Workbench 3.2\ARM\LIB\dl4tpainl8.r79 )
  _Puttxt                                    3001F8D0 
  _Puttxt::??rA                              3001F8D0 
?Xsprout ( F:\Program Files\IAR Systems\Embedded Workbench 3.2\ARM\LIB\dl4tpainl8.r79 )
  _SProut                                    3001FBE0 
  _SProut::??rA                              3001FBE0 
?Xstate ( F:\Program Files\IAR Systems\Embedded Workbench 3.2\ARM\LIB\dl4tpainl8.r79 )
  _Mbcurmax                                  30A05B90 
  _Tls_setup__Mbcurmax                       30A05B8C 
?Xstod ( F:\Program Files\IAR Systems\Embedded Workbench 3.2\ARM\LIB\dl4tpainl8.r79 )
  _Stod                                      3001FC04 
  _Stod::??rA                                3001FC04 
?Xstoflt ( F:\Program Files\IAR Systems\Embedded Workbench 3.2\ARM\LIB\dl4tpainl8.r79 )
  _Stoflt                                    3001FE60 
  _Stoflt::??rA                              3001FE60 
?Xstopfx ( F:\Program Files\IAR Systems\Embedded Workbench 3.2\ARM\LIB\dl4tpainl8.r79 )
  _Stopfx                                    30020114 
  _Stopfx::??rA                              30020114 
?Xstoul ( F:\Program Files\IAR Systems\Embedded Workbench 3.2\ARM\LIB\dl4tpainl8.r79 )
  _Stoul                                     300202F4 
  _Stoul::??rA                               300202F4 
?Xstoxflt ( F:\Program Files\IAR Systems\Embedded Workbench 3.2\ARM\LIB\dl4tpainl8.r79 )
  _Stoxflt                                   300204DC 
  _Stoxflt::??rA                             300204DC 
?Xstrftim ( F:\Program Files\IAR Systems\Embedded Workbench 3.2\ARM\LIB\dl4tpainl8.r79 )
  _CStrftime                                 300207C0 
  _CStrftime::??rA                           300207C0 
?Xttotm ( F:\Program Files\IAR Systems\Embedded Workbench 3.2\ARM\LIB\dl4tpainl8.r79 )
  _Daysto                                    300209C8 
  _Daysto::??rA                              300209C8 
  _Ttotm                                     30020A40 
  _Ttotm::??rA                               30020A40 
?Xvalues ( F:\Program Files\IAR Systems\Embedded Workbench 3.2\ARM\LIB\dl4tpainl8.r79 )
  _Eps                                       30072F74 
  _Inf                                       30072F7C 
  _Nan                                       30072F84 
?Xwctomb ( F:\Program Files\IAR Systems\Embedded Workbench 3.2\ARM\LIB\dl4tpainl8.r79 )
  _Wctombx                                   30020BCC 
  _Wctombx::??rA                             30020BCC 
  _Wctomb                                    30020C64 
  _Wctomb::??rA                              30020C64 
?__putchar_getchar ( F:\Program Files\IAR Systems\Embedded Workbench 3.2\ARM\LIB\dl4tpainl8.r79 )
  __putchar                                  30020C7C 
  __getchar                                  30020C7C 
?div_module ( F:\Program Files\IAR Systems\Embedded Workbench 3.2\ARM\LIB\dl4tpainl8.r79 )
  ??divu8_a                                  30020C80 
  ??divu32_a                                 30020C8C 
  ??div32_a                                  30020C98 
?EnI_t ( F:\Program Files\IAR Systems\Embedded Workbench 3.2\ARM\LIB\dl4tpainl8.r79 )
  ??EnI_t                                    30000609 
  ??EnI_a                                    3000060C 
?DiI_t ( F:\Program Files\IAR Systems\Embedded Workbench 3.2\ARM\LIB\dl4tpainl8.r79 )
  ??DiI_a                                    3000061C 
?heap ( F:\Program Files\IAR Systems\Embedded Workbench 3.2\ARM\LIB\dl4tpainl8.r79 )
  __heap_start                               30072F94 
  __heap_end                                 30072F98 
?div64 ( F:\Program Files\IAR Systems\Embedded Workbench 3.2\ARM\LIB\dl4tpainl8.r79 )
  ??div64_t                                  30020D09 
  ??div64_a                                  30020D0C 
?divu64 ( F:\Program Files\IAR Systems\Embedded Workbench 3.2\ARM\LIB\dl4tpainl8.r79 )
  ??divu64_t                                 30020D5D 
  ??divu64_a                                 30020D60 
?D_CmpFloat ( F:\Program Files\IAR Systems\Embedded Workbench 3.2\ARM\LIB\dl4tpainl8.r79 )
  __dEqual                                   30020DE8 
  __dEqual::??rA                             30020DE8 
?D_CmpFloat3 ( F:\Program Files\IAR Systems\Embedded Workbench 3.2\ARM\LIB\dl4tpainl8.r79 )
  ?dCheckNaN                                 30020E28 
?D_CmpFloat4 ( F:\Program Files\IAR Systems\Embedded Workbench 3.2\ARM\LIB\dl4tpainl8.r79 )
  __dLess                                    30020E68 
  __dLess::??rA                              30020E68 
  ?dLess1                                    30020E74 
?D_CmpFloat5 ( F:\Program Files\IAR Systems\Embedded Workbench 3.2\ARM\LIB\dl4tpainl8.r79 )
  __dGreaterEqual                            30020EB0 
  __dGreaterEqual::??rA                      30020EB0 
?DUnpack ( F:\Program Files\IAR Systems\Embedded Workbench 3.2\ARM\LIB\dl4tpainl8.r79 )
  ?dUnpack                                   30020EC8 
?ReturnDouble ( F:\Program Files\IAR Systems\Embedded Workbench 3.2\ARM\LIB\dl4tpainl8.r79 )
  ?dNormalize                                30020F04 
  ?dNormalizeS                               30020F50 
  ?dDeNormalize                              30020FCC 
  ?dRStore                                   30021030 
  ?dXOVERF                                   300210CC 
  ?dRET0F                                    300210BC 
  ?dRETF                                     30021094 
  ?dXNAN1F                                   30021118 
  ?dXNAN2F                                   30021108 
  ?dINFWSF                                   300210DC 
  ?dRET0SF                                   300210AC 
  ?dXINEXF                                   3002109C 
  ?dX0DIVF                                   300210F4 
?D_SubDouble ( F:\Program Files\IAR Systems\Embedded Workbench 3.2\ARM\LIB\dl4tpainl8.r79 )
  __dSub                                     30021134 
  __dSub::??rA                               30021134 
  __dSub::??rT                               30021131 
?D_AddDouble ( F:\Program Files\IAR Systems\Embedded Workbench 3.2\ARM\LIB\dl4tpainl8.r79 )
  __dAdd                                     30021140 
  __dAdd::??rA                               30021140 
  __dAdd::??rT                               3002113D 
?D_MulFloat ( F:\Program Files\IAR Systems\Embedded Workbench 3.2\ARM\LIB\dl4tpainl8.r79 )
  __dMul                                     300212DC 
  __dMul::??rT                               300212D9 
  __dMul::??rA                               300212DC 
?D_DivDouble ( F:\Program Files\IAR Systems\Embedded Workbench 3.2\ARM\LIB\dl4tpainl8.r79 )
  __dDiv                                     300213C8 
  __dDiv::??rT                               300213C5 
  __dDiv::??rA                               300213C8 
?D_ULONG2DOUBLE ( F:\Program Files\IAR Systems\Embedded Workbench 3.2\ARM\LIB\dl4tpainl8.r79 )
  __ulongToDouble                            300214DC 
  __ulongToDouble::??rA                      300214DC 
  __ulongToDouble::??rT                      300214D9 
?D_LONG2DOUBLE ( F:\Program Files\IAR Systems\Embedded Workbench 3.2\ARM\LIB\dl4tpainl8.r79 )
  __longToDouble                             30021508 
  __longToDouble::??rA                       30021508 
  __longToDouble::??rT                       30021505 
?D_DOUBLE2ULONG ( F:\Program Files\IAR Systems\Embedded Workbench 3.2\ARM\LIB\dl4tpainl8.r79 )
  __doubleToUlong                            30021538 
  __doubleToUlong::??rA                      30021538 
  __doubleToUlong::??rT                      30021535 
?D_DOUBLE2LONG ( F:\Program Files\IAR Systems\Embedded Workbench 3.2\ARM\LIB\dl4tpainl8.r79 )
  __doubleToLong                             30021624 
  __doubleToLong::??rA                       30021624 
  __doubleToLong::??rT                       30021621 
?D_DOUBLE2FLOAT ( F:\Program Files\IAR Systems\Embedded Workbench 3.2\ARM\LIB\dl4tpainl8.r79 )
  __doubleToFloat                            3002170C 
  __doubleToFloat::??rA                      3002170C 
  __doubleToFloat::??rT                      30021709 
?FLOATEDOUBLE ( F:\Program Files\IAR Systems\Embedded Workbench 3.2\ARM\LIB\dl4tpainl8.r79 )
  __floatToDouble                            30021760 
  __floatToDouble::??rA                      30021760 
?F_CmpFloat ( F:\Program Files\IAR Systems\Embedded Workbench 3.2\ARM\LIB\dl4tpainl8.r79 )
  __fEqual                                   300217C0 
  __fEqual::??rA                             300217C0 
?F_CmpFloat1 ( F:\Program Files\IAR Systems\Embedded Workbench 3.2\ARM\LIB\dl4tpainl8.r79 )
  __fNotEqual                                300217F0 
  __fNotEqual::??rA                          300217F0 
?F_CmpFloat3 ( F:\Program Files\IAR Systems\Embedded Workbench 3.2\ARM\LIB\dl4tpainl8.r79 )
  ?fCheckNaN                                 30021804 
?F_CmpFloat4 ( F:\Program Files\IAR Systems\Embedded Workbench 3.2\ARM\LIB\dl4tpainl8.r79 )
  __fLess                                    30021830 
  __fLess::??rA                              30021830 
  ?fLess1                                    3002183C 
?F_CmpFloat5 ( F:\Program Files\IAR Systems\Embedded Workbench 3.2\ARM\LIB\dl4tpainl8.r79 )
  __fGreaterEqual                            30021878 
  __fGreaterEqual::??rA                      30021878 
?fUnpack ( F:\Program Files\IAR Systems\Embedded Workbench 3.2\ARM\LIB\dl4tpainl8.r79 )
  ?fUnpack                                   3002188C 
?ReturnFloat ( F:\Program Files\IAR Systems\Embedded Workbench 3.2\ARM\LIB\dl4tpainl8.r79 )
  ?fNormalize                                300218B0 
  ?fNormalizeS                               300218F0 
  ?fDeNormalize                              3002194C 
  ?fRStore                                   30021990 
  ?XOVERF                                    300219FC 
  ?RET0F                                     300219F4 
  ?RETF                                      300219D4 
  ?XNAN1F                                    30021A44 
  ?XNAN2F                                    30021A34 
  ?INFWSF                                    30021A0C 
  ?RET0SF                                    300219EC 
  ?XINEXF                                    300219DC 
  ?X0DIVF                                    30021A20 
?__FloatingPointFlags ( F:\Program Files\IAR Systems\Embedded Workbench 3.2\ARM\LIB\dl4tpainl8.r79 )
  __FloatingPointFlags                       30A6BAD3 
?F_Inexact ( F:\Program Files\IAR Systems\Embedded Workbench 3.2\ARM\LIB\dl4tpainl8.r79 )
  ?raiseInexact                              30021A50 
  ?raiseInvalid                              30021A64 
?F_SubFloat ( F:\Program Files\IAR Systems\Embedded Workbench 3.2\ARM\LIB\dl4tpainl8.r79 )
  __fSub                                     30021A80 
  __fSub::??rA                               30021A80 
  __fSub::??rT                               30021A7D 
?F_AddFloat ( F:\Program Files\IAR Systems\Embedded Workbench 3.2\ARM\LIB\dl4tpainl8.r79 )
  __fAdd                                     30021A8C 
  __fAdd::??rT                               30021A89 
  __fAdd::??rA                               30021A8C 
?F_MulFloat ( F:\Program Files\IAR Systems\Embedded Workbench 3.2\ARM\LIB\dl4tpainl8.r79 )
  __fMul                                     30021B9C 
  __fMul::??rT                               30021B99 
  __fMul::??rA                               30021B9C 
?F_DivFloat ( F:\Program Files\IAR Systems\Embedded Workbench 3.2\ARM\LIB\dl4tpainl8.r79 )
  __fDiv                                     30021C40 
  __fDiv::??rT                               30021C3D 
  __fDiv::??rA                               30021C40 
?F_ULONG2FLOAT ( F:\Program Files\IAR Systems\Embedded Workbench 3.2\ARM\LIB\dl4tpainl8.r79 )
  __ulongToFloat                             30021D20 
  __ulongToFloat::??rA                       30021D20 
  __ulongToFloat::??rT                       30021D1D 
?F_LONG2FLOAT ( F:\Program Files\IAR Systems\Embedded Workbench 3.2\ARM\LIB\dl4tpainl8.r79 )
  __longToFloat                              30021D40 
  __longToFloat::??rA                        30021D40 
  __longToFloat::??rT                        30021D3D 
F_FLOAT2LONG ( F:\Program Files\IAR Systems\Embedded Workbench 3.2\ARM\LIB\dl4tpainl8.r79 )
  __floatToLong                              30021D60 
  __floatToLong::??rA                        30021D60 
  __floatToLong::??rT                        30021D5D 



                ****************************************
                *                                      *
                *      SEGMENTS IN ADDRESS ORDER       *
                *                                      *
                ****************************************


SEGMENT              SPACE   START ADDRESS    END ADDRESS      SIZE  TYPE  ALIGN
=======              =====   =============    ===========      ====  ====  =====
INTVEC                            30000000 - 3000001B            1C   com    2
FARFUNC_T                              30000101                       dse    0
ICODE                             30000104 - 30000433           330   rel    2
DIFUNCT                           30000434 - 30000607           1D4   rel    2
NEARFUNC_T                        30000608 - 30000637            30   rel    2
NEARFUNC_A                        30000638 - 30021DE3         217AC   rel    2
FARFUNC_A                         30021DE4 - 300631DB         413F8   rel    2
INITTAB                           300631DC - 300631F3            18   rel    2
HUGE_ID                           300631F4 - 300694B5          62C2   rel    2
HUGE_C                            300694B8 - 30078E9D          F9E6   rel    2
HUGE_I                            30A00000 - 30A062C1          62C2   rel    2
HUGE_Z                            30A062C4 - 30A6BAD3         65810   rel    2
CSTACK                            30A6BAD4 - 30A6FB69          4096   rel    2
IRQ_STACK                         30A6FB6C - 30A6FDC1           256   rel    2
HEAP                              30A6FDC4 - 31A6FDC3       1000000   rel    2

                ****************************************
                *                                      *
                *        END OF CROSS REFERENCE        *
                *                                      *
                ****************************************

    405 748 bytes of CODE  memory
 17 235 390 bytes of DATA  memory
     89 280 bytes of CONST memory

Errors: none
Warnings: none

