###############################################################################
#
# IAR C/C++ Compiler V7.10.6.1378 for Atmel AVR           30/Jul/2018  09:24:40
# Copyright 1996-2018 IAR Systems AB.
# Standalone license - IAR Embedded Workbench for Atmel AVR 7.10
#
#    Source file  =  D:\S2Prog\IO\ANZB – ATmega1280\Src\UsartInt.c
#    Command line =  
#        -f C:\Users\esy\AppData\Local\Temp\EW5928.tmp ("D:\S2Prog\IO\ANZB –
#        ATmega1280\Src\UsartInt.c" --cpu=m1280 -ms -o "D:\S2Prog\IO\ANZB –
#        ATmega1280\Debug\Obj" -D OS_LIBMODE_D -D OS_UART=-1 -lCN
#        "D:\S2Prog\IO\ANZB – ATmega1280\Debug\List" -y --initializers_in_flash
#        --no_cse --no_inline --no_code_motion --no_cross_call --no_clustering
#        --no_tbaa --debug -DENABLE_BIT_DEFINITIONS -e -I "D:\S2Prog\IO\ANZB –
#        ATmega1280\INC\" -I "D:\S2Prog\IO\ANZB – ATmega1280\..\..\SHARED\INC\"
#        --eeprom_size 4096 --clib -On)
#    Locale       =  Norwegian Bokmål_NOR.1252
#    List file    =  D:\S2Prog\IO\ANZB – ATmega1280\Debug\List\UsartInt.lst
#    Object file  =  D:\S2Prog\IO\ANZB – ATmega1280\Debug\Obj\UsartInt.r90
#
###############################################################################

D:\S2Prog\IO\ANZB – ATmega1280\Src\UsartInt.c
      1          /****************************************************************************************
      2          / USART1 functions and interrupt
      3          /   This routines sync and check the ANPRO10
      4          /   Uart1Pro.c handle the package
      5          /
      6          ***************************************************************************************/
      7          
      8          
      9          #include "iom1280.h"

   \                                 In  segment ABSOLUTE, at 0xce
   \   union <unnamed> volatile __io _A_UDR1
   \                     _A_UDR1:
   \   00000000                      DS8 1

   \                                 In  segment ABSOLUTE, at 0xc9
   \   union <unnamed> volatile __io _A_UCSR1B
   \                     _A_UCSR1B:
   \   00000000                      DS8 1

   \                                 In  segment ABSOLUTE, at 0xc8
   \   union <unnamed> volatile __io _A_UCSR1A
   \                     _A_UCSR1A:
   \   00000000                      DS8 1

   \                                 In  segment ABSOLUTE, at 0xc6
   \   union <unnamed> volatile __io _A_UDR0
   \                     _A_UDR0:
   \   00000000                      DS8 1

   \                                 In  segment ABSOLUTE, at 0xc1
   \   union <unnamed> volatile __io _A_UCSR0B
   \                     _A_UCSR0B:
   \   00000000                      DS8 1

   \                                 In  segment ABSOLUTE, at 0xc0
   \   union <unnamed> volatile __io _A_UCSR0A
   \                     _A_UCSR0A:
   \   00000000                      DS8 1

   \                                 In  segment ABSOLUTE, at 0x2e
   \   union <unnamed> volatile __io _A_PORTE
   \                     _A_PORTE:
   \   00000000                      DS8 1
     10          #include "stdio.h"
     11          #include "math.h"
     12          #include "externals.h"
     13          #include "version.h"
     14          
     15          #if (OS_UART != 0)
     16          
     17          // USART0
     18          #pragma vector=USART0_RX_vect

   \                                 In  segment CODE, align 2, keep-with-next
     19          __interrupt void IntHandler_RX_USART0( void ){   
   \                     IntHandler_RX_USART0:
   \   00000000   939A               ST      -Y, R25
   \   00000002   938A               ST      -Y, R24
   \   00000004   93FA               ST      -Y, R31
   \   00000006   93EA               ST      -Y, R30
   \   00000008   923A               ST      -Y, R3
   \   0000000A   922A               ST      -Y, R2
   \   0000000C   921A               ST      -Y, R1
   \   0000000E   920A               ST      -Y, R0
   \   00000010   937A               ST      -Y, R23
   \   00000012   936A               ST      -Y, R22
   \   00000014   935A               ST      -Y, R21
   \   00000016   934A               ST      -Y, R20
   \   00000018   933A               ST      -Y, R19
   \   0000001A   932A               ST      -Y, R18
   \   0000001C   931A               ST      -Y, R17
   \   0000001E   930A               ST      -Y, R16
   \   00000020   B78F               IN      R24, 0x3F
   \   00000022   B79B               IN      R25, 0x3B
     20          
     21              OS_EnterInterrupt();
   \   00000024   9100....           LDS     R16, OS_InInt
   \   00000028   9503               INC     R16
   \   0000002A   9300....           STS     OS_InInt, R16
   \   0000002E   9100....           LDS     R16, OS_Counters
   \   00000032   9503               INC     R16
   \   00000034   9300....           STS     OS_Counters, R16
   \   00000038   9100....           LDS     R16, (OS_Counters + 1)
   \   0000003C   9503               INC     R16
   \   0000003E   9300....           STS     (OS_Counters + 1), R16
     22              OS_EnterIntStack();
   \   00000042   94F8               CLI
   \   00000044   ........           CALL    OS__EnterIntStack
   \   00000048   9100....           LDS     R16, (OS_Counters + 1)
   \   0000004C   7F00               ANDI    R16, 0xF0
   \   0000004E   2300               TST     R16
   \   00000050   F021               BREQ    ??IntHandler_RX_USART0_0
   \   00000052   E909               LDI     R16, 153
   \   00000054   E010               LDI     R17, 0
   \   00000056   ........           CALL    OS_Error
   \                     ??IntHandler_RX_USART0_0:
   \   0000005A   9100....           LDS     R16, (OS_Counters + 1)
   \   0000005E   2300               TST     R16
   \   00000060   F409               BRNE    ??IntHandler_RX_USART0_1
   \   00000062   9478               SEI
     23              if ( UCSR0A & __BIT_MASK( DOR0 ) ) {                // Overrun error? 
   \                     ??IntHandler_RX_USART0_1:
   \   00000064   9100....           LDS     R16, _A_UCSR0A
     24              }
     25          
     26              if ( UCSR0A & __BIT_MASK( FE0 ) ) {                 // Framing error? 
   \   00000068   9110....           LDS     R17, _A_UCSR0A
     27              }
     28          
     29              while ( UCSR0A & __BIT_MASK( RXC0)  ) {                // New byte avaiable?
   \                     ??IntHandler_RX_USART0_2:
   \   0000006C   9100....           LDS     R16, _A_UCSR0A
   \   00000070   2F10               MOV     R17, R16
   \   00000072   FF17               SBRS    R17, 7
   \   00000074   C06F               RJMP    ??IntHandler_RX_USART0_3
     30                  UART[0].pRxBuffer[ UART[0].RxFirst ] = UDR0;    // Read the character 
   \   00000076   9100....           LDS     R16, _A_UDR0
   \   0000007A   91E0....           LDS     R30, (UART + 10)
   \   0000007E   91F0....           LDS     R31, (UART + 11)
   \   00000082   9120....           LDS     R18, (UART + 12)
   \   00000086   9130....           LDS     R19, (UART + 13)
   \   0000008A   0FE2               ADD     R30, R18
   \   0000008C   1FF3               ADC     R31, R19
   \   0000008E   8300               ST      Z, R16
     31          
     32                  if (UART[0].RxState != HANDLE) {                // ok to receive? 
   \   00000090   9100....           LDS     R16, (UART + 18)
   \   00000094   300A               CPI     R16, 10
   \   00000096   F351               BREQ    ??IntHandler_RX_USART0_2
     33                      switch (UART[0].RxState) {                   // Yes, check state
   \   00000098   9100....           LDS     R16, (UART + 18)
   \   0000009C   2300               TST     R16
   \   0000009E   F009               BREQ    $+2+2
   \   000000A0   C041               RJMP    ??IntHandler_RX_USART0_4
     34                      case SYNC :
     35                          if ( UART[0].pRxBuffer[ UART[0].RxFirst ] == ANPRO10_SYN) {
   \   000000A2   91E0....           LDS     R30, (UART + 10)
   \   000000A6   91F0....           LDS     R31, (UART + 11)
   \   000000AA   9100....           LDS     R16, (UART + 12)
   \   000000AE   9110....           LDS     R17, (UART + 13)
   \   000000B2   0FE0               ADD     R30, R16
   \   000000B4   1FF1               ADC     R31, R17
   \   000000B6   8100               LD      R16, Z
   \   000000B8   3106               CPI     R16, 22
   \   000000BA   F461               BRNE    ??IntHandler_RX_USART0_5
     36                              UART[0].SyncCnt ++ ;                 // count sync
   \   000000BC   9100....           LDS     R16, (UART + 19)
   \   000000C0   9503               INC     R16
   \   000000C2   9300....           STS     (UART + 19), R16
     37                              UART[0].RxFirst = 0;                 // start at start of buff
   \   000000C6   E000               LDI     R16, 0
   \   000000C8   9300....           STS     (UART + 12), R16
   \   000000CC   E000               LDI     R16, 0
   \   000000CE   9300....           STS     (UART + 13), R16
   \   000000D2   CFCC               RJMP    ??IntHandler_RX_USART0_2
     38                          } else if ((UART[0].SyncCnt >= 2) && 
     39                                     (UART[0].pRxBuffer[ UART[0].RxFirst ] == ANPRO10_SOH)) {       // minimum two sync bytes
   \                     ??IntHandler_RX_USART0_5:
   \   000000D4   9100....           LDS     R16, (UART + 19)
   \   000000D8   3002               CPI     R16, 2
   \   000000DA   F100               BRCS    ??IntHandler_RX_USART0_6
   \   000000DC   91E0....           LDS     R30, (UART + 10)
   \   000000E0   91F0....           LDS     R31, (UART + 11)
   \   000000E4   9100....           LDS     R16, (UART + 12)
   \   000000E8   9110....           LDS     R17, (UART + 13)
   \   000000EC   0FE0               ADD     R30, R16
   \   000000EE   1FF1               ADC     R31, R17
   \   000000F0   8100               LD      R16, Z
   \   000000F2   3001               CPI     R16, 1
   \   000000F4   F499               BRNE    ??IntHandler_RX_USART0_6
     40                              UART[0].SyncCnt = 0 ;                // reset counter
   \   000000F6   E000               LDI     R16, 0
   \   000000F8   9300....           STS     (UART + 19), R16
     41                              UART[0].RxState = HEADER ;
   \   000000FC   E001               LDI     R16, 1
   \   000000FE   9300....           STS     (UART + 18), R16
     42                              UART[0].RxLast = 0 ;
   \   00000102   E000               LDI     R16, 0
   \   00000104   9300....           STS     (UART + 14), R16
   \   00000108   E000               LDI     R16, 0
   \   0000010A   9300....           STS     (UART + 15), R16
     43                              UART[0].RxTimeout = RX_TO_TIME ;    // reset timeout
   \   0000010E   EF0A               LDI     R16, 250
   \   00000110   9300....           STS     (UART + 20), R16
   \   00000114   E000               LDI     R16, 0
   \   00000116   9300....           STS     (UART + 21), R16
   \   0000011A   CFA8               RJMP    ??IntHandler_RX_USART0_2
     44                          } else {
     45                              UART[0].SyncCnt = 0 ;                // start over once more
   \                     ??IntHandler_RX_USART0_6:
   \   0000011C   E000               LDI     R16, 0
   \   0000011E   9300....           STS     (UART + 19), R16
     46                          }
     47                          break;
   \   00000122   CFA4               RJMP    ??IntHandler_RX_USART0_2
     48                      default :
     49                          if ((++UART[0].RxFirst) > RXSIZE_UART) { // Point to next location
   \                     ??IntHandler_RX_USART0_4:
   \   00000124   ....               LDI     R30, LOW(UART)
   \   00000126   ....               LDI     R31, (UART) >> 8
   \   00000128   8504               LDD     R16, Z+12
   \   0000012A   8515               LDD     R17, Z+13
   \   0000012C   5F0F               SUBI    R16, 255
   \   0000012E   4F1F               SBCI    R17, 255
   \   00000130   8704               STD     Z+12, R16
   \   00000132   8715               STD     Z+13, R17
   \   00000134   9100....           LDS     R16, (UART + 12)
   \   00000138   9110....           LDS     R17, (UART + 13)
   \   0000013C   3907               CPI     R16, 151
   \   0000013E   E020               LDI     R18, 0
   \   00000140   0712               CPC     R17, R18
   \   00000142   F020               BRCS    ??IntHandler_RX_USART0_7
     50                              GoToSyncUART(0) ;                       // go to sync mode
   \   00000144   E000               LDI     R16, 0
   \   00000146   ........           CALL    GoToSyncUART
   \   0000014A   CF90               RJMP    ??IntHandler_RX_USART0_2
     51                          } else {
     52                              ReceivePacketUart(0) ;              // Check package
   \                     ??IntHandler_RX_USART0_7:
   \   0000014C   E000               LDI     R16, 0
   \   0000014E   ........           CALL    ReceivePacketUart
     53                          }
     54                          break ;   
   \   00000152   CF8C               RJMP    ??IntHandler_RX_USART0_2
     55                      }
     56                  }
     57              }
     58              OS_LeaveIntStack();
   \                     ??IntHandler_RX_USART0_3:
   \   00000154   94F8               CLI
   \   00000156   ........           CALL    OS__LeaveIntStack
     59              OS_LeaveInterruptNoSwitch();
   \   0000015A   9100....           LDS     R16, OS_InInt
   \   0000015E   2F10               MOV     R17, R16
   \   00000160   951A               DEC     R17
   \   00000162   9310....           STS     OS_InInt, R17
   \   00000166   2300               TST     R16
   \   00000168   F421               BRNE    ??IntHandler_RX_USART0_8
   \   0000016A   E908               LDI     R16, 152
   \   0000016C   E010               LDI     R17, 0
   \   0000016E   ........           CALL    OS_Error
   \                     ??IntHandler_RX_USART0_8:
   \   00000172   9100....           LDS     R16, (OS_Counters + 1)
   \   00000176   950A               DEC     R16
   \   00000178   9300....           STS     (OS_Counters + 1), R16
   \   0000017C   9100....           LDS     R16, OS_Counters
   \   00000180   950A               DEC     R16
   \   00000182   9300....           STS     OS_Counters, R16
     60          } 
   \   00000186   BF9B               OUT     0x3B, R25
   \   00000188   BF8F               OUT     0x3F, R24
   \   0000018A   9109               LD      R16, Y+
   \   0000018C   9119               LD      R17, Y+
   \   0000018E   9129               LD      R18, Y+
   \   00000190   9139               LD      R19, Y+
   \   00000192   9149               LD      R20, Y+
   \   00000194   9159               LD      R21, Y+
   \   00000196   9169               LD      R22, Y+
   \   00000198   9179               LD      R23, Y+
   \   0000019A   9009               LD      R0, Y+
   \   0000019C   9019               LD      R1, Y+
   \   0000019E   9029               LD      R2, Y+
   \   000001A0   9039               LD      R3, Y+
   \   000001A2   91E9               LD      R30, Y+
   \   000001A4   91F9               LD      R31, Y+
   \   000001A6   9189               LD      R24, Y+
   \   000001A8   9199               LD      R25, Y+
   \   000001AA   9518               RETI
   \   000001AC                      REQUIRE _A_UCSR0A
   \   000001AC                      REQUIRE _A_UDR0
     61          
     62          
     63          #pragma vector=USART0_TX_vect

   \                                 In  segment CODE, align 2, keep-with-next
     64          __interrupt void IntHandler_TX_USART0( void ){   
   \                     IntHandler_TX_USART0:
   \   00000000   939A               ST      -Y, R25
   \   00000002   938A               ST      -Y, R24
   \   00000004   93FA               ST      -Y, R31
   \   00000006   93EA               ST      -Y, R30
   \   00000008   923A               ST      -Y, R3
   \   0000000A   922A               ST      -Y, R2
   \   0000000C   921A               ST      -Y, R1
   \   0000000E   920A               ST      -Y, R0
   \   00000010   937A               ST      -Y, R23
   \   00000012   936A               ST      -Y, R22
   \   00000014   935A               ST      -Y, R21
   \   00000016   934A               ST      -Y, R20
   \   00000018   933A               ST      -Y, R19
   \   0000001A   932A               ST      -Y, R18
   \   0000001C   931A               ST      -Y, R17
   \   0000001E   930A               ST      -Y, R16
   \   00000020   B78F               IN      R24, 0x3F
   \   00000022   B79B               IN      R25, 0x3B
     65          
     66             OS_EnterInterrupt();
   \   00000024   9100....           LDS     R16, OS_InInt
   \   00000028   9503               INC     R16
   \   0000002A   9300....           STS     OS_InInt, R16
   \   0000002E   9100....           LDS     R16, OS_Counters
   \   00000032   9503               INC     R16
   \   00000034   9300....           STS     OS_Counters, R16
   \   00000038   9100....           LDS     R16, (OS_Counters + 1)
   \   0000003C   9503               INC     R16
   \   0000003E   9300....           STS     (OS_Counters + 1), R16
     67             OS_EnterIntStack();
   \   00000042   94F8               CLI
   \   00000044   ........           CALL    OS__EnterIntStack
   \   00000048   9100....           LDS     R16, (OS_Counters + 1)
   \   0000004C   7F00               ANDI    R16, 0xF0
   \   0000004E   2300               TST     R16
   \   00000050   F021               BREQ    ??IntHandler_TX_USART0_0
   \   00000052   E909               LDI     R16, 153
   \   00000054   E010               LDI     R17, 0
   \   00000056   ........           CALL    OS_Error
   \                     ??IntHandler_TX_USART0_0:
   \   0000005A   9100....           LDS     R16, (OS_Counters + 1)
   \   0000005E   2300               TST     R16
   \   00000060   F409               BRNE    ??IntHandler_TX_USART0_1
   \   00000062   9478               SEI
     68              
     69              UCSR0B &= ~(__BIT_MASK( TXCIE0)) ;            // transmission end, disable int.
   \                     ??IntHandler_TX_USART0_1:
   \   00000064   910000C1           LDS     R16, 193
   \   00000068   7B0F               ANDI    R16, 0xBF
   \   0000006A   930000C1           STS     193, R16
     70              PORTE &= ~0x04 ;                              // TXE0 off
   \   0000006E   9872               CBI     0x0E, 0x02
     71              OS_StopTimer(&TimerUSART0);                    // and stop timer
   \   00000070   ....               LDI     R16, LOW(TimerUSART0)
   \   00000072   ....               LDI     R17, (TimerUSART0) >> 8
   \   00000074   ........           CALL    OS_StopTimer
     72              GoToSyncUART(0) ;                                    // go to sync modus for recive
   \   00000078   E000               LDI     R16, 0
   \   0000007A   ........           CALL    GoToSyncUART
     73              
     74              OS_LeaveIntStack();
   \   0000007E   94F8               CLI
   \   00000080   ........           CALL    OS__LeaveIntStack
     75              OS_LeaveInterruptNoSwitch();
   \   00000084   9100....           LDS     R16, OS_InInt
   \   00000088   2F10               MOV     R17, R16
   \   0000008A   951A               DEC     R17
   \   0000008C   9310....           STS     OS_InInt, R17
   \   00000090   2300               TST     R16
   \   00000092   F421               BRNE    ??IntHandler_TX_USART0_2
   \   00000094   E908               LDI     R16, 152
   \   00000096   E010               LDI     R17, 0
   \   00000098   ........           CALL    OS_Error
   \                     ??IntHandler_TX_USART0_2:
   \   0000009C   9100....           LDS     R16, (OS_Counters + 1)
   \   000000A0   950A               DEC     R16
   \   000000A2   9300....           STS     (OS_Counters + 1), R16
   \   000000A6   9100....           LDS     R16, OS_Counters
   \   000000AA   950A               DEC     R16
   \   000000AC   9300....           STS     OS_Counters, R16
     76          }
   \   000000B0   BF9B               OUT     0x3B, R25
   \   000000B2   BF8F               OUT     0x3F, R24
   \   000000B4   9109               LD      R16, Y+
   \   000000B6   9119               LD      R17, Y+
   \   000000B8   9129               LD      R18, Y+
   \   000000BA   9139               LD      R19, Y+
   \   000000BC   9149               LD      R20, Y+
   \   000000BE   9159               LD      R21, Y+
   \   000000C0   9169               LD      R22, Y+
   \   000000C2   9179               LD      R23, Y+
   \   000000C4   9009               LD      R0, Y+
   \   000000C6   9019               LD      R1, Y+
   \   000000C8   9029               LD      R2, Y+
   \   000000CA   9039               LD      R3, Y+
   \   000000CC   91E9               LD      R30, Y+
   \   000000CE   91F9               LD      R31, Y+
   \   000000D0   9189               LD      R24, Y+
   \   000000D2   9199               LD      R25, Y+
   \   000000D4   9518               RETI
   \   000000D6                      REQUIRE _A_UCSR0B
   \   000000D6                      REQUIRE _A_PORTE
     77          
     78          
     79          #pragma vector = USART0_UDRE_vect

   \                                 In  segment CODE, align 2, keep-with-next
     80          __interrupt void IntHandler_UDRE_USART0( void ){   
   \                     IntHandler_UDRE_USART0:
   \   00000000   939A               ST      -Y, R25
   \   00000002   938A               ST      -Y, R24
   \   00000004   93FA               ST      -Y, R31
   \   00000006   93EA               ST      -Y, R30
   \   00000008   923A               ST      -Y, R3
   \   0000000A   922A               ST      -Y, R2
   \   0000000C   921A               ST      -Y, R1
   \   0000000E   920A               ST      -Y, R0
   \   00000010   937A               ST      -Y, R23
   \   00000012   936A               ST      -Y, R22
   \   00000014   935A               ST      -Y, R21
   \   00000016   934A               ST      -Y, R20
   \   00000018   933A               ST      -Y, R19
   \   0000001A   932A               ST      -Y, R18
   \   0000001C   931A               ST      -Y, R17
   \   0000001E   930A               ST      -Y, R16
   \   00000020   B78F               IN      R24, 0x3F
   \   00000022   B79B               IN      R25, 0x3B
     81          
     82              OS_EnterInterrupt();
   \   00000024   9100....           LDS     R16, OS_InInt
   \   00000028   9503               INC     R16
   \   0000002A   9300....           STS     OS_InInt, R16
   \   0000002E   9100....           LDS     R16, OS_Counters
   \   00000032   9503               INC     R16
   \   00000034   9300....           STS     OS_Counters, R16
   \   00000038   9100....           LDS     R16, (OS_Counters + 1)
   \   0000003C   9503               INC     R16
   \   0000003E   9300....           STS     (OS_Counters + 1), R16
     83              OS_EnterIntStack();
   \   00000042   94F8               CLI
   \   00000044   ........           CALL    OS__EnterIntStack
   \   00000048   9100....           LDS     R16, (OS_Counters + 1)
   \   0000004C   7F00               ANDI    R16, 0xF0
   \   0000004E   2300               TST     R16
   \   00000050   F021               BREQ    ??IntHandler_UDRE_USART0_0
   \   00000052   E909               LDI     R16, 153
   \   00000054   E010               LDI     R17, 0
   \   00000056   ........           CALL    OS_Error
   \                     ??IntHandler_UDRE_USART0_0:
   \   0000005A   9100....           LDS     R16, (OS_Counters + 1)
   \   0000005E   2300               TST     R16
   \   00000060   F409               BRNE    ??IntHandler_UDRE_USART0_1
   \   00000062   9478               SEI
     84              if ( UART[0].TxCount-- > 0 ) {
   \                     ??IntHandler_UDRE_USART0_1:
   \   00000064   9100....           LDS     R16, (UART + 6)
   \   00000068   9110....           LDS     R17, (UART + 7)
   \   0000006C   01F8               MOVW    R31:R30, R17:R16
   \   0000006E   9731               SBIW    R31:R30, 1
   \   00000070   93E0....           STS     (UART + 6), R30
   \   00000074   93F0....           STS     (UART + 7), R31
   \   00000078   2B01               OR      R16, R17
   \   0000007A   F0B1               BREQ    ??IntHandler_UDRE_USART0_2
     85                  UDR0 = UART[0].pTxBuffer[ UART[0].TxLast ];     // Send a character
   \   0000007C   9100....           LDS     R16, (UART + 4)
   \   00000080   9110....           LDS     R17, (UART + 5)
   \   00000084   91E0....           LDS     R30, UART
   \   00000088   91F0....           LDS     R31, (UART + 1)
   \   0000008C   0FE0               ADD     R30, R16
   \   0000008E   1FF1               ADC     R31, R17
   \   00000090   8100               LD      R16, Z
   \   00000092   9300....           STS     _A_UDR0, R16
     86                  UART[0].TxLast++;
   \   00000096   ....               LDI     R30, LOW(UART)
   \   00000098   ....               LDI     R31, (UART) >> 8
   \   0000009A   8104               LDD     R16, Z+4
   \   0000009C   8115               LDD     R17, Z+5
   \   0000009E   5F0F               SUBI    R16, 255
   \   000000A0   4F1F               SBCI    R17, 255
   \   000000A2   8304               STD     Z+4, R16
   \   000000A4   8315               STD     Z+5, R17
   \   000000A6   C00F               RJMP    ??IntHandler_UDRE_USART0_3
     87              } else{                                             // Last byte sent?
     88                    UCSR0B &= ~(__BIT_MASK( UDRIE0)) ;            // transmission end, disable int.
   \                     ??IntHandler_UDRE_USART0_2:
   \   000000A8   910000C1           LDS     R16, 193
   \   000000AC   7D0F               ANDI    R16, 0xDF
   \   000000AE   930000C1           STS     193, R16
     89                    UCSR0A |= (__BIT_MASK( TXC0)) ;               // Clear int bit in TXC.
   \   000000B2   910000C0           LDS     R16, 192
   \   000000B6   6400               ORI     R16, 0x40
   \   000000B8   930000C0           STS     192, R16
     90                    UCSR0B |= __BIT_MASK( TXCIE0) ;               // Enable TXC int.
   \   000000BC   910000C1           LDS     R16, 193
   \   000000C0   6400               ORI     R16, 0x40
   \   000000C2   930000C1           STS     193, R16
     91              }           
     92              OS_LeaveIntStack();
   \                     ??IntHandler_UDRE_USART0_3:
   \   000000C6   94F8               CLI
   \   000000C8   ........           CALL    OS__LeaveIntStack
     93              OS_LeaveInterruptNoSwitch();
   \   000000CC   9100....           LDS     R16, OS_InInt
   \   000000D0   2F10               MOV     R17, R16
   \   000000D2   951A               DEC     R17
   \   000000D4   9310....           STS     OS_InInt, R17
   \   000000D8   2300               TST     R16
   \   000000DA   F421               BRNE    ??IntHandler_UDRE_USART0_4
   \   000000DC   E908               LDI     R16, 152
   \   000000DE   E010               LDI     R17, 0
   \   000000E0   ........           CALL    OS_Error
   \                     ??IntHandler_UDRE_USART0_4:
   \   000000E4   9100....           LDS     R16, (OS_Counters + 1)
   \   000000E8   950A               DEC     R16
   \   000000EA   9300....           STS     (OS_Counters + 1), R16
   \   000000EE   9100....           LDS     R16, OS_Counters
   \   000000F2   950A               DEC     R16
   \   000000F4   9300....           STS     OS_Counters, R16
     94          } 
   \   000000F8   BF9B               OUT     0x3B, R25
   \   000000FA   BF8F               OUT     0x3F, R24
   \   000000FC   9109               LD      R16, Y+
   \   000000FE   9119               LD      R17, Y+
   \   00000100   9129               LD      R18, Y+
   \   00000102   9139               LD      R19, Y+
   \   00000104   9149               LD      R20, Y+
   \   00000106   9159               LD      R21, Y+
   \   00000108   9169               LD      R22, Y+
   \   0000010A   9179               LD      R23, Y+
   \   0000010C   9009               LD      R0, Y+
   \   0000010E   9019               LD      R1, Y+
   \   00000110   9029               LD      R2, Y+
   \   00000112   9039               LD      R3, Y+
   \   00000114   91E9               LD      R30, Y+
   \   00000116   91F9               LD      R31, Y+
   \   00000118   9189               LD      R24, Y+
   \   0000011A   9199               LD      R25, Y+
   \   0000011C   9518               RETI
   \   0000011E                      REQUIRE _A_UDR0
   \   0000011E                      REQUIRE _A_UCSR0B
   \   0000011E                      REQUIRE _A_UCSR0A
     95          #endif
     96          
     97          // USART1
     98          #pragma vector=USART1_RX_vect

   \                                 In  segment CODE, align 2, keep-with-next
     99          __interrupt void IntHandler_RX_USART1( void ){   
   \                     IntHandler_RX_USART1:
   \   00000000   939A               ST      -Y, R25
   \   00000002   938A               ST      -Y, R24
   \   00000004   93FA               ST      -Y, R31
   \   00000006   93EA               ST      -Y, R30
   \   00000008   923A               ST      -Y, R3
   \   0000000A   922A               ST      -Y, R2
   \   0000000C   921A               ST      -Y, R1
   \   0000000E   920A               ST      -Y, R0
   \   00000010   937A               ST      -Y, R23
   \   00000012   936A               ST      -Y, R22
   \   00000014   935A               ST      -Y, R21
   \   00000016   934A               ST      -Y, R20
   \   00000018   933A               ST      -Y, R19
   \   0000001A   932A               ST      -Y, R18
   \   0000001C   931A               ST      -Y, R17
   \   0000001E   930A               ST      -Y, R16
   \   00000020   B78F               IN      R24, 0x3F
   \   00000022   B79B               IN      R25, 0x3B
    100          
    101              OS_EnterInterrupt();
   \   00000024   9100....           LDS     R16, OS_InInt
   \   00000028   9503               INC     R16
   \   0000002A   9300....           STS     OS_InInt, R16
   \   0000002E   9100....           LDS     R16, OS_Counters
   \   00000032   9503               INC     R16
   \   00000034   9300....           STS     OS_Counters, R16
   \   00000038   9100....           LDS     R16, (OS_Counters + 1)
   \   0000003C   9503               INC     R16
   \   0000003E   9300....           STS     (OS_Counters + 1), R16
    102              OS_EnterIntStack();
   \   00000042   94F8               CLI
   \   00000044   ........           CALL    OS__EnterIntStack
   \   00000048   9100....           LDS     R16, (OS_Counters + 1)
   \   0000004C   7F00               ANDI    R16, 0xF0
   \   0000004E   2300               TST     R16
   \   00000050   F021               BREQ    ??IntHandler_RX_USART1_0
   \   00000052   E909               LDI     R16, 153
   \   00000054   E010               LDI     R17, 0
   \   00000056   ........           CALL    OS_Error
   \                     ??IntHandler_RX_USART1_0:
   \   0000005A   9100....           LDS     R16, (OS_Counters + 1)
   \   0000005E   2300               TST     R16
   \   00000060   F409               BRNE    ??IntHandler_RX_USART1_1
   \   00000062   9478               SEI
    103              if ( UCSR1A & __BIT_MASK( DOR1 ) ) {                // Overrun error? 
   \                     ??IntHandler_RX_USART1_1:
   \   00000064   9100....           LDS     R16, _A_UCSR1A
    104              }
    105          
    106              if ( UCSR1A & __BIT_MASK( FE1 ) ) {                 // Framing error? 
   \   00000068   9110....           LDS     R17, _A_UCSR1A
    107              }
    108          
    109              while ( UCSR1A & __BIT_MASK( RXC1)  ) {                // New byte avaiable?
   \                     ??IntHandler_RX_USART1_2:
   \   0000006C   9100....           LDS     R16, _A_UCSR1A
   \   00000070   2F10               MOV     R17, R16
   \   00000072   FF17               SBRS    R17, 7
   \   00000074   C06F               RJMP    ??IntHandler_RX_USART1_3
    110                  UART[1].pRxBuffer[ UART[1].RxFirst ] = UDR1;    // Read the character 
   \   00000076   9100....           LDS     R16, _A_UDR1
   \   0000007A   91E0....           LDS     R30, (UART + 36)
   \   0000007E   91F0....           LDS     R31, (UART + 37)
   \   00000082   9120....           LDS     R18, (UART + 38)
   \   00000086   9130....           LDS     R19, (UART + 39)
   \   0000008A   0FE2               ADD     R30, R18
   \   0000008C   1FF3               ADC     R31, R19
   \   0000008E   8300               ST      Z, R16
    111          
    112                  if (UART[1].RxState != HANDLE) {                // ok to receive? 
   \   00000090   9100....           LDS     R16, (UART + 44)
   \   00000094   300A               CPI     R16, 10
   \   00000096   F351               BREQ    ??IntHandler_RX_USART1_2
    113                      switch (UART[1].RxState) {                   // Yes, check state
   \   00000098   9100....           LDS     R16, (UART + 44)
   \   0000009C   2300               TST     R16
   \   0000009E   F009               BREQ    $+2+2
   \   000000A0   C041               RJMP    ??IntHandler_RX_USART1_4
    114                      case SYNC :
    115                          if ( UART[1].pRxBuffer[ UART[1].RxFirst ] == ANPRO10_SYN) {
   \   000000A2   91E0....           LDS     R30, (UART + 36)
   \   000000A6   91F0....           LDS     R31, (UART + 37)
   \   000000AA   9100....           LDS     R16, (UART + 38)
   \   000000AE   9110....           LDS     R17, (UART + 39)
   \   000000B2   0FE0               ADD     R30, R16
   \   000000B4   1FF1               ADC     R31, R17
   \   000000B6   8100               LD      R16, Z
   \   000000B8   3106               CPI     R16, 22
   \   000000BA   F461               BRNE    ??IntHandler_RX_USART1_5
    116                              UART[1].SyncCnt ++ ;                 // count sync
   \   000000BC   9100....           LDS     R16, (UART + 45)
   \   000000C0   9503               INC     R16
   \   000000C2   9300....           STS     (UART + 45), R16
    117                              UART[1].RxFirst = 0;                 // start at start of buff
   \   000000C6   E000               LDI     R16, 0
   \   000000C8   9300....           STS     (UART + 38), R16
   \   000000CC   E000               LDI     R16, 0
   \   000000CE   9300....           STS     (UART + 39), R16
   \   000000D2   CFCC               RJMP    ??IntHandler_RX_USART1_2
    118                          } else if ((UART[1].SyncCnt >= 2) && 
    119                                     (UART[1].pRxBuffer[ UART[1].RxFirst ] == ANPRO10_SOH)) {       // minimum two sync bytes
   \                     ??IntHandler_RX_USART1_5:
   \   000000D4   9100....           LDS     R16, (UART + 45)
   \   000000D8   3002               CPI     R16, 2
   \   000000DA   F100               BRCS    ??IntHandler_RX_USART1_6
   \   000000DC   91E0....           LDS     R30, (UART + 36)
   \   000000E0   91F0....           LDS     R31, (UART + 37)
   \   000000E4   9100....           LDS     R16, (UART + 38)
   \   000000E8   9110....           LDS     R17, (UART + 39)
   \   000000EC   0FE0               ADD     R30, R16
   \   000000EE   1FF1               ADC     R31, R17
   \   000000F0   8100               LD      R16, Z
   \   000000F2   3001               CPI     R16, 1
   \   000000F4   F499               BRNE    ??IntHandler_RX_USART1_6
    120                              UART[1].SyncCnt = 0 ;                // reset counter
   \   000000F6   E000               LDI     R16, 0
   \   000000F8   9300....           STS     (UART + 45), R16
    121                              UART[1].RxState = HEADER ;
   \   000000FC   E001               LDI     R16, 1
   \   000000FE   9300....           STS     (UART + 44), R16
    122                              UART[1].RxLast = 0 ;
   \   00000102   E000               LDI     R16, 0
   \   00000104   9300....           STS     (UART + 40), R16
   \   00000108   E000               LDI     R16, 0
   \   0000010A   9300....           STS     (UART + 41), R16
    123                              UART[1].RxTimeout = RX_TO_TIME ;      // reset timeout
   \   0000010E   EF0A               LDI     R16, 250
   \   00000110   9300....           STS     (UART + 46), R16
   \   00000114   E000               LDI     R16, 0
   \   00000116   9300....           STS     (UART + 47), R16
   \   0000011A   CFA8               RJMP    ??IntHandler_RX_USART1_2
    124                          } else {
    125                              UART[1].SyncCnt = 0 ;                // start over once more
   \                     ??IntHandler_RX_USART1_6:
   \   0000011C   E000               LDI     R16, 0
   \   0000011E   9300....           STS     (UART + 45), R16
    126                          }
    127                          break;
   \   00000122   CFA4               RJMP    ??IntHandler_RX_USART1_2
    128                      default :
    129                          if ((++UART[1].RxFirst) > RXSIZE_UART) { // Point to next location
   \                     ??IntHandler_RX_USART1_4:
   \   00000124   ....               LDI     R30, LOW(UART)
   \   00000126   ....               LDI     R31, (UART) >> 8
   \   00000128   A106               LDD     R16, Z+38
   \   0000012A   A117               LDD     R17, Z+39
   \   0000012C   5F0F               SUBI    R16, 255
   \   0000012E   4F1F               SBCI    R17, 255
   \   00000130   A306               STD     Z+38, R16
   \   00000132   A317               STD     Z+39, R17
   \   00000134   9100....           LDS     R16, (UART + 38)
   \   00000138   9110....           LDS     R17, (UART + 39)
   \   0000013C   3907               CPI     R16, 151
   \   0000013E   E020               LDI     R18, 0
   \   00000140   0712               CPC     R17, R18
   \   00000142   F020               BRCS    ??IntHandler_RX_USART1_7
    130                              GoToSyncUART(1) ;                    // go to sync mode
   \   00000144   E001               LDI     R16, 1
   \   00000146   ........           CALL    GoToSyncUART
   \   0000014A   CF90               RJMP    ??IntHandler_RX_USART1_2
    131                          } else {
    132                              ReceivePacketUart(1) ;              // Check package
   \                     ??IntHandler_RX_USART1_7:
   \   0000014C   E001               LDI     R16, 1
   \   0000014E   ........           CALL    ReceivePacketUart
    133                          }
    134                          break ;   
   \   00000152   CF8C               RJMP    ??IntHandler_RX_USART1_2
    135                      }
    136                  }
    137              }
    138             OS_LeaveIntStack();
   \                     ??IntHandler_RX_USART1_3:
   \   00000154   94F8               CLI
   \   00000156   ........           CALL    OS__LeaveIntStack
    139             OS_LeaveInterruptNoSwitch();
   \   0000015A   9100....           LDS     R16, OS_InInt
   \   0000015E   2F10               MOV     R17, R16
   \   00000160   951A               DEC     R17
   \   00000162   9310....           STS     OS_InInt, R17
   \   00000166   2300               TST     R16
   \   00000168   F421               BRNE    ??IntHandler_RX_USART1_8
   \   0000016A   E908               LDI     R16, 152
   \   0000016C   E010               LDI     R17, 0
   \   0000016E   ........           CALL    OS_Error
   \                     ??IntHandler_RX_USART1_8:
   \   00000172   9100....           LDS     R16, (OS_Counters + 1)
   \   00000176   950A               DEC     R16
   \   00000178   9300....           STS     (OS_Counters + 1), R16
   \   0000017C   9100....           LDS     R16, OS_Counters
   \   00000180   950A               DEC     R16
   \   00000182   9300....           STS     OS_Counters, R16
    140          } 
   \   00000186   BF9B               OUT     0x3B, R25
   \   00000188   BF8F               OUT     0x3F, R24
   \   0000018A   9109               LD      R16, Y+
   \   0000018C   9119               LD      R17, Y+
   \   0000018E   9129               LD      R18, Y+
   \   00000190   9139               LD      R19, Y+
   \   00000192   9149               LD      R20, Y+
   \   00000194   9159               LD      R21, Y+
   \   00000196   9169               LD      R22, Y+
   \   00000198   9179               LD      R23, Y+
   \   0000019A   9009               LD      R0, Y+
   \   0000019C   9019               LD      R1, Y+
   \   0000019E   9029               LD      R2, Y+
   \   000001A0   9039               LD      R3, Y+
   \   000001A2   91E9               LD      R30, Y+
   \   000001A4   91F9               LD      R31, Y+
   \   000001A6   9189               LD      R24, Y+
   \   000001A8   9199               LD      R25, Y+
   \   000001AA   9518               RETI
   \   000001AC                      REQUIRE _A_UCSR1A
   \   000001AC                      REQUIRE _A_UDR1
    141          
    142          
    143          #pragma vector=USART1_TX_vect

   \                                 In  segment CODE, align 2, keep-with-next
    144          __interrupt void IntHandler_TX_USART1( void ){   
   \                     IntHandler_TX_USART1:
   \   00000000   939A               ST      -Y, R25
   \   00000002   938A               ST      -Y, R24
   \   00000004   93FA               ST      -Y, R31
   \   00000006   93EA               ST      -Y, R30
   \   00000008   923A               ST      -Y, R3
   \   0000000A   922A               ST      -Y, R2
   \   0000000C   921A               ST      -Y, R1
   \   0000000E   920A               ST      -Y, R0
   \   00000010   937A               ST      -Y, R23
   \   00000012   936A               ST      -Y, R22
   \   00000014   935A               ST      -Y, R21
   \   00000016   934A               ST      -Y, R20
   \   00000018   933A               ST      -Y, R19
   \   0000001A   932A               ST      -Y, R18
   \   0000001C   931A               ST      -Y, R17
   \   0000001E   930A               ST      -Y, R16
   \   00000020   B78F               IN      R24, 0x3F
   \   00000022   B79B               IN      R25, 0x3B
    145          
    146              OS_EnterInterrupt();
   \   00000024   9100....           LDS     R16, OS_InInt
   \   00000028   9503               INC     R16
   \   0000002A   9300....           STS     OS_InInt, R16
   \   0000002E   9100....           LDS     R16, OS_Counters
   \   00000032   9503               INC     R16
   \   00000034   9300....           STS     OS_Counters, R16
   \   00000038   9100....           LDS     R16, (OS_Counters + 1)
   \   0000003C   9503               INC     R16
   \   0000003E   9300....           STS     (OS_Counters + 1), R16
    147              OS_EnterIntStack();
   \   00000042   94F8               CLI
   \   00000044   ........           CALL    OS__EnterIntStack
   \   00000048   9100....           LDS     R16, (OS_Counters + 1)
   \   0000004C   7F00               ANDI    R16, 0xF0
   \   0000004E   2300               TST     R16
   \   00000050   F021               BREQ    ??IntHandler_TX_USART1_0
   \   00000052   E909               LDI     R16, 153
   \   00000054   E010               LDI     R17, 0
   \   00000056   ........           CALL    OS_Error
   \                     ??IntHandler_TX_USART1_0:
   \   0000005A   9100....           LDS     R16, (OS_Counters + 1)
   \   0000005E   2300               TST     R16
   \   00000060   F409               BRNE    ??IntHandler_TX_USART1_1
   \   00000062   9478               SEI
    148              UCSR1B &= ~(__BIT_MASK( TXCIE1)) ;            // transmission end, disable int.
   \                     ??IntHandler_TX_USART1_1:
   \   00000064   910000C9           LDS     R16, 201
   \   00000068   7B0F               ANDI    R16, 0xBF
   \   0000006A   930000C9           STS     201, R16
    149              PORTE &= ~0x08 ;                              // TXE1 off
   \   0000006E   9873               CBI     0x0E, 0x03
    150              OS_StopTimer(&TimerUSART1);                    // and stop timer
   \   00000070   ....               LDI     R16, LOW(TimerUSART1)
   \   00000072   ....               LDI     R17, (TimerUSART1) >> 8
   \   00000074   ........           CALL    OS_StopTimer
    151              GoToSyncUART(1) ;                                    // go to sync modus for recive
   \   00000078   E001               LDI     R16, 1
   \   0000007A   ........           CALL    GoToSyncUART
    152              OS_LeaveIntStack();
   \   0000007E   94F8               CLI
   \   00000080   ........           CALL    OS__LeaveIntStack
    153              OS_LeaveInterruptNoSwitch();
   \   00000084   9100....           LDS     R16, OS_InInt
   \   00000088   2F10               MOV     R17, R16
   \   0000008A   951A               DEC     R17
   \   0000008C   9310....           STS     OS_InInt, R17
   \   00000090   2300               TST     R16
   \   00000092   F421               BRNE    ??IntHandler_TX_USART1_2
   \   00000094   E908               LDI     R16, 152
   \   00000096   E010               LDI     R17, 0
   \   00000098   ........           CALL    OS_Error
   \                     ??IntHandler_TX_USART1_2:
   \   0000009C   9100....           LDS     R16, (OS_Counters + 1)
   \   000000A0   950A               DEC     R16
   \   000000A2   9300....           STS     (OS_Counters + 1), R16
   \   000000A6   9100....           LDS     R16, OS_Counters
   \   000000AA   950A               DEC     R16
   \   000000AC   9300....           STS     OS_Counters, R16
    154          }
   \   000000B0   BF9B               OUT     0x3B, R25
   \   000000B2   BF8F               OUT     0x3F, R24
   \   000000B4   9109               LD      R16, Y+
   \   000000B6   9119               LD      R17, Y+
   \   000000B8   9129               LD      R18, Y+
   \   000000BA   9139               LD      R19, Y+
   \   000000BC   9149               LD      R20, Y+
   \   000000BE   9159               LD      R21, Y+
   \   000000C0   9169               LD      R22, Y+
   \   000000C2   9179               LD      R23, Y+
   \   000000C4   9009               LD      R0, Y+
   \   000000C6   9019               LD      R1, Y+
   \   000000C8   9029               LD      R2, Y+
   \   000000CA   9039               LD      R3, Y+
   \   000000CC   91E9               LD      R30, Y+
   \   000000CE   91F9               LD      R31, Y+
   \   000000D0   9189               LD      R24, Y+
   \   000000D2   9199               LD      R25, Y+
   \   000000D4   9518               RETI
   \   000000D6                      REQUIRE _A_UCSR1B
   \   000000D6                      REQUIRE _A_PORTE
    155          
    156          
    157          #pragma vector = USART1_UDRE_vect

   \                                 In  segment CODE, align 2, keep-with-next
    158          __interrupt void IntHandler_UDRE_USART1( void ){   
   \                     IntHandler_UDRE_USART1:
   \   00000000   939A               ST      -Y, R25
   \   00000002   938A               ST      -Y, R24
   \   00000004   93FA               ST      -Y, R31
   \   00000006   93EA               ST      -Y, R30
   \   00000008   923A               ST      -Y, R3
   \   0000000A   922A               ST      -Y, R2
   \   0000000C   921A               ST      -Y, R1
   \   0000000E   920A               ST      -Y, R0
   \   00000010   937A               ST      -Y, R23
   \   00000012   936A               ST      -Y, R22
   \   00000014   935A               ST      -Y, R21
   \   00000016   934A               ST      -Y, R20
   \   00000018   933A               ST      -Y, R19
   \   0000001A   932A               ST      -Y, R18
   \   0000001C   931A               ST      -Y, R17
   \   0000001E   930A               ST      -Y, R16
   \   00000020   B78F               IN      R24, 0x3F
   \   00000022   B79B               IN      R25, 0x3B
    159          
    160             OS_EnterInterrupt();
   \   00000024   9100....           LDS     R16, OS_InInt
   \   00000028   9503               INC     R16
   \   0000002A   9300....           STS     OS_InInt, R16
   \   0000002E   9100....           LDS     R16, OS_Counters
   \   00000032   9503               INC     R16
   \   00000034   9300....           STS     OS_Counters, R16
   \   00000038   9100....           LDS     R16, (OS_Counters + 1)
   \   0000003C   9503               INC     R16
   \   0000003E   9300....           STS     (OS_Counters + 1), R16
    161             OS_EnterIntStack();
   \   00000042   94F8               CLI
   \   00000044   ........           CALL    OS__EnterIntStack
   \   00000048   9100....           LDS     R16, (OS_Counters + 1)
   \   0000004C   7F00               ANDI    R16, 0xF0
   \   0000004E   2300               TST     R16
   \   00000050   F021               BREQ    ??IntHandler_UDRE_USART1_0
   \   00000052   E909               LDI     R16, 153
   \   00000054   E010               LDI     R17, 0
   \   00000056   ........           CALL    OS_Error
   \                     ??IntHandler_UDRE_USART1_0:
   \   0000005A   9100....           LDS     R16, (OS_Counters + 1)
   \   0000005E   2300               TST     R16
   \   00000060   F409               BRNE    ??IntHandler_UDRE_USART1_1
   \   00000062   9478               SEI
    162               if ( UART[1].TxCount-- > 0 ) {
   \                     ??IntHandler_UDRE_USART1_1:
   \   00000064   9100....           LDS     R16, (UART + 32)
   \   00000068   9110....           LDS     R17, (UART + 33)
   \   0000006C   01F8               MOVW    R31:R30, R17:R16
   \   0000006E   9731               SBIW    R31:R30, 1
   \   00000070   93E0....           STS     (UART + 32), R30
   \   00000074   93F0....           STS     (UART + 33), R31
   \   00000078   2B01               OR      R16, R17
   \   0000007A   F0B1               BREQ    ??IntHandler_UDRE_USART1_2
    163                  UDR1 = UART[1].pTxBuffer[ UART[1].TxLast ];  // Send a character
   \   0000007C   91E0....           LDS     R30, (UART + 26)
   \   00000080   91F0....           LDS     R31, (UART + 27)
   \   00000084   9100....           LDS     R16, (UART + 30)
   \   00000088   9110....           LDS     R17, (UART + 31)
   \   0000008C   0FE0               ADD     R30, R16
   \   0000008E   1FF1               ADC     R31, R17
   \   00000090   8100               LD      R16, Z
   \   00000092   9300....           STS     _A_UDR1, R16
    164                  UART[1].TxLast++;
   \   00000096   ....               LDI     R30, LOW(UART)
   \   00000098   ....               LDI     R31, (UART) >> 8
   \   0000009A   8D06               LDD     R16, Z+30
   \   0000009C   8D17               LDD     R17, Z+31
   \   0000009E   5F0F               SUBI    R16, 255
   \   000000A0   4F1F               SBCI    R17, 255
   \   000000A2   8F06               STD     Z+30, R16
   \   000000A4   8F17               STD     Z+31, R17
   \   000000A6   C00F               RJMP    ??IntHandler_UDRE_USART1_3
    165               } else {
    166                  UCSR1B &= ~(__BIT_MASK( UDRIE1)) ;            // transmission end, disable int.
   \                     ??IntHandler_UDRE_USART1_2:
   \   000000A8   910000C9           LDS     R16, 201
   \   000000AC   7D0F               ANDI    R16, 0xDF
   \   000000AE   930000C9           STS     201, R16
    167                  UCSR1A |= (__BIT_MASK( TXC1)) ;               // Clear int bit in TXC.
   \   000000B2   910000C8           LDS     R16, 200
   \   000000B6   6400               ORI     R16, 0x40
   \   000000B8   930000C8           STS     200, R16
    168                  UCSR1B |= __BIT_MASK( TXCIE1) ;               // Enable TXC int.
   \   000000BC   910000C9           LDS     R16, 201
   \   000000C0   6400               ORI     R16, 0x40
   \   000000C2   930000C9           STS     201, R16
    169               }
    170              OS_LeaveIntStack();
   \                     ??IntHandler_UDRE_USART1_3:
   \   000000C6   94F8               CLI
   \   000000C8   ........           CALL    OS__LeaveIntStack
    171              OS_LeaveInterruptNoSwitch();
   \   000000CC   9100....           LDS     R16, OS_InInt
   \   000000D0   2F10               MOV     R17, R16
   \   000000D2   951A               DEC     R17
   \   000000D4   9310....           STS     OS_InInt, R17
   \   000000D8   2300               TST     R16
   \   000000DA   F421               BRNE    ??IntHandler_UDRE_USART1_4
   \   000000DC   E908               LDI     R16, 152
   \   000000DE   E010               LDI     R17, 0
   \   000000E0   ........           CALL    OS_Error
   \                     ??IntHandler_UDRE_USART1_4:
   \   000000E4   9100....           LDS     R16, (OS_Counters + 1)
   \   000000E8   950A               DEC     R16
   \   000000EA   9300....           STS     (OS_Counters + 1), R16
   \   000000EE   9100....           LDS     R16, OS_Counters
   \   000000F2   950A               DEC     R16
   \   000000F4   9300....           STS     OS_Counters, R16
    172          } 
   \   000000F8   BF9B               OUT     0x3B, R25
   \   000000FA   BF8F               OUT     0x3F, R24
   \   000000FC   9109               LD      R16, Y+
   \   000000FE   9119               LD      R17, Y+
   \   00000100   9129               LD      R18, Y+
   \   00000102   9139               LD      R19, Y+
   \   00000104   9149               LD      R20, Y+
   \   00000106   9159               LD      R21, Y+
   \   00000108   9169               LD      R22, Y+
   \   0000010A   9179               LD      R23, Y+
   \   0000010C   9009               LD      R0, Y+
   \   0000010E   9019               LD      R1, Y+
   \   00000110   9029               LD      R2, Y+
   \   00000112   9039               LD      R3, Y+
   \   00000114   91E9               LD      R30, Y+
   \   00000116   91F9               LD      R31, Y+
   \   00000118   9189               LD      R24, Y+
   \   0000011A   9199               LD      R25, Y+
   \   0000011C   9518               RETI
   \   0000011E                      REQUIRE _A_UDR1
   \   0000011E                      REQUIRE _A_UCSR1B
   \   0000011E                      REQUIRE _A_UCSR1A

   \                                 In  segment INTVEC, offset 0x64, root
   \                     `??IntHandler_RX_USART0::??INTVEC 100`:
   \   00000064   ........           JMP     IntHandler_RX_USART0

   \                                 In  segment INTVEC, offset 0x68, root
   \                     `??IntHandler_UDRE_USART0::??INTVEC 104`:
   \   00000068   ........           JMP     IntHandler_UDRE_USART0

   \                                 In  segment INTVEC, offset 0x6c, root
   \                     `??IntHandler_TX_USART0::??INTVEC 108`:
   \   0000006C   ........           JMP     IntHandler_TX_USART0

   \                                 In  segment INTVEC, offset 0x90, root
   \                     `??IntHandler_RX_USART1::??INTVEC 144`:
   \   00000090   ........           JMP     IntHandler_RX_USART1

   \                                 In  segment INTVEC, offset 0x94, root
   \                     `??IntHandler_UDRE_USART1::??INTVEC 148`:
   \   00000094   ........           JMP     IntHandler_UDRE_USART1

   \                                 In  segment INTVEC, offset 0x98, root
   \                     `??IntHandler_TX_USART1::??INTVEC 152`:
   \   00000098   ........           JMP     IntHandler_TX_USART1

   Maximum stack usage in bytes:

   CSTACK RSTACK Function
   ------ ------ --------
     16      2   IntHandler_RX_USART0
       16      2   -> GoToSyncUART
       16      2   -> OS_Error
       16      2   -> OS__EnterIntStack
       16      2   -> OS__LeaveIntStack
       16      2   -> ReceivePacketUart
     16      2   IntHandler_RX_USART1
       16      2   -> GoToSyncUART
       16      2   -> OS_Error
       16      2   -> OS__EnterIntStack
       16      2   -> OS__LeaveIntStack
       16      2   -> ReceivePacketUart
     16      2   IntHandler_TX_USART0
       16      2   -> GoToSyncUART
       16      2   -> OS_Error
       16      2   -> OS_StopTimer
       16      2   -> OS__EnterIntStack
       16      2   -> OS__LeaveIntStack
     16      2   IntHandler_TX_USART1
       16      2   -> GoToSyncUART
       16      2   -> OS_Error
       16      2   -> OS_StopTimer
       16      2   -> OS__EnterIntStack
       16      2   -> OS__LeaveIntStack
     16      2   IntHandler_UDRE_USART0
       16      2   -> OS_Error
       16      2   -> OS__EnterIntStack
       16      2   -> OS__LeaveIntStack
     16      2   IntHandler_UDRE_USART1
       16      2   -> OS_Error
       16      2   -> OS__EnterIntStack
       16      2   -> OS__LeaveIntStack


   Segment part sizes:

   Bytes  Function/Label
   -----  --------------
     428  IntHandler_RX_USART0
       4  IntHandler_RX_USART0::??INTVEC 100
     428  IntHandler_RX_USART1
       4  IntHandler_RX_USART1::??INTVEC 144
     214  IntHandler_TX_USART0
       4  IntHandler_TX_USART0::??INTVEC 108
     214  IntHandler_TX_USART1
       4  IntHandler_TX_USART1::??INTVEC 152
     286  IntHandler_UDRE_USART0
       4  IntHandler_UDRE_USART0::??INTVEC 104
     286  IntHandler_UDRE_USART1
       4  IntHandler_UDRE_USART1::??INTVEC 148
       1  _A_PORTE
       1  _A_UCSR0A
       1  _A_UCSR0B
       1  _A_UCSR1A
       1  _A_UCSR1B
       1  _A_UDR0
       1  _A_UDR1

 
     7 bytes in segment ABSOLUTE
 1 856 bytes in segment CODE
    24 bytes in segment INTVEC
 
 1 856 bytes of CODE memory (+ 24 bytes shared)
     0 bytes of DATA memory (+  7 bytes shared)

Errors: none
Warnings: none
