###############################################################################
#
# IAR C/C++ Compiler V7.30.5.1680 for Microchip AVR       21/Nov/2023  09:48:26
# Copyright 1996-2022 IAR Systems AB.
# Mobile license - IAR Embedded Workbench for Microchip AVR 8.10
#
#    Source file  =  
#        C:\Users\ESY\OneDrive -
#        Scanjet\Documents\GitHub\S2Prog\IO\ANZB_ATmega1281\Src\eeprom.c
#    Command line =  
#        -f C:\Users\ESY\AppData\Local\Temp\EWAE20.tmp ("C:\Users\ESY\OneDrive
#        - Scanjet\Documents\GitHub\S2Prog\IO\ANZB_ATmega1281\Src\eeprom.c"
#        --cpu=m1281 -ms -o "C:\Users\ESY\OneDrive -
#        Scanjet\Documents\GitHub\S2Prog\IO\ANZB_ATmega1281\Debug\Obj" -D
#        OS_LIBMODE_D -D OS_UART=-1 -D USE_16552_DRIVER_TASK=1 -D
#        USE_MODBUS_PROTOCOL=0 -D ANZBANA_V8=0 -D __ATMEGA_1281__ -lCN
#        "C:\Users\ESY\OneDrive -
#        Scanjet\Documents\GitHub\S2Prog\IO\ANZB_ATmega1281\Debug\List" -y
#        --initializers_in_flash --no_cse --no_inline --no_code_motion
#        --no_cross_call --no_clustering --no_tbaa --debug
#        -DENABLE_BIT_DEFINITIONS -e -I "C:\Users\ESY\OneDrive -
#        Scanjet\Documents\GitHub\S2Prog\IO\ANZB_ATmega1281\INC\\" -I
#        "C:\Users\ESY\OneDrive -
#        Scanjet\Documents\GitHub\S2Prog\IO\ANZB_ATmega1281\..\..\SHARED\INC\\"
#        --eeprom_size 4096 --clib -On)
#    Locale       =  English_USA.1252
#    List file    =  
#        C:\Users\ESY\OneDrive -
#        Scanjet\Documents\GitHub\S2Prog\IO\ANZB_ATmega1281\Debug\List\eeprom.lst
#    Object file  =  
#        C:\Users\ESY\OneDrive -
#        Scanjet\Documents\GitHub\S2Prog\IO\ANZB_ATmega1281\Debug\Obj\eeprom.r90
#
###############################################################################

C:\Users\ESY\OneDrive - Scanjet\Documents\GitHub\S2Prog\IO\ANZB_ATmega1281\Src\eeprom.c
      1          /****************************************************************************************
      2          / Read and write the eeprom
      3          /
      4          ***************************************************************************************/
      5          #include "iom1281.h"

   \                                 In  segment ABSOLUTE, at 0x60
   \   union <unnamed> volatile __io _A_WDTCSR
   \                     _A_WDTCSR:
   \   00000000                      DS8 1

   \                                 In  segment ABSOLUTE, at 0x41
   \   union <unnamed> volatile __io _A_EEAR
   \                     _A_EEAR:
   \   00000000                      DS8 2

   \                                 In  segment ABSOLUTE, at 0x40
   \   union <unnamed> volatile __io _A_EEDR
   \                     _A_EEDR:
   \   00000000                      DS8 1

   \                                 In  segment ABSOLUTE, at 0x3f
   \   union <unnamed> volatile __io _A_EECR
   \                     _A_EECR:
   \   00000000                      DS8 1
      6          #include "stdio.h"
      7          #include "math.h"
      8          #include "externals.h"
      9          #include "version.h"
     10          #include "inavr.h"
     11          
     12          
     13          /*---------------------------------------------------------------------------
     14          **
     15          **  See how many date i remining
     16          **
     17          **--------------------------------------------------------------------------*/

   \                                 In  segment CODE, align 2, keep-with-next
     18          char TestEEPROM( void ) {
   \                     TestEEPROM:
     19          
     20              return WriteCount;
   \   00000000   9100....           LDS     R16, WriteCount
   \   00000004   9508               RET
     21          }
     22          
     23          /*---------------------------------------------------------------------------
     24          **
     25          **  Reads an address in the eeprom
     26          **
     27          **--------------------------------------------------------------------------*/

   \                                 In  segment CODE, align 2, keep-with-next
     28          char ReadEEPROMByte( unsigned int Address ) {
   \                     ReadEEPROMByte:
   \   00000000   ........           CALL    ?PROLOGUE3_L09
   \   00000004   01C8               MOVW    R25:R24, R17:R16
     29          
     30              unsigned char Data;
     31          
     32              while (EECR & (1<<EEPE))     // Wait until ready
   \                     ??ReadEEPROMByte_0:
   \   00000006   99F9               SBIC    0x1F, 0x01
   \   00000008   CFFE               RJMP    ??ReadEEPROMByte_0
     33                  ;
     34              OS_IncDI();
   \   0000000A   9100....           LDS     R16, (OS_Global + 1)
   \   0000000E   7F00               ANDI    R16, 0xF0
   \   00000010   2300               TST     R16
   \   00000012   F021               BREQ    ??ReadEEPROMByte_1
   \   00000014   E909               LDI     R16, 153
   \   00000016   E010               LDI     R17, 0
   \   00000018   ........           CALL    OS_Error
   \                     ??ReadEEPROMByte_1:
   \   0000001C   94F8               cli
   \   0000001E   9100....           LDS     R16, (OS_Global + 1)
   \   00000022   9503               INC     R16
   \   00000024   9300....           STS     (OS_Global + 1), R16
     35              EEAR = Address;
   \   00000028   BD92               OUT     0x22, R25
   \   0000002A   BD81               OUT     0x21, R24
     36              EECR |= (1 << EERE) ;       // Don't use SetBit macrod due to timing
   \   0000002C   9AF8               SBI     0x1F, 0x00
     37              OS_DecRI();
   \   0000002E   9100....           LDS     R16, (OS_Global + 1)
   \   00000032   7F00               ANDI    R16, 0xF0
   \   00000034   2300               TST     R16
   \   00000036   F021               BREQ    ??ReadEEPROMByte_2
   \   00000038   E909               LDI     R16, 153
   \   0000003A   E010               LDI     R17, 0
   \   0000003C   ........           CALL    OS_Error
   \                     ??ReadEEPROMByte_2:
   \   00000040   9100....           LDS     R16, (OS_Global + 1)
   \   00000044   950A               DEC     R16
   \   00000046   9300....           STS     (OS_Global + 1), R16
   \   0000004A   9100....           LDS     R16, (OS_Global + 1)
   \   0000004E   2300               TST     R16
   \   00000050   F409               BRNE    ??ReadEEPROMByte_3
   \   00000052   9478               sei
     38          
     39              Data = EEDR;
   \                     ??ReadEEPROMByte_3:
   \   00000054   B500               IN      R16, 0x20
   \   00000056   2FA0               MOV     R26, R16
     40              return Data;
   \   00000058   2F0A               MOV     R16, R26
   \   0000005A   E0E3               LDI     R30, 3
   \   0000005C   ........           JMP     ?EPILOGUE_B3_L09
   \   00000060                      REQUIRE _A_EECR
   \   00000060                      REQUIRE _A_EEAR
   \   00000060                      REQUIRE _A_EEDR
     41          
     42          }
     43          
     44          /*---------------------------------------------------------------------------
     45          **
     46          **  Write a caracther to the eeprom
     47          **
     48          **--------------------------------------------------------------------------*/

   \                                 In  segment CODE, align 2, keep-with-next
     49          void WriteEEPROMByte( unsigned int Address, char Data ) {   
   \                     WriteEEPROMByte:
   \   00000000   ........           CALL    ?PROLOGUE3_L09
   \   00000004   01C8               MOVW    R25:R24, R17:R16
   \   00000006   2FA2               MOV     R26, R18
     50          
     51              while (EECR & (1<<EEPE))     // Wait until ready
   \                     ??WriteEEPROMByte_0:
   \   00000008   99F9               SBIC    0x1F, 0x01
   \   0000000A   CFFE               RJMP    ??WriteEEPROMByte_0
     52                  ;
     53              OS_IncDI();
   \   0000000C   9100....           LDS     R16, (OS_Global + 1)
   \   00000010   7F00               ANDI    R16, 0xF0
   \   00000012   2300               TST     R16
   \   00000014   F021               BREQ    ??WriteEEPROMByte_1
   \   00000016   E909               LDI     R16, 153
   \   00000018   E010               LDI     R17, 0
   \   0000001A   ........           CALL    OS_Error
   \                     ??WriteEEPROMByte_1:
   \   0000001E   94F8               cli
   \   00000020   9100....           LDS     R16, (OS_Global + 1)
   \   00000024   9503               INC     R16
   \   00000026   9300....           STS     (OS_Global + 1), R16
     54              EEAR = Address;
   \   0000002A   BD92               OUT     0x22, R25
   \   0000002C   BD81               OUT     0x21, R24
     55              EEDR = Data;
   \   0000002E   BDA0               OUT     0x20, R26
     56              EECR |= (1 << EEMPE) ;       // Don't use SetBit macrod due to timing
   \   00000030   9AFA               SBI     0x1F, 0x02
     57              EECR |= (1 << EEPE) ;        // Don't use SetBit macrod due to timing
   \   00000032   9AF9               SBI     0x1F, 0x01
     58              OS_DecRI();
   \   00000034   9100....           LDS     R16, (OS_Global + 1)
   \   00000038   7F00               ANDI    R16, 0xF0
   \   0000003A   2300               TST     R16
   \   0000003C   F021               BREQ    ??WriteEEPROMByte_2
   \   0000003E   E909               LDI     R16, 153
   \   00000040   E010               LDI     R17, 0
   \   00000042   ........           CALL    OS_Error
   \                     ??WriteEEPROMByte_2:
   \   00000046   9100....           LDS     R16, (OS_Global + 1)
   \   0000004A   950A               DEC     R16
   \   0000004C   9300....           STS     (OS_Global + 1), R16
   \   00000050   9100....           LDS     R16, (OS_Global + 1)
   \   00000054   2300               TST     R16
   \   00000056   F409               BRNE    ??WriteEEPROMByte_3
   \   00000058   9478               sei
     59          }
   \                     ??WriteEEPROMByte_3:
   \   0000005A   E0E3               LDI     R30, 3
   \   0000005C   ........           JMP     ?EPILOGUE_B3_L09
   \   00000060                      REQUIRE _A_EECR
   \   00000060                      REQUIRE _A_EEAR
   \   00000060                      REQUIRE _A_EEDR
     60          
     61          /*---------------------------------------------------------------------------
     62          **
     63          **  Read a tring from the eeprom
     64          **
     65          **--------------------------------------------------------------------------*/

   \                                 In  segment CODE, align 2, keep-with-next
     66          void ReadEEPROMBuffer( unsigned int Address, char Size, char *pData ) {   
   \                     ReadEEPROMBuffer:
   \   00000000   ........           CALL    ?PROLOGUE8_L09
   \   00000004                      REQUIRE ?Register_R4_is_cg_reg
   \   00000004                      REQUIRE ?Register_R5_is_cg_reg
   \   00000004                      REQUIRE ?Register_R6_is_cg_reg
   \   00000004                      REQUIRE ?Register_R7_is_cg_reg
   \   00000004   0128               MOVW    R5:R4, R17:R16
   \   00000006   2E62               MOV     R6, R18
   \   00000008   01DA               MOVW    R27:R26, R21:R20
     67              unsigned int Index;
     68          
     69              for ( Index = 0; Index < Size; Index++ ) {
   \   0000000A   E080               LDI     R24, 0
   \   0000000C   E090               LDI     R25, 0
   \                     ??ReadEEPROMBuffer_0:
   \   0000000E   2477               CLR     R7
   \   00000010   1586               CP      R24, R6
   \   00000012   0597               CPC     R25, R7
   \   00000014   F440               BRCC    ??ReadEEPROMBuffer_1
     70                  *pData++ = ReadEEPROMByte( Address + Index );
   \   00000016   0182               MOVW    R17:R16, R5:R4
   \   00000018   0F08               ADD     R16, R24
   \   0000001A   1F19               ADC     R17, R25
   \   0000001C   ....               RCALL   ReadEEPROMByte
   \   0000001E   930C               ST      X, R16
   \   00000020   9611               ADIW    R27:R26, 1
     71              }
   \   00000022   9601               ADIW    R25:R24, 1
   \   00000024   CFF4               RJMP    ??ReadEEPROMBuffer_0
     72          }
   \                     ??ReadEEPROMBuffer_1:
   \   00000026   E0E8               LDI     R30, 8
   \   00000028   ........           JMP     ?EPILOGUE_B8_L09
     73          
     74          /*---------------------------------------------------------------------------
     75          **
     76          **  Writ buffer to eeprom
     77          **
     78          **--------------------------------------------------------------------------*/

   \                                 In  segment CODE, align 2, keep-with-next
     79          void WriteEEPROMBuffer( unsigned int Address, char Size, char *pData ) {   
   \                     WriteEEPROMBuffer:
   \   00000000   ........           CALL    ?PROLOGUE5_L09
   \   00000004                      REQUIRE ?Register_R4_is_cg_reg
   \   00000004   01C8               MOVW    R25:R24, R17:R16
   \   00000006   2E42               MOV     R4, R18
   \   00000008   01DA               MOVW    R27:R26, R21:R20
     80          
     81              while (EECR & (1<<EEPE))     // Wait until ready
   \                     ??WriteEEPROMBuffer_0:
   \   0000000A   99F9               SBIC    0x1F, 0x01
   \   0000000C   CFFE               RJMP    ??WriteEEPROMBuffer_0
     82                  ;
     83              OS_IncDI();
   \   0000000E   9100....           LDS     R16, (OS_Global + 1)
   \   00000012   7F00               ANDI    R16, 0xF0
   \   00000014   2300               TST     R16
   \   00000016   F021               BREQ    ??WriteEEPROMBuffer_1
   \   00000018   E909               LDI     R16, 153
   \   0000001A   E010               LDI     R17, 0
   \   0000001C   ........           CALL    OS_Error
   \                     ??WriteEEPROMBuffer_1:
   \   00000020   94F8               cli
   \   00000022   9100....           LDS     R16, (OS_Global + 1)
   \   00000026   9503               INC     R16
   \   00000028   9300....           STS     (OS_Global + 1), R16
     84              pWriteBuffer = pData;
   \   0000002C   ....               LDI     R30, LOW(pWriteBuffer)
   \   0000002E   ....               LDI     R31, (pWriteBuffer) >> 8
   \   00000030   83A0               ST      Z, R26
   \   00000032   83B1               STD     Z+1, R27
     85              WriteCount = Size;
   \   00000034   9240....           STS     WriteCount, R4
     86              EEAR = Address ;
   \   00000038   BD92               OUT     0x22, R25
   \   0000003A   BD81               OUT     0x21, R24
     87              EEDR = *pData ;
   \   0000003C   910C               LD      R16, X
   \   0000003E   BD00               OUT     0x20, R16
     88              pWriteBuffer++;
   \   00000040   ....               LDI     R30, LOW(pWriteBuffer)
   \   00000042   ....               LDI     R31, (pWriteBuffer) >> 8
   \   00000044   8100               LD      R16, Z
   \   00000046   8111               LDD     R17, Z+1
   \   00000048   5F0F               SUBI    R16, 255
   \   0000004A   4F1F               SBCI    R17, 255
   \   0000004C   8300               ST      Z, R16
   \   0000004E   8311               STD     Z+1, R17
     89              EEPWriteOK = false;
   \   00000050   E000               LDI     R16, 0
   \   00000052   9300....           STS     EEPWriteOK, R16
     90              EECR |= (1 << EEMPE) ;       // Don't use SetBit macrod due to timing
   \   00000056   9AFA               SBI     0x1F, 0x02
     91              EECR |= (1 << EEPE) ;        // Don't use SetBit macrod due to timing
   \   00000058   9AF9               SBI     0x1F, 0x01
     92              EECR |= (1 << EERIE) ;       // Don't use SetBit macrod due to timing
   \   0000005A   9AFB               SBI     0x1F, 0x03
     93              OS_DecRI();
   \   0000005C   9100....           LDS     R16, (OS_Global + 1)
   \   00000060   7F00               ANDI    R16, 0xF0
   \   00000062   2300               TST     R16
   \   00000064   F021               BREQ    ??WriteEEPROMBuffer_2
   \   00000066   E909               LDI     R16, 153
   \   00000068   E010               LDI     R17, 0
   \   0000006A   ........           CALL    OS_Error
   \                     ??WriteEEPROMBuffer_2:
   \   0000006E   9100....           LDS     R16, (OS_Global + 1)
   \   00000072   950A               DEC     R16
   \   00000074   9300....           STS     (OS_Global + 1), R16
   \   00000078   9100....           LDS     R16, (OS_Global + 1)
   \   0000007C   2300               TST     R16
   \   0000007E   F409               BRNE    ??WriteEEPROMBuffer_3
   \   00000080   9478               sei
     94          }
   \                     ??WriteEEPROMBuffer_3:
   \   00000082   E0E5               LDI     R30, 5
   \   00000084   ........           JMP     ?EPILOGUE_B5_L09
   \   00000088                      REQUIRE _A_EECR
   \   00000088                      REQUIRE _A_EEAR
   \   00000088                      REQUIRE _A_EEDR
     95          

   \                                 In  segment CODE, align 2, keep-with-next
     96          void
     97          WriteEEPROMBufferSync( unsigned int Address, char Size, char *pData )
   \                     WriteEEPROMBufferSync:
     98          {   
   \   00000000   ........           CALL    ?PROLOGUE5_L09
   \   00000004                      REQUIRE ?Register_R4_is_cg_reg
   \   00000004   01C8               MOVW    R25:R24, R17:R16
   \   00000006   2E42               MOV     R4, R18
   \   00000008   01DA               MOVW    R27:R26, R21:R20
     99            while (EECR & (1<<EEPE))     // Wait until ready
   \                     ??WriteEEPROMBufferSync_0:
   \   0000000A   99F9               SBIC    0x1F, 0x01
   \   0000000C   CFFE               RJMP    ??WriteEEPROMBufferSync_0
    100              ;
    101          
    102            OS_IncDI();
   \   0000000E   9100....           LDS     R16, (OS_Global + 1)
   \   00000012   7F00               ANDI    R16, 0xF0
   \   00000014   2300               TST     R16
   \   00000016   F021               BREQ    ??WriteEEPROMBufferSync_1
   \   00000018   E909               LDI     R16, 153
   \   0000001A   E010               LDI     R17, 0
   \   0000001C   ........           CALL    OS_Error
   \                     ??WriteEEPROMBufferSync_1:
   \   00000020   94F8               cli
   \   00000022   9100....           LDS     R16, (OS_Global + 1)
   \   00000026   9503               INC     R16
   \   00000028   9300....           STS     (OS_Global + 1), R16
    103            pWriteBuffer = pData;
   \   0000002C   ....               LDI     R30, LOW(pWriteBuffer)
   \   0000002E   ....               LDI     R31, (pWriteBuffer) >> 8
   \   00000030   83A0               ST      Z, R26
   \   00000032   83B1               STD     Z+1, R27
    104            WriteCount = Size;
   \   00000034   9240....           STS     WriteCount, R4
    105            EEAR = Address ;
   \   00000038   BD92               OUT     0x22, R25
   \   0000003A   BD81               OUT     0x21, R24
    106            EEDR = *pData ;
   \   0000003C   910C               LD      R16, X
   \   0000003E   BD00               OUT     0x20, R16
    107            pWriteBuffer++;
   \   00000040   ....               LDI     R30, LOW(pWriteBuffer)
   \   00000042   ....               LDI     R31, (pWriteBuffer) >> 8
   \   00000044   8100               LD      R16, Z
   \   00000046   8111               LDD     R17, Z+1
   \   00000048   5F0F               SUBI    R16, 255
   \   0000004A   4F1F               SBCI    R17, 255
   \   0000004C   8300               ST      Z, R16
   \   0000004E   8311               STD     Z+1, R17
    108            EEPWriteOK = false;
   \   00000050   E000               LDI     R16, 0
   \   00000052   9300....           STS     EEPWriteOK, R16
    109            EECR |= (1 << EEMPE) ;       // Don't use SetBit macrod due to timing
   \   00000056   9AFA               SBI     0x1F, 0x02
    110            EECR |= (1 << EEPE) ;        // Don't use SetBit macrod due to timing
   \   00000058   9AF9               SBI     0x1F, 0x01
    111          
    112            EECR |= (1 << EERIE) ;       // Don't use SetBit macrod due to timing
   \   0000005A   9AFB               SBI     0x1F, 0x03
    113            OS_DecRI();
   \   0000005C   9100....           LDS     R16, (OS_Global + 1)
   \   00000060   7F00               ANDI    R16, 0xF0
   \   00000062   2300               TST     R16
   \   00000064   F021               BREQ    ??WriteEEPROMBufferSync_2
   \   00000066   E909               LDI     R16, 153
   \   00000068   E010               LDI     R17, 0
   \   0000006A   ........           CALL    OS_Error
   \                     ??WriteEEPROMBufferSync_2:
   \   0000006E   9100....           LDS     R16, (OS_Global + 1)
   \   00000072   950A               DEC     R16
   \   00000074   9300....           STS     (OS_Global + 1), R16
   \   00000078   9100....           LDS     R16, (OS_Global + 1)
   \   0000007C   2300               TST     R16
   \   0000007E   F409               BRNE    ??WriteEEPROMBufferSync_3
   \   00000080   9478               sei
    114          
    115            do
    116            {
    117              OS_Delay(1);
   \                     ??WriteEEPROMBufferSync_3:
   \   00000082   E001               LDI     R16, 1
   \   00000084   E010               LDI     R17, 0
   \   00000086   ........           CALL    OS_Delay
    118            }while (!EEPWriteOK);
   \   0000008A   9100....           LDS     R16, EEPWriteOK
   \   0000008E   2300               TST     R16
   \   00000090   F3C1               BREQ    ??WriteEEPROMBufferSync_3
    119          }
   \   00000092   E0E5               LDI     R30, 5
   \   00000094   ........           JMP     ?EPILOGUE_B5_L09
   \   00000098                      REQUIRE _A_EECR
   \   00000098                      REQUIRE _A_EEAR
   \   00000098                      REQUIRE _A_EEDR
    120          
    121          /*---------------------------------------------------------------------------
    122          **
    123          **  Interrupt on EEPROM write
    124          **
    125          **--------------------------------------------------------------------------*/
    126          #pragma vector=EE_READY_vect

   \                                 In  segment CODE, align 2, keep-with-next
    127          __interrupt void IntHandler_EEPROM( void ){
   \                     IntHandler_EEPROM:
   \   00000000   93FA               ST      -Y, R31
   \   00000002   93EA               ST      -Y, R30
   \   00000004   933A               ST      -Y, R19
   \   00000006   932A               ST      -Y, R18
   \   00000008   931A               ST      -Y, R17
   \   0000000A   930A               ST      -Y, R16
   \   0000000C   B72F               IN      R18, 0x3F
   \   0000000E   B73B               IN      R19, 0x3B
    128          
    129              if ( --WriteCount ) {                        // More to write? 
   \   00000010   9100....           LDS     R16, WriteCount
   \   00000014   950A               DEC     R16
   \   00000016   9300....           STS     WriteCount, R16
   \   0000001A   9100....           LDS     R16, WriteCount
   \   0000001E   2300               TST     R16
   \   00000020   F0B9               BREQ    ??IntHandler_EEPROM_0
    130                  EEAR++;                                  // Define address and data 
   \   00000022   B501               IN      R16, 0x21
   \   00000024   B512               IN      R17, 0x22
   \   00000026   5F0F               SUBI    R16, 255
   \   00000028   4F1F               SBCI    R17, 255
   \   0000002A   BD12               OUT     0x22, R17
   \   0000002C   BD01               OUT     0x21, R16
    131                  EEDR = *pWriteBuffer++;
   \   0000002E   91E0....           LDS     R30, pWriteBuffer
   \   00000032   91F0....           LDS     R31, (pWriteBuffer + 1)
   \   00000036   8100               LD      R16, Z
   \   00000038   BD00               OUT     0x20, R16
   \   0000003A   ....               LDI     R30, LOW(pWriteBuffer)
   \   0000003C   ....               LDI     R31, (pWriteBuffer) >> 8
   \   0000003E   8100               LD      R16, Z
   \   00000040   8111               LDD     R17, Z+1
   \   00000042   5F0F               SUBI    R16, 255
   \   00000044   4F1F               SBCI    R17, 255
   \   00000046   8300               ST      Z, R16
   \   00000048   8311               STD     Z+1, R17
    132                  EECR |= (1 << EEMPE) ;       // Don't use SetBit macrod due to timing
   \   0000004A   9AFA               SBI     0x1F, 0x02
    133                  EECR |= (1 << EEPE) ;        // Don't use SetBit macrod due to timing
   \   0000004C   9AF9               SBI     0x1F, 0x01
   \   0000004E   C004               RJMP    ??IntHandler_EEPROM_1
    134              } else {
    135                  EECR &= ~(1 << EERIE) ;       // Don't use ClrBit macrod due to timing
   \                     ??IntHandler_EEPROM_0:
   \   00000050   98FB               CBI     0x1F, 0x03
    136                  EEPWriteOK = true;
   \   00000052   E001               LDI     R16, 1
   \   00000054   9300....           STS     EEPWriteOK, R16
    137              }
    138          }
   \                     ??IntHandler_EEPROM_1:
   \   00000058   BF3B               OUT     0x3B, R19
   \   0000005A   BF2F               OUT     0x3F, R18
   \   0000005C   9109               LD      R16, Y+
   \   0000005E   9119               LD      R17, Y+
   \   00000060   9129               LD      R18, Y+
   \   00000062   9139               LD      R19, Y+
   \   00000064   91E9               LD      R30, Y+
   \   00000066   91F9               LD      R31, Y+
   \   00000068   9518               RETI
   \   0000006A                      REQUIRE _A_EEAR
   \   0000006A                      REQUIRE _A_EEDR
   \   0000006A                      REQUIRE _A_EECR
    139          
    140          
    141          /**===========================================================================
    142          ** Get the stored version in EEPROM
    143          **==========================================================================*/ 

   \                                 In  segment CODE, align 2, keep-with-next
    144          char EEPROMVersion(void) {
   \                     EEPROMVersion:
   \   00000000   938A               ST      -Y, R24
   \   00000002   9721               SBIW    R29:R28, 1
    145              char val ;
    146              char retval = false;
   \   00000004   E080               LDI     R24, 0
    147          
    148              ReadEEPROMBuffer(EEPROM_ID_START, 1, (char*)&val) ;
   \   00000006   01AE               MOVW    R21:R20, R29:R28
   \   00000008   E021               LDI     R18, 1
   \   0000000A   E000               LDI     R16, 0
   \   0000000C   E010               LDI     R17, 0
   \   0000000E   ....               RCALL   ReadEEPROMBuffer
    149              if (val == EEPROM_ID) {                                     //correct EEPROM ID
   \   00000010   8108               LD      R16, Y
   \   00000012   3B0D               CPI     R16, 189
   \   00000014   F489               BRNE    ??EEPROMVersion_0
    150                  ReadEEPROMBuffer(EEPROM_ID_START+1, 1, (char*)&val) ;
   \   00000016   01AE               MOVW    R21:R20, R29:R28
   \   00000018   E021               LDI     R18, 1
   \   0000001A   E001               LDI     R16, 1
   \   0000001C   E010               LDI     R17, 0
   \   0000001E   ....               RCALL   ReadEEPROMBuffer
    151                  if (val == STORE_VERSION) {                             // and version
   \   00000020   8108               LD      R16, Y
   \   00000022   3002               CPI     R16, 2
   \   00000024   F449               BRNE    ??EEPROMVersion_0
    152                      ReadEEPROMBuffer(0xffe, 1, (char*)&val) ;
   \   00000026   01AE               MOVW    R21:R20, R29:R28
   \   00000028   E021               LDI     R18, 1
   \   0000002A   EF0E               LDI     R16, 254
   \   0000002C   E01F               LDI     R17, 15
   \   0000002E   ....               RCALL   ReadEEPROMBuffer
    153                      if (val == EEPROM_OK) {                             // and no reset from user
   \   00000030   8108               LD      R16, Y
   \   00000032   3F0F               CPI     R16, 255
   \   00000034   F409               BRNE    ??EEPROMVersion_0
    154                          retval = true ;                                 // then everything is OK
   \   00000036   E081               LDI     R24, 1
    155                      }
    156                  }
    157              }
    158              return retval;
   \                     ??EEPROMVersion_0:
   \   00000038   2F08               MOV     R16, R24
   \   0000003A   9621               ADIW    R29:R28, 1
   \   0000003C   9189               LD      R24, Y+
   \   0000003E   9508               RET
    159          }
    160          
    161          /**===========================================================================
    162          ** Reset the EEPROM
    163          **==========================================================================*/ 

   \                                 In  segment CODE, align 2, keep-with-next
    164          void EEPROMReset(void) {
   \                     EEPROMReset:
    165              EEARL = (0x0ffe & 0xff);
   \   00000000   EF0E               LDI     R16, 254
   \   00000002   BD01               OUT     0x21, R16
    166              EEARH = (0x0ffe >> 8);
   \   00000004   E00F               LDI     R16, 15
   \   00000006   BD02               OUT     0x22, R16
    167              EEDR = EEPROM_RESET;
   \   00000008   ED0B               LDI     R16, 219
   \   0000000A   BD00               OUT     0x20, R16
    168              EECR |= (1<<EEMPE);
   \   0000000C   9AFA               SBI     0x1F, 0x02
    169              EECR |= (1<<EEPE);
   \   0000000E   9AF9               SBI     0x1F, 0x01
    170              while (EECR & (1<<EEPE))
   \                     ??EEPROMReset_0:
   \   00000010   99F9               SBIC    0x1F, 0x01
   \   00000012   CFFE               RJMP    ??EEPROMReset_0
    171                  ;
    172              WDTCSR = 0x18;               //Start watchdog to genetate restart
   \   00000014   E108               LDI     R16, 24
   \   00000016   9300....           STS     _A_WDTCSR, R16
    173              WDTCSR = 0x18;
   \   0000001A   E108               LDI     R16, 24
   \   0000001C   9300....           STS     _A_WDTCSR, R16
    174          }
   \   00000020   9508               RET
   \   00000022                      REQUIRE _A_EEAR
   \   00000022                      REQUIRE _A_EEDR
   \   00000022                      REQUIRE _A_EECR
   \   00000022                      REQUIRE _A_WDTCSR

   \                                 In  segment INTVEC, offset 0x78, root
   \                     `??IntHandler_EEPROM::??INTVEC 120`:
   \   00000078   ........           JMP     IntHandler_EEPROM

   Maximum stack usage in bytes:

   CSTACK RSTACK Function
   ------ ------ --------
      0      2   EEPROMReset
      2      2   EEPROMVersion
        2      2   -> ReadEEPROMBuffer
      6      2   IntHandler_EEPROM
      8      2   ReadEEPROMBuffer
        8      2   -> ReadEEPROMByte
      3      2   ReadEEPROMByte
        3      2   -> OS_Error
      0      2   TestEEPROM
      5      2   WriteEEPROMBuffer
        5      2   -> OS_Error
      5      2   WriteEEPROMBufferSync
        5      2   -> OS_Delay
        5      2   -> OS_Error
      3      2   WriteEEPROMByte
        3      2   -> OS_Error


   Segment part sizes:

   Bytes  Function/Label
   -----  --------------
      34  EEPROMReset
      64  EEPROMVersion
     106  IntHandler_EEPROM
       4  IntHandler_EEPROM::??INTVEC 120
      44  ReadEEPROMBuffer
      96  ReadEEPROMByte
       6  TestEEPROM
     136  WriteEEPROMBuffer
     152  WriteEEPROMBufferSync
      96  WriteEEPROMByte
       2  _A_EEAR
       1  _A_EECR
       1  _A_EEDR
       1  _A_WDTCSR

 
   5 bytes in segment ABSOLUTE
 734 bytes in segment CODE
   4 bytes in segment INTVEC
 
 734 bytes of CODE memory (+ 4 bytes shared)
   0 bytes of DATA memory (+ 5 bytes shared)

Errors: none
Warnings: none
