###############################################################################
#
# IAR C/C++ Compiler V7.30.5.1680 for Microchip AVR       02/Jan/2024  12:26:16
# Copyright 1996-2022 IAR Systems AB.
# Mobile license - IAR Embedded Workbench for Microchip AVR 8.10
#
#    Source file  =  
#        C:\Users\ESY\OneDrive -
#        Scanjet\Documents\GitHub\S2Prog\IO\ANZB_ATmega1281\Src\eeprom.c
#    Command line =  
#        -f C:\Users\ESY\AppData\Local\Temp\EW9965.tmp ("C:\Users\ESY\OneDrive
#        - Scanjet\Documents\GitHub\S2Prog\IO\ANZB_ATmega1281\Src\eeprom.c"
#        --cpu=m128 -ms -o "C:\Users\ESY\OneDrive -
#        Scanjet\Documents\GitHub\S2Prog\IO\ANZB_ATmega1281\Release_debug\Obj"
#        -D OS_LIBMODE_S -D OS_UART=-1 -D USE_16552_DRIVER_TASK=1 -D
#        USE_1281_RX_INT_TASK=1 -D USE_MODBUS_PROTOCOL=0 -D ANZBANA_V8=0 -D
#        __ATMEGA_1281__ -lCN "C:\Users\ESY\OneDrive -
#        Scanjet\Documents\GitHub\S2Prog\IO\ANZB_ATmega1281\Release_debug\List"
#        -y --initializers_in_flash -DENABLE_BIT_DEFINITIONS -e -I
#        "C:\Users\ESY\OneDrive -
#        Scanjet\Documents\GitHub\S2Prog\IO\ANZB_ATmega1281\INC\\" -I
#        "C:\Users\ESY\OneDrive -
#        Scanjet\Documents\GitHub\S2Prog\IO\ANZB_ATmega1281\..\..\SHARED\INC\\"
#        --eeprom_size 4096 --clib -Ohz)
#    Locale       =  English_USA.1252
#    List file    =  
#        C:\Users\ESY\OneDrive -
#        Scanjet\Documents\GitHub\S2Prog\IO\ANZB_ATmega1281\Release_debug\List\eeprom.lst
#    Object file  =  
#        C:\Users\ESY\OneDrive -
#        Scanjet\Documents\GitHub\S2Prog\IO\ANZB_ATmega1281\Release_debug\Obj\eeprom.r90
#
###############################################################################

C:\Users\ESY\OneDrive - Scanjet\Documents\GitHub\S2Prog\IO\ANZB_ATmega1281\Src\eeprom.c
      1          /****************************************************************************************
      2          / Read and write the eeprom
      3          /
      4          ***************************************************************************************/
      5          #include "iom1281.h"

   \                                 In  segment ABSOLUTE, at 0x60
   \   union <unnamed> volatile __io _A_WDTCSR
   \                     _A_WDTCSR:
   \   00000000                      DS8 1

   \                                 In  segment ABSOLUTE, at 0x41
   \   union <unnamed> volatile __io _A_EEAR
   \                     _A_EEAR:
   \   00000000                      DS8 2

   \                                 In  segment ABSOLUTE, at 0x40
   \   union <unnamed> volatile __io _A_EEDR
   \                     _A_EEDR:
   \   00000000                      DS8 1

   \                                 In  segment ABSOLUTE, at 0x3f
   \   union <unnamed> volatile __io _A_EECR
   \                     _A_EECR:
   \   00000000                      DS8 1
      6          #include "stdio.h"
      7          #include "math.h"
      8          #include "externals.h"
      9          #include "version.h"
     10          #include "inavr.h"
     11          
     12          
     13          /*---------------------------------------------------------------------------
     14          **
     15          **  See how many date i remining
     16          **
     17          **--------------------------------------------------------------------------*/

   \                                 In  segment CODE, align 2, keep-with-next
     18          char TestEEPROM( void ) {
   \                     TestEEPROM:
     19          
     20              return WriteCount;
   \   00000000   9100....           LDS     R16, WriteCount
   \   00000004   9508               RET
     21          }
     22          
     23          /*---------------------------------------------------------------------------
     24          **
     25          **  Reads an address in the eeprom
     26          **
     27          **--------------------------------------------------------------------------*/

   \                                 In  segment CODE, align 2, keep-with-next
     28          char ReadEEPROMByte( unsigned int Address ) {
   \                     ReadEEPROMByte:
     29          
     30              unsigned char Data;
     31          
     32              while (EECR & (1<<EEPE))     // Wait until ready
   \                     ??ReadEEPROMByte_0:
   \   00000000   99F9               SBIC    0x1F, 0x01
   \   00000002   CFFE               RJMP    ??ReadEEPROMByte_0
     33                  ;
     34              OS_IncDI();
   \   00000004   94F8               cli
     35              EEAR = Address;
   \   00000006   ....               RCALL   ?Subroutine3
     36              EECR |= (1 << EERE) ;       // Don't use SetBit macrod due to timing
   \                     ??CrossCallReturnLabel_4:
   \   00000008   9AF8               SBI     0x1F, 0x00
     37              OS_DecRI();
   \   0000000A   9100....           LDS     R16, (OS_Global + 1)
   \   0000000E   2300               TST     R16
   \   00000010   F409               BRNE    ??ReadEEPROMByte_1
   \   00000012   9478               sei
     38          
     39              Data = EEDR;
     40              return Data;
   \                     ??ReadEEPROMByte_1:
   \   00000014   B500               IN      R16, 0x20
   \   00000016   9508               RET
   \   00000018                      REQUIRE _A_EECR
   \   00000018                      REQUIRE _A_EEAR
   \   00000018                      REQUIRE _A_EEDR
     41          
     42          }

   \                                 In  segment CODE, align 2, keep-with-next
   \                     ?Subroutine3:
   \   00000000   BD12               OUT     0x22, R17
   \   00000002   BD01               OUT     0x21, R16
   \   00000004   9508               RET
     43          
     44          /*---------------------------------------------------------------------------
     45          **
     46          **  Write a caracther to the eeprom
     47          **
     48          **--------------------------------------------------------------------------*/

   \                                 In  segment CODE, align 2, keep-with-next
     49          void WriteEEPROMByte( unsigned int Address, char Data ) {   
   \                     WriteEEPROMByte:
     50          
     51              while (EECR & (1<<EEPE))     // Wait until ready
   \                     ??WriteEEPROMByte_0:
   \   00000000   99F9               SBIC    0x1F, 0x01
   \   00000002   CFFE               RJMP    ??WriteEEPROMByte_0
     52                  ;
     53              OS_IncDI();
   \   00000004   94F8               cli
     54              EEAR = Address;
   \   00000006   ....               RCALL   ?Subroutine3
     55              EEDR = Data;
   \                     ??CrossCallReturnLabel_5:
   \   00000008   BD20               OUT     0x20, R18
     56              EECR |= (1 << EEMPE) ;       // Don't use SetBit macrod due to timing
   \   0000000A   ....               RCALL   ?Subroutine4
     57              EECR |= (1 << EEPE) ;        // Don't use SetBit macrod due to timing
     58              OS_DecRI();
   \                     ??CrossCallReturnLabel_8:
   \   0000000C   9100....           LDS     R16, (OS_Global + 1)
   \   00000010   2300               TST     R16
   \   00000012   F409               BRNE    ??WriteEEPROMByte_1
   \   00000014   9478               sei
     59          }
   \                     ??WriteEEPROMByte_1:
   \   00000016   9508               RET
   \   00000018                      REQUIRE _A_EECR
   \   00000018                      REQUIRE _A_EEAR
   \   00000018                      REQUIRE _A_EEDR

   \                                 In  segment CODE, align 2, keep-with-next
   \                     ?Subroutine4:
   \   00000000   9AFA               SBI     0x1F, 0x02
   \   00000002   9AF9               SBI     0x1F, 0x01
   \   00000004   9508               RET
     60          
     61          /*---------------------------------------------------------------------------
     62          **
     63          **  Read a tring from the eeprom
     64          **
     65          **--------------------------------------------------------------------------*/

   \                                 In  segment CODE, align 2, keep-with-next
     66          void ReadEEPROMBuffer( unsigned int Address, char Size, char *pData ) {   
   \                     ReadEEPROMBuffer:
   \   00000000   010C               MOVW    R1:R0, R25:R24
   \   00000002   01B8               MOVW    R23:R22, R17:R16
     67              unsigned int Index;
     68          
     69              for ( Index = 0; Index < Size; Index++ ) {
   \   00000004   E080               LDI     R24, 0
   \   00000006   E090               LDI     R25, 0
   \   00000008   E030               LDI     R19, 0
   \   0000000A   C008               RJMP    ??ReadEEPROMBuffer_0
     70                  *pData++ = ReadEEPROMByte( Address + Index );
   \                     ??ReadEEPROMBuffer_1:
   \   0000000C   018B               MOVW    R17:R16, R23:R22
   \   0000000E   0F08               ADD     R16, R24
   \   00000010   1F19               ADC     R17, R25
   \   00000012   ....               RCALL   ReadEEPROMByte
   \   00000014   01FA               MOVW    R31:R30, R21:R20
   \   00000016   9301               ST      Z+, R16
   \   00000018   01AF               MOVW    R21:R20, R31:R30
     71              }
   \   0000001A   9601               ADIW    R25:R24, 1
   \                     ??ReadEEPROMBuffer_0:
   \   0000001C   1782               CP      R24, R18
   \   0000001E   0793               CPC     R25, R19
   \   00000020   F3A8               BRCS    ??ReadEEPROMBuffer_1
     72          }
   \   00000022   01C0               MOVW    R25:R24, R1:R0
   \   00000024   9508               RET
     73          
     74          /*---------------------------------------------------------------------------
     75          **
     76          **  Writ buffer to eeprom
     77          **
     78          **--------------------------------------------------------------------------*/

   \                                 In  segment CODE, align 2, keep-with-next
     79          void WriteEEPROMBuffer( unsigned int Address, char Size, char *pData ) {   
   \                     WriteEEPROMBuffer:
     80          
     81              while (EECR & (1<<EEPE))     // Wait until ready
   \                     ??WriteEEPROMBuffer_0:
   \   00000000   99F9               SBIC    0x1F, 0x01
   \   00000002   CFFE               RJMP    ??WriteEEPROMBuffer_0
     82                  ;
     83              OS_IncDI();
   \   00000004   94F8               cli
   \   00000006   ....               RCALL   ?Subroutine0
     84              pWriteBuffer = pData;
     85              WriteCount = Size;
     86              EEAR = Address ;
     87              EEDR = *pData ;
     88              pWriteBuffer++;
     89              EEPWriteOK = false;
     90              EECR |= (1 << EEMPE) ;       // Don't use SetBit macrod due to timing
     91              EECR |= (1 << EEPE) ;        // Don't use SetBit macrod due to timing
     92              EECR |= (1 << EERIE) ;       // Don't use SetBit macrod due to timing
     93              OS_DecRI();
   \                     ??CrossCallReturnLabel_0:
   \   00000008   F409               BRNE    ??WriteEEPROMBuffer_1
   \   0000000A   9478               sei
     94          }
   \                     ??WriteEEPROMBuffer_1:
   \   0000000C   9508               RET
   \   0000000E                      REQUIRE _A_EECR
   \   0000000E                      REQUIRE _A_EEAR
   \   0000000E                      REQUIRE _A_EEDR

   \                                 In  segment CODE, align 2, keep-with-next
   \                     ?Subroutine0:
   \   00000000   ....               LDI     R30, LOW(OS_Global)
   \   00000002   ....               LDI     R31, (OS_Global) >> 8
   \   00000004   8131               LDD     R19, Z+1
   \   00000006   9533               INC     R19
   \   00000008   8331               STD     Z+1, R19
   \   0000000A   ....               LDI     R30, LOW(pWriteBuffer)
   \   0000000C   ....               LDI     R31, (pWriteBuffer) >> 8
   \   0000000E   8340               ST      Z, R20
   \   00000010   8351               STD     Z+1, R21
   \   00000012   9320....           STS     WriteCount, R18
   \   00000016   ....               RCALL   ?Subroutine3
   \                     ??CrossCallReturnLabel_7:
   \   00000018   01FA               MOVW    R31:R30, R21:R20
   \   0000001A   ....               RCALL   ?Subroutine2
   \                     ??CrossCallReturnLabel_2:
   \   0000001C   E000               LDI     R16, 0
   \   0000001E   9300....           STS     EEPWriteOK, R16
   \   00000022   ....               RCALL   ?Subroutine4
   \                     ??CrossCallReturnLabel_9:
   \   00000024   9AFB               SBI     0x1F, 0x03
   \   00000026   ....               LDI     R30, LOW(OS_Global)
   \   00000028   ....               LDI     R31, (OS_Global) >> 8
   \   0000002A   8101               LDD     R16, Z+1
   \   0000002C   950A               DEC     R16
   \   0000002E   8301               STD     Z+1, R16
   \   00000030   9508               RET

   \                                 In  segment CODE, align 2, keep-with-next
   \                     ?Subroutine2:
   \   00000000   8100               LD      R16, Z
   \   00000002   BD00               OUT     0x20, R16
   \   00000004   ....               LDI     R30, LOW(pWriteBuffer)
   \   00000006   ....               LDI     R31, (pWriteBuffer) >> 8
   \   00000008   8100               LD      R16, Z
   \   0000000A   8111               LDD     R17, Z+1
   \   0000000C   5F0F               SUBI    R16, 255
   \   0000000E   4F1F               SBCI    R17, 255
   \   00000010   8300               ST      Z, R16
   \   00000012   8311               STD     Z+1, R17
   \   00000014   9508               RET
     95          

   \                                 In  segment CODE, align 2, keep-with-next
     96          void
     97          WriteEEPROMBufferSync( unsigned int Address, char Size, char *pData )
   \                     WriteEEPROMBufferSync:
     98          {   
     99            while (EECR & (1<<EEPE))     // Wait until ready
   \                     ??WriteEEPROMBufferSync_0:
   \   00000000   99F9               SBIC    0x1F, 0x01
   \   00000002   CFFE               RJMP    ??WriteEEPROMBufferSync_0
    100              ;
    101          
    102            OS_IncDI();
   \   00000004   94F8               cli
   \   00000006   ....               RCALL   ?Subroutine0
    103            pWriteBuffer = pData;
    104            WriteCount = Size;
    105            EEAR = Address ;
    106            EEDR = *pData ;
    107            pWriteBuffer++;
    108            EEPWriteOK = false;
    109            EECR |= (1 << EEMPE) ;       // Don't use SetBit macrod due to timing
    110            EECR |= (1 << EEPE) ;        // Don't use SetBit macrod due to timing
    111          
    112            EECR |= (1 << EERIE) ;       // Don't use SetBit macrod due to timing
    113            OS_DecRI();
   \                     ??CrossCallReturnLabel_1:
   \   00000008   F409               BRNE    ??WriteEEPROMBufferSync_1
   \   0000000A   9478               sei
    114          
    115            do
    116            {
    117              OS_Delay(1);
   \                     ??WriteEEPROMBufferSync_1:
   \   0000000C   E001               LDI     R16, 1
   \   0000000E   E010               LDI     R17, 0
   \   00000010   ........           CALL    OS_Delay
    118            }while (!EEPWriteOK);
   \   00000014   9100....           LDS     R16, EEPWriteOK
   \   00000018   2300               TST     R16
   \   0000001A   F3C1               BREQ    ??WriteEEPROMBufferSync_1
    119          }
   \   0000001C   9508               RET
   \   0000001E                      REQUIRE _A_EECR
   \   0000001E                      REQUIRE _A_EEAR
   \   0000001E                      REQUIRE _A_EEDR
    120          
    121          /*---------------------------------------------------------------------------
    122          **
    123          **  Interrupt on EEPROM write
    124          **
    125          **--------------------------------------------------------------------------*/
    126          #pragma vector=EE_READY_vect

   \                                 In  segment CODE, align 2, keep-with-next
    127          __interrupt void IntHandler_EEPROM( void ){
   \                     IntHandler_EEPROM:
   \   00000000   93FA               ST      -Y, R31
   \   00000002   93EA               ST      -Y, R30
   \   00000004   932A               ST      -Y, R18
   \   00000006   931A               ST      -Y, R17
   \   00000008   930A               ST      -Y, R16
   \   0000000A   B72F               IN      R18, 0x3F
    128          
    129              if ( --WriteCount ) {                        // More to write? 
   \   0000000C   9100....           LDS     R16, WriteCount
   \   00000010   950A               DEC     R16
   \   00000012   9300....           STS     WriteCount, R16
   \   00000016   2300               TST     R16
   \   00000018   F061               BREQ    ??IntHandler_EEPROM_0
    130                  EEAR++;                                  // Define address and data 
   \   0000001A   B501               IN      R16, 0x21
   \   0000001C   B512               IN      R17, 0x22
   \   0000001E   5F0F               SUBI    R16, 255
   \   00000020   4F1F               SBCI    R17, 255
   \   00000022   ....               RCALL   ?Subroutine3
    131                  EEDR = *pWriteBuffer++;
   \                     ??CrossCallReturnLabel_6:
   \   00000024   91E0....           LDS     R30, pWriteBuffer
   \   00000028   91F0....           LDS     R31, (pWriteBuffer + 1)
   \   0000002C   ....               RCALL   ?Subroutine2
    132                  EECR |= (1 << EEMPE) ;       // Don't use SetBit macrod due to timing
   \                     ??CrossCallReturnLabel_3:
   \   0000002E   ....               RCALL   ?Subroutine4
    133                  EECR |= (1 << EEPE) ;        // Don't use SetBit macrod due to timing
    134              } else {
   \                     ??CrossCallReturnLabel_10:
   \   00000030   C004               RJMP    ??IntHandler_EEPROM_1
    135                  EECR &= ~(1 << EERIE) ;       // Don't use ClrBit macrod due to timing
   \                     ??IntHandler_EEPROM_0:
   \   00000032   98FB               CBI     0x1F, 0x03
    136                  EEPWriteOK = true;
   \   00000034   E001               LDI     R16, 1
   \   00000036   9300....           STS     EEPWriteOK, R16
    137              }
    138          }
   \                     ??IntHandler_EEPROM_1:
   \   0000003A   BF2F               OUT     0x3F, R18
   \   0000003C   9109               LD      R16, Y+
   \   0000003E   9119               LD      R17, Y+
   \   00000040   9129               LD      R18, Y+
   \   00000042   91E9               LD      R30, Y+
   \   00000044   91F9               LD      R31, Y+
   \   00000046   9518               RETI
   \   00000048                      REQUIRE _A_EEAR
   \   00000048                      REQUIRE _A_EEDR
   \   00000048                      REQUIRE _A_EECR
    139          
    140          
    141          /**===========================================================================
    142          ** Get the stored version in EEPROM
    143          **==========================================================================*/ 

   \                                 In  segment CODE, align 2, keep-with-next
    144          char EEPROMVersion(void) {
   \                     EEPROMVersion:
   \   00000000   2E28               MOV     R2, R24
   \   00000002   9721               SBIW    R29:R28, 1
    145              char val ;
    146              char retval = false;
   \   00000004   E080               LDI     R24, 0
    147          
    148              ReadEEPROMBuffer(EEPROM_ID_START, 1, (char*)&val) ;
   \   00000006   01AE               MOVW    R21:R20, R29:R28
   \   00000008   E021               LDI     R18, 1
   \   0000000A   E000               LDI     R16, 0
   \   0000000C   ....               RCALL   ?Subroutine1
    149              if (val == EEPROM_ID) {                                     //correct EEPROM ID
   \                     ??CrossCallReturnLabel_12:
   \   0000000E   3B0D               CPI     R16, 189
   \   00000010   F471               BRNE    ??EEPROMVersion_0
    150                  ReadEEPROMBuffer(EEPROM_ID_START+1, 1, (char*)&val) ;
   \   00000012   01AE               MOVW    R21:R20, R29:R28
   \   00000014   E021               LDI     R18, 1
   \   00000016   E001               LDI     R16, 1
   \   00000018   ....               RCALL   ?Subroutine1
    151                  if (val == STORE_VERSION) {                             // and version
   \                     ??CrossCallReturnLabel_13:
   \   0000001A   3002               CPI     R16, 2
   \   0000001C   F441               BRNE    ??EEPROMVersion_0
    152                      ReadEEPROMBuffer(0xffe, 1, (char*)&val) ;
   \   0000001E   01AE               MOVW    R21:R20, R29:R28
   \   00000020   E021               LDI     R18, 1
   \   00000022   EF0E               LDI     R16, 254
   \   00000024   E01F               LDI     R17, 15
   \   00000026   ....               RCALL   ??Subroutine5_0
    153                      if (val == EEPROM_OK) {                             // and no reset from user
   \                     ??CrossCallReturnLabel_14:
   \   00000028   3F0F               CPI     R16, 255
   \   0000002A   F409               BRNE    ??EEPROMVersion_0
    154                          retval = true ;                                 // then everything is OK
   \   0000002C   E081               LDI     R24, 1
    155                      }
    156                  }
    157              }
    158              return retval;
   \                     ??EEPROMVersion_0:
   \   0000002E   2F08               MOV     R16, R24
   \   00000030   9621               ADIW    R29:R28, 1
   \   00000032   2D82               MOV     R24, R2
   \   00000034   9508               RET
    159          }

   \                                 In  segment CODE, align 2, keep-with-next
   \                     ?Subroutine1:
   \   00000000   E010               LDI     R17, 0
   \   00000002                      REQUIRE ??Subroutine5_0
   \   00000002                      ;               // Fall through to label ??Subroutine5_0

   \                                 In  segment CODE, align 2, keep-with-next
   \                     ??Subroutine5_0:
   \   00000000   ....               RCALL   ReadEEPROMBuffer
   \   00000002   8108               LD      R16, Y
   \   00000004   9508               RET
    160          
    161          /**===========================================================================
    162          ** Reset the EEPROM
    163          **==========================================================================*/ 

   \                                 In  segment CODE, align 2, keep-with-next
    164          void EEPROMReset(void) {
   \                     EEPROMReset:
    165              EEARL = (0x0ffe & 0xff);
   \   00000000   EF0E               LDI     R16, 254
   \   00000002   BD01               OUT     0x21, R16
    166              EEARH = (0x0ffe >> 8);
   \   00000004   E00F               LDI     R16, 15
   \   00000006   BD02               OUT     0x22, R16
    167              EEDR = EEPROM_RESET;
   \   00000008   ED0B               LDI     R16, 219
   \   0000000A   BD00               OUT     0x20, R16
    168              EECR |= (1<<EEMPE);
   \   0000000C   ....               RCALL   ?Subroutine4
    169              EECR |= (1<<EEPE);
    170              while (EECR & (1<<EEPE))
   \                     ??CrossCallReturnLabel_11:
   \   0000000E   99F9               SBIC    0x1F, 0x01
   \   00000010   CFFE               RJMP    ??CrossCallReturnLabel_11
    171                  ;
    172              WDTCSR = 0x18;               //Start watchdog to genetate restart
   \   00000012   E108               LDI     R16, 24
   \   00000014   9300....           STS     _A_WDTCSR, R16
    173              WDTCSR = 0x18;
   \   00000018   9300....           STS     _A_WDTCSR, R16
    174          }
   \   0000001C   9508               RET
   \   0000001E                      REQUIRE _A_EEAR
   \   0000001E                      REQUIRE _A_EEDR
   \   0000001E                      REQUIRE _A_EECR
   \   0000001E                      REQUIRE _A_WDTCSR

   \                                 In  segment INTVEC, offset 0x78, root
   \                     `??IntHandler_EEPROM::??INTVEC 120`:
   \   00000078   ........           JMP     IntHandler_EEPROM

   Maximum stack usage in bytes:

   CSTACK RSTACK Function
   ------ ------ --------
      0      2   EEPROMReset
      1      2   EEPROMVersion
        1      4   -> ReadEEPROMBuffer
      5      2   IntHandler_EEPROM
      0      2   ReadEEPROMBuffer
        0      2   -> ReadEEPROMByte
      0      2   ReadEEPROMByte
      0      2   TestEEPROM
      0      2   WriteEEPROMBuffer
      0      2   WriteEEPROMBufferSync
        0      2   -> OS_Delay
      0      2   WriteEEPROMByte


   Segment part sizes:

   Bytes  Function/Label
   -----  --------------
       6  ??Subroutine5_0
      50  ?Subroutine0
       2  ?Subroutine1
      22  ?Subroutine2
       6  ?Subroutine3
       6  ?Subroutine4
      30  EEPROMReset
      54  EEPROMVersion
      72  IntHandler_EEPROM
       4  IntHandler_EEPROM::??INTVEC 120
      38  ReadEEPROMBuffer
      24  ReadEEPROMByte
       6  TestEEPROM
      14  WriteEEPROMBuffer
      30  WriteEEPROMBufferSync
      24  WriteEEPROMByte
       2  _A_EEAR
       1  _A_EECR
       1  _A_EEDR
       1  _A_WDTCSR

 
   5 bytes in segment ABSOLUTE
 384 bytes in segment CODE
   4 bytes in segment INTVEC
 
 384 bytes of CODE memory (+ 4 bytes shared)
   0 bytes of DATA memory (+ 5 bytes shared)

Errors: none
Warnings: none
