###############################################################################
#
# IAR C/C++ Compiler V7.30.5.1680 for Microchip AVR       02/Jan/2024  12:26:16
# Copyright 1996-2022 IAR Systems AB.
# Mobile license - IAR Embedded Workbench for Microchip AVR 8.10
#
#    Source file  =  
#        C:\Users\ESY\OneDrive -
#        Scanjet\Documents\GitHub\S2Prog\IO\ANZB_ATmega1281\Src\UsartInt.c
#    Command line =  
#        -f C:\Users\ESY\AppData\Local\Temp\EWA784.tmp ("C:\Users\ESY\OneDrive
#        - Scanjet\Documents\GitHub\S2Prog\IO\ANZB_ATmega1281\Src\UsartInt.c"
#        --cpu=m128 -ms -o "C:\Users\ESY\OneDrive -
#        Scanjet\Documents\GitHub\S2Prog\IO\ANZB_ATmega1281\Release_debug\Obj"
#        -D OS_LIBMODE_S -D OS_UART=-1 -D USE_16552_DRIVER_TASK=1 -D
#        USE_1281_RX_INT_TASK=1 -D USE_MODBUS_PROTOCOL=0 -D ANZBANA_V8=0 -D
#        __ATMEGA_1281__ -lCN "C:\Users\ESY\OneDrive -
#        Scanjet\Documents\GitHub\S2Prog\IO\ANZB_ATmega1281\Release_debug\List"
#        -y --initializers_in_flash -DENABLE_BIT_DEFINITIONS -e -I
#        "C:\Users\ESY\OneDrive -
#        Scanjet\Documents\GitHub\S2Prog\IO\ANZB_ATmega1281\INC\\" -I
#        "C:\Users\ESY\OneDrive -
#        Scanjet\Documents\GitHub\S2Prog\IO\ANZB_ATmega1281\..\..\SHARED\INC\\"
#        --eeprom_size 4096 --clib -Ohz)
#    Locale       =  English_USA.1252
#    List file    =  
#        C:\Users\ESY\OneDrive -
#        Scanjet\Documents\GitHub\S2Prog\IO\ANZB_ATmega1281\Release_debug\List\UsartInt.lst
#    Object file  =  
#        C:\Users\ESY\OneDrive -
#        Scanjet\Documents\GitHub\S2Prog\IO\ANZB_ATmega1281\Release_debug\Obj\UsartInt.r90
#
###############################################################################

C:\Users\ESY\OneDrive - Scanjet\Documents\GitHub\S2Prog\IO\ANZB_ATmega1281\Src\UsartInt.c
      1          /****************************************************************************************
      2          / USART1 functions and interrupt
      3          /   This routines sync and check the ANPRO10
      4          /   Uart1Pro.c handle the package
      5          /
      6          ***************************************************************************************/
      7          #if USE_MODBUS_PROTOCOL == 0
      8          
      9              #include "iom1281.h"

   \                                 In  segment ABSOLUTE, at 0xce
   \   union <unnamed> volatile __io _A_UDR1
   \                     _A_UDR1:
   \   00000000                      DS8 1

   \                                 In  segment ABSOLUTE, at 0xc9
   \   union <unnamed> volatile __io _A_UCSR1B
   \                     _A_UCSR1B:
   \   00000000                      DS8 1

   \                                 In  segment ABSOLUTE, at 0xc8
   \   union <unnamed> volatile __io _A_UCSR1A
   \                     _A_UCSR1A:
   \   00000000                      DS8 1

   \                                 In  segment ABSOLUTE, at 0xc6
   \   union <unnamed> volatile __io _A_UDR0
   \                     _A_UDR0:
   \   00000000                      DS8 1

   \                                 In  segment ABSOLUTE, at 0xc1
   \   union <unnamed> volatile __io _A_UCSR0B
   \                     _A_UCSR0B:
   \   00000000                      DS8 1

   \                                 In  segment ABSOLUTE, at 0xc0
   \   union <unnamed> volatile __io _A_UCSR0A
   \                     _A_UCSR0A:
   \   00000000                      DS8 1

   \                                 In  segment ABSOLUTE, at 0x2e
   \   union <unnamed> volatile __io _A_PORTE
   \                     _A_PORTE:
   \   00000000                      DS8 1
     10              #include "stdio.h"
     11              #include "math.h"
     12              #include "externals.h"
     13              #include "version.h"
     14              #pragma diag_suppress=Pa082
     15          
     16          
     17          
     18              #if USE_1281_RX_INT_TASK==1

   \                                 In  segment CODE, align 2, keep-with-next
     19          static void _ATMega1281_irq_handler(char Ch) {
   \                     _ATMega1281_irq_handler:
   \   00000000   ........           CALL    ?PROLOGUE4_L09
   \   00000004   9721               SBIW    R29:R28, 1
   \   00000006   2F80               MOV     R24, R16
     20              char RxByte;
     21              OS_GetMail1(&UART[Ch].RxMailBox, &RxByte);
   \   00000008   E010               LDI     R17, 0
   \   0000000A   EF4D               LDI     R20, 253
   \   0000000C   E051               LDI     R21, 1
   \   0000000E   ........           CALL    ?S_EC_MUL_L02
   \   00000012   ....               LDI     R26, LOW(UART)
   \   00000014   ....               LDI     R27, (UART) >> 8
   \   00000016   0FA0               ADD     R26, R16
   \   00000018   1FB1               ADC     R27, R17
   \   0000001A   019E               MOVW    R19:R18, R29:R28
   \   0000001C   018D               MOVW    R17:R16, R27:R26
   \   0000001E   500E               SUBI    R16, 14
   \   00000020   4F1E               SBCI    R17, 254
   \   00000022   ........           CALL    OS_GetMail1
     22          
     23              UART[Ch].pRxBuffer[UART[Ch].RxFirst] = RxByte;    // Read the character
   \   00000026   018D               MOVW    R17:R16, R27:R26
   \   00000028   540F               SUBI    R16, 79
   \   0000002A   4F1E               SBCI    R17, 254
   \   0000002C   8128               LD      R18, Y
   \   0000002E   01F8               MOVW    R31:R30, R17:R16
   \   00000030   8140               LD      R20, Z
   \   00000032   8151               LDD     R21, Z+1
   \   00000034   01FD               MOVW    R31:R30, R27:R26
   \   00000036   0FE4               ADD     R30, R20
   \   00000038   1FF5               ADC     R31, R21
   \   0000003A   5EE5               SUBI    R30, 229
   \   0000003C   4FFE               SBCI    R31, 254
   \   0000003E   8320               ST      Z, R18
     24              switch (UART[Ch].RxState) {
   \   00000040   01F8               MOVW    R31:R30, R17:R16
   \   00000042   8126               LDD     R18, Z+6
   \   00000044   2322               TST     R18
   \   00000046   F019               BREQ    ??_ATMega1281_irq_handler_0
   \   00000048   502A               SUBI    R18, 10
   \   0000004A   F1F1               BREQ    ??_ATMega1281_irq_handler_1
   \   0000004C   C02F               RJMP    ??_ATMega1281_irq_handler_2
     25              case HANDLE:
     26                  // Not OK to receive as we are handling the message
     27                  break;
     28              case SYNC :
     29                  if (UART[Ch].pRxBuffer[UART[Ch].RxFirst] == ANPRO10_SYN) {
   \                     ??_ATMega1281_irq_handler_0:
   \   0000004E   8120               LD      R18, Z
   \   00000050   8131               LDD     R19, Z+1
   \   00000052   01FD               MOVW    R31:R30, R27:R26
   \   00000054   0FE2               ADD     R30, R18
   \   00000056   1FF3               ADC     R31, R19
   \   00000058   5EE5               SUBI    R30, 229
   \   0000005A   4FFE               SBCI    R31, 254
   \   0000005C   8120               LD      R18, Z
   \   0000005E   3126               CPI     R18, 22
   \   00000060   F451               BRNE    ??_ATMega1281_irq_handler_3
     30                      UART[Ch].SyncCnt++;                 // count sync
   \   00000062   54A8               SUBI    R26, 72
   \   00000064   4FBE               SBCI    R27, 254
   \   00000066   912C               LD      R18, X
   \   00000068   9523               INC     R18
   \   0000006A   932C               ST      X, R18
     31                      UART[Ch].RxFirst = 0;                 // start at start of buff
   \   0000006C   01F8               MOVW    R31:R30, R17:R16
   \   0000006E   E000               LDI     R16, 0
   \   00000070   8300               ST      Z, R16
   \   00000072   8301               STD     Z+1, R16
   \   00000074   C029               RJMP    ??_ATMega1281_irq_handler_1
     32                  } else if ((UART[Ch].SyncCnt >= 2) &&
     33                             (UART[Ch].pRxBuffer[UART[Ch].RxFirst] == ANPRO10_SOH)) {       // minimum two sync bytes
   \                     ??_ATMega1281_irq_handler_3:
   \   00000076   01F8               MOVW    R31:R30, R17:R16
   \   00000078   8127               LDD     R18, Z+7
   \   0000007A   3022               CPI     R18, 2
   \   0000007C   F0A0               BRCS    ??_ATMega1281_irq_handler_4
   \   0000007E   8120               LD      R18, Z
   \   00000080   8131               LDD     R19, Z+1
   \   00000082   0FA2               ADD     R26, R18
   \   00000084   1FB3               ADC     R27, R19
   \   00000086   5EA5               SUBI    R26, 229
   \   00000088   4FBE               SBCI    R27, 254
   \   0000008A   912C               LD      R18, X
   \   0000008C   3021               CPI     R18, 1
   \   0000008E   F459               BRNE    ??_ATMega1281_irq_handler_4
     34                      UART[Ch].SyncCnt = 0;                // reset counter
   \   00000090   E020               LDI     R18, 0
   \   00000092   8327               STD     Z+7, R18
     35                      UART[Ch].RxState = HEADER;
   \   00000094   E021               LDI     R18, 1
   \   00000096   8326               STD     Z+6, R18
     36                      UART[Ch].RxLast = 0;
   \   00000098   E020               LDI     R18, 0
   \   0000009A   8322               STD     Z+2, R18
   \   0000009C   8323               STD     Z+3, R18
     37                      UART[Ch].RxTimeout = RX_TO_TIME;    // reset timeout
   \   0000009E   EF0A               LDI     R16, 250
   \   000000A0   8700               STD     Z+8, R16
   \   000000A2   8721               STD     Z+9, R18
   \   000000A4   C011               RJMP    ??_ATMega1281_irq_handler_1
     38                  } else {
     39                      UART[Ch].SyncCnt = 0;                // start over once more
   \                     ??_ATMega1281_irq_handler_4:
   \   000000A6   E000               LDI     R16, 0
   \   000000A8   8307               STD     Z+7, R16
   \   000000AA   C00E               RJMP    ??_ATMega1281_irq_handler_1
     40                  }
     41                  break;
     42              default :
     43                  if ((++UART[Ch].RxFirst) > RXSIZE_UART) { // Point to next location
   \                     ??_ATMega1281_irq_handler_2:
   \   000000AC   81A0               LD      R26, Z
   \   000000AE   81B1               LDD     R27, Z+1
   \   000000B0   9611               ADIW    R27:R26, 1
   \   000000B2   83A0               ST      Z, R26
   \   000000B4   83B1               STD     Z+1, R27
   \   000000B6   39A7               CPI     R26, 151
   \   000000B8   40B0               SBCI    R27, 0
   \   000000BA   2F08               MOV     R16, R24
   \   000000BC   F018               BRCS    ??_ATMega1281_irq_handler_5
     44                      GoToSyncUART(Ch);                       // go to sync mode
   \   000000BE   ........           CALL    GoToSyncUART
   \   000000C2   C002               RJMP    ??_ATMega1281_irq_handler_1
     45                  } else {
     46                      ReceivePacketUart(Ch);              // Check package
   \                     ??_ATMega1281_irq_handler_5:
   \   000000C4   ........           CALL    ReceivePacketUart
     47                  }
     48                  break;
     49              }
     50          }
   \                     ??_ATMega1281_irq_handler_1:
   \   000000C8   9621               ADIW    R29:R28, 1
   \   000000CA   E0E4               LDI     R30, 4
   \   000000CC   ........           JMP     ?EPILOGUE_B4_L09
     51          
     52                  #pragma diag_suppress=Pe767
     53          

   \                                 In  segment CODE, align 2, keep-with-next
     54          void ATMega1281_RX_driver_task(void *pVoid) {
   \                     ATMega1281_RX_driver_task:
   \   00000000   938A               ST      -Y, R24
     55              char Ch = (char)pVoid;
   \   00000002   2F80               MOV     R24, R16
     56              Init_USART(Ch, 38400);              //
   \   00000004   E040               LDI     R20, 0
   \   00000006   E956               LDI     R21, 150
   \   00000008   E060               LDI     R22, 0
   \   0000000A   E070               LDI     R23, 0
   \   0000000C   ........           CALL    Init_USART
     57              while (1) {
     58                  _ATMega1281_irq_handler(Ch);
   \                     ??ATMega1281_RX_driver_task_0:
   \   00000010   2F08               MOV     R16, R24
   \   00000012   ....               RCALL   _ATMega1281_irq_handler
   \   00000014   CFFD               RJMP    ??ATMega1281_RX_driver_task_0
     59              }
     60          }
     61          

   \                                 In  segment NEAR_Z, align 1, keep-with-next
   \   00000000                      REQUIRE `?<Segment init: NEAR_Z>`
     62          OS_TASK TCB_ATMega1281RX_Driver0;
   \                     TCB_ATMega1281RX_Driver0:
   \   00000000                      DS8 24
     63          OS_TASK TCB_ATMega1281RX_Driver1;
   \                     TCB_ATMega1281RX_Driver1:
   \   00000018                      DS8 24

   \                                 In  segment NEAR_Z, align 1, keep-with-next
   \   00000000                      REQUIRE `?<Segment init: NEAR_Z>`
     64          static OS_STACKPTR int stack1[300], stack2[300]; /* Task stacks */
   \                     stack1:
   \   00000000                      DS8 600

   \                                 In  segment NEAR_Z, align 1, keep-with-next
   \   00000000                      REQUIRE `?<Segment init: NEAR_Z>`
   \                     stack2:
   \   00000000                      DS8 600
     65          

   \                                 In  segment CODE, align 2, keep-with-next
     66          void ATMega1281_driver_task_init(void) {
   \                     ATMega1281_driver_task_init:
     67              OS_CREATETASK_EX(&TCB_ATMega1281RX_Driver0, "ATMega1281 RX Driver0", ATMega1281_RX_driver_task, 121, stack1, (void *)0);
   \   00000000   E000               LDI     R16, 0
   \   00000002   E010               LDI     R17, 0
   \   00000004   930A               ST      -Y, R16
   \   00000006   ....               RCALL   ?Subroutine1
   \                     ??CrossCallReturnLabel_14:
   \   00000008   ....               LDI     R16, LOW(stack1)
   \   0000000A   ....               LDI     R17, (stack1) >> 8
   \   0000000C   ....               RCALL   ?Subroutine2
   \                     ??CrossCallReturnLabel_6:
   \   0000000E   E749               LDI     R20, 121
   \   00000010   ....               LDI     R18, LOW(`?<Constant "ATMega1281 RX Driver0">`)
   \   00000012   ....               LDI     R19, (`?<Constant "ATMega1281 RX Driver0">`) >> 8
   \   00000014   ....               LDI     R16, LOW(TCB_ATMega1281RX_Driver0)
   \   00000016   ....               LDI     R17, (TCB_ATMega1281RX_Driver0) >> 8
   \   00000018   ........           CALL    OS_CreateTaskEx_S
     68              OS_CREATETASK_EX(&TCB_ATMega1281RX_Driver1, "ATMega1281 RX Driver1", ATMega1281_RX_driver_task, 120, stack2, (void *)1);
   \   0000001C   E001               LDI     R16, LOW(1)
   \   0000001E   E010               LDI     R17, (1) >> 8
   \   00000020   931A               ST      -Y, R17
   \   00000022   ....               RCALL   ?Subroutine1
   \                     ??CrossCallReturnLabel_15:
   \   00000024   ....               LDI     R16, LOW(stack2)
   \   00000026   ....               LDI     R17, (stack2) >> 8
   \   00000028   ....               RCALL   ?Subroutine2
   \                     ??CrossCallReturnLabel_7:
   \   0000002A   E748               LDI     R20, 120
   \   0000002C   ....               LDI     R18, LOW((`?<Constant "ATMega1281 RX Driver0">` + 22))
   \   0000002E   ....               LDI     R19, HIGH((`?<Constant "ATMega1281 RX Driver0">` + 22))
   \   00000030   ....               LDI     R16, LOW((TCB_ATMega1281RX_Driver0 + 24))
   \   00000032   ....               LDI     R17, HIGH((TCB_ATMega1281RX_Driver0 + 24))
   \   00000034   ........           JMP     OS_CreateTaskEx_S
     69          }

   \                                 In  segment CODE, align 2, keep-with-next
   \                     ?Subroutine2:
   \   00000000   ....               RCALL   ?Subroutine6
   \                     ??CrossCallReturnLabel_16:
   \   00000002   ....               LDI     R22, LOW(ATMega1281_RX_driver_task/2)
   \   00000004   ....               LDI     R23, (ATMega1281_RX_driver_task/2) >> 8
   \   00000006   9508               RET

   \                                 In  segment CODE, align 2, keep-with-next
   \                     ?Subroutine1:
   \   00000000   930A               ST      -Y, R16
   \   00000002   E002               LDI     R16, 2
   \   00000004   ....               RCALL   ?Subroutine6
   \                     ??CrossCallReturnLabel_13:
   \   00000006   E508               LDI     R16, 88
   \   00000008   E012               LDI     R17, 2
   \   0000000A                      REQUIRE ?Subroutine6
   \   0000000A                      ;               // Fall through to label ?Subroutine6

   \                                 In  segment CODE, align 2, keep-with-next
   \                     ?Subroutine6:
   \   00000000   931A               ST      -Y, R17
   \   00000002   930A               ST      -Y, R16
   \   00000004   9508               RET
     70              #endif
     71          
     72          
     73          
     74          // USART0

   \                                 In  segment CODE, align 2, keep-with-next
     75          void Int_Handler_RX_USART0(void) {
   \                     Int_Handler_RX_USART0:
     76          
     77              if (UCSR0A & __BIT_MASK(DOR0)) {                // Overrun error?
   \   00000000   9100....           LDS     R16, _A_UCSR0A
     78              }
     79          
     80              if (UCSR0A & __BIT_MASK(FE0)) {                 // Framing error?
   \   00000004   9100....           LDS     R16, _A_UCSR0A
   \   00000008   C00A               RJMP    ??Int_Handler_RX_USART0_0
     81              }
     82          #if USE_1281_RX_INT_TASK==0
     83              while (UCSR0A & __BIT_MASK(RXC0)) {                // New byte avaiable?
     84                  UART[0].pRxBuffer[UART[0].RxFirst] = UDR0;    // Read the character
     85          
     86                  if (UART[0].RxState != HANDLE) {                // ok to receive?
     87                      switch (UART[0].RxState) {                   // Yes, check state
     88                      case SYNC :
     89                          if (UART[0].pRxBuffer[UART[0].RxFirst] == ANPRO10_SYN) {
     90                              UART[0].SyncCnt++;                 // count sync
     91                              UART[0].RxFirst = 0;                 // start at start of buff
     92                          } else if ((UART[0].SyncCnt >= 2) &&
     93                                     (UART[0].pRxBuffer[UART[0].RxFirst] == ANPRO10_SOH)) {       // minimum two sync bytes
     94                              UART[0].SyncCnt = 0;                // reset counter
     95                              UART[0].RxState = HEADER;
     96                              UART[0].RxLast = 0;
     97                              UART[0].RxTimeout = RX_TO_TIME;    // reset timeout
     98                          } else {
     99                              UART[0].SyncCnt = 0;                // start over once more
    100                          }
    101                          break;
    102                      default :
    103                          if ((++UART[0].RxFirst) > RXSIZE_UART) { // Point to next location
    104                              GoToSyncUART(0);                       // go to sync mode
    105                          } else {
    106                              ReceivePacketUart(0);              // Check package
    107                          }
    108                          break;
    109                      }
    110                  }
    111              }
    112          #else
    113              while (UCSR0A & __BIT_MASK(RXC0)) {                // New byte avaiable?
    114                  UART[0].RxByte = UDR0;    // Read the character
   \                     ??Int_Handler_RX_USART0_1:
   \   0000000A   9100....           LDS     R16, _A_UDR0
   \   0000000E   9300....           STS     (UART + 447), R16
    115                  OS_PutMailCond1(&UART[0].RxMailBox, &UART[0].RxByte);
   \   00000012   ....               LDI     R18, LOW((UART + 447))
   \   00000014   ....               LDI     R19, HIGH((UART + 447))
   \   00000016   ....               LDI     R16, LOW((UART + 498))
   \   00000018   ....               LDI     R17, HIGH((UART + 498))
   \   0000001A   ........           CALL    OS_PutMailCond1
    116              }
   \                     ??Int_Handler_RX_USART0_0:
   \   0000001E   9100....           LDS     R16, _A_UCSR0A
   \   00000022   FD07               SBRC    R16, 7
   \   00000024   CFF2               RJMP    ??Int_Handler_RX_USART0_1
    117          #endif
    118          
    119          }
   \   00000026   9508               RET
   \   00000028                      REQUIRE _A_UCSR0A
   \   00000028                      REQUIRE _A_UDR0
    120          
    121          
    122              #pragma vector=USART0_RX_vect

   \                                 In  segment CODE, align 2, keep-with-next
    123          __interrupt void IntHandler_RX_USART0(void) {
   \                     IntHandler_RX_USART0:
   \   00000000   ....               RCALL   ?Subroutine0
    124              OS_CallISR(Int_Handler_RX_USART0);
   \                     ??CrossCallReturnLabel_0:
   \   00000002   ....               LDI     R16, LOW(Int_Handler_RX_USART0/2)
   \   00000004   ....               LDI     R17, (Int_Handler_RX_USART0/2) >> 8
   \   00000006   ....               RJMP    ?Subroutine8
    125          }

   \                                 In  segment CODE, align 2, keep-with-next
   \                     ?Subroutine8:
   \   00000000   ....               RCALL   ?Subroutine3
   \                     ??CrossCallReturnLabel_17:
   \   00000002   9518               RETI

   \                                 In  segment CODE, align 2, keep-with-next
   \                     ?Subroutine3:
   \   00000000   ........           CALL    OS_CallISR
   \   00000004   BF9B               OUT     0x3B, R25
   \   00000006   BF8F               OUT     0x3F, R24
   \   00000008   9109               LD      R16, Y+
   \   0000000A   9119               LD      R17, Y+
   \   0000000C   9129               LD      R18, Y+
   \   0000000E   9139               LD      R19, Y+
   \   00000010   9149               LD      R20, Y+
   \   00000012   9159               LD      R21, Y+
   \   00000014   9169               LD      R22, Y+
   \   00000016   9179               LD      R23, Y+
   \   00000018   9009               LD      R0, Y+
   \   0000001A   9019               LD      R1, Y+
   \   0000001C   9029               LD      R2, Y+
   \   0000001E   9039               LD      R3, Y+
   \   00000020   91E9               LD      R30, Y+
   \   00000022   91F9               LD      R31, Y+
   \   00000024   9189               LD      R24, Y+
   \   00000026   9199               LD      R25, Y+
   \   00000028   9508               RET

   \                                 In  segment CODE, align 2, keep-with-next
   \                     ?Subroutine0:
   \   00000000   939A               ST      -Y, R25
   \   00000002   938A               ST      -Y, R24
   \   00000004   93FA               ST      -Y, R31
   \   00000006   93EA               ST      -Y, R30
   \   00000008   923A               ST      -Y, R3
   \   0000000A   922A               ST      -Y, R2
   \   0000000C   921A               ST      -Y, R1
   \   0000000E   920A               ST      -Y, R0
   \   00000010   937A               ST      -Y, R23
   \   00000012   936A               ST      -Y, R22
   \   00000014   935A               ST      -Y, R21
   \   00000016   934A               ST      -Y, R20
   \   00000018   933A               ST      -Y, R19
   \   0000001A   932A               ST      -Y, R18
   \   0000001C   ....               RCALL   ?Subroutine6
   \                     ??CrossCallReturnLabel_12:
   \   0000001E   B78F               IN      R24, 0x3F
   \   00000020   B79B               IN      R25, 0x3B
   \   00000022   9508               RET
    126          

   \                                 In  segment CODE, align 2, keep-with-next
    127          void Int_Handler_TX_USART0(void) {
   \                     Int_Handler_TX_USART0:
    128          
    129              UCSR0B &= ~(__BIT_MASK(TXCIE0));            // transmission end, disable int.
   \   00000000   910000C1           LDS     R16, 193
   \   00000004   7B0F               ANDI    R16, 0xBF
   \   00000006   930000C1           STS     193, R16
    130              PORTE &= ~0x04;                              // TXE0 off
   \   0000000A   9872               CBI     0x0E, 0x02
    131          #if USE_1281_RX_INT_TASK == 0
    132              OS_StopTimer(&TimerUSART0);                    // and stop timer
    133          #endif
    134              GoToSyncUART(0);                                    // go to sync modus for recive
   \   0000000C   E000               LDI     R16, 0
   \   0000000E                      REQUIRE ?Subroutine9
   \   0000000E                      REQUIRE _A_UCSR0B
   \   0000000E                      REQUIRE _A_PORTE
   \   0000000E                      ;               // Fall through to label ?Subroutine9
    135          
    136          }

   \                                 In  segment CODE, align 2, keep-with-next
   \                     ?Subroutine9:
   \   00000000   ........           JMP     GoToSyncUART
    137          
    138              #pragma vector=USART0_TX_vect

   \                                 In  segment CODE, align 2, keep-with-next
    139          __interrupt void IntHandler_TX_USART0(void) {
   \                     IntHandler_TX_USART0:
   \   00000000   ....               RCALL   ?Subroutine0
    140              OS_CallISR(Int_Handler_TX_USART0);
   \                     ??CrossCallReturnLabel_1:
   \   00000002   ....               LDI     R16, LOW(Int_Handler_TX_USART0/2)
   \   00000004   ....               LDI     R17, (Int_Handler_TX_USART0/2) >> 8
   \   00000006   ....               RJMP    ?Subroutine8
    141          }
    142          

   \                                 In  segment CODE, align 2, keep-with-next
    143          void Int_Handler_UDRE_USART0(void) {
   \                     Int_Handler_UDRE_USART0:
   \   00000000   019C               MOVW    R19:R18, R25:R24
    144              if (UART[0].TxCount-- > 0) {
   \   00000002   ....               LDI     R30, LOW((UART + 279))
   \   00000004   ....               LDI     R31, HIGH((UART + 279))
   \   00000006   ....               RCALL   ?Subroutine4
   \                     ??CrossCallReturnLabel_8:
   \   00000008   F071               BREQ    ??Int_Handler_UDRE_USART0_0
    145                  UDR0 = UART[0].pTxBuffer[UART[0].TxLast];     // Send a character
   \   0000000A   ....               LDI     R30, LOW((UART + 277))
   \   0000000C   ....               LDI     R31, HIGH((UART + 277))
   \   0000000E   8100               LD      R16, Z
   \   00000010   81F1               LDD     R31, Z+1
   \   00000012   2FE0               MOV     R30, R16
   \   00000014   ....               SUBI    R30, LOW((-(UART) & 0xFFFF))
   \   00000016   ....               SBCI    R31, (-(UART) & 0xFFFF) >> 8
   \   00000018   8100               LD      R16, Z
   \   0000001A   9300....           STS     _A_UDR0, R16
    146                  UART[0].TxLast++;
   \   0000001E   ....               LDI     R30, LOW((UART + 277))
   \   00000020   ....               LDI     R31, HIGH((UART + 277))
   \   00000022   ....               RCALL   ?Subroutine5
    147              } else {                                             // Last byte sent?
   \                     ??CrossCallReturnLabel_10:
   \   00000024   C012               RJMP    ??Int_Handler_UDRE_USART0_1
    148                  UCSR0B &= ~(__BIT_MASK(UDRIE0));            // transmission end, disable int.
   \                     ??Int_Handler_UDRE_USART0_0:
   \   00000026   910000C1           LDS     R16, 193
   \   0000002A   7D0F               ANDI    R16, 0xDF
   \   0000002C   930000C1           STS     193, R16
    149                  UCSR0A |= (__BIT_MASK(TXC0));               // Clear int bit in TXC.
   \   00000030   910000C0           LDS     R16, 192
   \   00000034   6400               ORI     R16, 0x40
   \   00000036   930000C0           STS     192, R16
    150                  UCSR0B |= __BIT_MASK(TXCIE0);       // Enable TXC int.
   \   0000003A   910000C1           LDS     R16, 193
   \   0000003E   6400               ORI     R16, 0x40
   \   00000040   930000C1           STS     193, R16
    151                  UART[0].RxState = SYNC;
   \   00000044   E000               LDI     R16, 0
   \   00000046   9300....           STS     (UART + 439), R16
    152              }
    153          }
   \                     ??Int_Handler_UDRE_USART0_1:
   \   0000004A                      REQUIRE ?Subroutine7
   \   0000004A                      REQUIRE _A_UDR0
   \   0000004A                      REQUIRE _A_UCSR0B
   \   0000004A                      REQUIRE _A_UCSR0A
   \   0000004A                      ;               // Fall through to label ?Subroutine7

   \                                 In  segment CODE, align 2, keep-with-next
   \                     ?Subroutine7:
   \   00000000   01C9               MOVW    R25:R24, R19:R18
   \   00000002   9508               RET

   \                                 In  segment CODE, align 2, keep-with-next
   \                     ?Subroutine5:
   \   00000000   8100               LD      R16, Z
   \   00000002   8111               LDD     R17, Z+1
   \   00000004   5F0F               SUBI    R16, 255
   \   00000006   4F1F               SBCI    R17, 255
   \   00000008   8300               ST      Z, R16
   \   0000000A   8311               STD     Z+1, R17
   \   0000000C   9508               RET

   \                                 In  segment CODE, align 2, keep-with-next
   \                     ?Subroutine4:
   \   00000000   8100               LD      R16, Z
   \   00000002   8111               LDD     R17, Z+1
   \   00000004   01C8               MOVW    R25:R24, R17:R16
   \   00000006   9701               SBIW    R25:R24, 1
   \   00000008   8380               ST      Z, R24
   \   0000000A   8391               STD     Z+1, R25
   \   0000000C   2B01               OR      R16, R17
   \   0000000E   9508               RET
    154          
    155          
    156              #pragma vector=USART0_UDRE_vect

   \                                 In  segment CODE, align 2, keep-with-next
    157          __interrupt void IntHandler_UDRE_USART0(void) {
   \                     IntHandler_UDRE_USART0:
   \   00000000   ....               RCALL   ?Subroutine0
    158              OS_CallISR(Int_Handler_UDRE_USART0);
   \                     ??CrossCallReturnLabel_2:
   \   00000002   ....               LDI     R16, LOW(Int_Handler_UDRE_USART0/2)
   \   00000004   ....               LDI     R17, (Int_Handler_UDRE_USART0/2) >> 8
   \   00000006   ....               RJMP    ?Subroutine8
    159          }
    160          // USART1

   \                                 In  segment CODE, align 2, keep-with-next
    161          void Int_Handler_RX_USART1(void) {
   \                     Int_Handler_RX_USART1:
   \   00000000   C00A               RJMP    ??Int_Handler_RX_USART1_0
    162          #if USE_1281_RX_INT_TASK==0
    163          
    164              if (UCSR1A & __BIT_MASK(DOR1)) {                // Overrun error?
    165              }
    166          
    167              if (UCSR1A & __BIT_MASK(FE1)) {                 // Framing error?
    168              }
    169          
    170              while (UCSR1A & __BIT_MASK(RXC1)) {                // New byte avaiable?
    171                  UART[1].pRxBuffer[UART[1].RxFirst] = UDR1;    // Read the character
    172          
    173                  if (UART[1].RxState != HANDLE) {                // ok to receive?
    174                      switch (UART[1].RxState) {                   // Yes, check state
    175                      case SYNC :
    176                          if (UART[1].pRxBuffer[UART[1].RxFirst] == ANPRO10_SYN) {
    177                              UART[1].SyncCnt++;                 // count sync
    178                              UART[1].RxFirst = 0;                 // start at start of buff
    179                          } else if ((UART[1].SyncCnt >= 2) &&
    180                                     (UART[1].pRxBuffer[UART[1].RxFirst] == ANPRO10_SOH)) {       // minimum two sync bytes
    181                              UART[1].SyncCnt = 0;                // reset counter
    182                              UART[1].RxState = HEADER;
    183                              UART[1].RxLast = 0;
    184                              UART[1].RxTimeout = RX_TO_TIME;      // reset timeout
    185                          } else {
    186                              UART[1].SyncCnt = 0;                // start over once more
    187                          }
    188                          break;
    189                      default :
    190                          if ((++UART[1].RxFirst) > RXSIZE_UART) { // Point to next location
    191                              GoToSyncUART(1);                    // go to sync mode
    192                          } else {
    193                              ReceivePacketUart(1);              // Check package
    194                          }
    195                          break;
    196                      }
    197                  }
    198              }
    199          #else
    200              while (UCSR1A & __BIT_MASK(RXC1)) {                // New byte avaiable?
    201                  UART[1].RxByte = UDR1;    // Read the character
   \                     ??Int_Handler_RX_USART1_1:
   \   00000002   9100....           LDS     R16, _A_UDR1
   \   00000006   9300....           STS     (UART + 956), R16
    202                  OS_PutMailCond1(&UART[1].RxMailBox, &UART[1].RxByte);
   \   0000000A   ....               LDI     R18, LOW((UART + 956))
   \   0000000C   ....               LDI     R19, HIGH((UART + 956))
   \   0000000E   ....               LDI     R16, LOW((UART + 1007))
   \   00000010   ....               LDI     R17, HIGH((UART + 1007))
   \   00000012   ........           CALL    OS_PutMailCond1
    203              }
   \                     ??Int_Handler_RX_USART1_0:
   \   00000016   9100....           LDS     R16, _A_UCSR1A
   \   0000001A   FD07               SBRC    R16, 7
   \   0000001C   CFF2               RJMP    ??Int_Handler_RX_USART1_1
    204          #endif
    205          
    206          }
   \   0000001E   9508               RET
   \   00000020                      REQUIRE _A_UDR1
   \   00000020                      REQUIRE _A_UCSR1A
    207          
    208              #pragma vector=USART1_RX_vect

   \                                 In  segment CODE, align 2, keep-with-next
    209          __interrupt void IntHandler_RX_USART1(void) {
   \                     IntHandler_RX_USART1:
   \   00000000   ....               RCALL   ?Subroutine0
    210              OS_CallISR(Int_Handler_RX_USART1);
   \                     ??CrossCallReturnLabel_3:
   \   00000002   ....               LDI     R16, LOW(Int_Handler_RX_USART1/2)
   \   00000004   ....               LDI     R17, (Int_Handler_RX_USART1/2) >> 8
   \   00000006                      REQUIRE ?Subroutine8
   \   00000006                      ;               // Fall through to label ?Subroutine8
    211          }
    212          

   \                                 In  segment CODE, align 2, keep-with-next
    213          void Int_Handler_TX_USART1(void) {
   \                     Int_Handler_TX_USART1:
    214          
    215              UCSR1B &= ~(__BIT_MASK(TXCIE1));            // transmission end, disable int.
   \   00000000   910000C9           LDS     R16, 201
   \   00000004   7B0F               ANDI    R16, 0xBF
   \   00000006   930000C9           STS     201, R16
    216              PORTE &= ~0x08;                              // TXE1 off
   \   0000000A   9873               CBI     0x0E, 0x03
    217          //    OS_StopTimer(&TimerUSART1);                    // and stop timer
    218              GoToSyncUART(1);                                    // go to sync modus for recive
   \   0000000C   E001               LDI     R16, 1
   \   0000000E   ....               RJMP    ?Subroutine9
   \   00000010                      REQUIRE _A_UCSR1B
   \   00000010                      REQUIRE _A_PORTE
    219          }
    220          
    221              #pragma vector=USART1_TX_vect

   \                                 In  segment CODE, align 2, keep-with-next
    222          __interrupt void IntHandler_TX_USART1(void) {
   \                     IntHandler_TX_USART1:
   \   00000000   ....               RCALL   ?Subroutine0
    223              OS_CallISR(Int_Handler_TX_USART1);
   \                     ??CrossCallReturnLabel_4:
   \   00000002   ....               LDI     R16, LOW(Int_Handler_TX_USART1/2)
   \   00000004   ....               LDI     R17, (Int_Handler_TX_USART1/2) >> 8
   \   00000006   ....               RJMP    ?Subroutine8
    224          }
    225          

   \                                 In  segment CODE, align 2, keep-with-next
    226          void Int_Handler_UDRE_USART1(void) {
   \                     Int_Handler_UDRE_USART1:
   \   00000000   019C               MOVW    R19:R18, R25:R24
    227          
    228              if (UART[1].TxCount-- > 0) {
   \   00000002   ....               LDI     R30, LOW((UART + 788))
   \   00000004   ....               LDI     R31, HIGH((UART + 788))
   \   00000006   ....               RCALL   ?Subroutine4
   \                     ??CrossCallReturnLabel_9:
   \   00000008   F071               BREQ    ??Int_Handler_UDRE_USART1_0
    229                  UDR1 = UART[1].pTxBuffer[UART[1].TxLast];     // Send a character
   \   0000000A   ....               LDI     R30, LOW((UART + 786))
   \   0000000C   ....               LDI     R31, HIGH((UART + 786))
   \   0000000E   8100               LD      R16, Z
   \   00000010   81F1               LDD     R31, Z+1
   \   00000012   2FE0               MOV     R30, R16
   \   00000014   ....               SUBI    R30, LOW((-(UART + 509) & 0xFFFF))
   \   00000016   ....               SBCI    R31, HIGH((-(UART + 509) & 0xFFFF))
   \   00000018   8100               LD      R16, Z
   \   0000001A   9300....           STS     _A_UDR1, R16
    230                  UART[1].TxLast++;
   \   0000001E   ....               LDI     R30, LOW((UART + 786))
   \   00000020   ....               LDI     R31, HIGH((UART + 786))
   \   00000022   ....               RCALL   ?Subroutine5
    231              } else {
   \                     ??CrossCallReturnLabel_11:
   \   00000024   C00F               RJMP    ??Int_Handler_UDRE_USART1_1
    232                  UCSR1B &= ~(__BIT_MASK(UDRIE1));            // transmission end, disable int.
   \                     ??Int_Handler_UDRE_USART1_0:
   \   00000026   910000C9           LDS     R16, 201
   \   0000002A   7D0F               ANDI    R16, 0xDF
   \   0000002C   930000C9           STS     201, R16
    233                  UCSR1A |= (__BIT_MASK(TXC1));               // Clear int bit in TXC.
   \   00000030   910000C8           LDS     R16, 200
   \   00000034   6400               ORI     R16, 0x40
   \   00000036   930000C8           STS     200, R16
    234                  UCSR1B |= __BIT_MASK(TXCIE1);       // Enable TXC int.
   \   0000003A   910000C9           LDS     R16, 201
   \   0000003E   6400               ORI     R16, 0x40
   \   00000040   930000C9           STS     201, R16
    235              }
    236          }
   \                     ??Int_Handler_UDRE_USART1_1:
   \   00000044   ....               RJMP    ?Subroutine7
   \   00000046                      REQUIRE _A_UDR1
   \   00000046                      REQUIRE _A_UCSR1B
   \   00000046                      REQUIRE _A_UCSR1A
    237          
    238              #pragma vector=USART1_UDRE_vect

   \                                 In  segment CODE, align 2, keep-with-next
    239          __interrupt void IntHandler_UDRE_USART1(void) {
   \                     IntHandler_UDRE_USART1:
   \   00000000   ....               RCALL   ?Subroutine0
    240              OS_CallISR(Int_Handler_UDRE_USART1);
   \                     ??CrossCallReturnLabel_5:
   \   00000002   ....               LDI     R16, LOW(Int_Handler_UDRE_USART1/2)
   \   00000004   ....               LDI     R17, (Int_Handler_UDRE_USART1/2) >> 8
   \   00000006   ....               RJMP    ?Subroutine8
    241          }

   \                                 In  segment INTVEC, offset 0x64, root
   \                     `??IntHandler_RX_USART0::??INTVEC 100`:
   \   00000064   ........           JMP     IntHandler_RX_USART0

   \                                 In  segment INTVEC, offset 0x68, root
   \                     `??IntHandler_UDRE_USART0::??INTVEC 104`:
   \   00000068   ........           JMP     IntHandler_UDRE_USART0

   \                                 In  segment INTVEC, offset 0x6c, root
   \                     `??IntHandler_TX_USART0::??INTVEC 108`:
   \   0000006C   ........           JMP     IntHandler_TX_USART0

   \                                 In  segment INTVEC, offset 0x90, root
   \                     `??IntHandler_RX_USART1::??INTVEC 144`:
   \   00000090   ........           JMP     IntHandler_RX_USART1

   \                                 In  segment INTVEC, offset 0x94, root
   \                     `??IntHandler_UDRE_USART1::??INTVEC 148`:
   \   00000094   ........           JMP     IntHandler_UDRE_USART1

   \                                 In  segment INTVEC, offset 0x98, root
   \                     `??IntHandler_TX_USART1::??INTVEC 152`:
   \   00000098   ........           JMP     IntHandler_TX_USART1

   \                                 In  segment NEAR_ID, align 1, keep-with-next
   \                     `?<Initializer for <Constant "ATMega1281 RX Dri`:
   \   00000000   5441654D6167       DC8 "ATMega1281 RX Driver0"
   \              323131385220
   \              205872447669
   \              72650030    
   \                     `?<Initializer for <Constant "ATMega1281 RX Dri_1`:
   \   00000016   5441654D6167       DC8 "ATMega1281 RX Driver1"
   \              323131385220
   \              205872447669
   \              72650031    

   \                                 In  segment NEAR_I, align 1, keep-with-next
   \   00000000                      REQUIRE `?<Segment init: NEAR_I>`
   \                     `?<Constant "ATMega1281 RX Driver0">`:
   \   00000000                      DS8 22
   \   00000016                      REQUIRE `?<Initializer for <Constant "ATMega1281 RX Dri`
   \   00000016                      DS8 22
   \   0000002C                      REQUIRE `?<Initializer for <Constant "ATMega1281 RX Dri_1`
    242          
    243          #endif /* USE_MODBUS_PROTOCOL == 0 */
    244          
    245          
    246          

   Maximum stack usage in bytes:

   CSTACK RSTACK Function
   ------ ------ --------
      1      2   ATMega1281_RX_driver_task
        1      2   -> Init_USART
        1      2   -> _ATMega1281_irq_handler
      8      2   ATMega1281_driver_task_init
        0      2   -> OS_CreateTaskEx_S
     16      2   IntHandler_RX_USART0
       16      4   -> OS_CallISR
     16      2   IntHandler_RX_USART1
       16      4   -> OS_CallISR
     16      2   IntHandler_TX_USART0
       16      4   -> OS_CallISR
     16      2   IntHandler_TX_USART1
       16      4   -> OS_CallISR
     16      2   IntHandler_UDRE_USART0
       16      4   -> OS_CallISR
     16      2   IntHandler_UDRE_USART1
       16      4   -> OS_CallISR
      0      2   Int_Handler_RX_USART0
        0      2   -> OS_PutMailCond1
      0      2   Int_Handler_RX_USART1
        0      2   -> OS_PutMailCond1
      0      2   Int_Handler_TX_USART0
        0      2   -> GoToSyncUART
      0      2   Int_Handler_TX_USART1
        0      2   -> GoToSyncUART
      0      2   Int_Handler_UDRE_USART0
      0      2   Int_Handler_UDRE_USART1
      5      2   _ATMega1281_irq_handler
        5      2   -> GoToSyncUART
        5      2   -> OS_GetMail1
        5      2   -> ReceivePacketUart
        5      2 ?S_EC_MUL_L02


   Segment part sizes:

   Bytes  Function/Label
   -----  --------------
      44  ?<Constant "ATMega1281 RX Driver0">
      44  ?<Initializer for <Constant "ATMega1281 RX Dri
      36  ?Subroutine0
      10  ?Subroutine1
       8  ?Subroutine2
      42  ?Subroutine3
      16  ?Subroutine4
      14  ?Subroutine5
       6  ?Subroutine6
       4  ?Subroutine7
       4  ?Subroutine8
       4  ?Subroutine9
      22  ATMega1281_RX_driver_task
      56  ATMega1281_driver_task_init
       8  IntHandler_RX_USART0
       4  IntHandler_RX_USART0::??INTVEC 100
       6  IntHandler_RX_USART1
       4  IntHandler_RX_USART1::??INTVEC 144
       8  IntHandler_TX_USART0
       4  IntHandler_TX_USART0::??INTVEC 108
       8  IntHandler_TX_USART1
       4  IntHandler_TX_USART1::??INTVEC 152
       8  IntHandler_UDRE_USART0
       4  IntHandler_UDRE_USART0::??INTVEC 104
       8  IntHandler_UDRE_USART1
       4  IntHandler_UDRE_USART1::??INTVEC 148
      40  Int_Handler_RX_USART0
      32  Int_Handler_RX_USART1
      14  Int_Handler_TX_USART0
      16  Int_Handler_TX_USART1
      74  Int_Handler_UDRE_USART0
      70  Int_Handler_UDRE_USART1
      48  TCB_ATMega1281RX_Driver0
          TCB_ATMega1281RX_Driver1
     208  _ATMega1281_irq_handler
       1  _A_PORTE
       1  _A_UCSR0A
       1  _A_UCSR0B
       1  _A_UCSR1A
       1  _A_UCSR1B
       1  _A_UDR0
       1  _A_UDR1
     600  stack1
     600  stack2
      14  -- Other

 
     7 bytes in segment ABSOLUTE
   722 bytes in segment CODE
    14 bytes in segment INITTAB
    24 bytes in segment INTVEC
    44 bytes in segment NEAR_I
    44 bytes in segment NEAR_ID
 1 248 bytes in segment NEAR_Z
 
   766 bytes of CODE memory (+ 38 bytes shared)
 1 292 bytes of DATA memory (+  7 bytes shared)

Errors: none
Warnings: none
