###############################################################################
#
# IAR C/C++ Compiler V7.30.5.1680 for Microchip AVR       29/Jan/2024  09:35:44
# Copyright 1996-2022 IAR Systems AB.
# Mobile license - IAR Embedded Workbench for Microchip AVR 8.10
#
#    Source file  =  
#        C:\Users\ESY\OneDrive -
#        Scanjet\Documents\GitHub\S2Prog\IO\AN-ZBHART\Src\eeprom.c
#    Command line =  
#        -f C:\Users\ESY\AppData\Local\Temp\EWBD19.tmp ("C:\Users\ESY\OneDrive
#        - Scanjet\Documents\GitHub\S2Prog\IO\AN-ZBHART\Src\eeprom.c"
#        --cpu=m1280 -ms -o "C:\Users\ESY\OneDrive -
#        Scanjet\Documents\GitHub\S2Prog\IO\AN-ZBHART\Release\Obj" -D
#        OS_LIBMODE_R -D OS_UART=-1 -lCN "C:\Users\ESY\OneDrive -
#        Scanjet\Documents\GitHub\S2Prog\IO\AN-ZBHART\Release\List" -y
#        --initializers_in_flash -DENABLE_BIT_DEFINITIONS -e -I
#        "C:\Users\ESY\OneDrive -
#        Scanjet\Documents\GitHub\S2Prog\IO\AN-ZBHART\INC\\" -I
#        ..\..\..\Shared\Inc\\ --eeprom_size 4096 --clib -Ohs)
#    Locale       =  English_USA.1252
#    List file    =  
#        C:\Users\ESY\OneDrive -
#        Scanjet\Documents\GitHub\S2Prog\IO\AN-ZBHART\Release\List\eeprom.lst
#    Object file  =  
#        C:\Users\ESY\OneDrive -
#        Scanjet\Documents\GitHub\S2Prog\IO\AN-ZBHART\Release\Obj\eeprom.r90
#
###############################################################################

C:\Users\ESY\OneDrive - Scanjet\Documents\GitHub\S2Prog\IO\AN-ZBHART\Src\eeprom.c
      1          /****************************************************************************************
      2          / Read and write the eeprom
      3          /
      4          ***************************************************************************************/
      5          #include "iom1280.h"

   \                                 In  segment ABSOLUTE, at 0x41
   \   union <unnamed> volatile __io _A_EEAR
   \                     _A_EEAR:
   \   00000000                      DS8 2

   \                                 In  segment ABSOLUTE, at 0x40
   \   union <unnamed> volatile __io _A_EEDR
   \                     _A_EEDR:
   \   00000000                      DS8 1

   \                                 In  segment ABSOLUTE, at 0x3f
   \   union <unnamed> volatile __io _A_EECR
   \                     _A_EECR:
   \   00000000                      DS8 1
      6          #include "stdio.h"
      7          #include "math.h"
      8          #include "externals.h"
      9          #include "version.h"
     10          #include "inavr.h"
     11          
     12          
     13          /*---------------------------------------------------------------------------
     14          **
     15          **  See how many date i remining
     16          **
     17          **--------------------------------------------------------------------------*/

   \                                 In  segment CODE, align 2, keep-with-next
     18          char TestEEPROM( void ) {
   \                     TestEEPROM:
     19          
     20              return WriteCount;
   \   00000000   9100....           LDS     R16, WriteCount
   \   00000004   9508               RET
     21          }
     22          
     23          /*---------------------------------------------------------------------------
     24          **
     25          **  Reads an address in the eeprom
     26          **
     27          **--------------------------------------------------------------------------*/

   \                                 In  segment CODE, align 2, keep-with-next
     28          char ReadEEPROMByte( unsigned int Address ) {
   \                     ReadEEPROMByte:
     29          #if 0
     30              unsigned char Data;
     31          
     32              while (EECR & (1<<EEPE))     // Wait until ready
     33                  ;
     34              EEAR = Address;
     35              OS_IncDI();
     36              EECR |= (1 << EERE) ;       // Don't use My_SetBit macrod due to timing
     37              OS_DecRI();
     38          
     39              Data = EEDR;
     40              return Data;
     41          #else
     42              return 0;
   \   00000000   E000               LDI     R16, 0
   \   00000002   9508               RET
     43          #endif
     44          }
     45          
     46          /*---------------------------------------------------------------------------
     47          **
     48          **  Write a caracther to the eeprom
     49          **
     50          **--------------------------------------------------------------------------*/

   \                                 In  segment CODE, align 2, keep-with-next
     51          void WriteEEPROMByte( unsigned int Address, char Data ) {   
   \                     WriteEEPROMByte:
     52              while (EECR & (1<<EEPE))     // Wait until ready
   \                     ??WriteEEPROMByte_0:
   \   00000000   99F9               SBIC    0x1F, 0x01
   \   00000002   CFFE               RJMP    ??WriteEEPROMByte_0
     53                  ;
     54              OS_IncDI();
   \   00000004   94F8               cli
     55              EEAR = Address;
   \   00000006   BD12               OUT     0x22, R17
   \   00000008   BD01               OUT     0x21, R16
     56              EEDR = Data;
   \   0000000A   BD20               OUT     0x20, R18
     57              EECR |= (1 << EEMPE) ;       // Don't use My_SetBit macrod due to timing
   \   0000000C   9AFA               SBI     0x1F, 0x02
     58              EECR |= (1 << EEPE) ;        // Don't use My_SetBit macrod due to timing
   \   0000000E   9AF9               SBI     0x1F, 0x01
     59              OS_DecRI();
   \   00000010   9100....           LDS     R16, (OS_Global + 1)
   \   00000014   2300               TST     R16
   \   00000016   F409               BRNE    ??WriteEEPROMByte_1
   \   00000018   9478               sei
     60          }
   \                     ??WriteEEPROMByte_1:
   \   0000001A   9508               RET
   \   0000001C                      REQUIRE _A_EECR
   \   0000001C                      REQUIRE _A_EEAR
   \   0000001C                      REQUIRE _A_EEDR
     61          
     62          /*---------------------------------------------------------------------------
     63          **
     64          **  Read a tring from the eeprom
     65          **
     66          **--------------------------------------------------------------------------*/

   \                                 In  segment CODE, align 2, keep-with-next
     67          void ReadEEPROMBuffer( unsigned int Address, char Size, char *pData ) {   
   \                     ReadEEPROMBuffer:
   \   00000000   2F39               MOV     R19, R25
   \   00000002   2F68               MOV     R22, R24
     68              unsigned int Index;
     69          
     70              for ( Index = 0; Index < Size; Index++ ) {
   \   00000004   2322               TST     R18
   \   00000006   F041               BREQ    ??ReadEEPROMBuffer_0
   \   00000008   2F82               MOV     R24, R18
   \   0000000A   E090               LDI     R25, 0
   \   0000000C   E000               LDI     R16, 0
     71                  *pData++ = ReadEEPROMByte( Address + Index );
   \                     ??ReadEEPROMBuffer_1:
   \   0000000E   01FA               MOVW    R31:R30, R21:R20
   \   00000010   9301               ST      Z+, R16
   \   00000012   01AF               MOVW    R21:R20, R31:R30
   \   00000014   9701               SBIW    R25:R24, 1
   \   00000016   F7D9               BRNE    ??ReadEEPROMBuffer_1
     72              }
     73          }
   \                     ??ReadEEPROMBuffer_0:
   \   00000018   2F86               MOV     R24, R22
   \   0000001A   2F93               MOV     R25, R19
   \   0000001C   9508               RET
     74          
     75          /*---------------------------------------------------------------------------
     76          **
     77          **  Writ buffer to eeprom
     78          **
     79          **--------------------------------------------------------------------------*/

   \                                 In  segment CODE, align 2, keep-with-next
     80          void WriteEEPROMBuffer( unsigned int Address, char Size, char *pData ) {   
   \                     WriteEEPROMBuffer:
     81          #if 0
     82              while (EECR & (1<<EEPE))     // Wait until ready
     83                  ;
     84              OS_IncDI();
     85              pWriteBuffer = pData;
     86              WriteCount = Size;
     87              EEAR = Address ;
     88              EEDR = *pData ;
     89              pWriteBuffer++;
     90              EEPWriteOK = false;
     91              EECR |= (1 << EEMPE) ;       // Don't use My_SetBit macrod due to timing
     92              EECR |= (1 << EEPE) ;        // Don't use My_SetBit macrod due to timing
     93              EECR |= (1 << EERIE) ;       // Don't use My_SetBit macrod due to timing
     94              OS_DecRI();
     95          #endif
     96          }
   \   00000000   9508               RET
     97          
     98          /*---------------------------------------------------------------------------
     99          **
    100          **  Interrupt on EEPROM write
    101          **
    102          **--------------------------------------------------------------------------*/
    103          

   \                                 In  segment CODE, align 2, keep-with-next
    104          void INT_Handler_EEPROM(void) {
   \                     INT_Handler_EEPROM:
    105              if ( --WriteCount ) {                        // More to write? 
   \   00000000   9100....           LDS     R16, WriteCount
   \   00000004   950A               DEC     R16
   \   00000006   9300....           STS     WriteCount, R16
   \   0000000A   F0C9               BREQ    ??INT_Handler_EEPROM_0
    106                  EEAR++;                                  // Define address and data 
   \   0000000C   B501               IN      R16, 0x21
   \   0000000E   B512               IN      R17, 0x22
   \   00000010   5F0F               SUBI    R16, 255
   \   00000012   4F1F               SBCI    R17, 255
   \   00000014   BD12               OUT     0x22, R17
   \   00000016   BD01               OUT     0x21, R16
    107                  EEDR = *pWriteBuffer++;
   \   00000018   91E0....           LDS     R30, pWriteBuffer
   \   0000001C   91F0....           LDS     R31, (pWriteBuffer + 1)
   \   00000020   8100               LD      R16, Z
   \   00000022   BD00               OUT     0x20, R16
   \   00000024   9100....           LDS     R16, pWriteBuffer
   \   00000028   9110....           LDS     R17, (pWriteBuffer + 1)
   \   0000002C   5F0F               SUBI    R16, 255
   \   0000002E   4F1F               SBCI    R17, 255
   \   00000030   9300....           STS     pWriteBuffer, R16
   \   00000034   9310....           STS     (pWriteBuffer + 1), R17
    108                  EECR |= (1 << EEMPE) ;       // Don't use My_SetBit macrod due to timing
   \   00000038   9AFA               SBI     0x1F, 0x02
    109                  EECR |= (1 << EEPE) ;        // Don't use My_SetBit macrod due to timing
   \   0000003A   9AF9               SBI     0x1F, 0x01
   \   0000003C   9508               RET
    110              } else {
    111                  EECR &= ~(1 << EERIE) ;       // Don't use My_ClrBit macrod due to timing
   \                     ??INT_Handler_EEPROM_0:
   \   0000003E   98FB               CBI     0x1F, 0x03
    112                  EEPWriteOK = true;
   \   00000040   E001               LDI     R16, 1
   \   00000042   9300....           STS     EEPWriteOK, R16
    113              }
    114          
    115          }
   \   00000046   9508               RET
   \   00000048                      REQUIRE _A_EEAR
   \   00000048                      REQUIRE _A_EEDR
   \   00000048                      REQUIRE _A_EECR
    116          
    117          #pragma vector=EE_READY_vect

   \                                 In  segment CODE, align 2, keep-with-next
    118          __interrupt void IntHandler_EEPROM( void ){
   \                     IntHandler_EEPROM:
   \   00000000   939A               ST      -Y, R25
   \   00000002   938A               ST      -Y, R24
   \   00000004   93FA               ST      -Y, R31
   \   00000006   93EA               ST      -Y, R30
   \   00000008   923A               ST      -Y, R3
   \   0000000A   922A               ST      -Y, R2
   \   0000000C   921A               ST      -Y, R1
   \   0000000E   920A               ST      -Y, R0
   \   00000010   937A               ST      -Y, R23
   \   00000012   936A               ST      -Y, R22
   \   00000014   935A               ST      -Y, R21
   \   00000016   934A               ST      -Y, R20
   \   00000018   933A               ST      -Y, R19
   \   0000001A   932A               ST      -Y, R18
   \   0000001C   931A               ST      -Y, R17
   \   0000001E   930A               ST      -Y, R16
   \   00000020   B78F               IN      R24, 0x3F
   \   00000022   B79B               IN      R25, 0x3B
    119              OS_CallISR(INT_Handler_EEPROM);
   \   00000024   ....               LDI     R16, LOW(INT_Handler_EEPROM/2)
   \   00000026   ....               LDI     R17, (INT_Handler_EEPROM/2) >> 8
   \   00000028   ........           CALL    OS_CallISR
    120          }
   \   0000002C   BF9B               OUT     0x3B, R25
   \   0000002E   BF8F               OUT     0x3F, R24
   \   00000030   9109               LD      R16, Y+
   \   00000032   9119               LD      R17, Y+
   \   00000034   9129               LD      R18, Y+
   \   00000036   9139               LD      R19, Y+
   \   00000038   9149               LD      R20, Y+
   \   0000003A   9159               LD      R21, Y+
   \   0000003C   9169               LD      R22, Y+
   \   0000003E   9179               LD      R23, Y+
   \   00000040   9009               LD      R0, Y+
   \   00000042   9019               LD      R1, Y+
   \   00000044   9029               LD      R2, Y+
   \   00000046   9039               LD      R3, Y+
   \   00000048   91E9               LD      R30, Y+
   \   0000004A   91F9               LD      R31, Y+
   \   0000004C   9189               LD      R24, Y+
   \   0000004E   9199               LD      R25, Y+
   \   00000050   9518               RETI
    121          
    122          
    123          /**===========================================================================
    124          ** Get the stored version in EEPROM
    125          **==========================================================================*/ 

   \                                 In  segment CODE, align 2, keep-with-next
    126          char EEPROMVersion(void) {
   \                     EEPROMVersion:
    127          #if 0
    128              char val ;
    129              char retval = false;
    130          
    131              ReadEEPROMBuffer(EEPROM_ID_START, 1, (char*)&val) ;
    132              if (val == EEPROM_ID) {                                     //correct EEPROM ID
    133                  ReadEEPROMBuffer(EEPROM_ID_START+1, 1, (char*)&val) ;
    134                  if (val == STORE_VERSION) {                             // and version
    135                      ReadEEPROMBuffer(0xffe, 1, (char*)&val) ;
    136                      if (val == EEPROM_OK) {                             // and no reset from user
    137                          retval = true ;                                 // then everything is OK
    138                      }
    139                  }
    140              }
    141              return retval;
    142          #else
    143              return 0;
   \   00000000   E000               LDI     R16, 0
   \   00000002   9508               RET
    144          #endif
    145          }
    146          
    147          /**===========================================================================
    148          ** Reset the EEPROM
    149          **==========================================================================*/ 

   \                                 In  segment CODE, align 2, keep-with-next
    150          void EEPROMReset(void) {
   \                     EEPROMReset:
    151          #if 0
    152              EEARL = (0x0ffe & 0xff);
    153              EEARH = (0x0ffe >> 8);
    154              EEDR = EEPROM_RESET;
    155              EECR |= (1<<EEMPE);
    156              EECR |= (1<<EEPE);
    157              while (EECR & (1<<EEPE))
    158                  ;
    159              WDTCSR = 0x18;               //Start watchdog to genetate restart
    160              WDTCSR = 0x18;
    161          #endif
    162          }
   \   00000000   9508               RET

   \                                 In  segment INTVEC, offset 0x78, root
   \                     `??IntHandler_EEPROM::??INTVEC 120`:
   \   00000078   ........           JMP     IntHandler_EEPROM

   Maximum stack usage in bytes:

   CSTACK RSTACK Function
   ------ ------ --------
      0      2   EEPROMReset
      0      2   EEPROMVersion
      0      2   INT_Handler_EEPROM
     16      2   IntHandler_EEPROM
       16      2   -> OS_CallISR
      0      2   ReadEEPROMBuffer
      0      2   ReadEEPROMByte
      0      2   TestEEPROM
      0      2   WriteEEPROMBuffer
      0      2   WriteEEPROMByte


   Segment part sizes:

   Bytes  Function/Label
   -----  --------------
       2  EEPROMReset
       4  EEPROMVersion
      72  INT_Handler_EEPROM
      82  IntHandler_EEPROM
       4  IntHandler_EEPROM::??INTVEC 120
      30  ReadEEPROMBuffer
       4  ReadEEPROMByte
       6  TestEEPROM
       2  WriteEEPROMBuffer
      28  WriteEEPROMByte
       2  _A_EEAR
       1  _A_EECR
       1  _A_EEDR

 
   4 bytes in segment ABSOLUTE
 230 bytes in segment CODE
   4 bytes in segment INTVEC
 
 230 bytes of CODE memory (+ 4 bytes shared)
   0 bytes of DATA memory (+ 4 bytes shared)

Errors: none
Warnings: none
